
SkyFire.elf:     file format elf32-avr

Sections:
Idx Name          Size      VMA       LMA       File off  Algn
  0 .text         00002a66  00000000  00000000  00000094  2**1
                  CONTENTS, ALLOC, LOAD, READONLY, CODE
  1 .data         000000f6  00802000  00002a66  00002afa  2**0
                  CONTENTS, ALLOC, LOAD, DATA
  2 .bss          000000ff  008020f6  008020f6  00002bf0  2**0
                  ALLOC
  3 .comment      0000005c  00000000  00000000  00002bf0  2**0
                  CONTENTS, READONLY
  4 .note.gnu.avr.deviceinfo 00000040  00000000  00000000  00002c4c  2**2
                  CONTENTS, READONLY
  5 .debug_aranges 000003b8  00000000  00000000  00002c90  2**3
                  CONTENTS, READONLY, DEBUGGING
  6 .debug_info   000119d9  00000000  00000000  00003048  2**0
                  CONTENTS, READONLY, DEBUGGING
  7 .debug_abbrev 00005700  00000000  00000000  00014a21  2**0
                  CONTENTS, READONLY, DEBUGGING
  8 .debug_line   0000667c  00000000  00000000  0001a121  2**0
                  CONTENTS, READONLY, DEBUGGING
  9 .debug_frame  00000e70  00000000  00000000  000207a0  2**2
                  CONTENTS, READONLY, DEBUGGING
 10 .debug_str    000332a9  00000000  00000000  00021610  2**0
                  CONTENTS, READONLY, DEBUGGING
 11 .debug_loc    00003c96  00000000  00000000  000548b9  2**0
                  CONTENTS, READONLY, DEBUGGING
 12 .debug_ranges 00000320  00000000  00000000  0005854f  2**0
                  CONTENTS, READONLY, DEBUGGING
 13 .debug_macro  0000296b  00000000  00000000  0005886f  2**0
                  CONTENTS, READONLY, DEBUGGING

Disassembly of section .text:

00000000 <__vectors>:
       0:	3e c1       	rjmp	.+636    	; 0x27e <__ctors_end>
       2:	00 00       	nop
       4:	62 c1       	rjmp	.+708    	; 0x2ca <__bad_interrupt>
       6:	00 00       	nop
       8:	60 c1       	rjmp	.+704    	; 0x2ca <__bad_interrupt>
       a:	00 00       	nop
       c:	5e c1       	rjmp	.+700    	; 0x2ca <__bad_interrupt>
       e:	00 00       	nop
      10:	5c c1       	rjmp	.+696    	; 0x2ca <__bad_interrupt>
      12:	00 00       	nop
      14:	5a c1       	rjmp	.+692    	; 0x2ca <__bad_interrupt>
      16:	00 00       	nop
      18:	58 c1       	rjmp	.+688    	; 0x2ca <__bad_interrupt>
      1a:	00 00       	nop
      1c:	56 c1       	rjmp	.+684    	; 0x2ca <__bad_interrupt>
      1e:	00 00       	nop
      20:	54 c1       	rjmp	.+680    	; 0x2ca <__bad_interrupt>
      22:	00 00       	nop
      24:	52 c1       	rjmp	.+676    	; 0x2ca <__bad_interrupt>
      26:	00 00       	nop
      28:	50 c1       	rjmp	.+672    	; 0x2ca <__bad_interrupt>
      2a:	00 00       	nop
      2c:	4e c1       	rjmp	.+668    	; 0x2ca <__bad_interrupt>
      2e:	00 00       	nop
      30:	4c c1       	rjmp	.+664    	; 0x2ca <__bad_interrupt>
      32:	00 00       	nop
      34:	4a c1       	rjmp	.+660    	; 0x2ca <__bad_interrupt>
      36:	00 00       	nop
      38:	48 c1       	rjmp	.+656    	; 0x2ca <__bad_interrupt>
      3a:	00 00       	nop
      3c:	46 c1       	rjmp	.+652    	; 0x2ca <__bad_interrupt>
      3e:	00 00       	nop
      40:	44 c1       	rjmp	.+648    	; 0x2ca <__bad_interrupt>
      42:	00 00       	nop
      44:	42 c1       	rjmp	.+644    	; 0x2ca <__bad_interrupt>
      46:	00 00       	nop
      48:	40 c1       	rjmp	.+640    	; 0x2ca <__bad_interrupt>
      4a:	00 00       	nop
      4c:	3e c1       	rjmp	.+636    	; 0x2ca <__bad_interrupt>
      4e:	00 00       	nop
      50:	3c c1       	rjmp	.+632    	; 0x2ca <__bad_interrupt>
      52:	00 00       	nop
      54:	3a c1       	rjmp	.+628    	; 0x2ca <__bad_interrupt>
      56:	00 00       	nop
      58:	38 c1       	rjmp	.+624    	; 0x2ca <__bad_interrupt>
      5a:	00 00       	nop
      5c:	36 c1       	rjmp	.+620    	; 0x2ca <__bad_interrupt>
      5e:	00 00       	nop
      60:	34 c1       	rjmp	.+616    	; 0x2ca <__bad_interrupt>
      62:	00 00       	nop
      64:	0c 94 68 0c 	jmp	0x18d0	; 0x18d0 <__vector_25>
      68:	30 c1       	rjmp	.+608    	; 0x2ca <__bad_interrupt>
      6a:	00 00       	nop
      6c:	2e c1       	rjmp	.+604    	; 0x2ca <__bad_interrupt>
      6e:	00 00       	nop
      70:	2c c1       	rjmp	.+600    	; 0x2ca <__bad_interrupt>
      72:	00 00       	nop
      74:	2a c1       	rjmp	.+596    	; 0x2ca <__bad_interrupt>
      76:	00 00       	nop
      78:	28 c1       	rjmp	.+592    	; 0x2ca <__bad_interrupt>
      7a:	00 00       	nop
      7c:	26 c1       	rjmp	.+588    	; 0x2ca <__bad_interrupt>
      7e:	00 00       	nop
      80:	24 c1       	rjmp	.+584    	; 0x2ca <__bad_interrupt>
      82:	00 00       	nop
      84:	22 c1       	rjmp	.+580    	; 0x2ca <__bad_interrupt>
      86:	00 00       	nop
      88:	20 c1       	rjmp	.+576    	; 0x2ca <__bad_interrupt>
      8a:	00 00       	nop
      8c:	1e c1       	rjmp	.+572    	; 0x2ca <__bad_interrupt>
      8e:	00 00       	nop
      90:	1c c1       	rjmp	.+568    	; 0x2ca <__bad_interrupt>
      92:	00 00       	nop
      94:	1a c1       	rjmp	.+564    	; 0x2ca <__bad_interrupt>
      96:	00 00       	nop
      98:	18 c1       	rjmp	.+560    	; 0x2ca <__bad_interrupt>
      9a:	00 00       	nop
      9c:	36 c2       	rjmp	.+1132   	; 0x50a <__vector_39>
      9e:	00 00       	nop
      a0:	71 c2       	rjmp	.+1250   	; 0x584 <__vector_40>
      a2:	00 00       	nop
      a4:	ac c2       	rjmp	.+1368   	; 0x5fe <__vector_41>
      a6:	00 00       	nop
      a8:	e7 c2       	rjmp	.+1486   	; 0x678 <__vector_42>
      aa:	00 00       	nop
      ac:	0e c1       	rjmp	.+540    	; 0x2ca <__bad_interrupt>
      ae:	00 00       	nop
      b0:	0c c1       	rjmp	.+536    	; 0x2ca <__bad_interrupt>
      b2:	00 00       	nop
      b4:	0a c1       	rjmp	.+532    	; 0x2ca <__bad_interrupt>
      b6:	00 00       	nop
      b8:	08 c1       	rjmp	.+528    	; 0x2ca <__bad_interrupt>
      ba:	00 00       	nop
      bc:	0c 94 24 0c 	jmp	0x1848	; 0x1848 <__vector_47>
      c0:	04 c1       	rjmp	.+520    	; 0x2ca <__bad_interrupt>
      c2:	00 00       	nop
      c4:	02 c1       	rjmp	.+516    	; 0x2ca <__bad_interrupt>
      c6:	00 00       	nop
      c8:	00 c1       	rjmp	.+512    	; 0x2ca <__bad_interrupt>
      ca:	00 00       	nop
      cc:	fe c0       	rjmp	.+508    	; 0x2ca <__bad_interrupt>
      ce:	00 00       	nop
      d0:	fc c0       	rjmp	.+504    	; 0x2ca <__bad_interrupt>
      d2:	00 00       	nop
      d4:	fa c0       	rjmp	.+500    	; 0x2ca <__bad_interrupt>
      d6:	00 00       	nop
      d8:	f8 c0       	rjmp	.+496    	; 0x2ca <__bad_interrupt>
      da:	00 00       	nop
      dc:	f6 c0       	rjmp	.+492    	; 0x2ca <__bad_interrupt>
      de:	00 00       	nop
      e0:	f4 c0       	rjmp	.+488    	; 0x2ca <__bad_interrupt>
      e2:	00 00       	nop
      e4:	f2 c0       	rjmp	.+484    	; 0x2ca <__bad_interrupt>
      e6:	00 00       	nop
      e8:	f0 c0       	rjmp	.+480    	; 0x2ca <__bad_interrupt>
      ea:	00 00       	nop
      ec:	ee c0       	rjmp	.+476    	; 0x2ca <__bad_interrupt>
      ee:	00 00       	nop
      f0:	ec c0       	rjmp	.+472    	; 0x2ca <__bad_interrupt>
      f2:	00 00       	nop
      f4:	ea c0       	rjmp	.+468    	; 0x2ca <__bad_interrupt>
      f6:	00 00       	nop
      f8:	e8 c0       	rjmp	.+464    	; 0x2ca <__bad_interrupt>
      fa:	00 00       	nop
      fc:	e6 c0       	rjmp	.+460    	; 0x2ca <__bad_interrupt>
      fe:	00 00       	nop
     100:	e4 c0       	rjmp	.+456    	; 0x2ca <__bad_interrupt>
     102:	00 00       	nop
     104:	e2 c0       	rjmp	.+452    	; 0x2ca <__bad_interrupt>
     106:	00 00       	nop
     108:	e0 c0       	rjmp	.+448    	; 0x2ca <__bad_interrupt>
     10a:	00 00       	nop
     10c:	de c0       	rjmp	.+444    	; 0x2ca <__bad_interrupt>
     10e:	00 00       	nop
     110:	dc c0       	rjmp	.+440    	; 0x2ca <__bad_interrupt>
     112:	00 00       	nop
     114:	da c0       	rjmp	.+436    	; 0x2ca <__bad_interrupt>
     116:	00 00       	nop
     118:	d8 c0       	rjmp	.+432    	; 0x2ca <__bad_interrupt>
     11a:	00 00       	nop
     11c:	02 c1       	rjmp	.+516    	; 0x322 <__vector_71>
     11e:	00 00       	nop
     120:	3d c1       	rjmp	.+634    	; 0x39c <__vector_72>
     122:	00 00       	nop
     124:	78 c1       	rjmp	.+752    	; 0x416 <__vector_73>
     126:	00 00       	nop
     128:	b3 c1       	rjmp	.+870    	; 0x490 <__vector_74>
     12a:	00 00       	nop
     12c:	ce c0       	rjmp	.+412    	; 0x2ca <__bad_interrupt>
     12e:	00 00       	nop
     130:	cc c0       	rjmp	.+408    	; 0x2ca <__bad_interrupt>
     132:	00 00       	nop
     134:	ca c0       	rjmp	.+404    	; 0x2ca <__bad_interrupt>
     136:	00 00       	nop
     138:	c8 c0       	rjmp	.+400    	; 0x2ca <__bad_interrupt>
     13a:	00 00       	nop
     13c:	c6 c0       	rjmp	.+396    	; 0x2ca <__bad_interrupt>
     13e:	00 00       	nop
     140:	c4 c0       	rjmp	.+392    	; 0x2ca <__bad_interrupt>
     142:	00 00       	nop
     144:	c2 c0       	rjmp	.+388    	; 0x2ca <__bad_interrupt>
     146:	00 00       	nop
     148:	c0 c0       	rjmp	.+384    	; 0x2ca <__bad_interrupt>
     14a:	00 00       	nop
     14c:	be c0       	rjmp	.+380    	; 0x2ca <__bad_interrupt>
     14e:	00 00       	nop
     150:	bc c0       	rjmp	.+376    	; 0x2ca <__bad_interrupt>
     152:	00 00       	nop
     154:	ba c0       	rjmp	.+372    	; 0x2ca <__bad_interrupt>
     156:	00 00       	nop
     158:	b8 c0       	rjmp	.+368    	; 0x2ca <__bad_interrupt>
     15a:	00 00       	nop
     15c:	b6 c0       	rjmp	.+364    	; 0x2ca <__bad_interrupt>
     15e:	00 00       	nop
     160:	b4 c0       	rjmp	.+360    	; 0x2ca <__bad_interrupt>
     162:	00 00       	nop
     164:	b2 c0       	rjmp	.+356    	; 0x2ca <__bad_interrupt>
     166:	00 00       	nop
     168:	b0 c0       	rjmp	.+352    	; 0x2ca <__bad_interrupt>
     16a:	00 00       	nop
     16c:	0c 94 9f 0c 	jmp	0x193e	; 0x193e <__vector_91>
     170:	ac c0       	rjmp	.+344    	; 0x2ca <__bad_interrupt>
     172:	00 00       	nop
     174:	aa c0       	rjmp	.+340    	; 0x2ca <__bad_interrupt>
     176:	00 00       	nop
     178:	a8 c0       	rjmp	.+336    	; 0x2ca <__bad_interrupt>
     17a:	00 00       	nop
     17c:	a6 c0       	rjmp	.+332    	; 0x2ca <__bad_interrupt>
     17e:	00 00       	nop
     180:	a4 c0       	rjmp	.+328    	; 0x2ca <__bad_interrupt>
     182:	00 00       	nop
     184:	a2 c0       	rjmp	.+324    	; 0x2ca <__bad_interrupt>
     186:	00 00       	nop
     188:	a0 c0       	rjmp	.+320    	; 0x2ca <__bad_interrupt>
     18a:	00 00       	nop
     18c:	9e c0       	rjmp	.+316    	; 0x2ca <__bad_interrupt>
     18e:	00 00       	nop
     190:	9c c0       	rjmp	.+312    	; 0x2ca <__bad_interrupt>
     192:	00 00       	nop
     194:	9a c0       	rjmp	.+308    	; 0x2ca <__bad_interrupt>
     196:	00 00       	nop
     198:	98 c0       	rjmp	.+304    	; 0x2ca <__bad_interrupt>
     19a:	00 00       	nop
     19c:	96 c0       	rjmp	.+300    	; 0x2ca <__bad_interrupt>
     19e:	00 00       	nop
     1a0:	94 c0       	rjmp	.+296    	; 0x2ca <__bad_interrupt>
     1a2:	00 00       	nop
     1a4:	92 c0       	rjmp	.+292    	; 0x2ca <__bad_interrupt>
     1a6:	00 00       	nop
     1a8:	90 c0       	rjmp	.+288    	; 0x2ca <__bad_interrupt>
     1aa:	00 00       	nop
     1ac:	8e c0       	rjmp	.+284    	; 0x2ca <__bad_interrupt>
     1ae:	00 00       	nop
     1b0:	8c c0       	rjmp	.+280    	; 0x2ca <__bad_interrupt>
     1b2:	00 00       	nop
     1b4:	8a c0       	rjmp	.+276    	; 0x2ca <__bad_interrupt>
     1b6:	00 00       	nop
     1b8:	88 c0       	rjmp	.+272    	; 0x2ca <__bad_interrupt>
     1ba:	00 00       	nop
     1bc:	86 c0       	rjmp	.+268    	; 0x2ca <__bad_interrupt>
     1be:	00 00       	nop
     1c0:	84 c0       	rjmp	.+264    	; 0x2ca <__bad_interrupt>
     1c2:	00 00       	nop
     1c4:	82 c0       	rjmp	.+260    	; 0x2ca <__bad_interrupt>
     1c6:	00 00       	nop
     1c8:	80 c0       	rjmp	.+256    	; 0x2ca <__bad_interrupt>
     1ca:	00 00       	nop
     1cc:	7e c0       	rjmp	.+252    	; 0x2ca <__bad_interrupt>
     1ce:	00 00       	nop
     1d0:	7c c0       	rjmp	.+248    	; 0x2ca <__bad_interrupt>
     1d2:	00 00       	nop
     1d4:	7a c0       	rjmp	.+244    	; 0x2ca <__bad_interrupt>
     1d6:	00 00       	nop
     1d8:	78 c0       	rjmp	.+240    	; 0x2ca <__bad_interrupt>
     1da:	00 00       	nop
     1dc:	76 c0       	rjmp	.+236    	; 0x2ca <__bad_interrupt>
     1de:	00 00       	nop
     1e0:	74 c0       	rjmp	.+232    	; 0x2ca <__bad_interrupt>
     1e2:	00 00       	nop
     1e4:	72 c0       	rjmp	.+228    	; 0x2ca <__bad_interrupt>
     1e6:	00 00       	nop
     1e8:	70 c0       	rjmp	.+224    	; 0x2ca <__bad_interrupt>
     1ea:	00 00       	nop
     1ec:	6e c0       	rjmp	.+220    	; 0x2ca <__bad_interrupt>
     1ee:	00 00       	nop
     1f0:	6c c0       	rjmp	.+216    	; 0x2ca <__bad_interrupt>
     1f2:	00 00       	nop
     1f4:	6a c0       	rjmp	.+212    	; 0x2ca <__bad_interrupt>
     1f6:	00 00       	nop
     1f8:	68 c0       	rjmp	.+208    	; 0x2ca <__bad_interrupt>
     1fa:	00 00       	nop
     1fc:	07 63       	ori	r16, 0x37	; 55
     1fe:	42 36       	cpi	r20, 0x62	; 98
     200:	b7 9b       	sbis	0x16, 7	; 22
     202:	d8 a7       	std	Y+40, r29	; 0x28
     204:	1a 39       	cpi	r17, 0x9A	; 154
     206:	68 56       	subi	r22, 0x68	; 104
     208:	18 ae       	std	Y+56, r1	; 0x38
     20a:	ba ab       	std	Y+50, r27	; 0x32
     20c:	55 8c       	ldd	r5, Z+29	; 0x1d
     20e:	1d 3c       	cpi	r17, 0xCD	; 205
     210:	b7 cc       	rjmp	.-1682   	; 0xfffffb80 <__eeprom_end+0xff7efb80>
     212:	57 63       	ori	r21, 0x37	; 55
     214:	bd 6d       	ori	r27, 0xDD	; 221
     216:	ed fd       	.word	0xfded	; ????
     218:	75 3e       	cpi	r23, 0xE5	; 229
     21a:	f6 17       	cp	r31, r22
     21c:	72 31       	cpi	r23, 0x12	; 18
     21e:	bf 00       	.word	0x00bf	; ????
     220:	00 00       	nop
     222:	80 3f       	cpi	r24, 0xF0	; 240
     224:	08 00       	.word	0x0008	; ????
     226:	00 00       	nop
     228:	be 92       	st	-X, r11
     22a:	24 49       	sbci	r18, 0x94	; 148
     22c:	12 3e       	cpi	r17, 0xE2	; 226
     22e:	ab aa       	std	Y+51, r10	; 0x33
     230:	aa 2a       	or	r10, r26
     232:	be cd       	rjmp	.-1156   	; 0xfffffdb0 <__eeprom_end+0xff7efdb0>
     234:	cc cc       	rjmp	.-1640   	; 0xfffffbce <__eeprom_end+0xff7efbce>
     236:	4c 3e       	cpi	r20, 0xEC	; 236
     238:	00 00       	nop
     23a:	00 80       	ld	r0, Z
     23c:	be ab       	std	Y+54, r27	; 0x36
     23e:	aa aa       	std	Y+50, r10	; 0x32
     240:	aa 3e       	cpi	r26, 0xEA	; 234
     242:	00 00       	nop
     244:	00 00       	nop
     246:	bf 00       	.word	0x00bf	; ????
     248:	00 00       	nop
     24a:	80 3f       	cpi	r24, 0xF0	; 240
     24c:	00 00       	nop
     24e:	00 00       	nop
     250:	00 08       	sbc	r0, r0
     252:	41 78       	andi	r20, 0x81	; 129
     254:	d3 bb       	out	0x13, r29	; 19
     256:	43 87       	std	Z+11, r20	; 0x0b
     258:	d1 13       	cpse	r29, r17
     25a:	3d 19       	sub	r19, r13
     25c:	0e 3c       	cpi	r16, 0xCE	; 206
     25e:	c3 bd       	out	0x23, r28	; 35
     260:	42 82       	std	Z+2, r4	; 0x02
     262:	ad 2b       	or	r26, r29
     264:	3e 68       	ori	r19, 0x8E	; 142
     266:	ec 82       	std	Y+4, r14	; 0x04
     268:	76 be       	out	0x36, r7	; 54
     26a:	d9 8f       	std	Y+25, r29	; 0x19
     26c:	e1 a9       	ldd	r30, Z+49	; 0x31
     26e:	3e 4c       	sbci	r19, 0xCE	; 206
     270:	80 ef       	ldi	r24, 0xF0	; 240
     272:	ff be       	out	0x3f, r15	; 63
     274:	01 c4       	rjmp	.+2050   	; 0xa78 <usart_init_rs232+0x144>
     276:	ff 7f       	andi	r31, 0xFF	; 255
     278:	3f 00       	.word	0x003f	; ????
     27a:	00 00       	nop
	...

0000027e <__ctors_end>:
     27e:	11 24       	eor	r1, r1
     280:	1f be       	out	0x3f, r1	; 63
     282:	cf ef       	ldi	r28, 0xFF	; 255
     284:	cd bf       	out	0x3d, r28	; 61
     286:	df e3       	ldi	r29, 0x3F	; 63
     288:	de bf       	out	0x3e, r29	; 62
     28a:	00 e0       	ldi	r16, 0x00	; 0
     28c:	0c bf       	out	0x3c, r16	; 60
     28e:	18 be       	out	0x38, r1	; 56
     290:	19 be       	out	0x39, r1	; 57
     292:	1a be       	out	0x3a, r1	; 58
     294:	1b be       	out	0x3b, r1	; 59

00000296 <__do_copy_data>:
     296:	10 e2       	ldi	r17, 0x20	; 32
     298:	a0 e0       	ldi	r26, 0x00	; 0
     29a:	b0 e2       	ldi	r27, 0x20	; 32
     29c:	e6 e6       	ldi	r30, 0x66	; 102
     29e:	fa e2       	ldi	r31, 0x2A	; 42
     2a0:	00 e0       	ldi	r16, 0x00	; 0
     2a2:	0b bf       	out	0x3b, r16	; 59
     2a4:	02 c0       	rjmp	.+4      	; 0x2aa <__do_copy_data+0x14>
     2a6:	07 90       	elpm	r0, Z+
     2a8:	0d 92       	st	X+, r0
     2aa:	a6 3f       	cpi	r26, 0xF6	; 246
     2ac:	b1 07       	cpc	r27, r17
     2ae:	d9 f7       	brne	.-10     	; 0x2a6 <__do_copy_data+0x10>
     2b0:	1b be       	out	0x3b, r1	; 59

000002b2 <__do_clear_bss>:
     2b2:	21 e2       	ldi	r18, 0x21	; 33
     2b4:	a6 ef       	ldi	r26, 0xF6	; 246
     2b6:	b0 e2       	ldi	r27, 0x20	; 32
     2b8:	01 c0       	rjmp	.+2      	; 0x2bc <.do_clear_bss_start>

000002ba <.do_clear_bss_loop>:
     2ba:	1d 92       	st	X+, r1

000002bc <.do_clear_bss_start>:
     2bc:	a5 3f       	cpi	r26, 0xF5	; 245
     2be:	b2 07       	cpc	r27, r18
     2c0:	e1 f7       	brne	.-8      	; 0x2ba <.do_clear_bss_loop>
     2c2:	0e 94 29 0b 	call	0x1652	; 0x1652 <main>
     2c6:	0c 94 31 15 	jmp	0x2a62	; 0x2a62 <_exit>

000002ca <__bad_interrupt>:
     2ca:	9a ce       	rjmp	.-716    	; 0x0 <__vectors>

000002cc <_read>:
#elif (defined(__GNUC__) && (XMEGA || MEGA) )

int _read (int *f); // Remove GCC compiler warning

int _read (int *f)
{
     2cc:	cf 93       	push	r28
     2ce:	df 93       	push	r29
     2d0:	1f 92       	push	r1
     2d2:	cd b7       	in	r28, 0x3d	; 61
     2d4:	de b7       	in	r29, 0x3e	; 62
	char c;
	ptr_get(stdio_base,&c);
     2d6:	80 91 39 21 	lds	r24, 0x2139	; 0x802139 <stdio_base>
     2da:	90 91 3a 21 	lds	r25, 0x213A	; 0x80213a <stdio_base+0x1>
     2de:	e0 91 35 21 	lds	r30, 0x2135	; 0x802135 <ptr_get>
     2e2:	f0 91 36 21 	lds	r31, 0x2136	; 0x802136 <ptr_get+0x1>
     2e6:	be 01       	movw	r22, r28
     2e8:	6f 5f       	subi	r22, 0xFF	; 255
     2ea:	7f 4f       	sbci	r23, 0xFF	; 255
     2ec:	19 95       	eicall
	return c;
     2ee:	89 81       	ldd	r24, Y+1	; 0x01
}
     2f0:	08 2e       	mov	r0, r24
     2f2:	00 0c       	add	r0, r0
     2f4:	99 0b       	sbc	r25, r25
     2f6:	0f 90       	pop	r0
     2f8:	df 91       	pop	r29
     2fa:	cf 91       	pop	r28
     2fc:	08 95       	ret

000002fe <_write>:
#elif (defined(__GNUC__) && (XMEGA || MEGA))

int _write (char c, int *f);

int _write (char c, int *f)
{
     2fe:	68 2f       	mov	r22, r24
	if (ptr_put(stdio_base, c) < 0) {
     300:	80 91 39 21 	lds	r24, 0x2139	; 0x802139 <stdio_base>
     304:	90 91 3a 21 	lds	r25, 0x213A	; 0x80213a <stdio_base+0x1>
     308:	e0 91 37 21 	lds	r30, 0x2137	; 0x802137 <ptr_put>
     30c:	f0 91 38 21 	lds	r31, 0x2138	; 0x802138 <ptr_put+0x1>
     310:	19 95       	eicall
     312:	99 23       	and	r25, r25
     314:	1c f0       	brlt	.+6      	; 0x31c <_write+0x1e>
		return -1;
	}
	return 1;
     316:	81 e0       	ldi	r24, 0x01	; 1
     318:	90 e0       	ldi	r25, 0x00	; 0
     31a:	08 95       	ret
int _write (char c, int *f);

int _write (char c, int *f)
{
	if (ptr_put(stdio_base, c) < 0) {
		return -1;
     31c:	8f ef       	ldi	r24, 0xFF	; 255
     31e:	9f ef       	ldi	r25, 0xFF	; 255
	}
	return 1;
}
     320:	08 95       	ret

00000322 <__vector_71>:
 *
 * Calls the callback function that has been set for the ADC when the channel's
 * interrupt flag is set, if its interrupt has been enabled.
 */
ISR(ADCA_CH0_vect)
{
     322:	1f 92       	push	r1
     324:	0f 92       	push	r0
     326:	0f b6       	in	r0, 0x3f	; 63
     328:	0f 92       	push	r0
     32a:	11 24       	eor	r1, r1
     32c:	08 b6       	in	r0, 0x38	; 56
     32e:	0f 92       	push	r0
     330:	18 be       	out	0x38, r1	; 56
     332:	09 b6       	in	r0, 0x39	; 57
     334:	0f 92       	push	r0
     336:	19 be       	out	0x39, r1	; 57
     338:	0b b6       	in	r0, 0x3b	; 59
     33a:	0f 92       	push	r0
     33c:	1b be       	out	0x3b, r1	; 59
     33e:	2f 93       	push	r18
     340:	3f 93       	push	r19
     342:	4f 93       	push	r20
     344:	5f 93       	push	r21
     346:	6f 93       	push	r22
     348:	7f 93       	push	r23
     34a:	8f 93       	push	r24
     34c:	9f 93       	push	r25
     34e:	af 93       	push	r26
     350:	bf 93       	push	r27
     352:	ef 93       	push	r30
     354:	ff 93       	push	r31
	adca_callback(&ADCA, ADC_CH0, adc_get_result(&ADCA, ADC_CH0));
     356:	40 91 24 02 	lds	r20, 0x0224	; 0x800224 <__TEXT_REGION_LENGTH__+0x700224>
     35a:	50 91 25 02 	lds	r21, 0x0225	; 0x800225 <__TEXT_REGION_LENGTH__+0x700225>
     35e:	e0 91 3d 21 	lds	r30, 0x213D	; 0x80213d <adca_callback>
     362:	f0 91 3e 21 	lds	r31, 0x213E	; 0x80213e <adca_callback+0x1>
     366:	61 e0       	ldi	r22, 0x01	; 1
     368:	80 e0       	ldi	r24, 0x00	; 0
     36a:	92 e0       	ldi	r25, 0x02	; 2
     36c:	19 95       	eicall
}
     36e:	ff 91       	pop	r31
     370:	ef 91       	pop	r30
     372:	bf 91       	pop	r27
     374:	af 91       	pop	r26
     376:	9f 91       	pop	r25
     378:	8f 91       	pop	r24
     37a:	7f 91       	pop	r23
     37c:	6f 91       	pop	r22
     37e:	5f 91       	pop	r21
     380:	4f 91       	pop	r20
     382:	3f 91       	pop	r19
     384:	2f 91       	pop	r18
     386:	0f 90       	pop	r0
     388:	0b be       	out	0x3b, r0	; 59
     38a:	0f 90       	pop	r0
     38c:	09 be       	out	0x39, r0	; 57
     38e:	0f 90       	pop	r0
     390:	08 be       	out	0x38, r0	; 56
     392:	0f 90       	pop	r0
     394:	0f be       	out	0x3f, r0	; 63
     396:	0f 90       	pop	r0
     398:	1f 90       	pop	r1
     39a:	18 95       	reti

0000039c <__vector_72>:
 *
 * Calls the callback function that has been set for the ADC when the channel's
 * interrupt flag is set, if its interrupt has been enabled.
 */
ISR(ADCA_CH1_vect)
{
     39c:	1f 92       	push	r1
     39e:	0f 92       	push	r0
     3a0:	0f b6       	in	r0, 0x3f	; 63
     3a2:	0f 92       	push	r0
     3a4:	11 24       	eor	r1, r1
     3a6:	08 b6       	in	r0, 0x38	; 56
     3a8:	0f 92       	push	r0
     3aa:	18 be       	out	0x38, r1	; 56
     3ac:	09 b6       	in	r0, 0x39	; 57
     3ae:	0f 92       	push	r0
     3b0:	19 be       	out	0x39, r1	; 57
     3b2:	0b b6       	in	r0, 0x3b	; 59
     3b4:	0f 92       	push	r0
     3b6:	1b be       	out	0x3b, r1	; 59
     3b8:	2f 93       	push	r18
     3ba:	3f 93       	push	r19
     3bc:	4f 93       	push	r20
     3be:	5f 93       	push	r21
     3c0:	6f 93       	push	r22
     3c2:	7f 93       	push	r23
     3c4:	8f 93       	push	r24
     3c6:	9f 93       	push	r25
     3c8:	af 93       	push	r26
     3ca:	bf 93       	push	r27
     3cc:	ef 93       	push	r30
     3ce:	ff 93       	push	r31
	adca_callback(&ADCA, ADC_CH1, adc_get_result(&ADCA, ADC_CH1));
     3d0:	40 91 2c 02 	lds	r20, 0x022C	; 0x80022c <__TEXT_REGION_LENGTH__+0x70022c>
     3d4:	50 91 2d 02 	lds	r21, 0x022D	; 0x80022d <__TEXT_REGION_LENGTH__+0x70022d>
     3d8:	e0 91 3d 21 	lds	r30, 0x213D	; 0x80213d <adca_callback>
     3dc:	f0 91 3e 21 	lds	r31, 0x213E	; 0x80213e <adca_callback+0x1>
     3e0:	62 e0       	ldi	r22, 0x02	; 2
     3e2:	80 e0       	ldi	r24, 0x00	; 0
     3e4:	92 e0       	ldi	r25, 0x02	; 2
     3e6:	19 95       	eicall
}
     3e8:	ff 91       	pop	r31
     3ea:	ef 91       	pop	r30
     3ec:	bf 91       	pop	r27
     3ee:	af 91       	pop	r26
     3f0:	9f 91       	pop	r25
     3f2:	8f 91       	pop	r24
     3f4:	7f 91       	pop	r23
     3f6:	6f 91       	pop	r22
     3f8:	5f 91       	pop	r21
     3fa:	4f 91       	pop	r20
     3fc:	3f 91       	pop	r19
     3fe:	2f 91       	pop	r18
     400:	0f 90       	pop	r0
     402:	0b be       	out	0x3b, r0	; 59
     404:	0f 90       	pop	r0
     406:	09 be       	out	0x39, r0	; 57
     408:	0f 90       	pop	r0
     40a:	08 be       	out	0x38, r0	; 56
     40c:	0f 90       	pop	r0
     40e:	0f be       	out	0x3f, r0	; 63
     410:	0f 90       	pop	r0
     412:	1f 90       	pop	r1
     414:	18 95       	reti

00000416 <__vector_73>:
 *
 * Calls the callback function that has been set for the ADC when the channel's
 * interrupt flag is set, if its interrupt has been enabled.
 */
ISR(ADCA_CH2_vect)
{
     416:	1f 92       	push	r1
     418:	0f 92       	push	r0
     41a:	0f b6       	in	r0, 0x3f	; 63
     41c:	0f 92       	push	r0
     41e:	11 24       	eor	r1, r1
     420:	08 b6       	in	r0, 0x38	; 56
     422:	0f 92       	push	r0
     424:	18 be       	out	0x38, r1	; 56
     426:	09 b6       	in	r0, 0x39	; 57
     428:	0f 92       	push	r0
     42a:	19 be       	out	0x39, r1	; 57
     42c:	0b b6       	in	r0, 0x3b	; 59
     42e:	0f 92       	push	r0
     430:	1b be       	out	0x3b, r1	; 59
     432:	2f 93       	push	r18
     434:	3f 93       	push	r19
     436:	4f 93       	push	r20
     438:	5f 93       	push	r21
     43a:	6f 93       	push	r22
     43c:	7f 93       	push	r23
     43e:	8f 93       	push	r24
     440:	9f 93       	push	r25
     442:	af 93       	push	r26
     444:	bf 93       	push	r27
     446:	ef 93       	push	r30
     448:	ff 93       	push	r31
	adca_callback(&ADCA, ADC_CH2, adc_get_result(&ADCA, ADC_CH2));
     44a:	40 91 34 02 	lds	r20, 0x0234	; 0x800234 <__TEXT_REGION_LENGTH__+0x700234>
     44e:	50 91 35 02 	lds	r21, 0x0235	; 0x800235 <__TEXT_REGION_LENGTH__+0x700235>
     452:	e0 91 3d 21 	lds	r30, 0x213D	; 0x80213d <adca_callback>
     456:	f0 91 3e 21 	lds	r31, 0x213E	; 0x80213e <adca_callback+0x1>
     45a:	64 e0       	ldi	r22, 0x04	; 4
     45c:	80 e0       	ldi	r24, 0x00	; 0
     45e:	92 e0       	ldi	r25, 0x02	; 2
     460:	19 95       	eicall
}
     462:	ff 91       	pop	r31
     464:	ef 91       	pop	r30
     466:	bf 91       	pop	r27
     468:	af 91       	pop	r26
     46a:	9f 91       	pop	r25
     46c:	8f 91       	pop	r24
     46e:	7f 91       	pop	r23
     470:	6f 91       	pop	r22
     472:	5f 91       	pop	r21
     474:	4f 91       	pop	r20
     476:	3f 91       	pop	r19
     478:	2f 91       	pop	r18
     47a:	0f 90       	pop	r0
     47c:	0b be       	out	0x3b, r0	; 59
     47e:	0f 90       	pop	r0
     480:	09 be       	out	0x39, r0	; 57
     482:	0f 90       	pop	r0
     484:	08 be       	out	0x38, r0	; 56
     486:	0f 90       	pop	r0
     488:	0f be       	out	0x3f, r0	; 63
     48a:	0f 90       	pop	r0
     48c:	1f 90       	pop	r1
     48e:	18 95       	reti

00000490 <__vector_74>:
 *
 * Calls the callback function that has been set for the ADC when the channel's
 * interrupt flag is set, if its interrupt has been enabled.
 */
ISR(ADCA_CH3_vect)
{
     490:	1f 92       	push	r1
     492:	0f 92       	push	r0
     494:	0f b6       	in	r0, 0x3f	; 63
     496:	0f 92       	push	r0
     498:	11 24       	eor	r1, r1
     49a:	08 b6       	in	r0, 0x38	; 56
     49c:	0f 92       	push	r0
     49e:	18 be       	out	0x38, r1	; 56
     4a0:	09 b6       	in	r0, 0x39	; 57
     4a2:	0f 92       	push	r0
     4a4:	19 be       	out	0x39, r1	; 57
     4a6:	0b b6       	in	r0, 0x3b	; 59
     4a8:	0f 92       	push	r0
     4aa:	1b be       	out	0x3b, r1	; 59
     4ac:	2f 93       	push	r18
     4ae:	3f 93       	push	r19
     4b0:	4f 93       	push	r20
     4b2:	5f 93       	push	r21
     4b4:	6f 93       	push	r22
     4b6:	7f 93       	push	r23
     4b8:	8f 93       	push	r24
     4ba:	9f 93       	push	r25
     4bc:	af 93       	push	r26
     4be:	bf 93       	push	r27
     4c0:	ef 93       	push	r30
     4c2:	ff 93       	push	r31
	adca_callback(&ADCA, ADC_CH3, adc_get_result(&ADCA, ADC_CH3));
     4c4:	40 91 3c 02 	lds	r20, 0x023C	; 0x80023c <__TEXT_REGION_LENGTH__+0x70023c>
     4c8:	50 91 3d 02 	lds	r21, 0x023D	; 0x80023d <__TEXT_REGION_LENGTH__+0x70023d>
     4cc:	e0 91 3d 21 	lds	r30, 0x213D	; 0x80213d <adca_callback>
     4d0:	f0 91 3e 21 	lds	r31, 0x213E	; 0x80213e <adca_callback+0x1>
     4d4:	68 e0       	ldi	r22, 0x08	; 8
     4d6:	80 e0       	ldi	r24, 0x00	; 0
     4d8:	92 e0       	ldi	r25, 0x02	; 2
     4da:	19 95       	eicall
}
     4dc:	ff 91       	pop	r31
     4de:	ef 91       	pop	r30
     4e0:	bf 91       	pop	r27
     4e2:	af 91       	pop	r26
     4e4:	9f 91       	pop	r25
     4e6:	8f 91       	pop	r24
     4e8:	7f 91       	pop	r23
     4ea:	6f 91       	pop	r22
     4ec:	5f 91       	pop	r21
     4ee:	4f 91       	pop	r20
     4f0:	3f 91       	pop	r19
     4f2:	2f 91       	pop	r18
     4f4:	0f 90       	pop	r0
     4f6:	0b be       	out	0x3b, r0	; 59
     4f8:	0f 90       	pop	r0
     4fa:	09 be       	out	0x39, r0	; 57
     4fc:	0f 90       	pop	r0
     4fe:	08 be       	out	0x38, r0	; 56
     500:	0f 90       	pop	r0
     502:	0f be       	out	0x3f, r0	; 63
     504:	0f 90       	pop	r0
     506:	1f 90       	pop	r1
     508:	18 95       	reti

0000050a <__vector_39>:
 *
 * Calls the callback function that has been set for the ADC when the channel's
 * interrupt flag is set, if its interrupt has been enabled.
 */
ISR(ADCB_CH0_vect)
{
     50a:	1f 92       	push	r1
     50c:	0f 92       	push	r0
     50e:	0f b6       	in	r0, 0x3f	; 63
     510:	0f 92       	push	r0
     512:	11 24       	eor	r1, r1
     514:	08 b6       	in	r0, 0x38	; 56
     516:	0f 92       	push	r0
     518:	18 be       	out	0x38, r1	; 56
     51a:	09 b6       	in	r0, 0x39	; 57
     51c:	0f 92       	push	r0
     51e:	19 be       	out	0x39, r1	; 57
     520:	0b b6       	in	r0, 0x3b	; 59
     522:	0f 92       	push	r0
     524:	1b be       	out	0x3b, r1	; 59
     526:	2f 93       	push	r18
     528:	3f 93       	push	r19
     52a:	4f 93       	push	r20
     52c:	5f 93       	push	r21
     52e:	6f 93       	push	r22
     530:	7f 93       	push	r23
     532:	8f 93       	push	r24
     534:	9f 93       	push	r25
     536:	af 93       	push	r26
     538:	bf 93       	push	r27
     53a:	ef 93       	push	r30
     53c:	ff 93       	push	r31
	adcb_callback(&ADCB, ADC_CH0, adc_get_result(&ADCB, ADC_CH0));
     53e:	40 91 64 02 	lds	r20, 0x0264	; 0x800264 <__TEXT_REGION_LENGTH__+0x700264>
     542:	50 91 65 02 	lds	r21, 0x0265	; 0x800265 <__TEXT_REGION_LENGTH__+0x700265>
     546:	e0 91 3b 21 	lds	r30, 0x213B	; 0x80213b <adcb_callback>
     54a:	f0 91 3c 21 	lds	r31, 0x213C	; 0x80213c <adcb_callback+0x1>
     54e:	61 e0       	ldi	r22, 0x01	; 1
     550:	80 e4       	ldi	r24, 0x40	; 64
     552:	92 e0       	ldi	r25, 0x02	; 2
     554:	19 95       	eicall
}
     556:	ff 91       	pop	r31
     558:	ef 91       	pop	r30
     55a:	bf 91       	pop	r27
     55c:	af 91       	pop	r26
     55e:	9f 91       	pop	r25
     560:	8f 91       	pop	r24
     562:	7f 91       	pop	r23
     564:	6f 91       	pop	r22
     566:	5f 91       	pop	r21
     568:	4f 91       	pop	r20
     56a:	3f 91       	pop	r19
     56c:	2f 91       	pop	r18
     56e:	0f 90       	pop	r0
     570:	0b be       	out	0x3b, r0	; 59
     572:	0f 90       	pop	r0
     574:	09 be       	out	0x39, r0	; 57
     576:	0f 90       	pop	r0
     578:	08 be       	out	0x38, r0	; 56
     57a:	0f 90       	pop	r0
     57c:	0f be       	out	0x3f, r0	; 63
     57e:	0f 90       	pop	r0
     580:	1f 90       	pop	r1
     582:	18 95       	reti

00000584 <__vector_40>:
 *
 * Calls the callback function that has been set for the ADC when the channel's
 * interrupt flag is set, if its interrupt has been enabled.
 */
ISR(ADCB_CH1_vect)
{
     584:	1f 92       	push	r1
     586:	0f 92       	push	r0
     588:	0f b6       	in	r0, 0x3f	; 63
     58a:	0f 92       	push	r0
     58c:	11 24       	eor	r1, r1
     58e:	08 b6       	in	r0, 0x38	; 56
     590:	0f 92       	push	r0
     592:	18 be       	out	0x38, r1	; 56
     594:	09 b6       	in	r0, 0x39	; 57
     596:	0f 92       	push	r0
     598:	19 be       	out	0x39, r1	; 57
     59a:	0b b6       	in	r0, 0x3b	; 59
     59c:	0f 92       	push	r0
     59e:	1b be       	out	0x3b, r1	; 59
     5a0:	2f 93       	push	r18
     5a2:	3f 93       	push	r19
     5a4:	4f 93       	push	r20
     5a6:	5f 93       	push	r21
     5a8:	6f 93       	push	r22
     5aa:	7f 93       	push	r23
     5ac:	8f 93       	push	r24
     5ae:	9f 93       	push	r25
     5b0:	af 93       	push	r26
     5b2:	bf 93       	push	r27
     5b4:	ef 93       	push	r30
     5b6:	ff 93       	push	r31
	adcb_callback(&ADCB, ADC_CH1, adc_get_result(&ADCB, ADC_CH1));
     5b8:	40 91 6c 02 	lds	r20, 0x026C	; 0x80026c <__TEXT_REGION_LENGTH__+0x70026c>
     5bc:	50 91 6d 02 	lds	r21, 0x026D	; 0x80026d <__TEXT_REGION_LENGTH__+0x70026d>
     5c0:	e0 91 3b 21 	lds	r30, 0x213B	; 0x80213b <adcb_callback>
     5c4:	f0 91 3c 21 	lds	r31, 0x213C	; 0x80213c <adcb_callback+0x1>
     5c8:	62 e0       	ldi	r22, 0x02	; 2
     5ca:	80 e4       	ldi	r24, 0x40	; 64
     5cc:	92 e0       	ldi	r25, 0x02	; 2
     5ce:	19 95       	eicall
}
     5d0:	ff 91       	pop	r31
     5d2:	ef 91       	pop	r30
     5d4:	bf 91       	pop	r27
     5d6:	af 91       	pop	r26
     5d8:	9f 91       	pop	r25
     5da:	8f 91       	pop	r24
     5dc:	7f 91       	pop	r23
     5de:	6f 91       	pop	r22
     5e0:	5f 91       	pop	r21
     5e2:	4f 91       	pop	r20
     5e4:	3f 91       	pop	r19
     5e6:	2f 91       	pop	r18
     5e8:	0f 90       	pop	r0
     5ea:	0b be       	out	0x3b, r0	; 59
     5ec:	0f 90       	pop	r0
     5ee:	09 be       	out	0x39, r0	; 57
     5f0:	0f 90       	pop	r0
     5f2:	08 be       	out	0x38, r0	; 56
     5f4:	0f 90       	pop	r0
     5f6:	0f be       	out	0x3f, r0	; 63
     5f8:	0f 90       	pop	r0
     5fa:	1f 90       	pop	r1
     5fc:	18 95       	reti

000005fe <__vector_41>:
 *
 * Calls the callback function that has been set for the ADC when the channel's
 * interrupt flag is set, if its interrupt has been enabled.
 */
ISR(ADCB_CH2_vect)
{
     5fe:	1f 92       	push	r1
     600:	0f 92       	push	r0
     602:	0f b6       	in	r0, 0x3f	; 63
     604:	0f 92       	push	r0
     606:	11 24       	eor	r1, r1
     608:	08 b6       	in	r0, 0x38	; 56
     60a:	0f 92       	push	r0
     60c:	18 be       	out	0x38, r1	; 56
     60e:	09 b6       	in	r0, 0x39	; 57
     610:	0f 92       	push	r0
     612:	19 be       	out	0x39, r1	; 57
     614:	0b b6       	in	r0, 0x3b	; 59
     616:	0f 92       	push	r0
     618:	1b be       	out	0x3b, r1	; 59
     61a:	2f 93       	push	r18
     61c:	3f 93       	push	r19
     61e:	4f 93       	push	r20
     620:	5f 93       	push	r21
     622:	6f 93       	push	r22
     624:	7f 93       	push	r23
     626:	8f 93       	push	r24
     628:	9f 93       	push	r25
     62a:	af 93       	push	r26
     62c:	bf 93       	push	r27
     62e:	ef 93       	push	r30
     630:	ff 93       	push	r31
	adcb_callback(&ADCB, ADC_CH2, adc_get_result(&ADCB, ADC_CH2));
     632:	40 91 74 02 	lds	r20, 0x0274	; 0x800274 <__TEXT_REGION_LENGTH__+0x700274>
     636:	50 91 75 02 	lds	r21, 0x0275	; 0x800275 <__TEXT_REGION_LENGTH__+0x700275>
     63a:	e0 91 3b 21 	lds	r30, 0x213B	; 0x80213b <adcb_callback>
     63e:	f0 91 3c 21 	lds	r31, 0x213C	; 0x80213c <adcb_callback+0x1>
     642:	64 e0       	ldi	r22, 0x04	; 4
     644:	80 e4       	ldi	r24, 0x40	; 64
     646:	92 e0       	ldi	r25, 0x02	; 2
     648:	19 95       	eicall
}
     64a:	ff 91       	pop	r31
     64c:	ef 91       	pop	r30
     64e:	bf 91       	pop	r27
     650:	af 91       	pop	r26
     652:	9f 91       	pop	r25
     654:	8f 91       	pop	r24
     656:	7f 91       	pop	r23
     658:	6f 91       	pop	r22
     65a:	5f 91       	pop	r21
     65c:	4f 91       	pop	r20
     65e:	3f 91       	pop	r19
     660:	2f 91       	pop	r18
     662:	0f 90       	pop	r0
     664:	0b be       	out	0x3b, r0	; 59
     666:	0f 90       	pop	r0
     668:	09 be       	out	0x39, r0	; 57
     66a:	0f 90       	pop	r0
     66c:	08 be       	out	0x38, r0	; 56
     66e:	0f 90       	pop	r0
     670:	0f be       	out	0x3f, r0	; 63
     672:	0f 90       	pop	r0
     674:	1f 90       	pop	r1
     676:	18 95       	reti

00000678 <__vector_42>:
 *
 * Calls the callback function that has been set for the ADC when the channel's
 * interrupt flag is set, if its interrupt has been enabled.
 */
ISR(ADCB_CH3_vect)
{
     678:	1f 92       	push	r1
     67a:	0f 92       	push	r0
     67c:	0f b6       	in	r0, 0x3f	; 63
     67e:	0f 92       	push	r0
     680:	11 24       	eor	r1, r1
     682:	08 b6       	in	r0, 0x38	; 56
     684:	0f 92       	push	r0
     686:	18 be       	out	0x38, r1	; 56
     688:	09 b6       	in	r0, 0x39	; 57
     68a:	0f 92       	push	r0
     68c:	19 be       	out	0x39, r1	; 57
     68e:	0b b6       	in	r0, 0x3b	; 59
     690:	0f 92       	push	r0
     692:	1b be       	out	0x3b, r1	; 59
     694:	2f 93       	push	r18
     696:	3f 93       	push	r19
     698:	4f 93       	push	r20
     69a:	5f 93       	push	r21
     69c:	6f 93       	push	r22
     69e:	7f 93       	push	r23
     6a0:	8f 93       	push	r24
     6a2:	9f 93       	push	r25
     6a4:	af 93       	push	r26
     6a6:	bf 93       	push	r27
     6a8:	ef 93       	push	r30
     6aa:	ff 93       	push	r31
	adcb_callback(&ADCB, ADC_CH3, adc_get_result(&ADCB, ADC_CH3));
     6ac:	40 91 7c 02 	lds	r20, 0x027C	; 0x80027c <__TEXT_REGION_LENGTH__+0x70027c>
     6b0:	50 91 7d 02 	lds	r21, 0x027D	; 0x80027d <__TEXT_REGION_LENGTH__+0x70027d>
     6b4:	e0 91 3b 21 	lds	r30, 0x213B	; 0x80213b <adcb_callback>
     6b8:	f0 91 3c 21 	lds	r31, 0x213C	; 0x80213c <adcb_callback+0x1>
     6bc:	68 e0       	ldi	r22, 0x08	; 8
     6be:	80 e4       	ldi	r24, 0x40	; 64
     6c0:	92 e0       	ldi	r25, 0x02	; 2
     6c2:	19 95       	eicall
}
     6c4:	ff 91       	pop	r31
     6c6:	ef 91       	pop	r30
     6c8:	bf 91       	pop	r27
     6ca:	af 91       	pop	r26
     6cc:	9f 91       	pop	r25
     6ce:	8f 91       	pop	r24
     6d0:	7f 91       	pop	r23
     6d2:	6f 91       	pop	r22
     6d4:	5f 91       	pop	r21
     6d6:	4f 91       	pop	r20
     6d8:	3f 91       	pop	r19
     6da:	2f 91       	pop	r18
     6dc:	0f 90       	pop	r0
     6de:	0b be       	out	0x3b, r0	; 59
     6e0:	0f 90       	pop	r0
     6e2:	09 be       	out	0x39, r0	; 57
     6e4:	0f 90       	pop	r0
     6e6:	08 be       	out	0x38, r0	; 56
     6e8:	0f 90       	pop	r0
     6ea:	0f be       	out	0x3f, r0	; 63
     6ec:	0f 90       	pop	r0
     6ee:	1f 90       	pop	r1
     6f0:	18 95       	reti

000006f2 <usart_putchar>:

	if (baud_offset != USART_BAUD_UNDEFINED) {
		(usart)->BAUDCTRLB = (uint8_t)((uint16_t)baudctrl);
		(usart)->BAUDCTRLA = (uint8_t)((uint16_t)baudctrl >> 8);
	}
}
     6f2:	fc 01       	movw	r30, r24
     6f4:	91 81       	ldd	r25, Z+1	; 0x01
     6f6:	95 ff       	sbrs	r25, 5
     6f8:	fd cf       	rjmp	.-6      	; 0x6f4 <usart_putchar+0x2>
     6fa:	60 83       	st	Z, r22
     6fc:	80 e0       	ldi	r24, 0x00	; 0
     6fe:	90 e0       	ldi	r25, 0x00	; 0
     700:	08 95       	ret

00000702 <usart_getchar>:
     702:	fc 01       	movw	r30, r24
     704:	91 81       	ldd	r25, Z+1	; 0x01
     706:	99 23       	and	r25, r25
     708:	ec f7       	brge	.-6      	; 0x704 <usart_getchar+0x2>
     70a:	80 81       	ld	r24, Z
     70c:	08 95       	ret

0000070e <usart_set_baudrate>:
 * \retval true if the hardware supports the baud rate
 * \retval false if the hardware does not support the baud rate (i.e. it's
 *               either too high or too low.)
 */
bool usart_set_baudrate(USART_t *usart, uint32_t baud, uint32_t cpu_hz)
{
     70e:	4f 92       	push	r4
     710:	5f 92       	push	r5
     712:	6f 92       	push	r6
     714:	7f 92       	push	r7
     716:	8f 92       	push	r8
     718:	9f 92       	push	r9
     71a:	af 92       	push	r10
     71c:	bf 92       	push	r11
     71e:	ef 92       	push	r14
     720:	ff 92       	push	r15
     722:	0f 93       	push	r16
     724:	1f 93       	push	r17
     726:	cf 93       	push	r28
     728:	7c 01       	movw	r14, r24
     72a:	4a 01       	movw	r8, r20
     72c:	5b 01       	movw	r10, r22
     72e:	28 01       	movw	r4, r16
     730:	39 01       	movw	r6, r18
	/* 8 = (2^0) * 8 * (2^0) = (2^BSCALE_MIN) * 8 * (BSEL_MIN) */
	max_rate = cpu_hz / 8;
	/* 4194304 = (2^7) * 8 * (2^12) = (2^BSCALE_MAX) * 8 * (BSEL_MAX+1) */
	min_rate = cpu_hz / 4194304;

	if (!((usart)->CTRLB & USART_CLK2X_bm)) {
     732:	fc 01       	movw	r30, r24
     734:	84 81       	ldd	r24, Z+4	; 0x04
     736:	82 ff       	sbrs	r24, 2
     738:	16 c0       	rjmp	.+44     	; 0x766 <usart_set_baudrate+0x58>

	/*
	 * Check if the hardware supports the given baud rate
	 */
	/* 8 = (2^0) * 8 * (2^0) = (2^BSCALE_MIN) * 8 * (BSEL_MIN) */
	max_rate = cpu_hz / 8;
     73a:	d9 01       	movw	r26, r18
     73c:	c8 01       	movw	r24, r16
     73e:	68 94       	set
     740:	12 f8       	bld	r1, 2
     742:	b6 95       	lsr	r27
     744:	a7 95       	ror	r26
     746:	97 95       	ror	r25
     748:	87 95       	ror	r24
     74a:	16 94       	lsr	r1
     74c:	d1 f7       	brne	.-12     	; 0x742 <usart_set_baudrate+0x34>
	/* 4194304 = (2^7) * 8 * (2^12) = (2^BSCALE_MAX) * 8 * (BSEL_MAX+1) */
	min_rate = cpu_hz / 4194304;
     74e:	b9 01       	movw	r22, r18
     750:	a8 01       	movw	r20, r16
     752:	03 2e       	mov	r0, r19
     754:	36 e1       	ldi	r19, 0x16	; 22
     756:	76 95       	lsr	r23
     758:	67 95       	ror	r22
     75a:	57 95       	ror	r21
     75c:	47 95       	ror	r20
     75e:	3a 95       	dec	r19
     760:	d1 f7       	brne	.-12     	; 0x756 <usart_set_baudrate+0x48>
     762:	30 2d       	mov	r19, r0
     764:	15 c0       	rjmp	.+42     	; 0x790 <usart_set_baudrate+0x82>

	if (!((usart)->CTRLB & USART_CLK2X_bm)) {
		max_rate /= 2;
     766:	d9 01       	movw	r26, r18
     768:	c8 01       	movw	r24, r16
     76a:	68 94       	set
     76c:	13 f8       	bld	r1, 3
     76e:	b6 95       	lsr	r27
     770:	a7 95       	ror	r26
     772:	97 95       	ror	r25
     774:	87 95       	ror	r24
     776:	16 94       	lsr	r1
     778:	d1 f7       	brne	.-12     	; 0x76e <usart_set_baudrate+0x60>
		min_rate /= 2;
     77a:	b9 01       	movw	r22, r18
     77c:	a8 01       	movw	r20, r16
     77e:	03 2e       	mov	r0, r19
     780:	37 e1       	ldi	r19, 0x17	; 23
     782:	76 95       	lsr	r23
     784:	67 95       	ror	r22
     786:	57 95       	ror	r21
     788:	47 95       	ror	r20
     78a:	3a 95       	dec	r19
     78c:	d1 f7       	brne	.-12     	; 0x782 <usart_set_baudrate+0x74>
     78e:	30 2d       	mov	r19, r0
	}

	if ((baud > max_rate) || (baud < min_rate)) {
     790:	88 15       	cp	r24, r8
     792:	99 05       	cpc	r25, r9
     794:	aa 05       	cpc	r26, r10
     796:	bb 05       	cpc	r27, r11
     798:	08 f4       	brcc	.+2      	; 0x79c <usart_set_baudrate+0x8e>
     79a:	a6 c0       	rjmp	.+332    	; 0x8e8 <usart_set_baudrate+0x1da>
     79c:	84 16       	cp	r8, r20
     79e:	95 06       	cpc	r9, r21
     7a0:	a6 06       	cpc	r10, r22
     7a2:	b7 06       	cpc	r11, r23
     7a4:	08 f4       	brcc	.+2      	; 0x7a8 <usart_set_baudrate+0x9a>
     7a6:	a2 c0       	rjmp	.+324    	; 0x8ec <usart_set_baudrate+0x1de>
		return false;
	}

	/* Check if double speed is enabled. */
	if (!((usart)->CTRLB & USART_CLK2X_bm)) {
     7a8:	f7 01       	movw	r30, r14
     7aa:	84 81       	ldd	r24, Z+4	; 0x04
     7ac:	82 fd       	sbrc	r24, 2
     7ae:	04 c0       	rjmp	.+8      	; 0x7b8 <usart_set_baudrate+0xaa>
		baud *= 2;
     7b0:	88 0c       	add	r8, r8
     7b2:	99 1c       	adc	r9, r9
     7b4:	aa 1c       	adc	r10, r10
     7b6:	bb 1c       	adc	r11, r11
	}

	/* Find the lowest possible exponent. */
	limit = 0xfffU >> 4;
	ratio = cpu_hz / baud;
     7b8:	c3 01       	movw	r24, r6
     7ba:	b2 01       	movw	r22, r4
     7bc:	a5 01       	movw	r20, r10
     7be:	94 01       	movw	r18, r8
     7c0:	0e 94 83 10 	call	0x2106	; 0x2106 <__udivmodsi4>

	for (exp = -7; exp < 7; exp++) {
		if (ratio < limit) {
     7c4:	2f 3f       	cpi	r18, 0xFF	; 255
     7c6:	31 05       	cpc	r19, r1
     7c8:	41 05       	cpc	r20, r1
     7ca:	51 05       	cpc	r21, r1
     7cc:	08 f4       	brcc	.+2      	; 0x7d0 <usart_set_baudrate+0xc2>
     7ce:	90 c0       	rjmp	.+288    	; 0x8f0 <usart_set_baudrate+0x1e2>
     7d0:	8f ef       	ldi	r24, 0xFF	; 255
     7d2:	90 e0       	ldi	r25, 0x00	; 0
     7d4:	a0 e0       	ldi	r26, 0x00	; 0
     7d6:	b0 e0       	ldi	r27, 0x00	; 0
     7d8:	c9 ef       	ldi	r28, 0xF9	; 249
     7da:	05 c0       	rjmp	.+10     	; 0x7e6 <usart_set_baudrate+0xd8>
     7dc:	28 17       	cp	r18, r24
     7de:	39 07       	cpc	r19, r25
     7e0:	4a 07       	cpc	r20, r26
     7e2:	5b 07       	cpc	r21, r27
     7e4:	58 f0       	brcs	.+22     	; 0x7fc <usart_set_baudrate+0xee>
			break;
		}

		limit <<= 1;
     7e6:	88 0f       	add	r24, r24
     7e8:	99 1f       	adc	r25, r25
     7ea:	aa 1f       	adc	r26, r26
     7ec:	bb 1f       	adc	r27, r27

		if (exp < -3) {
     7ee:	cd 3f       	cpi	r28, 0xFD	; 253
     7f0:	0c f4       	brge	.+2      	; 0x7f4 <usart_set_baudrate+0xe6>
			limit |= 1;
     7f2:	81 60       	ori	r24, 0x01	; 1
     7f4:	cf 5f       	subi	r28, 0xFF	; 255

	/* Find the lowest possible exponent. */
	limit = 0xfffU >> 4;
	ratio = cpu_hz / baud;

	for (exp = -7; exp < 7; exp++) {
     7f6:	c7 30       	cpi	r28, 0x07	; 7
     7f8:	89 f7       	brne	.-30     	; 0x7dc <usart_set_baudrate+0xce>
     7fa:	4f c0       	rjmp	.+158    	; 0x89a <usart_set_baudrate+0x18c>
	 * point.
	 *
	 * The formula for calculating BSEL is slightly different when exp is
	 * negative than it is when exp is positive.
	 */
	if (exp < 0) {
     7fc:	cc 23       	and	r28, r28
     7fe:	0c f0       	brlt	.+2      	; 0x802 <usart_set_baudrate+0xf4>
     800:	4c c0       	rjmp	.+152    	; 0x89a <usart_set_baudrate+0x18c>
		/* We are supposed to subtract 1, then apply BSCALE. We want to
		 * apply BSCALE first, so we need to turn everything inside the
		 * parenthesis into a single fractional expression.
		 */
		cpu_hz -= 8 * baud;
     802:	d5 01       	movw	r26, r10
     804:	c4 01       	movw	r24, r8
     806:	88 0f       	add	r24, r24
     808:	99 1f       	adc	r25, r25
     80a:	aa 1f       	adc	r26, r26
     80c:	bb 1f       	adc	r27, r27
     80e:	88 0f       	add	r24, r24
     810:	99 1f       	adc	r25, r25
     812:	aa 1f       	adc	r26, r26
     814:	bb 1f       	adc	r27, r27
     816:	88 0f       	add	r24, r24
     818:	99 1f       	adc	r25, r25
     81a:	aa 1f       	adc	r26, r26
     81c:	bb 1f       	adc	r27, r27
     81e:	48 1a       	sub	r4, r24
     820:	59 0a       	sbc	r5, r25
     822:	6a 0a       	sbc	r6, r26
     824:	7b 0a       	sbc	r7, r27
		/* If we end up with a left-shift after taking the final
		 * divide-by-8 into account, do the shift before the divide.
		 * Otherwise, left-shift the denominator instead (effectively
		 * resulting in an overall right shift.)
		 */
		if (exp <= -3) {
     826:	ce 3f       	cpi	r28, 0xFE	; 254
     828:	f4 f4       	brge	.+60     	; 0x866 <usart_set_baudrate+0x158>
			div = ((cpu_hz << (-exp - 3)) + baud / 2) / baud;
     82a:	8d ef       	ldi	r24, 0xFD	; 253
     82c:	9f ef       	ldi	r25, 0xFF	; 255
     82e:	8c 1b       	sub	r24, r28
     830:	91 09       	sbc	r25, r1
     832:	c7 fd       	sbrc	r28, 7
     834:	93 95       	inc	r25
     836:	04 c0       	rjmp	.+8      	; 0x840 <usart_set_baudrate+0x132>
     838:	44 0c       	add	r4, r4
     83a:	55 1c       	adc	r5, r5
     83c:	66 1c       	adc	r6, r6
     83e:	77 1c       	adc	r7, r7
     840:	8a 95       	dec	r24
     842:	d2 f7       	brpl	.-12     	; 0x838 <usart_set_baudrate+0x12a>
     844:	d5 01       	movw	r26, r10
     846:	c4 01       	movw	r24, r8
     848:	b6 95       	lsr	r27
     84a:	a7 95       	ror	r26
     84c:	97 95       	ror	r25
     84e:	87 95       	ror	r24
     850:	bc 01       	movw	r22, r24
     852:	cd 01       	movw	r24, r26
     854:	64 0d       	add	r22, r4
     856:	75 1d       	adc	r23, r5
     858:	86 1d       	adc	r24, r6
     85a:	97 1d       	adc	r25, r7
     85c:	a5 01       	movw	r20, r10
     85e:	94 01       	movw	r18, r8
     860:	0e 94 83 10 	call	0x2106	; 0x2106 <__udivmodsi4>
     864:	37 c0       	rjmp	.+110    	; 0x8d4 <usart_set_baudrate+0x1c6>
		} else {
			baud <<= exp + 3;
     866:	83 e0       	ldi	r24, 0x03	; 3
     868:	8c 0f       	add	r24, r28
     86a:	a5 01       	movw	r20, r10
     86c:	94 01       	movw	r18, r8
     86e:	04 c0       	rjmp	.+8      	; 0x878 <usart_set_baudrate+0x16a>
     870:	22 0f       	add	r18, r18
     872:	33 1f       	adc	r19, r19
     874:	44 1f       	adc	r20, r20
     876:	55 1f       	adc	r21, r21
     878:	8a 95       	dec	r24
     87a:	d2 f7       	brpl	.-12     	; 0x870 <usart_set_baudrate+0x162>
			div = (cpu_hz + baud / 2) / baud;
     87c:	da 01       	movw	r26, r20
     87e:	c9 01       	movw	r24, r18
     880:	b6 95       	lsr	r27
     882:	a7 95       	ror	r26
     884:	97 95       	ror	r25
     886:	87 95       	ror	r24
     888:	bc 01       	movw	r22, r24
     88a:	cd 01       	movw	r24, r26
     88c:	64 0d       	add	r22, r4
     88e:	75 1d       	adc	r23, r5
     890:	86 1d       	adc	r24, r6
     892:	97 1d       	adc	r25, r7
     894:	0e 94 83 10 	call	0x2106	; 0x2106 <__udivmodsi4>
     898:	1d c0       	rjmp	.+58     	; 0x8d4 <usart_set_baudrate+0x1c6>
		}
	} else {
		/* We will always do a right shift in this case, but we need to
		 * shift three extra positions because of the divide-by-8.
		 */
		baud <<= exp + 3;
     89a:	83 e0       	ldi	r24, 0x03	; 3
     89c:	8c 0f       	add	r24, r28
     89e:	a5 01       	movw	r20, r10
     8a0:	94 01       	movw	r18, r8
     8a2:	04 c0       	rjmp	.+8      	; 0x8ac <usart_set_baudrate+0x19e>
     8a4:	22 0f       	add	r18, r18
     8a6:	33 1f       	adc	r19, r19
     8a8:	44 1f       	adc	r20, r20
     8aa:	55 1f       	adc	r21, r21
     8ac:	8a 95       	dec	r24
     8ae:	d2 f7       	brpl	.-12     	; 0x8a4 <usart_set_baudrate+0x196>
		div = (cpu_hz + baud / 2) / baud - 1;
     8b0:	da 01       	movw	r26, r20
     8b2:	c9 01       	movw	r24, r18
     8b4:	b6 95       	lsr	r27
     8b6:	a7 95       	ror	r26
     8b8:	97 95       	ror	r25
     8ba:	87 95       	ror	r24
     8bc:	bc 01       	movw	r22, r24
     8be:	cd 01       	movw	r24, r26
     8c0:	64 0d       	add	r22, r4
     8c2:	75 1d       	adc	r23, r5
     8c4:	86 1d       	adc	r24, r6
     8c6:	97 1d       	adc	r25, r7
     8c8:	0e 94 83 10 	call	0x2106	; 0x2106 <__udivmodsi4>
     8cc:	21 50       	subi	r18, 0x01	; 1
     8ce:	31 09       	sbc	r19, r1
     8d0:	41 09       	sbc	r20, r1
     8d2:	51 09       	sbc	r21, r1
	}

	(usart)->BAUDCTRLB = (uint8_t)(((div >> 8) & 0X0F) | (exp << 4));
     8d4:	83 2f       	mov	r24, r19
     8d6:	8f 70       	andi	r24, 0x0F	; 15
     8d8:	c2 95       	swap	r28
     8da:	c0 7f       	andi	r28, 0xF0	; 240
     8dc:	c8 2b       	or	r28, r24
     8de:	f7 01       	movw	r30, r14
     8e0:	c7 83       	std	Z+7, r28	; 0x07
	(usart)->BAUDCTRLA = (uint8_t)div;
     8e2:	26 83       	std	Z+6, r18	; 0x06

	return true;
     8e4:	81 e0       	ldi	r24, 0x01	; 1
     8e6:	18 c0       	rjmp	.+48     	; 0x918 <usart_set_baudrate+0x20a>
		max_rate /= 2;
		min_rate /= 2;
	}

	if ((baud > max_rate) || (baud < min_rate)) {
		return false;
     8e8:	80 e0       	ldi	r24, 0x00	; 0
     8ea:	16 c0       	rjmp	.+44     	; 0x918 <usart_set_baudrate+0x20a>
     8ec:	80 e0       	ldi	r24, 0x00	; 0
     8ee:	14 c0       	rjmp	.+40     	; 0x918 <usart_set_baudrate+0x20a>
	if (exp < 0) {
		/* We are supposed to subtract 1, then apply BSCALE. We want to
		 * apply BSCALE first, so we need to turn everything inside the
		 * parenthesis into a single fractional expression.
		 */
		cpu_hz -= 8 * baud;
     8f0:	d5 01       	movw	r26, r10
     8f2:	c4 01       	movw	r24, r8
     8f4:	88 0f       	add	r24, r24
     8f6:	99 1f       	adc	r25, r25
     8f8:	aa 1f       	adc	r26, r26
     8fa:	bb 1f       	adc	r27, r27
     8fc:	88 0f       	add	r24, r24
     8fe:	99 1f       	adc	r25, r25
     900:	aa 1f       	adc	r26, r26
     902:	bb 1f       	adc	r27, r27
     904:	88 0f       	add	r24, r24
     906:	99 1f       	adc	r25, r25
     908:	aa 1f       	adc	r26, r26
     90a:	bb 1f       	adc	r27, r27
     90c:	48 1a       	sub	r4, r24
     90e:	59 0a       	sbc	r5, r25
     910:	6a 0a       	sbc	r6, r26
     912:	7b 0a       	sbc	r7, r27

	/* Find the lowest possible exponent. */
	limit = 0xfffU >> 4;
	ratio = cpu_hz / baud;

	for (exp = -7; exp < 7; exp++) {
     914:	c9 ef       	ldi	r28, 0xF9	; 249
     916:	89 cf       	rjmp	.-238    	; 0x82a <usart_set_baudrate+0x11c>

	(usart)->BAUDCTRLB = (uint8_t)(((div >> 8) & 0X0F) | (exp << 4));
	(usart)->BAUDCTRLA = (uint8_t)div;

	return true;
}
     918:	cf 91       	pop	r28
     91a:	1f 91       	pop	r17
     91c:	0f 91       	pop	r16
     91e:	ff 90       	pop	r15
     920:	ef 90       	pop	r14
     922:	bf 90       	pop	r11
     924:	af 90       	pop	r10
     926:	9f 90       	pop	r9
     928:	8f 90       	pop	r8
     92a:	7f 90       	pop	r7
     92c:	6f 90       	pop	r6
     92e:	5f 90       	pop	r5
     930:	4f 90       	pop	r4
     932:	08 95       	ret

00000934 <usart_init_rs232>:
 *
 * \retval true if the initialization was successfull
 * \retval false if the initialization failed (error in baud rate calculation)
 */
bool usart_init_rs232(USART_t *usart, const usart_rs232_options_t *opt)
{
     934:	0f 93       	push	r16
     936:	1f 93       	push	r17
     938:	cf 93       	push	r28
     93a:	df 93       	push	r29
     93c:	ec 01       	movw	r28, r24
     93e:	8b 01       	movw	r16, r22
 *
 * \param module Pointer to the module's base address.
 */
static inline void sysclk_enable_peripheral_clock(const volatile void *module)
{
	if (module == NULL) {
     940:	00 97       	sbiw	r24, 0x00	; 0
     942:	09 f4       	brne	.+2      	; 0x946 <usart_init_rs232+0x12>
     944:	36 c1       	rjmp	.+620    	; 0xbb2 <usart_init_rs232+0x27e>
		Assert(false);
	}
#ifdef AES
	else if (module == &AES) {
     946:	80 3c       	cpi	r24, 0xC0	; 192
     948:	91 05       	cpc	r25, r1
     94a:	21 f4       	brne	.+8      	; 0x954 <usart_init_rs232+0x20>
		sysclk_enable_module(SYSCLK_PORT_GEN, SYSCLK_AES);
     94c:	60 e1       	ldi	r22, 0x10	; 16
     94e:	80 e0       	ldi	r24, 0x00	; 0
     950:	36 d3       	rcall	.+1644   	; 0xfbe <sysclk_enable_module>
     952:	2f c1       	rjmp	.+606    	; 0xbb2 <usart_init_rs232+0x27e>
	}
#endif
#ifdef EBI
	else if (module == &EBI) {
     954:	c0 34       	cpi	r28, 0x40	; 64
     956:	84 e0       	ldi	r24, 0x04	; 4
     958:	d8 07       	cpc	r29, r24
     95a:	21 f4       	brne	.+8      	; 0x964 <usart_init_rs232+0x30>
		sysclk_enable_module(SYSCLK_PORT_GEN, SYSCLK_EBI);
     95c:	68 e0       	ldi	r22, 0x08	; 8
     95e:	80 e0       	ldi	r24, 0x00	; 0
     960:	2e d3       	rcall	.+1628   	; 0xfbe <sysclk_enable_module>
     962:	27 c1       	rjmp	.+590    	; 0xbb2 <usart_init_rs232+0x27e>
	}
#endif
#ifdef RTC
	else if (module == &RTC) {
     964:	c1 15       	cp	r28, r1
     966:	e4 e0       	ldi	r30, 0x04	; 4
     968:	de 07       	cpc	r29, r30
     96a:	21 f4       	brne	.+8      	; 0x974 <usart_init_rs232+0x40>
		sysclk_enable_module(SYSCLK_PORT_GEN, SYSCLK_RTC);
     96c:	64 e0       	ldi	r22, 0x04	; 4
     96e:	80 e0       	ldi	r24, 0x00	; 0
     970:	26 d3       	rcall	.+1612   	; 0xfbe <sysclk_enable_module>
     972:	1f c1       	rjmp	.+574    	; 0xbb2 <usart_init_rs232+0x27e>
	}
#endif
#ifdef EVSYS
	else if (module == &EVSYS) {
     974:	c0 38       	cpi	r28, 0x80	; 128
     976:	f1 e0       	ldi	r31, 0x01	; 1
     978:	df 07       	cpc	r29, r31
		sysclk_enable_module(SYSCLK_PORT_GEN, SYSCLK_EVSYS);
     97a:	21 f4       	brne	.+8      	; 0x984 <usart_init_rs232+0x50>
     97c:	62 e0       	ldi	r22, 0x02	; 2
     97e:	80 e0       	ldi	r24, 0x00	; 0
     980:	1e d3       	rcall	.+1596   	; 0xfbe <sysclk_enable_module>
     982:	17 c1       	rjmp	.+558    	; 0xbb2 <usart_init_rs232+0x27e>
	}
#endif
#ifdef DMA
	else if (module == &DMA) {
     984:	c1 15       	cp	r28, r1
     986:	81 e0       	ldi	r24, 0x01	; 1
     988:	d8 07       	cpc	r29, r24
		sysclk_enable_module(SYSCLK_PORT_GEN, SYSCLK_DMA);
     98a:	21 f4       	brne	.+8      	; 0x994 <usart_init_rs232+0x60>
     98c:	61 e0       	ldi	r22, 0x01	; 1
     98e:	80 e0       	ldi	r24, 0x00	; 0
     990:	16 d3       	rcall	.+1580   	; 0xfbe <sysclk_enable_module>
     992:	0f c1       	rjmp	.+542    	; 0xbb2 <usart_init_rs232+0x27e>
	else if (module == &EDMA) {
		sysclk_enable_module(SYSCLK_PORT_GEN, SYSCLK_EDMA);
	}
#endif
#ifdef ACA
	else if (module == &ACA) {
     994:	c0 38       	cpi	r28, 0x80	; 128
     996:	e3 e0       	ldi	r30, 0x03	; 3
     998:	de 07       	cpc	r29, r30
		sysclk_enable_module(SYSCLK_PORT_A, SYSCLK_AC);
     99a:	21 f4       	brne	.+8      	; 0x9a4 <usart_init_rs232+0x70>
     99c:	61 e0       	ldi	r22, 0x01	; 1
     99e:	81 e0       	ldi	r24, 0x01	; 1
     9a0:	0e d3       	rcall	.+1564   	; 0xfbe <sysclk_enable_module>
     9a2:	07 c1       	rjmp	.+526    	; 0xbb2 <usart_init_rs232+0x27e>
	}
#endif
#ifdef ACB
	else if (module == &ACB) {
     9a4:	c0 39       	cpi	r28, 0x90	; 144
     9a6:	f3 e0       	ldi	r31, 0x03	; 3
     9a8:	df 07       	cpc	r29, r31
		sysclk_enable_module(SYSCLK_PORT_B, SYSCLK_AC);
     9aa:	21 f4       	brne	.+8      	; 0x9b4 <usart_init_rs232+0x80>
     9ac:	61 e0       	ldi	r22, 0x01	; 1
     9ae:	82 e0       	ldi	r24, 0x02	; 2
     9b0:	06 d3       	rcall	.+1548   	; 0xfbe <sysclk_enable_module>
	}
#endif
#ifdef ADCA
	else if (module == &ADCA) {
     9b2:	ff c0       	rjmp	.+510    	; 0xbb2 <usart_init_rs232+0x27e>
     9b4:	c1 15       	cp	r28, r1
     9b6:	82 e0       	ldi	r24, 0x02	; 2
     9b8:	d8 07       	cpc	r29, r24
		sysclk_enable_module(SYSCLK_PORT_A, SYSCLK_ADC);
     9ba:	21 f4       	brne	.+8      	; 0x9c4 <usart_init_rs232+0x90>
     9bc:	62 e0       	ldi	r22, 0x02	; 2
     9be:	81 e0       	ldi	r24, 0x01	; 1
     9c0:	fe d2       	rcall	.+1532   	; 0xfbe <sysclk_enable_module>
	}
#endif
#ifdef ADCB
	else if (module == &ADCB) {
     9c2:	f7 c0       	rjmp	.+494    	; 0xbb2 <usart_init_rs232+0x27e>
     9c4:	c0 34       	cpi	r28, 0x40	; 64
     9c6:	e2 e0       	ldi	r30, 0x02	; 2
     9c8:	de 07       	cpc	r29, r30
		sysclk_enable_module(SYSCLK_PORT_B, SYSCLK_ADC);
     9ca:	21 f4       	brne	.+8      	; 0x9d4 <usart_init_rs232+0xa0>
     9cc:	62 e0       	ldi	r22, 0x02	; 2
     9ce:	82 e0       	ldi	r24, 0x02	; 2
     9d0:	f6 d2       	rcall	.+1516   	; 0xfbe <sysclk_enable_module>
	}
#endif
#ifdef DACA
	else if (module == &DACA) {
     9d2:	ef c0       	rjmp	.+478    	; 0xbb2 <usart_init_rs232+0x27e>
     9d4:	c1 15       	cp	r28, r1
     9d6:	f3 e0       	ldi	r31, 0x03	; 3
     9d8:	df 07       	cpc	r29, r31
		sysclk_enable_module(SYSCLK_PORT_A, SYSCLK_DAC);
     9da:	21 f4       	brne	.+8      	; 0x9e4 <usart_init_rs232+0xb0>
     9dc:	64 e0       	ldi	r22, 0x04	; 4
     9de:	81 e0       	ldi	r24, 0x01	; 1
     9e0:	ee d2       	rcall	.+1500   	; 0xfbe <sysclk_enable_module>
	}
#endif
// Workaround for bad XMEGA D header file
#if !XMEGA_D
#ifdef DACB
	else if (module == &DACB) {
     9e2:	e7 c0       	rjmp	.+462    	; 0xbb2 <usart_init_rs232+0x27e>
     9e4:	c0 32       	cpi	r28, 0x20	; 32
     9e6:	83 e0       	ldi	r24, 0x03	; 3
     9e8:	d8 07       	cpc	r29, r24
		sysclk_enable_module(SYSCLK_PORT_B, SYSCLK_DAC);
     9ea:	21 f4       	brne	.+8      	; 0x9f4 <usart_init_rs232+0xc0>
     9ec:	64 e0       	ldi	r22, 0x04	; 4
     9ee:	82 e0       	ldi	r24, 0x02	; 2
     9f0:	e6 d2       	rcall	.+1484   	; 0xfbe <sysclk_enable_module>
	}
#endif
#endif // Workaround end
#ifdef TCC0
	else if (module == &TCC0) {
     9f2:	df c0       	rjmp	.+446    	; 0xbb2 <usart_init_rs232+0x27e>
     9f4:	c1 15       	cp	r28, r1
     9f6:	e8 e0       	ldi	r30, 0x08	; 8
		sysclk_enable_module(SYSCLK_PORT_C, SYSCLK_TC0);
     9f8:	de 07       	cpc	r29, r30
     9fa:	21 f4       	brne	.+8      	; 0xa04 <usart_init_rs232+0xd0>
     9fc:	61 e0       	ldi	r22, 0x01	; 1
     9fe:	83 e0       	ldi	r24, 0x03	; 3
     a00:	de d2       	rcall	.+1468   	; 0xfbe <sysclk_enable_module>
	}
#endif
#ifdef TCD0
	else if (module == &TCD0) {
     a02:	d7 c0       	rjmp	.+430    	; 0xbb2 <usart_init_rs232+0x27e>
     a04:	c1 15       	cp	r28, r1
     a06:	f9 e0       	ldi	r31, 0x09	; 9
		sysclk_enable_module(SYSCLK_PORT_D, SYSCLK_TC0);
     a08:	df 07       	cpc	r29, r31
     a0a:	21 f4       	brne	.+8      	; 0xa14 <usart_init_rs232+0xe0>
     a0c:	61 e0       	ldi	r22, 0x01	; 1
     a0e:	84 e0       	ldi	r24, 0x04	; 4
     a10:	d6 d2       	rcall	.+1452   	; 0xfbe <sysclk_enable_module>
	}
#endif
#ifdef TCE0
	else if (module == &TCE0) {
     a12:	cf c0       	rjmp	.+414    	; 0xbb2 <usart_init_rs232+0x27e>
     a14:	c1 15       	cp	r28, r1
     a16:	8a e0       	ldi	r24, 0x0A	; 10
		sysclk_enable_module(SYSCLK_PORT_E, SYSCLK_TC0);
     a18:	d8 07       	cpc	r29, r24
     a1a:	21 f4       	brne	.+8      	; 0xa24 <usart_init_rs232+0xf0>
     a1c:	61 e0       	ldi	r22, 0x01	; 1
     a1e:	85 e0       	ldi	r24, 0x05	; 5
     a20:	ce d2       	rcall	.+1436   	; 0xfbe <sysclk_enable_module>
	}
#endif
#ifdef TCF0
	else if (module == &TCF0) {
     a22:	c7 c0       	rjmp	.+398    	; 0xbb2 <usart_init_rs232+0x27e>
     a24:	c1 15       	cp	r28, r1
     a26:	eb e0       	ldi	r30, 0x0B	; 11
		sysclk_enable_module(SYSCLK_PORT_F, SYSCLK_TC0);
     a28:	de 07       	cpc	r29, r30
     a2a:	21 f4       	brne	.+8      	; 0xa34 <usart_init_rs232+0x100>
     a2c:	61 e0       	ldi	r22, 0x01	; 1
     a2e:	86 e0       	ldi	r24, 0x06	; 6
	}
#endif
#ifdef TCC1
	else if (module == &TCC1) {
     a30:	c6 d2       	rcall	.+1420   	; 0xfbe <sysclk_enable_module>
     a32:	bf c0       	rjmp	.+382    	; 0xbb2 <usart_init_rs232+0x27e>
     a34:	c0 34       	cpi	r28, 0x40	; 64
     a36:	f8 e0       	ldi	r31, 0x08	; 8
		sysclk_enable_module(SYSCLK_PORT_C, SYSCLK_TC1);
     a38:	df 07       	cpc	r29, r31
     a3a:	21 f4       	brne	.+8      	; 0xa44 <usart_init_rs232+0x110>
     a3c:	62 e0       	ldi	r22, 0x02	; 2
     a3e:	83 e0       	ldi	r24, 0x03	; 3
	}
#endif
#ifdef TCD1
	else if (module == &TCD1) {
     a40:	be d2       	rcall	.+1404   	; 0xfbe <sysclk_enable_module>
     a42:	b7 c0       	rjmp	.+366    	; 0xbb2 <usart_init_rs232+0x27e>
     a44:	c0 34       	cpi	r28, 0x40	; 64
     a46:	89 e0       	ldi	r24, 0x09	; 9
		sysclk_enable_module(SYSCLK_PORT_D, SYSCLK_TC1);
     a48:	d8 07       	cpc	r29, r24
     a4a:	21 f4       	brne	.+8      	; 0xa54 <usart_init_rs232+0x120>
     a4c:	62 e0       	ldi	r22, 0x02	; 2
     a4e:	84 e0       	ldi	r24, 0x04	; 4
	}
#endif
#ifdef TCE1
	else if (module == &TCE1) {
     a50:	b6 d2       	rcall	.+1388   	; 0xfbe <sysclk_enable_module>
     a52:	af c0       	rjmp	.+350    	; 0xbb2 <usart_init_rs232+0x27e>
     a54:	c0 34       	cpi	r28, 0x40	; 64
     a56:	ea e0       	ldi	r30, 0x0A	; 10
		sysclk_enable_module(SYSCLK_PORT_E, SYSCLK_TC1);
     a58:	de 07       	cpc	r29, r30
     a5a:	21 f4       	brne	.+8      	; 0xa64 <usart_init_rs232+0x130>
     a5c:	62 e0       	ldi	r22, 0x02	; 2
     a5e:	85 e0       	ldi	r24, 0x05	; 5
	}
#endif
#ifdef TCF1
	else if (module == &TCF1) {
     a60:	ae d2       	rcall	.+1372   	; 0xfbe <sysclk_enable_module>
     a62:	a7 c0       	rjmp	.+334    	; 0xbb2 <usart_init_rs232+0x27e>
     a64:	c0 34       	cpi	r28, 0x40	; 64
     a66:	fb e0       	ldi	r31, 0x0B	; 11
		sysclk_enable_module(SYSCLK_PORT_F, SYSCLK_TC1);
     a68:	df 07       	cpc	r29, r31
     a6a:	21 f4       	brne	.+8      	; 0xa74 <usart_init_rs232+0x140>
     a6c:	62 e0       	ldi	r22, 0x02	; 2
     a6e:	86 e0       	ldi	r24, 0x06	; 6
	else if (module == &TCD5) {
		sysclk_enable_module(SYSCLK_PORT_D, SYSCLK_TC5);
	}
#endif
#ifdef HIRESC
	else if (module == &HIRESC) {
     a70:	a6 d2       	rcall	.+1356   	; 0xfbe <sysclk_enable_module>
     a72:	9f c0       	rjmp	.+318    	; 0xbb2 <usart_init_rs232+0x27e>
     a74:	c0 39       	cpi	r28, 0x90	; 144
			sysclk_enable_module(SYSCLK_PORT_C, SYSCLK_HIRES);
     a76:	88 e0       	ldi	r24, 0x08	; 8
     a78:	d8 07       	cpc	r29, r24
     a7a:	21 f4       	brne	.+8      	; 0xa84 <usart_init_rs232+0x150>
     a7c:	64 e0       	ldi	r22, 0x04	; 4
     a7e:	83 e0       	ldi	r24, 0x03	; 3
	}
#endif
#ifdef HIRESD
	else if (module == &HIRESD) {
     a80:	9e d2       	rcall	.+1340   	; 0xfbe <sysclk_enable_module>
     a82:	97 c0       	rjmp	.+302    	; 0xbb2 <usart_init_rs232+0x27e>
     a84:	c0 39       	cpi	r28, 0x90	; 144
		sysclk_enable_module(SYSCLK_PORT_D, SYSCLK_HIRES);
     a86:	e9 e0       	ldi	r30, 0x09	; 9
     a88:	de 07       	cpc	r29, r30
     a8a:	21 f4       	brne	.+8      	; 0xa94 <usart_init_rs232+0x160>
     a8c:	64 e0       	ldi	r22, 0x04	; 4
     a8e:	84 e0       	ldi	r24, 0x04	; 4
	}
#endif
#ifdef HIRESE
	else if (module == &HIRESE) {
     a90:	96 d2       	rcall	.+1324   	; 0xfbe <sysclk_enable_module>
     a92:	8f c0       	rjmp	.+286    	; 0xbb2 <usart_init_rs232+0x27e>
     a94:	c0 39       	cpi	r28, 0x90	; 144
		sysclk_enable_module(SYSCLK_PORT_E, SYSCLK_HIRES);
     a96:	fa e0       	ldi	r31, 0x0A	; 10
     a98:	df 07       	cpc	r29, r31
     a9a:	21 f4       	brne	.+8      	; 0xaa4 <usart_init_rs232+0x170>
     a9c:	64 e0       	ldi	r22, 0x04	; 4
     a9e:	85 e0       	ldi	r24, 0x05	; 5
	}
#endif
#ifdef HIRESF
	else if (module == &HIRESF) {
     aa0:	8e d2       	rcall	.+1308   	; 0xfbe <sysclk_enable_module>
     aa2:	87 c0       	rjmp	.+270    	; 0xbb2 <usart_init_rs232+0x27e>
     aa4:	c0 39       	cpi	r28, 0x90	; 144
		sysclk_enable_module(SYSCLK_PORT_F, SYSCLK_HIRES);
     aa6:	8b e0       	ldi	r24, 0x0B	; 11
     aa8:	d8 07       	cpc	r29, r24
     aaa:	21 f4       	brne	.+8      	; 0xab4 <usart_init_rs232+0x180>
     aac:	64 e0       	ldi	r22, 0x04	; 4
	}
#endif
#ifdef SPIC
	else if (module == &SPIC) {
     aae:	86 e0       	ldi	r24, 0x06	; 6
     ab0:	86 d2       	rcall	.+1292   	; 0xfbe <sysclk_enable_module>
     ab2:	7f c0       	rjmp	.+254    	; 0xbb2 <usart_init_rs232+0x27e>
     ab4:	c0 3c       	cpi	r28, 0xC0	; 192
		sysclk_enable_module(SYSCLK_PORT_C, SYSCLK_SPI);
     ab6:	e8 e0       	ldi	r30, 0x08	; 8
     ab8:	de 07       	cpc	r29, r30
     aba:	21 f4       	brne	.+8      	; 0xac4 <usart_init_rs232+0x190>
     abc:	68 e0       	ldi	r22, 0x08	; 8
	}
#endif
#ifdef SPID
	else if (module == &SPID) {
     abe:	83 e0       	ldi	r24, 0x03	; 3
     ac0:	7e d2       	rcall	.+1276   	; 0xfbe <sysclk_enable_module>
     ac2:	77 c0       	rjmp	.+238    	; 0xbb2 <usart_init_rs232+0x27e>
     ac4:	c0 3c       	cpi	r28, 0xC0	; 192
		sysclk_enable_module(SYSCLK_PORT_D, SYSCLK_SPI);
     ac6:	f9 e0       	ldi	r31, 0x09	; 9
     ac8:	df 07       	cpc	r29, r31
     aca:	21 f4       	brne	.+8      	; 0xad4 <usart_init_rs232+0x1a0>
     acc:	68 e0       	ldi	r22, 0x08	; 8
	}
#endif
#ifdef SPIE
	else if (module == &SPIE) {
     ace:	84 e0       	ldi	r24, 0x04	; 4
     ad0:	76 d2       	rcall	.+1260   	; 0xfbe <sysclk_enable_module>
     ad2:	6f c0       	rjmp	.+222    	; 0xbb2 <usart_init_rs232+0x27e>
     ad4:	c0 3c       	cpi	r28, 0xC0	; 192
		sysclk_enable_module(SYSCLK_PORT_E, SYSCLK_SPI);
     ad6:	8a e0       	ldi	r24, 0x0A	; 10
     ad8:	d8 07       	cpc	r29, r24
     ada:	21 f4       	brne	.+8      	; 0xae4 <usart_init_rs232+0x1b0>
     adc:	68 e0       	ldi	r22, 0x08	; 8
	}
#endif
#ifdef SPIF
	else if (module == &SPIF) {
     ade:	85 e0       	ldi	r24, 0x05	; 5
     ae0:	6e d2       	rcall	.+1244   	; 0xfbe <sysclk_enable_module>
     ae2:	67 c0       	rjmp	.+206    	; 0xbb2 <usart_init_rs232+0x27e>
     ae4:	c0 3c       	cpi	r28, 0xC0	; 192
		sysclk_enable_module(SYSCLK_PORT_F, SYSCLK_SPI);
     ae6:	eb e0       	ldi	r30, 0x0B	; 11
     ae8:	de 07       	cpc	r29, r30
     aea:	21 f4       	brne	.+8      	; 0xaf4 <usart_init_rs232+0x1c0>
     aec:	68 e0       	ldi	r22, 0x08	; 8
	}
#endif
#ifdef USARTC0
	else if (module == &USARTC0) {
     aee:	86 e0       	ldi	r24, 0x06	; 6
     af0:	66 d2       	rcall	.+1228   	; 0xfbe <sysclk_enable_module>
     af2:	5f c0       	rjmp	.+190    	; 0xbb2 <usart_init_rs232+0x27e>
		sysclk_enable_module(SYSCLK_PORT_C, SYSCLK_USART0);
     af4:	c0 3a       	cpi	r28, 0xA0	; 160
     af6:	f8 e0       	ldi	r31, 0x08	; 8
     af8:	df 07       	cpc	r29, r31
     afa:	21 f4       	brne	.+8      	; 0xb04 <usart_init_rs232+0x1d0>
     afc:	60 e1       	ldi	r22, 0x10	; 16
	}
#endif
#ifdef USARTD0
	else if (module == &USARTD0) {
     afe:	83 e0       	ldi	r24, 0x03	; 3
     b00:	5e d2       	rcall	.+1212   	; 0xfbe <sysclk_enable_module>
     b02:	57 c0       	rjmp	.+174    	; 0xbb2 <usart_init_rs232+0x27e>
		sysclk_enable_module(SYSCLK_PORT_D, SYSCLK_USART0);
     b04:	c0 3a       	cpi	r28, 0xA0	; 160
     b06:	89 e0       	ldi	r24, 0x09	; 9
     b08:	d8 07       	cpc	r29, r24
     b0a:	21 f4       	brne	.+8      	; 0xb14 <usart_init_rs232+0x1e0>
     b0c:	60 e1       	ldi	r22, 0x10	; 16
	}
#endif
#ifdef USARTE0
	else if (module == &USARTE0) {
     b0e:	84 e0       	ldi	r24, 0x04	; 4
     b10:	56 d2       	rcall	.+1196   	; 0xfbe <sysclk_enable_module>
     b12:	4f c0       	rjmp	.+158    	; 0xbb2 <usart_init_rs232+0x27e>
		sysclk_enable_module(SYSCLK_PORT_E, SYSCLK_USART0);
     b14:	c0 3a       	cpi	r28, 0xA0	; 160
     b16:	ea e0       	ldi	r30, 0x0A	; 10
     b18:	de 07       	cpc	r29, r30
     b1a:	21 f4       	brne	.+8      	; 0xb24 <usart_init_rs232+0x1f0>
     b1c:	60 e1       	ldi	r22, 0x10	; 16
	}
#endif
#ifdef USARTF0
	else if (module == &USARTF0) {
     b1e:	85 e0       	ldi	r24, 0x05	; 5
     b20:	4e d2       	rcall	.+1180   	; 0xfbe <sysclk_enable_module>
     b22:	47 c0       	rjmp	.+142    	; 0xbb2 <usart_init_rs232+0x27e>
		sysclk_enable_module(SYSCLK_PORT_F, SYSCLK_USART0);
     b24:	c0 3a       	cpi	r28, 0xA0	; 160
     b26:	fb e0       	ldi	r31, 0x0B	; 11
     b28:	df 07       	cpc	r29, r31
     b2a:	21 f4       	brne	.+8      	; 0xb34 <usart_init_rs232+0x200>
	}
#endif
#ifdef USARTC1
	else if (module == &USARTC1) {
     b2c:	60 e1       	ldi	r22, 0x10	; 16
     b2e:	86 e0       	ldi	r24, 0x06	; 6
     b30:	46 d2       	rcall	.+1164   	; 0xfbe <sysclk_enable_module>
     b32:	3f c0       	rjmp	.+126    	; 0xbb2 <usart_init_rs232+0x27e>
		sysclk_enable_module(SYSCLK_PORT_C, SYSCLK_USART1);
     b34:	c0 3b       	cpi	r28, 0xB0	; 176
     b36:	88 e0       	ldi	r24, 0x08	; 8
     b38:	d8 07       	cpc	r29, r24
     b3a:	21 f4       	brne	.+8      	; 0xb44 <usart_init_rs232+0x210>
	}
#endif
#ifdef USARTD1
	else if (module == &USARTD1) {
     b3c:	60 e2       	ldi	r22, 0x20	; 32
     b3e:	83 e0       	ldi	r24, 0x03	; 3
     b40:	3e d2       	rcall	.+1148   	; 0xfbe <sysclk_enable_module>
     b42:	37 c0       	rjmp	.+110    	; 0xbb2 <usart_init_rs232+0x27e>
		sysclk_enable_module(SYSCLK_PORT_D, SYSCLK_USART1);
     b44:	c0 3b       	cpi	r28, 0xB0	; 176
     b46:	e9 e0       	ldi	r30, 0x09	; 9
     b48:	de 07       	cpc	r29, r30
     b4a:	21 f4       	brne	.+8      	; 0xb54 <usart_init_rs232+0x220>
	}
#endif
#ifdef USARTE1
	else if (module == &USARTE1) {
     b4c:	60 e2       	ldi	r22, 0x20	; 32
     b4e:	84 e0       	ldi	r24, 0x04	; 4
     b50:	36 d2       	rcall	.+1132   	; 0xfbe <sysclk_enable_module>
     b52:	2f c0       	rjmp	.+94     	; 0xbb2 <usart_init_rs232+0x27e>
		sysclk_enable_module(SYSCLK_PORT_E, SYSCLK_USART1);
     b54:	c0 3b       	cpi	r28, 0xB0	; 176
     b56:	fa e0       	ldi	r31, 0x0A	; 10
     b58:	df 07       	cpc	r29, r31
     b5a:	21 f4       	brne	.+8      	; 0xb64 <usart_init_rs232+0x230>
	}
#endif
#ifdef USARTF1
	else if (module == &USARTF1) {
     b5c:	60 e2       	ldi	r22, 0x20	; 32
     b5e:	85 e0       	ldi	r24, 0x05	; 5
     b60:	2e d2       	rcall	.+1116   	; 0xfbe <sysclk_enable_module>
     b62:	27 c0       	rjmp	.+78     	; 0xbb2 <usart_init_rs232+0x27e>
		sysclk_enable_module(SYSCLK_PORT_F, SYSCLK_USART1);
     b64:	c0 3b       	cpi	r28, 0xB0	; 176
     b66:	8b e0       	ldi	r24, 0x0B	; 11
     b68:	d8 07       	cpc	r29, r24
     b6a:	21 f4       	brne	.+8      	; 0xb74 <usart_init_rs232+0x240>
	}
#endif
#ifdef TWIC
	else if (module == &TWIC) {
     b6c:	60 e2       	ldi	r22, 0x20	; 32
     b6e:	86 e0       	ldi	r24, 0x06	; 6
     b70:	26 d2       	rcall	.+1100   	; 0xfbe <sysclk_enable_module>
     b72:	1f c0       	rjmp	.+62     	; 0xbb2 <usart_init_rs232+0x27e>
		sysclk_enable_module(SYSCLK_PORT_C, SYSCLK_TWI);
     b74:	c0 38       	cpi	r28, 0x80	; 128
     b76:	e4 e0       	ldi	r30, 0x04	; 4
     b78:	de 07       	cpc	r29, r30
     b7a:	21 f4       	brne	.+8      	; 0xb84 <usart_init_rs232+0x250>
     b7c:	60 e4       	ldi	r22, 0x40	; 64
	}
#endif
#ifdef TWID
	else if (module == &TWID) {
     b7e:	83 e0       	ldi	r24, 0x03	; 3
     b80:	1e d2       	rcall	.+1084   	; 0xfbe <sysclk_enable_module>
     b82:	17 c0       	rjmp	.+46     	; 0xbb2 <usart_init_rs232+0x27e>
     b84:	c0 39       	cpi	r28, 0x90	; 144
		sysclk_enable_module(SYSCLK_PORT_D, SYSCLK_TWI);
     b86:	f4 e0       	ldi	r31, 0x04	; 4
     b88:	df 07       	cpc	r29, r31
     b8a:	21 f4       	brne	.+8      	; 0xb94 <usart_init_rs232+0x260>
     b8c:	60 e4       	ldi	r22, 0x40	; 64
     b8e:	84 e0       	ldi	r24, 0x04	; 4
	}
#endif
#ifdef TWIE
	else if (module == &TWIE) {
     b90:	16 d2       	rcall	.+1068   	; 0xfbe <sysclk_enable_module>
     b92:	0f c0       	rjmp	.+30     	; 0xbb2 <usart_init_rs232+0x27e>
     b94:	c0 3a       	cpi	r28, 0xA0	; 160
		sysclk_enable_module(SYSCLK_PORT_E, SYSCLK_TWI);
     b96:	84 e0       	ldi	r24, 0x04	; 4
     b98:	d8 07       	cpc	r29, r24
     b9a:	21 f4       	brne	.+8      	; 0xba4 <usart_init_rs232+0x270>
     b9c:	60 e4       	ldi	r22, 0x40	; 64
     b9e:	85 e0       	ldi	r24, 0x05	; 5
	}
#endif
#ifdef TWIF
	else if (module == &TWIF) {
     ba0:	0e d2       	rcall	.+1052   	; 0xfbe <sysclk_enable_module>
     ba2:	07 c0       	rjmp	.+14     	; 0xbb2 <usart_init_rs232+0x27e>
     ba4:	c0 3b       	cpi	r28, 0xB0	; 176
     ba6:	e4 e0       	ldi	r30, 0x04	; 4
		sysclk_enable_module(SYSCLK_PORT_F, SYSCLK_TWI);
     ba8:	de 07       	cpc	r29, r30
     baa:	19 f4       	brne	.+6      	; 0xbb2 <usart_init_rs232+0x27e>
     bac:	60 e4       	ldi	r22, 0x40	; 64
     bae:	86 e0       	ldi	r24, 0x06	; 6
 * - 0x2        : IrDA mode.
 * - 0x3        : Master SPI mode.
 */
static inline void usart_set_mode(USART_t *usart, USART_CMODE_t usartmode)
{
	(usart)->CTRLC = ((usart)->CTRLC & (~USART_CMODE_gm)) | usartmode;
     bb0:	06 d2       	rcall	.+1036   	; 0xfbe <sysclk_enable_module>
     bb2:	8d 81       	ldd	r24, Y+5	; 0x05
     bb4:	8f 73       	andi	r24, 0x3F	; 63
 *  \param twoStopBits Enable two stop bit mode. Use bool type.
 */
static inline void usart_format_set(USART_t *usart, USART_CHSIZE_t charSize,
		USART_PMODE_t parityMode, bool twoStopBits)
{
	(usart)->CTRLC = (uint8_t)charSize | parityMode
     bb6:	8d 83       	std	Y+5, r24	; 0x05
     bb8:	f8 01       	movw	r30, r16
     bba:	95 81       	ldd	r25, Z+5	; 0x05
     bbc:	84 81       	ldd	r24, Z+4	; 0x04
     bbe:	89 2b       	or	r24, r25
     bc0:	96 81       	ldd	r25, Z+6	; 0x06
     bc2:	91 11       	cpse	r25, r1
     bc4:	98 e0       	ldi	r25, 0x08	; 8
     bc6:	89 2b       	or	r24, r25
	bool result;
	sysclk_enable_peripheral_clock(usart);
	usart_set_mode(usart, USART_CMODE_ASYNCHRONOUS_gc);
	usart_format_set(usart, opt->charlength, opt->paritytype,
			opt->stopbits);
	result = usart_set_baudrate(usart, opt->baudrate, sysclk_get_per_hz());
     bc8:	8d 83       	std	Y+5, r24	; 0x05
     bca:	f8 01       	movw	r30, r16
     bcc:	40 81       	ld	r20, Z
     bce:	51 81       	ldd	r21, Z+1	; 0x01
     bd0:	62 81       	ldd	r22, Z+2	; 0x02
     bd2:	73 81       	ldd	r23, Z+3	; 0x03
     bd4:	00 e0       	ldi	r16, 0x00	; 0
     bd6:	18 e4       	ldi	r17, 0x48	; 72
     bd8:	28 ee       	ldi	r18, 0xE8	; 232
     bda:	31 e0       	ldi	r19, 0x01	; 1
     bdc:	ce 01       	movw	r24, r28
     bde:	97 dd       	rcall	.-1234   	; 0x70e <usart_set_baudrate>
 *
 * \param usart Pointer to the USART module.
 */
static inline void usart_tx_enable(USART_t *usart)
{
	(usart)->CTRLB |= USART_TXEN_bm;
     be0:	9c 81       	ldd	r25, Y+4	; 0x04
     be2:	98 60       	ori	r25, 0x08	; 8
     be4:	9c 83       	std	Y+4, r25	; 0x04
 *
 * \param usart Pointer to the USART module
 */
static inline void usart_rx_enable(USART_t *usart)
{
	(usart)->CTRLB |= USART_RXEN_bm;
     be6:	9c 81       	ldd	r25, Y+4	; 0x04
     be8:	90 61       	ori	r25, 0x10	; 16
     bea:	9c 83       	std	Y+4, r25	; 0x04
	usart_tx_enable(usart);
	usart_rx_enable(usart);
	
	return result;
}
     bec:	df 91       	pop	r29
     bee:	cf 91       	pop	r28
     bf0:	1f 91       	pop	r17
     bf2:	0f 91       	pop	r16
     bf4:	08 95       	ret

00000bf6 <cam_init>:

#include "spy_cam.h"
#include <asf.h>

void cam_init(void){
	PORTA.DIR |= 0x08; // Sets A3 to output
     bf6:	e0 e0       	ldi	r30, 0x00	; 0
     bf8:	f6 e0       	ldi	r31, 0x06	; 6
     bfa:	80 81       	ld	r24, Z
     bfc:	88 60       	ori	r24, 0x08	; 8
     bfe:	80 83       	st	Z, r24
     c00:	08 95       	ret

00000c02 <cam_switch>:
}

void cam_switch(void){
	PORTA.OUT ^= 0x08; // Changes A3 from high to low or vice-versa
     c02:	e0 e0       	ldi	r30, 0x00	; 0
     c04:	f6 e0       	ldi	r31, 0x06	; 6
     c06:	94 81       	ldd	r25, Z+4	; 0x04
     c08:	88 e0       	ldi	r24, 0x08	; 8
     c0a:	89 27       	eor	r24, r25
     c0c:	84 83       	std	Z+4, r24	; 0x04
     c0e:	08 95       	ret

00000c10 <usart_serial_getchar>:
 * \param usart   Base address of the USART instance.
 * \param data   Data to read
 *
 */
static inline void usart_serial_getchar(usart_if usart, uint8_t *data)
{
     c10:	cf 93       	push	r28
     c12:	df 93       	push	r29
     c14:	eb 01       	movw	r28, r22
	*data = usart_getchar(usart);
     c16:	75 dd       	rcall	.-1302   	; 0x702 <usart_getchar>
     c18:	88 83       	st	Y, r24
}
     c1a:	df 91       	pop	r29
     c1c:	cf 91       	pop	r28
     c1e:	08 95       	ret

00000c20 <usart_serial_putchar>:
 *
 * \return Status code
 */
static inline enum status_code usart_serial_putchar(usart_if usart, uint8_t c)
{
	return usart_putchar(usart, c);
     c20:	68 cd       	rjmp	.-1328   	; 0x6f2 <usart_putchar>
}
     c22:	08 95       	ret

00000c24 <data_terminal_init>:

#include <asf.h>
#include "uart.h"

void data_terminal_init()
{
     c24:	cf 93       	push	r28
     c26:	df 93       	push	r29
     c28:	cd b7       	in	r28, 0x3d	; 61
     c2a:	de b7       	in	r29, 0x3e	; 62
     c2c:	27 97       	sbiw	r28, 0x07	; 7
     c2e:	cd bf       	out	0x3d, r28	; 61
     c30:	de bf       	out	0x3e, r29	; 62
		sysclk_enable_module(SYSCLK_PORT_D, SYSCLK_USART0);
	}
#endif
#ifdef USARTE0
	else if (module == &USARTE0) {
		sysclk_enable_module(SYSCLK_PORT_E, SYSCLK_USART0);
     c32:	60 e1       	ldi	r22, 0x10	; 16
     c34:	85 e0       	ldi	r24, 0x05	; 5
     c36:	c3 d1       	rcall	.+902    	; 0xfbe <sysclk_enable_module>
		.charlength =	UART_TERMINAL_SERIAL_CHAR_LEN,
		.paritytype =	UART_TERMINAL_SERIAL_PARITY,
		.stopbits	=	UART_TERMINAL_SERIAL_STOP_BIT
	};
	
	UART_TERMINAL_PORT.DIR |= UART_TERMINAL_TX_PIN;	// set the USART transmit pin to output
     c38:	e0 e8       	ldi	r30, 0x80	; 128
     c3a:	f6 e0       	ldi	r31, 0x06	; 6
     c3c:	80 81       	ld	r24, Z
     c3e:	88 60       	ori	r24, 0x08	; 8
     c40:	80 83       	st	Z, r24
 * \param opt         Options needed to set up RS232 communication (see \ref usart_options_t).
 *
 */
static inline void stdio_serial_init(volatile void *usart, const usart_serial_options_t *opt)
{
	stdio_base = (void *)usart;
     c42:	80 ea       	ldi	r24, 0xA0	; 160
     c44:	9a e0       	ldi	r25, 0x0A	; 10
     c46:	80 93 39 21 	sts	0x2139, r24	; 0x802139 <stdio_base>
     c4a:	90 93 3a 21 	sts	0x213A, r25	; 0x80213a <stdio_base+0x1>
	ptr_put = (int (*)(void volatile*,char))&usart_serial_putchar;
     c4e:	80 e1       	ldi	r24, 0x10	; 16
     c50:	96 e0       	ldi	r25, 0x06	; 6
     c52:	80 93 37 21 	sts	0x2137, r24	; 0x802137 <ptr_put>
     c56:	90 93 38 21 	sts	0x2138, r25	; 0x802138 <ptr_put+0x1>
	ptr_get = (void (*)(void volatile*,char*))&usart_serial_getchar;
     c5a:	88 e0       	ldi	r24, 0x08	; 8
     c5c:	96 e0       	ldi	r25, 0x06	; 6
     c5e:	80 93 35 21 	sts	0x2135, r24	; 0x802135 <ptr_get>
     c62:	90 93 36 21 	sts	0x2136, r25	; 0x802136 <ptr_get+0x1>
static inline bool usart_serial_init(usart_if usart, const
		usart_serial_options_t *options)
{
	// USART options.
	usart_rs232_options_t usart_rs232_options;
	usart_rs232_options.charlength   = options->charlength;
     c66:	e6 e0       	ldi	r30, 0x06	; 6
     c68:	f0 e2       	ldi	r31, 0x20	; 32
     c6a:	84 81       	ldd	r24, Z+4	; 0x04
     c6c:	8d 83       	std	Y+5, r24	; 0x05
	usart_rs232_options.paritytype   = options->paritytype;
     c6e:	85 81       	ldd	r24, Z+5	; 0x05
     c70:	8e 83       	std	Y+6, r24	; 0x06
	usart_rs232_options.stopbits     = options->stopbits;
     c72:	86 81       	ldd	r24, Z+6	; 0x06
     c74:	8f 83       	std	Y+7, r24	; 0x07
	usart_rs232_options.baudrate     = options->baudrate;
     c76:	80 81       	ld	r24, Z
     c78:	91 81       	ldd	r25, Z+1	; 0x01
     c7a:	a2 81       	ldd	r26, Z+2	; 0x02
     c7c:	b3 81       	ldd	r27, Z+3	; 0x03
     c7e:	89 83       	std	Y+1, r24	; 0x01
     c80:	9a 83       	std	Y+2, r25	; 0x02
     c82:	ab 83       	std	Y+3, r26	; 0x03
     c84:	bc 83       	std	Y+4, r27	; 0x04
		sysclk_enable_module(SYSCLK_PORT_D,PR_USART1_bm);
	}
#endif
#ifdef USARTE0
	if((uint16_t)usart == (uint16_t)&USARTE0) {
		sysclk_enable_module(SYSCLK_PORT_E,PR_USART0_bm);
     c86:	60 e1       	ldi	r22, 0x10	; 16
     c88:	85 e0       	ldi	r24, 0x05	; 5
     c8a:	99 d1       	rcall	.+818    	; 0xfbe <sysclk_enable_module>
#ifdef USARTF1
	if((uint16_t)usart == (uint16_t)&USARTF1) {
		sysclk_enable_module(SYSCLK_PORT_F,PR_USART1_bm);
	}
#endif
	if (usart_init_rs232(usart, &usart_rs232_options)) {
     c8c:	be 01       	movw	r22, r28
     c8e:	6f 5f       	subi	r22, 0xFF	; 255
     c90:	7f 4f       	sbci	r23, 0xFF	; 255
     c92:	80 ea       	ldi	r24, 0xA0	; 160
     c94:	9a e0       	ldi	r25, 0x0A	; 10
     c96:	4e de       	rcall	.-868    	; 0x934 <usart_init_rs232>
# endif

# if defined(__GNUC__)
#  if (XMEGA || MEGA_RF)
	// For AVR GCC libc print redirection uses fdevopen.
	fdevopen((int (*)(char, FILE*))(_write),(int (*)(FILE*))(_read));
     c98:	66 e6       	ldi	r22, 0x66	; 102
     c9a:	71 e0       	ldi	r23, 0x01	; 1
     c9c:	8f e7       	ldi	r24, 0x7F	; 127
     c9e:	91 e0       	ldi	r25, 0x01	; 1
     ca0:	0e 94 be 10 	call	0x217c	; 0x217c <fdevopen>
	
	stdio_serial_init(UART_TERMINAL_SERIAL, &usart_config); // function maps the serial output to printf, not necessary to know how it works
     ca4:	27 96       	adiw	r28, 0x07	; 7
     ca6:	cd bf       	out	0x3d, r28	; 61
     ca8:	de bf       	out	0x3e, r29	; 62
     caa:	df 91       	pop	r29
     cac:	cf 91       	pop	r28
     cae:	08 95       	ret

00000cb0 <XBEE_uart_init>:

#include <asf.h>
#include <string.h>
#include "xbee.h"

void XBEE_uart_init(void){
     cb0:	cf 93       	push	r28
     cb2:	df 93       	push	r29
     cb4:	cd b7       	in	r28, 0x3d	; 61
     cb6:	de b7       	in	r29, 0x3e	; 62
     cb8:	27 97       	sbiw	r28, 0x07	; 7
     cba:	cd bf       	out	0x3d, r28	; 61
     cbc:	de bf       	out	0x3e, r29	; 62
		sysclk_enable_module(SYSCLK_PORT_F, SYSCLK_SPI);
	}
#endif
#ifdef USARTC0
	else if (module == &USARTC0) {
		sysclk_enable_module(SYSCLK_PORT_C, SYSCLK_USART0);
     cbe:	60 e1       	ldi	r22, 0x10	; 16
     cc0:	83 e0       	ldi	r24, 0x03	; 3
     cc2:	7d d1       	rcall	.+762    	; 0xfbe <sysclk_enable_module>
		.charlength =	XBEE_TERMINAL_SERIAL_CHAR_LEN,
		.paritytype =	XBEE_TERMINAL_SERIAL_PARITY,
		.stopbits	=	XBEE_TERMINAL_SERIAL_STOP_BIT
	};
	
	XBEE_TERMINAL_PORT.DIR |= XBEE_TERMINAL_TX_PIN; // Puts pin to output
     cc4:	e0 e4       	ldi	r30, 0x40	; 64
     cc6:	f6 e0       	ldi	r31, 0x06	; 6
     cc8:	80 81       	ld	r24, Z
     cca:	88 60       	ori	r24, 0x08	; 8
     ccc:	80 83       	st	Z, r24
static inline bool usart_serial_init(usart_if usart, const
		usart_serial_options_t *options)
{
	// USART options.
	usart_rs232_options_t usart_rs232_options;
	usart_rs232_options.charlength   = options->charlength;
     cce:	ed e0       	ldi	r30, 0x0D	; 13
     cd0:	f0 e2       	ldi	r31, 0x20	; 32
     cd2:	84 81       	ldd	r24, Z+4	; 0x04
     cd4:	8d 83       	std	Y+5, r24	; 0x05
	usart_rs232_options.paritytype   = options->paritytype;
     cd6:	85 81       	ldd	r24, Z+5	; 0x05
     cd8:	8e 83       	std	Y+6, r24	; 0x06
	usart_rs232_options.stopbits     = options->stopbits;
     cda:	86 81       	ldd	r24, Z+6	; 0x06
     cdc:	8f 83       	std	Y+7, r24	; 0x07
	usart_rs232_options.baudrate     = options->baudrate;
     cde:	80 81       	ld	r24, Z
     ce0:	91 81       	ldd	r25, Z+1	; 0x01
     ce2:	a2 81       	ldd	r26, Z+2	; 0x02
     ce4:	b3 81       	ldd	r27, Z+3	; 0x03
     ce6:	89 83       	std	Y+1, r24	; 0x01
     ce8:	9a 83       	std	Y+2, r25	; 0x02
     cea:	ab 83       	std	Y+3, r26	; 0x03
     cec:	bc 83       	std	Y+4, r27	; 0x04

#ifdef USARTC0
	if((uint16_t)usart == (uint16_t)&USARTC0) {
		sysclk_enable_module(SYSCLK_PORT_C,PR_USART0_bm);
     cee:	60 e1       	ldi	r22, 0x10	; 16
     cf0:	83 e0       	ldi	r24, 0x03	; 3
     cf2:	65 d1       	rcall	.+714    	; 0xfbe <sysclk_enable_module>
#ifdef USARTF1
	if((uint16_t)usart == (uint16_t)&USARTF1) {
		sysclk_enable_module(SYSCLK_PORT_F,PR_USART1_bm);
	}
#endif
	if (usart_init_rs232(usart, &usart_rs232_options)) {
     cf4:	be 01       	movw	r22, r28
     cf6:	6f 5f       	subi	r22, 0xFF	; 255
     cf8:	7f 4f       	sbci	r23, 0xFF	; 255
     cfa:	80 ea       	ldi	r24, 0xA0	; 160
     cfc:	98 e0       	ldi	r25, 0x08	; 8
     cfe:	1a de       	rcall	.-972    	; 0x934 <usart_init_rs232>
	
	usart_serial_init(XBEE_TERMINAL_SERIAL,&XBEE_config);
}
     d00:	27 96       	adiw	r28, 0x07	; 7
     d02:	cd bf       	out	0x3d, r28	; 61
     d04:	de bf       	out	0x3e, r29	; 62
     d06:	df 91       	pop	r29
     d08:	cf 91       	pop	r28
     d0a:	08 95       	ret

00000d0c <XBEE_write>:

void XBEE_write(char* data){
     d0c:	1f 93       	push	r17
     d0e:	cf 93       	push	r28
     d10:	df 93       	push	r29
     d12:	ec 01       	movw	r28, r24
	for(uint8_t i = 0; i < strlen(data); i++){
     d14:	10 e0       	ldi	r17, 0x00	; 0
     d16:	08 c0       	rjmp	.+16     	; 0xd28 <XBEE_write+0x1c>
		usart_putchar(XBEE_TERMINAL_SERIAL, (uint8_t) data[i]);
     d18:	fe 01       	movw	r30, r28
     d1a:	e8 0f       	add	r30, r24
     d1c:	f9 1f       	adc	r31, r25
     d1e:	60 81       	ld	r22, Z
     d20:	80 ea       	ldi	r24, 0xA0	; 160
     d22:	98 e0       	ldi	r25, 0x08	; 8
     d24:	e6 dc       	rcall	.-1588   	; 0x6f2 <usart_putchar>
	
	usart_serial_init(XBEE_TERMINAL_SERIAL,&XBEE_config);
}

void XBEE_write(char* data){
	for(uint8_t i = 0; i < strlen(data); i++){
     d26:	1f 5f       	subi	r17, 0xFF	; 255
     d28:	81 2f       	mov	r24, r17
     d2a:	90 e0       	ldi	r25, 0x00	; 0
     d2c:	fe 01       	movw	r30, r28
     d2e:	01 90       	ld	r0, Z+
     d30:	00 20       	and	r0, r0
     d32:	e9 f7       	brne	.-6      	; 0xd2e <XBEE_write+0x22>
     d34:	31 97       	sbiw	r30, 0x01	; 1
     d36:	ec 1b       	sub	r30, r28
     d38:	fd 0b       	sbc	r31, r29
     d3a:	8e 17       	cp	r24, r30
     d3c:	9f 07       	cpc	r25, r31
     d3e:	60 f3       	brcs	.-40     	; 0xd18 <XBEE_write+0xc>
		usart_putchar(XBEE_TERMINAL_SERIAL, (uint8_t) data[i]);
	}
	//usart_putchar(XBEE_TERMINAL_SERIAL, 10);
}
     d40:	df 91       	pop	r29
     d42:	cf 91       	pop	r28
     d44:	1f 91       	pop	r17
     d46:	08 95       	ret

00000d48 <rb16_write>:
	}
	else
	{
		buffer->tail = (buffer->tail + move_distance) % buffer->array_length; //Modulus is so that we don't point to above the buffer's location
	}
}
     d48:	cf 93       	push	r28
     d4a:	df 93       	push	r29
     d4c:	fc 01       	movw	r30, r24
     d4e:	41 15       	cp	r20, r1
     d50:	51 05       	cpc	r21, r1
     d52:	b1 f1       	breq	.+108    	; 0xdc0 <rb16_write+0x78>
     d54:	80 e0       	ldi	r24, 0x00	; 0
     d56:	90 e0       	ldi	r25, 0x00	; 0
     d58:	20 e0       	ldi	r18, 0x00	; 0
     d5a:	88 0f       	add	r24, r24
     d5c:	99 1f       	adc	r25, r25
     d5e:	db 01       	movw	r26, r22
     d60:	a8 0f       	add	r26, r24
     d62:	b9 1f       	adc	r27, r25
     d64:	8d 91       	ld	r24, X+
     d66:	9c 91       	ld	r25, X
     d68:	a2 81       	ldd	r26, Z+2	; 0x02
     d6a:	b3 81       	ldd	r27, Z+3	; 0x03
     d6c:	aa 0f       	add	r26, r26
     d6e:	bb 1f       	adc	r27, r27
     d70:	c6 81       	ldd	r28, Z+6	; 0x06
     d72:	d7 81       	ldd	r29, Z+7	; 0x07
     d74:	ac 0f       	add	r26, r28
     d76:	bd 1f       	adc	r27, r29
     d78:	8d 93       	st	X+, r24
     d7a:	9c 93       	st	X, r25
     d7c:	82 81       	ldd	r24, Z+2	; 0x02
     d7e:	93 81       	ldd	r25, Z+3	; 0x03
     d80:	01 96       	adiw	r24, 0x01	; 1
     d82:	82 83       	std	Z+2, r24	; 0x02
     d84:	93 83       	std	Z+3, r25	; 0x03
     d86:	a0 81       	ld	r26, Z
     d88:	b1 81       	ldd	r27, Z+1	; 0x01
     d8a:	8a 17       	cp	r24, r26
     d8c:	9b 07       	cpc	r25, r27
     d8e:	11 f4       	brne	.+4      	; 0xd94 <rb16_write+0x4c>
     d90:	12 82       	std	Z+2, r1	; 0x02
     d92:	13 82       	std	Z+3, r1	; 0x03
     d94:	82 81       	ldd	r24, Z+2	; 0x02
     d96:	93 81       	ldd	r25, Z+3	; 0x03
     d98:	c4 81       	ldd	r28, Z+4	; 0x04
     d9a:	d5 81       	ldd	r29, Z+5	; 0x05
     d9c:	8c 17       	cp	r24, r28
     d9e:	9d 07       	cpc	r25, r29
     da0:	49 f4       	brne	.+18     	; 0xdb4 <rb16_write+0x6c>
     da2:	01 96       	adiw	r24, 0x01	; 1
     da4:	a8 17       	cp	r26, r24
     da6:	b9 07       	cpc	r27, r25
     da8:	19 f0       	breq	.+6      	; 0xdb0 <rb16_write+0x68>
     daa:	84 83       	std	Z+4, r24	; 0x04
     dac:	95 83       	std	Z+5, r25	; 0x05
     dae:	02 c0       	rjmp	.+4      	; 0xdb4 <rb16_write+0x6c>
     db0:	14 82       	std	Z+4, r1	; 0x04
     db2:	15 82       	std	Z+5, r1	; 0x05
     db4:	2f 5f       	subi	r18, 0xFF	; 255
     db6:	82 2f       	mov	r24, r18
     db8:	90 e0       	ldi	r25, 0x00	; 0
     dba:	84 17       	cp	r24, r20
     dbc:	95 07       	cpc	r25, r21
     dbe:	68 f2       	brcs	.-102    	; 0xd5a <rb16_write+0x12>
     dc0:	df 91       	pop	r29
     dc2:	cf 91       	pop	r28
     dc4:	08 95       	ret

00000dc6 <rb16_init>:
     dc6:	fc 01       	movw	r30, r24
     dc8:	12 82       	std	Z+2, r1	; 0x02
     dca:	13 82       	std	Z+3, r1	; 0x03
     dcc:	14 82       	std	Z+4, r1	; 0x04
     dce:	15 82       	std	Z+5, r1	; 0x05
     dd0:	66 83       	std	Z+6, r22	; 0x06
     dd2:	77 83       	std	Z+7, r23	; 0x07
     dd4:	40 83       	st	Z, r20
     dd6:	51 83       	std	Z+1, r21	; 0x01
     dd8:	08 95       	ret

00000dda <rb16_get_nth>:
     dda:	dc 01       	movw	r26, r24
     ddc:	12 96       	adiw	r26, 0x02	; 2
     dde:	ed 91       	ld	r30, X+
     de0:	fc 91       	ld	r31, X
     de2:	13 97       	sbiw	r26, 0x03	; 3
     de4:	cb 01       	movw	r24, r22
     de6:	01 96       	adiw	r24, 0x01	; 1
     de8:	e8 17       	cp	r30, r24
     dea:	f9 07       	cpc	r31, r25
     dec:	78 f0       	brcs	.+30     	; 0xe0c <rb16_get_nth+0x32>
     dee:	e1 50       	subi	r30, 0x01	; 1
     df0:	f0 48       	sbci	r31, 0x80	; 128
     df2:	e6 1b       	sub	r30, r22
     df4:	f7 0b       	sbc	r31, r23
     df6:	ee 0f       	add	r30, r30
     df8:	ff 1f       	adc	r31, r31
     dfa:	16 96       	adiw	r26, 0x06	; 6
     dfc:	8d 91       	ld	r24, X+
     dfe:	9c 91       	ld	r25, X
     e00:	17 97       	sbiw	r26, 0x07	; 7
     e02:	e8 0f       	add	r30, r24
     e04:	f9 1f       	adc	r31, r25
     e06:	80 81       	ld	r24, Z
     e08:	91 81       	ldd	r25, Z+1	; 0x01
     e0a:	08 95       	ret
     e0c:	2d 91       	ld	r18, X+
     e0e:	3c 91       	ld	r19, X
     e10:	11 97       	sbiw	r26, 0x01	; 1
     e12:	e2 0f       	add	r30, r18
     e14:	f3 1f       	adc	r31, r19
     e16:	e1 50       	subi	r30, 0x01	; 1
     e18:	f0 48       	sbci	r31, 0x80	; 128
     e1a:	e6 1b       	sub	r30, r22
     e1c:	f7 0b       	sbc	r31, r23
     e1e:	ee 0f       	add	r30, r30
     e20:	ff 1f       	adc	r31, r31
     e22:	16 96       	adiw	r26, 0x06	; 6
     e24:	8d 91       	ld	r24, X+
     e26:	9c 91       	ld	r25, X
     e28:	17 97       	sbiw	r26, 0x07	; 7
     e2a:	e8 0f       	add	r30, r24
     e2c:	f9 1f       	adc	r31, r25
     e2e:	80 81       	ld	r24, Z
     e30:	91 81       	ldd	r25, Z+1	; 0x01
     e32:	08 95       	ret

00000e34 <rb32_write>:
     e34:	cf 92       	push	r12
     e36:	df 92       	push	r13
     e38:	ef 92       	push	r14
     e3a:	ff 92       	push	r15
     e3c:	cf 93       	push	r28
     e3e:	df 93       	push	r29
     e40:	fc 01       	movw	r30, r24
     e42:	41 15       	cp	r20, r1
     e44:	51 05       	cpc	r21, r1
     e46:	09 f4       	brne	.+2      	; 0xe4a <rb32_write+0x16>
     e48:	3f c0       	rjmp	.+126    	; 0xec8 <rb32_write+0x94>
     e4a:	80 e0       	ldi	r24, 0x00	; 0
     e4c:	90 e0       	ldi	r25, 0x00	; 0
     e4e:	20 e0       	ldi	r18, 0x00	; 0
     e50:	88 0f       	add	r24, r24
     e52:	99 1f       	adc	r25, r25
     e54:	88 0f       	add	r24, r24
     e56:	99 1f       	adc	r25, r25
     e58:	db 01       	movw	r26, r22
     e5a:	a8 0f       	add	r26, r24
     e5c:	b9 1f       	adc	r27, r25
     e5e:	cd 90       	ld	r12, X+
     e60:	dd 90       	ld	r13, X+
     e62:	ed 90       	ld	r14, X+
     e64:	fc 90       	ld	r15, X
     e66:	a2 81       	ldd	r26, Z+2	; 0x02
     e68:	b3 81       	ldd	r27, Z+3	; 0x03
     e6a:	aa 0f       	add	r26, r26
     e6c:	bb 1f       	adc	r27, r27
     e6e:	aa 0f       	add	r26, r26
     e70:	bb 1f       	adc	r27, r27
     e72:	86 81       	ldd	r24, Z+6	; 0x06
     e74:	97 81       	ldd	r25, Z+7	; 0x07
     e76:	a8 0f       	add	r26, r24
     e78:	b9 1f       	adc	r27, r25
     e7a:	cd 92       	st	X+, r12
     e7c:	dd 92       	st	X+, r13
     e7e:	ed 92       	st	X+, r14
     e80:	fc 92       	st	X, r15
     e82:	13 97       	sbiw	r26, 0x03	; 3
     e84:	82 81       	ldd	r24, Z+2	; 0x02
     e86:	93 81       	ldd	r25, Z+3	; 0x03
     e88:	01 96       	adiw	r24, 0x01	; 1
     e8a:	82 83       	std	Z+2, r24	; 0x02
     e8c:	93 83       	std	Z+3, r25	; 0x03
     e8e:	a0 81       	ld	r26, Z
     e90:	b1 81       	ldd	r27, Z+1	; 0x01
     e92:	8a 17       	cp	r24, r26
     e94:	9b 07       	cpc	r25, r27
     e96:	11 f4       	brne	.+4      	; 0xe9c <rb32_write+0x68>
     e98:	12 82       	std	Z+2, r1	; 0x02
     e9a:	13 82       	std	Z+3, r1	; 0x03
     e9c:	82 81       	ldd	r24, Z+2	; 0x02
     e9e:	93 81       	ldd	r25, Z+3	; 0x03
     ea0:	c4 81       	ldd	r28, Z+4	; 0x04
     ea2:	d5 81       	ldd	r29, Z+5	; 0x05
     ea4:	8c 17       	cp	r24, r28
     ea6:	9d 07       	cpc	r25, r29
     ea8:	49 f4       	brne	.+18     	; 0xebc <rb32_write+0x88>
     eaa:	01 96       	adiw	r24, 0x01	; 1
     eac:	a8 17       	cp	r26, r24
     eae:	b9 07       	cpc	r27, r25
     eb0:	19 f0       	breq	.+6      	; 0xeb8 <rb32_write+0x84>
     eb2:	84 83       	std	Z+4, r24	; 0x04
     eb4:	95 83       	std	Z+5, r25	; 0x05
     eb6:	02 c0       	rjmp	.+4      	; 0xebc <rb32_write+0x88>
     eb8:	14 82       	std	Z+4, r1	; 0x04
     eba:	15 82       	std	Z+5, r1	; 0x05
     ebc:	2f 5f       	subi	r18, 0xFF	; 255
     ebe:	82 2f       	mov	r24, r18
     ec0:	90 e0       	ldi	r25, 0x00	; 0
     ec2:	84 17       	cp	r24, r20
     ec4:	95 07       	cpc	r25, r21
     ec6:	20 f2       	brcs	.-120    	; 0xe50 <rb32_write+0x1c>
     ec8:	df 91       	pop	r29
     eca:	cf 91       	pop	r28
     ecc:	ff 90       	pop	r15
     ece:	ef 90       	pop	r14
     ed0:	df 90       	pop	r13
     ed2:	cf 90       	pop	r12
     ed4:	08 95       	ret

00000ed6 <rb32_init>:
     ed6:	fc 01       	movw	r30, r24
     ed8:	12 82       	std	Z+2, r1	; 0x02
     eda:	13 82       	std	Z+3, r1	; 0x03
     edc:	14 82       	std	Z+4, r1	; 0x04
     ede:	15 82       	std	Z+5, r1	; 0x05
     ee0:	66 83       	std	Z+6, r22	; 0x06
     ee2:	77 83       	std	Z+7, r23	; 0x07
     ee4:	40 83       	st	Z, r20
     ee6:	51 83       	std	Z+1, r21	; 0x01
     ee8:	08 95       	ret

00000eea <rb32_get_nth>:
	}
}

int32_t rb32_get_nth(RingBuffer32_t* buffer, uint16_t index)
//Returns the nth newest value in the RingBuffer
{
     eea:	dc 01       	movw	r26, r24
	//Does not do bounds checking, so be careful in usage
	//	Verify index < rb16_length() to guard against requesting a value beyond what the buffer currently stores
	//	Verify index < buffer->array_length to guard against requesting a value from some random memory location
	
	//Most recent value is in head - 1
	if (index + 1 <= buffer->head) //Value is between zero and buffer->head
     eec:	12 96       	adiw	r26, 0x02	; 2
     eee:	ed 91       	ld	r30, X+
     ef0:	fc 91       	ld	r31, X
     ef2:	13 97       	sbiw	r26, 0x03	; 3
     ef4:	cb 01       	movw	r24, r22
     ef6:	01 96       	adiw	r24, 0x01	; 1
     ef8:	e8 17       	cp	r30, r24
     efa:	f9 07       	cpc	r31, r25
     efc:	98 f0       	brcs	.+38     	; 0xf24 <rb32_get_nth+0x3a>
		return buffer->buffer[buffer->head - index - 1];
     efe:	e1 50       	subi	r30, 0x01	; 1
     f00:	f0 4c       	sbci	r31, 0xC0	; 192
     f02:	e6 1b       	sub	r30, r22
     f04:	f7 0b       	sbc	r31, r23
     f06:	ee 0f       	add	r30, r30
     f08:	ff 1f       	adc	r31, r31
     f0a:	ee 0f       	add	r30, r30
     f0c:	ff 1f       	adc	r31, r31
     f0e:	16 96       	adiw	r26, 0x06	; 6
     f10:	8d 91       	ld	r24, X+
     f12:	9c 91       	ld	r25, X
     f14:	17 97       	sbiw	r26, 0x07	; 7
     f16:	e8 0f       	add	r30, r24
     f18:	f9 1f       	adc	r31, r25
     f1a:	60 81       	ld	r22, Z
     f1c:	71 81       	ldd	r23, Z+1	; 0x01
     f1e:	82 81       	ldd	r24, Z+2	; 0x02
     f20:	93 81       	ldd	r25, Z+3	; 0x03
     f22:	08 95       	ret
	else
		return buffer->buffer[buffer->array_length - 1 - index + buffer->head];
     f24:	2d 91       	ld	r18, X+
     f26:	3c 91       	ld	r19, X
     f28:	11 97       	sbiw	r26, 0x01	; 1
     f2a:	e2 0f       	add	r30, r18
     f2c:	f3 1f       	adc	r31, r19
     f2e:	e1 50       	subi	r30, 0x01	; 1
     f30:	f0 4c       	sbci	r31, 0xC0	; 192
     f32:	e6 1b       	sub	r30, r22
     f34:	f7 0b       	sbc	r31, r23
     f36:	ee 0f       	add	r30, r30
     f38:	ff 1f       	adc	r31, r31
     f3a:	ee 0f       	add	r30, r30
     f3c:	ff 1f       	adc	r31, r31
     f3e:	16 96       	adiw	r26, 0x06	; 6
     f40:	8d 91       	ld	r24, X+
     f42:	9c 91       	ld	r25, X
     f44:	17 97       	sbiw	r26, 0x07	; 7
     f46:	e8 0f       	add	r30, r24
     f48:	f9 1f       	adc	r31, r25
     f4a:	60 81       	ld	r22, Z
     f4c:	71 81       	ldd	r23, Z+1	; 0x01
     f4e:	82 81       	ldd	r24, Z+2	; 0x02
     f50:	93 81       	ldd	r25, Z+3	; 0x03
}
     f52:	08 95       	ret

00000f54 <sysclk_init>:
#  include <nvm.h>
#endif


void sysclk_init(void)
{
     f54:	cf 93       	push	r28
     f56:	df 93       	push	r29
     f58:	1f 92       	push	r1
     f5a:	1f 92       	push	r1
     f5c:	cd b7       	in	r28, 0x3d	; 61
     f5e:	de b7       	in	r29, 0x3e	; 62
#endif
	bool need_rc2mhz = false;

	/* Turn off all peripheral clocks that can be turned off. */
	for (i = 0; i <= SYSCLK_PORT_F; i++) {
		*(reg++) = 0xff;
     f60:	8f ef       	ldi	r24, 0xFF	; 255
     f62:	80 93 70 00 	sts	0x0070, r24	; 0x800070 <__TEXT_REGION_LENGTH__+0x700070>
     f66:	80 93 71 00 	sts	0x0071, r24	; 0x800071 <__TEXT_REGION_LENGTH__+0x700071>
     f6a:	80 93 72 00 	sts	0x0072, r24	; 0x800072 <__TEXT_REGION_LENGTH__+0x700072>
     f6e:	80 93 73 00 	sts	0x0073, r24	; 0x800073 <__TEXT_REGION_LENGTH__+0x700073>
     f72:	80 93 74 00 	sts	0x0074, r24	; 0x800074 <__TEXT_REGION_LENGTH__+0x700074>
     f76:	80 93 75 00 	sts	0x0075, r24	; 0x800075 <__TEXT_REGION_LENGTH__+0x700075>
     f7a:	80 93 76 00 	sts	0x0076, r24	; 0x800076 <__TEXT_REGION_LENGTH__+0x700076>

typedef uint8_t irqflags_t;

static inline irqflags_t cpu_irq_save(void)
{
	volatile irqflags_t flags = SREG;
     f7e:	8f b7       	in	r24, 0x3f	; 63
     f80:	8a 83       	std	Y+2, r24	; 0x02
	cpu_irq_disable();
     f82:	f8 94       	cli
	return flags;
     f84:	9a 81       	ldd	r25, Y+2	; 0x02
	irqflags_t flags;

	Assert(id != OSC_ID_USBSOF);

	flags = cpu_irq_save();
	OSC.CTRL |= id;
     f86:	e0 e5       	ldi	r30, 0x50	; 80
     f88:	f0 e0       	ldi	r31, 0x00	; 0
     f8a:	80 81       	ld	r24, Z
     f8c:	82 60       	ori	r24, 0x02	; 2
     f8e:	80 83       	st	Z, r24
}

static inline void cpu_irq_restore(irqflags_t flags)
{
	barrier();
	SREG = flags;
     f90:	9f bf       	out	0x3f, r25	; 63

static inline bool osc_is_ready(uint8_t id)
{
	Assert(id != OSC_ID_USBSOF);

	return OSC.STATUS & id;
     f92:	81 81       	ldd	r24, Z+1	; 0x01
 *
 * \param id A number identifying the oscillator to wait for.
 */
static inline void osc_wait_ready(uint8_t id)
{
	while (!osc_is_ready(id)) {
     f94:	81 ff       	sbrs	r24, 1
     f96:	fd cf       	rjmp	.-6      	; 0xf92 <sysclk_init+0x3e>
		default:
			//unhandled_case(CONFIG_SYSCLK_SOURCE);
			return;
		}

		ccp_write_io((uint8_t *)&CLK.CTRL, CONFIG_SYSCLK_SOURCE);
     f98:	61 e0       	ldi	r22, 0x01	; 1
     f9a:	80 e4       	ldi	r24, 0x40	; 64
     f9c:	90 e0       	ldi	r25, 0x00	; 0
     f9e:	25 d0       	rcall	.+74     	; 0xfea <ccp_write_io>

typedef uint8_t irqflags_t;

static inline irqflags_t cpu_irq_save(void)
{
	volatile irqflags_t flags = SREG;
     fa0:	8f b7       	in	r24, 0x3f	; 63
     fa2:	89 83       	std	Y+1, r24	; 0x01
	cpu_irq_disable();
     fa4:	f8 94       	cli
	return flags;
     fa6:	99 81       	ldd	r25, Y+1	; 0x01
	irqflags_t flags;

	Assert(id != OSC_ID_USBSOF);

	flags = cpu_irq_save();
	OSC.CTRL &= ~id;
     fa8:	e0 e5       	ldi	r30, 0x50	; 80
     faa:	f0 e0       	ldi	r31, 0x00	; 0
     fac:	80 81       	ld	r24, Z
     fae:	8e 7f       	andi	r24, 0xFE	; 254
     fb0:	80 83       	st	Z, r24
}

static inline void cpu_irq_restore(irqflags_t flags)
{
	barrier();
	SREG = flags;
     fb2:	9f bf       	out	0x3f, r25	; 63
	}

#ifdef CONFIG_RTC_SOURCE
	sysclk_rtcsrc_enable(CONFIG_RTC_SOURCE);
#endif
}
     fb4:	0f 90       	pop	r0
     fb6:	0f 90       	pop	r0
     fb8:	df 91       	pop	r29
     fba:	cf 91       	pop	r28
     fbc:	08 95       	ret

00000fbe <sysclk_enable_module>:

void sysclk_enable_module(enum sysclk_port_id port, uint8_t id)
{
     fbe:	cf 93       	push	r28
     fc0:	df 93       	push	r29
     fc2:	1f 92       	push	r1
     fc4:	cd b7       	in	r28, 0x3d	; 61
     fc6:	de b7       	in	r29, 0x3e	; 62

typedef uint8_t irqflags_t;

static inline irqflags_t cpu_irq_save(void)
{
	volatile irqflags_t flags = SREG;
     fc8:	9f b7       	in	r25, 0x3f	; 63
     fca:	99 83       	std	Y+1, r25	; 0x01
	cpu_irq_disable();
     fcc:	f8 94       	cli
	return flags;
     fce:	99 81       	ldd	r25, Y+1	; 0x01
	irqflags_t flags = cpu_irq_save();

	*((uint8_t *)&PR.PRGEN + port) &= ~id;
     fd0:	e8 2f       	mov	r30, r24
     fd2:	f0 e0       	ldi	r31, 0x00	; 0
     fd4:	e0 59       	subi	r30, 0x90	; 144
     fd6:	ff 4f       	sbci	r31, 0xFF	; 255
     fd8:	60 95       	com	r22
     fda:	80 81       	ld	r24, Z
     fdc:	68 23       	and	r22, r24
     fde:	60 83       	st	Z, r22
}

static inline void cpu_irq_restore(irqflags_t flags)
{
	barrier();
	SREG = flags;
     fe0:	9f bf       	out	0x3f, r25	; 63

	cpu_irq_restore(flags);
}
     fe2:	0f 90       	pop	r0
     fe4:	df 91       	pop	r29
     fe6:	cf 91       	pop	r28
     fe8:	08 95       	ret

00000fea <ccp_write_io>:

	PUBLIC_FUNCTION(ccp_write_io)

#if defined(__GNUC__)

	out     RAMPZ, r1               // Reset bits 23:16 of Z
     fea:	1b be       	out	0x3b, r1	; 59
	movw    r30, r24                // Load addr into Z
     fec:	fc 01       	movw	r30, r24
	ldi     r18, CCP_IOREG          // Load magic CCP value
     fee:	28 ed       	ldi	r18, 0xD8	; 216
	out     CCP, r18                // Start CCP handshake
     ff0:	24 bf       	out	0x34, r18	; 52
	st      Z, r22                  // Write value to I/O register
     ff2:	60 83       	st	Z, r22
	ret                             // Return to caller
     ff4:	08 95       	ret

00000ff6 <__portable_avr_delay_cycles>:
	TCD1.CCA = (uint16_t) ((TCD1.PER) * (servo_on_time_us / 1000.0)); // makes the waveform be created for a duty cycle
}

void servo_timer_alt(void){
	TCD1.CCA = (uint16_t) ((TCD0.PER) * (servo_on_time_us / 1000.0)); // makes the waveform be created for a duty cycle
}
     ff6:	04 c0       	rjmp	.+8      	; 0x1000 <__portable_avr_delay_cycles+0xa>
     ff8:	61 50       	subi	r22, 0x01	; 1
     ffa:	71 09       	sbc	r23, r1
     ffc:	81 09       	sbc	r24, r1
     ffe:	91 09       	sbc	r25, r1
    1000:	61 15       	cp	r22, r1
    1002:	71 05       	cpc	r23, r1
    1004:	81 05       	cpc	r24, r1
    1006:	91 05       	cpc	r25, r1
    1008:	b9 f7       	brne	.-18     	; 0xff8 <__portable_avr_delay_cycles+0x2>
    100a:	08 95       	ret

0000100c <xbee_init>:
    100c:	51 de       	rcall	.-862    	; 0xcb0 <XBEE_uart_init>
    100e:	6b ea       	ldi	r22, 0xAB	; 171
    1010:	79 e2       	ldi	r23, 0x29	; 41
    1012:	80 e0       	ldi	r24, 0x00	; 0
    1014:	90 e0       	ldi	r25, 0x00	; 0
    1016:	ef df       	rcall	.-34     	; 0xff6 <__portable_avr_delay_cycles>
    1018:	80 e1       	ldi	r24, 0x10	; 16
    101a:	80 93 a3 08 	sts	0x08A3, r24	; 0x8008a3 <__TEXT_REGION_LENGTH__+0x7008a3>
    101e:	08 95       	ret

00001020 <get_altitude>:
    1020:	4f 92       	push	r4
    1022:	5f 92       	push	r5
    1024:	6f 92       	push	r6
    1026:	7f 92       	push	r7
    1028:	8f 92       	push	r8
    102a:	9f 92       	push	r9
    102c:	af 92       	push	r10
    102e:	bf 92       	push	r11
    1030:	cf 92       	push	r12
    1032:	df 92       	push	r13
    1034:	ef 92       	push	r14
    1036:	ff 92       	push	r15
    1038:	2b 01       	movw	r4, r22
    103a:	3c 01       	movw	r6, r24
    103c:	c0 90 1b 20 	lds	r12, 0x201B	; 0x80201b <L>
    1040:	d0 90 1c 20 	lds	r13, 0x201C	; 0x80201c <L+0x1>
    1044:	e0 90 1d 20 	lds	r14, 0x201D	; 0x80201d <L+0x2>
    1048:	f0 90 1e 20 	lds	r15, 0x201E	; 0x80201e <L+0x3>
    104c:	20 91 1f 20 	lds	r18, 0x201F	; 0x80201f <R>
    1050:	30 91 20 20 	lds	r19, 0x2020	; 0x802020 <R+0x1>
    1054:	40 91 21 20 	lds	r20, 0x2021	; 0x802021 <R+0x2>
    1058:	50 91 22 20 	lds	r21, 0x2022	; 0x802022 <R+0x3>
    105c:	c7 01       	movw	r24, r14
    105e:	b6 01       	movw	r22, r12
    1060:	67 d6       	rcall	.+3278   	; 0x1d30 <__mulsf3>
    1062:	20 91 17 20 	lds	r18, 0x2017	; 0x802017 <g_0>
    1066:	30 91 18 20 	lds	r19, 0x2018	; 0x802018 <g_0+0x1>
    106a:	40 91 19 20 	lds	r20, 0x2019	; 0x802019 <g_0+0x2>
    106e:	50 91 1a 20 	lds	r21, 0x201A	; 0x80201a <g_0+0x3>
    1072:	0f d5       	rcall	.+2590   	; 0x1a92 <__divsf3>
    1074:	4b 01       	movw	r8, r22
    1076:	5c 01       	movw	r10, r24
    1078:	a3 01       	movw	r20, r6
    107a:	92 01       	movw	r18, r4
    107c:	60 91 27 20 	lds	r22, 0x2027	; 0x802027 <ground_p>
    1080:	70 91 28 20 	lds	r23, 0x2028	; 0x802028 <ground_p+0x1>
    1084:	80 91 29 20 	lds	r24, 0x2029	; 0x802029 <ground_p+0x2>
    1088:	90 91 2a 20 	lds	r25, 0x202A	; 0x80202a <ground_p+0x3>
    108c:	02 d5       	rcall	.+2564   	; 0x1a92 <__divsf3>
    108e:	a5 01       	movw	r20, r10
    1090:	94 01       	movw	r18, r8
    1092:	b1 d6       	rcall	.+3426   	; 0x1df6 <pow>
    1094:	20 e0       	ldi	r18, 0x00	; 0
    1096:	30 e0       	ldi	r19, 0x00	; 0
    1098:	40 e8       	ldi	r20, 0x80	; 128
    109a:	5f e3       	ldi	r21, 0x3F	; 63
    109c:	91 d4       	rcall	.+2338   	; 0x19c0 <__subsf3>
    109e:	20 91 23 20 	lds	r18, 0x2023	; 0x802023 <ground_t>
    10a2:	30 91 24 20 	lds	r19, 0x2024	; 0x802024 <ground_t+0x1>
    10a6:	40 91 25 20 	lds	r20, 0x2025	; 0x802025 <ground_t+0x2>
    10aa:	50 91 26 20 	lds	r21, 0x2026	; 0x802026 <ground_t+0x3>
    10ae:	40 d6       	rcall	.+3200   	; 0x1d30 <__mulsf3>
    10b0:	a7 01       	movw	r20, r14
    10b2:	96 01       	movw	r18, r12
    10b4:	ee d4       	rcall	.+2524   	; 0x1a92 <__divsf3>
    10b6:	20 91 2f 21 	lds	r18, 0x212F	; 0x80212f <ground_a>
    10ba:	30 91 30 21 	lds	r19, 0x2130	; 0x802130 <ground_a+0x1>
    10be:	40 91 31 21 	lds	r20, 0x2131	; 0x802131 <ground_a+0x2>
    10c2:	50 91 32 21 	lds	r21, 0x2132	; 0x802132 <ground_a+0x3>
    10c6:	7c d4       	rcall	.+2296   	; 0x19c0 <__subsf3>
    10c8:	ff 90       	pop	r15
    10ca:	ef 90       	pop	r14
    10cc:	df 90       	pop	r13
    10ce:	cf 90       	pop	r12
    10d0:	bf 90       	pop	r11
    10d2:	af 90       	pop	r10
    10d4:	9f 90       	pop	r9
    10d6:	8f 90       	pop	r8
    10d8:	7f 90       	pop	r7
    10da:	6f 90       	pop	r6
    10dc:	5f 90       	pop	r5
    10de:	4f 90       	pop	r4
    10e0:	08 95       	ret

000010e2 <diff>:
    10e2:	2f 92       	push	r2
    10e4:	3f 92       	push	r3
    10e6:	4f 92       	push	r4
    10e8:	5f 92       	push	r5
    10ea:	6f 92       	push	r6
    10ec:	7f 92       	push	r7
    10ee:	8f 92       	push	r8
    10f0:	9f 92       	push	r9
    10f2:	af 92       	push	r10
    10f4:	bf 92       	push	r11
    10f6:	cf 92       	push	r12
    10f8:	df 92       	push	r13
    10fa:	ef 92       	push	r14
    10fc:	ff 92       	push	r15
    10fe:	0f 93       	push	r16
    1100:	1f 93       	push	r17
    1102:	cf 93       	push	r28
    1104:	df 93       	push	r29
    1106:	00 d0       	rcall	.+0      	; 0x1108 <diff+0x26>
    1108:	00 d0       	rcall	.+0      	; 0x110a <diff+0x28>
    110a:	cd b7       	in	r28, 0x3d	; 61
    110c:	de b7       	in	r29, 0x3e	; 62
    110e:	6c 01       	movw	r12, r24
    1110:	80 91 14 20 	lds	r24, 0x2014	; 0x802014 <data_samples>
    1114:	88 23       	and	r24, r24
    1116:	09 f4       	brne	.+2      	; 0x111a <diff+0x38>
    1118:	68 c0       	rjmp	.+208    	; 0x11ea <diff+0x108>
    111a:	00 e0       	ldi	r16, 0x00	; 0
    111c:	10 e0       	ldi	r17, 0x00	; 0
    111e:	41 2c       	mov	r4, r1
    1120:	51 2c       	mov	r5, r1
    1122:	32 01       	movw	r6, r4
    1124:	86 2e       	mov	r8, r22
    1126:	91 2c       	mov	r9, r1
    1128:	a1 2c       	mov	r10, r1
    112a:	b1 2c       	mov	r11, r1
    112c:	89 82       	std	Y+1, r8	; 0x01
    112e:	9a 82       	std	Y+2, r9	; 0x02
    1130:	ab 82       	std	Y+3, r10	; 0x03
    1132:	bc 82       	std	Y+4, r11	; 0x04
    1134:	b8 01       	movw	r22, r16
    1136:	c6 01       	movw	r24, r12
    1138:	50 de       	rcall	.-864    	; 0xdda <rb16_get_nth>
    113a:	5c 01       	movw	r10, r24
    113c:	18 01       	movw	r2, r16
    113e:	2f ef       	ldi	r18, 0xFF	; 255
    1140:	22 1a       	sub	r2, r18
    1142:	32 0a       	sbc	r3, r18
    1144:	b1 01       	movw	r22, r2
    1146:	c6 01       	movw	r24, r12
    1148:	48 de       	rcall	.-880    	; 0xdda <rb16_get_nth>
    114a:	7c 01       	movw	r14, r24
    114c:	b8 01       	movw	r22, r16
    114e:	6e 5f       	subi	r22, 0xFE	; 254
    1150:	7f 4f       	sbci	r23, 0xFF	; 255
    1152:	c6 01       	movw	r24, r12
    1154:	42 de       	rcall	.-892    	; 0xdda <rb16_get_nth>
    1156:	a5 01       	movw	r20, r10
    1158:	bb 0c       	add	r11, r11
    115a:	66 0b       	sbc	r22, r22
    115c:	77 0b       	sbc	r23, r23
    115e:	8a 01       	movw	r16, r20
    1160:	9b 01       	movw	r18, r22
    1162:	00 0f       	add	r16, r16
    1164:	11 1f       	adc	r17, r17
    1166:	22 1f       	adc	r18, r18
    1168:	33 1f       	adc	r19, r19
    116a:	40 0f       	add	r20, r16
    116c:	51 1f       	adc	r21, r17
    116e:	62 1f       	adc	r22, r18
    1170:	73 1f       	adc	r23, r19
    1172:	87 01       	movw	r16, r14
    1174:	ff 0c       	add	r15, r15
    1176:	22 0b       	sbc	r18, r18
    1178:	33 0b       	sbc	r19, r19
    117a:	78 01       	movw	r14, r16
    117c:	89 01       	movw	r16, r18
    117e:	ee 0c       	add	r14, r14
    1180:	ff 1c       	adc	r15, r15
    1182:	00 1f       	adc	r16, r16
    1184:	11 1f       	adc	r17, r17
    1186:	ee 0c       	add	r14, r14
    1188:	ff 1c       	adc	r15, r15
    118a:	00 1f       	adc	r16, r16
    118c:	11 1f       	adc	r17, r17
    118e:	4a 01       	movw	r8, r20
    1190:	5b 01       	movw	r10, r22
    1192:	8e 18       	sub	r8, r14
    1194:	9f 08       	sbc	r9, r15
    1196:	a0 0a       	sbc	r10, r16
    1198:	b1 0a       	sbc	r11, r17
    119a:	ac 01       	movw	r20, r24
    119c:	99 0f       	add	r25, r25
    119e:	66 0b       	sbc	r22, r22
    11a0:	77 0b       	sbc	r23, r23
    11a2:	d5 01       	movw	r26, r10
    11a4:	c4 01       	movw	r24, r8
    11a6:	84 0f       	add	r24, r20
    11a8:	95 1f       	adc	r25, r21
    11aa:	a6 1f       	adc	r26, r22
    11ac:	b7 1f       	adc	r27, r23
    11ae:	9c 01       	movw	r18, r24
    11b0:	ad 01       	movw	r20, r26
    11b2:	69 81       	ldd	r22, Y+1	; 0x01
    11b4:	7a 81       	ldd	r23, Y+2	; 0x02
    11b6:	8b 81       	ldd	r24, Y+3	; 0x03
    11b8:	9c 81       	ldd	r25, Y+4	; 0x04
    11ba:	82 d7       	rcall	.+3844   	; 0x20c0 <__mulsi3>
    11bc:	05 d5       	rcall	.+2570   	; 0x1bc8 <__floatsisf>
    11be:	20 e0       	ldi	r18, 0x00	; 0
    11c0:	30 e0       	ldi	r19, 0x00	; 0
    11c2:	40 e0       	ldi	r20, 0x00	; 0
    11c4:	5f e3       	ldi	r21, 0x3F	; 63
    11c6:	b4 d5       	rcall	.+2920   	; 0x1d30 <__mulsf3>
    11c8:	9b 01       	movw	r18, r22
    11ca:	ac 01       	movw	r20, r24
    11cc:	c3 01       	movw	r24, r6
    11ce:	b2 01       	movw	r22, r4
    11d0:	f8 d3       	rcall	.+2032   	; 0x19c2 <__addsf3>
    11d2:	2b 01       	movw	r4, r22
    11d4:	3c 01       	movw	r6, r24
    11d6:	80 91 14 20 	lds	r24, 0x2014	; 0x802014 <data_samples>
    11da:	81 01       	movw	r16, r2
    11dc:	28 2f       	mov	r18, r24
    11de:	30 e0       	ldi	r19, 0x00	; 0
    11e0:	22 16       	cp	r2, r18
    11e2:	33 06       	cpc	r3, r19
    11e4:	08 f4       	brcc	.+2      	; 0x11e8 <diff+0x106>
    11e6:	a6 cf       	rjmp	.-180    	; 0x1134 <diff+0x52>
    11e8:	03 c0       	rjmp	.+6      	; 0x11f0 <diff+0x10e>
    11ea:	41 2c       	mov	r4, r1
    11ec:	51 2c       	mov	r5, r1
    11ee:	32 01       	movw	r6, r4
    11f0:	68 2f       	mov	r22, r24
    11f2:	70 e0       	ldi	r23, 0x00	; 0
    11f4:	80 e0       	ldi	r24, 0x00	; 0
    11f6:	90 e0       	ldi	r25, 0x00	; 0
    11f8:	e7 d4       	rcall	.+2510   	; 0x1bc8 <__floatsisf>
    11fa:	9b 01       	movw	r18, r22
    11fc:	ac 01       	movw	r20, r24
    11fe:	c3 01       	movw	r24, r6
    1200:	b2 01       	movw	r22, r4
    1202:	47 d4       	rcall	.+2190   	; 0x1a92 <__divsf3>
    1204:	20 e0       	ldi	r18, 0x00	; 0
    1206:	30 e0       	ldi	r19, 0x00	; 0
    1208:	48 ec       	ldi	r20, 0xC8	; 200
    120a:	52 e4       	ldi	r21, 0x42	; 66
    120c:	42 d4       	rcall	.+2180   	; 0x1a92 <__divsf3>
    120e:	26 96       	adiw	r28, 0x06	; 6
    1210:	cd bf       	out	0x3d, r28	; 61
    1212:	de bf       	out	0x3e, r29	; 62
    1214:	df 91       	pop	r29
    1216:	cf 91       	pop	r28
    1218:	1f 91       	pop	r17
    121a:	0f 91       	pop	r16
    121c:	ff 90       	pop	r15
    121e:	ef 90       	pop	r14
    1220:	df 90       	pop	r13
    1222:	cf 90       	pop	r12
    1224:	bf 90       	pop	r11
    1226:	af 90       	pop	r10
    1228:	9f 90       	pop	r9
    122a:	8f 90       	pop	r8
    122c:	7f 90       	pop	r7
    122e:	6f 90       	pop	r6
    1230:	5f 90       	pop	r5
    1232:	4f 90       	pop	r4
    1234:	3f 90       	pop	r3
    1236:	2f 90       	pop	r2
    1238:	08 95       	ret

0000123a <data_check>:
    123a:	3f 92       	push	r3
    123c:	4f 92       	push	r4
    123e:	5f 92       	push	r5
    1240:	6f 92       	push	r6
    1242:	7f 92       	push	r7
    1244:	8f 92       	push	r8
    1246:	9f 92       	push	r9
    1248:	af 92       	push	r10
    124a:	bf 92       	push	r11
    124c:	cf 92       	push	r12
    124e:	df 92       	push	r13
    1250:	ef 92       	push	r14
    1252:	ff 92       	push	r15
    1254:	0f 93       	push	r16
    1256:	1f 93       	push	r17
    1258:	cf 93       	push	r28
    125a:	df 93       	push	r29
    125c:	00 d0       	rcall	.+0      	; 0x125e <data_check+0x24>
    125e:	00 d0       	rcall	.+0      	; 0x1260 <data_check+0x26>
    1260:	cd b7       	in	r28, 0x3d	; 61
    1262:	de b7       	in	r29, 0x3e	; 62
    1264:	8c 01       	movw	r16, r24
    1266:	19 82       	std	Y+1, r1	; 0x01
    1268:	1a 82       	std	Y+2, r1	; 0x02
    126a:	c1 2c       	mov	r12, r1
    126c:	d1 2c       	mov	r13, r1
    126e:	76 01       	movw	r14, r12
    1270:	69 81       	ldd	r22, Y+1	; 0x01
    1272:	7a 81       	ldd	r23, Y+2	; 0x02
    1274:	c8 01       	movw	r24, r16
    1276:	39 de       	rcall	.-910    	; 0xeea <rb32_get_nth>
    1278:	4b 01       	movw	r8, r22
    127a:	5c 01       	movw	r10, r24
    127c:	21 ea       	ldi	r18, 0xA1	; 161
    127e:	82 1a       	sub	r8, r18
    1280:	26 e8       	ldi	r18, 0x86	; 134
    1282:	92 0a       	sbc	r9, r18
    1284:	21 e0       	ldi	r18, 0x01	; 1
    1286:	a2 0a       	sbc	r10, r18
    1288:	b1 08       	sbc	r11, r1
    128a:	2f ed       	ldi	r18, 0xDF	; 223
    128c:	82 16       	cp	r8, r18
    128e:	2f e0       	ldi	r18, 0x0F	; 15
    1290:	92 06       	cpc	r9, r18
    1292:	27 e9       	ldi	r18, 0x97	; 151
    1294:	a2 06       	cpc	r10, r18
    1296:	b1 04       	cpc	r11, r1
    1298:	68 f4       	brcc	.+26     	; 0x12b4 <data_check+0x7a>
    129a:	96 d4       	rcall	.+2348   	; 0x1bc8 <__floatsisf>
    129c:	20 e0       	ldi	r18, 0x00	; 0
    129e:	30 e0       	ldi	r19, 0x00	; 0
    12a0:	40 ea       	ldi	r20, 0xA0	; 160
    12a2:	50 e4       	ldi	r21, 0x40	; 64
    12a4:	f6 d3       	rcall	.+2028   	; 0x1a92 <__divsf3>
    12a6:	9b 01       	movw	r18, r22
    12a8:	ac 01       	movw	r20, r24
    12aa:	c7 01       	movw	r24, r14
    12ac:	b6 01       	movw	r22, r12
    12ae:	89 d3       	rcall	.+1810   	; 0x19c2 <__addsf3>
    12b0:	6b 01       	movw	r12, r22
    12b2:	7c 01       	movw	r14, r24
    12b4:	89 81       	ldd	r24, Y+1	; 0x01
    12b6:	9a 81       	ldd	r25, Y+2	; 0x02
    12b8:	01 96       	adiw	r24, 0x01	; 1
    12ba:	89 83       	std	Y+1, r24	; 0x01
    12bc:	9a 83       	std	Y+2, r25	; 0x02
    12be:	05 97       	sbiw	r24, 0x05	; 5
    12c0:	b9 f6       	brne	.-82     	; 0x1270 <data_check+0x36>
    12c2:	19 82       	std	Y+1, r1	; 0x01
    12c4:	1a 82       	std	Y+2, r1	; 0x02
    12c6:	81 2c       	mov	r8, r1
    12c8:	91 2c       	mov	r9, r1
    12ca:	54 01       	movw	r10, r8
    12cc:	69 81       	ldd	r22, Y+1	; 0x01
    12ce:	7a 81       	ldd	r23, Y+2	; 0x02
    12d0:	c8 01       	movw	r24, r16
    12d2:	0b de       	rcall	.-1002   	; 0xeea <rb32_get_nth>
    12d4:	2b 01       	movw	r4, r22
    12d6:	3c 01       	movw	r6, r24
    12d8:	21 ea       	ldi	r18, 0xA1	; 161
    12da:	42 1a       	sub	r4, r18
    12dc:	26 e8       	ldi	r18, 0x86	; 134
    12de:	52 0a       	sbc	r5, r18
    12e0:	21 e0       	ldi	r18, 0x01	; 1
    12e2:	62 0a       	sbc	r6, r18
    12e4:	71 08       	sbc	r7, r1
    12e6:	2f ed       	ldi	r18, 0xDF	; 223
    12e8:	42 16       	cp	r4, r18
    12ea:	2f e0       	ldi	r18, 0x0F	; 15
    12ec:	52 06       	cpc	r5, r18
    12ee:	27 e9       	ldi	r18, 0x97	; 151
    12f0:	62 06       	cpc	r6, r18
    12f2:	71 04       	cpc	r7, r1
    12f4:	70 f4       	brcc	.+28     	; 0x1312 <data_check+0xd8>
    12f6:	68 d4       	rcall	.+2256   	; 0x1bc8 <__floatsisf>
    12f8:	a7 01       	movw	r20, r14
    12fa:	96 01       	movw	r18, r12
    12fc:	61 d3       	rcall	.+1730   	; 0x19c0 <__subsf3>
    12fe:	9b 01       	movw	r18, r22
    1300:	ac 01       	movw	r20, r24
    1302:	16 d5       	rcall	.+2604   	; 0x1d30 <__mulsf3>
    1304:	9b 01       	movw	r18, r22
    1306:	ac 01       	movw	r20, r24
    1308:	c5 01       	movw	r24, r10
    130a:	b4 01       	movw	r22, r8
    130c:	5a d3       	rcall	.+1716   	; 0x19c2 <__addsf3>
    130e:	4b 01       	movw	r8, r22
    1310:	5c 01       	movw	r10, r24
    1312:	89 81       	ldd	r24, Y+1	; 0x01
    1314:	9a 81       	ldd	r25, Y+2	; 0x02
    1316:	01 96       	adiw	r24, 0x01	; 1
    1318:	89 83       	std	Y+1, r24	; 0x01
    131a:	9a 83       	std	Y+2, r25	; 0x02
    131c:	05 97       	sbiw	r24, 0x05	; 5
    131e:	b1 f6       	brne	.-84     	; 0x12cc <data_check+0x92>
    1320:	20 e0       	ldi	r18, 0x00	; 0
    1322:	30 e0       	ldi	r19, 0x00	; 0
    1324:	40 e8       	ldi	r20, 0x80	; 128
    1326:	5e e3       	ldi	r21, 0x3E	; 62
    1328:	c5 01       	movw	r24, r10
    132a:	b4 01       	movw	r22, r8
    132c:	01 d5       	rcall	.+2562   	; 0x1d30 <__mulsf3>
    132e:	69 83       	std	Y+1, r22	; 0x01
    1330:	7a 83       	std	Y+2, r23	; 0x02
    1332:	8b 83       	std	Y+3, r24	; 0x03
    1334:	9c 83       	std	Y+4, r25	; 0x04
    1336:	1d 82       	std	Y+5, r1	; 0x05
    1338:	1e 82       	std	Y+6, r1	; 0x06
    133a:	31 2c       	mov	r3, r1
    133c:	41 2c       	mov	r4, r1
    133e:	51 2c       	mov	r5, r1
    1340:	32 01       	movw	r6, r4
    1342:	6d 81       	ldd	r22, Y+5	; 0x05
    1344:	7e 81       	ldd	r23, Y+6	; 0x06
    1346:	c8 01       	movw	r24, r16
    1348:	d0 dd       	rcall	.-1120   	; 0xeea <rb32_get_nth>
    134a:	4b 01       	movw	r8, r22
    134c:	5c 01       	movw	r10, r24
    134e:	21 ea       	ldi	r18, 0xA1	; 161
    1350:	82 1a       	sub	r8, r18
    1352:	26 e8       	ldi	r18, 0x86	; 134
    1354:	92 0a       	sbc	r9, r18
    1356:	21 e0       	ldi	r18, 0x01	; 1
    1358:	a2 0a       	sbc	r10, r18
    135a:	b1 08       	sbc	r11, r1
    135c:	2f ed       	ldi	r18, 0xDF	; 223
    135e:	82 16       	cp	r8, r18
    1360:	2f e0       	ldi	r18, 0x0F	; 15
    1362:	92 06       	cpc	r9, r18
    1364:	27 e9       	ldi	r18, 0x97	; 151
    1366:	a2 06       	cpc	r10, r18
    1368:	b1 04       	cpc	r11, r1
    136a:	20 f5       	brcc	.+72     	; 0x13b4 <data_check+0x17a>
    136c:	2d d4       	rcall	.+2138   	; 0x1bc8 <__floatsisf>
    136e:	4b 01       	movw	r8, r22
    1370:	5c 01       	movw	r10, r24
    1372:	a7 01       	movw	r20, r14
    1374:	96 01       	movw	r18, r12
    1376:	24 d3       	rcall	.+1608   	; 0x19c0 <__subsf3>
    1378:	f4 d3       	rcall	.+2024   	; 0x1b62 <__fixsfsi>
    137a:	9b 01       	movw	r18, r22
    137c:	77 23       	and	r23, r23
    137e:	24 f4       	brge	.+8      	; 0x1388 <data_check+0x14e>
    1380:	22 27       	eor	r18, r18
    1382:	33 27       	eor	r19, r19
    1384:	26 1b       	sub	r18, r22
    1386:	37 0b       	sbc	r19, r23
    1388:	b9 01       	movw	r22, r18
    138a:	33 0f       	add	r19, r19
    138c:	88 0b       	sbc	r24, r24
    138e:	99 0b       	sbc	r25, r25
    1390:	1b d4       	rcall	.+2102   	; 0x1bc8 <__floatsisf>
    1392:	9b 01       	movw	r18, r22
    1394:	ac 01       	movw	r20, r24
    1396:	69 81       	ldd	r22, Y+1	; 0x01
    1398:	7a 81       	ldd	r23, Y+2	; 0x02
    139a:	8b 81       	ldd	r24, Y+3	; 0x03
    139c:	9c 81       	ldd	r25, Y+4	; 0x04
    139e:	c4 d4       	rcall	.+2440   	; 0x1d28 <__gesf2>
    13a0:	88 23       	and	r24, r24
    13a2:	44 f0       	brlt	.+16     	; 0x13b4 <data_check+0x17a>
    13a4:	a5 01       	movw	r20, r10
    13a6:	94 01       	movw	r18, r8
    13a8:	c3 01       	movw	r24, r6
    13aa:	b2 01       	movw	r22, r4
    13ac:	0a d3       	rcall	.+1556   	; 0x19c2 <__addsf3>
    13ae:	2b 01       	movw	r4, r22
    13b0:	3c 01       	movw	r6, r24
    13b2:	33 94       	inc	r3
    13b4:	8d 81       	ldd	r24, Y+5	; 0x05
    13b6:	9e 81       	ldd	r25, Y+6	; 0x06
    13b8:	01 96       	adiw	r24, 0x01	; 1
    13ba:	8d 83       	std	Y+5, r24	; 0x05
    13bc:	9e 83       	std	Y+6, r25	; 0x06
    13be:	05 97       	sbiw	r24, 0x05	; 5
    13c0:	09 f0       	breq	.+2      	; 0x13c4 <data_check+0x18a>
    13c2:	bf cf       	rjmp	.-130    	; 0x1342 <data_check+0x108>
    13c4:	33 20       	and	r3, r3
    13c6:	59 f0       	breq	.+22     	; 0x13de <data_check+0x1a4>
    13c8:	63 2d       	mov	r22, r3
    13ca:	70 e0       	ldi	r23, 0x00	; 0
    13cc:	80 e0       	ldi	r24, 0x00	; 0
    13ce:	90 e0       	ldi	r25, 0x00	; 0
    13d0:	f9 d3       	rcall	.+2034   	; 0x1bc4 <__floatunsisf>
    13d2:	9b 01       	movw	r18, r22
    13d4:	ac 01       	movw	r20, r24
    13d6:	c3 01       	movw	r24, r6
    13d8:	b2 01       	movw	r22, r4
    13da:	5b d3       	rcall	.+1718   	; 0x1a92 <__divsf3>
    13dc:	04 c0       	rjmp	.+8      	; 0x13e6 <data_check+0x1ac>
    13de:	60 e0       	ldi	r22, 0x00	; 0
    13e0:	70 e0       	ldi	r23, 0x00	; 0
    13e2:	80 e8       	ldi	r24, 0x80	; 128
    13e4:	9f eb       	ldi	r25, 0xBF	; 191
    13e6:	26 96       	adiw	r28, 0x06	; 6
    13e8:	cd bf       	out	0x3d, r28	; 61
    13ea:	de bf       	out	0x3e, r29	; 62
    13ec:	df 91       	pop	r29
    13ee:	cf 91       	pop	r28
    13f0:	1f 91       	pop	r17
    13f2:	0f 91       	pop	r16
    13f4:	ff 90       	pop	r15
    13f6:	ef 90       	pop	r14
    13f8:	df 90       	pop	r13
    13fa:	cf 90       	pop	r12
    13fc:	bf 90       	pop	r11
    13fe:	af 90       	pop	r10
    1400:	9f 90       	pop	r9
    1402:	8f 90       	pop	r8
    1404:	7f 90       	pop	r7
    1406:	6f 90       	pop	r6
    1408:	5f 90       	pop	r5
    140a:	4f 90       	pop	r4
    140c:	3f 90       	pop	r3
    140e:	08 95       	ret

00001410 <data_collect>:
    1410:	af 92       	push	r10
    1412:	bf 92       	push	r11
    1414:	cf 92       	push	r12
    1416:	df 92       	push	r13
    1418:	ef 92       	push	r14
    141a:	ff 92       	push	r15
    141c:	0f 93       	push	r16
    141e:	1f 93       	push	r17
    1420:	cf 93       	push	r28
    1422:	df 93       	push	r29
    1424:	00 d0       	rcall	.+0      	; 0x1426 <data_collect+0x16>
    1426:	00 d0       	rcall	.+0      	; 0x1428 <data_collect+0x18>
    1428:	cd b7       	in	r28, 0x3d	; 61
    142a:	de b7       	in	r29, 0x3e	; 62
    142c:	5c 01       	movw	r10, r24
    142e:	8b 01       	movw	r16, r22
    1430:	82 e0       	ldi	r24, 0x02	; 2
    1432:	96 e7       	ldi	r25, 0x76	; 118
    1434:	af e0       	ldi	r26, 0x0F	; 15
    1436:	b0 e0       	ldi	r27, 0x00	; 0
    1438:	89 83       	std	Y+1, r24	; 0x01
    143a:	9a 83       	std	Y+2, r25	; 0x02
    143c:	ab 83       	std	Y+3, r26	; 0x03
    143e:	bc 83       	std	Y+4, r27	; 0x04
    1440:	41 e0       	ldi	r20, 0x01	; 1
    1442:	50 e0       	ldi	r21, 0x00	; 0
    1444:	be 01       	movw	r22, r28
    1446:	6f 5f       	subi	r22, 0xFF	; 255
    1448:	7f 4f       	sbci	r23, 0xFF	; 255
    144a:	c8 01       	movw	r24, r16
    144c:	f3 dc       	rcall	.-1562   	; 0xe34 <rb32_write>
    144e:	c8 01       	movw	r24, r16
    1450:	f4 de       	rcall	.-536    	; 0x123a <data_check>
    1452:	20 e0       	ldi	r18, 0x00	; 0
    1454:	30 e0       	ldi	r19, 0x00	; 0
    1456:	40 e2       	ldi	r20, 0x20	; 32
    1458:	51 e4       	ldi	r21, 0x41	; 65
    145a:	1b d3       	rcall	.+1590   	; 0x1a92 <__divsf3>
    145c:	6b 01       	movw	r12, r22
    145e:	7c 01       	movw	r14, r24
    1460:	20 e0       	ldi	r18, 0x00	; 0
    1462:	30 e0       	ldi	r19, 0x00	; 0
    1464:	40 e8       	ldi	r20, 0x80	; 128
    1466:	5f eb       	ldi	r21, 0xBF	; 191
    1468:	10 d3       	rcall	.+1568   	; 0x1a8a <__cmpsf2>
    146a:	88 23       	and	r24, r24
    146c:	71 f1       	breq	.+92     	; 0x14ca <data_collect+0xba>
    146e:	c0 92 27 21 	sts	0x2127, r12	; 0x802127 <press>
    1472:	d0 92 28 21 	sts	0x2128, r13	; 0x802128 <press+0x1>
    1476:	e0 92 29 21 	sts	0x2129, r14	; 0x802129 <press+0x2>
    147a:	f0 92 2a 21 	sts	0x212A, r15	; 0x80212a <press+0x3>
    147e:	c7 01       	movw	r24, r14
    1480:	b6 01       	movw	r22, r12
    1482:	ce dd       	rcall	.-1124   	; 0x1020 <get_altitude>
    1484:	60 93 1f 21 	sts	0x211F, r22	; 0x80211f <alt>
    1488:	70 93 20 21 	sts	0x2120, r23	; 0x802120 <alt+0x1>
    148c:	80 93 21 21 	sts	0x2121, r24	; 0x802121 <alt+0x2>
    1490:	90 93 22 21 	sts	0x2122, r25	; 0x802122 <alt+0x3>
    1494:	20 e0       	ldi	r18, 0x00	; 0
    1496:	30 e0       	ldi	r19, 0x00	; 0
    1498:	48 ec       	ldi	r20, 0xC8	; 200
    149a:	52 e4       	ldi	r21, 0x42	; 66
    149c:	49 d4       	rcall	.+2194   	; 0x1d30 <__mulsf3>
    149e:	61 d3       	rcall	.+1730   	; 0x1b62 <__fixsfsi>
    14a0:	6d 83       	std	Y+5, r22	; 0x05
    14a2:	7e 83       	std	Y+6, r23	; 0x06
    14a4:	41 e0       	ldi	r20, 0x01	; 1
    14a6:	50 e0       	ldi	r21, 0x00	; 0
    14a8:	be 01       	movw	r22, r28
    14aa:	6b 5f       	subi	r22, 0xFB	; 251
    14ac:	7f 4f       	sbci	r23, 0xFF	; 255
    14ae:	c5 01       	movw	r24, r10
    14b0:	4b dc       	rcall	.-1898   	; 0xd48 <rb16_write>
    14b2:	60 91 15 20 	lds	r22, 0x2015	; 0x802015 <rate>
    14b6:	c5 01       	movw	r24, r10
    14b8:	14 de       	rcall	.-984    	; 0x10e2 <diff>
    14ba:	60 93 17 21 	sts	0x2117, r22	; 0x802117 <velocity>
    14be:	70 93 18 21 	sts	0x2118, r23	; 0x802118 <velocity+0x1>
    14c2:	80 93 19 21 	sts	0x2119, r24	; 0x802119 <velocity+0x2>
    14c6:	90 93 1a 21 	sts	0x211A, r25	; 0x80211a <velocity+0x3>
    14ca:	83 e3       	ldi	r24, 0x33	; 51
    14cc:	93 e1       	ldi	r25, 0x13	; 19
    14ce:	a0 e9       	ldi	r26, 0x90	; 144
    14d0:	b3 e4       	ldi	r27, 0x43	; 67
    14d2:	80 93 23 21 	sts	0x2123, r24	; 0x802123 <temp>
    14d6:	90 93 24 21 	sts	0x2124, r25	; 0x802124 <temp+0x1>
    14da:	a0 93 25 21 	sts	0x2125, r26	; 0x802125 <temp+0x2>
    14de:	b0 93 26 21 	sts	0x2126, r27	; 0x802126 <temp+0x3>
    14e2:	26 96       	adiw	r28, 0x06	; 6
    14e4:	cd bf       	out	0x3d, r28	; 61
    14e6:	de bf       	out	0x3e, r29	; 62
    14e8:	df 91       	pop	r29
    14ea:	cf 91       	pop	r28
    14ec:	1f 91       	pop	r17
    14ee:	0f 91       	pop	r16
    14f0:	ff 90       	pop	r15
    14f2:	ef 90       	pop	r14
    14f4:	df 90       	pop	r13
    14f6:	cf 90       	pop	r12
    14f8:	bf 90       	pop	r11
    14fa:	af 90       	pop	r10
    14fc:	08 95       	ret

000014fe <state_check>:
    14fe:	cf 92       	push	r12
    1500:	df 92       	push	r13
    1502:	ef 92       	push	r14
    1504:	ff 92       	push	r15
    1506:	c0 90 17 21 	lds	r12, 0x2117	; 0x802117 <velocity>
    150a:	d0 90 18 21 	lds	r13, 0x2118	; 0x802118 <velocity+0x1>
    150e:	e0 90 19 21 	lds	r14, 0x2119	; 0x802119 <velocity+0x2>
    1512:	f0 90 1a 21 	lds	r15, 0x211A	; 0x80211a <velocity+0x3>
    1516:	c7 01       	movw	r24, r14
    1518:	b6 01       	movw	r22, r12
    151a:	23 d3       	rcall	.+1606   	; 0x1b62 <__fixsfsi>
    151c:	9b 01       	movw	r18, r22
    151e:	77 23       	and	r23, r23
    1520:	24 f4       	brge	.+8      	; 0x152a <state_check+0x2c>
    1522:	22 27       	eor	r18, r18
    1524:	33 27       	eor	r19, r19
    1526:	26 1b       	sub	r18, r22
    1528:	37 0b       	sbc	r19, r23
    152a:	26 30       	cpi	r18, 0x06	; 6
    152c:	31 05       	cpc	r19, r1
    152e:	84 f0       	brlt	.+32     	; 0x1550 <state_check+0x52>
    1530:	20 e0       	ldi	r18, 0x00	; 0
    1532:	30 e0       	ldi	r19, 0x00	; 0
    1534:	a9 01       	movw	r20, r18
    1536:	c7 01       	movw	r24, r14
    1538:	b6 01       	movw	r22, r12
    153a:	a7 d2       	rcall	.+1358   	; 0x1a8a <__cmpsf2>
    153c:	88 23       	and	r24, r24
    153e:	24 f0       	brlt	.+8      	; 0x1548 <state_check+0x4a>
    1540:	81 e0       	ldi	r24, 0x01	; 1
    1542:	80 93 34 21 	sts	0x2134, r24	; 0x802134 <state>
    1546:	1f c0       	rjmp	.+62     	; 0x1586 <state_check+0x88>
    1548:	82 e0       	ldi	r24, 0x02	; 2
    154a:	80 93 34 21 	sts	0x2134, r24	; 0x802134 <state>
    154e:	1b c0       	rjmp	.+54     	; 0x1586 <state_check+0x88>
    1550:	10 92 34 21 	sts	0x2134, r1	; 0x802134 <state>
    1554:	20 e0       	ldi	r18, 0x00	; 0
    1556:	30 e0       	ldi	r19, 0x00	; 0
    1558:	48 e4       	ldi	r20, 0x48	; 72
    155a:	52 e4       	ldi	r21, 0x42	; 66
    155c:	60 91 1f 21 	lds	r22, 0x211F	; 0x80211f <alt>
    1560:	70 91 20 21 	lds	r23, 0x2120	; 0x802120 <alt+0x1>
    1564:	80 91 21 21 	lds	r24, 0x2121	; 0x802121 <alt+0x2>
    1568:	90 91 22 21 	lds	r25, 0x2122	; 0x802122 <alt+0x3>
    156c:	dd d3       	rcall	.+1978   	; 0x1d28 <__gesf2>
    156e:	18 16       	cp	r1, r24
    1570:	1c f4       	brge	.+6      	; 0x1578 <state_check+0x7a>
    1572:	81 e0       	ldi	r24, 0x01	; 1
    1574:	80 93 34 21 	sts	0x2134, r24	; 0x802134 <state>
    1578:	80 91 33 21 	lds	r24, 0x2133	; 0x802133 <released>
    157c:	88 23       	and	r24, r24
    157e:	19 f0       	breq	.+6      	; 0x1586 <state_check+0x88>
    1580:	83 e0       	ldi	r24, 0x03	; 3
    1582:	80 93 34 21 	sts	0x2134, r24	; 0x802134 <state>
    1586:	ff 90       	pop	r15
    1588:	ef 90       	pop	r14
    158a:	df 90       	pop	r13
    158c:	cf 90       	pop	r12
    158e:	08 95       	ret

00001590 <clock_init>:
		sysclk_enable_module(SYSCLK_PORT_D, SYSCLK_TC0);
	}
#endif
#ifdef TCE0
	else if (module == &TCE0) {
		sysclk_enable_module(SYSCLK_PORT_E, SYSCLK_TC0);
    1590:	61 e0       	ldi	r22, 0x01	; 1
    1592:	85 e0       	ldi	r24, 0x05	; 5
    1594:	14 dd       	rcall	.-1496   	; 0xfbe <sysclk_enable_module>

void clock_init(void){
	sysclk_enable_peripheral_clock(&TCE0); // starts peripheral clock

	TCE0.CTRLA = 0x07; // divisor set to 1024
    1596:	e0 e0       	ldi	r30, 0x00	; 0
    1598:	fa e0       	ldi	r31, 0x0A	; 10
    159a:	87 e0       	ldi	r24, 0x07	; 7
    159c:	80 83       	st	Z, r24
	TCE0.PER = 31249; // 1 Hz
    159e:	81 e1       	ldi	r24, 0x11	; 17
    15a0:	9a e7       	ldi	r25, 0x7A	; 122
    15a2:	86 a3       	std	Z+38, r24	; 0x26
    15a4:	97 a3       	std	Z+39, r25	; 0x27
	TCE0.INTCTRLA = TC_OVFINTLVL_LO_gc; // CCA int flag Lo level
    15a6:	81 e0       	ldi	r24, 0x01	; 1
    15a8:	86 83       	std	Z+6, r24	; 0x06
    15aa:	08 95       	ret

000015ac <system_init>:


// Sensor functions
void system_init(void){
	// Initialization of systems
	sysclk_init(); // initializes the system clock
    15ac:	d3 dc       	rcall	.-1626   	; 0xf54 <sysclk_init>
	delay_ms(2); // delays the rest of the processes to ensure a started clock
    15ae:	6b ea       	ldi	r22, 0xAB	; 171
    15b0:	79 e2       	ldi	r23, 0x29	; 41
    15b2:	80 e0       	ldi	r24, 0x00	; 0
    15b4:	90 e0       	ldi	r25, 0x00	; 0
    15b6:	1f dd       	rcall	.-1474   	; 0xff6 <__portable_avr_delay_cycles>
	sei();
    15b8:	78 94       	sei
	
	// Initialization of pins
	PORTC.DIR = 0xBB; // makes Port C have pins, 7, 5, 4, 3, 1, 0 be output (0b10111011)
    15ba:	e0 e4       	ldi	r30, 0x40	; 64
    15bc:	f6 e0       	ldi	r31, 0x06	; 6
    15be:	8b eb       	ldi	r24, 0xBB	; 187
    15c0:	80 83       	st	Z, r24
	PORTC.OUT = 0x10; // makes the 4th pin on Port C be set on high (0b00010000)
    15c2:	80 e1       	ldi	r24, 0x10	; 16
    15c4:	84 83       	std	Z+4, r24	; 0x04
	PMIC.CTRL = PMIC_LOLVLEN_bm; // enables lo level interrupts
    15c6:	81 e0       	ldi	r24, 0x01	; 1
    15c8:	80 93 a2 00 	sts	0x00A2, r24	; 0x8000a2 <__TEXT_REGION_LENGTH__+0x7000a2>
	
	// Driver Initialization
	data_terminal_init();
    15cc:	2b db       	rcall	.-2474   	; 0xc24 <data_terminal_init>
	delay_ms(2);
    15ce:	6b ea       	ldi	r22, 0xAB	; 171
    15d0:	79 e2       	ldi	r23, 0x29	; 41
    15d2:	80 e0       	ldi	r24, 0x00	; 0
    15d4:	90 e0       	ldi	r25, 0x00	; 0
    15d6:	0f dd       	rcall	.-1506   	; 0xff6 <__portable_avr_delay_cycles>
	
//	thermistor_init();
	delay_ms(2);
    15d8:	6b ea       	ldi	r22, 0xAB	; 171
    15da:	79 e2       	ldi	r23, 0x29	; 41
    15dc:	80 e0       	ldi	r24, 0x00	; 0
    15de:	90 e0       	ldi	r25, 0x00	; 0
    15e0:	0a dd       	rcall	.-1516   	; 0xff6 <__portable_avr_delay_cycles>
	
	//spi_init();
	delay_ms(2);
    15e2:	6b ea       	ldi	r22, 0xAB	; 171
    15e4:	79 e2       	ldi	r23, 0x29	; 41
    15e6:	80 e0       	ldi	r24, 0x00	; 0
    15e8:	90 e0       	ldi	r25, 0x00	; 0
    15ea:	05 dd       	rcall	.-1526   	; 0xff6 <__portable_avr_delay_cycles>
	
	//pressure_init();
	delay_ms(2);
    15ec:	6b ea       	ldi	r22, 0xAB	; 171
    15ee:	79 e2       	ldi	r23, 0x29	; 41
    15f0:	80 e0       	ldi	r24, 0x00	; 0
    15f2:	90 e0       	ldi	r25, 0x00	; 0
	
	xbee_init();
    15f4:	00 dd       	rcall	.-1536   	; 0xff6 <__portable_avr_delay_cycles>
	//gps_init();
	
	clock_init();
    15f6:	0a dd       	rcall	.-1516   	; 0x100c <xbee_init>
    15f8:	cb df       	rcall	.-106    	; 0x1590 <clock_init>
    //servo_timer_init();
	cam_init();
    15fa:	fd da       	rcall	.-2566   	; 0xbf6 <cam_init>
    15fc:	66 e5       	ldi	r22, 0x56	; 86
	
	delay_ms(10);
    15fe:	70 ed       	ldi	r23, 0xD0	; 208
    1600:	80 e0       	ldi	r24, 0x00	; 0
    1602:	90 e0       	ldi	r25, 0x00	; 0
    1604:	f8 dc       	rcall	.-1552   	; 0xff6 <__portable_avr_delay_cycles>
    1606:	80 e8       	ldi	r24, 0x80	; 128
    1608:	96 ee       	ldi	r25, 0xE6	; 230
	
	// Initialization of variables
	ground_p = get_pressure();
    160a:	a5 ec       	ldi	r26, 0xC5	; 197
    160c:	b7 e4       	ldi	r27, 0x47	; 71
    160e:	80 93 27 20 	sts	0x2027, r24	; 0x802027 <ground_p>
    1612:	90 93 28 20 	sts	0x2028, r25	; 0x802028 <ground_p+0x1>
    1616:	a0 93 29 20 	sts	0x2029, r26	; 0x802029 <ground_p+0x2>
    161a:	b0 93 2a 20 	sts	0x202A, r27	; 0x80202a <ground_p+0x3>
    161e:	83 e3       	ldi	r24, 0x33	; 51
    1620:	93 e1       	ldi	r25, 0x13	; 19
	ground_t = get_temperature();
    1622:	a0 e9       	ldi	r26, 0x90	; 144
    1624:	b3 e4       	ldi	r27, 0x43	; 67
    1626:	80 93 23 20 	sts	0x2023, r24	; 0x802023 <ground_t>
    162a:	90 93 24 20 	sts	0x2024, r25	; 0x802024 <ground_t+0x1>
    162e:	a0 93 25 20 	sts	0x2025, r26	; 0x802025 <ground_t+0x2>
    1632:	b0 93 26 20 	sts	0x2026, r27	; 0x802026 <ground_t+0x3>
    1636:	60 e8       	ldi	r22, 0x80	; 128
	ground_a = get_altitude(ground_p);
    1638:	76 ee       	ldi	r23, 0xE6	; 230
    163a:	85 ec       	ldi	r24, 0xC5	; 197
    163c:	97 e4       	ldi	r25, 0x47	; 71
    163e:	f0 dc       	rcall	.-1568   	; 0x1020 <get_altitude>
    1640:	60 93 2f 21 	sts	0x212F, r22	; 0x80212f <ground_a>
    1644:	70 93 30 21 	sts	0x2130, r23	; 0x802130 <ground_a+0x1>
    1648:	80 93 31 21 	sts	0x2131, r24	; 0x802131 <ground_a+0x2>
    164c:	90 93 32 21 	sts	0x2132, r25	; 0x802132 <ground_a+0x3>
    1650:	08 95       	ret

00001652 <main>:
    1652:	cf 93       	push	r28
    1654:	df 93       	push	r29
double angle = 0;			// Angle of Bonus Direction	


////////////////////////////// Functions ///////////////////////////////
int main (void)
{
    1656:	cd b7       	in	r28, 0x3d	; 61
    1658:	de b7       	in	r29, 0x3e	; 62
    165a:	cc 54       	subi	r28, 0x4C	; 76
    165c:	d1 09       	sbc	r29, r1
    165e:	cd bf       	out	0x3d, r28	; 61
    1660:	de bf       	out	0x3e, r29	; 62
	system_init();
    1662:	a4 df       	rcall	.-184    	; 0x15ac <system_init>
	
	//printf("Initialized\n");
	cam_switch();
    1664:	ce da       	rcall	.-2660   	; 0xc02 <cam_switch>
    1666:	be 01       	movw	r22, r28
	
	int16_t alt_array[] = {0,0,0,0,0,0,0,0,0,0};
    1668:	6f 5f       	subi	r22, 0xFF	; 255
    166a:	7f 4f       	sbci	r23, 0xFF	; 255
    166c:	84 e1       	ldi	r24, 0x14	; 20
    166e:	fb 01       	movw	r30, r22
    1670:	11 92       	st	Z+, r1
    1672:	8a 95       	dec	r24
    1674:	e9 f7       	brne	.-6      	; 0x1670 <main+0x1e>
    1676:	4a e0       	ldi	r20, 0x0A	; 10
	RingBuffer16_t altitudes;	// in centimeters
	rb16_init(&altitudes, alt_array, (uint16_t) 10);
    1678:	50 e0       	ldi	r21, 0x00	; 0
    167a:	ce 01       	movw	r24, r28
    167c:	45 96       	adiw	r24, 0x15	; 21
    167e:	a3 db       	rcall	.-2234   	; 0xdc6 <rb16_init>
    1680:	be 01       	movw	r22, r28
	
	int32_t press_array[] = {0,0,0,0,0,0,0,0,0,0};
    1682:	63 5e       	subi	r22, 0xE3	; 227
    1684:	7f 4f       	sbci	r23, 0xFF	; 255
    1686:	88 e2       	ldi	r24, 0x28	; 40
    1688:	fb 01       	movw	r30, r22
    168a:	11 92       	st	Z+, r1
    168c:	8a 95       	dec	r24
    168e:	e9 f7       	brne	.-6      	; 0x168a <main+0x38>
    1690:	4a e0       	ldi	r20, 0x0A	; 10
	RingBuffer32_t pressures;	// in Pascals / 10
	rb32_init(&pressures, press_array, (uint16_t) 10);
    1692:	50 e0       	ldi	r21, 0x00	; 0
    1694:	ce 01       	movw	r24, r28
    1696:	8b 5b       	subi	r24, 0xBB	; 187
    1698:	9f 4f       	sbci	r25, 0xFF	; 255
    169a:	1d dc       	rcall	.-1990   	; 0xed6 <rb32_init>
    169c:	0f 2e       	mov	r0, r31
		if(timer != 0){
			rate = packets / timer;
		}
		// Prints information
		//printf("5343,%i,%i,%i,%li,%i,%i,%li,%li,%li,%i,%i,%i,%i,%i,%i,%i",time,packets,(int16_t)alt*10,(int32_t) press,(int16_t) temp*10,volt,gps_t,gps_lat,gps_long,gps_alt,gps_sats,pitch,roll,rpm,state,angle)
		sprintf(str,format,timer,packets,(int16_t)(alt),(int32_t) press,(int16_t)(temp-273.15),(int16_t)volt,(int32_t)gps_t,(int32_t)gps_lat,(int32_t)gps_long,(int16_t)gps_alt,(int16_t)gps_sats,(int16_t)pitch,(int16_t)roll,(int16_t)rpm,state,(int16_t)angle); // Data Logging Test
    169e:	fb eb       	ldi	r31, 0xBB	; 187
    16a0:	af 2e       	mov	r10, r31
    16a2:	f0 e2       	ldi	r31, 0x20	; 32
    16a4:	bf 2e       	mov	r11, r31
    16a6:	f0 2d       	mov	r31, r0
    16a8:	0f 2e       	mov	r0, r31
    16aa:	f7 e8       	ldi	r31, 0x87	; 135
    16ac:	cf 2e       	mov	r12, r31
    16ae:	f1 e2       	ldi	r31, 0x21	; 33
    16b0:	df 2e       	mov	r13, r31
    16b2:	f0 2d       	mov	r31, r0
    16b4:	be 01       	movw	r22, r28
	
	char* format = "5343,%i,%i,%i,%li,%i,%i,%li,%li,%li,%i,%i,%i,%i,%i,%i,%i\n\0";
	
	while(1){
		// Check Sensors
		data_collect(&altitudes,&pressures);
    16b6:	6b 5b       	subi	r22, 0xBB	; 187
    16b8:	7f 4f       	sbci	r23, 0xFF	; 255
    16ba:	ce 01       	movw	r24, r28
    16bc:	45 96       	adiw	r24, 0x15	; 21
    16be:	a8 de       	rcall	.-688    	; 0x1410 <data_collect>
		
		// Checks State
		state_check();
    16c0:	1e df       	rcall	.-452    	; 0x14fe <state_check>
    16c2:	80 91 34 21 	lds	r24, 0x2134	; 0x802134 <state>
		
		//Gives each flight state their unique tasks
		switch(state){
    16c6:	84 30       	cpi	r24, 0x04	; 4
    16c8:	10 f0       	brcs	.+4      	; 0x16ce <main+0x7c>
    16ca:	10 92 34 21 	sts	0x2134, r1	; 0x802134 <state>
			case 2:
				break;
			case 3:
				break;
			default:
				state = 0;
    16ce:	00 91 2b 21 	lds	r16, 0x212B	; 0x80212b <packets>
				break;
		}	
		
		packets++;
    16d2:	10 91 2c 21 	lds	r17, 0x212C	; 0x80212c <packets+0x1>
    16d6:	0f 5f       	subi	r16, 0xFF	; 255
    16d8:	1f 4f       	sbci	r17, 0xFF	; 255
    16da:	00 93 2b 21 	sts	0x212B, r16	; 0x80212b <packets>
    16de:	10 93 2c 21 	sts	0x212C, r17	; 0x80212c <packets+0x1>
    16e2:	e0 90 2d 21 	lds	r14, 0x212D	; 0x80212d <timer>
		if(timer != 0){
    16e6:	f0 90 2e 21 	lds	r15, 0x212E	; 0x80212e <timer+0x1>
    16ea:	e1 14       	cp	r14, r1
    16ec:	f1 04       	cpc	r15, r1
    16ee:	39 f0       	breq	.+14     	; 0x16fe <main+0xac>
			rate = packets / timer;
    16f0:	c8 01       	movw	r24, r16
    16f2:	b7 01       	movw	r22, r14
    16f4:	f4 d4       	rcall	.+2536   	; 0x20de <__udivmodhi4>
    16f6:	60 93 15 20 	sts	0x2015, r22	; 0x802015 <rate>
    16fa:	70 93 16 20 	sts	0x2016, r23	; 0x802016 <rate+0x1>
    16fe:	60 91 f6 20 	lds	r22, 0x20F6	; 0x8020f6 <__data_end>
		}
		// Prints information
		//printf("5343,%i,%i,%i,%li,%i,%i,%li,%li,%li,%i,%i,%i,%i,%i,%i,%i",time,packets,(int16_t)alt*10,(int32_t) press,(int16_t) temp*10,volt,gps_t,gps_lat,gps_long,gps_alt,gps_sats,pitch,roll,rpm,state,angle)
		sprintf(str,format,timer,packets,(int16_t)(alt),(int32_t) press,(int16_t)(temp-273.15),(int16_t)volt,(int32_t)gps_t,(int32_t)gps_lat,(int32_t)gps_long,(int16_t)gps_alt,(int16_t)gps_sats,(int16_t)pitch,(int16_t)roll,(int16_t)rpm,state,(int16_t)angle); // Data Logging Test
    1702:	70 91 f7 20 	lds	r23, 0x20F7	; 0x8020f7 <__data_end+0x1>
    1706:	80 91 f8 20 	lds	r24, 0x20F8	; 0x8020f8 <__data_end+0x2>
    170a:	90 91 f9 20 	lds	r25, 0x20F9	; 0x8020f9 <__data_end+0x3>
    170e:	29 d2       	rcall	.+1106   	; 0x1b62 <__fixsfsi>
    1710:	7f 93       	push	r23
    1712:	6f 93       	push	r22
    1714:	80 91 34 21 	lds	r24, 0x2134	; 0x802134 <state>
    1718:	1f 92       	push	r1
    171a:	8f 93       	push	r24
    171c:	60 91 fa 20 	lds	r22, 0x20FA	; 0x8020fa <rpm>
    1720:	70 91 fb 20 	lds	r23, 0x20FB	; 0x8020fb <rpm+0x1>
    1724:	80 91 fc 20 	lds	r24, 0x20FC	; 0x8020fc <rpm+0x2>
    1728:	90 91 fd 20 	lds	r25, 0x20FD	; 0x8020fd <rpm+0x3>
    172c:	1a d2       	rcall	.+1076   	; 0x1b62 <__fixsfsi>
    172e:	7f 93       	push	r23
    1730:	6f 93       	push	r22
    1732:	60 91 fe 20 	lds	r22, 0x20FE	; 0x8020fe <roll>
    1736:	70 91 ff 20 	lds	r23, 0x20FF	; 0x8020ff <roll+0x1>
    173a:	80 91 00 21 	lds	r24, 0x2100	; 0x802100 <roll+0x2>
    173e:	90 91 01 21 	lds	r25, 0x2101	; 0x802101 <roll+0x3>
    1742:	0f d2       	rcall	.+1054   	; 0x1b62 <__fixsfsi>
    1744:	7f 93       	push	r23
    1746:	6f 93       	push	r22
    1748:	60 91 02 21 	lds	r22, 0x2102	; 0x802102 <pitch>
    174c:	70 91 03 21 	lds	r23, 0x2103	; 0x802103 <pitch+0x1>
    1750:	80 91 04 21 	lds	r24, 0x2104	; 0x802104 <pitch+0x2>
    1754:	90 91 05 21 	lds	r25, 0x2105	; 0x802105 <pitch+0x3>
    1758:	04 d2       	rcall	.+1032   	; 0x1b62 <__fixsfsi>
    175a:	7f 93       	push	r23
    175c:	6f 93       	push	r22
    175e:	80 91 06 21 	lds	r24, 0x2106	; 0x802106 <gps_sats>
    1762:	1f 92       	push	r1
    1764:	8f 93       	push	r24
    1766:	60 91 07 21 	lds	r22, 0x2107	; 0x802107 <gps_alt>
    176a:	70 91 08 21 	lds	r23, 0x2108	; 0x802108 <gps_alt+0x1>
    176e:	80 91 09 21 	lds	r24, 0x2109	; 0x802109 <gps_alt+0x2>
    1772:	90 91 0a 21 	lds	r25, 0x210A	; 0x80210a <gps_alt+0x3>
    1776:	f5 d1       	rcall	.+1002   	; 0x1b62 <__fixsfsi>
    1778:	7f 93       	push	r23
    177a:	6f 93       	push	r22
    177c:	60 91 0b 21 	lds	r22, 0x210B	; 0x80210b <gps_long>
    1780:	70 91 0c 21 	lds	r23, 0x210C	; 0x80210c <gps_long+0x1>
    1784:	80 91 0d 21 	lds	r24, 0x210D	; 0x80210d <gps_long+0x2>
    1788:	90 91 0e 21 	lds	r25, 0x210E	; 0x80210e <gps_long+0x3>
    178c:	ea d1       	rcall	.+980    	; 0x1b62 <__fixsfsi>
    178e:	9f 93       	push	r25
    1790:	8f 93       	push	r24
    1792:	7f 93       	push	r23
    1794:	6f 93       	push	r22
    1796:	60 91 0f 21 	lds	r22, 0x210F	; 0x80210f <gps_lat>
    179a:	70 91 10 21 	lds	r23, 0x2110	; 0x802110 <gps_lat+0x1>
    179e:	80 91 11 21 	lds	r24, 0x2111	; 0x802111 <gps_lat+0x2>
    17a2:	90 91 12 21 	lds	r25, 0x2112	; 0x802112 <gps_lat+0x3>
    17a6:	dd d1       	rcall	.+954    	; 0x1b62 <__fixsfsi>
    17a8:	9f 93       	push	r25
    17aa:	8f 93       	push	r24
    17ac:	7f 93       	push	r23
    17ae:	6f 93       	push	r22
    17b0:	60 91 13 21 	lds	r22, 0x2113	; 0x802113 <gps_t>
    17b4:	70 91 14 21 	lds	r23, 0x2114	; 0x802114 <gps_t+0x1>
    17b8:	80 91 15 21 	lds	r24, 0x2115	; 0x802115 <gps_t+0x2>
    17bc:	90 91 16 21 	lds	r25, 0x2116	; 0x802116 <gps_t+0x3>
    17c0:	d0 d1       	rcall	.+928    	; 0x1b62 <__fixsfsi>
    17c2:	9f 93       	push	r25
    17c4:	8f 93       	push	r24
    17c6:	7f 93       	push	r23
    17c8:	6f 93       	push	r22
    17ca:	60 91 1b 21 	lds	r22, 0x211B	; 0x80211b <volt>
    17ce:	70 91 1c 21 	lds	r23, 0x211C	; 0x80211c <volt+0x1>
    17d2:	80 91 1d 21 	lds	r24, 0x211D	; 0x80211d <volt+0x2>
    17d6:	90 91 1e 21 	lds	r25, 0x211E	; 0x80211e <volt+0x3>
    17da:	c3 d1       	rcall	.+902    	; 0x1b62 <__fixsfsi>
    17dc:	7f 93       	push	r23
    17de:	6f 93       	push	r22
    17e0:	23 e3       	ldi	r18, 0x33	; 51
    17e2:	33 e9       	ldi	r19, 0x93	; 147
    17e4:	48 e8       	ldi	r20, 0x88	; 136
    17e6:	53 e4       	ldi	r21, 0x43	; 67
    17e8:	60 91 23 21 	lds	r22, 0x2123	; 0x802123 <temp>
    17ec:	70 91 24 21 	lds	r23, 0x2124	; 0x802124 <temp+0x1>
    17f0:	80 91 25 21 	lds	r24, 0x2125	; 0x802125 <temp+0x2>
    17f4:	90 91 26 21 	lds	r25, 0x2126	; 0x802126 <temp+0x3>
    17f8:	e3 d0       	rcall	.+454    	; 0x19c0 <__subsf3>
    17fa:	b3 d1       	rcall	.+870    	; 0x1b62 <__fixsfsi>
    17fc:	7f 93       	push	r23
    17fe:	6f 93       	push	r22
    1800:	60 91 27 21 	lds	r22, 0x2127	; 0x802127 <press>
    1804:	70 91 28 21 	lds	r23, 0x2128	; 0x802128 <press+0x1>
    1808:	80 91 29 21 	lds	r24, 0x2129	; 0x802129 <press+0x2>
    180c:	90 91 2a 21 	lds	r25, 0x212A	; 0x80212a <press+0x3>
    1810:	a8 d1       	rcall	.+848    	; 0x1b62 <__fixsfsi>
    1812:	9f 93       	push	r25
    1814:	8f 93       	push	r24
    1816:	7f 93       	push	r23
    1818:	6f 93       	push	r22
    181a:	60 91 1f 21 	lds	r22, 0x211F	; 0x80211f <alt>
    181e:	70 91 20 21 	lds	r23, 0x2120	; 0x802120 <alt+0x1>
    1822:	80 91 21 21 	lds	r24, 0x2121	; 0x802121 <alt+0x2>
    1826:	90 91 22 21 	lds	r25, 0x2122	; 0x802122 <alt+0x3>
    182a:	9b d1       	rcall	.+822    	; 0x1b62 <__fixsfsi>
    182c:	7f 93       	push	r23
    182e:	6f 93       	push	r22
    1830:	1f 93       	push	r17
    1832:	0f 93       	push	r16
    1834:	ff 92       	push	r15
    1836:	ef 92       	push	r14
    1838:	bf 92       	push	r11
    183a:	af 92       	push	r10
    183c:	df 92       	push	r13
    183e:	cf 92       	push	r12
    1840:	ff d4       	rcall	.+2558   	; 0x2240 <sprintf>
    1842:	cd bf       	out	0x3d, r28	; 61
		//printf(str);
	}
    1844:	de bf       	out	0x3e, r29	; 62
    1846:	36 cf       	rjmp	.-404    	; 0x16b4 <main+0x62>

00001848 <__vector_47>:
    1848:	1f 92       	push	r1
	TCE0.CTRLA = 0x07; // divisor set to 1024
	TCE0.PER = 31249; // 1 Hz
	TCE0.INTCTRLA = TC_OVFINTLVL_LO_gc; // CCA int flag Lo level
}

ISR(TCE0_OVF_vect){
    184a:	0f 92       	push	r0
    184c:	0f b6       	in	r0, 0x3f	; 63
    184e:	0f 92       	push	r0
    1850:	11 24       	eor	r1, r1
    1852:	08 b6       	in	r0, 0x38	; 56
    1854:	0f 92       	push	r0
    1856:	18 be       	out	0x38, r1	; 56
    1858:	09 b6       	in	r0, 0x39	; 57
    185a:	0f 92       	push	r0
    185c:	19 be       	out	0x39, r1	; 57
    185e:	0b b6       	in	r0, 0x3b	; 59
    1860:	0f 92       	push	r0
    1862:	1b be       	out	0x3b, r1	; 59
    1864:	2f 93       	push	r18
    1866:	3f 93       	push	r19
    1868:	4f 93       	push	r20
    186a:	5f 93       	push	r21
    186c:	6f 93       	push	r22
    186e:	7f 93       	push	r23
    1870:	8f 93       	push	r24
    1872:	9f 93       	push	r25
    1874:	af 93       	push	r26
    1876:	bf 93       	push	r27
    1878:	ef 93       	push	r30
    187a:	ff 93       	push	r31
	timer++;
    187c:	80 91 2d 21 	lds	r24, 0x212D	; 0x80212d <timer>
    1880:	90 91 2e 21 	lds	r25, 0x212E	; 0x80212e <timer+0x1>
    1884:	01 96       	adiw	r24, 0x01	; 1
    1886:	80 93 2d 21 	sts	0x212D, r24	; 0x80212d <timer>
    188a:	90 93 2e 21 	sts	0x212E, r25	; 0x80212e <timer+0x1>
	printf(str);
    188e:	87 e8       	ldi	r24, 0x87	; 135
    1890:	91 e2       	ldi	r25, 0x21	; 33
    1892:	9f 93       	push	r25
    1894:	8f 93       	push	r24
    1896:	bc d4       	rcall	.+2424   	; 0x2210 <printf>
	XBEE_write(str);
    1898:	87 e8       	ldi	r24, 0x87	; 135
    189a:	91 e2       	ldi	r25, 0x21	; 33
    189c:	37 da       	rcall	.-2962   	; 0xd0c <XBEE_write>
}
    189e:	0f 90       	pop	r0
    18a0:	0f 90       	pop	r0
    18a2:	ff 91       	pop	r31
    18a4:	ef 91       	pop	r30
    18a6:	bf 91       	pop	r27
    18a8:	af 91       	pop	r26
    18aa:	9f 91       	pop	r25
    18ac:	8f 91       	pop	r24
    18ae:	7f 91       	pop	r23
    18b0:	6f 91       	pop	r22
    18b2:	5f 91       	pop	r21
    18b4:	4f 91       	pop	r20
    18b6:	3f 91       	pop	r19
    18b8:	2f 91       	pop	r18
    18ba:	0f 90       	pop	r0
    18bc:	0b be       	out	0x3b, r0	; 59
    18be:	0f 90       	pop	r0
    18c0:	09 be       	out	0x39, r0	; 57
    18c2:	0f 90       	pop	r0
    18c4:	08 be       	out	0x38, r0	; 56
    18c6:	0f 90       	pop	r0
    18c8:	0f be       	out	0x3f, r0	; 63
    18ca:	0f 90       	pop	r0
    18cc:	1f 90       	pop	r1
    18ce:	18 95       	reti

000018d0 <__vector_25>:

ISR(USARTC0_RXC_vect){
    18d0:	1f 92       	push	r1
    18d2:	0f 92       	push	r0
    18d4:	0f b6       	in	r0, 0x3f	; 63
    18d6:	0f 92       	push	r0
    18d8:	11 24       	eor	r1, r1
    18da:	08 b6       	in	r0, 0x38	; 56
    18dc:	0f 92       	push	r0
    18de:	18 be       	out	0x38, r1	; 56
    18e0:	09 b6       	in	r0, 0x39	; 57
    18e2:	0f 92       	push	r0
    18e4:	19 be       	out	0x39, r1	; 57
    18e6:	0b b6       	in	r0, 0x3b	; 59
    18e8:	0f 92       	push	r0
    18ea:	1b be       	out	0x3b, r1	; 59
    18ec:	2f 93       	push	r18
    18ee:	3f 93       	push	r19
    18f0:	4f 93       	push	r20
    18f2:	5f 93       	push	r21
    18f4:	6f 93       	push	r22
    18f6:	7f 93       	push	r23
    18f8:	8f 93       	push	r24
    18fa:	9f 93       	push	r25
    18fc:	af 93       	push	r26
    18fe:	bf 93       	push	r27
    1900:	ef 93       	push	r30
    1902:	ff 93       	push	r31
	uint8_t c = usart_getchar(XBEE_TERMINAL_SERIAL);
    1904:	80 ea       	ldi	r24, 0xA0	; 160
    1906:	98 e0       	ldi	r25, 0x08	; 8
    1908:	0e 94 81 03 	call	0x702	; 0x702 <usart_getchar>
	printf("%c", c);
    190c:	90 e0       	ldi	r25, 0x00	; 0
    190e:	93 d4       	rcall	.+2342   	; 0x2236 <putchar>
		case SEND_GPS_LOCATION:
			printf("SEND_GPS_LOCATION\n");
			break;
	}
	*/
}
    1910:	ff 91       	pop	r31
    1912:	ef 91       	pop	r30
    1914:	bf 91       	pop	r27
    1916:	af 91       	pop	r26
    1918:	9f 91       	pop	r25
    191a:	8f 91       	pop	r24
    191c:	7f 91       	pop	r23
    191e:	6f 91       	pop	r22
    1920:	5f 91       	pop	r21
    1922:	4f 91       	pop	r20
    1924:	3f 91       	pop	r19
    1926:	2f 91       	pop	r18
    1928:	0f 90       	pop	r0
    192a:	0b be       	out	0x3b, r0	; 59
    192c:	0f 90       	pop	r0
    192e:	09 be       	out	0x39, r0	; 57
    1930:	0f 90       	pop	r0
    1932:	08 be       	out	0x38, r0	; 56
    1934:	0f 90       	pop	r0
    1936:	0f be       	out	0x3f, r0	; 63
    1938:	0f 90       	pop	r0
    193a:	1f 90       	pop	r1
    193c:	18 95       	reti

0000193e <__vector_91>:


ISR(USARTD1_RXC_vect){
    193e:	1f 92       	push	r1
    1940:	0f 92       	push	r0
    1942:	0f b6       	in	r0, 0x3f	; 63
    1944:	0f 92       	push	r0
    1946:	11 24       	eor	r1, r1
    1948:	08 b6       	in	r0, 0x38	; 56
    194a:	0f 92       	push	r0
    194c:	18 be       	out	0x38, r1	; 56
    194e:	09 b6       	in	r0, 0x39	; 57
    1950:	0f 92       	push	r0
    1952:	19 be       	out	0x39, r1	; 57
    1954:	0b b6       	in	r0, 0x3b	; 59
    1956:	0f 92       	push	r0
    1958:	1b be       	out	0x3b, r1	; 59
    195a:	2f 93       	push	r18
    195c:	3f 93       	push	r19
    195e:	4f 93       	push	r20
    1960:	5f 93       	push	r21
    1962:	6f 93       	push	r22
    1964:	7f 93       	push	r23
    1966:	8f 93       	push	r24
    1968:	9f 93       	push	r25
    196a:	af 93       	push	r26
    196c:	bf 93       	push	r27
    196e:	cf 93       	push	r28
    1970:	ef 93       	push	r30
    1972:	ff 93       	push	r31
	uint8_t c = usart_getchar(GPS_TERMINAL_SERIAL);
    1974:	80 eb       	ldi	r24, 0xB0	; 176
    1976:	99 e0       	ldi	r25, 0x09	; 9
    1978:	0e 94 81 03 	call	0x702	; 0x702 <usart_getchar>
    197c:	c8 2f       	mov	r28, r24
	printf("%c", c);
    197e:	90 e0       	ldi	r25, 0x00	; 0
    1980:	5a d4       	rcall	.+2228   	; 0x2236 <putchar>
	
	if(c == (uint8_t) '$'){
    1982:	c4 32       	cpi	r28, 0x24	; 36
    1984:	29 f4       	brne	.+10     	; 0x1990 <__vector_91+0x52>
		writing = 1;
    1986:	81 e0       	ldi	r24, 0x01	; 1
    1988:	80 93 86 21 	sts	0x2186, r24	; 0x802186 <writing>
		pos = 0;
    198c:	10 92 85 21 	sts	0x2185, r1	; 0x802185 <pos>
	}
}
    1990:	ff 91       	pop	r31
    1992:	ef 91       	pop	r30
    1994:	cf 91       	pop	r28
    1996:	bf 91       	pop	r27
    1998:	af 91       	pop	r26
    199a:	9f 91       	pop	r25
    199c:	8f 91       	pop	r24
    199e:	7f 91       	pop	r23
    19a0:	6f 91       	pop	r22
    19a2:	5f 91       	pop	r21
    19a4:	4f 91       	pop	r20
    19a6:	3f 91       	pop	r19
    19a8:	2f 91       	pop	r18
    19aa:	0f 90       	pop	r0
    19ac:	0b be       	out	0x3b, r0	; 59
    19ae:	0f 90       	pop	r0
    19b0:	09 be       	out	0x39, r0	; 57
    19b2:	0f 90       	pop	r0
    19b4:	08 be       	out	0x38, r0	; 56
    19b6:	0f 90       	pop	r0
    19b8:	0f be       	out	0x3f, r0	; 63
    19ba:	0f 90       	pop	r0
    19bc:	1f 90       	pop	r1
    19be:	18 95       	reti

000019c0 <__subsf3>:
    19c0:	50 58       	subi	r21, 0x80	; 128

000019c2 <__addsf3>:
    19c2:	bb 27       	eor	r27, r27
    19c4:	aa 27       	eor	r26, r26
    19c6:	0e d0       	rcall	.+28     	; 0x19e4 <__addsf3x>
    19c8:	75 c1       	rjmp	.+746    	; 0x1cb4 <__fp_round>
    19ca:	66 d1       	rcall	.+716    	; 0x1c98 <__fp_pscA>
    19cc:	30 f0       	brcs	.+12     	; 0x19da <__addsf3+0x18>
    19ce:	6b d1       	rcall	.+726    	; 0x1ca6 <__fp_pscB>
    19d0:	20 f0       	brcs	.+8      	; 0x19da <__addsf3+0x18>
    19d2:	31 f4       	brne	.+12     	; 0x19e0 <__addsf3+0x1e>
    19d4:	9f 3f       	cpi	r25, 0xFF	; 255
    19d6:	11 f4       	brne	.+4      	; 0x19dc <__addsf3+0x1a>
    19d8:	1e f4       	brtc	.+6      	; 0x19e0 <__addsf3+0x1e>
    19da:	5b c1       	rjmp	.+694    	; 0x1c92 <__fp_nan>
    19dc:	0e f4       	brtc	.+2      	; 0x19e0 <__addsf3+0x1e>
    19de:	e0 95       	com	r30
    19e0:	e7 fb       	bst	r30, 7
    19e2:	51 c1       	rjmp	.+674    	; 0x1c86 <__fp_inf>

000019e4 <__addsf3x>:
    19e4:	e9 2f       	mov	r30, r25
    19e6:	77 d1       	rcall	.+750    	; 0x1cd6 <__fp_split3>
    19e8:	80 f3       	brcs	.-32     	; 0x19ca <__addsf3+0x8>
    19ea:	ba 17       	cp	r27, r26
    19ec:	62 07       	cpc	r22, r18
    19ee:	73 07       	cpc	r23, r19
    19f0:	84 07       	cpc	r24, r20
    19f2:	95 07       	cpc	r25, r21
    19f4:	18 f0       	brcs	.+6      	; 0x19fc <__addsf3x+0x18>
    19f6:	71 f4       	brne	.+28     	; 0x1a14 <__addsf3x+0x30>
    19f8:	9e f5       	brtc	.+102    	; 0x1a60 <__addsf3x+0x7c>
    19fa:	8f c1       	rjmp	.+798    	; 0x1d1a <__fp_zero>
    19fc:	0e f4       	brtc	.+2      	; 0x1a00 <__addsf3x+0x1c>
    19fe:	e0 95       	com	r30
    1a00:	0b 2e       	mov	r0, r27
    1a02:	ba 2f       	mov	r27, r26
    1a04:	a0 2d       	mov	r26, r0
    1a06:	0b 01       	movw	r0, r22
    1a08:	b9 01       	movw	r22, r18
    1a0a:	90 01       	movw	r18, r0
    1a0c:	0c 01       	movw	r0, r24
    1a0e:	ca 01       	movw	r24, r20
    1a10:	a0 01       	movw	r20, r0
    1a12:	11 24       	eor	r1, r1
    1a14:	ff 27       	eor	r31, r31
    1a16:	59 1b       	sub	r21, r25
    1a18:	99 f0       	breq	.+38     	; 0x1a40 <__addsf3x+0x5c>
    1a1a:	59 3f       	cpi	r21, 0xF9	; 249
    1a1c:	50 f4       	brcc	.+20     	; 0x1a32 <__addsf3x+0x4e>
    1a1e:	50 3e       	cpi	r21, 0xE0	; 224
    1a20:	68 f1       	brcs	.+90     	; 0x1a7c <__addsf3x+0x98>
    1a22:	1a 16       	cp	r1, r26
    1a24:	f0 40       	sbci	r31, 0x00	; 0
    1a26:	a2 2f       	mov	r26, r18
    1a28:	23 2f       	mov	r18, r19
    1a2a:	34 2f       	mov	r19, r20
    1a2c:	44 27       	eor	r20, r20
    1a2e:	58 5f       	subi	r21, 0xF8	; 248
    1a30:	f3 cf       	rjmp	.-26     	; 0x1a18 <__addsf3x+0x34>
    1a32:	46 95       	lsr	r20
    1a34:	37 95       	ror	r19
    1a36:	27 95       	ror	r18
    1a38:	a7 95       	ror	r26
    1a3a:	f0 40       	sbci	r31, 0x00	; 0
    1a3c:	53 95       	inc	r21
    1a3e:	c9 f7       	brne	.-14     	; 0x1a32 <__addsf3x+0x4e>
    1a40:	7e f4       	brtc	.+30     	; 0x1a60 <__addsf3x+0x7c>
    1a42:	1f 16       	cp	r1, r31
    1a44:	ba 0b       	sbc	r27, r26
    1a46:	62 0b       	sbc	r22, r18
    1a48:	73 0b       	sbc	r23, r19
    1a4a:	84 0b       	sbc	r24, r20
    1a4c:	ba f0       	brmi	.+46     	; 0x1a7c <__addsf3x+0x98>
    1a4e:	91 50       	subi	r25, 0x01	; 1
    1a50:	a1 f0       	breq	.+40     	; 0x1a7a <__addsf3x+0x96>
    1a52:	ff 0f       	add	r31, r31
    1a54:	bb 1f       	adc	r27, r27
    1a56:	66 1f       	adc	r22, r22
    1a58:	77 1f       	adc	r23, r23
    1a5a:	88 1f       	adc	r24, r24
    1a5c:	c2 f7       	brpl	.-16     	; 0x1a4e <__addsf3x+0x6a>
    1a5e:	0e c0       	rjmp	.+28     	; 0x1a7c <__addsf3x+0x98>
    1a60:	ba 0f       	add	r27, r26
    1a62:	62 1f       	adc	r22, r18
    1a64:	73 1f       	adc	r23, r19
    1a66:	84 1f       	adc	r24, r20
    1a68:	48 f4       	brcc	.+18     	; 0x1a7c <__addsf3x+0x98>
    1a6a:	87 95       	ror	r24
    1a6c:	77 95       	ror	r23
    1a6e:	67 95       	ror	r22
    1a70:	b7 95       	ror	r27
    1a72:	f7 95       	ror	r31
    1a74:	9e 3f       	cpi	r25, 0xFE	; 254
    1a76:	08 f0       	brcs	.+2      	; 0x1a7a <__addsf3x+0x96>
    1a78:	b3 cf       	rjmp	.-154    	; 0x19e0 <__addsf3+0x1e>
    1a7a:	93 95       	inc	r25
    1a7c:	88 0f       	add	r24, r24
    1a7e:	08 f0       	brcs	.+2      	; 0x1a82 <__addsf3x+0x9e>
    1a80:	99 27       	eor	r25, r25
    1a82:	ee 0f       	add	r30, r30
    1a84:	97 95       	ror	r25
    1a86:	87 95       	ror	r24
    1a88:	08 95       	ret

00001a8a <__cmpsf2>:
    1a8a:	d9 d0       	rcall	.+434    	; 0x1c3e <__fp_cmp>
    1a8c:	08 f4       	brcc	.+2      	; 0x1a90 <__cmpsf2+0x6>
    1a8e:	81 e0       	ldi	r24, 0x01	; 1
    1a90:	08 95       	ret

00001a92 <__divsf3>:
    1a92:	0c d0       	rcall	.+24     	; 0x1aac <__divsf3x>
    1a94:	0f c1       	rjmp	.+542    	; 0x1cb4 <__fp_round>
    1a96:	07 d1       	rcall	.+526    	; 0x1ca6 <__fp_pscB>
    1a98:	40 f0       	brcs	.+16     	; 0x1aaa <__divsf3+0x18>
    1a9a:	fe d0       	rcall	.+508    	; 0x1c98 <__fp_pscA>
    1a9c:	30 f0       	brcs	.+12     	; 0x1aaa <__divsf3+0x18>
    1a9e:	21 f4       	brne	.+8      	; 0x1aa8 <__divsf3+0x16>
    1aa0:	5f 3f       	cpi	r21, 0xFF	; 255
    1aa2:	19 f0       	breq	.+6      	; 0x1aaa <__divsf3+0x18>
    1aa4:	f0 c0       	rjmp	.+480    	; 0x1c86 <__fp_inf>
    1aa6:	51 11       	cpse	r21, r1
    1aa8:	39 c1       	rjmp	.+626    	; 0x1d1c <__fp_szero>
    1aaa:	f3 c0       	rjmp	.+486    	; 0x1c92 <__fp_nan>

00001aac <__divsf3x>:
    1aac:	14 d1       	rcall	.+552    	; 0x1cd6 <__fp_split3>
    1aae:	98 f3       	brcs	.-26     	; 0x1a96 <__divsf3+0x4>

00001ab0 <__divsf3_pse>:
    1ab0:	99 23       	and	r25, r25
    1ab2:	c9 f3       	breq	.-14     	; 0x1aa6 <__divsf3+0x14>
    1ab4:	55 23       	and	r21, r21
    1ab6:	b1 f3       	breq	.-20     	; 0x1aa4 <__divsf3+0x12>
    1ab8:	95 1b       	sub	r25, r21
    1aba:	55 0b       	sbc	r21, r21
    1abc:	bb 27       	eor	r27, r27
    1abe:	aa 27       	eor	r26, r26
    1ac0:	62 17       	cp	r22, r18
    1ac2:	73 07       	cpc	r23, r19
    1ac4:	84 07       	cpc	r24, r20
    1ac6:	38 f0       	brcs	.+14     	; 0x1ad6 <__divsf3_pse+0x26>
    1ac8:	9f 5f       	subi	r25, 0xFF	; 255
    1aca:	5f 4f       	sbci	r21, 0xFF	; 255
    1acc:	22 0f       	add	r18, r18
    1ace:	33 1f       	adc	r19, r19
    1ad0:	44 1f       	adc	r20, r20
    1ad2:	aa 1f       	adc	r26, r26
    1ad4:	a9 f3       	breq	.-22     	; 0x1ac0 <__divsf3_pse+0x10>
    1ad6:	33 d0       	rcall	.+102    	; 0x1b3e <__divsf3_pse+0x8e>
    1ad8:	0e 2e       	mov	r0, r30
    1ada:	3a f0       	brmi	.+14     	; 0x1aea <__divsf3_pse+0x3a>
    1adc:	e0 e8       	ldi	r30, 0x80	; 128
    1ade:	30 d0       	rcall	.+96     	; 0x1b40 <__divsf3_pse+0x90>
    1ae0:	91 50       	subi	r25, 0x01	; 1
    1ae2:	50 40       	sbci	r21, 0x00	; 0
    1ae4:	e6 95       	lsr	r30
    1ae6:	00 1c       	adc	r0, r0
    1ae8:	ca f7       	brpl	.-14     	; 0x1adc <__divsf3_pse+0x2c>
    1aea:	29 d0       	rcall	.+82     	; 0x1b3e <__divsf3_pse+0x8e>
    1aec:	fe 2f       	mov	r31, r30
    1aee:	27 d0       	rcall	.+78     	; 0x1b3e <__divsf3_pse+0x8e>
    1af0:	66 0f       	add	r22, r22
    1af2:	77 1f       	adc	r23, r23
    1af4:	88 1f       	adc	r24, r24
    1af6:	bb 1f       	adc	r27, r27
    1af8:	26 17       	cp	r18, r22
    1afa:	37 07       	cpc	r19, r23
    1afc:	48 07       	cpc	r20, r24
    1afe:	ab 07       	cpc	r26, r27
    1b00:	b0 e8       	ldi	r27, 0x80	; 128
    1b02:	09 f0       	breq	.+2      	; 0x1b06 <__divsf3_pse+0x56>
    1b04:	bb 0b       	sbc	r27, r27
    1b06:	80 2d       	mov	r24, r0
    1b08:	bf 01       	movw	r22, r30
    1b0a:	ff 27       	eor	r31, r31
    1b0c:	93 58       	subi	r25, 0x83	; 131
    1b0e:	5f 4f       	sbci	r21, 0xFF	; 255
    1b10:	2a f0       	brmi	.+10     	; 0x1b1c <__divsf3_pse+0x6c>
    1b12:	9e 3f       	cpi	r25, 0xFE	; 254
    1b14:	51 05       	cpc	r21, r1
    1b16:	68 f0       	brcs	.+26     	; 0x1b32 <__divsf3_pse+0x82>
    1b18:	b6 c0       	rjmp	.+364    	; 0x1c86 <__fp_inf>
    1b1a:	00 c1       	rjmp	.+512    	; 0x1d1c <__fp_szero>
    1b1c:	5f 3f       	cpi	r21, 0xFF	; 255
    1b1e:	ec f3       	brlt	.-6      	; 0x1b1a <__divsf3_pse+0x6a>
    1b20:	98 3e       	cpi	r25, 0xE8	; 232
    1b22:	dc f3       	brlt	.-10     	; 0x1b1a <__divsf3_pse+0x6a>
    1b24:	86 95       	lsr	r24
    1b26:	77 95       	ror	r23
    1b28:	67 95       	ror	r22
    1b2a:	b7 95       	ror	r27
    1b2c:	f7 95       	ror	r31
    1b2e:	9f 5f       	subi	r25, 0xFF	; 255
    1b30:	c9 f7       	brne	.-14     	; 0x1b24 <__divsf3_pse+0x74>
    1b32:	88 0f       	add	r24, r24
    1b34:	91 1d       	adc	r25, r1
    1b36:	96 95       	lsr	r25
    1b38:	87 95       	ror	r24
    1b3a:	97 f9       	bld	r25, 7
    1b3c:	08 95       	ret
    1b3e:	e1 e0       	ldi	r30, 0x01	; 1
    1b40:	66 0f       	add	r22, r22
    1b42:	77 1f       	adc	r23, r23
    1b44:	88 1f       	adc	r24, r24
    1b46:	bb 1f       	adc	r27, r27
    1b48:	62 17       	cp	r22, r18
    1b4a:	73 07       	cpc	r23, r19
    1b4c:	84 07       	cpc	r24, r20
    1b4e:	ba 07       	cpc	r27, r26
    1b50:	20 f0       	brcs	.+8      	; 0x1b5a <__divsf3_pse+0xaa>
    1b52:	62 1b       	sub	r22, r18
    1b54:	73 0b       	sbc	r23, r19
    1b56:	84 0b       	sbc	r24, r20
    1b58:	ba 0b       	sbc	r27, r26
    1b5a:	ee 1f       	adc	r30, r30
    1b5c:	88 f7       	brcc	.-30     	; 0x1b40 <__divsf3_pse+0x90>
    1b5e:	e0 95       	com	r30
    1b60:	08 95       	ret

00001b62 <__fixsfsi>:
    1b62:	04 d0       	rcall	.+8      	; 0x1b6c <__fixunssfsi>
    1b64:	68 94       	set
    1b66:	b1 11       	cpse	r27, r1
    1b68:	d9 c0       	rjmp	.+434    	; 0x1d1c <__fp_szero>
    1b6a:	08 95       	ret

00001b6c <__fixunssfsi>:
    1b6c:	bc d0       	rcall	.+376    	; 0x1ce6 <__fp_splitA>
    1b6e:	88 f0       	brcs	.+34     	; 0x1b92 <__fixunssfsi+0x26>
    1b70:	9f 57       	subi	r25, 0x7F	; 127
    1b72:	90 f0       	brcs	.+36     	; 0x1b98 <__fixunssfsi+0x2c>
    1b74:	b9 2f       	mov	r27, r25
    1b76:	99 27       	eor	r25, r25
    1b78:	b7 51       	subi	r27, 0x17	; 23
    1b7a:	a0 f0       	brcs	.+40     	; 0x1ba4 <__fixunssfsi+0x38>
    1b7c:	d1 f0       	breq	.+52     	; 0x1bb2 <__fixunssfsi+0x46>
    1b7e:	66 0f       	add	r22, r22
    1b80:	77 1f       	adc	r23, r23
    1b82:	88 1f       	adc	r24, r24
    1b84:	99 1f       	adc	r25, r25
    1b86:	1a f0       	brmi	.+6      	; 0x1b8e <__fixunssfsi+0x22>
    1b88:	ba 95       	dec	r27
    1b8a:	c9 f7       	brne	.-14     	; 0x1b7e <__fixunssfsi+0x12>
    1b8c:	12 c0       	rjmp	.+36     	; 0x1bb2 <__fixunssfsi+0x46>
    1b8e:	b1 30       	cpi	r27, 0x01	; 1
    1b90:	81 f0       	breq	.+32     	; 0x1bb2 <__fixunssfsi+0x46>
    1b92:	c3 d0       	rcall	.+390    	; 0x1d1a <__fp_zero>
    1b94:	b1 e0       	ldi	r27, 0x01	; 1
    1b96:	08 95       	ret
    1b98:	c0 c0       	rjmp	.+384    	; 0x1d1a <__fp_zero>
    1b9a:	67 2f       	mov	r22, r23
    1b9c:	78 2f       	mov	r23, r24
    1b9e:	88 27       	eor	r24, r24
    1ba0:	b8 5f       	subi	r27, 0xF8	; 248
    1ba2:	39 f0       	breq	.+14     	; 0x1bb2 <__fixunssfsi+0x46>
    1ba4:	b9 3f       	cpi	r27, 0xF9	; 249
    1ba6:	cc f3       	brlt	.-14     	; 0x1b9a <__fixunssfsi+0x2e>
    1ba8:	86 95       	lsr	r24
    1baa:	77 95       	ror	r23
    1bac:	67 95       	ror	r22
    1bae:	b3 95       	inc	r27
    1bb0:	d9 f7       	brne	.-10     	; 0x1ba8 <__fixunssfsi+0x3c>
    1bb2:	3e f4       	brtc	.+14     	; 0x1bc2 <__fixunssfsi+0x56>
    1bb4:	90 95       	com	r25
    1bb6:	80 95       	com	r24
    1bb8:	70 95       	com	r23
    1bba:	61 95       	neg	r22
    1bbc:	7f 4f       	sbci	r23, 0xFF	; 255
    1bbe:	8f 4f       	sbci	r24, 0xFF	; 255
    1bc0:	9f 4f       	sbci	r25, 0xFF	; 255
    1bc2:	08 95       	ret

00001bc4 <__floatunsisf>:
    1bc4:	e8 94       	clt
    1bc6:	09 c0       	rjmp	.+18     	; 0x1bda <__floatsisf+0x12>

00001bc8 <__floatsisf>:
    1bc8:	97 fb       	bst	r25, 7
    1bca:	3e f4       	brtc	.+14     	; 0x1bda <__floatsisf+0x12>
    1bcc:	90 95       	com	r25
    1bce:	80 95       	com	r24
    1bd0:	70 95       	com	r23
    1bd2:	61 95       	neg	r22
    1bd4:	7f 4f       	sbci	r23, 0xFF	; 255
    1bd6:	8f 4f       	sbci	r24, 0xFF	; 255
    1bd8:	9f 4f       	sbci	r25, 0xFF	; 255
    1bda:	99 23       	and	r25, r25
    1bdc:	a9 f0       	breq	.+42     	; 0x1c08 <__floatsisf+0x40>
    1bde:	f9 2f       	mov	r31, r25
    1be0:	96 e9       	ldi	r25, 0x96	; 150
    1be2:	bb 27       	eor	r27, r27
    1be4:	93 95       	inc	r25
    1be6:	f6 95       	lsr	r31
    1be8:	87 95       	ror	r24
    1bea:	77 95       	ror	r23
    1bec:	67 95       	ror	r22
    1bee:	b7 95       	ror	r27
    1bf0:	f1 11       	cpse	r31, r1
    1bf2:	f8 cf       	rjmp	.-16     	; 0x1be4 <__floatsisf+0x1c>
    1bf4:	fa f4       	brpl	.+62     	; 0x1c34 <__floatsisf+0x6c>
    1bf6:	bb 0f       	add	r27, r27
    1bf8:	11 f4       	brne	.+4      	; 0x1bfe <__floatsisf+0x36>
    1bfa:	60 ff       	sbrs	r22, 0
    1bfc:	1b c0       	rjmp	.+54     	; 0x1c34 <__floatsisf+0x6c>
    1bfe:	6f 5f       	subi	r22, 0xFF	; 255
    1c00:	7f 4f       	sbci	r23, 0xFF	; 255
    1c02:	8f 4f       	sbci	r24, 0xFF	; 255
    1c04:	9f 4f       	sbci	r25, 0xFF	; 255
    1c06:	16 c0       	rjmp	.+44     	; 0x1c34 <__floatsisf+0x6c>
    1c08:	88 23       	and	r24, r24
    1c0a:	11 f0       	breq	.+4      	; 0x1c10 <__floatsisf+0x48>
    1c0c:	96 e9       	ldi	r25, 0x96	; 150
    1c0e:	11 c0       	rjmp	.+34     	; 0x1c32 <__floatsisf+0x6a>
    1c10:	77 23       	and	r23, r23
    1c12:	21 f0       	breq	.+8      	; 0x1c1c <__floatsisf+0x54>
    1c14:	9e e8       	ldi	r25, 0x8E	; 142
    1c16:	87 2f       	mov	r24, r23
    1c18:	76 2f       	mov	r23, r22
    1c1a:	05 c0       	rjmp	.+10     	; 0x1c26 <__floatsisf+0x5e>
    1c1c:	66 23       	and	r22, r22
    1c1e:	71 f0       	breq	.+28     	; 0x1c3c <__floatsisf+0x74>
    1c20:	96 e8       	ldi	r25, 0x86	; 134
    1c22:	86 2f       	mov	r24, r22
    1c24:	70 e0       	ldi	r23, 0x00	; 0
    1c26:	60 e0       	ldi	r22, 0x00	; 0
    1c28:	2a f0       	brmi	.+10     	; 0x1c34 <__floatsisf+0x6c>
    1c2a:	9a 95       	dec	r25
    1c2c:	66 0f       	add	r22, r22
    1c2e:	77 1f       	adc	r23, r23
    1c30:	88 1f       	adc	r24, r24
    1c32:	da f7       	brpl	.-10     	; 0x1c2a <__floatsisf+0x62>
    1c34:	88 0f       	add	r24, r24
    1c36:	96 95       	lsr	r25
    1c38:	87 95       	ror	r24
    1c3a:	97 f9       	bld	r25, 7
    1c3c:	08 95       	ret

00001c3e <__fp_cmp>:
    1c3e:	99 0f       	add	r25, r25
    1c40:	00 08       	sbc	r0, r0
    1c42:	55 0f       	add	r21, r21
    1c44:	aa 0b       	sbc	r26, r26
    1c46:	e0 e8       	ldi	r30, 0x80	; 128
    1c48:	fe ef       	ldi	r31, 0xFE	; 254
    1c4a:	16 16       	cp	r1, r22
    1c4c:	17 06       	cpc	r1, r23
    1c4e:	e8 07       	cpc	r30, r24
    1c50:	f9 07       	cpc	r31, r25
    1c52:	c0 f0       	brcs	.+48     	; 0x1c84 <__fp_cmp+0x46>
    1c54:	12 16       	cp	r1, r18
    1c56:	13 06       	cpc	r1, r19
    1c58:	e4 07       	cpc	r30, r20
    1c5a:	f5 07       	cpc	r31, r21
    1c5c:	98 f0       	brcs	.+38     	; 0x1c84 <__fp_cmp+0x46>
    1c5e:	62 1b       	sub	r22, r18
    1c60:	73 0b       	sbc	r23, r19
    1c62:	84 0b       	sbc	r24, r20
    1c64:	95 0b       	sbc	r25, r21
    1c66:	39 f4       	brne	.+14     	; 0x1c76 <__fp_cmp+0x38>
    1c68:	0a 26       	eor	r0, r26
    1c6a:	61 f0       	breq	.+24     	; 0x1c84 <__fp_cmp+0x46>
    1c6c:	23 2b       	or	r18, r19
    1c6e:	24 2b       	or	r18, r20
    1c70:	25 2b       	or	r18, r21
    1c72:	21 f4       	brne	.+8      	; 0x1c7c <__fp_cmp+0x3e>
    1c74:	08 95       	ret
    1c76:	0a 26       	eor	r0, r26
    1c78:	09 f4       	brne	.+2      	; 0x1c7c <__fp_cmp+0x3e>
    1c7a:	a1 40       	sbci	r26, 0x01	; 1
    1c7c:	a6 95       	lsr	r26
    1c7e:	8f ef       	ldi	r24, 0xFF	; 255
    1c80:	81 1d       	adc	r24, r1
    1c82:	81 1d       	adc	r24, r1
    1c84:	08 95       	ret

00001c86 <__fp_inf>:
    1c86:	97 f9       	bld	r25, 7
    1c88:	9f 67       	ori	r25, 0x7F	; 127
    1c8a:	80 e8       	ldi	r24, 0x80	; 128
    1c8c:	70 e0       	ldi	r23, 0x00	; 0
    1c8e:	60 e0       	ldi	r22, 0x00	; 0
    1c90:	08 95       	ret

00001c92 <__fp_nan>:
    1c92:	9f ef       	ldi	r25, 0xFF	; 255
    1c94:	80 ec       	ldi	r24, 0xC0	; 192
    1c96:	08 95       	ret

00001c98 <__fp_pscA>:
    1c98:	00 24       	eor	r0, r0
    1c9a:	0a 94       	dec	r0
    1c9c:	16 16       	cp	r1, r22
    1c9e:	17 06       	cpc	r1, r23
    1ca0:	18 06       	cpc	r1, r24
    1ca2:	09 06       	cpc	r0, r25
    1ca4:	08 95       	ret

00001ca6 <__fp_pscB>:
    1ca6:	00 24       	eor	r0, r0
    1ca8:	0a 94       	dec	r0
    1caa:	12 16       	cp	r1, r18
    1cac:	13 06       	cpc	r1, r19
    1cae:	14 06       	cpc	r1, r20
    1cb0:	05 06       	cpc	r0, r21
    1cb2:	08 95       	ret

00001cb4 <__fp_round>:
    1cb4:	09 2e       	mov	r0, r25
    1cb6:	03 94       	inc	r0
    1cb8:	00 0c       	add	r0, r0
    1cba:	11 f4       	brne	.+4      	; 0x1cc0 <__fp_round+0xc>
    1cbc:	88 23       	and	r24, r24
    1cbe:	52 f0       	brmi	.+20     	; 0x1cd4 <__fp_round+0x20>
    1cc0:	bb 0f       	add	r27, r27
    1cc2:	40 f4       	brcc	.+16     	; 0x1cd4 <__fp_round+0x20>
    1cc4:	bf 2b       	or	r27, r31
    1cc6:	11 f4       	brne	.+4      	; 0x1ccc <__fp_round+0x18>
    1cc8:	60 ff       	sbrs	r22, 0
    1cca:	04 c0       	rjmp	.+8      	; 0x1cd4 <__fp_round+0x20>
    1ccc:	6f 5f       	subi	r22, 0xFF	; 255
    1cce:	7f 4f       	sbci	r23, 0xFF	; 255
    1cd0:	8f 4f       	sbci	r24, 0xFF	; 255
    1cd2:	9f 4f       	sbci	r25, 0xFF	; 255
    1cd4:	08 95       	ret

00001cd6 <__fp_split3>:
    1cd6:	57 fd       	sbrc	r21, 7
    1cd8:	90 58       	subi	r25, 0x80	; 128
    1cda:	44 0f       	add	r20, r20
    1cdc:	55 1f       	adc	r21, r21
    1cde:	59 f0       	breq	.+22     	; 0x1cf6 <__fp_splitA+0x10>
    1ce0:	5f 3f       	cpi	r21, 0xFF	; 255
    1ce2:	71 f0       	breq	.+28     	; 0x1d00 <__fp_splitA+0x1a>
    1ce4:	47 95       	ror	r20

00001ce6 <__fp_splitA>:
    1ce6:	88 0f       	add	r24, r24
    1ce8:	97 fb       	bst	r25, 7
    1cea:	99 1f       	adc	r25, r25
    1cec:	61 f0       	breq	.+24     	; 0x1d06 <__fp_splitA+0x20>
    1cee:	9f 3f       	cpi	r25, 0xFF	; 255
    1cf0:	79 f0       	breq	.+30     	; 0x1d10 <__fp_splitA+0x2a>
    1cf2:	87 95       	ror	r24
    1cf4:	08 95       	ret
    1cf6:	12 16       	cp	r1, r18
    1cf8:	13 06       	cpc	r1, r19
    1cfa:	14 06       	cpc	r1, r20
    1cfc:	55 1f       	adc	r21, r21
    1cfe:	f2 cf       	rjmp	.-28     	; 0x1ce4 <__fp_split3+0xe>
    1d00:	46 95       	lsr	r20
    1d02:	f1 df       	rcall	.-30     	; 0x1ce6 <__fp_splitA>
    1d04:	08 c0       	rjmp	.+16     	; 0x1d16 <__fp_splitA+0x30>
    1d06:	16 16       	cp	r1, r22
    1d08:	17 06       	cpc	r1, r23
    1d0a:	18 06       	cpc	r1, r24
    1d0c:	99 1f       	adc	r25, r25
    1d0e:	f1 cf       	rjmp	.-30     	; 0x1cf2 <__fp_splitA+0xc>
    1d10:	86 95       	lsr	r24
    1d12:	71 05       	cpc	r23, r1
    1d14:	61 05       	cpc	r22, r1
    1d16:	08 94       	sec
    1d18:	08 95       	ret

00001d1a <__fp_zero>:
    1d1a:	e8 94       	clt

00001d1c <__fp_szero>:
    1d1c:	bb 27       	eor	r27, r27
    1d1e:	66 27       	eor	r22, r22
    1d20:	77 27       	eor	r23, r23
    1d22:	cb 01       	movw	r24, r22
    1d24:	97 f9       	bld	r25, 7
    1d26:	08 95       	ret

00001d28 <__gesf2>:
    1d28:	8a df       	rcall	.-236    	; 0x1c3e <__fp_cmp>
    1d2a:	08 f4       	brcc	.+2      	; 0x1d2e <__gesf2+0x6>
    1d2c:	8f ef       	ldi	r24, 0xFF	; 255
    1d2e:	08 95       	ret

00001d30 <__mulsf3>:
    1d30:	0b d0       	rcall	.+22     	; 0x1d48 <__mulsf3x>
    1d32:	c0 cf       	rjmp	.-128    	; 0x1cb4 <__fp_round>
    1d34:	b1 df       	rcall	.-158    	; 0x1c98 <__fp_pscA>
    1d36:	28 f0       	brcs	.+10     	; 0x1d42 <__mulsf3+0x12>
    1d38:	b6 df       	rcall	.-148    	; 0x1ca6 <__fp_pscB>
    1d3a:	18 f0       	brcs	.+6      	; 0x1d42 <__mulsf3+0x12>
    1d3c:	95 23       	and	r25, r21
    1d3e:	09 f0       	breq	.+2      	; 0x1d42 <__mulsf3+0x12>
    1d40:	a2 cf       	rjmp	.-188    	; 0x1c86 <__fp_inf>
    1d42:	a7 cf       	rjmp	.-178    	; 0x1c92 <__fp_nan>
    1d44:	11 24       	eor	r1, r1
    1d46:	ea cf       	rjmp	.-44     	; 0x1d1c <__fp_szero>

00001d48 <__mulsf3x>:
    1d48:	c6 df       	rcall	.-116    	; 0x1cd6 <__fp_split3>
    1d4a:	a0 f3       	brcs	.-24     	; 0x1d34 <__mulsf3+0x4>

00001d4c <__mulsf3_pse>:
    1d4c:	95 9f       	mul	r25, r21
    1d4e:	d1 f3       	breq	.-12     	; 0x1d44 <__mulsf3+0x14>
    1d50:	95 0f       	add	r25, r21
    1d52:	50 e0       	ldi	r21, 0x00	; 0
    1d54:	55 1f       	adc	r21, r21
    1d56:	62 9f       	mul	r22, r18
    1d58:	f0 01       	movw	r30, r0
    1d5a:	72 9f       	mul	r23, r18
    1d5c:	bb 27       	eor	r27, r27
    1d5e:	f0 0d       	add	r31, r0
    1d60:	b1 1d       	adc	r27, r1
    1d62:	63 9f       	mul	r22, r19
    1d64:	aa 27       	eor	r26, r26
    1d66:	f0 0d       	add	r31, r0
    1d68:	b1 1d       	adc	r27, r1
    1d6a:	aa 1f       	adc	r26, r26
    1d6c:	64 9f       	mul	r22, r20
    1d6e:	66 27       	eor	r22, r22
    1d70:	b0 0d       	add	r27, r0
    1d72:	a1 1d       	adc	r26, r1
    1d74:	66 1f       	adc	r22, r22
    1d76:	82 9f       	mul	r24, r18
    1d78:	22 27       	eor	r18, r18
    1d7a:	b0 0d       	add	r27, r0
    1d7c:	a1 1d       	adc	r26, r1
    1d7e:	62 1f       	adc	r22, r18
    1d80:	73 9f       	mul	r23, r19
    1d82:	b0 0d       	add	r27, r0
    1d84:	a1 1d       	adc	r26, r1
    1d86:	62 1f       	adc	r22, r18
    1d88:	83 9f       	mul	r24, r19
    1d8a:	a0 0d       	add	r26, r0
    1d8c:	61 1d       	adc	r22, r1
    1d8e:	22 1f       	adc	r18, r18
    1d90:	74 9f       	mul	r23, r20
    1d92:	33 27       	eor	r19, r19
    1d94:	a0 0d       	add	r26, r0
    1d96:	61 1d       	adc	r22, r1
    1d98:	23 1f       	adc	r18, r19
    1d9a:	84 9f       	mul	r24, r20
    1d9c:	60 0d       	add	r22, r0
    1d9e:	21 1d       	adc	r18, r1
    1da0:	82 2f       	mov	r24, r18
    1da2:	76 2f       	mov	r23, r22
    1da4:	6a 2f       	mov	r22, r26
    1da6:	11 24       	eor	r1, r1
    1da8:	9f 57       	subi	r25, 0x7F	; 127
    1daa:	50 40       	sbci	r21, 0x00	; 0
    1dac:	8a f0       	brmi	.+34     	; 0x1dd0 <__mulsf3_pse+0x84>
    1dae:	e1 f0       	breq	.+56     	; 0x1de8 <__mulsf3_pse+0x9c>
    1db0:	88 23       	and	r24, r24
    1db2:	4a f0       	brmi	.+18     	; 0x1dc6 <__mulsf3_pse+0x7a>
    1db4:	ee 0f       	add	r30, r30
    1db6:	ff 1f       	adc	r31, r31
    1db8:	bb 1f       	adc	r27, r27
    1dba:	66 1f       	adc	r22, r22
    1dbc:	77 1f       	adc	r23, r23
    1dbe:	88 1f       	adc	r24, r24
    1dc0:	91 50       	subi	r25, 0x01	; 1
    1dc2:	50 40       	sbci	r21, 0x00	; 0
    1dc4:	a9 f7       	brne	.-22     	; 0x1db0 <__mulsf3_pse+0x64>
    1dc6:	9e 3f       	cpi	r25, 0xFE	; 254
    1dc8:	51 05       	cpc	r21, r1
    1dca:	70 f0       	brcs	.+28     	; 0x1de8 <__mulsf3_pse+0x9c>
    1dcc:	5c cf       	rjmp	.-328    	; 0x1c86 <__fp_inf>
    1dce:	a6 cf       	rjmp	.-180    	; 0x1d1c <__fp_szero>
    1dd0:	5f 3f       	cpi	r21, 0xFF	; 255
    1dd2:	ec f3       	brlt	.-6      	; 0x1dce <__mulsf3_pse+0x82>
    1dd4:	98 3e       	cpi	r25, 0xE8	; 232
    1dd6:	dc f3       	brlt	.-10     	; 0x1dce <__mulsf3_pse+0x82>
    1dd8:	86 95       	lsr	r24
    1dda:	77 95       	ror	r23
    1ddc:	67 95       	ror	r22
    1dde:	b7 95       	ror	r27
    1de0:	f7 95       	ror	r31
    1de2:	e7 95       	ror	r30
    1de4:	9f 5f       	subi	r25, 0xFF	; 255
    1de6:	c1 f7       	brne	.-16     	; 0x1dd8 <__mulsf3_pse+0x8c>
    1de8:	fe 2b       	or	r31, r30
    1dea:	88 0f       	add	r24, r24
    1dec:	91 1d       	adc	r25, r1
    1dee:	96 95       	lsr	r25
    1df0:	87 95       	ror	r24
    1df2:	97 f9       	bld	r25, 7
    1df4:	08 95       	ret

00001df6 <pow>:
    1df6:	fa 01       	movw	r30, r20
    1df8:	ee 0f       	add	r30, r30
    1dfa:	ff 1f       	adc	r31, r31
    1dfc:	30 96       	adiw	r30, 0x00	; 0
    1dfe:	21 05       	cpc	r18, r1
    1e00:	31 05       	cpc	r19, r1
    1e02:	99 f1       	breq	.+102    	; 0x1e6a <pow+0x74>
    1e04:	61 15       	cp	r22, r1
    1e06:	71 05       	cpc	r23, r1
    1e08:	61 f4       	brne	.+24     	; 0x1e22 <pow+0x2c>
    1e0a:	80 38       	cpi	r24, 0x80	; 128
    1e0c:	bf e3       	ldi	r27, 0x3F	; 63
    1e0e:	9b 07       	cpc	r25, r27
    1e10:	49 f1       	breq	.+82     	; 0x1e64 <pow+0x6e>
    1e12:	68 94       	set
    1e14:	90 38       	cpi	r25, 0x80	; 128
    1e16:	81 05       	cpc	r24, r1
    1e18:	61 f0       	breq	.+24     	; 0x1e32 <pow+0x3c>
    1e1a:	80 38       	cpi	r24, 0x80	; 128
    1e1c:	bf ef       	ldi	r27, 0xFF	; 255
    1e1e:	9b 07       	cpc	r25, r27
    1e20:	41 f0       	breq	.+16     	; 0x1e32 <pow+0x3c>
    1e22:	99 23       	and	r25, r25
    1e24:	42 f5       	brpl	.+80     	; 0x1e76 <pow+0x80>
    1e26:	ff 3f       	cpi	r31, 0xFF	; 255
    1e28:	e1 05       	cpc	r30, r1
    1e2a:	31 05       	cpc	r19, r1
    1e2c:	21 05       	cpc	r18, r1
    1e2e:	11 f1       	breq	.+68     	; 0x1e74 <pow+0x7e>
    1e30:	e8 94       	clt
    1e32:	08 94       	sec
    1e34:	e7 95       	ror	r30
    1e36:	d9 01       	movw	r26, r18
    1e38:	aa 23       	and	r26, r26
    1e3a:	29 f4       	brne	.+10     	; 0x1e46 <pow+0x50>
    1e3c:	ab 2f       	mov	r26, r27
    1e3e:	be 2f       	mov	r27, r30
    1e40:	f8 5f       	subi	r31, 0xF8	; 248
    1e42:	d0 f3       	brcs	.-12     	; 0x1e38 <pow+0x42>
    1e44:	10 c0       	rjmp	.+32     	; 0x1e66 <pow+0x70>
    1e46:	ff 5f       	subi	r31, 0xFF	; 255
    1e48:	70 f4       	brcc	.+28     	; 0x1e66 <pow+0x70>
    1e4a:	a6 95       	lsr	r26
    1e4c:	e0 f7       	brcc	.-8      	; 0x1e46 <pow+0x50>
    1e4e:	f7 39       	cpi	r31, 0x97	; 151
    1e50:	50 f0       	brcs	.+20     	; 0x1e66 <pow+0x70>
    1e52:	19 f0       	breq	.+6      	; 0x1e5a <pow+0x64>
    1e54:	ff 3a       	cpi	r31, 0xAF	; 175
    1e56:	38 f4       	brcc	.+14     	; 0x1e66 <pow+0x70>
    1e58:	9f 77       	andi	r25, 0x7F	; 127
    1e5a:	9f 93       	push	r25
    1e5c:	0c d0       	rcall	.+24     	; 0x1e76 <pow+0x80>
    1e5e:	0f 90       	pop	r0
    1e60:	07 fc       	sbrc	r0, 7
    1e62:	90 58       	subi	r25, 0x80	; 128
    1e64:	08 95       	ret
    1e66:	3e f0       	brts	.+14     	; 0x1e76 <pow+0x80>
    1e68:	14 cf       	rjmp	.-472    	; 0x1c92 <__fp_nan>
    1e6a:	60 e0       	ldi	r22, 0x00	; 0
    1e6c:	70 e0       	ldi	r23, 0x00	; 0
    1e6e:	80 e8       	ldi	r24, 0x80	; 128
    1e70:	9f e3       	ldi	r25, 0x3F	; 63
    1e72:	08 95       	ret
    1e74:	4f e7       	ldi	r20, 0x7F	; 127
    1e76:	9f 77       	andi	r25, 0x7F	; 127
    1e78:	5f 93       	push	r21
    1e7a:	4f 93       	push	r20
    1e7c:	3f 93       	push	r19
    1e7e:	2f 93       	push	r18
    1e80:	9e d0       	rcall	.+316    	; 0x1fbe <log>
    1e82:	2f 91       	pop	r18
    1e84:	3f 91       	pop	r19
    1e86:	4f 91       	pop	r20
    1e88:	5f 91       	pop	r21
    1e8a:	52 df       	rcall	.-348    	; 0x1d30 <__mulsf3>
    1e8c:	05 c0       	rjmp	.+10     	; 0x1e98 <exp>
    1e8e:	19 f4       	brne	.+6      	; 0x1e96 <pow+0xa0>
    1e90:	0e f0       	brts	.+2      	; 0x1e94 <pow+0x9e>
    1e92:	f9 ce       	rjmp	.-526    	; 0x1c86 <__fp_inf>
    1e94:	42 cf       	rjmp	.-380    	; 0x1d1a <__fp_zero>
    1e96:	fd ce       	rjmp	.-518    	; 0x1c92 <__fp_nan>

00001e98 <exp>:
    1e98:	26 df       	rcall	.-436    	; 0x1ce6 <__fp_splitA>
    1e9a:	c8 f3       	brcs	.-14     	; 0x1e8e <pow+0x98>
    1e9c:	96 38       	cpi	r25, 0x86	; 134
    1e9e:	c0 f7       	brcc	.-16     	; 0x1e90 <pow+0x9a>
    1ea0:	07 f8       	bld	r0, 7
    1ea2:	0f 92       	push	r0
    1ea4:	e8 94       	clt
    1ea6:	2b e3       	ldi	r18, 0x3B	; 59
    1ea8:	3a ea       	ldi	r19, 0xAA	; 170
    1eaa:	48 eb       	ldi	r20, 0xB8	; 184
    1eac:	5f e7       	ldi	r21, 0x7F	; 127
    1eae:	4e df       	rcall	.-356    	; 0x1d4c <__mulsf3_pse>
    1eb0:	0f 92       	push	r0
    1eb2:	0f 92       	push	r0
    1eb4:	0f 92       	push	r0
    1eb6:	4d b7       	in	r20, 0x3d	; 61
    1eb8:	5e b7       	in	r21, 0x3e	; 62
    1eba:	0f 92       	push	r0
    1ebc:	c0 d0       	rcall	.+384    	; 0x203e <modf>
    1ebe:	ec ef       	ldi	r30, 0xFC	; 252
    1ec0:	f1 e0       	ldi	r31, 0x01	; 1
    1ec2:	16 d0       	rcall	.+44     	; 0x1ef0 <__fp_powser>
    1ec4:	4f 91       	pop	r20
    1ec6:	5f 91       	pop	r21
    1ec8:	ef 91       	pop	r30
    1eca:	ff 91       	pop	r31
    1ecc:	e5 95       	asr	r30
    1ece:	ee 1f       	adc	r30, r30
    1ed0:	ff 1f       	adc	r31, r31
    1ed2:	49 f0       	breq	.+18     	; 0x1ee6 <exp+0x4e>
    1ed4:	fe 57       	subi	r31, 0x7E	; 126
    1ed6:	e0 68       	ori	r30, 0x80	; 128
    1ed8:	44 27       	eor	r20, r20
    1eda:	ee 0f       	add	r30, r30
    1edc:	44 1f       	adc	r20, r20
    1ede:	fa 95       	dec	r31
    1ee0:	e1 f7       	brne	.-8      	; 0x1eda <exp+0x42>
    1ee2:	41 95       	neg	r20
    1ee4:	55 0b       	sbc	r21, r21
    1ee6:	32 d0       	rcall	.+100    	; 0x1f4c <ldexp>
    1ee8:	0f 90       	pop	r0
    1eea:	07 fe       	sbrs	r0, 7
    1eec:	26 c0       	rjmp	.+76     	; 0x1f3a <inverse>
    1eee:	08 95       	ret

00001ef0 <__fp_powser>:
    1ef0:	df 93       	push	r29
    1ef2:	cf 93       	push	r28
    1ef4:	1f 93       	push	r17
    1ef6:	0f 93       	push	r16
    1ef8:	ff 92       	push	r15
    1efa:	ef 92       	push	r14
    1efc:	df 92       	push	r13
    1efe:	7b 01       	movw	r14, r22
    1f00:	8c 01       	movw	r16, r24
    1f02:	68 94       	set
    1f04:	05 c0       	rjmp	.+10     	; 0x1f10 <__fp_powser+0x20>
    1f06:	da 2e       	mov	r13, r26
    1f08:	ef 01       	movw	r28, r30
    1f0a:	1e df       	rcall	.-452    	; 0x1d48 <__mulsf3x>
    1f0c:	fe 01       	movw	r30, r28
    1f0e:	e8 94       	clt
    1f10:	a5 91       	lpm	r26, Z+
    1f12:	25 91       	lpm	r18, Z+
    1f14:	35 91       	lpm	r19, Z+
    1f16:	45 91       	lpm	r20, Z+
    1f18:	55 91       	lpm	r21, Z+
    1f1a:	ae f3       	brts	.-22     	; 0x1f06 <__fp_powser+0x16>
    1f1c:	ef 01       	movw	r28, r30
    1f1e:	62 dd       	rcall	.-1340   	; 0x19e4 <__addsf3x>
    1f20:	fe 01       	movw	r30, r28
    1f22:	97 01       	movw	r18, r14
    1f24:	a8 01       	movw	r20, r16
    1f26:	da 94       	dec	r13
    1f28:	79 f7       	brne	.-34     	; 0x1f08 <__fp_powser+0x18>
    1f2a:	df 90       	pop	r13
    1f2c:	ef 90       	pop	r14
    1f2e:	ff 90       	pop	r15
    1f30:	0f 91       	pop	r16
    1f32:	1f 91       	pop	r17
    1f34:	cf 91       	pop	r28
    1f36:	df 91       	pop	r29
    1f38:	08 95       	ret

00001f3a <inverse>:
    1f3a:	9b 01       	movw	r18, r22
    1f3c:	ac 01       	movw	r20, r24
    1f3e:	60 e0       	ldi	r22, 0x00	; 0
    1f40:	70 e0       	ldi	r23, 0x00	; 0
    1f42:	80 e8       	ldi	r24, 0x80	; 128
    1f44:	9f e3       	ldi	r25, 0x3F	; 63
    1f46:	a5 cd       	rjmp	.-1206   	; 0x1a92 <__divsf3>
    1f48:	9e ce       	rjmp	.-708    	; 0x1c86 <__fp_inf>
    1f4a:	ac c0       	rjmp	.+344    	; 0x20a4 <__fp_mpack>

00001f4c <ldexp>:
    1f4c:	cc de       	rcall	.-616    	; 0x1ce6 <__fp_splitA>
    1f4e:	e8 f3       	brcs	.-6      	; 0x1f4a <inverse+0x10>
    1f50:	99 23       	and	r25, r25
    1f52:	d9 f3       	breq	.-10     	; 0x1f4a <inverse+0x10>
    1f54:	94 0f       	add	r25, r20
    1f56:	51 1d       	adc	r21, r1
    1f58:	bb f3       	brvs	.-18     	; 0x1f48 <inverse+0xe>
    1f5a:	91 50       	subi	r25, 0x01	; 1
    1f5c:	50 40       	sbci	r21, 0x00	; 0
    1f5e:	94 f0       	brlt	.+36     	; 0x1f84 <ldexp+0x38>
    1f60:	59 f0       	breq	.+22     	; 0x1f78 <ldexp+0x2c>
    1f62:	88 23       	and	r24, r24
    1f64:	32 f0       	brmi	.+12     	; 0x1f72 <ldexp+0x26>
    1f66:	66 0f       	add	r22, r22
    1f68:	77 1f       	adc	r23, r23
    1f6a:	88 1f       	adc	r24, r24
    1f6c:	91 50       	subi	r25, 0x01	; 1
    1f6e:	50 40       	sbci	r21, 0x00	; 0
    1f70:	c1 f7       	brne	.-16     	; 0x1f62 <ldexp+0x16>
    1f72:	9e 3f       	cpi	r25, 0xFE	; 254
    1f74:	51 05       	cpc	r21, r1
    1f76:	44 f7       	brge	.-48     	; 0x1f48 <inverse+0xe>
    1f78:	88 0f       	add	r24, r24
    1f7a:	91 1d       	adc	r25, r1
    1f7c:	96 95       	lsr	r25
    1f7e:	87 95       	ror	r24
    1f80:	97 f9       	bld	r25, 7
    1f82:	08 95       	ret
    1f84:	5f 3f       	cpi	r21, 0xFF	; 255
    1f86:	ac f0       	brlt	.+42     	; 0x1fb2 <ldexp+0x66>
    1f88:	98 3e       	cpi	r25, 0xE8	; 232
    1f8a:	9c f0       	brlt	.+38     	; 0x1fb2 <ldexp+0x66>
    1f8c:	bb 27       	eor	r27, r27
    1f8e:	86 95       	lsr	r24
    1f90:	77 95       	ror	r23
    1f92:	67 95       	ror	r22
    1f94:	b7 95       	ror	r27
    1f96:	08 f4       	brcc	.+2      	; 0x1f9a <ldexp+0x4e>
    1f98:	b1 60       	ori	r27, 0x01	; 1
    1f9a:	93 95       	inc	r25
    1f9c:	c1 f7       	brne	.-16     	; 0x1f8e <ldexp+0x42>
    1f9e:	bb 0f       	add	r27, r27
    1fa0:	58 f7       	brcc	.-42     	; 0x1f78 <ldexp+0x2c>
    1fa2:	11 f4       	brne	.+4      	; 0x1fa8 <ldexp+0x5c>
    1fa4:	60 ff       	sbrs	r22, 0
    1fa6:	e8 cf       	rjmp	.-48     	; 0x1f78 <ldexp+0x2c>
    1fa8:	6f 5f       	subi	r22, 0xFF	; 255
    1faa:	7f 4f       	sbci	r23, 0xFF	; 255
    1fac:	8f 4f       	sbci	r24, 0xFF	; 255
    1fae:	9f 4f       	sbci	r25, 0xFF	; 255
    1fb0:	e3 cf       	rjmp	.-58     	; 0x1f78 <ldexp+0x2c>
    1fb2:	b4 ce       	rjmp	.-664    	; 0x1d1c <__fp_szero>
    1fb4:	0e f0       	brts	.+2      	; 0x1fb8 <ldexp+0x6c>
    1fb6:	76 c0       	rjmp	.+236    	; 0x20a4 <__fp_mpack>
    1fb8:	6c ce       	rjmp	.-808    	; 0x1c92 <__fp_nan>
    1fba:	68 94       	set
    1fbc:	64 ce       	rjmp	.-824    	; 0x1c86 <__fp_inf>

00001fbe <log>:
    1fbe:	93 de       	rcall	.-730    	; 0x1ce6 <__fp_splitA>
    1fc0:	c8 f3       	brcs	.-14     	; 0x1fb4 <ldexp+0x68>
    1fc2:	99 23       	and	r25, r25
    1fc4:	d1 f3       	breq	.-12     	; 0x1fba <ldexp+0x6e>
    1fc6:	c6 f3       	brts	.-16     	; 0x1fb8 <ldexp+0x6c>
    1fc8:	df 93       	push	r29
    1fca:	cf 93       	push	r28
    1fcc:	1f 93       	push	r17
    1fce:	0f 93       	push	r16
    1fd0:	ff 92       	push	r15
    1fd2:	c9 2f       	mov	r28, r25
    1fd4:	dd 27       	eor	r29, r29
    1fd6:	88 23       	and	r24, r24
    1fd8:	2a f0       	brmi	.+10     	; 0x1fe4 <log+0x26>
    1fda:	21 97       	sbiw	r28, 0x01	; 1
    1fdc:	66 0f       	add	r22, r22
    1fde:	77 1f       	adc	r23, r23
    1fe0:	88 1f       	adc	r24, r24
    1fe2:	da f7       	brpl	.-10     	; 0x1fda <log+0x1c>
    1fe4:	20 e0       	ldi	r18, 0x00	; 0
    1fe6:	30 e0       	ldi	r19, 0x00	; 0
    1fe8:	40 e8       	ldi	r20, 0x80	; 128
    1fea:	5f eb       	ldi	r21, 0xBF	; 191
    1fec:	9f e3       	ldi	r25, 0x3F	; 63
    1fee:	88 39       	cpi	r24, 0x98	; 152
    1ff0:	20 f0       	brcs	.+8      	; 0x1ffa <log+0x3c>
    1ff2:	80 3e       	cpi	r24, 0xE0	; 224
    1ff4:	30 f0       	brcs	.+12     	; 0x2002 <log+0x44>
    1ff6:	21 96       	adiw	r28, 0x01	; 1
    1ff8:	8f 77       	andi	r24, 0x7F	; 127
    1ffa:	e3 dc       	rcall	.-1594   	; 0x19c2 <__addsf3>
    1ffc:	e4 e2       	ldi	r30, 0x24	; 36
    1ffe:	f2 e0       	ldi	r31, 0x02	; 2
    2000:	03 c0       	rjmp	.+6      	; 0x2008 <log+0x4a>
    2002:	df dc       	rcall	.-1602   	; 0x19c2 <__addsf3>
    2004:	e1 e5       	ldi	r30, 0x51	; 81
    2006:	f2 e0       	ldi	r31, 0x02	; 2
    2008:	73 df       	rcall	.-282    	; 0x1ef0 <__fp_powser>
    200a:	8b 01       	movw	r16, r22
    200c:	be 01       	movw	r22, r28
    200e:	ec 01       	movw	r28, r24
    2010:	fb 2e       	mov	r15, r27
    2012:	6f 57       	subi	r22, 0x7F	; 127
    2014:	71 09       	sbc	r23, r1
    2016:	75 95       	asr	r23
    2018:	77 1f       	adc	r23, r23
    201a:	88 0b       	sbc	r24, r24
    201c:	99 0b       	sbc	r25, r25
    201e:	d4 dd       	rcall	.-1112   	; 0x1bc8 <__floatsisf>
    2020:	28 e1       	ldi	r18, 0x18	; 24
    2022:	32 e7       	ldi	r19, 0x72	; 114
    2024:	41 e3       	ldi	r20, 0x31	; 49
    2026:	5f e3       	ldi	r21, 0x3F	; 63
    2028:	8f de       	rcall	.-738    	; 0x1d48 <__mulsf3x>
    202a:	af 2d       	mov	r26, r15
    202c:	98 01       	movw	r18, r16
    202e:	ae 01       	movw	r20, r28
    2030:	ff 90       	pop	r15
    2032:	0f 91       	pop	r16
    2034:	1f 91       	pop	r17
    2036:	cf 91       	pop	r28
    2038:	df 91       	pop	r29
    203a:	d4 dc       	rcall	.-1624   	; 0x19e4 <__addsf3x>
    203c:	3b ce       	rjmp	.-906    	; 0x1cb4 <__fp_round>

0000203e <modf>:
    203e:	fa 01       	movw	r30, r20
    2040:	dc 01       	movw	r26, r24
    2042:	aa 0f       	add	r26, r26
    2044:	bb 1f       	adc	r27, r27
    2046:	9b 01       	movw	r18, r22
    2048:	ac 01       	movw	r20, r24
    204a:	bf 57       	subi	r27, 0x7F	; 127
    204c:	28 f4       	brcc	.+10     	; 0x2058 <modf+0x1a>
    204e:	22 27       	eor	r18, r18
    2050:	33 27       	eor	r19, r19
    2052:	44 27       	eor	r20, r20
    2054:	50 78       	andi	r21, 0x80	; 128
    2056:	1f c0       	rjmp	.+62     	; 0x2096 <modf+0x58>
    2058:	b7 51       	subi	r27, 0x17	; 23
    205a:	88 f4       	brcc	.+34     	; 0x207e <modf+0x40>
    205c:	ab 2f       	mov	r26, r27
    205e:	00 24       	eor	r0, r0
    2060:	46 95       	lsr	r20
    2062:	37 95       	ror	r19
    2064:	27 95       	ror	r18
    2066:	01 1c       	adc	r0, r1
    2068:	a3 95       	inc	r26
    206a:	d2 f3       	brmi	.-12     	; 0x2060 <modf+0x22>
    206c:	00 20       	and	r0, r0
    206e:	69 f0       	breq	.+26     	; 0x208a <modf+0x4c>
    2070:	22 0f       	add	r18, r18
    2072:	33 1f       	adc	r19, r19
    2074:	44 1f       	adc	r20, r20
    2076:	b3 95       	inc	r27
    2078:	da f3       	brmi	.-10     	; 0x2070 <modf+0x32>
    207a:	0d d0       	rcall	.+26     	; 0x2096 <modf+0x58>
    207c:	a1 cc       	rjmp	.-1726   	; 0x19c0 <__subsf3>
    207e:	61 30       	cpi	r22, 0x01	; 1
    2080:	71 05       	cpc	r23, r1
    2082:	a0 e8       	ldi	r26, 0x80	; 128
    2084:	8a 07       	cpc	r24, r26
    2086:	b9 46       	sbci	r27, 0x69	; 105
    2088:	30 f4       	brcc	.+12     	; 0x2096 <modf+0x58>
    208a:	9b 01       	movw	r18, r22
    208c:	ac 01       	movw	r20, r24
    208e:	66 27       	eor	r22, r22
    2090:	77 27       	eor	r23, r23
    2092:	88 27       	eor	r24, r24
    2094:	90 78       	andi	r25, 0x80	; 128
    2096:	30 96       	adiw	r30, 0x00	; 0
    2098:	21 f0       	breq	.+8      	; 0x20a2 <modf+0x64>
    209a:	20 83       	st	Z, r18
    209c:	31 83       	std	Z+1, r19	; 0x01
    209e:	42 83       	std	Z+2, r20	; 0x02
    20a0:	53 83       	std	Z+3, r21	; 0x03
    20a2:	08 95       	ret

000020a4 <__fp_mpack>:
    20a4:	9f 3f       	cpi	r25, 0xFF	; 255
    20a6:	31 f0       	breq	.+12     	; 0x20b4 <__fp_mpack_finite+0xc>

000020a8 <__fp_mpack_finite>:
    20a8:	91 50       	subi	r25, 0x01	; 1
    20aa:	20 f4       	brcc	.+8      	; 0x20b4 <__fp_mpack_finite+0xc>
    20ac:	87 95       	ror	r24
    20ae:	77 95       	ror	r23
    20b0:	67 95       	ror	r22
    20b2:	b7 95       	ror	r27
    20b4:	88 0f       	add	r24, r24
    20b6:	91 1d       	adc	r25, r1
    20b8:	96 95       	lsr	r25
    20ba:	87 95       	ror	r24
    20bc:	97 f9       	bld	r25, 7
    20be:	08 95       	ret

000020c0 <__mulsi3>:
    20c0:	db 01       	movw	r26, r22
    20c2:	8f 93       	push	r24
    20c4:	9f 93       	push	r25
    20c6:	41 d0       	rcall	.+130    	; 0x214a <__muluhisi3>
    20c8:	bf 91       	pop	r27
    20ca:	af 91       	pop	r26
    20cc:	a2 9f       	mul	r26, r18
    20ce:	80 0d       	add	r24, r0
    20d0:	91 1d       	adc	r25, r1
    20d2:	a3 9f       	mul	r26, r19
    20d4:	90 0d       	add	r25, r0
    20d6:	b2 9f       	mul	r27, r18
    20d8:	90 0d       	add	r25, r0
    20da:	11 24       	eor	r1, r1
    20dc:	08 95       	ret

000020de <__udivmodhi4>:
    20de:	aa 1b       	sub	r26, r26
    20e0:	bb 1b       	sub	r27, r27
    20e2:	51 e1       	ldi	r21, 0x11	; 17
    20e4:	07 c0       	rjmp	.+14     	; 0x20f4 <__udivmodhi4_ep>

000020e6 <__udivmodhi4_loop>:
    20e6:	aa 1f       	adc	r26, r26
    20e8:	bb 1f       	adc	r27, r27
    20ea:	a6 17       	cp	r26, r22
    20ec:	b7 07       	cpc	r27, r23
    20ee:	10 f0       	brcs	.+4      	; 0x20f4 <__udivmodhi4_ep>
    20f0:	a6 1b       	sub	r26, r22
    20f2:	b7 0b       	sbc	r27, r23

000020f4 <__udivmodhi4_ep>:
    20f4:	88 1f       	adc	r24, r24
    20f6:	99 1f       	adc	r25, r25
    20f8:	5a 95       	dec	r21
    20fa:	a9 f7       	brne	.-22     	; 0x20e6 <__udivmodhi4_loop>
    20fc:	80 95       	com	r24
    20fe:	90 95       	com	r25
    2100:	bc 01       	movw	r22, r24
    2102:	cd 01       	movw	r24, r26
    2104:	08 95       	ret

00002106 <__udivmodsi4>:
    2106:	a1 e2       	ldi	r26, 0x21	; 33
    2108:	1a 2e       	mov	r1, r26
    210a:	aa 1b       	sub	r26, r26
    210c:	bb 1b       	sub	r27, r27
    210e:	fd 01       	movw	r30, r26
    2110:	0d c0       	rjmp	.+26     	; 0x212c <__udivmodsi4_ep>

00002112 <__udivmodsi4_loop>:
    2112:	aa 1f       	adc	r26, r26
    2114:	bb 1f       	adc	r27, r27
    2116:	ee 1f       	adc	r30, r30
    2118:	ff 1f       	adc	r31, r31
    211a:	a2 17       	cp	r26, r18
    211c:	b3 07       	cpc	r27, r19
    211e:	e4 07       	cpc	r30, r20
    2120:	f5 07       	cpc	r31, r21
    2122:	20 f0       	brcs	.+8      	; 0x212c <__udivmodsi4_ep>
    2124:	a2 1b       	sub	r26, r18
    2126:	b3 0b       	sbc	r27, r19
    2128:	e4 0b       	sbc	r30, r20
    212a:	f5 0b       	sbc	r31, r21

0000212c <__udivmodsi4_ep>:
    212c:	66 1f       	adc	r22, r22
    212e:	77 1f       	adc	r23, r23
    2130:	88 1f       	adc	r24, r24
    2132:	99 1f       	adc	r25, r25
    2134:	1a 94       	dec	r1
    2136:	69 f7       	brne	.-38     	; 0x2112 <__udivmodsi4_loop>
    2138:	60 95       	com	r22
    213a:	70 95       	com	r23
    213c:	80 95       	com	r24
    213e:	90 95       	com	r25
    2140:	9b 01       	movw	r18, r22
    2142:	ac 01       	movw	r20, r24
    2144:	bd 01       	movw	r22, r26
    2146:	cf 01       	movw	r24, r30
    2148:	08 95       	ret

0000214a <__muluhisi3>:
    214a:	09 d0       	rcall	.+18     	; 0x215e <__umulhisi3>
    214c:	a5 9f       	mul	r26, r21
    214e:	90 0d       	add	r25, r0
    2150:	b4 9f       	mul	r27, r20
    2152:	90 0d       	add	r25, r0
    2154:	a4 9f       	mul	r26, r20
    2156:	80 0d       	add	r24, r0
    2158:	91 1d       	adc	r25, r1
    215a:	11 24       	eor	r1, r1
    215c:	08 95       	ret

0000215e <__umulhisi3>:
    215e:	a2 9f       	mul	r26, r18
    2160:	b0 01       	movw	r22, r0
    2162:	b3 9f       	mul	r27, r19
    2164:	c0 01       	movw	r24, r0
    2166:	a3 9f       	mul	r26, r19
    2168:	70 0d       	add	r23, r0
    216a:	81 1d       	adc	r24, r1
    216c:	11 24       	eor	r1, r1
    216e:	91 1d       	adc	r25, r1
    2170:	b2 9f       	mul	r27, r18
    2172:	70 0d       	add	r23, r0
    2174:	81 1d       	adc	r24, r1
    2176:	11 24       	eor	r1, r1
    2178:	91 1d       	adc	r25, r1
    217a:	08 95       	ret

0000217c <fdevopen>:
    217c:	0f 93       	push	r16
    217e:	1f 93       	push	r17
    2180:	cf 93       	push	r28
    2182:	df 93       	push	r29
    2184:	00 97       	sbiw	r24, 0x00	; 0
    2186:	31 f4       	brne	.+12     	; 0x2194 <fdevopen+0x18>
    2188:	61 15       	cp	r22, r1
    218a:	71 05       	cpc	r23, r1
    218c:	19 f4       	brne	.+6      	; 0x2194 <fdevopen+0x18>
    218e:	80 e0       	ldi	r24, 0x00	; 0
    2190:	90 e0       	ldi	r25, 0x00	; 0
    2192:	39 c0       	rjmp	.+114    	; 0x2206 <fdevopen+0x8a>
    2194:	8b 01       	movw	r16, r22
    2196:	ec 01       	movw	r28, r24
    2198:	6e e0       	ldi	r22, 0x0E	; 14
    219a:	70 e0       	ldi	r23, 0x00	; 0
    219c:	81 e0       	ldi	r24, 0x01	; 1
    219e:	90 e0       	ldi	r25, 0x00	; 0
    21a0:	6e d2       	rcall	.+1244   	; 0x267e <calloc>
    21a2:	fc 01       	movw	r30, r24
    21a4:	89 2b       	or	r24, r25
    21a6:	99 f3       	breq	.-26     	; 0x218e <fdevopen+0x12>
    21a8:	80 e8       	ldi	r24, 0x80	; 128
    21aa:	83 83       	std	Z+3, r24	; 0x03
    21ac:	01 15       	cp	r16, r1
    21ae:	11 05       	cpc	r17, r1
    21b0:	71 f0       	breq	.+28     	; 0x21ce <fdevopen+0x52>
    21b2:	02 87       	std	Z+10, r16	; 0x0a
    21b4:	13 87       	std	Z+11, r17	; 0x0b
    21b6:	81 e8       	ldi	r24, 0x81	; 129
    21b8:	83 83       	std	Z+3, r24	; 0x03
    21ba:	80 91 eb 21 	lds	r24, 0x21EB	; 0x8021eb <__iob>
    21be:	90 91 ec 21 	lds	r25, 0x21EC	; 0x8021ec <__iob+0x1>
    21c2:	89 2b       	or	r24, r25
    21c4:	21 f4       	brne	.+8      	; 0x21ce <fdevopen+0x52>
    21c6:	e0 93 eb 21 	sts	0x21EB, r30	; 0x8021eb <__iob>
    21ca:	f0 93 ec 21 	sts	0x21EC, r31	; 0x8021ec <__iob+0x1>
    21ce:	20 97       	sbiw	r28, 0x00	; 0
    21d0:	c9 f0       	breq	.+50     	; 0x2204 <fdevopen+0x88>
    21d2:	c0 87       	std	Z+8, r28	; 0x08
    21d4:	d1 87       	std	Z+9, r29	; 0x09
    21d6:	83 81       	ldd	r24, Z+3	; 0x03
    21d8:	82 60       	ori	r24, 0x02	; 2
    21da:	83 83       	std	Z+3, r24	; 0x03
    21dc:	80 91 ed 21 	lds	r24, 0x21ED	; 0x8021ed <__iob+0x2>
    21e0:	90 91 ee 21 	lds	r25, 0x21EE	; 0x8021ee <__iob+0x3>
    21e4:	89 2b       	or	r24, r25
    21e6:	71 f4       	brne	.+28     	; 0x2204 <fdevopen+0x88>
    21e8:	e0 93 ed 21 	sts	0x21ED, r30	; 0x8021ed <__iob+0x2>
    21ec:	f0 93 ee 21 	sts	0x21EE, r31	; 0x8021ee <__iob+0x3>
    21f0:	80 91 ef 21 	lds	r24, 0x21EF	; 0x8021ef <__iob+0x4>
    21f4:	90 91 f0 21 	lds	r25, 0x21F0	; 0x8021f0 <__iob+0x5>
    21f8:	89 2b       	or	r24, r25
    21fa:	21 f4       	brne	.+8      	; 0x2204 <fdevopen+0x88>
    21fc:	e0 93 ef 21 	sts	0x21EF, r30	; 0x8021ef <__iob+0x4>
    2200:	f0 93 f0 21 	sts	0x21F0, r31	; 0x8021f0 <__iob+0x5>
    2204:	cf 01       	movw	r24, r30
    2206:	df 91       	pop	r29
    2208:	cf 91       	pop	r28
    220a:	1f 91       	pop	r17
    220c:	0f 91       	pop	r16
    220e:	08 95       	ret

00002210 <printf>:
    2210:	cf 93       	push	r28
    2212:	df 93       	push	r29
    2214:	cd b7       	in	r28, 0x3d	; 61
    2216:	de b7       	in	r29, 0x3e	; 62
    2218:	ae 01       	movw	r20, r28
    221a:	4a 5f       	subi	r20, 0xFA	; 250
    221c:	5f 4f       	sbci	r21, 0xFF	; 255
    221e:	fa 01       	movw	r30, r20
    2220:	61 91       	ld	r22, Z+
    2222:	71 91       	ld	r23, Z+
    2224:	af 01       	movw	r20, r30
    2226:	80 91 ed 21 	lds	r24, 0x21ED	; 0x8021ed <__iob+0x2>
    222a:	90 91 ee 21 	lds	r25, 0x21EE	; 0x8021ee <__iob+0x3>
    222e:	30 d0       	rcall	.+96     	; 0x2290 <vfprintf>
    2230:	df 91       	pop	r29
    2232:	cf 91       	pop	r28
    2234:	08 95       	ret

00002236 <putchar>:
    2236:	60 91 ed 21 	lds	r22, 0x21ED	; 0x8021ed <__iob+0x2>
    223a:	70 91 ee 21 	lds	r23, 0x21EE	; 0x8021ee <__iob+0x3>
    223e:	77 c3       	rjmp	.+1774   	; 0x292e <fputc>

00002240 <sprintf>:
    2240:	0f 93       	push	r16
    2242:	1f 93       	push	r17
    2244:	cf 93       	push	r28
    2246:	df 93       	push	r29
    2248:	cd b7       	in	r28, 0x3d	; 61
    224a:	de b7       	in	r29, 0x3e	; 62
    224c:	2e 97       	sbiw	r28, 0x0e	; 14
    224e:	cd bf       	out	0x3d, r28	; 61
    2250:	de bf       	out	0x3e, r29	; 62
    2252:	0e 89       	ldd	r16, Y+22	; 0x16
    2254:	1f 89       	ldd	r17, Y+23	; 0x17
    2256:	86 e0       	ldi	r24, 0x06	; 6
    2258:	8c 83       	std	Y+4, r24	; 0x04
    225a:	09 83       	std	Y+1, r16	; 0x01
    225c:	1a 83       	std	Y+2, r17	; 0x02
    225e:	8f ef       	ldi	r24, 0xFF	; 255
    2260:	9f e7       	ldi	r25, 0x7F	; 127
    2262:	8d 83       	std	Y+5, r24	; 0x05
    2264:	9e 83       	std	Y+6, r25	; 0x06
    2266:	ae 01       	movw	r20, r28
    2268:	46 5e       	subi	r20, 0xE6	; 230
    226a:	5f 4f       	sbci	r21, 0xFF	; 255
    226c:	68 8d       	ldd	r22, Y+24	; 0x18
    226e:	79 8d       	ldd	r23, Y+25	; 0x19
    2270:	ce 01       	movw	r24, r28
    2272:	01 96       	adiw	r24, 0x01	; 1
    2274:	0d d0       	rcall	.+26     	; 0x2290 <vfprintf>
    2276:	ef 81       	ldd	r30, Y+7	; 0x07
    2278:	f8 85       	ldd	r31, Y+8	; 0x08
    227a:	e0 0f       	add	r30, r16
    227c:	f1 1f       	adc	r31, r17
    227e:	10 82       	st	Z, r1
    2280:	2e 96       	adiw	r28, 0x0e	; 14
    2282:	cd bf       	out	0x3d, r28	; 61
    2284:	de bf       	out	0x3e, r29	; 62
    2286:	df 91       	pop	r29
    2288:	cf 91       	pop	r28
    228a:	1f 91       	pop	r17
    228c:	0f 91       	pop	r16
    228e:	08 95       	ret

00002290 <vfprintf>:
    2290:	2f 92       	push	r2
    2292:	3f 92       	push	r3
    2294:	4f 92       	push	r4
    2296:	5f 92       	push	r5
    2298:	6f 92       	push	r6
    229a:	7f 92       	push	r7
    229c:	8f 92       	push	r8
    229e:	9f 92       	push	r9
    22a0:	af 92       	push	r10
    22a2:	bf 92       	push	r11
    22a4:	cf 92       	push	r12
    22a6:	df 92       	push	r13
    22a8:	ef 92       	push	r14
    22aa:	ff 92       	push	r15
    22ac:	0f 93       	push	r16
    22ae:	1f 93       	push	r17
    22b0:	cf 93       	push	r28
    22b2:	df 93       	push	r29
    22b4:	cd b7       	in	r28, 0x3d	; 61
    22b6:	de b7       	in	r29, 0x3e	; 62
    22b8:	2b 97       	sbiw	r28, 0x0b	; 11
    22ba:	cd bf       	out	0x3d, r28	; 61
    22bc:	de bf       	out	0x3e, r29	; 62
    22be:	6c 01       	movw	r12, r24
    22c0:	7b 01       	movw	r14, r22
    22c2:	8a 01       	movw	r16, r20
    22c4:	fc 01       	movw	r30, r24
    22c6:	16 82       	std	Z+6, r1	; 0x06
    22c8:	17 82       	std	Z+7, r1	; 0x07
    22ca:	83 81       	ldd	r24, Z+3	; 0x03
    22cc:	81 ff       	sbrs	r24, 1
    22ce:	bf c1       	rjmp	.+894    	; 0x264e <vfprintf+0x3be>
    22d0:	ce 01       	movw	r24, r28
    22d2:	01 96       	adiw	r24, 0x01	; 1
    22d4:	3c 01       	movw	r6, r24
    22d6:	f6 01       	movw	r30, r12
    22d8:	93 81       	ldd	r25, Z+3	; 0x03
    22da:	f7 01       	movw	r30, r14
    22dc:	93 fd       	sbrc	r25, 3
    22de:	85 91       	lpm	r24, Z+
    22e0:	93 ff       	sbrs	r25, 3
    22e2:	81 91       	ld	r24, Z+
    22e4:	7f 01       	movw	r14, r30
    22e6:	88 23       	and	r24, r24
    22e8:	09 f4       	brne	.+2      	; 0x22ec <vfprintf+0x5c>
    22ea:	ad c1       	rjmp	.+858    	; 0x2646 <vfprintf+0x3b6>
    22ec:	85 32       	cpi	r24, 0x25	; 37
    22ee:	39 f4       	brne	.+14     	; 0x22fe <vfprintf+0x6e>
    22f0:	93 fd       	sbrc	r25, 3
    22f2:	85 91       	lpm	r24, Z+
    22f4:	93 ff       	sbrs	r25, 3
    22f6:	81 91       	ld	r24, Z+
    22f8:	7f 01       	movw	r14, r30
    22fa:	85 32       	cpi	r24, 0x25	; 37
    22fc:	21 f4       	brne	.+8      	; 0x2306 <vfprintf+0x76>
    22fe:	b6 01       	movw	r22, r12
    2300:	90 e0       	ldi	r25, 0x00	; 0
    2302:	15 d3       	rcall	.+1578   	; 0x292e <fputc>
    2304:	e8 cf       	rjmp	.-48     	; 0x22d6 <vfprintf+0x46>
    2306:	91 2c       	mov	r9, r1
    2308:	21 2c       	mov	r2, r1
    230a:	31 2c       	mov	r3, r1
    230c:	ff e1       	ldi	r31, 0x1F	; 31
    230e:	f3 15       	cp	r31, r3
    2310:	d8 f0       	brcs	.+54     	; 0x2348 <vfprintf+0xb8>
    2312:	8b 32       	cpi	r24, 0x2B	; 43
    2314:	79 f0       	breq	.+30     	; 0x2334 <vfprintf+0xa4>
    2316:	38 f4       	brcc	.+14     	; 0x2326 <vfprintf+0x96>
    2318:	80 32       	cpi	r24, 0x20	; 32
    231a:	79 f0       	breq	.+30     	; 0x233a <vfprintf+0xaa>
    231c:	83 32       	cpi	r24, 0x23	; 35
    231e:	a1 f4       	brne	.+40     	; 0x2348 <vfprintf+0xb8>
    2320:	23 2d       	mov	r18, r3
    2322:	20 61       	ori	r18, 0x10	; 16
    2324:	1d c0       	rjmp	.+58     	; 0x2360 <vfprintf+0xd0>
    2326:	8d 32       	cpi	r24, 0x2D	; 45
    2328:	61 f0       	breq	.+24     	; 0x2342 <vfprintf+0xb2>
    232a:	80 33       	cpi	r24, 0x30	; 48
    232c:	69 f4       	brne	.+26     	; 0x2348 <vfprintf+0xb8>
    232e:	23 2d       	mov	r18, r3
    2330:	21 60       	ori	r18, 0x01	; 1
    2332:	16 c0       	rjmp	.+44     	; 0x2360 <vfprintf+0xd0>
    2334:	83 2d       	mov	r24, r3
    2336:	82 60       	ori	r24, 0x02	; 2
    2338:	38 2e       	mov	r3, r24
    233a:	e3 2d       	mov	r30, r3
    233c:	e4 60       	ori	r30, 0x04	; 4
    233e:	3e 2e       	mov	r3, r30
    2340:	2a c0       	rjmp	.+84     	; 0x2396 <vfprintf+0x106>
    2342:	f3 2d       	mov	r31, r3
    2344:	f8 60       	ori	r31, 0x08	; 8
    2346:	1d c0       	rjmp	.+58     	; 0x2382 <vfprintf+0xf2>
    2348:	37 fc       	sbrc	r3, 7
    234a:	2d c0       	rjmp	.+90     	; 0x23a6 <vfprintf+0x116>
    234c:	20 ed       	ldi	r18, 0xD0	; 208
    234e:	28 0f       	add	r18, r24
    2350:	2a 30       	cpi	r18, 0x0A	; 10
    2352:	40 f0       	brcs	.+16     	; 0x2364 <vfprintf+0xd4>
    2354:	8e 32       	cpi	r24, 0x2E	; 46
    2356:	b9 f4       	brne	.+46     	; 0x2386 <vfprintf+0xf6>
    2358:	36 fc       	sbrc	r3, 6
    235a:	75 c1       	rjmp	.+746    	; 0x2646 <vfprintf+0x3b6>
    235c:	23 2d       	mov	r18, r3
    235e:	20 64       	ori	r18, 0x40	; 64
    2360:	32 2e       	mov	r3, r18
    2362:	19 c0       	rjmp	.+50     	; 0x2396 <vfprintf+0x106>
    2364:	36 fe       	sbrs	r3, 6
    2366:	06 c0       	rjmp	.+12     	; 0x2374 <vfprintf+0xe4>
    2368:	8a e0       	ldi	r24, 0x0A	; 10
    236a:	98 9e       	mul	r9, r24
    236c:	20 0d       	add	r18, r0
    236e:	11 24       	eor	r1, r1
    2370:	92 2e       	mov	r9, r18
    2372:	11 c0       	rjmp	.+34     	; 0x2396 <vfprintf+0x106>
    2374:	ea e0       	ldi	r30, 0x0A	; 10
    2376:	2e 9e       	mul	r2, r30
    2378:	20 0d       	add	r18, r0
    237a:	11 24       	eor	r1, r1
    237c:	22 2e       	mov	r2, r18
    237e:	f3 2d       	mov	r31, r3
    2380:	f0 62       	ori	r31, 0x20	; 32
    2382:	3f 2e       	mov	r3, r31
    2384:	08 c0       	rjmp	.+16     	; 0x2396 <vfprintf+0x106>
    2386:	8c 36       	cpi	r24, 0x6C	; 108
    2388:	21 f4       	brne	.+8      	; 0x2392 <vfprintf+0x102>
    238a:	83 2d       	mov	r24, r3
    238c:	80 68       	ori	r24, 0x80	; 128
    238e:	38 2e       	mov	r3, r24
    2390:	02 c0       	rjmp	.+4      	; 0x2396 <vfprintf+0x106>
    2392:	88 36       	cpi	r24, 0x68	; 104
    2394:	41 f4       	brne	.+16     	; 0x23a6 <vfprintf+0x116>
    2396:	f7 01       	movw	r30, r14
    2398:	93 fd       	sbrc	r25, 3
    239a:	85 91       	lpm	r24, Z+
    239c:	93 ff       	sbrs	r25, 3
    239e:	81 91       	ld	r24, Z+
    23a0:	7f 01       	movw	r14, r30
    23a2:	81 11       	cpse	r24, r1
    23a4:	b3 cf       	rjmp	.-154    	; 0x230c <vfprintf+0x7c>
    23a6:	98 2f       	mov	r25, r24
    23a8:	9f 7d       	andi	r25, 0xDF	; 223
    23aa:	95 54       	subi	r25, 0x45	; 69
    23ac:	93 30       	cpi	r25, 0x03	; 3
    23ae:	28 f4       	brcc	.+10     	; 0x23ba <vfprintf+0x12a>
    23b0:	0c 5f       	subi	r16, 0xFC	; 252
    23b2:	1f 4f       	sbci	r17, 0xFF	; 255
    23b4:	9f e3       	ldi	r25, 0x3F	; 63
    23b6:	99 83       	std	Y+1, r25	; 0x01
    23b8:	0d c0       	rjmp	.+26     	; 0x23d4 <vfprintf+0x144>
    23ba:	83 36       	cpi	r24, 0x63	; 99
    23bc:	31 f0       	breq	.+12     	; 0x23ca <vfprintf+0x13a>
    23be:	83 37       	cpi	r24, 0x73	; 115
    23c0:	71 f0       	breq	.+28     	; 0x23de <vfprintf+0x14e>
    23c2:	83 35       	cpi	r24, 0x53	; 83
    23c4:	09 f0       	breq	.+2      	; 0x23c8 <vfprintf+0x138>
    23c6:	55 c0       	rjmp	.+170    	; 0x2472 <vfprintf+0x1e2>
    23c8:	20 c0       	rjmp	.+64     	; 0x240a <vfprintf+0x17a>
    23ca:	f8 01       	movw	r30, r16
    23cc:	80 81       	ld	r24, Z
    23ce:	89 83       	std	Y+1, r24	; 0x01
    23d0:	0e 5f       	subi	r16, 0xFE	; 254
    23d2:	1f 4f       	sbci	r17, 0xFF	; 255
    23d4:	88 24       	eor	r8, r8
    23d6:	83 94       	inc	r8
    23d8:	91 2c       	mov	r9, r1
    23da:	53 01       	movw	r10, r6
    23dc:	12 c0       	rjmp	.+36     	; 0x2402 <vfprintf+0x172>
    23de:	28 01       	movw	r4, r16
    23e0:	f2 e0       	ldi	r31, 0x02	; 2
    23e2:	4f 0e       	add	r4, r31
    23e4:	51 1c       	adc	r5, r1
    23e6:	f8 01       	movw	r30, r16
    23e8:	a0 80       	ld	r10, Z
    23ea:	b1 80       	ldd	r11, Z+1	; 0x01
    23ec:	36 fe       	sbrs	r3, 6
    23ee:	03 c0       	rjmp	.+6      	; 0x23f6 <vfprintf+0x166>
    23f0:	69 2d       	mov	r22, r9
    23f2:	70 e0       	ldi	r23, 0x00	; 0
    23f4:	02 c0       	rjmp	.+4      	; 0x23fa <vfprintf+0x16a>
    23f6:	6f ef       	ldi	r22, 0xFF	; 255
    23f8:	7f ef       	ldi	r23, 0xFF	; 255
    23fa:	c5 01       	movw	r24, r10
    23fc:	8d d2       	rcall	.+1306   	; 0x2918 <strnlen>
    23fe:	4c 01       	movw	r8, r24
    2400:	82 01       	movw	r16, r4
    2402:	f3 2d       	mov	r31, r3
    2404:	ff 77       	andi	r31, 0x7F	; 127
    2406:	3f 2e       	mov	r3, r31
    2408:	15 c0       	rjmp	.+42     	; 0x2434 <vfprintf+0x1a4>
    240a:	28 01       	movw	r4, r16
    240c:	22 e0       	ldi	r18, 0x02	; 2
    240e:	42 0e       	add	r4, r18
    2410:	51 1c       	adc	r5, r1
    2412:	f8 01       	movw	r30, r16
    2414:	a0 80       	ld	r10, Z
    2416:	b1 80       	ldd	r11, Z+1	; 0x01
    2418:	36 fe       	sbrs	r3, 6
    241a:	03 c0       	rjmp	.+6      	; 0x2422 <vfprintf+0x192>
    241c:	69 2d       	mov	r22, r9
    241e:	70 e0       	ldi	r23, 0x00	; 0
    2420:	02 c0       	rjmp	.+4      	; 0x2426 <vfprintf+0x196>
    2422:	6f ef       	ldi	r22, 0xFF	; 255
    2424:	7f ef       	ldi	r23, 0xFF	; 255
    2426:	c5 01       	movw	r24, r10
    2428:	65 d2       	rcall	.+1226   	; 0x28f4 <strnlen_P>
    242a:	4c 01       	movw	r8, r24
    242c:	f3 2d       	mov	r31, r3
    242e:	f0 68       	ori	r31, 0x80	; 128
    2430:	3f 2e       	mov	r3, r31
    2432:	82 01       	movw	r16, r4
    2434:	33 fc       	sbrc	r3, 3
    2436:	19 c0       	rjmp	.+50     	; 0x246a <vfprintf+0x1da>
    2438:	82 2d       	mov	r24, r2
    243a:	90 e0       	ldi	r25, 0x00	; 0
    243c:	88 16       	cp	r8, r24
    243e:	99 06       	cpc	r9, r25
    2440:	a0 f4       	brcc	.+40     	; 0x246a <vfprintf+0x1da>
    2442:	b6 01       	movw	r22, r12
    2444:	80 e2       	ldi	r24, 0x20	; 32
    2446:	90 e0       	ldi	r25, 0x00	; 0
    2448:	72 d2       	rcall	.+1252   	; 0x292e <fputc>
    244a:	2a 94       	dec	r2
    244c:	f5 cf       	rjmp	.-22     	; 0x2438 <vfprintf+0x1a8>
    244e:	f5 01       	movw	r30, r10
    2450:	37 fc       	sbrc	r3, 7
    2452:	85 91       	lpm	r24, Z+
    2454:	37 fe       	sbrs	r3, 7
    2456:	81 91       	ld	r24, Z+
    2458:	5f 01       	movw	r10, r30
    245a:	b6 01       	movw	r22, r12
    245c:	90 e0       	ldi	r25, 0x00	; 0
    245e:	67 d2       	rcall	.+1230   	; 0x292e <fputc>
    2460:	21 10       	cpse	r2, r1
    2462:	2a 94       	dec	r2
    2464:	21 e0       	ldi	r18, 0x01	; 1
    2466:	82 1a       	sub	r8, r18
    2468:	91 08       	sbc	r9, r1
    246a:	81 14       	cp	r8, r1
    246c:	91 04       	cpc	r9, r1
    246e:	79 f7       	brne	.-34     	; 0x244e <vfprintf+0x1be>
    2470:	e1 c0       	rjmp	.+450    	; 0x2634 <vfprintf+0x3a4>
    2472:	84 36       	cpi	r24, 0x64	; 100
    2474:	11 f0       	breq	.+4      	; 0x247a <vfprintf+0x1ea>
    2476:	89 36       	cpi	r24, 0x69	; 105
    2478:	39 f5       	brne	.+78     	; 0x24c8 <vfprintf+0x238>
    247a:	f8 01       	movw	r30, r16
    247c:	37 fe       	sbrs	r3, 7
    247e:	07 c0       	rjmp	.+14     	; 0x248e <vfprintf+0x1fe>
    2480:	60 81       	ld	r22, Z
    2482:	71 81       	ldd	r23, Z+1	; 0x01
    2484:	82 81       	ldd	r24, Z+2	; 0x02
    2486:	93 81       	ldd	r25, Z+3	; 0x03
    2488:	0c 5f       	subi	r16, 0xFC	; 252
    248a:	1f 4f       	sbci	r17, 0xFF	; 255
    248c:	08 c0       	rjmp	.+16     	; 0x249e <vfprintf+0x20e>
    248e:	60 81       	ld	r22, Z
    2490:	71 81       	ldd	r23, Z+1	; 0x01
    2492:	07 2e       	mov	r0, r23
    2494:	00 0c       	add	r0, r0
    2496:	88 0b       	sbc	r24, r24
    2498:	99 0b       	sbc	r25, r25
    249a:	0e 5f       	subi	r16, 0xFE	; 254
    249c:	1f 4f       	sbci	r17, 0xFF	; 255
    249e:	f3 2d       	mov	r31, r3
    24a0:	ff 76       	andi	r31, 0x6F	; 111
    24a2:	3f 2e       	mov	r3, r31
    24a4:	97 ff       	sbrs	r25, 7
    24a6:	09 c0       	rjmp	.+18     	; 0x24ba <vfprintf+0x22a>
    24a8:	90 95       	com	r25
    24aa:	80 95       	com	r24
    24ac:	70 95       	com	r23
    24ae:	61 95       	neg	r22
    24b0:	7f 4f       	sbci	r23, 0xFF	; 255
    24b2:	8f 4f       	sbci	r24, 0xFF	; 255
    24b4:	9f 4f       	sbci	r25, 0xFF	; 255
    24b6:	f0 68       	ori	r31, 0x80	; 128
    24b8:	3f 2e       	mov	r3, r31
    24ba:	2a e0       	ldi	r18, 0x0A	; 10
    24bc:	30 e0       	ldi	r19, 0x00	; 0
    24be:	a3 01       	movw	r20, r6
    24c0:	72 d2       	rcall	.+1252   	; 0x29a6 <__ultoa_invert>
    24c2:	88 2e       	mov	r8, r24
    24c4:	86 18       	sub	r8, r6
    24c6:	44 c0       	rjmp	.+136    	; 0x2550 <vfprintf+0x2c0>
    24c8:	85 37       	cpi	r24, 0x75	; 117
    24ca:	31 f4       	brne	.+12     	; 0x24d8 <vfprintf+0x248>
    24cc:	23 2d       	mov	r18, r3
    24ce:	2f 7e       	andi	r18, 0xEF	; 239
    24d0:	b2 2e       	mov	r11, r18
    24d2:	2a e0       	ldi	r18, 0x0A	; 10
    24d4:	30 e0       	ldi	r19, 0x00	; 0
    24d6:	25 c0       	rjmp	.+74     	; 0x2522 <vfprintf+0x292>
    24d8:	93 2d       	mov	r25, r3
    24da:	99 7f       	andi	r25, 0xF9	; 249
    24dc:	b9 2e       	mov	r11, r25
    24de:	8f 36       	cpi	r24, 0x6F	; 111
    24e0:	c1 f0       	breq	.+48     	; 0x2512 <vfprintf+0x282>
    24e2:	18 f4       	brcc	.+6      	; 0x24ea <vfprintf+0x25a>
    24e4:	88 35       	cpi	r24, 0x58	; 88
    24e6:	79 f0       	breq	.+30     	; 0x2506 <vfprintf+0x276>
    24e8:	ae c0       	rjmp	.+348    	; 0x2646 <vfprintf+0x3b6>
    24ea:	80 37       	cpi	r24, 0x70	; 112
    24ec:	19 f0       	breq	.+6      	; 0x24f4 <vfprintf+0x264>
    24ee:	88 37       	cpi	r24, 0x78	; 120
    24f0:	21 f0       	breq	.+8      	; 0x24fa <vfprintf+0x26a>
    24f2:	a9 c0       	rjmp	.+338    	; 0x2646 <vfprintf+0x3b6>
    24f4:	e9 2f       	mov	r30, r25
    24f6:	e0 61       	ori	r30, 0x10	; 16
    24f8:	be 2e       	mov	r11, r30
    24fa:	b4 fe       	sbrs	r11, 4
    24fc:	0d c0       	rjmp	.+26     	; 0x2518 <vfprintf+0x288>
    24fe:	fb 2d       	mov	r31, r11
    2500:	f4 60       	ori	r31, 0x04	; 4
    2502:	bf 2e       	mov	r11, r31
    2504:	09 c0       	rjmp	.+18     	; 0x2518 <vfprintf+0x288>
    2506:	34 fe       	sbrs	r3, 4
    2508:	0a c0       	rjmp	.+20     	; 0x251e <vfprintf+0x28e>
    250a:	29 2f       	mov	r18, r25
    250c:	26 60       	ori	r18, 0x06	; 6
    250e:	b2 2e       	mov	r11, r18
    2510:	06 c0       	rjmp	.+12     	; 0x251e <vfprintf+0x28e>
    2512:	28 e0       	ldi	r18, 0x08	; 8
    2514:	30 e0       	ldi	r19, 0x00	; 0
    2516:	05 c0       	rjmp	.+10     	; 0x2522 <vfprintf+0x292>
    2518:	20 e1       	ldi	r18, 0x10	; 16
    251a:	30 e0       	ldi	r19, 0x00	; 0
    251c:	02 c0       	rjmp	.+4      	; 0x2522 <vfprintf+0x292>
    251e:	20 e1       	ldi	r18, 0x10	; 16
    2520:	32 e0       	ldi	r19, 0x02	; 2
    2522:	f8 01       	movw	r30, r16
    2524:	b7 fe       	sbrs	r11, 7
    2526:	07 c0       	rjmp	.+14     	; 0x2536 <vfprintf+0x2a6>
    2528:	60 81       	ld	r22, Z
    252a:	71 81       	ldd	r23, Z+1	; 0x01
    252c:	82 81       	ldd	r24, Z+2	; 0x02
    252e:	93 81       	ldd	r25, Z+3	; 0x03
    2530:	0c 5f       	subi	r16, 0xFC	; 252
    2532:	1f 4f       	sbci	r17, 0xFF	; 255
    2534:	06 c0       	rjmp	.+12     	; 0x2542 <vfprintf+0x2b2>
    2536:	60 81       	ld	r22, Z
    2538:	71 81       	ldd	r23, Z+1	; 0x01
    253a:	80 e0       	ldi	r24, 0x00	; 0
    253c:	90 e0       	ldi	r25, 0x00	; 0
    253e:	0e 5f       	subi	r16, 0xFE	; 254
    2540:	1f 4f       	sbci	r17, 0xFF	; 255
    2542:	a3 01       	movw	r20, r6
    2544:	30 d2       	rcall	.+1120   	; 0x29a6 <__ultoa_invert>
    2546:	88 2e       	mov	r8, r24
    2548:	86 18       	sub	r8, r6
    254a:	fb 2d       	mov	r31, r11
    254c:	ff 77       	andi	r31, 0x7F	; 127
    254e:	3f 2e       	mov	r3, r31
    2550:	36 fe       	sbrs	r3, 6
    2552:	0d c0       	rjmp	.+26     	; 0x256e <vfprintf+0x2de>
    2554:	23 2d       	mov	r18, r3
    2556:	2e 7f       	andi	r18, 0xFE	; 254
    2558:	a2 2e       	mov	r10, r18
    255a:	89 14       	cp	r8, r9
    255c:	58 f4       	brcc	.+22     	; 0x2574 <vfprintf+0x2e4>
    255e:	34 fe       	sbrs	r3, 4
    2560:	0b c0       	rjmp	.+22     	; 0x2578 <vfprintf+0x2e8>
    2562:	32 fc       	sbrc	r3, 2
    2564:	09 c0       	rjmp	.+18     	; 0x2578 <vfprintf+0x2e8>
    2566:	83 2d       	mov	r24, r3
    2568:	8e 7e       	andi	r24, 0xEE	; 238
    256a:	a8 2e       	mov	r10, r24
    256c:	05 c0       	rjmp	.+10     	; 0x2578 <vfprintf+0x2e8>
    256e:	b8 2c       	mov	r11, r8
    2570:	a3 2c       	mov	r10, r3
    2572:	03 c0       	rjmp	.+6      	; 0x257a <vfprintf+0x2ea>
    2574:	b8 2c       	mov	r11, r8
    2576:	01 c0       	rjmp	.+2      	; 0x257a <vfprintf+0x2ea>
    2578:	b9 2c       	mov	r11, r9
    257a:	a4 fe       	sbrs	r10, 4
    257c:	0f c0       	rjmp	.+30     	; 0x259c <vfprintf+0x30c>
    257e:	fe 01       	movw	r30, r28
    2580:	e8 0d       	add	r30, r8
    2582:	f1 1d       	adc	r31, r1
    2584:	80 81       	ld	r24, Z
    2586:	80 33       	cpi	r24, 0x30	; 48
    2588:	21 f4       	brne	.+8      	; 0x2592 <vfprintf+0x302>
    258a:	9a 2d       	mov	r25, r10
    258c:	99 7e       	andi	r25, 0xE9	; 233
    258e:	a9 2e       	mov	r10, r25
    2590:	09 c0       	rjmp	.+18     	; 0x25a4 <vfprintf+0x314>
    2592:	a2 fe       	sbrs	r10, 2
    2594:	06 c0       	rjmp	.+12     	; 0x25a2 <vfprintf+0x312>
    2596:	b3 94       	inc	r11
    2598:	b3 94       	inc	r11
    259a:	04 c0       	rjmp	.+8      	; 0x25a4 <vfprintf+0x314>
    259c:	8a 2d       	mov	r24, r10
    259e:	86 78       	andi	r24, 0x86	; 134
    25a0:	09 f0       	breq	.+2      	; 0x25a4 <vfprintf+0x314>
    25a2:	b3 94       	inc	r11
    25a4:	a3 fc       	sbrc	r10, 3
    25a6:	10 c0       	rjmp	.+32     	; 0x25c8 <vfprintf+0x338>
    25a8:	a0 fe       	sbrs	r10, 0
    25aa:	06 c0       	rjmp	.+12     	; 0x25b8 <vfprintf+0x328>
    25ac:	b2 14       	cp	r11, r2
    25ae:	80 f4       	brcc	.+32     	; 0x25d0 <vfprintf+0x340>
    25b0:	28 0c       	add	r2, r8
    25b2:	92 2c       	mov	r9, r2
    25b4:	9b 18       	sub	r9, r11
    25b6:	0d c0       	rjmp	.+26     	; 0x25d2 <vfprintf+0x342>
    25b8:	b2 14       	cp	r11, r2
    25ba:	58 f4       	brcc	.+22     	; 0x25d2 <vfprintf+0x342>
    25bc:	b6 01       	movw	r22, r12
    25be:	80 e2       	ldi	r24, 0x20	; 32
    25c0:	90 e0       	ldi	r25, 0x00	; 0
    25c2:	b5 d1       	rcall	.+874    	; 0x292e <fputc>
    25c4:	b3 94       	inc	r11
    25c6:	f8 cf       	rjmp	.-16     	; 0x25b8 <vfprintf+0x328>
    25c8:	b2 14       	cp	r11, r2
    25ca:	18 f4       	brcc	.+6      	; 0x25d2 <vfprintf+0x342>
    25cc:	2b 18       	sub	r2, r11
    25ce:	02 c0       	rjmp	.+4      	; 0x25d4 <vfprintf+0x344>
    25d0:	98 2c       	mov	r9, r8
    25d2:	21 2c       	mov	r2, r1
    25d4:	a4 fe       	sbrs	r10, 4
    25d6:	0f c0       	rjmp	.+30     	; 0x25f6 <vfprintf+0x366>
    25d8:	b6 01       	movw	r22, r12
    25da:	80 e3       	ldi	r24, 0x30	; 48
    25dc:	90 e0       	ldi	r25, 0x00	; 0
    25de:	a7 d1       	rcall	.+846    	; 0x292e <fputc>
    25e0:	a2 fe       	sbrs	r10, 2
    25e2:	16 c0       	rjmp	.+44     	; 0x2610 <vfprintf+0x380>
    25e4:	a1 fc       	sbrc	r10, 1
    25e6:	03 c0       	rjmp	.+6      	; 0x25ee <vfprintf+0x35e>
    25e8:	88 e7       	ldi	r24, 0x78	; 120
    25ea:	90 e0       	ldi	r25, 0x00	; 0
    25ec:	02 c0       	rjmp	.+4      	; 0x25f2 <vfprintf+0x362>
    25ee:	88 e5       	ldi	r24, 0x58	; 88
    25f0:	90 e0       	ldi	r25, 0x00	; 0
    25f2:	b6 01       	movw	r22, r12
    25f4:	0c c0       	rjmp	.+24     	; 0x260e <vfprintf+0x37e>
    25f6:	8a 2d       	mov	r24, r10
    25f8:	86 78       	andi	r24, 0x86	; 134
    25fa:	51 f0       	breq	.+20     	; 0x2610 <vfprintf+0x380>
    25fc:	a1 fe       	sbrs	r10, 1
    25fe:	02 c0       	rjmp	.+4      	; 0x2604 <vfprintf+0x374>
    2600:	8b e2       	ldi	r24, 0x2B	; 43
    2602:	01 c0       	rjmp	.+2      	; 0x2606 <vfprintf+0x376>
    2604:	80 e2       	ldi	r24, 0x20	; 32
    2606:	a7 fc       	sbrc	r10, 7
    2608:	8d e2       	ldi	r24, 0x2D	; 45
    260a:	b6 01       	movw	r22, r12
    260c:	90 e0       	ldi	r25, 0x00	; 0
    260e:	8f d1       	rcall	.+798    	; 0x292e <fputc>
    2610:	89 14       	cp	r8, r9
    2612:	30 f4       	brcc	.+12     	; 0x2620 <vfprintf+0x390>
    2614:	b6 01       	movw	r22, r12
    2616:	80 e3       	ldi	r24, 0x30	; 48
    2618:	90 e0       	ldi	r25, 0x00	; 0
    261a:	89 d1       	rcall	.+786    	; 0x292e <fputc>
    261c:	9a 94       	dec	r9
    261e:	f8 cf       	rjmp	.-16     	; 0x2610 <vfprintf+0x380>
    2620:	8a 94       	dec	r8
    2622:	f3 01       	movw	r30, r6
    2624:	e8 0d       	add	r30, r8
    2626:	f1 1d       	adc	r31, r1
    2628:	80 81       	ld	r24, Z
    262a:	b6 01       	movw	r22, r12
    262c:	90 e0       	ldi	r25, 0x00	; 0
    262e:	7f d1       	rcall	.+766    	; 0x292e <fputc>
    2630:	81 10       	cpse	r8, r1
    2632:	f6 cf       	rjmp	.-20     	; 0x2620 <vfprintf+0x390>
    2634:	22 20       	and	r2, r2
    2636:	09 f4       	brne	.+2      	; 0x263a <vfprintf+0x3aa>
    2638:	4e ce       	rjmp	.-868    	; 0x22d6 <vfprintf+0x46>
    263a:	b6 01       	movw	r22, r12
    263c:	80 e2       	ldi	r24, 0x20	; 32
    263e:	90 e0       	ldi	r25, 0x00	; 0
    2640:	76 d1       	rcall	.+748    	; 0x292e <fputc>
    2642:	2a 94       	dec	r2
    2644:	f7 cf       	rjmp	.-18     	; 0x2634 <vfprintf+0x3a4>
    2646:	f6 01       	movw	r30, r12
    2648:	86 81       	ldd	r24, Z+6	; 0x06
    264a:	97 81       	ldd	r25, Z+7	; 0x07
    264c:	02 c0       	rjmp	.+4      	; 0x2652 <vfprintf+0x3c2>
    264e:	8f ef       	ldi	r24, 0xFF	; 255
    2650:	9f ef       	ldi	r25, 0xFF	; 255
    2652:	2b 96       	adiw	r28, 0x0b	; 11
    2654:	cd bf       	out	0x3d, r28	; 61
    2656:	de bf       	out	0x3e, r29	; 62
    2658:	df 91       	pop	r29
    265a:	cf 91       	pop	r28
    265c:	1f 91       	pop	r17
    265e:	0f 91       	pop	r16
    2660:	ff 90       	pop	r15
    2662:	ef 90       	pop	r14
    2664:	df 90       	pop	r13
    2666:	cf 90       	pop	r12
    2668:	bf 90       	pop	r11
    266a:	af 90       	pop	r10
    266c:	9f 90       	pop	r9
    266e:	8f 90       	pop	r8
    2670:	7f 90       	pop	r7
    2672:	6f 90       	pop	r6
    2674:	5f 90       	pop	r5
    2676:	4f 90       	pop	r4
    2678:	3f 90       	pop	r3
    267a:	2f 90       	pop	r2
    267c:	08 95       	ret

0000267e <calloc>:
    267e:	0f 93       	push	r16
    2680:	1f 93       	push	r17
    2682:	cf 93       	push	r28
    2684:	df 93       	push	r29
    2686:	86 9f       	mul	r24, r22
    2688:	80 01       	movw	r16, r0
    268a:	87 9f       	mul	r24, r23
    268c:	10 0d       	add	r17, r0
    268e:	96 9f       	mul	r25, r22
    2690:	10 0d       	add	r17, r0
    2692:	11 24       	eor	r1, r1
    2694:	c8 01       	movw	r24, r16
    2696:	0d d0       	rcall	.+26     	; 0x26b2 <malloc>
    2698:	ec 01       	movw	r28, r24
    269a:	00 97       	sbiw	r24, 0x00	; 0
    269c:	21 f0       	breq	.+8      	; 0x26a6 <calloc+0x28>
    269e:	a8 01       	movw	r20, r16
    26a0:	60 e0       	ldi	r22, 0x00	; 0
    26a2:	70 e0       	ldi	r23, 0x00	; 0
    26a4:	32 d1       	rcall	.+612    	; 0x290a <memset>
    26a6:	ce 01       	movw	r24, r28
    26a8:	df 91       	pop	r29
    26aa:	cf 91       	pop	r28
    26ac:	1f 91       	pop	r17
    26ae:	0f 91       	pop	r16
    26b0:	08 95       	ret

000026b2 <malloc>:
    26b2:	0f 93       	push	r16
    26b4:	1f 93       	push	r17
    26b6:	cf 93       	push	r28
    26b8:	df 93       	push	r29
    26ba:	82 30       	cpi	r24, 0x02	; 2
    26bc:	91 05       	cpc	r25, r1
    26be:	10 f4       	brcc	.+4      	; 0x26c4 <malloc+0x12>
    26c0:	82 e0       	ldi	r24, 0x02	; 2
    26c2:	90 e0       	ldi	r25, 0x00	; 0
    26c4:	e0 91 f3 21 	lds	r30, 0x21F3	; 0x8021f3 <__flp>
    26c8:	f0 91 f4 21 	lds	r31, 0x21F4	; 0x8021f4 <__flp+0x1>
    26cc:	20 e0       	ldi	r18, 0x00	; 0
    26ce:	30 e0       	ldi	r19, 0x00	; 0
    26d0:	a0 e0       	ldi	r26, 0x00	; 0
    26d2:	b0 e0       	ldi	r27, 0x00	; 0
    26d4:	30 97       	sbiw	r30, 0x00	; 0
    26d6:	19 f1       	breq	.+70     	; 0x271e <malloc+0x6c>
    26d8:	40 81       	ld	r20, Z
    26da:	51 81       	ldd	r21, Z+1	; 0x01
    26dc:	02 81       	ldd	r16, Z+2	; 0x02
    26de:	13 81       	ldd	r17, Z+3	; 0x03
    26e0:	48 17       	cp	r20, r24
    26e2:	59 07       	cpc	r21, r25
    26e4:	c8 f0       	brcs	.+50     	; 0x2718 <malloc+0x66>
    26e6:	84 17       	cp	r24, r20
    26e8:	95 07       	cpc	r25, r21
    26ea:	69 f4       	brne	.+26     	; 0x2706 <malloc+0x54>
    26ec:	10 97       	sbiw	r26, 0x00	; 0
    26ee:	31 f0       	breq	.+12     	; 0x26fc <malloc+0x4a>
    26f0:	12 96       	adiw	r26, 0x02	; 2
    26f2:	0c 93       	st	X, r16
    26f4:	12 97       	sbiw	r26, 0x02	; 2
    26f6:	13 96       	adiw	r26, 0x03	; 3
    26f8:	1c 93       	st	X, r17
    26fa:	27 c0       	rjmp	.+78     	; 0x274a <malloc+0x98>
    26fc:	00 93 f3 21 	sts	0x21F3, r16	; 0x8021f3 <__flp>
    2700:	10 93 f4 21 	sts	0x21F4, r17	; 0x8021f4 <__flp+0x1>
    2704:	22 c0       	rjmp	.+68     	; 0x274a <malloc+0x98>
    2706:	21 15       	cp	r18, r1
    2708:	31 05       	cpc	r19, r1
    270a:	19 f0       	breq	.+6      	; 0x2712 <malloc+0x60>
    270c:	42 17       	cp	r20, r18
    270e:	53 07       	cpc	r21, r19
    2710:	18 f4       	brcc	.+6      	; 0x2718 <malloc+0x66>
    2712:	9a 01       	movw	r18, r20
    2714:	bd 01       	movw	r22, r26
    2716:	ef 01       	movw	r28, r30
    2718:	df 01       	movw	r26, r30
    271a:	f8 01       	movw	r30, r16
    271c:	db cf       	rjmp	.-74     	; 0x26d4 <malloc+0x22>
    271e:	21 15       	cp	r18, r1
    2720:	31 05       	cpc	r19, r1
    2722:	f9 f0       	breq	.+62     	; 0x2762 <malloc+0xb0>
    2724:	28 1b       	sub	r18, r24
    2726:	39 0b       	sbc	r19, r25
    2728:	24 30       	cpi	r18, 0x04	; 4
    272a:	31 05       	cpc	r19, r1
    272c:	80 f4       	brcc	.+32     	; 0x274e <malloc+0x9c>
    272e:	8a 81       	ldd	r24, Y+2	; 0x02
    2730:	9b 81       	ldd	r25, Y+3	; 0x03
    2732:	61 15       	cp	r22, r1
    2734:	71 05       	cpc	r23, r1
    2736:	21 f0       	breq	.+8      	; 0x2740 <malloc+0x8e>
    2738:	fb 01       	movw	r30, r22
    273a:	82 83       	std	Z+2, r24	; 0x02
    273c:	93 83       	std	Z+3, r25	; 0x03
    273e:	04 c0       	rjmp	.+8      	; 0x2748 <malloc+0x96>
    2740:	80 93 f3 21 	sts	0x21F3, r24	; 0x8021f3 <__flp>
    2744:	90 93 f4 21 	sts	0x21F4, r25	; 0x8021f4 <__flp+0x1>
    2748:	fe 01       	movw	r30, r28
    274a:	32 96       	adiw	r30, 0x02	; 2
    274c:	44 c0       	rjmp	.+136    	; 0x27d6 <malloc+0x124>
    274e:	fe 01       	movw	r30, r28
    2750:	e2 0f       	add	r30, r18
    2752:	f3 1f       	adc	r31, r19
    2754:	81 93       	st	Z+, r24
    2756:	91 93       	st	Z+, r25
    2758:	22 50       	subi	r18, 0x02	; 2
    275a:	31 09       	sbc	r19, r1
    275c:	28 83       	st	Y, r18
    275e:	39 83       	std	Y+1, r19	; 0x01
    2760:	3a c0       	rjmp	.+116    	; 0x27d6 <malloc+0x124>
    2762:	20 91 f1 21 	lds	r18, 0x21F1	; 0x8021f1 <__brkval>
    2766:	30 91 f2 21 	lds	r19, 0x21F2	; 0x8021f2 <__brkval+0x1>
    276a:	23 2b       	or	r18, r19
    276c:	41 f4       	brne	.+16     	; 0x277e <malloc+0xcc>
    276e:	20 91 02 20 	lds	r18, 0x2002	; 0x802002 <__malloc_heap_start>
    2772:	30 91 03 20 	lds	r19, 0x2003	; 0x802003 <__malloc_heap_start+0x1>
    2776:	20 93 f1 21 	sts	0x21F1, r18	; 0x8021f1 <__brkval>
    277a:	30 93 f2 21 	sts	0x21F2, r19	; 0x8021f2 <__brkval+0x1>
    277e:	20 91 00 20 	lds	r18, 0x2000	; 0x802000 <__data_start>
    2782:	30 91 01 20 	lds	r19, 0x2001	; 0x802001 <__data_start+0x1>
    2786:	21 15       	cp	r18, r1
    2788:	31 05       	cpc	r19, r1
    278a:	41 f4       	brne	.+16     	; 0x279c <malloc+0xea>
    278c:	2d b7       	in	r18, 0x3d	; 61
    278e:	3e b7       	in	r19, 0x3e	; 62
    2790:	40 91 04 20 	lds	r20, 0x2004	; 0x802004 <__malloc_margin>
    2794:	50 91 05 20 	lds	r21, 0x2005	; 0x802005 <__malloc_margin+0x1>
    2798:	24 1b       	sub	r18, r20
    279a:	35 0b       	sbc	r19, r21
    279c:	e0 91 f1 21 	lds	r30, 0x21F1	; 0x8021f1 <__brkval>
    27a0:	f0 91 f2 21 	lds	r31, 0x21F2	; 0x8021f2 <__brkval+0x1>
    27a4:	e2 17       	cp	r30, r18
    27a6:	f3 07       	cpc	r31, r19
    27a8:	a0 f4       	brcc	.+40     	; 0x27d2 <malloc+0x120>
    27aa:	2e 1b       	sub	r18, r30
    27ac:	3f 0b       	sbc	r19, r31
    27ae:	28 17       	cp	r18, r24
    27b0:	39 07       	cpc	r19, r25
    27b2:	78 f0       	brcs	.+30     	; 0x27d2 <malloc+0x120>
    27b4:	ac 01       	movw	r20, r24
    27b6:	4e 5f       	subi	r20, 0xFE	; 254
    27b8:	5f 4f       	sbci	r21, 0xFF	; 255
    27ba:	24 17       	cp	r18, r20
    27bc:	35 07       	cpc	r19, r21
    27be:	48 f0       	brcs	.+18     	; 0x27d2 <malloc+0x120>
    27c0:	4e 0f       	add	r20, r30
    27c2:	5f 1f       	adc	r21, r31
    27c4:	40 93 f1 21 	sts	0x21F1, r20	; 0x8021f1 <__brkval>
    27c8:	50 93 f2 21 	sts	0x21F2, r21	; 0x8021f2 <__brkval+0x1>
    27cc:	81 93       	st	Z+, r24
    27ce:	91 93       	st	Z+, r25
    27d0:	02 c0       	rjmp	.+4      	; 0x27d6 <malloc+0x124>
    27d2:	e0 e0       	ldi	r30, 0x00	; 0
    27d4:	f0 e0       	ldi	r31, 0x00	; 0
    27d6:	cf 01       	movw	r24, r30
    27d8:	df 91       	pop	r29
    27da:	cf 91       	pop	r28
    27dc:	1f 91       	pop	r17
    27de:	0f 91       	pop	r16
    27e0:	08 95       	ret

000027e2 <free>:
    27e2:	cf 93       	push	r28
    27e4:	df 93       	push	r29
    27e6:	00 97       	sbiw	r24, 0x00	; 0
    27e8:	09 f4       	brne	.+2      	; 0x27ec <free+0xa>
    27ea:	81 c0       	rjmp	.+258    	; 0x28ee <free+0x10c>
    27ec:	fc 01       	movw	r30, r24
    27ee:	32 97       	sbiw	r30, 0x02	; 2
    27f0:	12 82       	std	Z+2, r1	; 0x02
    27f2:	13 82       	std	Z+3, r1	; 0x03
    27f4:	a0 91 f3 21 	lds	r26, 0x21F3	; 0x8021f3 <__flp>
    27f8:	b0 91 f4 21 	lds	r27, 0x21F4	; 0x8021f4 <__flp+0x1>
    27fc:	10 97       	sbiw	r26, 0x00	; 0
    27fe:	81 f4       	brne	.+32     	; 0x2820 <free+0x3e>
    2800:	20 81       	ld	r18, Z
    2802:	31 81       	ldd	r19, Z+1	; 0x01
    2804:	82 0f       	add	r24, r18
    2806:	93 1f       	adc	r25, r19
    2808:	20 91 f1 21 	lds	r18, 0x21F1	; 0x8021f1 <__brkval>
    280c:	30 91 f2 21 	lds	r19, 0x21F2	; 0x8021f2 <__brkval+0x1>
    2810:	28 17       	cp	r18, r24
    2812:	39 07       	cpc	r19, r25
    2814:	51 f5       	brne	.+84     	; 0x286a <free+0x88>
    2816:	e0 93 f1 21 	sts	0x21F1, r30	; 0x8021f1 <__brkval>
    281a:	f0 93 f2 21 	sts	0x21F2, r31	; 0x8021f2 <__brkval+0x1>
    281e:	67 c0       	rjmp	.+206    	; 0x28ee <free+0x10c>
    2820:	ed 01       	movw	r28, r26
    2822:	20 e0       	ldi	r18, 0x00	; 0
    2824:	30 e0       	ldi	r19, 0x00	; 0
    2826:	ce 17       	cp	r28, r30
    2828:	df 07       	cpc	r29, r31
    282a:	40 f4       	brcc	.+16     	; 0x283c <free+0x5a>
    282c:	4a 81       	ldd	r20, Y+2	; 0x02
    282e:	5b 81       	ldd	r21, Y+3	; 0x03
    2830:	9e 01       	movw	r18, r28
    2832:	41 15       	cp	r20, r1
    2834:	51 05       	cpc	r21, r1
    2836:	f1 f0       	breq	.+60     	; 0x2874 <free+0x92>
    2838:	ea 01       	movw	r28, r20
    283a:	f5 cf       	rjmp	.-22     	; 0x2826 <free+0x44>
    283c:	c2 83       	std	Z+2, r28	; 0x02
    283e:	d3 83       	std	Z+3, r29	; 0x03
    2840:	40 81       	ld	r20, Z
    2842:	51 81       	ldd	r21, Z+1	; 0x01
    2844:	84 0f       	add	r24, r20
    2846:	95 1f       	adc	r25, r21
    2848:	c8 17       	cp	r28, r24
    284a:	d9 07       	cpc	r29, r25
    284c:	59 f4       	brne	.+22     	; 0x2864 <free+0x82>
    284e:	88 81       	ld	r24, Y
    2850:	99 81       	ldd	r25, Y+1	; 0x01
    2852:	84 0f       	add	r24, r20
    2854:	95 1f       	adc	r25, r21
    2856:	02 96       	adiw	r24, 0x02	; 2
    2858:	80 83       	st	Z, r24
    285a:	91 83       	std	Z+1, r25	; 0x01
    285c:	8a 81       	ldd	r24, Y+2	; 0x02
    285e:	9b 81       	ldd	r25, Y+3	; 0x03
    2860:	82 83       	std	Z+2, r24	; 0x02
    2862:	93 83       	std	Z+3, r25	; 0x03
    2864:	21 15       	cp	r18, r1
    2866:	31 05       	cpc	r19, r1
    2868:	29 f4       	brne	.+10     	; 0x2874 <free+0x92>
    286a:	e0 93 f3 21 	sts	0x21F3, r30	; 0x8021f3 <__flp>
    286e:	f0 93 f4 21 	sts	0x21F4, r31	; 0x8021f4 <__flp+0x1>
    2872:	3d c0       	rjmp	.+122    	; 0x28ee <free+0x10c>
    2874:	e9 01       	movw	r28, r18
    2876:	ea 83       	std	Y+2, r30	; 0x02
    2878:	fb 83       	std	Y+3, r31	; 0x03
    287a:	49 91       	ld	r20, Y+
    287c:	59 91       	ld	r21, Y+
    287e:	c4 0f       	add	r28, r20
    2880:	d5 1f       	adc	r29, r21
    2882:	ec 17       	cp	r30, r28
    2884:	fd 07       	cpc	r31, r29
    2886:	61 f4       	brne	.+24     	; 0x28a0 <free+0xbe>
    2888:	80 81       	ld	r24, Z
    288a:	91 81       	ldd	r25, Z+1	; 0x01
    288c:	84 0f       	add	r24, r20
    288e:	95 1f       	adc	r25, r21
    2890:	02 96       	adiw	r24, 0x02	; 2
    2892:	e9 01       	movw	r28, r18
    2894:	88 83       	st	Y, r24
    2896:	99 83       	std	Y+1, r25	; 0x01
    2898:	82 81       	ldd	r24, Z+2	; 0x02
    289a:	93 81       	ldd	r25, Z+3	; 0x03
    289c:	8a 83       	std	Y+2, r24	; 0x02
    289e:	9b 83       	std	Y+3, r25	; 0x03
    28a0:	e0 e0       	ldi	r30, 0x00	; 0
    28a2:	f0 e0       	ldi	r31, 0x00	; 0
    28a4:	12 96       	adiw	r26, 0x02	; 2
    28a6:	8d 91       	ld	r24, X+
    28a8:	9c 91       	ld	r25, X
    28aa:	13 97       	sbiw	r26, 0x03	; 3
    28ac:	00 97       	sbiw	r24, 0x00	; 0
    28ae:	19 f0       	breq	.+6      	; 0x28b6 <free+0xd4>
    28b0:	fd 01       	movw	r30, r26
    28b2:	dc 01       	movw	r26, r24
    28b4:	f7 cf       	rjmp	.-18     	; 0x28a4 <free+0xc2>
    28b6:	8d 91       	ld	r24, X+
    28b8:	9c 91       	ld	r25, X
    28ba:	11 97       	sbiw	r26, 0x01	; 1
    28bc:	9d 01       	movw	r18, r26
    28be:	2e 5f       	subi	r18, 0xFE	; 254
    28c0:	3f 4f       	sbci	r19, 0xFF	; 255
    28c2:	82 0f       	add	r24, r18
    28c4:	93 1f       	adc	r25, r19
    28c6:	20 91 f1 21 	lds	r18, 0x21F1	; 0x8021f1 <__brkval>
    28ca:	30 91 f2 21 	lds	r19, 0x21F2	; 0x8021f2 <__brkval+0x1>
    28ce:	28 17       	cp	r18, r24
    28d0:	39 07       	cpc	r19, r25
    28d2:	69 f4       	brne	.+26     	; 0x28ee <free+0x10c>
    28d4:	30 97       	sbiw	r30, 0x00	; 0
    28d6:	29 f4       	brne	.+10     	; 0x28e2 <free+0x100>
    28d8:	10 92 f3 21 	sts	0x21F3, r1	; 0x8021f3 <__flp>
    28dc:	10 92 f4 21 	sts	0x21F4, r1	; 0x8021f4 <__flp+0x1>
    28e0:	02 c0       	rjmp	.+4      	; 0x28e6 <free+0x104>
    28e2:	12 82       	std	Z+2, r1	; 0x02
    28e4:	13 82       	std	Z+3, r1	; 0x03
    28e6:	a0 93 f1 21 	sts	0x21F1, r26	; 0x8021f1 <__brkval>
    28ea:	b0 93 f2 21 	sts	0x21F2, r27	; 0x8021f2 <__brkval+0x1>
    28ee:	df 91       	pop	r29
    28f0:	cf 91       	pop	r28
    28f2:	08 95       	ret

000028f4 <strnlen_P>:
    28f4:	fc 01       	movw	r30, r24
    28f6:	05 90       	lpm	r0, Z+
    28f8:	61 50       	subi	r22, 0x01	; 1
    28fa:	70 40       	sbci	r23, 0x00	; 0
    28fc:	01 10       	cpse	r0, r1
    28fe:	d8 f7       	brcc	.-10     	; 0x28f6 <strnlen_P+0x2>
    2900:	80 95       	com	r24
    2902:	90 95       	com	r25
    2904:	8e 0f       	add	r24, r30
    2906:	9f 1f       	adc	r25, r31
    2908:	08 95       	ret

0000290a <memset>:
    290a:	dc 01       	movw	r26, r24
    290c:	01 c0       	rjmp	.+2      	; 0x2910 <memset+0x6>
    290e:	6d 93       	st	X+, r22
    2910:	41 50       	subi	r20, 0x01	; 1
    2912:	50 40       	sbci	r21, 0x00	; 0
    2914:	e0 f7       	brcc	.-8      	; 0x290e <memset+0x4>
    2916:	08 95       	ret

00002918 <strnlen>:
    2918:	fc 01       	movw	r30, r24
    291a:	61 50       	subi	r22, 0x01	; 1
    291c:	70 40       	sbci	r23, 0x00	; 0
    291e:	01 90       	ld	r0, Z+
    2920:	01 10       	cpse	r0, r1
    2922:	d8 f7       	brcc	.-10     	; 0x291a <strnlen+0x2>
    2924:	80 95       	com	r24
    2926:	90 95       	com	r25
    2928:	8e 0f       	add	r24, r30
    292a:	9f 1f       	adc	r25, r31
    292c:	08 95       	ret

0000292e <fputc>:
    292e:	0f 93       	push	r16
    2930:	1f 93       	push	r17
    2932:	cf 93       	push	r28
    2934:	df 93       	push	r29
    2936:	fb 01       	movw	r30, r22
    2938:	23 81       	ldd	r18, Z+3	; 0x03
    293a:	21 fd       	sbrc	r18, 1
    293c:	03 c0       	rjmp	.+6      	; 0x2944 <fputc+0x16>
    293e:	8f ef       	ldi	r24, 0xFF	; 255
    2940:	9f ef       	ldi	r25, 0xFF	; 255
    2942:	2c c0       	rjmp	.+88     	; 0x299c <fputc+0x6e>
    2944:	22 ff       	sbrs	r18, 2
    2946:	16 c0       	rjmp	.+44     	; 0x2974 <fputc+0x46>
    2948:	46 81       	ldd	r20, Z+6	; 0x06
    294a:	57 81       	ldd	r21, Z+7	; 0x07
    294c:	24 81       	ldd	r18, Z+4	; 0x04
    294e:	35 81       	ldd	r19, Z+5	; 0x05
    2950:	42 17       	cp	r20, r18
    2952:	53 07       	cpc	r21, r19
    2954:	44 f4       	brge	.+16     	; 0x2966 <fputc+0x38>
    2956:	a0 81       	ld	r26, Z
    2958:	b1 81       	ldd	r27, Z+1	; 0x01
    295a:	9d 01       	movw	r18, r26
    295c:	2f 5f       	subi	r18, 0xFF	; 255
    295e:	3f 4f       	sbci	r19, 0xFF	; 255
    2960:	20 83       	st	Z, r18
    2962:	31 83       	std	Z+1, r19	; 0x01
    2964:	8c 93       	st	X, r24
    2966:	26 81       	ldd	r18, Z+6	; 0x06
    2968:	37 81       	ldd	r19, Z+7	; 0x07
    296a:	2f 5f       	subi	r18, 0xFF	; 255
    296c:	3f 4f       	sbci	r19, 0xFF	; 255
    296e:	26 83       	std	Z+6, r18	; 0x06
    2970:	37 83       	std	Z+7, r19	; 0x07
    2972:	14 c0       	rjmp	.+40     	; 0x299c <fputc+0x6e>
    2974:	8b 01       	movw	r16, r22
    2976:	ec 01       	movw	r28, r24
    2978:	fb 01       	movw	r30, r22
    297a:	00 84       	ldd	r0, Z+8	; 0x08
    297c:	f1 85       	ldd	r31, Z+9	; 0x09
    297e:	e0 2d       	mov	r30, r0
    2980:	19 95       	eicall
    2982:	89 2b       	or	r24, r25
    2984:	e1 f6       	brne	.-72     	; 0x293e <fputc+0x10>
    2986:	d8 01       	movw	r26, r16
    2988:	16 96       	adiw	r26, 0x06	; 6
    298a:	8d 91       	ld	r24, X+
    298c:	9c 91       	ld	r25, X
    298e:	17 97       	sbiw	r26, 0x07	; 7
    2990:	01 96       	adiw	r24, 0x01	; 1
    2992:	16 96       	adiw	r26, 0x06	; 6
    2994:	8d 93       	st	X+, r24
    2996:	9c 93       	st	X, r25
    2998:	17 97       	sbiw	r26, 0x07	; 7
    299a:	ce 01       	movw	r24, r28
    299c:	df 91       	pop	r29
    299e:	cf 91       	pop	r28
    29a0:	1f 91       	pop	r17
    29a2:	0f 91       	pop	r16
    29a4:	08 95       	ret

000029a6 <__ultoa_invert>:
    29a6:	fa 01       	movw	r30, r20
    29a8:	aa 27       	eor	r26, r26
    29aa:	28 30       	cpi	r18, 0x08	; 8
    29ac:	51 f1       	breq	.+84     	; 0x2a02 <__ultoa_invert+0x5c>
    29ae:	20 31       	cpi	r18, 0x10	; 16
    29b0:	81 f1       	breq	.+96     	; 0x2a12 <__ultoa_invert+0x6c>
    29b2:	e8 94       	clt
    29b4:	6f 93       	push	r22
    29b6:	6e 7f       	andi	r22, 0xFE	; 254
    29b8:	6e 5f       	subi	r22, 0xFE	; 254
    29ba:	7f 4f       	sbci	r23, 0xFF	; 255
    29bc:	8f 4f       	sbci	r24, 0xFF	; 255
    29be:	9f 4f       	sbci	r25, 0xFF	; 255
    29c0:	af 4f       	sbci	r26, 0xFF	; 255
    29c2:	b1 e0       	ldi	r27, 0x01	; 1
    29c4:	3e d0       	rcall	.+124    	; 0x2a42 <__ultoa_invert+0x9c>
    29c6:	b4 e0       	ldi	r27, 0x04	; 4
    29c8:	3c d0       	rcall	.+120    	; 0x2a42 <__ultoa_invert+0x9c>
    29ca:	67 0f       	add	r22, r23
    29cc:	78 1f       	adc	r23, r24
    29ce:	89 1f       	adc	r24, r25
    29d0:	9a 1f       	adc	r25, r26
    29d2:	a1 1d       	adc	r26, r1
    29d4:	68 0f       	add	r22, r24
    29d6:	79 1f       	adc	r23, r25
    29d8:	8a 1f       	adc	r24, r26
    29da:	91 1d       	adc	r25, r1
    29dc:	a1 1d       	adc	r26, r1
    29de:	6a 0f       	add	r22, r26
    29e0:	71 1d       	adc	r23, r1
    29e2:	81 1d       	adc	r24, r1
    29e4:	91 1d       	adc	r25, r1
    29e6:	a1 1d       	adc	r26, r1
    29e8:	20 d0       	rcall	.+64     	; 0x2a2a <__ultoa_invert+0x84>
    29ea:	09 f4       	brne	.+2      	; 0x29ee <__ultoa_invert+0x48>
    29ec:	68 94       	set
    29ee:	3f 91       	pop	r19
    29f0:	2a e0       	ldi	r18, 0x0A	; 10
    29f2:	26 9f       	mul	r18, r22
    29f4:	11 24       	eor	r1, r1
    29f6:	30 19       	sub	r19, r0
    29f8:	30 5d       	subi	r19, 0xD0	; 208
    29fa:	31 93       	st	Z+, r19
    29fc:	de f6       	brtc	.-74     	; 0x29b4 <__ultoa_invert+0xe>
    29fe:	cf 01       	movw	r24, r30
    2a00:	08 95       	ret
    2a02:	46 2f       	mov	r20, r22
    2a04:	47 70       	andi	r20, 0x07	; 7
    2a06:	40 5d       	subi	r20, 0xD0	; 208
    2a08:	41 93       	st	Z+, r20
    2a0a:	b3 e0       	ldi	r27, 0x03	; 3
    2a0c:	0f d0       	rcall	.+30     	; 0x2a2c <__ultoa_invert+0x86>
    2a0e:	c9 f7       	brne	.-14     	; 0x2a02 <__ultoa_invert+0x5c>
    2a10:	f6 cf       	rjmp	.-20     	; 0x29fe <__ultoa_invert+0x58>
    2a12:	46 2f       	mov	r20, r22
    2a14:	4f 70       	andi	r20, 0x0F	; 15
    2a16:	40 5d       	subi	r20, 0xD0	; 208
    2a18:	4a 33       	cpi	r20, 0x3A	; 58
    2a1a:	18 f0       	brcs	.+6      	; 0x2a22 <__ultoa_invert+0x7c>
    2a1c:	49 5d       	subi	r20, 0xD9	; 217
    2a1e:	31 fd       	sbrc	r19, 1
    2a20:	40 52       	subi	r20, 0x20	; 32
    2a22:	41 93       	st	Z+, r20
    2a24:	02 d0       	rcall	.+4      	; 0x2a2a <__ultoa_invert+0x84>
    2a26:	a9 f7       	brne	.-22     	; 0x2a12 <__ultoa_invert+0x6c>
    2a28:	ea cf       	rjmp	.-44     	; 0x29fe <__ultoa_invert+0x58>
    2a2a:	b4 e0       	ldi	r27, 0x04	; 4
    2a2c:	a6 95       	lsr	r26
    2a2e:	97 95       	ror	r25
    2a30:	87 95       	ror	r24
    2a32:	77 95       	ror	r23
    2a34:	67 95       	ror	r22
    2a36:	ba 95       	dec	r27
    2a38:	c9 f7       	brne	.-14     	; 0x2a2c <__ultoa_invert+0x86>
    2a3a:	00 97       	sbiw	r24, 0x00	; 0
    2a3c:	61 05       	cpc	r22, r1
    2a3e:	71 05       	cpc	r23, r1
    2a40:	08 95       	ret
    2a42:	9b 01       	movw	r18, r22
    2a44:	ac 01       	movw	r20, r24
    2a46:	0a 2e       	mov	r0, r26
    2a48:	06 94       	lsr	r0
    2a4a:	57 95       	ror	r21
    2a4c:	47 95       	ror	r20
    2a4e:	37 95       	ror	r19
    2a50:	27 95       	ror	r18
    2a52:	ba 95       	dec	r27
    2a54:	c9 f7       	brne	.-14     	; 0x2a48 <__ultoa_invert+0xa2>
    2a56:	62 0f       	add	r22, r18
    2a58:	73 1f       	adc	r23, r19
    2a5a:	84 1f       	adc	r24, r20
    2a5c:	95 1f       	adc	r25, r21
    2a5e:	a0 1d       	adc	r26, r0
    2a60:	08 95       	ret

00002a62 <_exit>:
    2a62:	f8 94       	cli

00002a64 <__stop_program>:
    2a64:	ff cf       	rjmp	.-2      	; 0x2a64 <__stop_program>
