
SkyFire.elf:     file format elf32-avr

Sections:
Idx Name          Size      VMA       LMA       File off  Algn
  0 .text         00004398  00000000  00000000  00000094  2**1
                  CONTENTS, ALLOC, LOAD, READONLY, CODE
  1 .data         000000ae  00802000  00004398  0000442c  2**0
                  CONTENTS, ALLOC, LOAD, DATA
  2 .bss          000000de  008020ae  008020ae  000044da  2**0
                  ALLOC
  3 .comment      0000005c  00000000  00000000  000044da  2**0
                  CONTENTS, READONLY
  4 .note.gnu.avr.deviceinfo 00000040  00000000  00000000  00004538  2**2
                  CONTENTS, READONLY
  5 .debug_aranges 000004b0  00000000  00000000  00004578  2**3
                  CONTENTS, READONLY, DEBUGGING
  6 .debug_info   00012622  00000000  00000000  00004a28  2**0
                  CONTENTS, READONLY, DEBUGGING
  7 .debug_abbrev 000047c5  00000000  00000000  0001704a  2**0
                  CONTENTS, READONLY, DEBUGGING
  8 .debug_line   00008676  00000000  00000000  0001b80f  2**0
                  CONTENTS, READONLY, DEBUGGING
  9 .debug_frame  00001260  00000000  00000000  00023e88  2**2
                  CONTENTS, READONLY, DEBUGGING
 10 .debug_str    0002d418  00000000  00000000  000250e8  2**0
                  CONTENTS, READONLY, DEBUGGING
 11 .debug_loc    00004e0c  00000000  00000000  00052500  2**0
                  CONTENTS, READONLY, DEBUGGING
 12 .debug_ranges 00000460  00000000  00000000  0005730c  2**0
                  CONTENTS, READONLY, DEBUGGING
 13 .debug_macro  00003242  00000000  00000000  0005776c  2**0
                  CONTENTS, READONLY, DEBUGGING

Disassembly of section .text:

00000000 <__vectors>:
       0:	44 c1       	rjmp	.+648    	; 0x28a <__ctors_end>
       2:	00 00       	nop
       4:	68 c1       	rjmp	.+720    	; 0x2d6 <__bad_interrupt>
       6:	00 00       	nop
       8:	66 c1       	rjmp	.+716    	; 0x2d6 <__bad_interrupt>
       a:	00 00       	nop
       c:	64 c1       	rjmp	.+712    	; 0x2d6 <__bad_interrupt>
       e:	00 00       	nop
      10:	62 c1       	rjmp	.+708    	; 0x2d6 <__bad_interrupt>
      12:	00 00       	nop
      14:	60 c1       	rjmp	.+704    	; 0x2d6 <__bad_interrupt>
      16:	00 00       	nop
      18:	5e c1       	rjmp	.+700    	; 0x2d6 <__bad_interrupt>
      1a:	00 00       	nop
      1c:	5c c1       	rjmp	.+696    	; 0x2d6 <__bad_interrupt>
      1e:	00 00       	nop
      20:	5a c1       	rjmp	.+692    	; 0x2d6 <__bad_interrupt>
      22:	00 00       	nop
      24:	58 c1       	rjmp	.+688    	; 0x2d6 <__bad_interrupt>
      26:	00 00       	nop
      28:	56 c1       	rjmp	.+684    	; 0x2d6 <__bad_interrupt>
      2a:	00 00       	nop
      2c:	54 c1       	rjmp	.+680    	; 0x2d6 <__bad_interrupt>
      2e:	00 00       	nop
      30:	52 c1       	rjmp	.+676    	; 0x2d6 <__bad_interrupt>
      32:	00 00       	nop
      34:	50 c1       	rjmp	.+672    	; 0x2d6 <__bad_interrupt>
      36:	00 00       	nop
      38:	4e c1       	rjmp	.+668    	; 0x2d6 <__bad_interrupt>
      3a:	00 00       	nop
      3c:	4c c1       	rjmp	.+664    	; 0x2d6 <__bad_interrupt>
      3e:	00 00       	nop
      40:	4a c1       	rjmp	.+660    	; 0x2d6 <__bad_interrupt>
      42:	00 00       	nop
      44:	48 c1       	rjmp	.+656    	; 0x2d6 <__bad_interrupt>
      46:	00 00       	nop
      48:	46 c1       	rjmp	.+652    	; 0x2d6 <__bad_interrupt>
      4a:	00 00       	nop
      4c:	44 c1       	rjmp	.+648    	; 0x2d6 <__bad_interrupt>
      4e:	00 00       	nop
      50:	42 c1       	rjmp	.+644    	; 0x2d6 <__bad_interrupt>
      52:	00 00       	nop
      54:	40 c1       	rjmp	.+640    	; 0x2d6 <__bad_interrupt>
      56:	00 00       	nop
      58:	3e c1       	rjmp	.+636    	; 0x2d6 <__bad_interrupt>
      5a:	00 00       	nop
      5c:	3c c1       	rjmp	.+632    	; 0x2d6 <__bad_interrupt>
      5e:	00 00       	nop
      60:	3a c1       	rjmp	.+628    	; 0x2d6 <__bad_interrupt>
      62:	00 00       	nop
      64:	38 c1       	rjmp	.+624    	; 0x2d6 <__bad_interrupt>
      66:	00 00       	nop
      68:	36 c1       	rjmp	.+620    	; 0x2d6 <__bad_interrupt>
      6a:	00 00       	nop
      6c:	34 c1       	rjmp	.+616    	; 0x2d6 <__bad_interrupt>
      6e:	00 00       	nop
      70:	32 c1       	rjmp	.+612    	; 0x2d6 <__bad_interrupt>
      72:	00 00       	nop
      74:	30 c1       	rjmp	.+608    	; 0x2d6 <__bad_interrupt>
      76:	00 00       	nop
      78:	2e c1       	rjmp	.+604    	; 0x2d6 <__bad_interrupt>
      7a:	00 00       	nop
      7c:	2c c1       	rjmp	.+600    	; 0x2d6 <__bad_interrupt>
      7e:	00 00       	nop
      80:	2a c1       	rjmp	.+596    	; 0x2d6 <__bad_interrupt>
      82:	00 00       	nop
      84:	28 c1       	rjmp	.+592    	; 0x2d6 <__bad_interrupt>
      86:	00 00       	nop
      88:	26 c1       	rjmp	.+588    	; 0x2d6 <__bad_interrupt>
      8a:	00 00       	nop
      8c:	24 c1       	rjmp	.+584    	; 0x2d6 <__bad_interrupt>
      8e:	00 00       	nop
      90:	22 c1       	rjmp	.+580    	; 0x2d6 <__bad_interrupt>
      92:	00 00       	nop
      94:	20 c1       	rjmp	.+576    	; 0x2d6 <__bad_interrupt>
      96:	00 00       	nop
      98:	1e c1       	rjmp	.+572    	; 0x2d6 <__bad_interrupt>
      9a:	00 00       	nop
      9c:	1c c1       	rjmp	.+568    	; 0x2d6 <__bad_interrupt>
      9e:	00 00       	nop
      a0:	1a c1       	rjmp	.+564    	; 0x2d6 <__bad_interrupt>
      a2:	00 00       	nop
      a4:	18 c1       	rjmp	.+560    	; 0x2d6 <__bad_interrupt>
      a6:	00 00       	nop
      a8:	16 c1       	rjmp	.+556    	; 0x2d6 <__bad_interrupt>
      aa:	00 00       	nop
      ac:	14 c1       	rjmp	.+552    	; 0x2d6 <__bad_interrupt>
      ae:	00 00       	nop
      b0:	12 c1       	rjmp	.+548    	; 0x2d6 <__bad_interrupt>
      b2:	00 00       	nop
      b4:	10 c1       	rjmp	.+544    	; 0x2d6 <__bad_interrupt>
      b6:	00 00       	nop
      b8:	0e c1       	rjmp	.+540    	; 0x2d6 <__bad_interrupt>
      ba:	00 00       	nop
      bc:	0c 94 e5 10 	jmp	0x21ca	; 0x21ca <__vector_47>
      c0:	0a c1       	rjmp	.+532    	; 0x2d6 <__bad_interrupt>
      c2:	00 00       	nop
      c4:	08 c1       	rjmp	.+528    	; 0x2d6 <__bad_interrupt>
      c6:	00 00       	nop
      c8:	06 c1       	rjmp	.+524    	; 0x2d6 <__bad_interrupt>
      ca:	00 00       	nop
      cc:	04 c1       	rjmp	.+520    	; 0x2d6 <__bad_interrupt>
      ce:	00 00       	nop
      d0:	02 c1       	rjmp	.+516    	; 0x2d6 <__bad_interrupt>
      d2:	00 00       	nop
      d4:	00 c1       	rjmp	.+512    	; 0x2d6 <__bad_interrupt>
      d6:	00 00       	nop
      d8:	fe c0       	rjmp	.+508    	; 0x2d6 <__bad_interrupt>
      da:	00 00       	nop
      dc:	fc c0       	rjmp	.+504    	; 0x2d6 <__bad_interrupt>
      de:	00 00       	nop
      e0:	fa c0       	rjmp	.+500    	; 0x2d6 <__bad_interrupt>
      e2:	00 00       	nop
      e4:	f8 c0       	rjmp	.+496    	; 0x2d6 <__bad_interrupt>
      e6:	00 00       	nop
      e8:	0c 94 65 12 	jmp	0x24ca	; 0x24ca <__vector_58>
      ec:	f4 c0       	rjmp	.+488    	; 0x2d6 <__bad_interrupt>
      ee:	00 00       	nop
      f0:	f2 c0       	rjmp	.+484    	; 0x2d6 <__bad_interrupt>
      f2:	00 00       	nop
      f4:	f0 c0       	rjmp	.+480    	; 0x2d6 <__bad_interrupt>
      f6:	00 00       	nop
      f8:	ee c0       	rjmp	.+476    	; 0x2d6 <__bad_interrupt>
      fa:	00 00       	nop
      fc:	ec c0       	rjmp	.+472    	; 0x2d6 <__bad_interrupt>
      fe:	00 00       	nop
     100:	ea c0       	rjmp	.+468    	; 0x2d6 <__bad_interrupt>
     102:	00 00       	nop
     104:	e8 c0       	rjmp	.+464    	; 0x2d6 <__bad_interrupt>
     106:	00 00       	nop
     108:	e6 c0       	rjmp	.+460    	; 0x2d6 <__bad_interrupt>
     10a:	00 00       	nop
     10c:	e4 c0       	rjmp	.+456    	; 0x2d6 <__bad_interrupt>
     10e:	00 00       	nop
     110:	e2 c0       	rjmp	.+452    	; 0x2d6 <__bad_interrupt>
     112:	00 00       	nop
     114:	e0 c0       	rjmp	.+448    	; 0x2d6 <__bad_interrupt>
     116:	00 00       	nop
     118:	de c0       	rjmp	.+444    	; 0x2d6 <__bad_interrupt>
     11a:	00 00       	nop
     11c:	08 c1       	rjmp	.+528    	; 0x32e <__vector_71>
     11e:	00 00       	nop
     120:	43 c1       	rjmp	.+646    	; 0x3a8 <__vector_72>
     122:	00 00       	nop
     124:	7e c1       	rjmp	.+764    	; 0x422 <__vector_73>
     126:	00 00       	nop
     128:	b9 c1       	rjmp	.+882    	; 0x49c <__vector_74>
     12a:	00 00       	nop
     12c:	d4 c0       	rjmp	.+424    	; 0x2d6 <__bad_interrupt>
     12e:	00 00       	nop
     130:	d2 c0       	rjmp	.+420    	; 0x2d6 <__bad_interrupt>
     132:	00 00       	nop
     134:	d0 c0       	rjmp	.+416    	; 0x2d6 <__bad_interrupt>
     136:	00 00       	nop
     138:	ce c0       	rjmp	.+412    	; 0x2d6 <__bad_interrupt>
     13a:	00 00       	nop
     13c:	cc c0       	rjmp	.+408    	; 0x2d6 <__bad_interrupt>
     13e:	00 00       	nop
     140:	ca c0       	rjmp	.+404    	; 0x2d6 <__bad_interrupt>
     142:	00 00       	nop
     144:	c8 c0       	rjmp	.+400    	; 0x2d6 <__bad_interrupt>
     146:	00 00       	nop
     148:	c6 c0       	rjmp	.+396    	; 0x2d6 <__bad_interrupt>
     14a:	00 00       	nop
     14c:	c4 c0       	rjmp	.+392    	; 0x2d6 <__bad_interrupt>
     14e:	00 00       	nop
     150:	c2 c0       	rjmp	.+388    	; 0x2d6 <__bad_interrupt>
     152:	00 00       	nop
     154:	c0 c0       	rjmp	.+384    	; 0x2d6 <__bad_interrupt>
     156:	00 00       	nop
     158:	be c0       	rjmp	.+380    	; 0x2d6 <__bad_interrupt>
     15a:	00 00       	nop
     15c:	bc c0       	rjmp	.+376    	; 0x2d6 <__bad_interrupt>
     15e:	00 00       	nop
     160:	ba c0       	rjmp	.+372    	; 0x2d6 <__bad_interrupt>
     162:	00 00       	nop
     164:	b8 c0       	rjmp	.+368    	; 0x2d6 <__bad_interrupt>
     166:	00 00       	nop
     168:	b6 c0       	rjmp	.+364    	; 0x2d6 <__bad_interrupt>
     16a:	00 00       	nop
     16c:	0c 94 9b 12 	jmp	0x2536	; 0x2536 <__vector_91>
     170:	b2 c0       	rjmp	.+356    	; 0x2d6 <__bad_interrupt>
     172:	00 00       	nop
     174:	b0 c0       	rjmp	.+352    	; 0x2d6 <__bad_interrupt>
     176:	00 00       	nop
     178:	ae c0       	rjmp	.+348    	; 0x2d6 <__bad_interrupt>
     17a:	00 00       	nop
     17c:	ac c0       	rjmp	.+344    	; 0x2d6 <__bad_interrupt>
     17e:	00 00       	nop
     180:	aa c0       	rjmp	.+340    	; 0x2d6 <__bad_interrupt>
     182:	00 00       	nop
     184:	a8 c0       	rjmp	.+336    	; 0x2d6 <__bad_interrupt>
     186:	00 00       	nop
     188:	a6 c0       	rjmp	.+332    	; 0x2d6 <__bad_interrupt>
     18a:	00 00       	nop
     18c:	a4 c0       	rjmp	.+328    	; 0x2d6 <__bad_interrupt>
     18e:	00 00       	nop
     190:	a2 c0       	rjmp	.+324    	; 0x2d6 <__bad_interrupt>
     192:	00 00       	nop
     194:	a0 c0       	rjmp	.+320    	; 0x2d6 <__bad_interrupt>
     196:	00 00       	nop
     198:	9e c0       	rjmp	.+316    	; 0x2d6 <__bad_interrupt>
     19a:	00 00       	nop
     19c:	9c c0       	rjmp	.+312    	; 0x2d6 <__bad_interrupt>
     19e:	00 00       	nop
     1a0:	9a c0       	rjmp	.+308    	; 0x2d6 <__bad_interrupt>
     1a2:	00 00       	nop
     1a4:	98 c0       	rjmp	.+304    	; 0x2d6 <__bad_interrupt>
     1a6:	00 00       	nop
     1a8:	96 c0       	rjmp	.+300    	; 0x2d6 <__bad_interrupt>
     1aa:	00 00       	nop
     1ac:	94 c0       	rjmp	.+296    	; 0x2d6 <__bad_interrupt>
     1ae:	00 00       	nop
     1b0:	92 c0       	rjmp	.+292    	; 0x2d6 <__bad_interrupt>
     1b2:	00 00       	nop
     1b4:	90 c0       	rjmp	.+288    	; 0x2d6 <__bad_interrupt>
     1b6:	00 00       	nop
     1b8:	8e c0       	rjmp	.+284    	; 0x2d6 <__bad_interrupt>
     1ba:	00 00       	nop
     1bc:	8c c0       	rjmp	.+280    	; 0x2d6 <__bad_interrupt>
     1be:	00 00       	nop
     1c0:	8a c0       	rjmp	.+276    	; 0x2d6 <__bad_interrupt>
     1c2:	00 00       	nop
     1c4:	88 c0       	rjmp	.+272    	; 0x2d6 <__bad_interrupt>
     1c6:	00 00       	nop
     1c8:	86 c0       	rjmp	.+268    	; 0x2d6 <__bad_interrupt>
     1ca:	00 00       	nop
     1cc:	84 c0       	rjmp	.+264    	; 0x2d6 <__bad_interrupt>
     1ce:	00 00       	nop
     1d0:	82 c0       	rjmp	.+260    	; 0x2d6 <__bad_interrupt>
     1d2:	00 00       	nop
     1d4:	80 c0       	rjmp	.+256    	; 0x2d6 <__bad_interrupt>
     1d6:	00 00       	nop
     1d8:	7e c0       	rjmp	.+252    	; 0x2d6 <__bad_interrupt>
     1da:	00 00       	nop
     1dc:	7c c0       	rjmp	.+248    	; 0x2d6 <__bad_interrupt>
     1de:	00 00       	nop
     1e0:	7a c0       	rjmp	.+244    	; 0x2d6 <__bad_interrupt>
     1e2:	00 00       	nop
     1e4:	78 c0       	rjmp	.+240    	; 0x2d6 <__bad_interrupt>
     1e6:	00 00       	nop
     1e8:	76 c0       	rjmp	.+236    	; 0x2d6 <__bad_interrupt>
     1ea:	00 00       	nop
     1ec:	74 c0       	rjmp	.+232    	; 0x2d6 <__bad_interrupt>
     1ee:	00 00       	nop
     1f0:	72 c0       	rjmp	.+228    	; 0x2d6 <__bad_interrupt>
     1f2:	00 00       	nop
     1f4:	70 c0       	rjmp	.+224    	; 0x2d6 <__bad_interrupt>
     1f6:	00 00       	nop
     1f8:	6e c0       	rjmp	.+220    	; 0x2d6 <__bad_interrupt>
     1fa:	00 00       	nop
     1fc:	07 63       	ori	r16, 0x37	; 55
     1fe:	42 36       	cpi	r20, 0x62	; 98
     200:	b7 9b       	sbis	0x16, 7	; 22
     202:	d8 a7       	std	Y+40, r29	; 0x28
     204:	1a 39       	cpi	r17, 0x9A	; 154
     206:	68 56       	subi	r22, 0x68	; 104
     208:	18 ae       	std	Y+56, r1	; 0x38
     20a:	ba ab       	std	Y+50, r27	; 0x32
     20c:	55 8c       	ldd	r5, Z+29	; 0x1d
     20e:	1d 3c       	cpi	r17, 0xCD	; 205
     210:	b7 cc       	rjmp	.-1682   	; 0xfffffb80 <__eeprom_end+0xff7efb80>
     212:	57 63       	ori	r21, 0x37	; 55
     214:	bd 6d       	ori	r27, 0xDD	; 221
     216:	ed fd       	.word	0xfded	; ????
     218:	75 3e       	cpi	r23, 0xE5	; 229
     21a:	f6 17       	cp	r31, r22
     21c:	72 31       	cpi	r23, 0x12	; 18
     21e:	bf 00       	.word	0x00bf	; ????
     220:	00 00       	nop
     222:	80 3f       	cpi	r24, 0xF0	; 240
     224:	08 00       	.word	0x0008	; ????
     226:	00 00       	nop
     228:	be 92       	st	-X, r11
     22a:	24 49       	sbci	r18, 0x94	; 148
     22c:	12 3e       	cpi	r17, 0xE2	; 226
     22e:	ab aa       	std	Y+51, r10	; 0x33
     230:	aa 2a       	or	r10, r26
     232:	be cd       	rjmp	.-1156   	; 0xfffffdb0 <__eeprom_end+0xff7efdb0>
     234:	cc cc       	rjmp	.-1640   	; 0xfffffbce <__eeprom_end+0xff7efbce>
     236:	4c 3e       	cpi	r20, 0xEC	; 236
     238:	00 00       	nop
     23a:	00 80       	ld	r0, Z
     23c:	be ab       	std	Y+54, r27	; 0x36
     23e:	aa aa       	std	Y+50, r10	; 0x32
     240:	aa 3e       	cpi	r26, 0xEA	; 234
     242:	00 00       	nop
     244:	00 00       	nop
     246:	bf 00       	.word	0x00bf	; ????
     248:	00 00       	nop
     24a:	80 3f       	cpi	r24, 0xF0	; 240
     24c:	00 00       	nop
     24e:	00 00       	nop
     250:	00 08       	sbc	r0, r0
     252:	41 78       	andi	r20, 0x81	; 129
     254:	d3 bb       	out	0x13, r29	; 19
     256:	43 87       	std	Z+11, r20	; 0x0b
     258:	d1 13       	cpse	r29, r17
     25a:	3d 19       	sub	r19, r13
     25c:	0e 3c       	cpi	r16, 0xCE	; 206
     25e:	c3 bd       	out	0x23, r28	; 35
     260:	42 82       	std	Z+2, r4	; 0x02
     262:	ad 2b       	or	r26, r29
     264:	3e 68       	ori	r19, 0x8E	; 142
     266:	ec 82       	std	Y+4, r14	; 0x04
     268:	76 be       	out	0x36, r7	; 54
     26a:	d9 8f       	std	Y+25, r29	; 0x19
     26c:	e1 a9       	ldd	r30, Z+49	; 0x31
     26e:	3e 4c       	sbci	r19, 0xCE	; 206
     270:	80 ef       	ldi	r24, 0xF0	; 240
     272:	ff be       	out	0x3f, r15	; 63
     274:	01 c4       	rjmp	.+2050   	; 0xa78 <ms5607_convert_d2+0x14>
     276:	ff 7f       	andi	r31, 0xFF	; 255
     278:	3f 00       	.word	0x003f	; ????
     27a:	00 00       	nop
	...

0000027e <__trampolines_end>:
     27e:	63 64       	ori	r22, 0x43	; 67
     280:	69 6e       	ori	r22, 0xE9	; 233
     282:	6f 70       	andi	r22, 0x0F	; 15
     284:	73 75       	andi	r23, 0x53	; 83
     286:	78 58       	subi	r23, 0x88	; 136
     288:	5b 00       	.word	0x005b	; ????

0000028a <__ctors_end>:
     28a:	11 24       	eor	r1, r1
     28c:	1f be       	out	0x3f, r1	; 63
     28e:	cf ef       	ldi	r28, 0xFF	; 255
     290:	cd bf       	out	0x3d, r28	; 61
     292:	df e3       	ldi	r29, 0x3F	; 63
     294:	de bf       	out	0x3e, r29	; 62
     296:	00 e0       	ldi	r16, 0x00	; 0
     298:	0c bf       	out	0x3c, r16	; 60
     29a:	18 be       	out	0x38, r1	; 56
     29c:	19 be       	out	0x39, r1	; 57
     29e:	1a be       	out	0x3a, r1	; 58
     2a0:	1b be       	out	0x3b, r1	; 59

000002a2 <__do_copy_data>:
     2a2:	10 e2       	ldi	r17, 0x20	; 32
     2a4:	a0 e0       	ldi	r26, 0x00	; 0
     2a6:	b0 e2       	ldi	r27, 0x20	; 32
     2a8:	e8 e9       	ldi	r30, 0x98	; 152
     2aa:	f3 e4       	ldi	r31, 0x43	; 67
     2ac:	00 e0       	ldi	r16, 0x00	; 0
     2ae:	0b bf       	out	0x3b, r16	; 59
     2b0:	02 c0       	rjmp	.+4      	; 0x2b6 <__do_copy_data+0x14>
     2b2:	07 90       	elpm	r0, Z+
     2b4:	0d 92       	st	X+, r0
     2b6:	ae 3a       	cpi	r26, 0xAE	; 174
     2b8:	b1 07       	cpc	r27, r17
     2ba:	d9 f7       	brne	.-10     	; 0x2b2 <__do_copy_data+0x10>
     2bc:	1b be       	out	0x3b, r1	; 59

000002be <__do_clear_bss>:
     2be:	21 e2       	ldi	r18, 0x21	; 33
     2c0:	ae ea       	ldi	r26, 0xAE	; 174
     2c2:	b0 e2       	ldi	r27, 0x20	; 32
     2c4:	01 c0       	rjmp	.+2      	; 0x2c8 <.do_clear_bss_start>

000002c6 <.do_clear_bss_loop>:
     2c6:	1d 92       	st	X+, r1

000002c8 <.do_clear_bss_start>:
     2c8:	ac 38       	cpi	r26, 0x8C	; 140
     2ca:	b2 07       	cpc	r27, r18
     2cc:	e1 f7       	brne	.-8      	; 0x2c6 <.do_clear_bss_loop>
     2ce:	0e 94 97 0f 	call	0x1f2e	; 0x1f2e <main>
     2d2:	0c 94 ca 21 	jmp	0x4394	; 0x4394 <_exit>

000002d6 <__bad_interrupt>:
     2d6:	94 ce       	rjmp	.-728    	; 0x0 <__vectors>

000002d8 <_read>:
#elif (defined(__GNUC__) && (XMEGA || MEGA) )

int _read (int *f); // Remove GCC compiler warning

int _read (int *f)
{
     2d8:	cf 93       	push	r28
     2da:	df 93       	push	r29
     2dc:	1f 92       	push	r1
     2de:	cd b7       	in	r28, 0x3d	; 61
     2e0:	de b7       	in	r29, 0x3e	; 62
	char c;
	ptr_get(stdio_base,&c);
     2e2:	80 91 06 21 	lds	r24, 0x2106	; 0x802106 <stdio_base>
     2e6:	90 91 07 21 	lds	r25, 0x2107	; 0x802107 <stdio_base+0x1>
     2ea:	e0 91 02 21 	lds	r30, 0x2102	; 0x802102 <ptr_get>
     2ee:	f0 91 03 21 	lds	r31, 0x2103	; 0x802103 <ptr_get+0x1>
     2f2:	be 01       	movw	r22, r28
     2f4:	6f 5f       	subi	r22, 0xFF	; 255
     2f6:	7f 4f       	sbci	r23, 0xFF	; 255
     2f8:	19 95       	eicall
	return c;
     2fa:	89 81       	ldd	r24, Y+1	; 0x01
}
     2fc:	08 2e       	mov	r0, r24
     2fe:	00 0c       	add	r0, r0
     300:	99 0b       	sbc	r25, r25
     302:	0f 90       	pop	r0
     304:	df 91       	pop	r29
     306:	cf 91       	pop	r28
     308:	08 95       	ret

0000030a <_write>:
#elif (defined(__GNUC__) && (XMEGA || MEGA))

int _write (char c, int *f);

int _write (char c, int *f)
{
     30a:	68 2f       	mov	r22, r24
	if (ptr_put(stdio_base, c) < 0) {
     30c:	80 91 06 21 	lds	r24, 0x2106	; 0x802106 <stdio_base>
     310:	90 91 07 21 	lds	r25, 0x2107	; 0x802107 <stdio_base+0x1>
     314:	e0 91 04 21 	lds	r30, 0x2104	; 0x802104 <ptr_put>
     318:	f0 91 05 21 	lds	r31, 0x2105	; 0x802105 <ptr_put+0x1>
     31c:	19 95       	eicall
     31e:	99 23       	and	r25, r25
     320:	1c f0       	brlt	.+6      	; 0x328 <_write+0x1e>
		return -1;
	}
	return 1;
     322:	81 e0       	ldi	r24, 0x01	; 1
     324:	90 e0       	ldi	r25, 0x00	; 0
     326:	08 95       	ret
int _write (char c, int *f);

int _write (char c, int *f)
{
	if (ptr_put(stdio_base, c) < 0) {
		return -1;
     328:	8f ef       	ldi	r24, 0xFF	; 255
     32a:	9f ef       	ldi	r25, 0xFF	; 255
	}
	return 1;
}
     32c:	08 95       	ret

0000032e <__vector_71>:
 *
 * Calls the callback function that has been set for the ADC when the channel's
 * interrupt flag is set, if its interrupt has been enabled.
 */
ISR(ADCA_CH0_vect)
{
     32e:	1f 92       	push	r1
     330:	0f 92       	push	r0
     332:	0f b6       	in	r0, 0x3f	; 63
     334:	0f 92       	push	r0
     336:	11 24       	eor	r1, r1
     338:	08 b6       	in	r0, 0x38	; 56
     33a:	0f 92       	push	r0
     33c:	18 be       	out	0x38, r1	; 56
     33e:	09 b6       	in	r0, 0x39	; 57
     340:	0f 92       	push	r0
     342:	19 be       	out	0x39, r1	; 57
     344:	0b b6       	in	r0, 0x3b	; 59
     346:	0f 92       	push	r0
     348:	1b be       	out	0x3b, r1	; 59
     34a:	2f 93       	push	r18
     34c:	3f 93       	push	r19
     34e:	4f 93       	push	r20
     350:	5f 93       	push	r21
     352:	6f 93       	push	r22
     354:	7f 93       	push	r23
     356:	8f 93       	push	r24
     358:	9f 93       	push	r25
     35a:	af 93       	push	r26
     35c:	bf 93       	push	r27
     35e:	ef 93       	push	r30
     360:	ff 93       	push	r31
	adca_callback(&ADCA, ADC_CH0, adc_get_result(&ADCA, ADC_CH0));
     362:	40 91 24 02 	lds	r20, 0x0224	; 0x800224 <__TEXT_REGION_LENGTH__+0x700224>
     366:	50 91 25 02 	lds	r21, 0x0225	; 0x800225 <__TEXT_REGION_LENGTH__+0x700225>
     36a:	e0 91 08 21 	lds	r30, 0x2108	; 0x802108 <adca_callback>
     36e:	f0 91 09 21 	lds	r31, 0x2109	; 0x802109 <adca_callback+0x1>
     372:	61 e0       	ldi	r22, 0x01	; 1
     374:	80 e0       	ldi	r24, 0x00	; 0
     376:	92 e0       	ldi	r25, 0x02	; 2
     378:	19 95       	eicall
}
     37a:	ff 91       	pop	r31
     37c:	ef 91       	pop	r30
     37e:	bf 91       	pop	r27
     380:	af 91       	pop	r26
     382:	9f 91       	pop	r25
     384:	8f 91       	pop	r24
     386:	7f 91       	pop	r23
     388:	6f 91       	pop	r22
     38a:	5f 91       	pop	r21
     38c:	4f 91       	pop	r20
     38e:	3f 91       	pop	r19
     390:	2f 91       	pop	r18
     392:	0f 90       	pop	r0
     394:	0b be       	out	0x3b, r0	; 59
     396:	0f 90       	pop	r0
     398:	09 be       	out	0x39, r0	; 57
     39a:	0f 90       	pop	r0
     39c:	08 be       	out	0x38, r0	; 56
     39e:	0f 90       	pop	r0
     3a0:	0f be       	out	0x3f, r0	; 63
     3a2:	0f 90       	pop	r0
     3a4:	1f 90       	pop	r1
     3a6:	18 95       	reti

000003a8 <__vector_72>:
 *
 * Calls the callback function that has been set for the ADC when the channel's
 * interrupt flag is set, if its interrupt has been enabled.
 */
ISR(ADCA_CH1_vect)
{
     3a8:	1f 92       	push	r1
     3aa:	0f 92       	push	r0
     3ac:	0f b6       	in	r0, 0x3f	; 63
     3ae:	0f 92       	push	r0
     3b0:	11 24       	eor	r1, r1
     3b2:	08 b6       	in	r0, 0x38	; 56
     3b4:	0f 92       	push	r0
     3b6:	18 be       	out	0x38, r1	; 56
     3b8:	09 b6       	in	r0, 0x39	; 57
     3ba:	0f 92       	push	r0
     3bc:	19 be       	out	0x39, r1	; 57
     3be:	0b b6       	in	r0, 0x3b	; 59
     3c0:	0f 92       	push	r0
     3c2:	1b be       	out	0x3b, r1	; 59
     3c4:	2f 93       	push	r18
     3c6:	3f 93       	push	r19
     3c8:	4f 93       	push	r20
     3ca:	5f 93       	push	r21
     3cc:	6f 93       	push	r22
     3ce:	7f 93       	push	r23
     3d0:	8f 93       	push	r24
     3d2:	9f 93       	push	r25
     3d4:	af 93       	push	r26
     3d6:	bf 93       	push	r27
     3d8:	ef 93       	push	r30
     3da:	ff 93       	push	r31
	adca_callback(&ADCA, ADC_CH1, adc_get_result(&ADCA, ADC_CH1));
     3dc:	40 91 2c 02 	lds	r20, 0x022C	; 0x80022c <__TEXT_REGION_LENGTH__+0x70022c>
     3e0:	50 91 2d 02 	lds	r21, 0x022D	; 0x80022d <__TEXT_REGION_LENGTH__+0x70022d>
     3e4:	e0 91 08 21 	lds	r30, 0x2108	; 0x802108 <adca_callback>
     3e8:	f0 91 09 21 	lds	r31, 0x2109	; 0x802109 <adca_callback+0x1>
     3ec:	62 e0       	ldi	r22, 0x02	; 2
     3ee:	80 e0       	ldi	r24, 0x00	; 0
     3f0:	92 e0       	ldi	r25, 0x02	; 2
     3f2:	19 95       	eicall
}
     3f4:	ff 91       	pop	r31
     3f6:	ef 91       	pop	r30
     3f8:	bf 91       	pop	r27
     3fa:	af 91       	pop	r26
     3fc:	9f 91       	pop	r25
     3fe:	8f 91       	pop	r24
     400:	7f 91       	pop	r23
     402:	6f 91       	pop	r22
     404:	5f 91       	pop	r21
     406:	4f 91       	pop	r20
     408:	3f 91       	pop	r19
     40a:	2f 91       	pop	r18
     40c:	0f 90       	pop	r0
     40e:	0b be       	out	0x3b, r0	; 59
     410:	0f 90       	pop	r0
     412:	09 be       	out	0x39, r0	; 57
     414:	0f 90       	pop	r0
     416:	08 be       	out	0x38, r0	; 56
     418:	0f 90       	pop	r0
     41a:	0f be       	out	0x3f, r0	; 63
     41c:	0f 90       	pop	r0
     41e:	1f 90       	pop	r1
     420:	18 95       	reti

00000422 <__vector_73>:
 *
 * Calls the callback function that has been set for the ADC when the channel's
 * interrupt flag is set, if its interrupt has been enabled.
 */
ISR(ADCA_CH2_vect)
{
     422:	1f 92       	push	r1
     424:	0f 92       	push	r0
     426:	0f b6       	in	r0, 0x3f	; 63
     428:	0f 92       	push	r0
     42a:	11 24       	eor	r1, r1
     42c:	08 b6       	in	r0, 0x38	; 56
     42e:	0f 92       	push	r0
     430:	18 be       	out	0x38, r1	; 56
     432:	09 b6       	in	r0, 0x39	; 57
     434:	0f 92       	push	r0
     436:	19 be       	out	0x39, r1	; 57
     438:	0b b6       	in	r0, 0x3b	; 59
     43a:	0f 92       	push	r0
     43c:	1b be       	out	0x3b, r1	; 59
     43e:	2f 93       	push	r18
     440:	3f 93       	push	r19
     442:	4f 93       	push	r20
     444:	5f 93       	push	r21
     446:	6f 93       	push	r22
     448:	7f 93       	push	r23
     44a:	8f 93       	push	r24
     44c:	9f 93       	push	r25
     44e:	af 93       	push	r26
     450:	bf 93       	push	r27
     452:	ef 93       	push	r30
     454:	ff 93       	push	r31
	adca_callback(&ADCA, ADC_CH2, adc_get_result(&ADCA, ADC_CH2));
     456:	40 91 34 02 	lds	r20, 0x0234	; 0x800234 <__TEXT_REGION_LENGTH__+0x700234>
     45a:	50 91 35 02 	lds	r21, 0x0235	; 0x800235 <__TEXT_REGION_LENGTH__+0x700235>
     45e:	e0 91 08 21 	lds	r30, 0x2108	; 0x802108 <adca_callback>
     462:	f0 91 09 21 	lds	r31, 0x2109	; 0x802109 <adca_callback+0x1>
     466:	64 e0       	ldi	r22, 0x04	; 4
     468:	80 e0       	ldi	r24, 0x00	; 0
     46a:	92 e0       	ldi	r25, 0x02	; 2
     46c:	19 95       	eicall
}
     46e:	ff 91       	pop	r31
     470:	ef 91       	pop	r30
     472:	bf 91       	pop	r27
     474:	af 91       	pop	r26
     476:	9f 91       	pop	r25
     478:	8f 91       	pop	r24
     47a:	7f 91       	pop	r23
     47c:	6f 91       	pop	r22
     47e:	5f 91       	pop	r21
     480:	4f 91       	pop	r20
     482:	3f 91       	pop	r19
     484:	2f 91       	pop	r18
     486:	0f 90       	pop	r0
     488:	0b be       	out	0x3b, r0	; 59
     48a:	0f 90       	pop	r0
     48c:	09 be       	out	0x39, r0	; 57
     48e:	0f 90       	pop	r0
     490:	08 be       	out	0x38, r0	; 56
     492:	0f 90       	pop	r0
     494:	0f be       	out	0x3f, r0	; 63
     496:	0f 90       	pop	r0
     498:	1f 90       	pop	r1
     49a:	18 95       	reti

0000049c <__vector_74>:
 *
 * Calls the callback function that has been set for the ADC when the channel's
 * interrupt flag is set, if its interrupt has been enabled.
 */
ISR(ADCA_CH3_vect)
{
     49c:	1f 92       	push	r1
     49e:	0f 92       	push	r0
     4a0:	0f b6       	in	r0, 0x3f	; 63
     4a2:	0f 92       	push	r0
     4a4:	11 24       	eor	r1, r1
     4a6:	08 b6       	in	r0, 0x38	; 56
     4a8:	0f 92       	push	r0
     4aa:	18 be       	out	0x38, r1	; 56
     4ac:	09 b6       	in	r0, 0x39	; 57
     4ae:	0f 92       	push	r0
     4b0:	19 be       	out	0x39, r1	; 57
     4b2:	0b b6       	in	r0, 0x3b	; 59
     4b4:	0f 92       	push	r0
     4b6:	1b be       	out	0x3b, r1	; 59
     4b8:	2f 93       	push	r18
     4ba:	3f 93       	push	r19
     4bc:	4f 93       	push	r20
     4be:	5f 93       	push	r21
     4c0:	6f 93       	push	r22
     4c2:	7f 93       	push	r23
     4c4:	8f 93       	push	r24
     4c6:	9f 93       	push	r25
     4c8:	af 93       	push	r26
     4ca:	bf 93       	push	r27
     4cc:	ef 93       	push	r30
     4ce:	ff 93       	push	r31
	adca_callback(&ADCA, ADC_CH3, adc_get_result(&ADCA, ADC_CH3));
     4d0:	40 91 3c 02 	lds	r20, 0x023C	; 0x80023c <__TEXT_REGION_LENGTH__+0x70023c>
     4d4:	50 91 3d 02 	lds	r21, 0x023D	; 0x80023d <__TEXT_REGION_LENGTH__+0x70023d>
     4d8:	e0 91 08 21 	lds	r30, 0x2108	; 0x802108 <adca_callback>
     4dc:	f0 91 09 21 	lds	r31, 0x2109	; 0x802109 <adca_callback+0x1>
     4e0:	68 e0       	ldi	r22, 0x08	; 8
     4e2:	80 e0       	ldi	r24, 0x00	; 0
     4e4:	92 e0       	ldi	r25, 0x02	; 2
     4e6:	19 95       	eicall
}
     4e8:	ff 91       	pop	r31
     4ea:	ef 91       	pop	r30
     4ec:	bf 91       	pop	r27
     4ee:	af 91       	pop	r26
     4f0:	9f 91       	pop	r25
     4f2:	8f 91       	pop	r24
     4f4:	7f 91       	pop	r23
     4f6:	6f 91       	pop	r22
     4f8:	5f 91       	pop	r21
     4fa:	4f 91       	pop	r20
     4fc:	3f 91       	pop	r19
     4fe:	2f 91       	pop	r18
     500:	0f 90       	pop	r0
     502:	0b be       	out	0x3b, r0	; 59
     504:	0f 90       	pop	r0
     506:	09 be       	out	0x39, r0	; 57
     508:	0f 90       	pop	r0
     50a:	08 be       	out	0x38, r0	; 56
     50c:	0f 90       	pop	r0
     50e:	0f be       	out	0x3f, r0	; 63
     510:	0f 90       	pop	r0
     512:	1f 90       	pop	r1
     514:	18 95       	reti

00000516 <usart_putchar>:

	if (baud_offset != USART_BAUD_UNDEFINED) {
		(usart)->BAUDCTRLB = (uint8_t)((uint16_t)baudctrl);
		(usart)->BAUDCTRLA = (uint8_t)((uint16_t)baudctrl >> 8);
	}
}
     516:	fc 01       	movw	r30, r24
     518:	91 81       	ldd	r25, Z+1	; 0x01
     51a:	95 ff       	sbrs	r25, 5
     51c:	fd cf       	rjmp	.-6      	; 0x518 <usart_putchar+0x2>
     51e:	60 83       	st	Z, r22
     520:	80 e0       	ldi	r24, 0x00	; 0
     522:	90 e0       	ldi	r25, 0x00	; 0
     524:	08 95       	ret

00000526 <usart_getchar>:
     526:	fc 01       	movw	r30, r24
     528:	91 81       	ldd	r25, Z+1	; 0x01
     52a:	99 23       	and	r25, r25
     52c:	ec f7       	brge	.-6      	; 0x528 <usart_getchar+0x2>
     52e:	80 81       	ld	r24, Z
     530:	08 95       	ret

00000532 <usart_set_baudrate>:
 * \retval true if the hardware supports the baud rate
 * \retval false if the hardware does not support the baud rate (i.e. it's
 *               either too high or too low.)
 */
bool usart_set_baudrate(USART_t *usart, uint32_t baud, uint32_t cpu_hz)
{
     532:	4f 92       	push	r4
     534:	5f 92       	push	r5
     536:	6f 92       	push	r6
     538:	7f 92       	push	r7
     53a:	8f 92       	push	r8
     53c:	9f 92       	push	r9
     53e:	af 92       	push	r10
     540:	bf 92       	push	r11
     542:	ef 92       	push	r14
     544:	ff 92       	push	r15
     546:	0f 93       	push	r16
     548:	1f 93       	push	r17
     54a:	cf 93       	push	r28
     54c:	7c 01       	movw	r14, r24
     54e:	4a 01       	movw	r8, r20
     550:	5b 01       	movw	r10, r22
     552:	28 01       	movw	r4, r16
     554:	39 01       	movw	r6, r18
	/* 8 = (2^0) * 8 * (2^0) = (2^BSCALE_MIN) * 8 * (BSEL_MIN) */
	max_rate = cpu_hz / 8;
	/* 4194304 = (2^7) * 8 * (2^12) = (2^BSCALE_MAX) * 8 * (BSEL_MAX+1) */
	min_rate = cpu_hz / 4194304;

	if (!((usart)->CTRLB & USART_CLK2X_bm)) {
     556:	fc 01       	movw	r30, r24
     558:	84 81       	ldd	r24, Z+4	; 0x04
     55a:	82 ff       	sbrs	r24, 2
     55c:	16 c0       	rjmp	.+44     	; 0x58a <usart_set_baudrate+0x58>

	/*
	 * Check if the hardware supports the given baud rate
	 */
	/* 8 = (2^0) * 8 * (2^0) = (2^BSCALE_MIN) * 8 * (BSEL_MIN) */
	max_rate = cpu_hz / 8;
     55e:	d9 01       	movw	r26, r18
     560:	c8 01       	movw	r24, r16
     562:	68 94       	set
     564:	12 f8       	bld	r1, 2
     566:	b6 95       	lsr	r27
     568:	a7 95       	ror	r26
     56a:	97 95       	ror	r25
     56c:	87 95       	ror	r24
     56e:	16 94       	lsr	r1
     570:	d1 f7       	brne	.-12     	; 0x566 <usart_set_baudrate+0x34>
	/* 4194304 = (2^7) * 8 * (2^12) = (2^BSCALE_MAX) * 8 * (BSEL_MAX+1) */
	min_rate = cpu_hz / 4194304;
     572:	b9 01       	movw	r22, r18
     574:	a8 01       	movw	r20, r16
     576:	03 2e       	mov	r0, r19
     578:	36 e1       	ldi	r19, 0x16	; 22
     57a:	76 95       	lsr	r23
     57c:	67 95       	ror	r22
     57e:	57 95       	ror	r21
     580:	47 95       	ror	r20
     582:	3a 95       	dec	r19
     584:	d1 f7       	brne	.-12     	; 0x57a <usart_set_baudrate+0x48>
     586:	30 2d       	mov	r19, r0
     588:	15 c0       	rjmp	.+42     	; 0x5b4 <usart_set_baudrate+0x82>

	if (!((usart)->CTRLB & USART_CLK2X_bm)) {
		max_rate /= 2;
     58a:	d9 01       	movw	r26, r18
     58c:	c8 01       	movw	r24, r16
     58e:	68 94       	set
     590:	13 f8       	bld	r1, 3
     592:	b6 95       	lsr	r27
     594:	a7 95       	ror	r26
     596:	97 95       	ror	r25
     598:	87 95       	ror	r24
     59a:	16 94       	lsr	r1
     59c:	d1 f7       	brne	.-12     	; 0x592 <usart_set_baudrate+0x60>
		min_rate /= 2;
     59e:	b9 01       	movw	r22, r18
     5a0:	a8 01       	movw	r20, r16
     5a2:	03 2e       	mov	r0, r19
     5a4:	37 e1       	ldi	r19, 0x17	; 23
     5a6:	76 95       	lsr	r23
     5a8:	67 95       	ror	r22
     5aa:	57 95       	ror	r21
     5ac:	47 95       	ror	r20
     5ae:	3a 95       	dec	r19
     5b0:	d1 f7       	brne	.-12     	; 0x5a6 <usart_set_baudrate+0x74>
     5b2:	30 2d       	mov	r19, r0
	}

	if ((baud > max_rate) || (baud < min_rate)) {
     5b4:	88 15       	cp	r24, r8
     5b6:	99 05       	cpc	r25, r9
     5b8:	aa 05       	cpc	r26, r10
     5ba:	bb 05       	cpc	r27, r11
     5bc:	08 f4       	brcc	.+2      	; 0x5c0 <usart_set_baudrate+0x8e>
     5be:	a6 c0       	rjmp	.+332    	; 0x70c <usart_set_baudrate+0x1da>
     5c0:	84 16       	cp	r8, r20
     5c2:	95 06       	cpc	r9, r21
     5c4:	a6 06       	cpc	r10, r22
     5c6:	b7 06       	cpc	r11, r23
     5c8:	08 f4       	brcc	.+2      	; 0x5cc <usart_set_baudrate+0x9a>
     5ca:	a2 c0       	rjmp	.+324    	; 0x710 <usart_set_baudrate+0x1de>
		return false;
	}

	/* Check if double speed is enabled. */
	if (!((usart)->CTRLB & USART_CLK2X_bm)) {
     5cc:	f7 01       	movw	r30, r14
     5ce:	84 81       	ldd	r24, Z+4	; 0x04
     5d0:	82 fd       	sbrc	r24, 2
     5d2:	04 c0       	rjmp	.+8      	; 0x5dc <usart_set_baudrate+0xaa>
		baud *= 2;
     5d4:	88 0c       	add	r8, r8
     5d6:	99 1c       	adc	r9, r9
     5d8:	aa 1c       	adc	r10, r10
     5da:	bb 1c       	adc	r11, r11
	}

	/* Find the lowest possible exponent. */
	limit = 0xfffU >> 4;
	ratio = cpu_hz / baud;
     5dc:	c3 01       	movw	r24, r6
     5de:	b2 01       	movw	r22, r4
     5e0:	a5 01       	movw	r20, r10
     5e2:	94 01       	movw	r18, r8
     5e4:	0e 94 96 19 	call	0x332c	; 0x332c <__udivmodsi4>

	for (exp = -7; exp < 7; exp++) {
		if (ratio < limit) {
     5e8:	2f 3f       	cpi	r18, 0xFF	; 255
     5ea:	31 05       	cpc	r19, r1
     5ec:	41 05       	cpc	r20, r1
     5ee:	51 05       	cpc	r21, r1
     5f0:	08 f4       	brcc	.+2      	; 0x5f4 <usart_set_baudrate+0xc2>
     5f2:	90 c0       	rjmp	.+288    	; 0x714 <usart_set_baudrate+0x1e2>
     5f4:	8f ef       	ldi	r24, 0xFF	; 255
     5f6:	90 e0       	ldi	r25, 0x00	; 0
     5f8:	a0 e0       	ldi	r26, 0x00	; 0
     5fa:	b0 e0       	ldi	r27, 0x00	; 0
     5fc:	c9 ef       	ldi	r28, 0xF9	; 249
     5fe:	05 c0       	rjmp	.+10     	; 0x60a <usart_set_baudrate+0xd8>
     600:	28 17       	cp	r18, r24
     602:	39 07       	cpc	r19, r25
     604:	4a 07       	cpc	r20, r26
     606:	5b 07       	cpc	r21, r27
     608:	58 f0       	brcs	.+22     	; 0x620 <usart_set_baudrate+0xee>
			break;
		}

		limit <<= 1;
     60a:	88 0f       	add	r24, r24
     60c:	99 1f       	adc	r25, r25
     60e:	aa 1f       	adc	r26, r26
     610:	bb 1f       	adc	r27, r27

		if (exp < -3) {
     612:	cd 3f       	cpi	r28, 0xFD	; 253
     614:	0c f4       	brge	.+2      	; 0x618 <usart_set_baudrate+0xe6>
			limit |= 1;
     616:	81 60       	ori	r24, 0x01	; 1
     618:	cf 5f       	subi	r28, 0xFF	; 255

	/* Find the lowest possible exponent. */
	limit = 0xfffU >> 4;
	ratio = cpu_hz / baud;

	for (exp = -7; exp < 7; exp++) {
     61a:	c7 30       	cpi	r28, 0x07	; 7
     61c:	89 f7       	brne	.-30     	; 0x600 <usart_set_baudrate+0xce>
     61e:	4f c0       	rjmp	.+158    	; 0x6be <usart_set_baudrate+0x18c>
	 * point.
	 *
	 * The formula for calculating BSEL is slightly different when exp is
	 * negative than it is when exp is positive.
	 */
	if (exp < 0) {
     620:	cc 23       	and	r28, r28
     622:	0c f0       	brlt	.+2      	; 0x626 <usart_set_baudrate+0xf4>
     624:	4c c0       	rjmp	.+152    	; 0x6be <usart_set_baudrate+0x18c>
		/* We are supposed to subtract 1, then apply BSCALE. We want to
		 * apply BSCALE first, so we need to turn everything inside the
		 * parenthesis into a single fractional expression.
		 */
		cpu_hz -= 8 * baud;
     626:	d5 01       	movw	r26, r10
     628:	c4 01       	movw	r24, r8
     62a:	88 0f       	add	r24, r24
     62c:	99 1f       	adc	r25, r25
     62e:	aa 1f       	adc	r26, r26
     630:	bb 1f       	adc	r27, r27
     632:	88 0f       	add	r24, r24
     634:	99 1f       	adc	r25, r25
     636:	aa 1f       	adc	r26, r26
     638:	bb 1f       	adc	r27, r27
     63a:	88 0f       	add	r24, r24
     63c:	99 1f       	adc	r25, r25
     63e:	aa 1f       	adc	r26, r26
     640:	bb 1f       	adc	r27, r27
     642:	48 1a       	sub	r4, r24
     644:	59 0a       	sbc	r5, r25
     646:	6a 0a       	sbc	r6, r26
     648:	7b 0a       	sbc	r7, r27
		/* If we end up with a left-shift after taking the final
		 * divide-by-8 into account, do the shift before the divide.
		 * Otherwise, left-shift the denominator instead (effectively
		 * resulting in an overall right shift.)
		 */
		if (exp <= -3) {
     64a:	ce 3f       	cpi	r28, 0xFE	; 254
     64c:	f4 f4       	brge	.+60     	; 0x68a <usart_set_baudrate+0x158>
			div = ((cpu_hz << (-exp - 3)) + baud / 2) / baud;
     64e:	8d ef       	ldi	r24, 0xFD	; 253
     650:	9f ef       	ldi	r25, 0xFF	; 255
     652:	8c 1b       	sub	r24, r28
     654:	91 09       	sbc	r25, r1
     656:	c7 fd       	sbrc	r28, 7
     658:	93 95       	inc	r25
     65a:	04 c0       	rjmp	.+8      	; 0x664 <usart_set_baudrate+0x132>
     65c:	44 0c       	add	r4, r4
     65e:	55 1c       	adc	r5, r5
     660:	66 1c       	adc	r6, r6
     662:	77 1c       	adc	r7, r7
     664:	8a 95       	dec	r24
     666:	d2 f7       	brpl	.-12     	; 0x65c <usart_set_baudrate+0x12a>
     668:	d5 01       	movw	r26, r10
     66a:	c4 01       	movw	r24, r8
     66c:	b6 95       	lsr	r27
     66e:	a7 95       	ror	r26
     670:	97 95       	ror	r25
     672:	87 95       	ror	r24
     674:	bc 01       	movw	r22, r24
     676:	cd 01       	movw	r24, r26
     678:	64 0d       	add	r22, r4
     67a:	75 1d       	adc	r23, r5
     67c:	86 1d       	adc	r24, r6
     67e:	97 1d       	adc	r25, r7
     680:	a5 01       	movw	r20, r10
     682:	94 01       	movw	r18, r8
     684:	0e 94 96 19 	call	0x332c	; 0x332c <__udivmodsi4>
     688:	37 c0       	rjmp	.+110    	; 0x6f8 <usart_set_baudrate+0x1c6>
		} else {
			baud <<= exp + 3;
     68a:	83 e0       	ldi	r24, 0x03	; 3
     68c:	8c 0f       	add	r24, r28
     68e:	a5 01       	movw	r20, r10
     690:	94 01       	movw	r18, r8
     692:	04 c0       	rjmp	.+8      	; 0x69c <usart_set_baudrate+0x16a>
     694:	22 0f       	add	r18, r18
     696:	33 1f       	adc	r19, r19
     698:	44 1f       	adc	r20, r20
     69a:	55 1f       	adc	r21, r21
     69c:	8a 95       	dec	r24
     69e:	d2 f7       	brpl	.-12     	; 0x694 <usart_set_baudrate+0x162>
			div = (cpu_hz + baud / 2) / baud;
     6a0:	da 01       	movw	r26, r20
     6a2:	c9 01       	movw	r24, r18
     6a4:	b6 95       	lsr	r27
     6a6:	a7 95       	ror	r26
     6a8:	97 95       	ror	r25
     6aa:	87 95       	ror	r24
     6ac:	bc 01       	movw	r22, r24
     6ae:	cd 01       	movw	r24, r26
     6b0:	64 0d       	add	r22, r4
     6b2:	75 1d       	adc	r23, r5
     6b4:	86 1d       	adc	r24, r6
     6b6:	97 1d       	adc	r25, r7
     6b8:	0e 94 96 19 	call	0x332c	; 0x332c <__udivmodsi4>
     6bc:	1d c0       	rjmp	.+58     	; 0x6f8 <usart_set_baudrate+0x1c6>
		}
	} else {
		/* We will always do a right shift in this case, but we need to
		 * shift three extra positions because of the divide-by-8.
		 */
		baud <<= exp + 3;
     6be:	83 e0       	ldi	r24, 0x03	; 3
     6c0:	8c 0f       	add	r24, r28
     6c2:	a5 01       	movw	r20, r10
     6c4:	94 01       	movw	r18, r8
     6c6:	04 c0       	rjmp	.+8      	; 0x6d0 <usart_set_baudrate+0x19e>
     6c8:	22 0f       	add	r18, r18
     6ca:	33 1f       	adc	r19, r19
     6cc:	44 1f       	adc	r20, r20
     6ce:	55 1f       	adc	r21, r21
     6d0:	8a 95       	dec	r24
     6d2:	d2 f7       	brpl	.-12     	; 0x6c8 <usart_set_baudrate+0x196>
		div = (cpu_hz + baud / 2) / baud - 1;
     6d4:	da 01       	movw	r26, r20
     6d6:	c9 01       	movw	r24, r18
     6d8:	b6 95       	lsr	r27
     6da:	a7 95       	ror	r26
     6dc:	97 95       	ror	r25
     6de:	87 95       	ror	r24
     6e0:	bc 01       	movw	r22, r24
     6e2:	cd 01       	movw	r24, r26
     6e4:	64 0d       	add	r22, r4
     6e6:	75 1d       	adc	r23, r5
     6e8:	86 1d       	adc	r24, r6
     6ea:	97 1d       	adc	r25, r7
     6ec:	0e 94 96 19 	call	0x332c	; 0x332c <__udivmodsi4>
     6f0:	21 50       	subi	r18, 0x01	; 1
     6f2:	31 09       	sbc	r19, r1
     6f4:	41 09       	sbc	r20, r1
     6f6:	51 09       	sbc	r21, r1
	}

	(usart)->BAUDCTRLB = (uint8_t)(((div >> 8) & 0X0F) | (exp << 4));
     6f8:	83 2f       	mov	r24, r19
     6fa:	8f 70       	andi	r24, 0x0F	; 15
     6fc:	c2 95       	swap	r28
     6fe:	c0 7f       	andi	r28, 0xF0	; 240
     700:	c8 2b       	or	r28, r24
     702:	f7 01       	movw	r30, r14
     704:	c7 83       	std	Z+7, r28	; 0x07
	(usart)->BAUDCTRLA = (uint8_t)div;
     706:	26 83       	std	Z+6, r18	; 0x06

	return true;
     708:	81 e0       	ldi	r24, 0x01	; 1
     70a:	18 c0       	rjmp	.+48     	; 0x73c <usart_set_baudrate+0x20a>
		max_rate /= 2;
		min_rate /= 2;
	}

	if ((baud > max_rate) || (baud < min_rate)) {
		return false;
     70c:	80 e0       	ldi	r24, 0x00	; 0
     70e:	16 c0       	rjmp	.+44     	; 0x73c <usart_set_baudrate+0x20a>
     710:	80 e0       	ldi	r24, 0x00	; 0
     712:	14 c0       	rjmp	.+40     	; 0x73c <usart_set_baudrate+0x20a>
	if (exp < 0) {
		/* We are supposed to subtract 1, then apply BSCALE. We want to
		 * apply BSCALE first, so we need to turn everything inside the
		 * parenthesis into a single fractional expression.
		 */
		cpu_hz -= 8 * baud;
     714:	d5 01       	movw	r26, r10
     716:	c4 01       	movw	r24, r8
     718:	88 0f       	add	r24, r24
     71a:	99 1f       	adc	r25, r25
     71c:	aa 1f       	adc	r26, r26
     71e:	bb 1f       	adc	r27, r27
     720:	88 0f       	add	r24, r24
     722:	99 1f       	adc	r25, r25
     724:	aa 1f       	adc	r26, r26
     726:	bb 1f       	adc	r27, r27
     728:	88 0f       	add	r24, r24
     72a:	99 1f       	adc	r25, r25
     72c:	aa 1f       	adc	r26, r26
     72e:	bb 1f       	adc	r27, r27
     730:	48 1a       	sub	r4, r24
     732:	59 0a       	sbc	r5, r25
     734:	6a 0a       	sbc	r6, r26
     736:	7b 0a       	sbc	r7, r27

	/* Find the lowest possible exponent. */
	limit = 0xfffU >> 4;
	ratio = cpu_hz / baud;

	for (exp = -7; exp < 7; exp++) {
     738:	c9 ef       	ldi	r28, 0xF9	; 249
     73a:	89 cf       	rjmp	.-238    	; 0x64e <usart_set_baudrate+0x11c>

	(usart)->BAUDCTRLB = (uint8_t)(((div >> 8) & 0X0F) | (exp << 4));
	(usart)->BAUDCTRLA = (uint8_t)div;

	return true;
}
     73c:	cf 91       	pop	r28
     73e:	1f 91       	pop	r17
     740:	0f 91       	pop	r16
     742:	ff 90       	pop	r15
     744:	ef 90       	pop	r14
     746:	bf 90       	pop	r11
     748:	af 90       	pop	r10
     74a:	9f 90       	pop	r9
     74c:	8f 90       	pop	r8
     74e:	7f 90       	pop	r7
     750:	6f 90       	pop	r6
     752:	5f 90       	pop	r5
     754:	4f 90       	pop	r4
     756:	08 95       	ret

00000758 <usart_init_rs232>:
 *
 * \retval true if the initialization was successfull
 * \retval false if the initialization failed (error in baud rate calculation)
 */
bool usart_init_rs232(USART_t *usart, const usart_rs232_options_t *opt)
{
     758:	0f 93       	push	r16
     75a:	1f 93       	push	r17
     75c:	cf 93       	push	r28
     75e:	df 93       	push	r29
     760:	ec 01       	movw	r28, r24
     762:	8b 01       	movw	r16, r22
 *
 * \param module Pointer to the module's base address.
 */
static inline void sysclk_enable_peripheral_clock(const volatile void *module)
{
	if (module == NULL) {
     764:	00 97       	sbiw	r24, 0x00	; 0
     766:	09 f4       	brne	.+2      	; 0x76a <usart_init_rs232+0x12>
     768:	be c0       	rjmp	.+380    	; 0x8e6 <usart_init_rs232+0x18e>
		Assert(false);
	}
#ifdef AES
	else if (module == &AES) {
     76a:	80 3c       	cpi	r24, 0xC0	; 192
     76c:	91 05       	cpc	r25, r1
     76e:	21 f4       	brne	.+8      	; 0x778 <usart_init_rs232+0x20>
		sysclk_enable_module(SYSCLK_PORT_GEN, SYSCLK_AES);
     770:	60 e1       	ldi	r22, 0x10	; 16
     772:	80 e0       	ldi	r24, 0x00	; 0
     774:	4a d3       	rcall	.+1684   	; 0xe0a <sysclk_enable_module>
     776:	b7 c0       	rjmp	.+366    	; 0x8e6 <usart_init_rs232+0x18e>
	else if (module == &EBI) {
		sysclk_enable_module(SYSCLK_PORT_GEN, SYSCLK_EBI);
	}
#endif
#ifdef RTC
	else if (module == &RTC) {
     778:	c1 15       	cp	r28, r1
     77a:	84 e0       	ldi	r24, 0x04	; 4
     77c:	d8 07       	cpc	r29, r24
     77e:	21 f4       	brne	.+8      	; 0x788 <usart_init_rs232+0x30>
		sysclk_enable_module(SYSCLK_PORT_GEN, SYSCLK_RTC);
     780:	64 e0       	ldi	r22, 0x04	; 4
     782:	80 e0       	ldi	r24, 0x00	; 0
     784:	42 d3       	rcall	.+1668   	; 0xe0a <sysclk_enable_module>
     786:	af c0       	rjmp	.+350    	; 0x8e6 <usart_init_rs232+0x18e>
	}
#endif
#ifdef EVSYS
	else if (module == &EVSYS) {
     788:	c0 38       	cpi	r28, 0x80	; 128
     78a:	e1 e0       	ldi	r30, 0x01	; 1
     78c:	de 07       	cpc	r29, r30
     78e:	21 f4       	brne	.+8      	; 0x798 <usart_init_rs232+0x40>
		sysclk_enable_module(SYSCLK_PORT_GEN, SYSCLK_EVSYS);
     790:	62 e0       	ldi	r22, 0x02	; 2
     792:	80 e0       	ldi	r24, 0x00	; 0
     794:	3a d3       	rcall	.+1652   	; 0xe0a <sysclk_enable_module>
     796:	a7 c0       	rjmp	.+334    	; 0x8e6 <usart_init_rs232+0x18e>
	}
#endif
#ifdef DMA
	else if (module == &DMA) {
     798:	c1 15       	cp	r28, r1
     79a:	f1 e0       	ldi	r31, 0x01	; 1
     79c:	df 07       	cpc	r29, r31
		sysclk_enable_module(SYSCLK_PORT_GEN, SYSCLK_DMA);
     79e:	21 f4       	brne	.+8      	; 0x7a8 <usart_init_rs232+0x50>
     7a0:	61 e0       	ldi	r22, 0x01	; 1
     7a2:	80 e0       	ldi	r24, 0x00	; 0
     7a4:	32 d3       	rcall	.+1636   	; 0xe0a <sysclk_enable_module>
     7a6:	9f c0       	rjmp	.+318    	; 0x8e6 <usart_init_rs232+0x18e>
	else if (module == &EDMA) {
		sysclk_enable_module(SYSCLK_PORT_GEN, SYSCLK_EDMA);
	}
#endif
#ifdef ACA
	else if (module == &ACA) {
     7a8:	c0 38       	cpi	r28, 0x80	; 128
     7aa:	83 e0       	ldi	r24, 0x03	; 3
     7ac:	d8 07       	cpc	r29, r24
		sysclk_enable_module(SYSCLK_PORT_A, SYSCLK_AC);
     7ae:	21 f4       	brne	.+8      	; 0x7b8 <usart_init_rs232+0x60>
     7b0:	61 e0       	ldi	r22, 0x01	; 1
     7b2:	81 e0       	ldi	r24, 0x01	; 1
     7b4:	2a d3       	rcall	.+1620   	; 0xe0a <sysclk_enable_module>
     7b6:	97 c0       	rjmp	.+302    	; 0x8e6 <usart_init_rs232+0x18e>
	else if (module == &ACB) {
		sysclk_enable_module(SYSCLK_PORT_B, SYSCLK_AC);
	}
#endif
#ifdef ADCA
	else if (module == &ADCA) {
     7b8:	c1 15       	cp	r28, r1
     7ba:	e2 e0       	ldi	r30, 0x02	; 2
     7bc:	de 07       	cpc	r29, r30
		sysclk_enable_module(SYSCLK_PORT_A, SYSCLK_ADC);
     7be:	21 f4       	brne	.+8      	; 0x7c8 <usart_init_rs232+0x70>
     7c0:	62 e0       	ldi	r22, 0x02	; 2
     7c2:	81 e0       	ldi	r24, 0x01	; 1
     7c4:	22 d3       	rcall	.+1604   	; 0xe0a <sysclk_enable_module>
     7c6:	8f c0       	rjmp	.+286    	; 0x8e6 <usart_init_rs232+0x18e>
	}
#endif
// Workaround for bad XMEGA D header file
#if !XMEGA_D
#ifdef DACB
	else if (module == &DACB) {
     7c8:	c0 32       	cpi	r28, 0x20	; 32
     7ca:	f3 e0       	ldi	r31, 0x03	; 3
     7cc:	df 07       	cpc	r29, r31
		sysclk_enable_module(SYSCLK_PORT_B, SYSCLK_DAC);
     7ce:	21 f4       	brne	.+8      	; 0x7d8 <usart_init_rs232+0x80>
     7d0:	64 e0       	ldi	r22, 0x04	; 4
     7d2:	82 e0       	ldi	r24, 0x02	; 2
     7d4:	1a d3       	rcall	.+1588   	; 0xe0a <sysclk_enable_module>
	}
#endif
#endif // Workaround end
#ifdef TCC0
	else if (module == &TCC0) {
     7d6:	87 c0       	rjmp	.+270    	; 0x8e6 <usart_init_rs232+0x18e>
     7d8:	c1 15       	cp	r28, r1
     7da:	88 e0       	ldi	r24, 0x08	; 8
     7dc:	d8 07       	cpc	r29, r24
		sysclk_enable_module(SYSCLK_PORT_C, SYSCLK_TC0);
     7de:	21 f4       	brne	.+8      	; 0x7e8 <usart_init_rs232+0x90>
     7e0:	61 e0       	ldi	r22, 0x01	; 1
     7e2:	83 e0       	ldi	r24, 0x03	; 3
     7e4:	12 d3       	rcall	.+1572   	; 0xe0a <sysclk_enable_module>
	}
#endif
#ifdef TCD0
	else if (module == &TCD0) {
     7e6:	7f c0       	rjmp	.+254    	; 0x8e6 <usart_init_rs232+0x18e>
     7e8:	c1 15       	cp	r28, r1
     7ea:	e9 e0       	ldi	r30, 0x09	; 9
     7ec:	de 07       	cpc	r29, r30
		sysclk_enable_module(SYSCLK_PORT_D, SYSCLK_TC0);
     7ee:	21 f4       	brne	.+8      	; 0x7f8 <usart_init_rs232+0xa0>
     7f0:	61 e0       	ldi	r22, 0x01	; 1
     7f2:	84 e0       	ldi	r24, 0x04	; 4
     7f4:	0a d3       	rcall	.+1556   	; 0xe0a <sysclk_enable_module>
	}
#endif
#ifdef TCE0
	else if (module == &TCE0) {
     7f6:	77 c0       	rjmp	.+238    	; 0x8e6 <usart_init_rs232+0x18e>
     7f8:	c1 15       	cp	r28, r1
     7fa:	fa e0       	ldi	r31, 0x0A	; 10
     7fc:	df 07       	cpc	r29, r31
		sysclk_enable_module(SYSCLK_PORT_E, SYSCLK_TC0);
     7fe:	21 f4       	brne	.+8      	; 0x808 <usart_init_rs232+0xb0>
     800:	61 e0       	ldi	r22, 0x01	; 1
     802:	85 e0       	ldi	r24, 0x05	; 5
     804:	02 d3       	rcall	.+1540   	; 0xe0a <sysclk_enable_module>
	else if (module == &TCF0) {
		sysclk_enable_module(SYSCLK_PORT_F, SYSCLK_TC0);
	}
#endif
#ifdef TCC1
	else if (module == &TCC1) {
     806:	6f c0       	rjmp	.+222    	; 0x8e6 <usart_init_rs232+0x18e>
     808:	c0 34       	cpi	r28, 0x40	; 64
     80a:	88 e0       	ldi	r24, 0x08	; 8
     80c:	d8 07       	cpc	r29, r24
		sysclk_enable_module(SYSCLK_PORT_C, SYSCLK_TC1);
     80e:	21 f4       	brne	.+8      	; 0x818 <usart_init_rs232+0xc0>
     810:	62 e0       	ldi	r22, 0x02	; 2
     812:	83 e0       	ldi	r24, 0x03	; 3
     814:	fa d2       	rcall	.+1524   	; 0xe0a <sysclk_enable_module>
	}
#endif
#ifdef TCD1
	else if (module == &TCD1) {
     816:	67 c0       	rjmp	.+206    	; 0x8e6 <usart_init_rs232+0x18e>
     818:	c0 34       	cpi	r28, 0x40	; 64
     81a:	e9 e0       	ldi	r30, 0x09	; 9
		sysclk_enable_module(SYSCLK_PORT_D, SYSCLK_TC1);
     81c:	de 07       	cpc	r29, r30
     81e:	21 f4       	brne	.+8      	; 0x828 <usart_init_rs232+0xd0>
     820:	62 e0       	ldi	r22, 0x02	; 2
     822:	84 e0       	ldi	r24, 0x04	; 4
     824:	f2 d2       	rcall	.+1508   	; 0xe0a <sysclk_enable_module>
	else if (module == &TCD5) {
		sysclk_enable_module(SYSCLK_PORT_D, SYSCLK_TC5);
	}
#endif
#ifdef HIRESC
	else if (module == &HIRESC) {
     826:	5f c0       	rjmp	.+190    	; 0x8e6 <usart_init_rs232+0x18e>
     828:	c0 39       	cpi	r28, 0x90	; 144
     82a:	f8 e0       	ldi	r31, 0x08	; 8
			sysclk_enable_module(SYSCLK_PORT_C, SYSCLK_HIRES);
     82c:	df 07       	cpc	r29, r31
     82e:	21 f4       	brne	.+8      	; 0x838 <usart_init_rs232+0xe0>
     830:	64 e0       	ldi	r22, 0x04	; 4
     832:	83 e0       	ldi	r24, 0x03	; 3
     834:	ea d2       	rcall	.+1492   	; 0xe0a <sysclk_enable_module>
	}
#endif
#ifdef HIRESD
	else if (module == &HIRESD) {
     836:	57 c0       	rjmp	.+174    	; 0x8e6 <usart_init_rs232+0x18e>
     838:	c0 39       	cpi	r28, 0x90	; 144
     83a:	89 e0       	ldi	r24, 0x09	; 9
		sysclk_enable_module(SYSCLK_PORT_D, SYSCLK_HIRES);
     83c:	d8 07       	cpc	r29, r24
     83e:	21 f4       	brne	.+8      	; 0x848 <usart_init_rs232+0xf0>
     840:	64 e0       	ldi	r22, 0x04	; 4
     842:	84 e0       	ldi	r24, 0x04	; 4
     844:	e2 d2       	rcall	.+1476   	; 0xe0a <sysclk_enable_module>
	}
#endif
#ifdef HIRESE
	else if (module == &HIRESE) {
     846:	4f c0       	rjmp	.+158    	; 0x8e6 <usart_init_rs232+0x18e>
     848:	c0 39       	cpi	r28, 0x90	; 144
     84a:	ea e0       	ldi	r30, 0x0A	; 10
		sysclk_enable_module(SYSCLK_PORT_E, SYSCLK_HIRES);
     84c:	de 07       	cpc	r29, r30
     84e:	21 f4       	brne	.+8      	; 0x858 <usart_init_rs232+0x100>
     850:	64 e0       	ldi	r22, 0x04	; 4
     852:	85 e0       	ldi	r24, 0x05	; 5
	else if (module == &HIRESF) {
		sysclk_enable_module(SYSCLK_PORT_F, SYSCLK_HIRES);
	}
#endif
#ifdef SPIC
	else if (module == &SPIC) {
     854:	da d2       	rcall	.+1460   	; 0xe0a <sysclk_enable_module>
     856:	47 c0       	rjmp	.+142    	; 0x8e6 <usart_init_rs232+0x18e>
     858:	c0 3c       	cpi	r28, 0xC0	; 192
     85a:	f8 e0       	ldi	r31, 0x08	; 8
		sysclk_enable_module(SYSCLK_PORT_C, SYSCLK_SPI);
     85c:	df 07       	cpc	r29, r31
     85e:	21 f4       	brne	.+8      	; 0x868 <usart_init_rs232+0x110>
     860:	68 e0       	ldi	r22, 0x08	; 8
     862:	83 e0       	ldi	r24, 0x03	; 3
	}
#endif
#ifdef SPID
	else if (module == &SPID) {
     864:	d2 d2       	rcall	.+1444   	; 0xe0a <sysclk_enable_module>
     866:	3f c0       	rjmp	.+126    	; 0x8e6 <usart_init_rs232+0x18e>
     868:	c0 3c       	cpi	r28, 0xC0	; 192
     86a:	89 e0       	ldi	r24, 0x09	; 9
		sysclk_enable_module(SYSCLK_PORT_D, SYSCLK_SPI);
     86c:	d8 07       	cpc	r29, r24
     86e:	21 f4       	brne	.+8      	; 0x878 <usart_init_rs232+0x120>
     870:	68 e0       	ldi	r22, 0x08	; 8
     872:	84 e0       	ldi	r24, 0x04	; 4
	else if (module == &SPIF) {
		sysclk_enable_module(SYSCLK_PORT_F, SYSCLK_SPI);
	}
#endif
#ifdef USARTC0
	else if (module == &USARTC0) {
     874:	ca d2       	rcall	.+1428   	; 0xe0a <sysclk_enable_module>
     876:	37 c0       	rjmp	.+110    	; 0x8e6 <usart_init_rs232+0x18e>
     878:	c0 3a       	cpi	r28, 0xA0	; 160
     87a:	e8 e0       	ldi	r30, 0x08	; 8
		sysclk_enable_module(SYSCLK_PORT_C, SYSCLK_USART0);
     87c:	de 07       	cpc	r29, r30
     87e:	21 f4       	brne	.+8      	; 0x888 <usart_init_rs232+0x130>
     880:	60 e1       	ldi	r22, 0x10	; 16
     882:	83 e0       	ldi	r24, 0x03	; 3
	}
#endif
#ifdef USARTD0
	else if (module == &USARTD0) {
     884:	c2 d2       	rcall	.+1412   	; 0xe0a <sysclk_enable_module>
     886:	2f c0       	rjmp	.+94     	; 0x8e6 <usart_init_rs232+0x18e>
     888:	c0 3a       	cpi	r28, 0xA0	; 160
     88a:	f9 e0       	ldi	r31, 0x09	; 9
		sysclk_enable_module(SYSCLK_PORT_D, SYSCLK_USART0);
     88c:	df 07       	cpc	r29, r31
     88e:	21 f4       	brne	.+8      	; 0x898 <usart_init_rs232+0x140>
     890:	60 e1       	ldi	r22, 0x10	; 16
     892:	84 e0       	ldi	r24, 0x04	; 4
	}
#endif
#ifdef USARTE0
	else if (module == &USARTE0) {
     894:	ba d2       	rcall	.+1396   	; 0xe0a <sysclk_enable_module>
     896:	27 c0       	rjmp	.+78     	; 0x8e6 <usart_init_rs232+0x18e>
     898:	c0 3a       	cpi	r28, 0xA0	; 160
		sysclk_enable_module(SYSCLK_PORT_E, SYSCLK_USART0);
     89a:	8a e0       	ldi	r24, 0x0A	; 10
     89c:	d8 07       	cpc	r29, r24
     89e:	21 f4       	brne	.+8      	; 0x8a8 <usart_init_rs232+0x150>
     8a0:	60 e1       	ldi	r22, 0x10	; 16
     8a2:	85 e0       	ldi	r24, 0x05	; 5
	else if (module == &USARTF0) {
		sysclk_enable_module(SYSCLK_PORT_F, SYSCLK_USART0);
	}
#endif
#ifdef USARTC1
	else if (module == &USARTC1) {
     8a4:	b2 d2       	rcall	.+1380   	; 0xe0a <sysclk_enable_module>
     8a6:	1f c0       	rjmp	.+62     	; 0x8e6 <usart_init_rs232+0x18e>
     8a8:	c0 3b       	cpi	r28, 0xB0	; 176
		sysclk_enable_module(SYSCLK_PORT_C, SYSCLK_USART1);
     8aa:	e8 e0       	ldi	r30, 0x08	; 8
     8ac:	de 07       	cpc	r29, r30
     8ae:	21 f4       	brne	.+8      	; 0x8b8 <usart_init_rs232+0x160>
     8b0:	60 e2       	ldi	r22, 0x20	; 32
     8b2:	83 e0       	ldi	r24, 0x03	; 3
	}
#endif
#ifdef USARTD1
	else if (module == &USARTD1) {
     8b4:	aa d2       	rcall	.+1364   	; 0xe0a <sysclk_enable_module>
     8b6:	17 c0       	rjmp	.+46     	; 0x8e6 <usart_init_rs232+0x18e>
     8b8:	c0 3b       	cpi	r28, 0xB0	; 176
		sysclk_enable_module(SYSCLK_PORT_D, SYSCLK_USART1);
     8ba:	f9 e0       	ldi	r31, 0x09	; 9
     8bc:	df 07       	cpc	r29, r31
     8be:	21 f4       	brne	.+8      	; 0x8c8 <usart_init_rs232+0x170>
     8c0:	60 e2       	ldi	r22, 0x20	; 32
     8c2:	84 e0       	ldi	r24, 0x04	; 4
	else if (module == &USARTF1) {
		sysclk_enable_module(SYSCLK_PORT_F, SYSCLK_USART1);
	}
#endif
#ifdef TWIC
	else if (module == &TWIC) {
     8c4:	a2 d2       	rcall	.+1348   	; 0xe0a <sysclk_enable_module>
     8c6:	0f c0       	rjmp	.+30     	; 0x8e6 <usart_init_rs232+0x18e>
     8c8:	c0 38       	cpi	r28, 0x80	; 128
     8ca:	84 e0       	ldi	r24, 0x04	; 4
		sysclk_enable_module(SYSCLK_PORT_C, SYSCLK_TWI);
     8cc:	d8 07       	cpc	r29, r24
     8ce:	21 f4       	brne	.+8      	; 0x8d8 <usart_init_rs232+0x180>
     8d0:	60 e4       	ldi	r22, 0x40	; 64
     8d2:	83 e0       	ldi	r24, 0x03	; 3
     8d4:	9a d2       	rcall	.+1332   	; 0xe0a <sysclk_enable_module>
	else if (module == &TWID) {
		sysclk_enable_module(SYSCLK_PORT_D, SYSCLK_TWI);
	}
#endif
#ifdef TWIE
	else if (module == &TWIE) {
     8d6:	07 c0       	rjmp	.+14     	; 0x8e6 <usart_init_rs232+0x18e>
     8d8:	c0 3a       	cpi	r28, 0xA0	; 160
     8da:	e4 e0       	ldi	r30, 0x04	; 4
     8dc:	de 07       	cpc	r29, r30
		sysclk_enable_module(SYSCLK_PORT_E, SYSCLK_TWI);
     8de:	19 f4       	brne	.+6      	; 0x8e6 <usart_init_rs232+0x18e>
     8e0:	60 e4       	ldi	r22, 0x40	; 64
     8e2:	85 e0       	ldi	r24, 0x05	; 5
 * - 0x2        : IrDA mode.
 * - 0x3        : Master SPI mode.
 */
static inline void usart_set_mode(USART_t *usart, USART_CMODE_t usartmode)
{
	(usart)->CTRLC = ((usart)->CTRLC & (~USART_CMODE_gm)) | usartmode;
     8e4:	92 d2       	rcall	.+1316   	; 0xe0a <sysclk_enable_module>
     8e6:	8d 81       	ldd	r24, Y+5	; 0x05
     8e8:	8f 73       	andi	r24, 0x3F	; 63
 *  \param twoStopBits Enable two stop bit mode. Use bool type.
 */
static inline void usart_format_set(USART_t *usart, USART_CHSIZE_t charSize,
		USART_PMODE_t parityMode, bool twoStopBits)
{
	(usart)->CTRLC = (uint8_t)charSize | parityMode
     8ea:	8d 83       	std	Y+5, r24	; 0x05
     8ec:	f8 01       	movw	r30, r16
     8ee:	95 81       	ldd	r25, Z+5	; 0x05
     8f0:	84 81       	ldd	r24, Z+4	; 0x04
     8f2:	89 2b       	or	r24, r25
     8f4:	96 81       	ldd	r25, Z+6	; 0x06
     8f6:	91 11       	cpse	r25, r1
     8f8:	98 e0       	ldi	r25, 0x08	; 8
     8fa:	89 2b       	or	r24, r25
	bool result;
	sysclk_enable_peripheral_clock(usart);
	usart_set_mode(usart, USART_CMODE_ASYNCHRONOUS_gc);
	usart_format_set(usart, opt->charlength, opt->paritytype,
			opt->stopbits);
	result = usart_set_baudrate(usart, opt->baudrate, sysclk_get_per_hz());
     8fc:	8d 83       	std	Y+5, r24	; 0x05
     8fe:	f8 01       	movw	r30, r16
     900:	40 81       	ld	r20, Z
     902:	51 81       	ldd	r21, Z+1	; 0x01
     904:	62 81       	ldd	r22, Z+2	; 0x02
     906:	73 81       	ldd	r23, Z+3	; 0x03
     908:	00 e0       	ldi	r16, 0x00	; 0
     90a:	18 e4       	ldi	r17, 0x48	; 72
     90c:	28 ee       	ldi	r18, 0xE8	; 232
     90e:	31 e0       	ldi	r19, 0x01	; 1
     910:	ce 01       	movw	r24, r28
     912:	0f de       	rcall	.-994    	; 0x532 <usart_set_baudrate>
 *
 * \param usart Pointer to the USART module.
 */
static inline void usart_tx_enable(USART_t *usart)
{
	(usart)->CTRLB |= USART_TXEN_bm;
     914:	9c 81       	ldd	r25, Y+4	; 0x04
     916:	98 60       	ori	r25, 0x08	; 8
     918:	9c 83       	std	Y+4, r25	; 0x04
 *
 * \param usart Pointer to the USART module
 */
static inline void usart_rx_enable(USART_t *usart)
{
	(usart)->CTRLB |= USART_RXEN_bm;
     91a:	9c 81       	ldd	r25, Y+4	; 0x04
     91c:	90 61       	ori	r25, 0x10	; 16
     91e:	9c 83       	std	Y+4, r25	; 0x04
	usart_tx_enable(usart);
	usart_rx_enable(usart);
	
	return result;
}
     920:	df 91       	pop	r29
     922:	cf 91       	pop	r28
     924:	1f 91       	pop	r17
     926:	0f 91       	pop	r16
     928:	08 95       	ret

0000092a <hall_sensor_init>:
 */ 

#include <asf.h>
#include "hall.h"

void hall_sensor_init(void){
     92a:	08 95       	ret

0000092c <cam_init>:

#include "spy_cam.h"
#include <asf.h>

void cam_init(void){
	PORTA.DIR |= 0x08; // Sets A3 to output
     92c:	e0 e0       	ldi	r30, 0x00	; 0
     92e:	f6 e0       	ldi	r31, 0x06	; 6
     930:	80 81       	ld	r24, Z
     932:	88 60       	ori	r24, 0x08	; 8
     934:	80 83       	st	Z, r24
     936:	08 95       	ret

00000938 <cam_switch>:
}

void cam_switch(void){
	PORTA.OUT ^= 0x08; // Changes A3 from high to low or vice-versa
     938:	e0 e0       	ldi	r30, 0x00	; 0
     93a:	f6 e0       	ldi	r31, 0x06	; 6
     93c:	94 81       	ldd	r25, Z+4	; 0x04
     93e:	88 e0       	ldi	r24, 0x08	; 8
     940:	89 27       	eor	r24, r25
     942:	84 83       	std	Z+4, r24	; 0x04
     944:	08 95       	ret

00000946 <gps_uart_init>:

#include <asf.h>
#include <string.h>
#include "mt3339.h"

void gps_uart_init(void){
     946:	cf 93       	push	r28
     948:	df 93       	push	r29
     94a:	cd b7       	in	r28, 0x3d	; 61
     94c:	de b7       	in	r29, 0x3e	; 62
     94e:	27 97       	sbiw	r28, 0x07	; 7
     950:	cd bf       	out	0x3d, r28	; 61
     952:	de bf       	out	0x3e, r29	; 62
		sysclk_enable_module(SYSCLK_PORT_C, SYSCLK_USART1);
	}
#endif
#ifdef USARTD1
	else if (module == &USARTD1) {
		sysclk_enable_module(SYSCLK_PORT_D, SYSCLK_USART1);
     954:	60 e2       	ldi	r22, 0x20	; 32
     956:	84 e0       	ldi	r24, 0x04	; 4
     958:	58 d2       	rcall	.+1200   	; 0xe0a <sysclk_enable_module>
		.charlength =	GPS_TERMINAL_SERIAL_CHAR_LEN,
		.paritytype =	GPS_TERMINAL_SERIAL_PARITY,
		.stopbits	=	GPS_TERMINAL_SERIAL_STOP_BIT
	};
	
	GPS_TERMINAL_PORT.DIR |= GPS_TERMINAL_TX_PIN; // Puts pin to output
     95a:	e0 e6       	ldi	r30, 0x60	; 96
     95c:	f6 e0       	ldi	r31, 0x06	; 6
     95e:	80 81       	ld	r24, Z
     960:	80 68       	ori	r24, 0x80	; 128
     962:	80 83       	st	Z, r24
static inline bool usart_serial_init(usart_if usart, const
		usart_serial_options_t *options)
{
	// USART options.
	usart_rs232_options_t usart_rs232_options;
	usart_rs232_options.charlength   = options->charlength;
     964:	e6 e0       	ldi	r30, 0x06	; 6
     966:	f0 e2       	ldi	r31, 0x20	; 32
     968:	84 81       	ldd	r24, Z+4	; 0x04
     96a:	8d 83       	std	Y+5, r24	; 0x05
	usart_rs232_options.paritytype   = options->paritytype;
     96c:	85 81       	ldd	r24, Z+5	; 0x05
     96e:	8e 83       	std	Y+6, r24	; 0x06
	usart_rs232_options.stopbits     = options->stopbits;
     970:	86 81       	ldd	r24, Z+6	; 0x06
     972:	8f 83       	std	Y+7, r24	; 0x07
	usart_rs232_options.baudrate     = options->baudrate;
     974:	80 81       	ld	r24, Z
     976:	91 81       	ldd	r25, Z+1	; 0x01
     978:	a2 81       	ldd	r26, Z+2	; 0x02
     97a:	b3 81       	ldd	r27, Z+3	; 0x03
     97c:	89 83       	std	Y+1, r24	; 0x01
     97e:	9a 83       	std	Y+2, r25	; 0x02
     980:	ab 83       	std	Y+3, r26	; 0x03
     982:	bc 83       	std	Y+4, r27	; 0x04
		sysclk_enable_module(SYSCLK_PORT_D,PR_USART0_bm);
	}
#endif
#ifdef USARTD1
	if((uint16_t)usart == (uint16_t)&USARTD1) {
		sysclk_enable_module(SYSCLK_PORT_D,PR_USART1_bm);
     984:	60 e2       	ldi	r22, 0x20	; 32
     986:	84 e0       	ldi	r24, 0x04	; 4
     988:	40 d2       	rcall	.+1152   	; 0xe0a <sysclk_enable_module>
#ifdef USARTF1
	if((uint16_t)usart == (uint16_t)&USARTF1) {
		sysclk_enable_module(SYSCLK_PORT_F,PR_USART1_bm);
	}
#endif
	if (usart_init_rs232(usart, &usart_rs232_options)) {
     98a:	be 01       	movw	r22, r28
     98c:	6f 5f       	subi	r22, 0xFF	; 255
     98e:	7f 4f       	sbci	r23, 0xFF	; 255
     990:	80 eb       	ldi	r24, 0xB0	; 176
     992:	99 e0       	ldi	r25, 0x09	; 9
     994:	e1 de       	rcall	.-574    	; 0x758 <usart_init_rs232>
	
	usart_serial_init(GPS_TERMINAL_SERIAL,&gps_config);
}
     996:	27 96       	adiw	r28, 0x07	; 7
     998:	cd bf       	out	0x3d, r28	; 61
     99a:	de bf       	out	0x3e, r29	; 62
     99c:	df 91       	pop	r29
     99e:	cf 91       	pop	r28
     9a0:	08 95       	ret

000009a2 <__portable_avr_delay_cycles>:
 *
 * @{
 */
__always_optimize
static inline void __portable_avr_delay_cycles(unsigned long n)
{
     9a2:	04 c0       	rjmp	.+8      	; 0x9ac <__portable_avr_delay_cycles+0xa>
	while (n) {
		barrier();
		n--;
     9a4:	61 50       	subi	r22, 0x01	; 1
     9a6:	71 09       	sbc	r23, r1
     9a8:	81 09       	sbc	r24, r1
     9aa:	91 09       	sbc	r25, r1
 * @{
 */
__always_optimize
static inline void __portable_avr_delay_cycles(unsigned long n)
{
	while (n) {
     9ac:	61 15       	cp	r22, r1
     9ae:	71 05       	cpc	r23, r1
     9b0:	81 05       	cpc	r24, r1
     9b2:	91 05       	cpc	r25, r1
     9b4:	b9 f7       	brne	.-18     	; 0x9a4 <__portable_avr_delay_cycles+0x2>
     9b6:	08 95       	ret

000009b8 <flip_ms5607>:
	
	return rx_data;
}

void flip_ms5607(void){
	MS5607_PORT.OUT ^= MS5607_PIN;
     9b8:	e0 e4       	ldi	r30, 0x40	; 64
     9ba:	f6 e0       	ldi	r31, 0x06	; 6
     9bc:	94 81       	ldd	r25, Z+4	; 0x04
     9be:	80 e1       	ldi	r24, 0x10	; 16
     9c0:	89 27       	eor	r24, r25
     9c2:	84 83       	std	Z+4, r24	; 0x04
     9c4:	08 95       	ret

000009c6 <ms5607_init>:
#include <asf.h>
#include "ms5607.h"
#include "spi_controller.h"

void ms5607_init(void){
	PORTC.OUT |= 0x10; // makes the 4th pin on Port C be set on high (0b00010000)
     9c6:	e0 e4       	ldi	r30, 0x40	; 64
     9c8:	f6 e0       	ldi	r31, 0x06	; 6
     9ca:	84 81       	ldd	r24, Z+4	; 0x04
     9cc:	80 61       	ori	r24, 0x10	; 16
     9ce:	84 83       	std	Z+4, r24	; 0x04
	delay_ms(5);
     9d0:	6b e2       	ldi	r22, 0x2B	; 43
     9d2:	78 e6       	ldi	r23, 0x68	; 104
     9d4:	80 e0       	ldi	r24, 0x00	; 0
     9d6:	90 e0       	ldi	r25, 0x00	; 0
     9d8:	e4 df       	rcall	.-56     	; 0x9a2 <__portable_avr_delay_cycles>
	
	// Resets the ms5607
	flip_ms5607();
     9da:	ee df       	rcall	.-36     	; 0x9b8 <flip_ms5607>
	spi_write(CMD_MS5607_RESET);
     9dc:	8e e1       	ldi	r24, 0x1E	; 30
     9de:	82 d0       	rcall	.+260    	; 0xae4 <spi_write>
     9e0:	60 e8       	ldi	r22, 0x80	; 128
	delay_ms(3);
     9e2:	7e e3       	ldi	r23, 0x3E	; 62
     9e4:	80 e0       	ldi	r24, 0x00	; 0
     9e6:	90 e0       	ldi	r25, 0x00	; 0
     9e8:	dc df       	rcall	.-72     	; 0x9a2 <__portable_avr_delay_cycles>
	flip_ms5607();
     9ea:	e6 df       	rcall	.-52     	; 0x9b8 <flip_ms5607>
	delay_ms(2);
     9ec:	6b ea       	ldi	r22, 0xAB	; 171
     9ee:	79 e2       	ldi	r23, 0x29	; 41
     9f0:	80 e0       	ldi	r24, 0x00	; 0
     9f2:	90 e0       	ldi	r25, 0x00	; 0
     9f4:	d6 cf       	rjmp	.-84     	; 0x9a2 <__portable_avr_delay_cycles>
     9f6:	08 95       	ret

000009f8 <ms5607_read>:
     9f8:	cf 93       	push	r28
}

uint16_t ms5607_read(uint16_t comm)
{
     9fa:	df 93       	push	r29
     9fc:	c8 2f       	mov	r28, r24
	uint16_t rx_data = 0; // temporary 16-bit value
	flip_ms5607(); // select our spi device
     9fe:	dc df       	rcall	.-72     	; 0x9b8 <flip_ms5607>
	spi_write(comm); // write a specified command to ask for data
     a00:	8c 2f       	mov	r24, r28
	
	/*typecast this expression from an 8-bit to a 16-bit and shift it 8 bits to the left
	  meaning the returned value is now in the upper 8 bits rx_data*/
	rx_data = (uint16_t)spi_read()<<8; 
     a02:	70 d0       	rcall	.+224    	; 0xae4 <spi_write>
     a04:	5f d0       	rcall	.+190    	; 0xac4 <spi_read>
     a06:	c8 2f       	mov	r28, r24
     a08:	d0 e0       	ldi	r29, 0x00	; 0
     a0a:	dc 2f       	mov	r29, r28
	
	// OR the second byte with the 16-bit variable, the returned value is now in the lower 8 bits of 'rx_data'
	rx_data |= spi_read(); 
     a0c:	cc 27       	eor	r28, r28
     a0e:	5a d0       	rcall	.+180    	; 0xac4 <spi_read>
     a10:	c8 2b       	or	r28, r24
	
	flip_ms5607(); // end spi exchange
     a12:	d2 df       	rcall	.-92     	; 0x9b8 <flip_ms5607>
     a14:	ce 01       	movw	r24, r28
	
	return rx_data; // return the 16-bit value
}
     a16:	df 91       	pop	r29
     a18:	cf 91       	pop	r28
     a1a:	08 95       	ret

00000a1c <ms5607_convert_d1>:
     a1c:	cf 92       	push	r12

uint32_t ms5607_convert_d1(void)
{
     a1e:	df 92       	push	r13
     a20:	ef 92       	push	r14
     a22:	ff 92       	push	r15
	uint32_t rx_data = 0; // temporary 16-bit value
	// CONVERT D1
	flip_ms5607(); // select our spi device
     a24:	c9 df       	rcall	.-110    	; 0x9b8 <flip_ms5607>
	spi_write(CMD_MS5607_D1_4096); // write a specified command to ask for data
     a26:	88 e4       	ldi	r24, 0x48	; 72
     a28:	5d d0       	rcall	.+186    	; 0xae4 <spi_write>
	delay_ms(10);
     a2a:	66 e5       	ldi	r22, 0x56	; 86
     a2c:	70 ed       	ldi	r23, 0xD0	; 208
     a2e:	80 e0       	ldi	r24, 0x00	; 0
     a30:	90 e0       	ldi	r25, 0x00	; 0
	flip_ms5607();
     a32:	b7 df       	rcall	.-146    	; 0x9a2 <__portable_avr_delay_cycles>
	
	flip_ms5607();
     a34:	c1 df       	rcall	.-126    	; 0x9b8 <flip_ms5607>
     a36:	c0 df       	rcall	.-128    	; 0x9b8 <flip_ms5607>
	spi_write(CMD_MS5607_READ_ADC);
     a38:	80 e0       	ldi	r24, 0x00	; 0
     a3a:	54 d0       	rcall	.+168    	; 0xae4 <spi_write>
     a3c:	43 d0       	rcall	.+134    	; 0xac4 <spi_read>
	rx_data  = (uint32_t) spi_read()<<16;
     a3e:	c8 2e       	mov	r12, r24
     a40:	d1 2c       	mov	r13, r1
     a42:	e1 2c       	mov	r14, r1
     a44:	f1 2c       	mov	r15, r1
     a46:	76 01       	movw	r14, r12
     a48:	dd 24       	eor	r13, r13
	rx_data |= (uint32_t) spi_read()<<8;
     a4a:	cc 24       	eor	r12, r12
     a4c:	3b d0       	rcall	.+118    	; 0xac4 <spi_read>
     a4e:	d8 2a       	or	r13, r24
	rx_data |= spi_read();
     a50:	39 d0       	rcall	.+114    	; 0xac4 <spi_read>
     a52:	c8 2a       	or	r12, r24
     a54:	b1 df       	rcall	.-158    	; 0x9b8 <flip_ms5607>
	flip_ms5607();
     a56:	c7 01       	movw	r24, r14
     a58:	b6 01       	movw	r22, r12
	
	return rx_data;
}
     a5a:	ff 90       	pop	r15
     a5c:	ef 90       	pop	r14
     a5e:	df 90       	pop	r13
     a60:	cf 90       	pop	r12
     a62:	08 95       	ret

00000a64 <ms5607_convert_d2>:
     a64:	cf 92       	push	r12
     a66:	df 92       	push	r13

uint32_t ms5607_convert_d2(void)
{
     a68:	ef 92       	push	r14
     a6a:	ff 92       	push	r15
	uint32_t rx_data = 0; // temporary 16-bit value
	// CONVERT D2
	flip_ms5607(); // select our spi device
     a6c:	a5 df       	rcall	.-182    	; 0x9b8 <flip_ms5607>
	spi_write(CMD_MS5607_D2_4096); // write a specified command to ask for data
     a6e:	88 e5       	ldi	r24, 0x58	; 88
     a70:	39 d0       	rcall	.+114    	; 0xae4 <spi_write>
	delay_ms(10);
     a72:	66 e5       	ldi	r22, 0x56	; 86
     a74:	70 ed       	ldi	r23, 0xD0	; 208
     a76:	80 e0       	ldi	r24, 0x00	; 0
     a78:	90 e0       	ldi	r25, 0x00	; 0
	flip_ms5607();
     a7a:	93 df       	rcall	.-218    	; 0x9a2 <__portable_avr_delay_cycles>
	
	flip_ms5607();
     a7c:	9d df       	rcall	.-198    	; 0x9b8 <flip_ms5607>
     a7e:	9c df       	rcall	.-200    	; 0x9b8 <flip_ms5607>
	spi_write(CMD_MS5607_READ_ADC);
     a80:	80 e0       	ldi	r24, 0x00	; 0
     a82:	30 d0       	rcall	.+96     	; 0xae4 <spi_write>
     a84:	1f d0       	rcall	.+62     	; 0xac4 <spi_read>
	rx_data  = (uint32_t) spi_read()<<16;
     a86:	c8 2e       	mov	r12, r24
     a88:	d1 2c       	mov	r13, r1
     a8a:	e1 2c       	mov	r14, r1
     a8c:	f1 2c       	mov	r15, r1
     a8e:	76 01       	movw	r14, r12
     a90:	dd 24       	eor	r13, r13
	rx_data |= (uint32_t) spi_read()<<8;
     a92:	cc 24       	eor	r12, r12
     a94:	17 d0       	rcall	.+46     	; 0xac4 <spi_read>
     a96:	d8 2a       	or	r13, r24
	rx_data |= spi_read();
     a98:	15 d0       	rcall	.+42     	; 0xac4 <spi_read>
     a9a:	c8 2a       	or	r12, r24
     a9c:	8d df       	rcall	.-230    	; 0x9b8 <flip_ms5607>
	flip_ms5607();
     a9e:	c7 01       	movw	r24, r14
     aa0:	b6 01       	movw	r22, r12
	
	return rx_data;
}
     aa2:	ff 90       	pop	r15
     aa4:	ef 90       	pop	r14
     aa6:	df 90       	pop	r13
     aa8:	cf 90       	pop	r12
     aaa:	08 95       	ret

00000aac <spi_init>:
     aac:	68 e0       	ldi	r22, 0x08	; 8
     aae:	83 e0       	ldi	r24, 0x03	; 3
	PORTC.DIR |= 0b10110000; 
}

void spi_select(uint8_t port)
{
	PORTC.OUT ^= port; //switches SS
     ab0:	ac d1       	rcall	.+856    	; 0xe0a <sysclk_enable_module>
     ab2:	81 e5       	ldi	r24, 0x51	; 81
     ab4:	80 93 c0 08 	sts	0x08C0, r24	; 0x8008c0 <__TEXT_REGION_LENGTH__+0x7008c0>
     ab8:	e0 e4       	ldi	r30, 0x40	; 64
     aba:	f6 e0       	ldi	r31, 0x06	; 6
     abc:	80 81       	ld	r24, Z
     abe:	80 6b       	ori	r24, 0xB0	; 176
     ac0:	80 83       	st	Z, r24
     ac2:	08 95       	ret

00000ac4 <spi_read>:

uint8_t spi_read(void)
{
	uint8_t iter_max = 100;
	uint8_t count = 0;
	SPIC.DATA = 0xFF; // make the DATA register something we know
     ac4:	e0 ec       	ldi	r30, 0xC0	; 192
     ac6:	f8 e0       	ldi	r31, 0x08	; 8
     ac8:	8f ef       	ldi	r24, 0xFF	; 255
     aca:	83 83       	std	Z+3, r24	; 0x03
	while(!(SPIC.STATUS>>7) && count < iter_max){ // wait for the SPI interrupt flag to let us know the transfer is complete
     acc:	82 81       	ldd	r24, Z+2	; 0x02
     ace:	88 23       	and	r24, r24
     ad0:	34 f0       	brlt	.+12     	; 0xade <spi_read+0x1a>
     ad2:	84 e6       	ldi	r24, 0x64	; 100
     ad4:	92 81       	ldd	r25, Z+2	; 0x02
     ad6:	99 23       	and	r25, r25
     ad8:	14 f0       	brlt	.+4      	; 0xade <spi_read+0x1a>
     ada:	81 50       	subi	r24, 0x01	; 1
     adc:	d9 f7       	brne	.-10     	; 0xad4 <spi_read+0x10>
		count++;	
	}
	
	return SPIC.DATA; // return the data from this function
     ade:	80 91 c3 08 	lds	r24, 0x08C3	; 0x8008c3 <__TEXT_REGION_LENGTH__+0x7008c3>
}
     ae2:	08 95       	ret

00000ae4 <spi_write>:

void spi_write(uint8_t data)
{
	SPIC.DATA = data; // write the data we want to send to the data register
     ae4:	80 93 c3 08 	sts	0x08C3, r24	; 0x8008c3 <__TEXT_REGION_LENGTH__+0x7008c3>
	while(!(SPIC.STATUS>>7)); // wait to ensure the data is sent before we do anything else
     ae8:	e0 ec       	ldi	r30, 0xC0	; 192
     aea:	f8 e0       	ldi	r31, 0x08	; 8
     aec:	82 81       	ldd	r24, Z+2	; 0x02
     aee:	88 23       	and	r24, r24
     af0:	ec f7       	brge	.-6      	; 0xaec <spi_write+0x8>
     af2:	08 95       	ret

00000af4 <usart_serial_getchar>:
 * \param usart   Base address of the USART instance.
 * \param data   Data to read
 *
 */
static inline void usart_serial_getchar(usart_if usart, uint8_t *data)
{
     af4:	cf 93       	push	r28
     af6:	df 93       	push	r29
     af8:	eb 01       	movw	r28, r22
	*data = usart_getchar(usart);
     afa:	15 dd       	rcall	.-1494   	; 0x526 <usart_getchar>
     afc:	88 83       	st	Y, r24
}
     afe:	df 91       	pop	r29
     b00:	cf 91       	pop	r28
     b02:	08 95       	ret

00000b04 <usart_serial_putchar>:
 *
 * \return Status code
 */
static inline enum status_code usart_serial_putchar(usart_if usart, uint8_t c)
{
	return usart_putchar(usart, c);
     b04:	08 cd       	rjmp	.-1520   	; 0x516 <usart_putchar>
}
     b06:	08 95       	ret

00000b08 <data_terminal_init>:

#include <asf.h>
#include "data_logger.h"

void data_terminal_init()
{
     b08:	cf 93       	push	r28
     b0a:	df 93       	push	r29
     b0c:	cd b7       	in	r28, 0x3d	; 61
     b0e:	de b7       	in	r29, 0x3e	; 62
     b10:	27 97       	sbiw	r28, 0x07	; 7
     b12:	cd bf       	out	0x3d, r28	; 61
     b14:	de bf       	out	0x3e, r29	; 62
		sysclk_enable_module(SYSCLK_PORT_D, SYSCLK_USART0);
	}
#endif
#ifdef USARTE0
	else if (module == &USARTE0) {
		sysclk_enable_module(SYSCLK_PORT_E, SYSCLK_USART0);
     b16:	60 e1       	ldi	r22, 0x10	; 16
     b18:	85 e0       	ldi	r24, 0x05	; 5
     b1a:	77 d1       	rcall	.+750    	; 0xe0a <sysclk_enable_module>
		.charlength =	UART_TERMINAL_SERIAL_CHAR_LEN,
		.paritytype =	UART_TERMINAL_SERIAL_PARITY,
		.stopbits	=	UART_TERMINAL_SERIAL_STOP_BIT
	};
	
	UART_TERMINAL_PORT.DIR |= UART_TERMINAL_TX_PIN;	// set the USART transmit pin to output
     b1c:	e0 e8       	ldi	r30, 0x80	; 128
     b1e:	f6 e0       	ldi	r31, 0x06	; 6
     b20:	80 81       	ld	r24, Z
     b22:	88 60       	ori	r24, 0x08	; 8
     b24:	80 83       	st	Z, r24
 * \param opt         Options needed to set up RS232 communication (see \ref usart_options_t).
 *
 */
static inline void stdio_serial_init(volatile void *usart, const usart_serial_options_t *opt)
{
	stdio_base = (void *)usart;
     b26:	80 ea       	ldi	r24, 0xA0	; 160
     b28:	9a e0       	ldi	r25, 0x0A	; 10
     b2a:	80 93 06 21 	sts	0x2106, r24	; 0x802106 <stdio_base>
     b2e:	90 93 07 21 	sts	0x2107, r25	; 0x802107 <stdio_base+0x1>
	ptr_put = (int (*)(void volatile*,char))&usart_serial_putchar;
     b32:	82 e8       	ldi	r24, 0x82	; 130
     b34:	95 e0       	ldi	r25, 0x05	; 5
     b36:	80 93 04 21 	sts	0x2104, r24	; 0x802104 <ptr_put>
     b3a:	90 93 05 21 	sts	0x2105, r25	; 0x802105 <ptr_put+0x1>
	ptr_get = (void (*)(void volatile*,char*))&usart_serial_getchar;
     b3e:	8a e7       	ldi	r24, 0x7A	; 122
     b40:	95 e0       	ldi	r25, 0x05	; 5
     b42:	80 93 02 21 	sts	0x2102, r24	; 0x802102 <ptr_get>
     b46:	90 93 03 21 	sts	0x2103, r25	; 0x802103 <ptr_get+0x1>
static inline bool usart_serial_init(usart_if usart, const
		usart_serial_options_t *options)
{
	// USART options.
	usart_rs232_options_t usart_rs232_options;
	usart_rs232_options.charlength   = options->charlength;
     b4a:	ed e0       	ldi	r30, 0x0D	; 13
     b4c:	f0 e2       	ldi	r31, 0x20	; 32
     b4e:	84 81       	ldd	r24, Z+4	; 0x04
     b50:	8d 83       	std	Y+5, r24	; 0x05
	usart_rs232_options.paritytype   = options->paritytype;
     b52:	85 81       	ldd	r24, Z+5	; 0x05
     b54:	8e 83       	std	Y+6, r24	; 0x06
	usart_rs232_options.stopbits     = options->stopbits;
     b56:	86 81       	ldd	r24, Z+6	; 0x06
     b58:	8f 83       	std	Y+7, r24	; 0x07
	usart_rs232_options.baudrate     = options->baudrate;
     b5a:	80 81       	ld	r24, Z
     b5c:	91 81       	ldd	r25, Z+1	; 0x01
     b5e:	a2 81       	ldd	r26, Z+2	; 0x02
     b60:	b3 81       	ldd	r27, Z+3	; 0x03
     b62:	89 83       	std	Y+1, r24	; 0x01
     b64:	9a 83       	std	Y+2, r25	; 0x02
     b66:	ab 83       	std	Y+3, r26	; 0x03
     b68:	bc 83       	std	Y+4, r27	; 0x04
		sysclk_enable_module(SYSCLK_PORT_D,PR_USART1_bm);
	}
#endif
#ifdef USARTE0
	if((uint16_t)usart == (uint16_t)&USARTE0) {
		sysclk_enable_module(SYSCLK_PORT_E,PR_USART0_bm);
     b6a:	60 e1       	ldi	r22, 0x10	; 16
     b6c:	85 e0       	ldi	r24, 0x05	; 5
     b6e:	4d d1       	rcall	.+666    	; 0xe0a <sysclk_enable_module>
#ifdef USARTF1
	if((uint16_t)usart == (uint16_t)&USARTF1) {
		sysclk_enable_module(SYSCLK_PORT_F,PR_USART1_bm);
	}
#endif
	if (usart_init_rs232(usart, &usart_rs232_options)) {
     b70:	be 01       	movw	r22, r28
     b72:	6f 5f       	subi	r22, 0xFF	; 255
     b74:	7f 4f       	sbci	r23, 0xFF	; 255
     b76:	80 ea       	ldi	r24, 0xA0	; 160
     b78:	9a e0       	ldi	r25, 0x0A	; 10
     b7a:	ee dd       	rcall	.-1060   	; 0x758 <usart_init_rs232>
# endif

# if defined(__GNUC__)
#  if (XMEGA || MEGA_RF)
	// For AVR GCC libc print redirection uses fdevopen.
	fdevopen((int (*)(char, FILE*))(_write),(int (*)(FILE*))(_read));
     b7c:	6c e6       	ldi	r22, 0x6C	; 108
     b7e:	71 e0       	ldi	r23, 0x01	; 1
     b80:	85 e8       	ldi	r24, 0x85	; 133
     b82:	91 e0       	ldi	r25, 0x01	; 1
     b84:	0e 94 11 1a 	call	0x3422	; 0x3422 <fdevopen>
	
	stdio_serial_init(UART_TERMINAL_SERIAL, &usart_config); // function maps the serial output to printf, not necessary to know how it works
     b88:	27 96       	adiw	r28, 0x07	; 7
     b8a:	cd bf       	out	0x3d, r28	; 61
     b8c:	de bf       	out	0x3e, r29	; 62
     b8e:	df 91       	pop	r29
     b90:	cf 91       	pop	r28
     b92:	08 95       	ret

00000b94 <rb16_write>:
	}
	else
	{
		buffer->tail = (buffer->tail + move_distance) % buffer->array_length; //Modulus is so that we don't point to above the buffer's location
	}
}
     b94:	cf 93       	push	r28
     b96:	df 93       	push	r29
     b98:	fc 01       	movw	r30, r24
     b9a:	41 15       	cp	r20, r1
     b9c:	51 05       	cpc	r21, r1
     b9e:	b1 f1       	breq	.+108    	; 0xc0c <rb16_write+0x78>
     ba0:	80 e0       	ldi	r24, 0x00	; 0
     ba2:	90 e0       	ldi	r25, 0x00	; 0
     ba4:	20 e0       	ldi	r18, 0x00	; 0
     ba6:	88 0f       	add	r24, r24
     ba8:	99 1f       	adc	r25, r25
     baa:	db 01       	movw	r26, r22
     bac:	a8 0f       	add	r26, r24
     bae:	b9 1f       	adc	r27, r25
     bb0:	8d 91       	ld	r24, X+
     bb2:	9c 91       	ld	r25, X
     bb4:	a2 81       	ldd	r26, Z+2	; 0x02
     bb6:	b3 81       	ldd	r27, Z+3	; 0x03
     bb8:	aa 0f       	add	r26, r26
     bba:	bb 1f       	adc	r27, r27
     bbc:	c6 81       	ldd	r28, Z+6	; 0x06
     bbe:	d7 81       	ldd	r29, Z+7	; 0x07
     bc0:	ac 0f       	add	r26, r28
     bc2:	bd 1f       	adc	r27, r29
     bc4:	8d 93       	st	X+, r24
     bc6:	9c 93       	st	X, r25
     bc8:	82 81       	ldd	r24, Z+2	; 0x02
     bca:	93 81       	ldd	r25, Z+3	; 0x03
     bcc:	01 96       	adiw	r24, 0x01	; 1
     bce:	82 83       	std	Z+2, r24	; 0x02
     bd0:	93 83       	std	Z+3, r25	; 0x03
     bd2:	a0 81       	ld	r26, Z
     bd4:	b1 81       	ldd	r27, Z+1	; 0x01
     bd6:	8a 17       	cp	r24, r26
     bd8:	9b 07       	cpc	r25, r27
     bda:	11 f4       	brne	.+4      	; 0xbe0 <rb16_write+0x4c>
     bdc:	12 82       	std	Z+2, r1	; 0x02
     bde:	13 82       	std	Z+3, r1	; 0x03
     be0:	82 81       	ldd	r24, Z+2	; 0x02
     be2:	93 81       	ldd	r25, Z+3	; 0x03
     be4:	c4 81       	ldd	r28, Z+4	; 0x04
     be6:	d5 81       	ldd	r29, Z+5	; 0x05
     be8:	8c 17       	cp	r24, r28
     bea:	9d 07       	cpc	r25, r29
     bec:	49 f4       	brne	.+18     	; 0xc00 <rb16_write+0x6c>
     bee:	01 96       	adiw	r24, 0x01	; 1
     bf0:	a8 17       	cp	r26, r24
     bf2:	b9 07       	cpc	r27, r25
     bf4:	19 f0       	breq	.+6      	; 0xbfc <rb16_write+0x68>
     bf6:	84 83       	std	Z+4, r24	; 0x04
     bf8:	95 83       	std	Z+5, r25	; 0x05
     bfa:	02 c0       	rjmp	.+4      	; 0xc00 <rb16_write+0x6c>
     bfc:	14 82       	std	Z+4, r1	; 0x04
     bfe:	15 82       	std	Z+5, r1	; 0x05
     c00:	2f 5f       	subi	r18, 0xFF	; 255
     c02:	82 2f       	mov	r24, r18
     c04:	90 e0       	ldi	r25, 0x00	; 0
     c06:	84 17       	cp	r24, r20
     c08:	95 07       	cpc	r25, r21
     c0a:	68 f2       	brcs	.-102    	; 0xba6 <rb16_write+0x12>
     c0c:	df 91       	pop	r29
     c0e:	cf 91       	pop	r28
     c10:	08 95       	ret

00000c12 <rb16_init>:
     c12:	fc 01       	movw	r30, r24
     c14:	12 82       	std	Z+2, r1	; 0x02
     c16:	13 82       	std	Z+3, r1	; 0x03
     c18:	14 82       	std	Z+4, r1	; 0x04
     c1a:	15 82       	std	Z+5, r1	; 0x05
     c1c:	66 83       	std	Z+6, r22	; 0x06
     c1e:	77 83       	std	Z+7, r23	; 0x07
     c20:	40 83       	st	Z, r20
     c22:	51 83       	std	Z+1, r21	; 0x01
     c24:	08 95       	ret

00000c26 <rb16_get_nth>:
     c26:	dc 01       	movw	r26, r24
     c28:	12 96       	adiw	r26, 0x02	; 2
     c2a:	ed 91       	ld	r30, X+
     c2c:	fc 91       	ld	r31, X
     c2e:	13 97       	sbiw	r26, 0x03	; 3
     c30:	cb 01       	movw	r24, r22
     c32:	01 96       	adiw	r24, 0x01	; 1
     c34:	e8 17       	cp	r30, r24
     c36:	f9 07       	cpc	r31, r25
     c38:	78 f0       	brcs	.+30     	; 0xc58 <rb16_get_nth+0x32>
     c3a:	e1 50       	subi	r30, 0x01	; 1
     c3c:	f0 48       	sbci	r31, 0x80	; 128
     c3e:	e6 1b       	sub	r30, r22
     c40:	f7 0b       	sbc	r31, r23
     c42:	ee 0f       	add	r30, r30
     c44:	ff 1f       	adc	r31, r31
     c46:	16 96       	adiw	r26, 0x06	; 6
     c48:	8d 91       	ld	r24, X+
     c4a:	9c 91       	ld	r25, X
     c4c:	17 97       	sbiw	r26, 0x07	; 7
     c4e:	e8 0f       	add	r30, r24
     c50:	f9 1f       	adc	r31, r25
     c52:	80 81       	ld	r24, Z
     c54:	91 81       	ldd	r25, Z+1	; 0x01
     c56:	08 95       	ret
     c58:	2d 91       	ld	r18, X+
     c5a:	3c 91       	ld	r19, X
     c5c:	11 97       	sbiw	r26, 0x01	; 1
     c5e:	e2 0f       	add	r30, r18
     c60:	f3 1f       	adc	r31, r19
     c62:	e1 50       	subi	r30, 0x01	; 1
     c64:	f0 48       	sbci	r31, 0x80	; 128
     c66:	e6 1b       	sub	r30, r22
     c68:	f7 0b       	sbc	r31, r23
     c6a:	ee 0f       	add	r30, r30
     c6c:	ff 1f       	adc	r31, r31
     c6e:	16 96       	adiw	r26, 0x06	; 6
     c70:	8d 91       	ld	r24, X+
     c72:	9c 91       	ld	r25, X
     c74:	17 97       	sbiw	r26, 0x07	; 7
     c76:	e8 0f       	add	r30, r24
     c78:	f9 1f       	adc	r31, r25
     c7a:	80 81       	ld	r24, Z
     c7c:	91 81       	ldd	r25, Z+1	; 0x01
     c7e:	08 95       	ret

00000c80 <rb32_write>:
     c80:	cf 92       	push	r12
     c82:	df 92       	push	r13
     c84:	ef 92       	push	r14
     c86:	ff 92       	push	r15
     c88:	cf 93       	push	r28
     c8a:	df 93       	push	r29
     c8c:	fc 01       	movw	r30, r24
     c8e:	41 15       	cp	r20, r1
     c90:	51 05       	cpc	r21, r1
     c92:	09 f4       	brne	.+2      	; 0xc96 <rb32_write+0x16>
     c94:	3f c0       	rjmp	.+126    	; 0xd14 <rb32_write+0x94>
     c96:	80 e0       	ldi	r24, 0x00	; 0
     c98:	90 e0       	ldi	r25, 0x00	; 0
     c9a:	20 e0       	ldi	r18, 0x00	; 0
     c9c:	88 0f       	add	r24, r24
     c9e:	99 1f       	adc	r25, r25
     ca0:	88 0f       	add	r24, r24
     ca2:	99 1f       	adc	r25, r25
     ca4:	db 01       	movw	r26, r22
     ca6:	a8 0f       	add	r26, r24
     ca8:	b9 1f       	adc	r27, r25
     caa:	cd 90       	ld	r12, X+
     cac:	dd 90       	ld	r13, X+
     cae:	ed 90       	ld	r14, X+
     cb0:	fc 90       	ld	r15, X
     cb2:	a2 81       	ldd	r26, Z+2	; 0x02
     cb4:	b3 81       	ldd	r27, Z+3	; 0x03
     cb6:	aa 0f       	add	r26, r26
     cb8:	bb 1f       	adc	r27, r27
     cba:	aa 0f       	add	r26, r26
     cbc:	bb 1f       	adc	r27, r27
     cbe:	86 81       	ldd	r24, Z+6	; 0x06
     cc0:	97 81       	ldd	r25, Z+7	; 0x07
     cc2:	a8 0f       	add	r26, r24
     cc4:	b9 1f       	adc	r27, r25
     cc6:	cd 92       	st	X+, r12
     cc8:	dd 92       	st	X+, r13
     cca:	ed 92       	st	X+, r14
     ccc:	fc 92       	st	X, r15
     cce:	13 97       	sbiw	r26, 0x03	; 3
     cd0:	82 81       	ldd	r24, Z+2	; 0x02
     cd2:	93 81       	ldd	r25, Z+3	; 0x03
     cd4:	01 96       	adiw	r24, 0x01	; 1
     cd6:	82 83       	std	Z+2, r24	; 0x02
     cd8:	93 83       	std	Z+3, r25	; 0x03
     cda:	a0 81       	ld	r26, Z
     cdc:	b1 81       	ldd	r27, Z+1	; 0x01
     cde:	8a 17       	cp	r24, r26
     ce0:	9b 07       	cpc	r25, r27
     ce2:	11 f4       	brne	.+4      	; 0xce8 <rb32_write+0x68>
     ce4:	12 82       	std	Z+2, r1	; 0x02
     ce6:	13 82       	std	Z+3, r1	; 0x03
     ce8:	82 81       	ldd	r24, Z+2	; 0x02
     cea:	93 81       	ldd	r25, Z+3	; 0x03
     cec:	c4 81       	ldd	r28, Z+4	; 0x04
     cee:	d5 81       	ldd	r29, Z+5	; 0x05
     cf0:	8c 17       	cp	r24, r28
     cf2:	9d 07       	cpc	r25, r29
     cf4:	49 f4       	brne	.+18     	; 0xd08 <rb32_write+0x88>
     cf6:	01 96       	adiw	r24, 0x01	; 1
     cf8:	a8 17       	cp	r26, r24
     cfa:	b9 07       	cpc	r27, r25
     cfc:	19 f0       	breq	.+6      	; 0xd04 <rb32_write+0x84>
     cfe:	84 83       	std	Z+4, r24	; 0x04
     d00:	95 83       	std	Z+5, r25	; 0x05
     d02:	02 c0       	rjmp	.+4      	; 0xd08 <rb32_write+0x88>
     d04:	14 82       	std	Z+4, r1	; 0x04
     d06:	15 82       	std	Z+5, r1	; 0x05
     d08:	2f 5f       	subi	r18, 0xFF	; 255
     d0a:	82 2f       	mov	r24, r18
     d0c:	90 e0       	ldi	r25, 0x00	; 0
     d0e:	84 17       	cp	r24, r20
     d10:	95 07       	cpc	r25, r21
     d12:	20 f2       	brcs	.-120    	; 0xc9c <rb32_write+0x1c>
     d14:	df 91       	pop	r29
     d16:	cf 91       	pop	r28
     d18:	ff 90       	pop	r15
     d1a:	ef 90       	pop	r14
     d1c:	df 90       	pop	r13
     d1e:	cf 90       	pop	r12
     d20:	08 95       	ret

00000d22 <rb32_init>:
     d22:	fc 01       	movw	r30, r24
     d24:	12 82       	std	Z+2, r1	; 0x02
     d26:	13 82       	std	Z+3, r1	; 0x03
     d28:	14 82       	std	Z+4, r1	; 0x04
     d2a:	15 82       	std	Z+5, r1	; 0x05
     d2c:	66 83       	std	Z+6, r22	; 0x06
     d2e:	77 83       	std	Z+7, r23	; 0x07
     d30:	40 83       	st	Z, r20
     d32:	51 83       	std	Z+1, r21	; 0x01
     d34:	08 95       	ret

00000d36 <rb32_get_nth>:
	}
}

int32_t rb32_get_nth(RingBuffer32_t* buffer, uint16_t index)
//Returns the nth newest value in the RingBuffer
{
     d36:	dc 01       	movw	r26, r24
	//Does not do bounds checking, so be careful in usage
	//	Verify index < rb16_length() to guard against requesting a value beyond what the buffer currently stores
	//	Verify index < buffer->array_length to guard against requesting a value from some random memory location
	
	//Most recent value is in head - 1
	if (index + 1 <= buffer->head) //Value is between zero and buffer->head
     d38:	12 96       	adiw	r26, 0x02	; 2
     d3a:	ed 91       	ld	r30, X+
     d3c:	fc 91       	ld	r31, X
     d3e:	13 97       	sbiw	r26, 0x03	; 3
     d40:	cb 01       	movw	r24, r22
     d42:	01 96       	adiw	r24, 0x01	; 1
     d44:	e8 17       	cp	r30, r24
     d46:	f9 07       	cpc	r31, r25
     d48:	98 f0       	brcs	.+38     	; 0xd70 <rb32_get_nth+0x3a>
		return buffer->buffer[buffer->head - index - 1];
     d4a:	e1 50       	subi	r30, 0x01	; 1
     d4c:	f0 4c       	sbci	r31, 0xC0	; 192
     d4e:	e6 1b       	sub	r30, r22
     d50:	f7 0b       	sbc	r31, r23
     d52:	ee 0f       	add	r30, r30
     d54:	ff 1f       	adc	r31, r31
     d56:	ee 0f       	add	r30, r30
     d58:	ff 1f       	adc	r31, r31
     d5a:	16 96       	adiw	r26, 0x06	; 6
     d5c:	8d 91       	ld	r24, X+
     d5e:	9c 91       	ld	r25, X
     d60:	17 97       	sbiw	r26, 0x07	; 7
     d62:	e8 0f       	add	r30, r24
     d64:	f9 1f       	adc	r31, r25
     d66:	60 81       	ld	r22, Z
     d68:	71 81       	ldd	r23, Z+1	; 0x01
     d6a:	82 81       	ldd	r24, Z+2	; 0x02
     d6c:	93 81       	ldd	r25, Z+3	; 0x03
     d6e:	08 95       	ret
	else
		return buffer->buffer[buffer->array_length - 1 - index + buffer->head];
     d70:	2d 91       	ld	r18, X+
     d72:	3c 91       	ld	r19, X
     d74:	11 97       	sbiw	r26, 0x01	; 1
     d76:	e2 0f       	add	r30, r18
     d78:	f3 1f       	adc	r31, r19
     d7a:	e1 50       	subi	r30, 0x01	; 1
     d7c:	f0 4c       	sbci	r31, 0xC0	; 192
     d7e:	e6 1b       	sub	r30, r22
     d80:	f7 0b       	sbc	r31, r23
     d82:	ee 0f       	add	r30, r30
     d84:	ff 1f       	adc	r31, r31
     d86:	ee 0f       	add	r30, r30
     d88:	ff 1f       	adc	r31, r31
     d8a:	16 96       	adiw	r26, 0x06	; 6
     d8c:	8d 91       	ld	r24, X+
     d8e:	9c 91       	ld	r25, X
     d90:	17 97       	sbiw	r26, 0x07	; 7
     d92:	e8 0f       	add	r30, r24
     d94:	f9 1f       	adc	r31, r25
     d96:	60 81       	ld	r22, Z
     d98:	71 81       	ldd	r23, Z+1	; 0x01
     d9a:	82 81       	ldd	r24, Z+2	; 0x02
     d9c:	93 81       	ldd	r25, Z+3	; 0x03
}
     d9e:	08 95       	ret

00000da0 <sysclk_init>:
#  include <nvm.h>
#endif


void sysclk_init(void)
{
     da0:	cf 93       	push	r28
     da2:	df 93       	push	r29
     da4:	1f 92       	push	r1
     da6:	1f 92       	push	r1
     da8:	cd b7       	in	r28, 0x3d	; 61
     daa:	de b7       	in	r29, 0x3e	; 62
#endif
	bool need_rc2mhz = false;

	/* Turn off all peripheral clocks that can be turned off. */
	for (i = 0; i <= SYSCLK_PORT_F; i++) {
		*(reg++) = 0xff;
     dac:	8f ef       	ldi	r24, 0xFF	; 255
     dae:	80 93 70 00 	sts	0x0070, r24	; 0x800070 <__TEXT_REGION_LENGTH__+0x700070>
     db2:	80 93 71 00 	sts	0x0071, r24	; 0x800071 <__TEXT_REGION_LENGTH__+0x700071>
     db6:	80 93 72 00 	sts	0x0072, r24	; 0x800072 <__TEXT_REGION_LENGTH__+0x700072>
     dba:	80 93 73 00 	sts	0x0073, r24	; 0x800073 <__TEXT_REGION_LENGTH__+0x700073>
     dbe:	80 93 74 00 	sts	0x0074, r24	; 0x800074 <__TEXT_REGION_LENGTH__+0x700074>
     dc2:	80 93 75 00 	sts	0x0075, r24	; 0x800075 <__TEXT_REGION_LENGTH__+0x700075>
     dc6:	80 93 76 00 	sts	0x0076, r24	; 0x800076 <__TEXT_REGION_LENGTH__+0x700076>

typedef uint8_t irqflags_t;

static inline irqflags_t cpu_irq_save(void)
{
	volatile irqflags_t flags = SREG;
     dca:	8f b7       	in	r24, 0x3f	; 63
     dcc:	8a 83       	std	Y+2, r24	; 0x02
	cpu_irq_disable();
     dce:	f8 94       	cli
	return flags;
     dd0:	9a 81       	ldd	r25, Y+2	; 0x02
	irqflags_t flags;

	Assert(id != OSC_ID_USBSOF);

	flags = cpu_irq_save();
	OSC.CTRL |= id;
     dd2:	e0 e5       	ldi	r30, 0x50	; 80
     dd4:	f0 e0       	ldi	r31, 0x00	; 0
     dd6:	80 81       	ld	r24, Z
     dd8:	82 60       	ori	r24, 0x02	; 2
     dda:	80 83       	st	Z, r24
}

static inline void cpu_irq_restore(irqflags_t flags)
{
	barrier();
	SREG = flags;
     ddc:	9f bf       	out	0x3f, r25	; 63

static inline bool osc_is_ready(uint8_t id)
{
	Assert(id != OSC_ID_USBSOF);

	return OSC.STATUS & id;
     dde:	81 81       	ldd	r24, Z+1	; 0x01
 *
 * \param id A number identifying the oscillator to wait for.
 */
static inline void osc_wait_ready(uint8_t id)
{
	while (!osc_is_ready(id)) {
     de0:	81 ff       	sbrs	r24, 1
     de2:	fd cf       	rjmp	.-6      	; 0xdde <sysclk_init+0x3e>
		default:
			//unhandled_case(CONFIG_SYSCLK_SOURCE);
			return;
		}

		ccp_write_io((uint8_t *)&CLK.CTRL, CONFIG_SYSCLK_SOURCE);
     de4:	61 e0       	ldi	r22, 0x01	; 1
     de6:	80 e4       	ldi	r24, 0x40	; 64
     de8:	90 e0       	ldi	r25, 0x00	; 0
     dea:	25 d0       	rcall	.+74     	; 0xe36 <ccp_write_io>

typedef uint8_t irqflags_t;

static inline irqflags_t cpu_irq_save(void)
{
	volatile irqflags_t flags = SREG;
     dec:	8f b7       	in	r24, 0x3f	; 63
     dee:	89 83       	std	Y+1, r24	; 0x01
	cpu_irq_disable();
     df0:	f8 94       	cli
	return flags;
     df2:	99 81       	ldd	r25, Y+1	; 0x01
	irqflags_t flags;

	Assert(id != OSC_ID_USBSOF);

	flags = cpu_irq_save();
	OSC.CTRL &= ~id;
     df4:	e0 e5       	ldi	r30, 0x50	; 80
     df6:	f0 e0       	ldi	r31, 0x00	; 0
     df8:	80 81       	ld	r24, Z
     dfa:	8e 7f       	andi	r24, 0xFE	; 254
     dfc:	80 83       	st	Z, r24
}

static inline void cpu_irq_restore(irqflags_t flags)
{
	barrier();
	SREG = flags;
     dfe:	9f bf       	out	0x3f, r25	; 63
	}

#ifdef CONFIG_RTC_SOURCE
	sysclk_rtcsrc_enable(CONFIG_RTC_SOURCE);
#endif
}
     e00:	0f 90       	pop	r0
     e02:	0f 90       	pop	r0
     e04:	df 91       	pop	r29
     e06:	cf 91       	pop	r28
     e08:	08 95       	ret

00000e0a <sysclk_enable_module>:

void sysclk_enable_module(enum sysclk_port_id port, uint8_t id)
{
     e0a:	cf 93       	push	r28
     e0c:	df 93       	push	r29
     e0e:	1f 92       	push	r1
     e10:	cd b7       	in	r28, 0x3d	; 61
     e12:	de b7       	in	r29, 0x3e	; 62

typedef uint8_t irqflags_t;

static inline irqflags_t cpu_irq_save(void)
{
	volatile irqflags_t flags = SREG;
     e14:	9f b7       	in	r25, 0x3f	; 63
     e16:	99 83       	std	Y+1, r25	; 0x01
	cpu_irq_disable();
     e18:	f8 94       	cli
	return flags;
     e1a:	99 81       	ldd	r25, Y+1	; 0x01
	irqflags_t flags = cpu_irq_save();

	*((uint8_t *)&PR.PRGEN + port) &= ~id;
     e1c:	e8 2f       	mov	r30, r24
     e1e:	f0 e0       	ldi	r31, 0x00	; 0
     e20:	e0 59       	subi	r30, 0x90	; 144
     e22:	ff 4f       	sbci	r31, 0xFF	; 255
     e24:	60 95       	com	r22
     e26:	80 81       	ld	r24, Z
     e28:	68 23       	and	r22, r24
     e2a:	60 83       	st	Z, r22
}

static inline void cpu_irq_restore(irqflags_t flags)
{
	barrier();
	SREG = flags;
     e2c:	9f bf       	out	0x3f, r25	; 63

	cpu_irq_restore(flags);
}
     e2e:	0f 90       	pop	r0
     e30:	df 91       	pop	r29
     e32:	cf 91       	pop	r28
     e34:	08 95       	ret

00000e36 <ccp_write_io>:

	PUBLIC_FUNCTION(ccp_write_io)

#if defined(__GNUC__)

	out     RAMPZ, r1               // Reset bits 23:16 of Z
     e36:	1b be       	out	0x3b, r1	; 59
	movw    r30, r24                // Load addr into Z
     e38:	fc 01       	movw	r30, r24
	ldi     r18, CCP_IOREG          // Load magic CCP value
     e3a:	28 ed       	ldi	r18, 0xD8	; 216
	out     CCP, r18                // Start CCP handshake
     e3c:	24 bf       	out	0x34, r18	; 52
	st      Z, r22                  // Write value to I/O register
     e3e:	60 83       	st	Z, r22
	ret                             // Return to caller
     e40:	08 95       	ret

00000e42 <__portable_avr_delay_cycles>:
	
	NVM.CMD = ERASE_EEPROM;
	CCP = CCP_IOREG_MODE;
	NVM.CTRLA = CTRLA_CMDEX_BYTE;
	while(NVM.STATUS>>7);
}
     e42:	04 c0       	rjmp	.+8      	; 0xe4c <__portable_avr_delay_cycles+0xa>
     e44:	61 50       	subi	r22, 0x01	; 1
     e46:	71 09       	sbc	r23, r1
     e48:	81 09       	sbc	r24, r1
     e4a:	91 09       	sbc	r25, r1
     e4c:	61 15       	cp	r22, r1
     e4e:	71 05       	cpc	r23, r1
     e50:	81 05       	cpc	r24, r1
     e52:	91 05       	cpc	r25, r1
     e54:	b9 f7       	brne	.-18     	; 0xe44 <__portable_avr_delay_cycles+0x2>
     e56:	08 95       	ret

00000e58 <pressure_init>:
     e58:	cf 93       	push	r28
     e5a:	df 93       	push	r29
     e5c:	b4 dd       	rcall	.-1176   	; 0x9c6 <ms5607_init>
     e5e:	82 ea       	ldi	r24, 0xA2	; 162
     e60:	90 e0       	ldi	r25, 0x00	; 0
     e62:	ca dd       	rcall	.-1132   	; 0x9f8 <ms5607_read>
     e64:	cf ee       	ldi	r28, 0xEF	; 239
     e66:	d0 e2       	ldi	r29, 0x20	; 32
     e68:	88 83       	st	Y, r24
     e6a:	99 83       	std	Y+1, r25	; 0x01
     e6c:	84 ea       	ldi	r24, 0xA4	; 164
     e6e:	90 e0       	ldi	r25, 0x00	; 0
     e70:	c3 dd       	rcall	.-1146   	; 0x9f8 <ms5607_read>
     e72:	8a 83       	std	Y+2, r24	; 0x02
     e74:	9b 83       	std	Y+3, r25	; 0x03
     e76:	86 ea       	ldi	r24, 0xA6	; 166
     e78:	90 e0       	ldi	r25, 0x00	; 0
     e7a:	be dd       	rcall	.-1156   	; 0x9f8 <ms5607_read>
     e7c:	8c 83       	std	Y+4, r24	; 0x04
     e7e:	9d 83       	std	Y+5, r25	; 0x05
     e80:	88 ea       	ldi	r24, 0xA8	; 168
     e82:	90 e0       	ldi	r25, 0x00	; 0
     e84:	b9 dd       	rcall	.-1166   	; 0x9f8 <ms5607_read>
     e86:	8e 83       	std	Y+6, r24	; 0x06
     e88:	9f 83       	std	Y+7, r25	; 0x07
     e8a:	8a ea       	ldi	r24, 0xAA	; 170
     e8c:	90 e0       	ldi	r25, 0x00	; 0
     e8e:	b4 dd       	rcall	.-1176   	; 0x9f8 <ms5607_read>
     e90:	88 87       	std	Y+8, r24	; 0x08
     e92:	99 87       	std	Y+9, r25	; 0x09
     e94:	8c ea       	ldi	r24, 0xAC	; 172
     e96:	90 e0       	ldi	r25, 0x00	; 0
     e98:	af dd       	rcall	.-1186   	; 0x9f8 <ms5607_read>
     e9a:	8a 87       	std	Y+10, r24	; 0x0a
     e9c:	9b 87       	std	Y+11, r25	; 0x0b
     e9e:	df 91       	pop	r29
     ea0:	cf 91       	pop	r28
     ea2:	08 95       	ret

00000ea4 <gps_init>:
     ea4:	50 dd       	rcall	.-1376   	; 0x946 <gps_uart_init>
     ea6:	6b ea       	ldi	r22, 0xAB	; 171
     ea8:	79 e2       	ldi	r23, 0x29	; 41
     eaa:	80 e0       	ldi	r24, 0x00	; 0
     eac:	90 e0       	ldi	r25, 0x00	; 0
     eae:	c9 df       	rcall	.-110    	; 0xe42 <__portable_avr_delay_cycles>
     eb0:	80 e3       	ldi	r24, 0x30	; 48
     eb2:	80 93 b3 09 	sts	0x09B3, r24	; 0x8009b3 <__TEXT_REGION_LENGTH__+0x7009b3>
     eb6:	08 95       	ret

00000eb8 <release>:
     eb8:	80 eb       	ldi	r24, 0xB0	; 176
     eba:	94 e0       	ldi	r25, 0x04	; 4
     ebc:	80 93 28 09 	sts	0x0928, r24	; 0x800928 <__TEXT_REGION_LENGTH__+0x700928>
     ec0:	90 93 29 09 	sts	0x0929, r25	; 0x800929 <__TEXT_REGION_LENGTH__+0x700929>
     ec4:	81 e0       	ldi	r24, 0x01	; 1
     ec6:	80 93 00 21 	sts	0x2100, r24	; 0x802100 <released>
     eca:	08 95       	ret

00000ecc <get_pressure>:
     ecc:	4f 92       	push	r4
     ece:	5f 92       	push	r5
     ed0:	6f 92       	push	r6
     ed2:	7f 92       	push	r7
     ed4:	8f 92       	push	r8
     ed6:	9f 92       	push	r9
     ed8:	af 92       	push	r10
     eda:	bf 92       	push	r11
     edc:	cf 92       	push	r12
     ede:	df 92       	push	r13
     ee0:	ef 92       	push	r14
     ee2:	ff 92       	push	r15
     ee4:	cf 93       	push	r28
     ee6:	df 93       	push	r29
     ee8:	99 dd       	rcall	.-1230   	; 0xa1c <ms5607_convert_d1>
     eea:	6b 01       	movw	r12, r22
     eec:	7c 01       	movw	r14, r24
     eee:	ba dd       	rcall	.-1164   	; 0xa64 <ms5607_convert_d2>
     ef0:	0e 94 d2 16 	call	0x2da4	; 0x2da4 <__floatunsisf>
     ef4:	4b 01       	movw	r8, r22
     ef6:	5c 01       	movw	r10, r24
     ef8:	cf ee       	ldi	r28, 0xEF	; 239
     efa:	d0 e2       	ldi	r29, 0x20	; 32
     efc:	68 85       	ldd	r22, Y+8	; 0x08
     efe:	79 85       	ldd	r23, Y+9	; 0x09
     f00:	80 e0       	ldi	r24, 0x00	; 0
     f02:	90 e0       	ldi	r25, 0x00	; 0
     f04:	0e 94 d2 16 	call	0x2da4	; 0x2da4 <__floatunsisf>
     f08:	20 e0       	ldi	r18, 0x00	; 0
     f0a:	30 e0       	ldi	r19, 0x00	; 0
     f0c:	40 e8       	ldi	r20, 0x80	; 128
     f0e:	53 e4       	ldi	r21, 0x43	; 67
     f10:	0e 94 c4 17 	call	0x2f88	; 0x2f88 <__mulsf3>
     f14:	9b 01       	movw	r18, r22
     f16:	ac 01       	movw	r20, r24
     f18:	c5 01       	movw	r24, r10
     f1a:	b4 01       	movw	r22, r8
     f1c:	0e 94 96 15 	call	0x2b2c	; 0x2b2c <__subsf3>
     f20:	4b 01       	movw	r8, r22
     f22:	5c 01       	movw	r10, r24
     f24:	6c 81       	ldd	r22, Y+4	; 0x04
     f26:	7d 81       	ldd	r23, Y+5	; 0x05
     f28:	80 e0       	ldi	r24, 0x00	; 0
     f2a:	90 e0       	ldi	r25, 0x00	; 0
     f2c:	0e 94 d2 16 	call	0x2da4	; 0x2da4 <__floatunsisf>
     f30:	a5 01       	movw	r20, r10
     f32:	94 01       	movw	r18, r8
     f34:	0e 94 c4 17 	call	0x2f88	; 0x2f88 <__mulsf3>
     f38:	20 e0       	ldi	r18, 0x00	; 0
     f3a:	30 e0       	ldi	r19, 0x00	; 0
     f3c:	40 e0       	ldi	r20, 0x00	; 0
     f3e:	5c e3       	ldi	r21, 0x3C	; 60
     f40:	0e 94 c4 17 	call	0x2f88	; 0x2f88 <__mulsf3>
     f44:	2b 01       	movw	r4, r22
     f46:	3c 01       	movw	r6, r24
     f48:	68 81       	ld	r22, Y
     f4a:	79 81       	ldd	r23, Y+1	; 0x01
     f4c:	80 e0       	ldi	r24, 0x00	; 0
     f4e:	90 e0       	ldi	r25, 0x00	; 0
     f50:	0e 94 d2 16 	call	0x2da4	; 0x2da4 <__floatunsisf>
     f54:	20 e0       	ldi	r18, 0x00	; 0
     f56:	30 e0       	ldi	r19, 0x00	; 0
     f58:	40 e8       	ldi	r20, 0x80	; 128
     f5a:	57 e4       	ldi	r21, 0x47	; 71
     f5c:	0e 94 c4 17 	call	0x2f88	; 0x2f88 <__mulsf3>
     f60:	9b 01       	movw	r18, r22
     f62:	ac 01       	movw	r20, r24
     f64:	c3 01       	movw	r24, r6
     f66:	b2 01       	movw	r22, r4
     f68:	0e 94 97 15 	call	0x2b2e	; 0x2b2e <__addsf3>
     f6c:	2b 01       	movw	r4, r22
     f6e:	3c 01       	movw	r6, r24
     f70:	c7 01       	movw	r24, r14
     f72:	b6 01       	movw	r22, r12
     f74:	0e 94 d2 16 	call	0x2da4	; 0x2da4 <__floatunsisf>
     f78:	9b 01       	movw	r18, r22
     f7a:	ac 01       	movw	r20, r24
     f7c:	c3 01       	movw	r24, r6
     f7e:	b2 01       	movw	r22, r4
     f80:	0e 94 c4 17 	call	0x2f88	; 0x2f88 <__mulsf3>
     f84:	20 e0       	ldi	r18, 0x00	; 0
     f86:	30 e0       	ldi	r19, 0x00	; 0
     f88:	40 e0       	ldi	r20, 0x00	; 0
     f8a:	55 e3       	ldi	r21, 0x35	; 53
     f8c:	0e 94 c4 17 	call	0x2f88	; 0x2f88 <__mulsf3>
     f90:	6b 01       	movw	r12, r22
     f92:	7c 01       	movw	r14, r24
     f94:	6e 81       	ldd	r22, Y+6	; 0x06
     f96:	7f 81       	ldd	r23, Y+7	; 0x07
     f98:	80 e0       	ldi	r24, 0x00	; 0
     f9a:	90 e0       	ldi	r25, 0x00	; 0
     f9c:	0e 94 d2 16 	call	0x2da4	; 0x2da4 <__floatunsisf>
     fa0:	a5 01       	movw	r20, r10
     fa2:	94 01       	movw	r18, r8
     fa4:	0e 94 c4 17 	call	0x2f88	; 0x2f88 <__mulsf3>
     fa8:	20 e0       	ldi	r18, 0x00	; 0
     faa:	30 e0       	ldi	r19, 0x00	; 0
     fac:	40 e8       	ldi	r20, 0x80	; 128
     fae:	5c e3       	ldi	r21, 0x3C	; 60
     fb0:	0e 94 c4 17 	call	0x2f88	; 0x2f88 <__mulsf3>
     fb4:	4b 01       	movw	r8, r22
     fb6:	5c 01       	movw	r10, r24
     fb8:	6a 81       	ldd	r22, Y+2	; 0x02
     fba:	7b 81       	ldd	r23, Y+3	; 0x03
     fbc:	80 e0       	ldi	r24, 0x00	; 0
     fbe:	90 e0       	ldi	r25, 0x00	; 0
     fc0:	0e 94 d2 16 	call	0x2da4	; 0x2da4 <__floatunsisf>
     fc4:	20 e0       	ldi	r18, 0x00	; 0
     fc6:	30 e0       	ldi	r19, 0x00	; 0
     fc8:	40 e0       	ldi	r20, 0x00	; 0
     fca:	58 e4       	ldi	r21, 0x48	; 72
     fcc:	0e 94 c4 17 	call	0x2f88	; 0x2f88 <__mulsf3>
     fd0:	9b 01       	movw	r18, r22
     fd2:	ac 01       	movw	r20, r24
     fd4:	c5 01       	movw	r24, r10
     fd6:	b4 01       	movw	r22, r8
     fd8:	0e 94 97 15 	call	0x2b2e	; 0x2b2e <__addsf3>
     fdc:	9b 01       	movw	r18, r22
     fde:	ac 01       	movw	r20, r24
     fe0:	c7 01       	movw	r24, r14
     fe2:	b6 01       	movw	r22, r12
     fe4:	0e 94 96 15 	call	0x2b2c	; 0x2b2c <__subsf3>
     fe8:	20 e0       	ldi	r18, 0x00	; 0
     fea:	30 e0       	ldi	r19, 0x00	; 0
     fec:	40 e0       	ldi	r20, 0x00	; 0
     fee:	58 e3       	ldi	r21, 0x38	; 56
     ff0:	0e 94 c4 17 	call	0x2f88	; 0x2f88 <__mulsf3>
     ff4:	df 91       	pop	r29
     ff6:	cf 91       	pop	r28
     ff8:	ff 90       	pop	r15
     ffa:	ef 90       	pop	r14
     ffc:	df 90       	pop	r13
     ffe:	cf 90       	pop	r12
    1000:	bf 90       	pop	r11
    1002:	af 90       	pop	r10
    1004:	9f 90       	pop	r9
    1006:	8f 90       	pop	r8
    1008:	7f 90       	pop	r7
    100a:	6f 90       	pop	r6
    100c:	5f 90       	pop	r5
    100e:	4f 90       	pop	r4
    1010:	08 95       	ret

00001012 <get_altitude>:
    1012:	4f 92       	push	r4
    1014:	5f 92       	push	r5
    1016:	6f 92       	push	r6
    1018:	7f 92       	push	r7
    101a:	8f 92       	push	r8
    101c:	9f 92       	push	r9
    101e:	af 92       	push	r10
    1020:	bf 92       	push	r11
    1022:	cf 92       	push	r12
    1024:	df 92       	push	r13
    1026:	ef 92       	push	r14
    1028:	ff 92       	push	r15
    102a:	2b 01       	movw	r4, r22
    102c:	3c 01       	movw	r6, r24
    102e:	c0 90 21 20 	lds	r12, 0x2021	; 0x802021 <L>
    1032:	d0 90 22 20 	lds	r13, 0x2022	; 0x802022 <L+0x1>
    1036:	e0 90 23 20 	lds	r14, 0x2023	; 0x802023 <L+0x2>
    103a:	f0 90 24 20 	lds	r15, 0x2024	; 0x802024 <L+0x3>
    103e:	20 91 25 20 	lds	r18, 0x2025	; 0x802025 <R>
    1042:	30 91 26 20 	lds	r19, 0x2026	; 0x802026 <R+0x1>
    1046:	40 91 27 20 	lds	r20, 0x2027	; 0x802027 <R+0x2>
    104a:	50 91 28 20 	lds	r21, 0x2028	; 0x802028 <R+0x3>
    104e:	c7 01       	movw	r24, r14
    1050:	b6 01       	movw	r22, r12
    1052:	0e 94 c4 17 	call	0x2f88	; 0x2f88 <__mulsf3>
    1056:	20 91 1d 20 	lds	r18, 0x201D	; 0x80201d <g_0>
    105a:	30 91 1e 20 	lds	r19, 0x201E	; 0x80201e <g_0+0x1>
    105e:	40 91 1f 20 	lds	r20, 0x201F	; 0x80201f <g_0+0x2>
    1062:	50 91 20 20 	lds	r21, 0x2020	; 0x802020 <g_0+0x3>
    1066:	0e 94 ff 15 	call	0x2bfe	; 0x2bfe <__divsf3>
    106a:	4b 01       	movw	r8, r22
    106c:	5c 01       	movw	r10, r24
    106e:	a3 01       	movw	r20, r6
    1070:	92 01       	movw	r18, r4
    1072:	60 91 2d 20 	lds	r22, 0x202D	; 0x80202d <ground_p>
    1076:	70 91 2e 20 	lds	r23, 0x202E	; 0x80202e <ground_p+0x1>
    107a:	80 91 2f 20 	lds	r24, 0x202F	; 0x80202f <ground_p+0x2>
    107e:	90 91 30 20 	lds	r25, 0x2030	; 0x802030 <ground_p+0x3>
    1082:	0e 94 ff 15 	call	0x2bfe	; 0x2bfe <__divsf3>
    1086:	a5 01       	movw	r20, r10
    1088:	94 01       	movw	r18, r8
    108a:	0e 94 27 18 	call	0x304e	; 0x304e <pow>
    108e:	20 e0       	ldi	r18, 0x00	; 0
    1090:	30 e0       	ldi	r19, 0x00	; 0
    1092:	40 e8       	ldi	r20, 0x80	; 128
    1094:	5f e3       	ldi	r21, 0x3F	; 63
    1096:	0e 94 96 15 	call	0x2b2c	; 0x2b2c <__subsf3>
    109a:	20 91 29 20 	lds	r18, 0x2029	; 0x802029 <ground_t>
    109e:	30 91 2a 20 	lds	r19, 0x202A	; 0x80202a <ground_t+0x1>
    10a2:	40 91 2b 20 	lds	r20, 0x202B	; 0x80202b <ground_t+0x2>
    10a6:	50 91 2c 20 	lds	r21, 0x202C	; 0x80202c <ground_t+0x3>
    10aa:	0e 94 c4 17 	call	0x2f88	; 0x2f88 <__mulsf3>
    10ae:	a7 01       	movw	r20, r14
    10b0:	96 01       	movw	r18, r12
    10b2:	0e 94 ff 15 	call	0x2bfe	; 0x2bfe <__divsf3>
    10b6:	20 91 fb 20 	lds	r18, 0x20FB	; 0x8020fb <ground_a>
    10ba:	30 91 fc 20 	lds	r19, 0x20FC	; 0x8020fc <ground_a+0x1>
    10be:	40 91 fd 20 	lds	r20, 0x20FD	; 0x8020fd <ground_a+0x2>
    10c2:	50 91 fe 20 	lds	r21, 0x20FE	; 0x8020fe <ground_a+0x3>
    10c6:	0e 94 96 15 	call	0x2b2c	; 0x2b2c <__subsf3>
    10ca:	ff 90       	pop	r15
    10cc:	ef 90       	pop	r14
    10ce:	df 90       	pop	r13
    10d0:	cf 90       	pop	r12
    10d2:	bf 90       	pop	r11
    10d4:	af 90       	pop	r10
    10d6:	9f 90       	pop	r9
    10d8:	8f 90       	pop	r8
    10da:	7f 90       	pop	r7
    10dc:	6f 90       	pop	r6
    10de:	5f 90       	pop	r5
    10e0:	4f 90       	pop	r4
    10e2:	08 95       	ret

000010e4 <diff>:
    10e4:	2f 92       	push	r2
    10e6:	3f 92       	push	r3
    10e8:	4f 92       	push	r4
    10ea:	5f 92       	push	r5
    10ec:	6f 92       	push	r6
    10ee:	7f 92       	push	r7
    10f0:	8f 92       	push	r8
    10f2:	9f 92       	push	r9
    10f4:	af 92       	push	r10
    10f6:	bf 92       	push	r11
    10f8:	cf 92       	push	r12
    10fa:	df 92       	push	r13
    10fc:	ef 92       	push	r14
    10fe:	ff 92       	push	r15
    1100:	0f 93       	push	r16
    1102:	1f 93       	push	r17
    1104:	cf 93       	push	r28
    1106:	df 93       	push	r29
    1108:	00 d0       	rcall	.+0      	; 0x110a <diff+0x26>
    110a:	00 d0       	rcall	.+0      	; 0x110c <diff+0x28>
    110c:	cd b7       	in	r28, 0x3d	; 61
    110e:	de b7       	in	r29, 0x3e	; 62
    1110:	6c 01       	movw	r12, r24
    1112:	80 91 16 20 	lds	r24, 0x2016	; 0x802016 <data_samples>
    1116:	88 23       	and	r24, r24
    1118:	09 f4       	brne	.+2      	; 0x111c <diff+0x38>
    111a:	6c c0       	rjmp	.+216    	; 0x11f4 <diff+0x110>
    111c:	00 e0       	ldi	r16, 0x00	; 0
    111e:	10 e0       	ldi	r17, 0x00	; 0
    1120:	41 2c       	mov	r4, r1
    1122:	51 2c       	mov	r5, r1
    1124:	32 01       	movw	r6, r4
    1126:	86 2e       	mov	r8, r22
    1128:	91 2c       	mov	r9, r1
    112a:	a1 2c       	mov	r10, r1
    112c:	b1 2c       	mov	r11, r1
    112e:	89 82       	std	Y+1, r8	; 0x01
    1130:	9a 82       	std	Y+2, r9	; 0x02
    1132:	ab 82       	std	Y+3, r10	; 0x03
    1134:	bc 82       	std	Y+4, r11	; 0x04
    1136:	b8 01       	movw	r22, r16
    1138:	c6 01       	movw	r24, r12
    113a:	75 dd       	rcall	.-1302   	; 0xc26 <rb16_get_nth>
    113c:	5c 01       	movw	r10, r24
    113e:	18 01       	movw	r2, r16
    1140:	2f ef       	ldi	r18, 0xFF	; 255
    1142:	22 1a       	sub	r2, r18
    1144:	32 0a       	sbc	r3, r18
    1146:	b1 01       	movw	r22, r2
    1148:	c6 01       	movw	r24, r12
    114a:	6d dd       	rcall	.-1318   	; 0xc26 <rb16_get_nth>
    114c:	7c 01       	movw	r14, r24
    114e:	b8 01       	movw	r22, r16
    1150:	6e 5f       	subi	r22, 0xFE	; 254
    1152:	7f 4f       	sbci	r23, 0xFF	; 255
    1154:	c6 01       	movw	r24, r12
    1156:	67 dd       	rcall	.-1330   	; 0xc26 <rb16_get_nth>
    1158:	a5 01       	movw	r20, r10
    115a:	bb 0c       	add	r11, r11
    115c:	66 0b       	sbc	r22, r22
    115e:	77 0b       	sbc	r23, r23
    1160:	8a 01       	movw	r16, r20
    1162:	9b 01       	movw	r18, r22
    1164:	00 0f       	add	r16, r16
    1166:	11 1f       	adc	r17, r17
    1168:	22 1f       	adc	r18, r18
    116a:	33 1f       	adc	r19, r19
    116c:	40 0f       	add	r20, r16
    116e:	51 1f       	adc	r21, r17
    1170:	62 1f       	adc	r22, r18
    1172:	73 1f       	adc	r23, r19
    1174:	87 01       	movw	r16, r14
    1176:	ff 0c       	add	r15, r15
    1178:	22 0b       	sbc	r18, r18
    117a:	33 0b       	sbc	r19, r19
    117c:	78 01       	movw	r14, r16
    117e:	89 01       	movw	r16, r18
    1180:	ee 0c       	add	r14, r14
    1182:	ff 1c       	adc	r15, r15
    1184:	00 1f       	adc	r16, r16
    1186:	11 1f       	adc	r17, r17
    1188:	ee 0c       	add	r14, r14
    118a:	ff 1c       	adc	r15, r15
    118c:	00 1f       	adc	r16, r16
    118e:	11 1f       	adc	r17, r17
    1190:	4a 01       	movw	r8, r20
    1192:	5b 01       	movw	r10, r22
    1194:	8e 18       	sub	r8, r14
    1196:	9f 08       	sbc	r9, r15
    1198:	a0 0a       	sbc	r10, r16
    119a:	b1 0a       	sbc	r11, r17
    119c:	ac 01       	movw	r20, r24
    119e:	99 0f       	add	r25, r25
    11a0:	66 0b       	sbc	r22, r22
    11a2:	77 0b       	sbc	r23, r23
    11a4:	d5 01       	movw	r26, r10
    11a6:	c4 01       	movw	r24, r8
    11a8:	84 0f       	add	r24, r20
    11aa:	95 1f       	adc	r25, r21
    11ac:	a6 1f       	adc	r26, r22
    11ae:	b7 1f       	adc	r27, r23
    11b0:	9c 01       	movw	r18, r24
    11b2:	ad 01       	movw	r20, r26
    11b4:	69 81       	ldd	r22, Y+1	; 0x01
    11b6:	7a 81       	ldd	r23, Y+2	; 0x02
    11b8:	8b 81       	ldd	r24, Y+3	; 0x03
    11ba:	9c 81       	ldd	r25, Y+4	; 0x04
    11bc:	0e 94 60 19 	call	0x32c0	; 0x32c0 <__mulsi3>
    11c0:	0e 94 d4 16 	call	0x2da8	; 0x2da8 <__floatsisf>
    11c4:	20 e0       	ldi	r18, 0x00	; 0
    11c6:	30 e0       	ldi	r19, 0x00	; 0
    11c8:	40 e0       	ldi	r20, 0x00	; 0
    11ca:	5f e3       	ldi	r21, 0x3F	; 63
    11cc:	0e 94 c4 17 	call	0x2f88	; 0x2f88 <__mulsf3>
    11d0:	9b 01       	movw	r18, r22
    11d2:	ac 01       	movw	r20, r24
    11d4:	c3 01       	movw	r24, r6
    11d6:	b2 01       	movw	r22, r4
    11d8:	0e 94 97 15 	call	0x2b2e	; 0x2b2e <__addsf3>
    11dc:	2b 01       	movw	r4, r22
    11de:	3c 01       	movw	r6, r24
    11e0:	80 91 16 20 	lds	r24, 0x2016	; 0x802016 <data_samples>
    11e4:	81 01       	movw	r16, r2
    11e6:	28 2f       	mov	r18, r24
    11e8:	30 e0       	ldi	r19, 0x00	; 0
    11ea:	22 16       	cp	r2, r18
    11ec:	33 06       	cpc	r3, r19
    11ee:	08 f4       	brcc	.+2      	; 0x11f2 <diff+0x10e>
    11f0:	a2 cf       	rjmp	.-188    	; 0x1136 <diff+0x52>
    11f2:	03 c0       	rjmp	.+6      	; 0x11fa <diff+0x116>
    11f4:	41 2c       	mov	r4, r1
    11f6:	51 2c       	mov	r5, r1
    11f8:	32 01       	movw	r6, r4
    11fa:	68 2f       	mov	r22, r24
    11fc:	70 e0       	ldi	r23, 0x00	; 0
    11fe:	80 e0       	ldi	r24, 0x00	; 0
    1200:	90 e0       	ldi	r25, 0x00	; 0
    1202:	0e 94 d4 16 	call	0x2da8	; 0x2da8 <__floatsisf>
    1206:	9b 01       	movw	r18, r22
    1208:	ac 01       	movw	r20, r24
    120a:	c3 01       	movw	r24, r6
    120c:	b2 01       	movw	r22, r4
    120e:	0e 94 ff 15 	call	0x2bfe	; 0x2bfe <__divsf3>
    1212:	20 e0       	ldi	r18, 0x00	; 0
    1214:	30 e0       	ldi	r19, 0x00	; 0
    1216:	48 ec       	ldi	r20, 0xC8	; 200
    1218:	52 e4       	ldi	r21, 0x42	; 66
    121a:	0e 94 ff 15 	call	0x2bfe	; 0x2bfe <__divsf3>
    121e:	26 96       	adiw	r28, 0x06	; 6
    1220:	cd bf       	out	0x3d, r28	; 61
    1222:	de bf       	out	0x3e, r29	; 62
    1224:	df 91       	pop	r29
    1226:	cf 91       	pop	r28
    1228:	1f 91       	pop	r17
    122a:	0f 91       	pop	r16
    122c:	ff 90       	pop	r15
    122e:	ef 90       	pop	r14
    1230:	df 90       	pop	r13
    1232:	cf 90       	pop	r12
    1234:	bf 90       	pop	r11
    1236:	af 90       	pop	r10
    1238:	9f 90       	pop	r9
    123a:	8f 90       	pop	r8
    123c:	7f 90       	pop	r7
    123e:	6f 90       	pop	r6
    1240:	5f 90       	pop	r5
    1242:	4f 90       	pop	r4
    1244:	3f 90       	pop	r3
    1246:	2f 90       	pop	r2
    1248:	08 95       	ret

0000124a <data_check>:
    124a:	3f 92       	push	r3
    124c:	4f 92       	push	r4
    124e:	5f 92       	push	r5
    1250:	6f 92       	push	r6
    1252:	7f 92       	push	r7
    1254:	8f 92       	push	r8
    1256:	9f 92       	push	r9
    1258:	af 92       	push	r10
    125a:	bf 92       	push	r11
    125c:	cf 92       	push	r12
    125e:	df 92       	push	r13
    1260:	ef 92       	push	r14
    1262:	ff 92       	push	r15
    1264:	0f 93       	push	r16
    1266:	1f 93       	push	r17
    1268:	cf 93       	push	r28
    126a:	df 93       	push	r29
    126c:	00 d0       	rcall	.+0      	; 0x126e <data_check+0x24>
    126e:	00 d0       	rcall	.+0      	; 0x1270 <data_check+0x26>
    1270:	cd b7       	in	r28, 0x3d	; 61
    1272:	de b7       	in	r29, 0x3e	; 62
    1274:	8c 01       	movw	r16, r24
    1276:	19 82       	std	Y+1, r1	; 0x01
    1278:	1a 82       	std	Y+2, r1	; 0x02
    127a:	c1 2c       	mov	r12, r1
    127c:	d1 2c       	mov	r13, r1
    127e:	76 01       	movw	r14, r12
    1280:	69 81       	ldd	r22, Y+1	; 0x01
    1282:	7a 81       	ldd	r23, Y+2	; 0x02
    1284:	c8 01       	movw	r24, r16
    1286:	57 dd       	rcall	.-1362   	; 0xd36 <rb32_get_nth>
    1288:	4b 01       	movw	r8, r22
    128a:	5c 01       	movw	r10, r24
    128c:	21 ea       	ldi	r18, 0xA1	; 161
    128e:	82 1a       	sub	r8, r18
    1290:	26 e8       	ldi	r18, 0x86	; 134
    1292:	92 0a       	sbc	r9, r18
    1294:	21 e0       	ldi	r18, 0x01	; 1
    1296:	a2 0a       	sbc	r10, r18
    1298:	b1 08       	sbc	r11, r1
    129a:	2f ed       	ldi	r18, 0xDF	; 223
    129c:	82 16       	cp	r8, r18
    129e:	2f e0       	ldi	r18, 0x0F	; 15
    12a0:	92 06       	cpc	r9, r18
    12a2:	27 e9       	ldi	r18, 0x97	; 151
    12a4:	a2 06       	cpc	r10, r18
    12a6:	b1 04       	cpc	r11, r1
    12a8:	80 f4       	brcc	.+32     	; 0x12ca <data_check+0x80>
    12aa:	0e 94 d4 16 	call	0x2da8	; 0x2da8 <__floatsisf>
    12ae:	20 e0       	ldi	r18, 0x00	; 0
    12b0:	30 e0       	ldi	r19, 0x00	; 0
    12b2:	40 ea       	ldi	r20, 0xA0	; 160
    12b4:	50 e4       	ldi	r21, 0x40	; 64
    12b6:	0e 94 ff 15 	call	0x2bfe	; 0x2bfe <__divsf3>
    12ba:	9b 01       	movw	r18, r22
    12bc:	ac 01       	movw	r20, r24
    12be:	c7 01       	movw	r24, r14
    12c0:	b6 01       	movw	r22, r12
    12c2:	0e 94 97 15 	call	0x2b2e	; 0x2b2e <__addsf3>
    12c6:	6b 01       	movw	r12, r22
    12c8:	7c 01       	movw	r14, r24
    12ca:	89 81       	ldd	r24, Y+1	; 0x01
    12cc:	9a 81       	ldd	r25, Y+2	; 0x02
    12ce:	01 96       	adiw	r24, 0x01	; 1
    12d0:	89 83       	std	Y+1, r24	; 0x01
    12d2:	9a 83       	std	Y+2, r25	; 0x02
    12d4:	05 97       	sbiw	r24, 0x05	; 5
    12d6:	a1 f6       	brne	.-88     	; 0x1280 <data_check+0x36>
    12d8:	19 82       	std	Y+1, r1	; 0x01
    12da:	1a 82       	std	Y+2, r1	; 0x02
    12dc:	81 2c       	mov	r8, r1
    12de:	91 2c       	mov	r9, r1
    12e0:	54 01       	movw	r10, r8
    12e2:	69 81       	ldd	r22, Y+1	; 0x01
    12e4:	7a 81       	ldd	r23, Y+2	; 0x02
    12e6:	c8 01       	movw	r24, r16
    12e8:	26 dd       	rcall	.-1460   	; 0xd36 <rb32_get_nth>
    12ea:	2b 01       	movw	r4, r22
    12ec:	3c 01       	movw	r6, r24
    12ee:	21 ea       	ldi	r18, 0xA1	; 161
    12f0:	42 1a       	sub	r4, r18
    12f2:	26 e8       	ldi	r18, 0x86	; 134
    12f4:	52 0a       	sbc	r5, r18
    12f6:	21 e0       	ldi	r18, 0x01	; 1
    12f8:	62 0a       	sbc	r6, r18
    12fa:	71 08       	sbc	r7, r1
    12fc:	2f ed       	ldi	r18, 0xDF	; 223
    12fe:	42 16       	cp	r4, r18
    1300:	2f e0       	ldi	r18, 0x0F	; 15
    1302:	52 06       	cpc	r5, r18
    1304:	27 e9       	ldi	r18, 0x97	; 151
    1306:	62 06       	cpc	r6, r18
    1308:	71 04       	cpc	r7, r1
    130a:	90 f4       	brcc	.+36     	; 0x1330 <data_check+0xe6>
    130c:	0e 94 d4 16 	call	0x2da8	; 0x2da8 <__floatsisf>
    1310:	a7 01       	movw	r20, r14
    1312:	96 01       	movw	r18, r12
    1314:	0e 94 96 15 	call	0x2b2c	; 0x2b2c <__subsf3>
    1318:	9b 01       	movw	r18, r22
    131a:	ac 01       	movw	r20, r24
    131c:	0e 94 c4 17 	call	0x2f88	; 0x2f88 <__mulsf3>
    1320:	9b 01       	movw	r18, r22
    1322:	ac 01       	movw	r20, r24
    1324:	c5 01       	movw	r24, r10
    1326:	b4 01       	movw	r22, r8
    1328:	0e 94 97 15 	call	0x2b2e	; 0x2b2e <__addsf3>
    132c:	4b 01       	movw	r8, r22
    132e:	5c 01       	movw	r10, r24
    1330:	89 81       	ldd	r24, Y+1	; 0x01
    1332:	9a 81       	ldd	r25, Y+2	; 0x02
    1334:	01 96       	adiw	r24, 0x01	; 1
    1336:	89 83       	std	Y+1, r24	; 0x01
    1338:	9a 83       	std	Y+2, r25	; 0x02
    133a:	05 97       	sbiw	r24, 0x05	; 5
    133c:	91 f6       	brne	.-92     	; 0x12e2 <data_check+0x98>
    133e:	20 e0       	ldi	r18, 0x00	; 0
    1340:	30 e0       	ldi	r19, 0x00	; 0
    1342:	40 e8       	ldi	r20, 0x80	; 128
    1344:	5e e3       	ldi	r21, 0x3E	; 62
    1346:	c5 01       	movw	r24, r10
    1348:	b4 01       	movw	r22, r8
    134a:	0e 94 c4 17 	call	0x2f88	; 0x2f88 <__mulsf3>
    134e:	69 83       	std	Y+1, r22	; 0x01
    1350:	7a 83       	std	Y+2, r23	; 0x02
    1352:	8b 83       	std	Y+3, r24	; 0x03
    1354:	9c 83       	std	Y+4, r25	; 0x04
    1356:	1d 82       	std	Y+5, r1	; 0x05
    1358:	1e 82       	std	Y+6, r1	; 0x06
    135a:	31 2c       	mov	r3, r1
    135c:	41 2c       	mov	r4, r1
    135e:	51 2c       	mov	r5, r1
    1360:	32 01       	movw	r6, r4
    1362:	6d 81       	ldd	r22, Y+5	; 0x05
    1364:	7e 81       	ldd	r23, Y+6	; 0x06
    1366:	c8 01       	movw	r24, r16
    1368:	e6 dc       	rcall	.-1588   	; 0xd36 <rb32_get_nth>
    136a:	4b 01       	movw	r8, r22
    136c:	5c 01       	movw	r10, r24
    136e:	21 ea       	ldi	r18, 0xA1	; 161
    1370:	82 1a       	sub	r8, r18
    1372:	26 e8       	ldi	r18, 0x86	; 134
    1374:	92 0a       	sbc	r9, r18
    1376:	21 e0       	ldi	r18, 0x01	; 1
    1378:	a2 0a       	sbc	r10, r18
    137a:	b1 08       	sbc	r11, r1
    137c:	2f ed       	ldi	r18, 0xDF	; 223
    137e:	82 16       	cp	r8, r18
    1380:	2f e0       	ldi	r18, 0x0F	; 15
    1382:	92 06       	cpc	r9, r18
    1384:	27 e9       	ldi	r18, 0x97	; 151
    1386:	a2 06       	cpc	r10, r18
    1388:	b1 04       	cpc	r11, r1
    138a:	50 f5       	brcc	.+84     	; 0x13e0 <data_check+0x196>
    138c:	0e 94 d4 16 	call	0x2da8	; 0x2da8 <__floatsisf>
    1390:	4b 01       	movw	r8, r22
    1392:	5c 01       	movw	r10, r24
    1394:	a7 01       	movw	r20, r14
    1396:	96 01       	movw	r18, r12
    1398:	0e 94 96 15 	call	0x2b2c	; 0x2b2c <__subsf3>
    139c:	0e 94 a1 16 	call	0x2d42	; 0x2d42 <__fixsfsi>
    13a0:	9b 01       	movw	r18, r22
    13a2:	77 23       	and	r23, r23
    13a4:	24 f4       	brge	.+8      	; 0x13ae <data_check+0x164>
    13a6:	22 27       	eor	r18, r18
    13a8:	33 27       	eor	r19, r19
    13aa:	26 1b       	sub	r18, r22
    13ac:	37 0b       	sbc	r19, r23
    13ae:	b9 01       	movw	r22, r18
    13b0:	33 0f       	add	r19, r19
    13b2:	88 0b       	sbc	r24, r24
    13b4:	99 0b       	sbc	r25, r25
    13b6:	0e 94 d4 16 	call	0x2da8	; 0x2da8 <__floatsisf>
    13ba:	9b 01       	movw	r18, r22
    13bc:	ac 01       	movw	r20, r24
    13be:	69 81       	ldd	r22, Y+1	; 0x01
    13c0:	7a 81       	ldd	r23, Y+2	; 0x02
    13c2:	8b 81       	ldd	r24, Y+3	; 0x03
    13c4:	9c 81       	ldd	r25, Y+4	; 0x04
    13c6:	0e 94 b9 17 	call	0x2f72	; 0x2f72 <__gesf2>
    13ca:	88 23       	and	r24, r24
    13cc:	4c f0       	brlt	.+18     	; 0x13e0 <data_check+0x196>
    13ce:	a5 01       	movw	r20, r10
    13d0:	94 01       	movw	r18, r8
    13d2:	c3 01       	movw	r24, r6
    13d4:	b2 01       	movw	r22, r4
    13d6:	0e 94 97 15 	call	0x2b2e	; 0x2b2e <__addsf3>
    13da:	2b 01       	movw	r4, r22
    13dc:	3c 01       	movw	r6, r24
    13de:	33 94       	inc	r3
    13e0:	8d 81       	ldd	r24, Y+5	; 0x05
    13e2:	9e 81       	ldd	r25, Y+6	; 0x06
    13e4:	01 96       	adiw	r24, 0x01	; 1
    13e6:	8d 83       	std	Y+5, r24	; 0x05
    13e8:	9e 83       	std	Y+6, r25	; 0x06
    13ea:	05 97       	sbiw	r24, 0x05	; 5
    13ec:	09 f0       	breq	.+2      	; 0x13f0 <data_check+0x1a6>
    13ee:	b9 cf       	rjmp	.-142    	; 0x1362 <data_check+0x118>
    13f0:	33 20       	and	r3, r3
    13f2:	69 f0       	breq	.+26     	; 0x140e <data_check+0x1c4>
    13f4:	63 2d       	mov	r22, r3
    13f6:	70 e0       	ldi	r23, 0x00	; 0
    13f8:	80 e0       	ldi	r24, 0x00	; 0
    13fa:	90 e0       	ldi	r25, 0x00	; 0
    13fc:	0e 94 d2 16 	call	0x2da4	; 0x2da4 <__floatunsisf>
    1400:	9b 01       	movw	r18, r22
    1402:	ac 01       	movw	r20, r24
    1404:	c3 01       	movw	r24, r6
    1406:	b2 01       	movw	r22, r4
    1408:	0e 94 ff 15 	call	0x2bfe	; 0x2bfe <__divsf3>
    140c:	04 c0       	rjmp	.+8      	; 0x1416 <data_check+0x1cc>
    140e:	60 e0       	ldi	r22, 0x00	; 0
    1410:	70 e0       	ldi	r23, 0x00	; 0
    1412:	80 e8       	ldi	r24, 0x80	; 128
    1414:	9f eb       	ldi	r25, 0xBF	; 191
    1416:	26 96       	adiw	r28, 0x06	; 6
    1418:	cd bf       	out	0x3d, r28	; 61
    141a:	de bf       	out	0x3e, r29	; 62
    141c:	df 91       	pop	r29
    141e:	cf 91       	pop	r28
    1420:	1f 91       	pop	r17
    1422:	0f 91       	pop	r16
    1424:	ff 90       	pop	r15
    1426:	ef 90       	pop	r14
    1428:	df 90       	pop	r13
    142a:	cf 90       	pop	r12
    142c:	bf 90       	pop	r11
    142e:	af 90       	pop	r10
    1430:	9f 90       	pop	r9
    1432:	8f 90       	pop	r8
    1434:	7f 90       	pop	r7
    1436:	6f 90       	pop	r6
    1438:	5f 90       	pop	r5
    143a:	4f 90       	pop	r4
    143c:	3f 90       	pop	r3
    143e:	08 95       	ret

00001440 <data_collect>:
    1440:	af 92       	push	r10
    1442:	bf 92       	push	r11
    1444:	cf 92       	push	r12
    1446:	df 92       	push	r13
    1448:	ef 92       	push	r14
    144a:	ff 92       	push	r15
    144c:	0f 93       	push	r16
    144e:	1f 93       	push	r17
    1450:	cf 93       	push	r28
    1452:	df 93       	push	r29
    1454:	00 d0       	rcall	.+0      	; 0x1456 <data_collect+0x16>
    1456:	00 d0       	rcall	.+0      	; 0x1458 <data_collect+0x18>
    1458:	cd b7       	in	r28, 0x3d	; 61
    145a:	de b7       	in	r29, 0x3e	; 62
    145c:	5c 01       	movw	r10, r24
    145e:	8b 01       	movw	r16, r22
    1460:	35 dd       	rcall	.-1430   	; 0xecc <get_pressure>
    1462:	20 e0       	ldi	r18, 0x00	; 0
    1464:	30 e0       	ldi	r19, 0x00	; 0
    1466:	40 e2       	ldi	r20, 0x20	; 32
    1468:	51 e4       	ldi	r21, 0x41	; 65
    146a:	0e 94 c4 17 	call	0x2f88	; 0x2f88 <__mulsf3>
    146e:	0e 94 a1 16 	call	0x2d42	; 0x2d42 <__fixsfsi>
    1472:	69 83       	std	Y+1, r22	; 0x01
    1474:	7a 83       	std	Y+2, r23	; 0x02
    1476:	8b 83       	std	Y+3, r24	; 0x03
    1478:	9c 83       	std	Y+4, r25	; 0x04
    147a:	41 e0       	ldi	r20, 0x01	; 1
    147c:	50 e0       	ldi	r21, 0x00	; 0
    147e:	be 01       	movw	r22, r28
    1480:	6f 5f       	subi	r22, 0xFF	; 255
    1482:	7f 4f       	sbci	r23, 0xFF	; 255
    1484:	c8 01       	movw	r24, r16
    1486:	fc db       	rcall	.-2056   	; 0xc80 <rb32_write>
    1488:	c8 01       	movw	r24, r16
    148a:	df de       	rcall	.-578    	; 0x124a <data_check>
    148c:	20 e0       	ldi	r18, 0x00	; 0
    148e:	30 e0       	ldi	r19, 0x00	; 0
    1490:	40 e2       	ldi	r20, 0x20	; 32
    1492:	51 e4       	ldi	r21, 0x41	; 65
    1494:	0e 94 ff 15 	call	0x2bfe	; 0x2bfe <__divsf3>
    1498:	6b 01       	movw	r12, r22
    149a:	7c 01       	movw	r14, r24
    149c:	20 e0       	ldi	r18, 0x00	; 0
    149e:	30 e0       	ldi	r19, 0x00	; 0
    14a0:	40 e8       	ldi	r20, 0x80	; 128
    14a2:	5f eb       	ldi	r21, 0xBF	; 191
    14a4:	0e 94 fb 15 	call	0x2bf6	; 0x2bf6 <__cmpsf2>
    14a8:	88 23       	and	r24, r24
    14aa:	81 f1       	breq	.+96     	; 0x150c <data_collect+0xcc>
    14ac:	c0 92 e0 20 	sts	0x20E0, r12	; 0x8020e0 <press>
    14b0:	d0 92 e1 20 	sts	0x20E1, r13	; 0x8020e1 <press+0x1>
    14b4:	e0 92 e2 20 	sts	0x20E2, r14	; 0x8020e2 <press+0x2>
    14b8:	f0 92 e3 20 	sts	0x20E3, r15	; 0x8020e3 <press+0x3>
    14bc:	c7 01       	movw	r24, r14
    14be:	b6 01       	movw	r22, r12
    14c0:	a8 dd       	rcall	.-1200   	; 0x1012 <get_altitude>
    14c2:	60 93 d8 20 	sts	0x20D8, r22	; 0x8020d8 <alt>
    14c6:	70 93 d9 20 	sts	0x20D9, r23	; 0x8020d9 <alt+0x1>
    14ca:	80 93 da 20 	sts	0x20DA, r24	; 0x8020da <alt+0x2>
    14ce:	90 93 db 20 	sts	0x20DB, r25	; 0x8020db <alt+0x3>
    14d2:	20 e0       	ldi	r18, 0x00	; 0
    14d4:	30 e0       	ldi	r19, 0x00	; 0
    14d6:	48 ec       	ldi	r20, 0xC8	; 200
    14d8:	52 e4       	ldi	r21, 0x42	; 66
    14da:	0e 94 c4 17 	call	0x2f88	; 0x2f88 <__mulsf3>
    14de:	0e 94 a1 16 	call	0x2d42	; 0x2d42 <__fixsfsi>
    14e2:	6d 83       	std	Y+5, r22	; 0x05
    14e4:	7e 83       	std	Y+6, r23	; 0x06
    14e6:	41 e0       	ldi	r20, 0x01	; 1
    14e8:	50 e0       	ldi	r21, 0x00	; 0
    14ea:	be 01       	movw	r22, r28
    14ec:	6b 5f       	subi	r22, 0xFB	; 251
    14ee:	7f 4f       	sbci	r23, 0xFF	; 255
    14f0:	c5 01       	movw	r24, r10
    14f2:	50 db       	rcall	.-2400   	; 0xb94 <rb16_write>
    14f4:	60 91 19 20 	lds	r22, 0x2019	; 0x802019 <rate>
    14f8:	c5 01       	movw	r24, r10
    14fa:	f4 dd       	rcall	.-1048   	; 0x10e4 <diff>
    14fc:	60 93 d0 20 	sts	0x20D0, r22	; 0x8020d0 <velocity>
    1500:	70 93 d1 20 	sts	0x20D1, r23	; 0x8020d1 <velocity+0x1>
    1504:	80 93 d2 20 	sts	0x20D2, r24	; 0x8020d2 <velocity+0x2>
    1508:	90 93 d3 20 	sts	0x20D3, r25	; 0x8020d3 <velocity+0x3>
    150c:	83 e3       	ldi	r24, 0x33	; 51
    150e:	93 e1       	ldi	r25, 0x13	; 19
    1510:	a0 e9       	ldi	r26, 0x90	; 144
    1512:	b3 e4       	ldi	r27, 0x43	; 67
    1514:	80 93 dc 20 	sts	0x20DC, r24	; 0x8020dc <temp>
    1518:	90 93 dd 20 	sts	0x20DD, r25	; 0x8020dd <temp+0x1>
    151c:	a0 93 de 20 	sts	0x20DE, r26	; 0x8020de <temp+0x2>
    1520:	b0 93 df 20 	sts	0x20DF, r27	; 0x8020df <temp+0x3>
    1524:	26 96       	adiw	r28, 0x06	; 6
    1526:	cd bf       	out	0x3d, r28	; 61
    1528:	de bf       	out	0x3e, r29	; 62
    152a:	df 91       	pop	r29
    152c:	cf 91       	pop	r28
    152e:	1f 91       	pop	r17
    1530:	0f 91       	pop	r16
    1532:	ff 90       	pop	r15
    1534:	ef 90       	pop	r14
    1536:	df 90       	pop	r13
    1538:	cf 90       	pop	r12
    153a:	bf 90       	pop	r11
    153c:	af 90       	pop	r10
    153e:	08 95       	ret

00001540 <state_check>:
    1540:	cf 92       	push	r12
    1542:	df 92       	push	r13
    1544:	ef 92       	push	r14
    1546:	ff 92       	push	r15
    1548:	c0 90 d0 20 	lds	r12, 0x20D0	; 0x8020d0 <velocity>
    154c:	d0 90 d1 20 	lds	r13, 0x20D1	; 0x8020d1 <velocity+0x1>
    1550:	e0 90 d2 20 	lds	r14, 0x20D2	; 0x8020d2 <velocity+0x2>
    1554:	f0 90 d3 20 	lds	r15, 0x20D3	; 0x8020d3 <velocity+0x3>
    1558:	c7 01       	movw	r24, r14
    155a:	b6 01       	movw	r22, r12
    155c:	0e 94 a1 16 	call	0x2d42	; 0x2d42 <__fixsfsi>
    1560:	9b 01       	movw	r18, r22
    1562:	77 23       	and	r23, r23
    1564:	24 f4       	brge	.+8      	; 0x156e <state_check+0x2e>
    1566:	22 27       	eor	r18, r18
    1568:	33 27       	eor	r19, r19
    156a:	26 1b       	sub	r18, r22
    156c:	37 0b       	sbc	r19, r23
    156e:	26 30       	cpi	r18, 0x06	; 6
    1570:	31 05       	cpc	r19, r1
    1572:	8c f0       	brlt	.+34     	; 0x1596 <state_check+0x56>
    1574:	20 e0       	ldi	r18, 0x00	; 0
    1576:	30 e0       	ldi	r19, 0x00	; 0
    1578:	a9 01       	movw	r20, r18
    157a:	c7 01       	movw	r24, r14
    157c:	b6 01       	movw	r22, r12
    157e:	0e 94 fb 15 	call	0x2bf6	; 0x2bf6 <__cmpsf2>
    1582:	88 23       	and	r24, r24
    1584:	24 f0       	brlt	.+8      	; 0x158e <state_check+0x4e>
    1586:	81 e0       	ldi	r24, 0x01	; 1
    1588:	80 93 01 21 	sts	0x2101, r24	; 0x802101 <state>
    158c:	24 c0       	rjmp	.+72     	; 0x15d6 <state_check+0x96>
    158e:	82 e0       	ldi	r24, 0x02	; 2
    1590:	80 93 01 21 	sts	0x2101, r24	; 0x802101 <state>
    1594:	20 c0       	rjmp	.+64     	; 0x15d6 <state_check+0x96>
    1596:	10 92 01 21 	sts	0x2101, r1	; 0x802101 <state>
    159a:	20 e0       	ldi	r18, 0x00	; 0
    159c:	30 e0       	ldi	r19, 0x00	; 0
    159e:	48 e4       	ldi	r20, 0x48	; 72
    15a0:	52 e4       	ldi	r21, 0x42	; 66
    15a2:	60 91 d8 20 	lds	r22, 0x20D8	; 0x8020d8 <alt>
    15a6:	70 91 d9 20 	lds	r23, 0x20D9	; 0x8020d9 <alt+0x1>
    15aa:	80 91 da 20 	lds	r24, 0x20DA	; 0x8020da <alt+0x2>
    15ae:	90 91 db 20 	lds	r25, 0x20DB	; 0x8020db <alt+0x3>
    15b2:	0e 94 b9 17 	call	0x2f72	; 0x2f72 <__gesf2>
    15b6:	18 16       	cp	r1, r24
    15b8:	24 f0       	brlt	.+8      	; 0x15c2 <state_check+0x82>
    15ba:	80 91 ff 20 	lds	r24, 0x20FF	; 0x8020ff <reset_received>
    15be:	88 23       	and	r24, r24
    15c0:	19 f0       	breq	.+6      	; 0x15c8 <state_check+0x88>
    15c2:	81 e0       	ldi	r24, 0x01	; 1
    15c4:	80 93 01 21 	sts	0x2101, r24	; 0x802101 <state>
    15c8:	80 91 00 21 	lds	r24, 0x2100	; 0x802100 <released>
    15cc:	88 23       	and	r24, r24
    15ce:	19 f0       	breq	.+6      	; 0x15d6 <state_check+0x96>
    15d0:	83 e0       	ldi	r24, 0x03	; 3
    15d2:	80 93 01 21 	sts	0x2101, r24	; 0x802101 <state>
    15d6:	ff 90       	pop	r15
    15d8:	ef 90       	pop	r14
    15da:	df 90       	pop	r13
    15dc:	cf 90       	pop	r12
    15de:	08 95       	ret

000015e0 <release_servo_init>:
    15e0:	61 e0       	ldi	r22, 0x01	; 1
    15e2:	84 e0       	ldi	r24, 0x04	; 4
    15e4:	12 dc       	rcall	.-2012   	; 0xe0a <sysclk_enable_module>
    15e6:	64 e0       	ldi	r22, 0x04	; 4
    15e8:	84 e0       	ldi	r24, 0x04	; 4
    15ea:	0f dc       	rcall	.-2018   	; 0xe0a <sysclk_enable_module>
    15ec:	81 e0       	ldi	r24, 0x01	; 1
    15ee:	80 93 60 06 	sts	0x0660, r24	; 0x800660 <__TEXT_REGION_LENGTH__+0x700660>
    15f2:	e0 e0       	ldi	r30, 0x00	; 0
    15f4:	f9 e0       	ldi	r31, 0x09	; 9
    15f6:	85 e0       	ldi	r24, 0x05	; 5
    15f8:	80 83       	st	Z, r24
    15fa:	83 e1       	ldi	r24, 0x13	; 19
    15fc:	81 83       	std	Z+1, r24	; 0x01
    15fe:	80 e1       	ldi	r24, 0x10	; 16
    1600:	97 e2       	ldi	r25, 0x27	; 39
    1602:	86 a3       	std	Z+38, r24	; 0x26
    1604:	97 a3       	std	Z+39, r25	; 0x27
    1606:	8e ee       	ldi	r24, 0xEE	; 238
    1608:	92 e0       	ldi	r25, 0x02	; 2
    160a:	80 a7       	std	Z+40, r24	; 0x28
    160c:	91 a7       	std	Z+41, r25	; 0x29
    160e:	08 95       	ret

00001610 <servo_pid>:
    1610:	8f 92       	push	r8
    1612:	9f 92       	push	r9
    1614:	af 92       	push	r10
    1616:	bf 92       	push	r11
    1618:	cf 92       	push	r12
    161a:	df 92       	push	r13
    161c:	ef 92       	push	r14
    161e:	ff 92       	push	r15
    1620:	0f 93       	push	r16
    1622:	1f 93       	push	r17
    1624:	cf 93       	push	r28
    1626:	df 93       	push	r29
    1628:	7c 01       	movw	r14, r24
    162a:	c0 e0       	ldi	r28, 0x00	; 0
    162c:	d0 e0       	ldi	r29, 0x00	; 0
    162e:	00 e0       	ldi	r16, 0x00	; 0
    1630:	10 e0       	ldi	r17, 0x00	; 0
    1632:	be 01       	movw	r22, r28
    1634:	c7 01       	movw	r24, r14
    1636:	f7 da       	rcall	.-2578   	; 0xc26 <rb16_get_nth>
    1638:	08 0f       	add	r16, r24
    163a:	19 1f       	adc	r17, r25
    163c:	21 96       	adiw	r28, 0x01	; 1
    163e:	ca 30       	cpi	r28, 0x0A	; 10
    1640:	d1 05       	cpc	r29, r1
    1642:	b9 f7       	brne	.-18     	; 0x1632 <servo_pid+0x22>
    1644:	60 e0       	ldi	r22, 0x00	; 0
    1646:	70 e0       	ldi	r23, 0x00	; 0
    1648:	c7 01       	movw	r24, r14
    164a:	ed da       	rcall	.-2598   	; 0xc26 <rb16_get_nth>
    164c:	ec 01       	movw	r28, r24
    164e:	60 91 19 20 	lds	r22, 0x2019	; 0x802019 <rate>
    1652:	c7 01       	movw	r24, r14
    1654:	47 dd       	rcall	.-1394   	; 0x10e4 <diff>
    1656:	6b 01       	movw	r12, r22
    1658:	7c 01       	movw	r14, r24
    165a:	be 01       	movw	r22, r28
    165c:	dd 0f       	add	r29, r29
    165e:	88 0b       	sbc	r24, r24
    1660:	99 0b       	sbc	r25, r25
    1662:	0e 94 d4 16 	call	0x2da8	; 0x2da8 <__floatsisf>
    1666:	20 e0       	ldi	r18, 0x00	; 0
    1668:	30 e0       	ldi	r19, 0x00	; 0
    166a:	a9 01       	movw	r20, r18
    166c:	0e 94 c4 17 	call	0x2f88	; 0x2f88 <__mulsf3>
    1670:	20 e0       	ldi	r18, 0x00	; 0
    1672:	30 e0       	ldi	r19, 0x00	; 0
    1674:	48 ec       	ldi	r20, 0xC8	; 200
    1676:	52 e4       	ldi	r21, 0x42	; 66
    1678:	0e 94 ff 15 	call	0x2bfe	; 0x2bfe <__divsf3>
    167c:	4b 01       	movw	r8, r22
    167e:	5c 01       	movw	r10, r24
    1680:	b8 01       	movw	r22, r16
    1682:	11 0f       	add	r17, r17
    1684:	88 0b       	sbc	r24, r24
    1686:	99 0b       	sbc	r25, r25
    1688:	0e 94 d4 16 	call	0x2da8	; 0x2da8 <__floatsisf>
    168c:	20 e0       	ldi	r18, 0x00	; 0
    168e:	30 e0       	ldi	r19, 0x00	; 0
    1690:	a9 01       	movw	r20, r18
    1692:	0e 94 c4 17 	call	0x2f88	; 0x2f88 <__mulsf3>
    1696:	20 e0       	ldi	r18, 0x00	; 0
    1698:	30 e0       	ldi	r19, 0x00	; 0
    169a:	48 ec       	ldi	r20, 0xC8	; 200
    169c:	52 e4       	ldi	r21, 0x42	; 66
    169e:	0e 94 ff 15 	call	0x2bfe	; 0x2bfe <__divsf3>
    16a2:	9b 01       	movw	r18, r22
    16a4:	ac 01       	movw	r20, r24
    16a6:	c5 01       	movw	r24, r10
    16a8:	b4 01       	movw	r22, r8
    16aa:	0e 94 97 15 	call	0x2b2e	; 0x2b2e <__addsf3>
    16ae:	4b 01       	movw	r8, r22
    16b0:	5c 01       	movw	r10, r24
    16b2:	20 e0       	ldi	r18, 0x00	; 0
    16b4:	30 e0       	ldi	r19, 0x00	; 0
    16b6:	a9 01       	movw	r20, r18
    16b8:	c7 01       	movw	r24, r14
    16ba:	b6 01       	movw	r22, r12
    16bc:	0e 94 c4 17 	call	0x2f88	; 0x2f88 <__mulsf3>
    16c0:	9b 01       	movw	r18, r22
    16c2:	ac 01       	movw	r20, r24
    16c4:	c5 01       	movw	r24, r10
    16c6:	b4 01       	movw	r22, r8
    16c8:	0e 94 97 15 	call	0x2b2e	; 0x2b2e <__addsf3>
    16cc:	20 e0       	ldi	r18, 0x00	; 0
    16ce:	30 e8       	ldi	r19, 0x80	; 128
    16d0:	4b eb       	ldi	r20, 0xBB	; 187
    16d2:	54 e4       	ldi	r21, 0x44	; 68
    16d4:	0e 94 97 15 	call	0x2b2e	; 0x2b2e <__addsf3>
    16d8:	0e 94 a6 16 	call	0x2d4c	; 0x2d4c <__fixunssfsi>
    16dc:	60 93 1b 20 	sts	0x201B, r22	; 0x80201b <servo_pulse>
    16e0:	70 93 1c 20 	sts	0x201C, r23	; 0x80201c <servo_pulse+0x1>
    16e4:	80 e0       	ldi	r24, 0x00	; 0
    16e6:	90 e0       	ldi	r25, 0x00	; 0
    16e8:	0e 94 d2 16 	call	0x2da4	; 0x2da4 <__floatunsisf>
    16ec:	20 e0       	ldi	r18, 0x00	; 0
    16ee:	30 e0       	ldi	r19, 0x00	; 0
    16f0:	4a e7       	ldi	r20, 0x7A	; 122
    16f2:	54 e4       	ldi	r21, 0x44	; 68
    16f4:	0e 94 ff 15 	call	0x2bfe	; 0x2bfe <__divsf3>
    16f8:	20 e0       	ldi	r18, 0x00	; 0
    16fa:	30 e0       	ldi	r19, 0x00	; 0
    16fc:	4a ef       	ldi	r20, 0xFA	; 250
    16fe:	53 e4       	ldi	r21, 0x43	; 67
    1700:	0e 94 c4 17 	call	0x2f88	; 0x2f88 <__mulsf3>
    1704:	0e 94 a6 16 	call	0x2d4c	; 0x2d4c <__fixunssfsi>
    1708:	60 93 28 09 	sts	0x0928, r22	; 0x800928 <__TEXT_REGION_LENGTH__+0x700928>
    170c:	70 93 29 09 	sts	0x0929, r23	; 0x800929 <__TEXT_REGION_LENGTH__+0x700929>
    1710:	df 91       	pop	r29
    1712:	cf 91       	pop	r28
    1714:	1f 91       	pop	r17
    1716:	0f 91       	pop	r16
    1718:	ff 90       	pop	r15
    171a:	ef 90       	pop	r14
    171c:	df 90       	pop	r13
    171e:	cf 90       	pop	r12
    1720:	bf 90       	pop	r11
    1722:	af 90       	pop	r10
    1724:	9f 90       	pop	r9
    1726:	8f 90       	pop	r8
    1728:	08 95       	ret

0000172a <clock_init>:
    172a:	61 e0       	ldi	r22, 0x01	; 1
    172c:	85 e0       	ldi	r24, 0x05	; 5
    172e:	6d db       	rcall	.-2342   	; 0xe0a <sysclk_enable_module>
    1730:	e0 e0       	ldi	r30, 0x00	; 0
    1732:	fa e0       	ldi	r31, 0x0A	; 10
    1734:	87 e0       	ldi	r24, 0x07	; 7
    1736:	80 83       	st	Z, r24
    1738:	81 e1       	ldi	r24, 0x11	; 17
    173a:	9a e7       	ldi	r25, 0x7A	; 122
    173c:	86 a3       	std	Z+38, r24	; 0x26
    173e:	97 a3       	std	Z+39, r25	; 0x27
    1740:	81 e0       	ldi	r24, 0x01	; 1
    1742:	86 83       	std	Z+6, r24	; 0x06
    1744:	08 95       	ret

00001746 <cali_alt>:
    1746:	80 91 e0 20 	lds	r24, 0x20E0	; 0x8020e0 <press>
    174a:	90 91 e1 20 	lds	r25, 0x20E1	; 0x8020e1 <press+0x1>
    174e:	a0 91 e2 20 	lds	r26, 0x20E2	; 0x8020e2 <press+0x2>
    1752:	b0 91 e3 20 	lds	r27, 0x20E3	; 0x8020e3 <press+0x3>
    1756:	80 93 2d 20 	sts	0x202D, r24	; 0x80202d <ground_p>
    175a:	90 93 2e 20 	sts	0x202E, r25	; 0x80202e <ground_p+0x1>
    175e:	a0 93 2f 20 	sts	0x202F, r26	; 0x80202f <ground_p+0x2>
    1762:	b0 93 30 20 	sts	0x2030, r27	; 0x802030 <ground_p+0x3>
    1766:	80 91 d8 20 	lds	r24, 0x20D8	; 0x8020d8 <alt>
    176a:	90 91 d9 20 	lds	r25, 0x20D9	; 0x8020d9 <alt+0x1>
    176e:	a0 91 da 20 	lds	r26, 0x20DA	; 0x8020da <alt+0x2>
    1772:	b0 91 db 20 	lds	r27, 0x20DB	; 0x8020db <alt+0x3>
    1776:	80 93 fb 20 	sts	0x20FB, r24	; 0x8020fb <ground_a>
    177a:	90 93 fc 20 	sts	0x20FC, r25	; 0x8020fc <ground_a+0x1>
    177e:	a0 93 fd 20 	sts	0x20FD, r26	; 0x8020fd <ground_a+0x2>
    1782:	b0 93 fe 20 	sts	0x20FE, r27	; 0x8020fe <ground_a+0x3>
    1786:	83 e3       	ldi	r24, 0x33	; 51
    1788:	93 e1       	ldi	r25, 0x13	; 19
    178a:	a0 e9       	ldi	r26, 0x90	; 144
    178c:	b3 e4       	ldi	r27, 0x43	; 67
    178e:	80 93 29 20 	sts	0x2029, r24	; 0x802029 <ground_t>
    1792:	90 93 2a 20 	sts	0x202A, r25	; 0x80202a <ground_t+0x1>
    1796:	a0 93 2b 20 	sts	0x202B, r26	; 0x80202b <ground_t+0x2>
    179a:	b0 93 2c 20 	sts	0x202C, r27	; 0x80202c <ground_t+0x3>
    179e:	08 95       	ret

000017a0 <send_gps>:
    17a0:	8f 92       	push	r8
    17a2:	9f 92       	push	r9
    17a4:	af 92       	push	r10
    17a6:	bf 92       	push	r11
    17a8:	cf 92       	push	r12
    17aa:	df 92       	push	r13
    17ac:	ef 92       	push	r14
    17ae:	ff 92       	push	r15
    17b0:	0f 93       	push	r16
    17b2:	1f 93       	push	r17
    17b4:	cf 93       	push	r28
    17b6:	df 93       	push	r29
    17b8:	cd b7       	in	r28, 0x3d	; 61
    17ba:	de b7       	in	r29, 0x3e	; 62
    17bc:	c6 54       	subi	r28, 0x46	; 70
    17be:	d1 09       	sbc	r29, r1
    17c0:	cd bf       	out	0x3d, r28	; 61
    17c2:	de bf       	out	0x3e, r29	; 62
    17c4:	60 91 c4 20 	lds	r22, 0x20C4	; 0x8020c4 <gps_long>
    17c8:	70 91 c5 20 	lds	r23, 0x20C5	; 0x8020c5 <gps_long+0x1>
    17cc:	80 91 c6 20 	lds	r24, 0x20C6	; 0x8020c6 <gps_long+0x2>
    17d0:	90 91 c7 20 	lds	r25, 0x20C7	; 0x8020c7 <gps_long+0x3>
    17d4:	0e 94 a1 16 	call	0x2d42	; 0x2d42 <__fixsfsi>
    17d8:	16 2f       	mov	r17, r22
    17da:	07 2f       	mov	r16, r23
    17dc:	c0 90 c8 20 	lds	r12, 0x20C8	; 0x8020c8 <gps_lat>
    17e0:	d0 90 c9 20 	lds	r13, 0x20C9	; 0x8020c9 <gps_lat+0x1>
    17e4:	e0 90 ca 20 	lds	r14, 0x20CA	; 0x8020ca <gps_lat+0x2>
    17e8:	f0 90 cb 20 	lds	r15, 0x20CB	; 0x8020cb <gps_lat+0x3>
    17ec:	a6 2f       	mov	r26, r22
    17ee:	b7 2f       	mov	r27, r23
    17f0:	bb 23       	and	r27, r27
    17f2:	1c f4       	brge	.+6      	; 0x17fa <send_gps+0x5a>
    17f4:	b1 95       	neg	r27
    17f6:	a1 95       	neg	r26
    17f8:	b1 09       	sbc	r27, r1
    17fa:	20 e4       	ldi	r18, 0x40	; 64
    17fc:	32 e4       	ldi	r19, 0x42	; 66
    17fe:	4f e0       	ldi	r20, 0x0F	; 15
    1800:	50 e0       	ldi	r21, 0x00	; 0
    1802:	0e 94 de 19 	call	0x33bc	; 0x33bc <__mulshisi3>
    1806:	0f 2e       	mov	r0, r31
    1808:	f0 e4       	ldi	r31, 0x40	; 64
    180a:	8f 2e       	mov	r8, r31
    180c:	f2 e4       	ldi	r31, 0x42	; 66
    180e:	9f 2e       	mov	r9, r31
    1810:	ff e0       	ldi	r31, 0x0F	; 15
    1812:	af 2e       	mov	r10, r31
    1814:	b1 2c       	mov	r11, r1
    1816:	f0 2d       	mov	r31, r0
    1818:	0e 94 b8 19 	call	0x3370	; 0x3370 <__divmodsi4>
    181c:	9f 93       	push	r25
    181e:	8f 93       	push	r24
    1820:	7f 93       	push	r23
    1822:	6f 93       	push	r22
    1824:	0f 93       	push	r16
    1826:	1f 93       	push	r17
    1828:	20 e0       	ldi	r18, 0x00	; 0
    182a:	34 e2       	ldi	r19, 0x24	; 36
    182c:	44 e7       	ldi	r20, 0x74	; 116
    182e:	59 e4       	ldi	r21, 0x49	; 73
    1830:	c7 01       	movw	r24, r14
    1832:	b6 01       	movw	r22, r12
    1834:	0e 94 c4 17 	call	0x2f88	; 0x2f88 <__mulsf3>
    1838:	0e 94 a1 16 	call	0x2d42	; 0x2d42 <__fixsfsi>
    183c:	a5 01       	movw	r20, r10
    183e:	94 01       	movw	r18, r8
    1840:	0e 94 b8 19 	call	0x3370	; 0x3370 <__divmodsi4>
    1844:	9f 93       	push	r25
    1846:	8f 93       	push	r24
    1848:	7f 93       	push	r23
    184a:	6f 93       	push	r22
    184c:	c7 01       	movw	r24, r14
    184e:	b6 01       	movw	r22, r12
    1850:	0e 94 a1 16 	call	0x2d42	; 0x2d42 <__fixsfsi>
    1854:	7f 93       	push	r23
    1856:	6f 93       	push	r22
    1858:	80 91 15 20 	lds	r24, 0x2015	; 0x802015 <gps_msg+0x1>
    185c:	8f 93       	push	r24
    185e:	80 91 14 20 	lds	r24, 0x2014	; 0x802014 <gps_msg>
    1862:	8f 93       	push	r24
    1864:	8e 01       	movw	r16, r28
    1866:	0f 5f       	subi	r16, 0xFF	; 255
    1868:	1f 4f       	sbci	r17, 0xFF	; 255
    186a:	1f 93       	push	r17
    186c:	0f 93       	push	r16
    186e:	0e 94 6e 1a 	call	0x34dc	; 0x34dc <sprintf>
    1872:	1f 93       	push	r17
    1874:	0f 93       	push	r16
    1876:	0e 94 5b 1a 	call	0x34b6	; 0x34b6 <printf>
    187a:	cd bf       	out	0x3d, r28	; 61
    187c:	de bf       	out	0x3e, r29	; 62
    187e:	ca 5b       	subi	r28, 0xBA	; 186
    1880:	df 4f       	sbci	r29, 0xFF	; 255
    1882:	cd bf       	out	0x3d, r28	; 61
    1884:	de bf       	out	0x3e, r29	; 62
    1886:	df 91       	pop	r29
    1888:	cf 91       	pop	r28
    188a:	1f 91       	pop	r17
    188c:	0f 91       	pop	r16
    188e:	ff 90       	pop	r15
    1890:	ef 90       	pop	r14
    1892:	df 90       	pop	r13
    1894:	cf 90       	pop	r12
    1896:	bf 90       	pop	r11
    1898:	af 90       	pop	r10
    189a:	9f 90       	pop	r9
    189c:	8f 90       	pop	r8
    189e:	08 95       	ret

000018a0 <packet>:
    18a0:	4f 92       	push	r4
    18a2:	5f 92       	push	r5
    18a4:	6f 92       	push	r6
    18a6:	7f 92       	push	r7
    18a8:	8f 92       	push	r8
    18aa:	9f 92       	push	r9
    18ac:	af 92       	push	r10
    18ae:	bf 92       	push	r11
    18b0:	cf 92       	push	r12
    18b2:	df 92       	push	r13
    18b4:	ef 92       	push	r14
    18b6:	ff 92       	push	r15
    18b8:	0f 93       	push	r16
    18ba:	1f 93       	push	r17
    18bc:	cf 93       	push	r28
    18be:	df 93       	push	r29
    18c0:	c0 91 e4 20 	lds	r28, 0x20E4	; 0x8020e4 <packets>
    18c4:	d0 91 e5 20 	lds	r29, 0x20E5	; 0x8020e5 <packets+0x1>
    18c8:	21 96       	adiw	r28, 0x01	; 1
    18ca:	c0 93 e4 20 	sts	0x20E4, r28	; 0x8020e4 <packets>
    18ce:	d0 93 e5 20 	sts	0x20E5, r29	; 0x8020e5 <packets+0x1>
    18d2:	60 91 c0 20 	lds	r22, 0x20C0	; 0x8020c0 <gps_alt>
    18d6:	70 91 c1 20 	lds	r23, 0x20C1	; 0x8020c1 <gps_alt+0x1>
    18da:	80 91 c2 20 	lds	r24, 0x20C2	; 0x8020c2 <gps_alt+0x2>
    18de:	90 91 c3 20 	lds	r25, 0x20C3	; 0x8020c3 <gps_alt+0x3>
    18e2:	0e 94 a1 16 	call	0x2d42	; 0x2d42 <__fixsfsi>
    18e6:	16 2f       	mov	r17, r22
    18e8:	07 2f       	mov	r16, r23
    18ea:	40 90 c4 20 	lds	r4, 0x20C4	; 0x8020c4 <gps_long>
    18ee:	50 90 c5 20 	lds	r5, 0x20C5	; 0x8020c5 <gps_long+0x1>
    18f2:	60 90 c6 20 	lds	r6, 0x20C6	; 0x8020c6 <gps_long+0x2>
    18f6:	70 90 c7 20 	lds	r7, 0x20C7	; 0x8020c7 <gps_long+0x3>
    18fa:	80 90 c8 20 	lds	r8, 0x20C8	; 0x8020c8 <gps_lat>
    18fe:	90 90 c9 20 	lds	r9, 0x20C9	; 0x8020c9 <gps_lat+0x1>
    1902:	a0 90 ca 20 	lds	r10, 0x20CA	; 0x8020ca <gps_lat+0x2>
    1906:	b0 90 cb 20 	lds	r11, 0x20CB	; 0x8020cb <gps_lat+0x3>
    190a:	60 91 cc 20 	lds	r22, 0x20CC	; 0x8020cc <gps_t>
    190e:	70 91 cd 20 	lds	r23, 0x20CD	; 0x8020cd <gps_t+0x1>
    1912:	80 91 ce 20 	lds	r24, 0x20CE	; 0x8020ce <gps_t+0x2>
    1916:	90 91 cf 20 	lds	r25, 0x20CF	; 0x8020cf <gps_t+0x3>
    191a:	0e 94 a1 16 	call	0x2d42	; 0x2d42 <__fixsfsi>
    191e:	6b 01       	movw	r12, r22
    1920:	7c 01       	movw	r14, r24
    1922:	60 91 ae 20 	lds	r22, 0x20AE	; 0x8020ae <__data_end>
    1926:	70 91 af 20 	lds	r23, 0x20AF	; 0x8020af <__data_end+0x1>
    192a:	80 91 b0 20 	lds	r24, 0x20B0	; 0x8020b0 <__data_end+0x2>
    192e:	90 91 b1 20 	lds	r25, 0x20B1	; 0x8020b1 <__data_end+0x3>
    1932:	0e 94 a1 16 	call	0x2d42	; 0x2d42 <__fixsfsi>
    1936:	7f 93       	push	r23
    1938:	6f 93       	push	r22
    193a:	80 91 01 21 	lds	r24, 0x2101	; 0x802101 <state>
    193e:	1f 92       	push	r1
    1940:	8f 93       	push	r24
    1942:	60 91 b2 20 	lds	r22, 0x20B2	; 0x8020b2 <rpm>
    1946:	70 91 b3 20 	lds	r23, 0x20B3	; 0x8020b3 <rpm+0x1>
    194a:	80 91 b4 20 	lds	r24, 0x20B4	; 0x8020b4 <rpm+0x2>
    194e:	90 91 b5 20 	lds	r25, 0x20B5	; 0x8020b5 <rpm+0x3>
    1952:	0e 94 a1 16 	call	0x2d42	; 0x2d42 <__fixsfsi>
    1956:	7f 93       	push	r23
    1958:	6f 93       	push	r22
    195a:	60 91 b6 20 	lds	r22, 0x20B6	; 0x8020b6 <roll>
    195e:	70 91 b7 20 	lds	r23, 0x20B7	; 0x8020b7 <roll+0x1>
    1962:	80 91 b8 20 	lds	r24, 0x20B8	; 0x8020b8 <roll+0x2>
    1966:	90 91 b9 20 	lds	r25, 0x20B9	; 0x8020b9 <roll+0x3>
    196a:	0e 94 a1 16 	call	0x2d42	; 0x2d42 <__fixsfsi>
    196e:	7f 93       	push	r23
    1970:	6f 93       	push	r22
    1972:	60 91 ba 20 	lds	r22, 0x20BA	; 0x8020ba <pitch>
    1976:	70 91 bb 20 	lds	r23, 0x20BB	; 0x8020bb <pitch+0x1>
    197a:	80 91 bc 20 	lds	r24, 0x20BC	; 0x8020bc <pitch+0x2>
    197e:	90 91 bd 20 	lds	r25, 0x20BD	; 0x8020bd <pitch+0x3>
    1982:	0e 94 a1 16 	call	0x2d42	; 0x2d42 <__fixsfsi>
    1986:	7f 93       	push	r23
    1988:	6f 93       	push	r22
    198a:	80 91 bf 20 	lds	r24, 0x20BF	; 0x8020bf <gps_sats+0x1>
    198e:	8f 93       	push	r24
    1990:	80 91 be 20 	lds	r24, 0x20BE	; 0x8020be <gps_sats>
    1994:	8f 93       	push	r24
    1996:	81 2f       	mov	r24, r17
    1998:	90 2f       	mov	r25, r16
    199a:	88 0f       	add	r24, r24
    199c:	99 1f       	adc	r25, r25
    199e:	9c 01       	movw	r18, r24
    19a0:	22 0f       	add	r18, r18
    19a2:	33 1f       	adc	r19, r19
    19a4:	22 0f       	add	r18, r18
    19a6:	33 1f       	adc	r19, r19
    19a8:	82 0f       	add	r24, r18
    19aa:	93 1f       	adc	r25, r19
    19ac:	6a e0       	ldi	r22, 0x0A	; 10
    19ae:	70 e0       	ldi	r23, 0x00	; 0
    19b0:	0e 94 83 19 	call	0x3306	; 0x3306 <__divmodhi4>
    19b4:	9f 93       	push	r25
    19b6:	8f 93       	push	r24
    19b8:	0f 93       	push	r16
    19ba:	1f 93       	push	r17
    19bc:	20 e0       	ldi	r18, 0x00	; 0
    19be:	34 e2       	ldi	r19, 0x24	; 36
    19c0:	44 e7       	ldi	r20, 0x74	; 116
    19c2:	59 e4       	ldi	r21, 0x49	; 73
    19c4:	c3 01       	movw	r24, r6
    19c6:	b2 01       	movw	r22, r4
    19c8:	0e 94 c4 17 	call	0x2f88	; 0x2f88 <__mulsf3>
    19cc:	0e 94 a1 16 	call	0x2d42	; 0x2d42 <__fixsfsi>
    19d0:	20 e4       	ldi	r18, 0x40	; 64
    19d2:	32 e4       	ldi	r19, 0x42	; 66
    19d4:	4f e0       	ldi	r20, 0x0F	; 15
    19d6:	50 e0       	ldi	r21, 0x00	; 0
    19d8:	0e 94 b8 19 	call	0x3370	; 0x3370 <__divmodsi4>
    19dc:	9b 01       	movw	r18, r22
    19de:	77 23       	and	r23, r23
    19e0:	24 f4       	brge	.+8      	; 0x19ea <packet+0x14a>
    19e2:	22 27       	eor	r18, r18
    19e4:	33 27       	eor	r19, r19
    19e6:	26 1b       	sub	r18, r22
    19e8:	37 0b       	sbc	r19, r23
    19ea:	c9 01       	movw	r24, r18
    19ec:	33 0f       	add	r19, r19
    19ee:	aa 0b       	sbc	r26, r26
    19f0:	bb 0b       	sbc	r27, r27
    19f2:	bf 93       	push	r27
    19f4:	af 93       	push	r26
    19f6:	9f 93       	push	r25
    19f8:	8f 93       	push	r24
    19fa:	c3 01       	movw	r24, r6
    19fc:	b2 01       	movw	r22, r4
    19fe:	0e 94 a1 16 	call	0x2d42	; 0x2d42 <__fixsfsi>
    1a02:	7f 93       	push	r23
    1a04:	6f 93       	push	r22
    1a06:	20 e0       	ldi	r18, 0x00	; 0
    1a08:	34 e2       	ldi	r19, 0x24	; 36
    1a0a:	44 e7       	ldi	r20, 0x74	; 116
    1a0c:	59 e4       	ldi	r21, 0x49	; 73
    1a0e:	c5 01       	movw	r24, r10
    1a10:	b4 01       	movw	r22, r8
    1a12:	0e 94 c4 17 	call	0x2f88	; 0x2f88 <__mulsf3>
    1a16:	0e 94 a1 16 	call	0x2d42	; 0x2d42 <__fixsfsi>
    1a1a:	20 e4       	ldi	r18, 0x40	; 64
    1a1c:	32 e4       	ldi	r19, 0x42	; 66
    1a1e:	4f e0       	ldi	r20, 0x0F	; 15
    1a20:	50 e0       	ldi	r21, 0x00	; 0
    1a22:	0e 94 b8 19 	call	0x3370	; 0x3370 <__divmodsi4>
    1a26:	9f 93       	push	r25
    1a28:	8f 93       	push	r24
    1a2a:	7f 93       	push	r23
    1a2c:	6f 93       	push	r22
    1a2e:	c5 01       	movw	r24, r10
    1a30:	b4 01       	movw	r22, r8
    1a32:	0e 94 a1 16 	call	0x2d42	; 0x2d42 <__fixsfsi>
    1a36:	7f 93       	push	r23
    1a38:	6f 93       	push	r22
    1a3a:	0f 2e       	mov	r0, r31
    1a3c:	f4 e6       	ldi	r31, 0x64	; 100
    1a3e:	8f 2e       	mov	r8, r31
    1a40:	91 2c       	mov	r9, r1
    1a42:	a1 2c       	mov	r10, r1
    1a44:	b1 2c       	mov	r11, r1
    1a46:	f0 2d       	mov	r31, r0
    1a48:	c7 01       	movw	r24, r14
    1a4a:	b6 01       	movw	r22, r12
    1a4c:	a5 01       	movw	r20, r10
    1a4e:	94 01       	movw	r18, r8
    1a50:	0e 94 b8 19 	call	0x3370	; 0x3370 <__divmodsi4>
    1a54:	7f 93       	push	r23
    1a56:	6f 93       	push	r22
    1a58:	c7 01       	movw	r24, r14
    1a5a:	b6 01       	movw	r22, r12
    1a5c:	20 e1       	ldi	r18, 0x10	; 16
    1a5e:	37 e2       	ldi	r19, 0x27	; 39
    1a60:	40 e0       	ldi	r20, 0x00	; 0
    1a62:	50 e0       	ldi	r21, 0x00	; 0
    1a64:	0e 94 b8 19 	call	0x3370	; 0x3370 <__divmodsi4>
    1a68:	12 2f       	mov	r17, r18
    1a6a:	03 2f       	mov	r16, r19
    1a6c:	a5 01       	movw	r20, r10
    1a6e:	94 01       	movw	r18, r8
    1a70:	0e 94 b8 19 	call	0x3370	; 0x3370 <__divmodsi4>
    1a74:	3f 93       	push	r19
    1a76:	2f 93       	push	r18
    1a78:	0f 93       	push	r16
    1a7a:	1f 93       	push	r17
    1a7c:	60 91 d4 20 	lds	r22, 0x20D4	; 0x8020d4 <volt>
    1a80:	70 91 d5 20 	lds	r23, 0x20D5	; 0x8020d5 <volt+0x1>
    1a84:	80 91 d6 20 	lds	r24, 0x20D6	; 0x8020d6 <volt+0x2>
    1a88:	90 91 d7 20 	lds	r25, 0x20D7	; 0x8020d7 <volt+0x3>
    1a8c:	0e 94 a1 16 	call	0x2d42	; 0x2d42 <__fixsfsi>
    1a90:	7f 93       	push	r23
    1a92:	6f 93       	push	r22
    1a94:	23 e3       	ldi	r18, 0x33	; 51
    1a96:	33 e9       	ldi	r19, 0x93	; 147
    1a98:	48 e8       	ldi	r20, 0x88	; 136
    1a9a:	53 e4       	ldi	r21, 0x43	; 67
    1a9c:	60 91 dc 20 	lds	r22, 0x20DC	; 0x8020dc <temp>
    1aa0:	70 91 dd 20 	lds	r23, 0x20DD	; 0x8020dd <temp+0x1>
    1aa4:	80 91 de 20 	lds	r24, 0x20DE	; 0x8020de <temp+0x2>
    1aa8:	90 91 df 20 	lds	r25, 0x20DF	; 0x8020df <temp+0x3>
    1aac:	0e 94 96 15 	call	0x2b2c	; 0x2b2c <__subsf3>
    1ab0:	0e 94 a1 16 	call	0x2d42	; 0x2d42 <__fixsfsi>
    1ab4:	7f 93       	push	r23
    1ab6:	6f 93       	push	r22
    1ab8:	60 91 e0 20 	lds	r22, 0x20E0	; 0x8020e0 <press>
    1abc:	70 91 e1 20 	lds	r23, 0x20E1	; 0x8020e1 <press+0x1>
    1ac0:	80 91 e2 20 	lds	r24, 0x20E2	; 0x8020e2 <press+0x2>
    1ac4:	90 91 e3 20 	lds	r25, 0x20E3	; 0x8020e3 <press+0x3>
    1ac8:	0e 94 a1 16 	call	0x2d42	; 0x2d42 <__fixsfsi>
    1acc:	9f 93       	push	r25
    1ace:	8f 93       	push	r24
    1ad0:	7f 93       	push	r23
    1ad2:	6f 93       	push	r22
    1ad4:	60 91 d8 20 	lds	r22, 0x20D8	; 0x8020d8 <alt>
    1ad8:	70 91 d9 20 	lds	r23, 0x20D9	; 0x8020d9 <alt+0x1>
    1adc:	80 91 da 20 	lds	r24, 0x20DA	; 0x8020da <alt+0x2>
    1ae0:	90 91 db 20 	lds	r25, 0x20DB	; 0x8020db <alt+0x3>
    1ae4:	0e 94 a1 16 	call	0x2d42	; 0x2d42 <__fixsfsi>
    1ae8:	7f 93       	push	r23
    1aea:	6f 93       	push	r22
    1aec:	df 93       	push	r29
    1aee:	cf 93       	push	r28
    1af0:	80 91 e9 20 	lds	r24, 0x20E9	; 0x8020e9 <timer+0x1>
    1af4:	8f 93       	push	r24
    1af6:	80 91 e8 20 	lds	r24, 0x20E8	; 0x8020e8 <timer>
    1afa:	8f 93       	push	r24
    1afc:	80 91 18 20 	lds	r24, 0x2018	; 0x802018 <format+0x1>
    1b00:	8f 93       	push	r24
    1b02:	80 91 17 20 	lds	r24, 0x2017	; 0x802017 <format>
    1b06:	8f 93       	push	r24
    1b08:	ce e1       	ldi	r28, 0x1E	; 30
    1b0a:	d1 e2       	ldi	r29, 0x21	; 33
    1b0c:	df 93       	push	r29
    1b0e:	cf 93       	push	r28
    1b10:	0e 94 6e 1a 	call	0x34dc	; 0x34dc <sprintf>
    1b14:	8d b7       	in	r24, 0x3d	; 61
    1b16:	9e b7       	in	r25, 0x3e	; 62
    1b18:	c4 96       	adiw	r24, 0x34	; 52
    1b1a:	8d bf       	out	0x3d, r24	; 61
    1b1c:	9e bf       	out	0x3e, r25	; 62
    1b1e:	df 93       	push	r29
    1b20:	cf 93       	push	r28
    1b22:	0e 94 5b 1a 	call	0x34b6	; 0x34b6 <printf>
    1b26:	0f 90       	pop	r0
    1b28:	0f 90       	pop	r0
    1b2a:	df 91       	pop	r29
    1b2c:	cf 91       	pop	r28
    1b2e:	1f 91       	pop	r17
    1b30:	0f 91       	pop	r16
    1b32:	ff 90       	pop	r15
    1b34:	ef 90       	pop	r14
    1b36:	df 90       	pop	r13
    1b38:	cf 90       	pop	r12
    1b3a:	bf 90       	pop	r11
    1b3c:	af 90       	pop	r10
    1b3e:	9f 90       	pop	r9
    1b40:	8f 90       	pop	r8
    1b42:	7f 90       	pop	r7
    1b44:	6f 90       	pop	r6
    1b46:	5f 90       	pop	r5
    1b48:	4f 90       	pop	r4
    1b4a:	08 95       	ret

00001b4c <eeprom_write_const>:
    1b4c:	5f 92       	push	r5
    1b4e:	6f 92       	push	r6
    1b50:	7f 92       	push	r7
    1b52:	8f 92       	push	r8
    1b54:	9f 92       	push	r9
    1b56:	af 92       	push	r10
    1b58:	bf 92       	push	r11
    1b5a:	cf 92       	push	r12
    1b5c:	df 92       	push	r13
    1b5e:	ef 92       	push	r14
    1b60:	ff 92       	push	r15
    1b62:	0f 93       	push	r16
    1b64:	1f 93       	push	r17
    1b66:	cf 93       	push	r28
    1b68:	df 93       	push	r29
    1b6a:	cd b7       	in	r28, 0x3d	; 61
    1b6c:	de b7       	in	r29, 0x3e	; 62
    1b6e:	a0 97       	sbiw	r28, 0x20	; 32
    1b70:	cd bf       	out	0x3d, r28	; 61
    1b72:	de bf       	out	0x3e, r29	; 62
    1b74:	60 91 2d 20 	lds	r22, 0x202D	; 0x80202d <ground_p>
    1b78:	70 91 2e 20 	lds	r23, 0x202E	; 0x80202e <ground_p+0x1>
    1b7c:	80 91 2f 20 	lds	r24, 0x202F	; 0x80202f <ground_p+0x2>
    1b80:	90 91 30 20 	lds	r25, 0x2030	; 0x802030 <ground_p+0x3>
    1b84:	0e 94 6c 16 	call	0x2cd8	; 0x2cd8 <__fixunssfdi>
    1b88:	12 2f       	mov	r17, r18
    1b8a:	63 2e       	mov	r6, r19
    1b8c:	74 2e       	mov	r7, r20
    1b8e:	85 2e       	mov	r8, r21
    1b90:	96 2e       	mov	r9, r22
    1b92:	a7 2e       	mov	r10, r23
    1b94:	b8 2e       	mov	r11, r24
    1b96:	c9 2e       	mov	r12, r25
    1b98:	60 91 29 20 	lds	r22, 0x2029	; 0x802029 <ground_t>
    1b9c:	70 91 2a 20 	lds	r23, 0x202A	; 0x80202a <ground_t+0x1>
    1ba0:	80 91 2b 20 	lds	r24, 0x202B	; 0x80202b <ground_t+0x2>
    1ba4:	90 91 2c 20 	lds	r25, 0x202C	; 0x80202c <ground_t+0x3>
    1ba8:	0e 94 6c 16 	call	0x2cd8	; 0x2cd8 <__fixunssfdi>
    1bac:	e2 2f       	mov	r30, r18
    1bae:	53 2e       	mov	r5, r19
    1bb0:	d4 2e       	mov	r13, r20
    1bb2:	e5 2e       	mov	r14, r21
    1bb4:	f6 2e       	mov	r15, r22
    1bb6:	b7 2f       	mov	r27, r23
    1bb8:	a8 2f       	mov	r26, r24
    1bba:	f9 2f       	mov	r31, r25
    1bbc:	19 83       	std	Y+1, r17	; 0x01
    1bbe:	21 2f       	mov	r18, r17
    1bc0:	36 2d       	mov	r19, r6
    1bc2:	47 2d       	mov	r20, r7
    1bc4:	58 2d       	mov	r21, r8
    1bc6:	69 2d       	mov	r22, r9
    1bc8:	7a 2d       	mov	r23, r10
    1bca:	8b 2d       	mov	r24, r11
    1bcc:	9c 2d       	mov	r25, r12
    1bce:	08 e0       	ldi	r16, 0x08	; 8
    1bd0:	0e 94 e6 19 	call	0x33cc	; 0x33cc <__lshrdi3>
    1bd4:	2a 83       	std	Y+2, r18	; 0x02
    1bd6:	21 2f       	mov	r18, r17
    1bd8:	36 2d       	mov	r19, r6
    1bda:	47 2d       	mov	r20, r7
    1bdc:	58 2d       	mov	r21, r8
    1bde:	69 2d       	mov	r22, r9
    1be0:	7a 2d       	mov	r23, r10
    1be2:	8b 2d       	mov	r24, r11
    1be4:	9c 2d       	mov	r25, r12
    1be6:	00 e1       	ldi	r16, 0x10	; 16
    1be8:	0e 94 e6 19 	call	0x33cc	; 0x33cc <__lshrdi3>
    1bec:	2b 83       	std	Y+3, r18	; 0x03
    1bee:	21 2f       	mov	r18, r17
    1bf0:	36 2d       	mov	r19, r6
    1bf2:	47 2d       	mov	r20, r7
    1bf4:	58 2d       	mov	r21, r8
    1bf6:	69 2d       	mov	r22, r9
    1bf8:	7a 2d       	mov	r23, r10
    1bfa:	8b 2d       	mov	r24, r11
    1bfc:	9c 2d       	mov	r25, r12
    1bfe:	08 e1       	ldi	r16, 0x18	; 24
    1c00:	0e 94 e6 19 	call	0x33cc	; 0x33cc <__lshrdi3>
    1c04:	2c 83       	std	Y+4, r18	; 0x04
    1c06:	21 2f       	mov	r18, r17
    1c08:	36 2d       	mov	r19, r6
    1c0a:	47 2d       	mov	r20, r7
    1c0c:	58 2d       	mov	r21, r8
    1c0e:	69 2d       	mov	r22, r9
    1c10:	7a 2d       	mov	r23, r10
    1c12:	8b 2d       	mov	r24, r11
    1c14:	9c 2d       	mov	r25, r12
    1c16:	00 e2       	ldi	r16, 0x20	; 32
    1c18:	0e 94 e6 19 	call	0x33cc	; 0x33cc <__lshrdi3>
    1c1c:	2d 83       	std	Y+5, r18	; 0x05
    1c1e:	21 2f       	mov	r18, r17
    1c20:	36 2d       	mov	r19, r6
    1c22:	47 2d       	mov	r20, r7
    1c24:	58 2d       	mov	r21, r8
    1c26:	69 2d       	mov	r22, r9
    1c28:	7a 2d       	mov	r23, r10
    1c2a:	8b 2d       	mov	r24, r11
    1c2c:	9c 2d       	mov	r25, r12
    1c2e:	08 e2       	ldi	r16, 0x28	; 40
    1c30:	0e 94 e6 19 	call	0x33cc	; 0x33cc <__lshrdi3>
    1c34:	2e 83       	std	Y+6, r18	; 0x06
    1c36:	21 2f       	mov	r18, r17
    1c38:	36 2d       	mov	r19, r6
    1c3a:	47 2d       	mov	r20, r7
    1c3c:	58 2d       	mov	r21, r8
    1c3e:	69 2d       	mov	r22, r9
    1c40:	7a 2d       	mov	r23, r10
    1c42:	8b 2d       	mov	r24, r11
    1c44:	9c 2d       	mov	r25, r12
    1c46:	00 e3       	ldi	r16, 0x30	; 48
    1c48:	0e 94 e6 19 	call	0x33cc	; 0x33cc <__lshrdi3>
    1c4c:	2f 83       	std	Y+7, r18	; 0x07
    1c4e:	21 2f       	mov	r18, r17
    1c50:	36 2d       	mov	r19, r6
    1c52:	47 2d       	mov	r20, r7
    1c54:	58 2d       	mov	r21, r8
    1c56:	69 2d       	mov	r22, r9
    1c58:	7a 2d       	mov	r23, r10
    1c5a:	8b 2d       	mov	r24, r11
    1c5c:	9c 2d       	mov	r25, r12
    1c5e:	08 e3       	ldi	r16, 0x38	; 56
    1c60:	0e 94 e6 19 	call	0x33cc	; 0x33cc <__lshrdi3>
    1c64:	28 87       	std	Y+8, r18	; 0x08
    1c66:	e9 87       	std	Y+9, r30	; 0x09
    1c68:	2e 2f       	mov	r18, r30
    1c6a:	35 2d       	mov	r19, r5
    1c6c:	4d 2d       	mov	r20, r13
    1c6e:	5e 2d       	mov	r21, r14
    1c70:	6f 2d       	mov	r22, r15
    1c72:	7b 2f       	mov	r23, r27
    1c74:	8a 2f       	mov	r24, r26
    1c76:	9f 2f       	mov	r25, r31
    1c78:	08 e0       	ldi	r16, 0x08	; 8
    1c7a:	0e 94 e6 19 	call	0x33cc	; 0x33cc <__lshrdi3>
    1c7e:	2a 87       	std	Y+10, r18	; 0x0a
    1c80:	2e 2f       	mov	r18, r30
    1c82:	35 2d       	mov	r19, r5
    1c84:	4d 2d       	mov	r20, r13
    1c86:	5e 2d       	mov	r21, r14
    1c88:	6f 2d       	mov	r22, r15
    1c8a:	7b 2f       	mov	r23, r27
    1c8c:	8a 2f       	mov	r24, r26
    1c8e:	9f 2f       	mov	r25, r31
    1c90:	00 e1       	ldi	r16, 0x10	; 16
    1c92:	0e 94 e6 19 	call	0x33cc	; 0x33cc <__lshrdi3>
    1c96:	2b 87       	std	Y+11, r18	; 0x0b
    1c98:	2e 2f       	mov	r18, r30
    1c9a:	35 2d       	mov	r19, r5
    1c9c:	4d 2d       	mov	r20, r13
    1c9e:	5e 2d       	mov	r21, r14
    1ca0:	6f 2d       	mov	r22, r15
    1ca2:	7b 2f       	mov	r23, r27
    1ca4:	8a 2f       	mov	r24, r26
    1ca6:	9f 2f       	mov	r25, r31
    1ca8:	08 e1       	ldi	r16, 0x18	; 24
    1caa:	0e 94 e6 19 	call	0x33cc	; 0x33cc <__lshrdi3>
    1cae:	2c 87       	std	Y+12, r18	; 0x0c
    1cb0:	2e 2f       	mov	r18, r30
    1cb2:	35 2d       	mov	r19, r5
    1cb4:	4d 2d       	mov	r20, r13
    1cb6:	5e 2d       	mov	r21, r14
    1cb8:	6f 2d       	mov	r22, r15
    1cba:	7b 2f       	mov	r23, r27
    1cbc:	8a 2f       	mov	r24, r26
    1cbe:	9f 2f       	mov	r25, r31
    1cc0:	00 e2       	ldi	r16, 0x20	; 32
    1cc2:	0e 94 e6 19 	call	0x33cc	; 0x33cc <__lshrdi3>
    1cc6:	2d 87       	std	Y+13, r18	; 0x0d
    1cc8:	2e 2f       	mov	r18, r30
    1cca:	35 2d       	mov	r19, r5
    1ccc:	4d 2d       	mov	r20, r13
    1cce:	5e 2d       	mov	r21, r14
    1cd0:	6f 2d       	mov	r22, r15
    1cd2:	7b 2f       	mov	r23, r27
    1cd4:	8a 2f       	mov	r24, r26
    1cd6:	9f 2f       	mov	r25, r31
    1cd8:	08 e2       	ldi	r16, 0x28	; 40
    1cda:	0e 94 e6 19 	call	0x33cc	; 0x33cc <__lshrdi3>
    1cde:	2e 87       	std	Y+14, r18	; 0x0e
    1ce0:	2e 2f       	mov	r18, r30
    1ce2:	35 2d       	mov	r19, r5
    1ce4:	4d 2d       	mov	r20, r13
    1ce6:	5e 2d       	mov	r21, r14
    1ce8:	6f 2d       	mov	r22, r15
    1cea:	7b 2f       	mov	r23, r27
    1cec:	8a 2f       	mov	r24, r26
    1cee:	9f 2f       	mov	r25, r31
    1cf0:	00 e3       	ldi	r16, 0x30	; 48
    1cf2:	0e 94 e6 19 	call	0x33cc	; 0x33cc <__lshrdi3>
    1cf6:	2f 87       	std	Y+15, r18	; 0x0f
    1cf8:	2e 2f       	mov	r18, r30
    1cfa:	35 2d       	mov	r19, r5
    1cfc:	4d 2d       	mov	r20, r13
    1cfe:	5e 2d       	mov	r21, r14
    1d00:	6f 2d       	mov	r22, r15
    1d02:	7b 2f       	mov	r23, r27
    1d04:	8a 2f       	mov	r24, r26
    1d06:	9f 2f       	mov	r25, r31
    1d08:	08 e3       	ldi	r16, 0x38	; 56
    1d0a:	0e 94 e6 19 	call	0x33cc	; 0x33cc <__lshrdi3>
    1d0e:	28 8b       	std	Y+16, r18	; 0x10
    1d10:	80 e1       	ldi	r24, 0x10	; 16
    1d12:	e1 e3       	ldi	r30, 0x31	; 49
    1d14:	f0 e2       	ldi	r31, 0x20	; 32
    1d16:	de 01       	movw	r26, r28
    1d18:	51 96       	adiw	r26, 0x11	; 17
    1d1a:	01 90       	ld	r0, Z+
    1d1c:	0d 92       	st	X+, r0
    1d1e:	8a 95       	dec	r24
    1d20:	e1 f7       	brne	.-8      	; 0x1d1a <eeprom_write_const+0x1ce>
    1d22:	83 e3       	ldi	r24, 0x33	; 51
    1d24:	80 93 ca 01 	sts	0x01CA, r24	; 0x8001ca <__TEXT_REGION_LENGTH__+0x7001ca>
    1d28:	fe 01       	movw	r30, r28
    1d2a:	71 96       	adiw	r30, 0x11	; 17
    1d2c:	ce 01       	movw	r24, r28
    1d2e:	01 96       	adiw	r24, 0x01	; 1
    1d30:	ae 01       	movw	r20, r28
    1d32:	4f 5d       	subi	r20, 0xDF	; 223
    1d34:	5f 4f       	sbci	r21, 0xFF	; 255
    1d36:	60 ec       	ldi	r22, 0xC0	; 192
    1d38:	71 e0       	ldi	r23, 0x01	; 1
    1d3a:	21 91       	ld	r18, Z+
    1d3c:	db 01       	movw	r26, r22
    1d3e:	2c 93       	st	X, r18
    1d40:	dc 01       	movw	r26, r24
    1d42:	2d 91       	ld	r18, X+
    1d44:	cd 01       	movw	r24, r26
    1d46:	db 01       	movw	r26, r22
    1d48:	14 96       	adiw	r26, 0x04	; 4
    1d4a:	2c 93       	st	X, r18
    1d4c:	e4 17       	cp	r30, r20
    1d4e:	f5 07       	cpc	r31, r21
    1d50:	a1 f7       	brne	.-24     	; 0x1d3a <eeprom_write_const+0x1ee>
    1d52:	e0 ec       	ldi	r30, 0xC0	; 192
    1d54:	f1 e0       	ldi	r31, 0x01	; 1
    1d56:	85 e3       	ldi	r24, 0x35	; 53
    1d58:	82 87       	std	Z+10, r24	; 0x0a
    1d5a:	10 82       	st	Z, r1
    1d5c:	80 e1       	ldi	r24, 0x10	; 16
    1d5e:	81 83       	std	Z+1, r24	; 0x01
    1d60:	88 ed       	ldi	r24, 0xD8	; 216
    1d62:	84 bf       	out	0x34, r24	; 52
    1d64:	81 e0       	ldi	r24, 0x01	; 1
    1d66:	83 87       	std	Z+11, r24	; 0x0b
    1d68:	87 85       	ldd	r24, Z+15	; 0x0f
    1d6a:	88 23       	and	r24, r24
    1d6c:	ec f3       	brlt	.-6      	; 0x1d68 <eeprom_write_const+0x21c>
    1d6e:	a0 96       	adiw	r28, 0x20	; 32
    1d70:	cd bf       	out	0x3d, r28	; 61
    1d72:	de bf       	out	0x3e, r29	; 62
    1d74:	df 91       	pop	r29
    1d76:	cf 91       	pop	r28
    1d78:	1f 91       	pop	r17
    1d7a:	0f 91       	pop	r16
    1d7c:	ff 90       	pop	r15
    1d7e:	ef 90       	pop	r14
    1d80:	df 90       	pop	r13
    1d82:	cf 90       	pop	r12
    1d84:	bf 90       	pop	r11
    1d86:	af 90       	pop	r10
    1d88:	9f 90       	pop	r9
    1d8a:	8f 90       	pop	r8
    1d8c:	7f 90       	pop	r7
    1d8e:	6f 90       	pop	r6
    1d90:	5f 90       	pop	r5
    1d92:	08 95       	ret

00001d94 <eeprom_write>:
    1d94:	cf 93       	push	r28
    1d96:	df 93       	push	r29
    1d98:	cd b7       	in	r28, 0x3d	; 61
    1d9a:	de b7       	in	r29, 0x3e	; 62
    1d9c:	2c 97       	sbiw	r28, 0x0c	; 12
    1d9e:	cd bf       	out	0x3d, r28	; 61
    1da0:	de bf       	out	0x3e, r29	; 62
    1da2:	60 91 d8 20 	lds	r22, 0x20D8	; 0x8020d8 <alt>
    1da6:	70 91 d9 20 	lds	r23, 0x20D9	; 0x8020d9 <alt+0x1>
    1daa:	80 91 da 20 	lds	r24, 0x20DA	; 0x8020da <alt+0x2>
    1dae:	90 91 db 20 	lds	r25, 0x20DB	; 0x8020db <alt+0x3>
    1db2:	c7 d7       	rcall	.+3982   	; 0x2d42 <__fixsfsi>
    1db4:	79 83       	std	Y+1, r23	; 0x01
    1db6:	6a 83       	std	Y+2, r22	; 0x02
    1db8:	80 91 e4 20 	lds	r24, 0x20E4	; 0x8020e4 <packets>
    1dbc:	90 91 e5 20 	lds	r25, 0x20E5	; 0x8020e5 <packets+0x1>
    1dc0:	9b 83       	std	Y+3, r25	; 0x03
    1dc2:	8c 83       	std	Y+4, r24	; 0x04
    1dc4:	80 91 e8 20 	lds	r24, 0x20E8	; 0x8020e8 <timer>
    1dc8:	90 91 e9 20 	lds	r25, 0x20E9	; 0x8020e9 <timer+0x1>
    1dcc:	9d 83       	std	Y+5, r25	; 0x05
    1dce:	8e 83       	std	Y+6, r24	; 0x06
    1dd0:	86 e0       	ldi	r24, 0x06	; 6
    1dd2:	e1 e4       	ldi	r30, 0x41	; 65
    1dd4:	f0 e2       	ldi	r31, 0x20	; 32
    1dd6:	de 01       	movw	r26, r28
    1dd8:	17 96       	adiw	r26, 0x07	; 7
    1dda:	01 90       	ld	r0, Z+
    1ddc:	0d 92       	st	X+, r0
    1dde:	8a 95       	dec	r24
    1de0:	e1 f7       	brne	.-8      	; 0x1dda <eeprom_write+0x46>
    1de2:	83 e3       	ldi	r24, 0x33	; 51
    1de4:	80 93 ca 01 	sts	0x01CA, r24	; 0x8001ca <__TEXT_REGION_LENGTH__+0x7001ca>
    1de8:	fe 01       	movw	r30, r28
    1dea:	37 96       	adiw	r30, 0x07	; 7
    1dec:	ce 01       	movw	r24, r28
    1dee:	01 96       	adiw	r24, 0x01	; 1
    1df0:	ae 01       	movw	r20, r28
    1df2:	43 5f       	subi	r20, 0xF3	; 243
    1df4:	5f 4f       	sbci	r21, 0xFF	; 255
    1df6:	60 ec       	ldi	r22, 0xC0	; 192
    1df8:	71 e0       	ldi	r23, 0x01	; 1
    1dfa:	21 91       	ld	r18, Z+
    1dfc:	db 01       	movw	r26, r22
    1dfe:	2c 93       	st	X, r18
    1e00:	dc 01       	movw	r26, r24
    1e02:	2d 91       	ld	r18, X+
    1e04:	cd 01       	movw	r24, r26
    1e06:	db 01       	movw	r26, r22
    1e08:	14 96       	adiw	r26, 0x04	; 4
    1e0a:	2c 93       	st	X, r18
    1e0c:	e4 17       	cp	r30, r20
    1e0e:	f5 07       	cpc	r31, r21
    1e10:	a1 f7       	brne	.-24     	; 0x1dfa <eeprom_write+0x66>
    1e12:	e0 ec       	ldi	r30, 0xC0	; 192
    1e14:	f1 e0       	ldi	r31, 0x01	; 1
    1e16:	85 e3       	ldi	r24, 0x35	; 53
    1e18:	82 87       	std	Z+10, r24	; 0x0a
    1e1a:	10 82       	st	Z, r1
    1e1c:	80 e1       	ldi	r24, 0x10	; 16
    1e1e:	81 83       	std	Z+1, r24	; 0x01
    1e20:	88 ed       	ldi	r24, 0xD8	; 216
    1e22:	84 bf       	out	0x34, r24	; 52
    1e24:	81 e0       	ldi	r24, 0x01	; 1
    1e26:	83 87       	std	Z+11, r24	; 0x0b
    1e28:	87 85       	ldd	r24, Z+15	; 0x0f
    1e2a:	88 23       	and	r24, r24
    1e2c:	ec f3       	brlt	.-6      	; 0x1e28 <eeprom_write+0x94>
    1e2e:	2c 96       	adiw	r28, 0x0c	; 12
    1e30:	cd bf       	out	0x3d, r28	; 61
    1e32:	de bf       	out	0x3e, r29	; 62
    1e34:	df 91       	pop	r29
    1e36:	cf 91       	pop	r28
    1e38:	08 95       	ret

00001e3a <eeprom_read>:
    1e3a:	cf 93       	push	r28
    1e3c:	df 93       	push	r29
    1e3e:	c0 ec       	ldi	r28, 0xC0	; 192
    1e40:	d1 e0       	ldi	r29, 0x01	; 1
    1e42:	26 e0       	ldi	r18, 0x06	; 6
    1e44:	2a 87       	std	Y+10, r18	; 0x0a
    1e46:	88 83       	st	Y, r24
    1e48:	99 83       	std	Y+1, r25	; 0x01
    1e4a:	88 ed       	ldi	r24, 0xD8	; 216
    1e4c:	84 bf       	out	0x34, r24	; 52
    1e4e:	81 e0       	ldi	r24, 0x01	; 1
    1e50:	8b 87       	std	Y+11, r24	; 0x0b
    1e52:	66 ed       	ldi	r22, 0xD6	; 214
    1e54:	74 e1       	ldi	r23, 0x14	; 20
    1e56:	80 e0       	ldi	r24, 0x00	; 0
    1e58:	90 e0       	ldi	r25, 0x00	; 0
    1e5a:	0e 94 21 07 	call	0xe42	; 0xe42 <__portable_avr_delay_cycles>
    1e5e:	8c 81       	ldd	r24, Y+4	; 0x04
    1e60:	df 91       	pop	r29
    1e62:	cf 91       	pop	r28
    1e64:	08 95       	ret

00001e66 <system_init>:
    1e66:	0f 93       	push	r16
    1e68:	1f 93       	push	r17
    1e6a:	0e 94 d0 06 	call	0xda0	; 0xda0 <sysclk_init>
    1e6e:	6b ea       	ldi	r22, 0xAB	; 171
    1e70:	79 e2       	ldi	r23, 0x29	; 41
    1e72:	80 e0       	ldi	r24, 0x00	; 0
    1e74:	90 e0       	ldi	r25, 0x00	; 0
    1e76:	0e 94 21 07 	call	0xe42	; 0xe42 <__portable_avr_delay_cycles>
    1e7a:	78 94       	sei
    1e7c:	8c eb       	ldi	r24, 0xBC	; 188
    1e7e:	80 93 40 06 	sts	0x0640, r24	; 0x800640 <__TEXT_REGION_LENGTH__+0x700640>
    1e82:	87 e0       	ldi	r24, 0x07	; 7
    1e84:	80 93 a2 00 	sts	0x00A2, r24	; 0x8000a2 <__TEXT_REGION_LENGTH__+0x7000a2>
    1e88:	87 e0       	ldi	r24, 0x07	; 7
    1e8a:	90 e1       	ldi	r25, 0x10	; 16
    1e8c:	d6 df       	rcall	.-84     	; 0x1e3a <eeprom_read>
    1e8e:	0e 94 84 05 	call	0xb08	; 0xb08 <data_terminal_init>
    1e92:	08 d8       	rcall	.-4080   	; 0xea4 <gps_init>
    1e94:	6b ea       	ldi	r22, 0xAB	; 171
    1e96:	70 eb       	ldi	r23, 0xB0	; 176
    1e98:	88 e2       	ldi	r24, 0x28	; 40
    1e9a:	90 e0       	ldi	r25, 0x00	; 0
    1e9c:	0e 94 21 07 	call	0xe42	; 0xe42 <__portable_avr_delay_cycles>
    1ea0:	6b ea       	ldi	r22, 0xAB	; 171
    1ea2:	79 e2       	ldi	r23, 0x29	; 41
    1ea4:	80 e0       	ldi	r24, 0x00	; 0
    1ea6:	90 e0       	ldi	r25, 0x00	; 0
    1ea8:	0e 94 21 07 	call	0xe42	; 0xe42 <__portable_avr_delay_cycles>
    1eac:	0e 94 56 05 	call	0xaac	; 0xaac <spi_init>
    1eb0:	6b ea       	ldi	r22, 0xAB	; 171
    1eb2:	79 e2       	ldi	r23, 0x29	; 41
    1eb4:	80 e0       	ldi	r24, 0x00	; 0
    1eb6:	90 e0       	ldi	r25, 0x00	; 0
    1eb8:	0e 94 21 07 	call	0xe42	; 0xe42 <__portable_avr_delay_cycles>
    1ebc:	0e 94 2c 07 	call	0xe58	; 0xe58 <pressure_init>
    1ec0:	6b ea       	ldi	r22, 0xAB	; 171
    1ec2:	79 e2       	ldi	r23, 0x29	; 41
    1ec4:	80 e0       	ldi	r24, 0x00	; 0
    1ec6:	90 e0       	ldi	r25, 0x00	; 0
    1ec8:	0e 94 21 07 	call	0xe42	; 0xe42 <__portable_avr_delay_cycles>
    1ecc:	80 e2       	ldi	r24, 0x20	; 32
    1ece:	80 93 a3 0a 	sts	0x0AA3, r24	; 0x800aa3 <__TEXT_REGION_LENGTH__+0x700aa3>
    1ed2:	2b dc       	rcall	.-1962   	; 0x172a <clock_init>
    1ed4:	85 db       	rcall	.-2294   	; 0x15e0 <release_servo_init>
    1ed6:	0e 94 96 04 	call	0x92c	; 0x92c <cam_init>
    1eda:	66 e5       	ldi	r22, 0x56	; 86
    1edc:	70 ed       	ldi	r23, 0xD0	; 208
    1ede:	80 e0       	ldi	r24, 0x00	; 0
    1ee0:	90 e0       	ldi	r25, 0x00	; 0
    1ee2:	0e 94 21 07 	call	0xe42	; 0xe42 <__portable_avr_delay_cycles>
    1ee6:	2c db       	rcall	.-2472   	; 0x1540 <state_check>
    1ee8:	0e 94 66 07 	call	0xecc	; 0xecc <get_pressure>
    1eec:	60 93 2d 20 	sts	0x202D, r22	; 0x80202d <ground_p>
    1ef0:	70 93 2e 20 	sts	0x202E, r23	; 0x80202e <ground_p+0x1>
    1ef4:	80 93 2f 20 	sts	0x202F, r24	; 0x80202f <ground_p+0x2>
    1ef8:	90 93 30 20 	sts	0x2030, r25	; 0x802030 <ground_p+0x3>
    1efc:	03 e3       	ldi	r16, 0x33	; 51
    1efe:	13 e1       	ldi	r17, 0x13	; 19
    1f00:	20 e9       	ldi	r18, 0x90	; 144
    1f02:	33 e4       	ldi	r19, 0x43	; 67
    1f04:	00 93 29 20 	sts	0x2029, r16	; 0x802029 <ground_t>
    1f08:	10 93 2a 20 	sts	0x202A, r17	; 0x80202a <ground_t+0x1>
    1f0c:	20 93 2b 20 	sts	0x202B, r18	; 0x80202b <ground_t+0x2>
    1f10:	30 93 2c 20 	sts	0x202C, r19	; 0x80202c <ground_t+0x3>
    1f14:	7e d8       	rcall	.-3844   	; 0x1012 <get_altitude>
    1f16:	60 93 fb 20 	sts	0x20FB, r22	; 0x8020fb <ground_a>
    1f1a:	70 93 fc 20 	sts	0x20FC, r23	; 0x8020fc <ground_a+0x1>
    1f1e:	80 93 fd 20 	sts	0x20FD, r24	; 0x8020fd <ground_a+0x2>
    1f22:	90 93 fe 20 	sts	0x20FE, r25	; 0x8020fe <ground_a+0x3>
    1f26:	12 de       	rcall	.-988    	; 0x1b4c <eeprom_write_const>
    1f28:	1f 91       	pop	r17
    1f2a:	0f 91       	pop	r16
    1f2c:	08 95       	ret

00001f2e <main>:
    1f2e:	cf 93       	push	r28
    1f30:	df 93       	push	r29
    1f32:	cd b7       	in	r28, 0x3d	; 61
    1f34:	de b7       	in	r29, 0x3e	; 62
    1f36:	c8 56       	subi	r28, 0x68	; 104
    1f38:	d1 09       	sbc	r29, r1
    1f3a:	cd bf       	out	0x3d, r28	; 61
    1f3c:	de bf       	out	0x3e, r29	; 62
    1f3e:	93 df       	rcall	.-218    	; 0x1e66 <system_init>
    1f40:	66 e5       	ldi	r22, 0x56	; 86
    1f42:	73 e2       	ldi	r23, 0x23	; 35
    1f44:	88 e0       	ldi	r24, 0x08	; 8
    1f46:	90 e0       	ldi	r25, 0x00	; 0
    1f48:	0e 94 21 07 	call	0xe42	; 0xe42 <__portable_avr_delay_cycles>
    1f4c:	14 e1       	ldi	r17, 0x14	; 20
    1f4e:	be 01       	movw	r22, r28
    1f50:	6f 5f       	subi	r22, 0xFF	; 255
    1f52:	7f 4f       	sbci	r23, 0xFF	; 255
    1f54:	fb 01       	movw	r30, r22
    1f56:	81 2f       	mov	r24, r17
    1f58:	11 92       	st	Z+, r1
    1f5a:	8a 95       	dec	r24
    1f5c:	e9 f7       	brne	.-6      	; 0x1f58 <main+0x2a>
    1f5e:	4a e0       	ldi	r20, 0x0A	; 10
    1f60:	50 e0       	ldi	r21, 0x00	; 0
    1f62:	ce 01       	movw	r24, r28
    1f64:	45 96       	adiw	r24, 0x15	; 21
    1f66:	0e 94 09 06 	call	0xc12	; 0xc12 <rb16_init>
    1f6a:	be 01       	movw	r22, r28
    1f6c:	63 5e       	subi	r22, 0xE3	; 227
    1f6e:	7f 4f       	sbci	r23, 0xFF	; 255
    1f70:	88 e2       	ldi	r24, 0x28	; 40
    1f72:	fb 01       	movw	r30, r22
    1f74:	11 92       	st	Z+, r1
    1f76:	8a 95       	dec	r24
    1f78:	e9 f7       	brne	.-6      	; 0x1f74 <main+0x46>
    1f7a:	4a e0       	ldi	r20, 0x0A	; 10
    1f7c:	50 e0       	ldi	r21, 0x00	; 0
    1f7e:	ce 01       	movw	r24, r28
    1f80:	8b 5b       	subi	r24, 0xBB	; 187
    1f82:	9f 4f       	sbci	r25, 0xFF	; 255
    1f84:	0e 94 91 06 	call	0xd22	; 0xd22 <rb32_init>
    1f88:	be 01       	movw	r22, r28
    1f8a:	63 5b       	subi	r22, 0xB3	; 179
    1f8c:	7f 4f       	sbci	r23, 0xFF	; 255
    1f8e:	fb 01       	movw	r30, r22
    1f90:	11 92       	st	Z+, r1
    1f92:	1a 95       	dec	r17
    1f94:	e9 f7       	brne	.-6      	; 0x1f90 <main+0x62>
    1f96:	4a e0       	ldi	r20, 0x0A	; 10
    1f98:	50 e0       	ldi	r21, 0x00	; 0
    1f9a:	ce 01       	movw	r24, r28
    1f9c:	8f 59       	subi	r24, 0x9F	; 159
    1f9e:	9f 4f       	sbci	r25, 0xFF	; 255
    1fa0:	0e 94 09 06 	call	0xc12	; 0xc12 <rb16_init>
    1fa4:	e1 2c       	mov	r14, r1
    1fa6:	f1 2c       	mov	r15, r1
    1fa8:	00 e6       	ldi	r16, 0x60	; 96
    1faa:	16 e0       	ldi	r17, 0x06	; 6
    1fac:	be 01       	movw	r22, r28
    1fae:	6b 5b       	subi	r22, 0xBB	; 187
    1fb0:	7f 4f       	sbci	r23, 0xFF	; 255
    1fb2:	ce 01       	movw	r24, r28
    1fb4:	45 96       	adiw	r24, 0x15	; 21
    1fb6:	44 da       	rcall	.-2936   	; 0x1440 <data_collect>
    1fb8:	c3 da       	rcall	.-2682   	; 0x1540 <state_check>
    1fba:	80 91 01 21 	lds	r24, 0x2101	; 0x802101 <state>
    1fbe:	81 30       	cpi	r24, 0x01	; 1
    1fc0:	41 f0       	breq	.+16     	; 0x1fd2 <main+0xa4>
    1fc2:	08 f4       	brcc	.+2      	; 0x1fc6 <main+0x98>
    1fc4:	5f c0       	rjmp	.+190    	; 0x2084 <main+0x156>
    1fc6:	82 30       	cpi	r24, 0x02	; 2
    1fc8:	d9 f0       	breq	.+54     	; 0x2000 <main+0xd2>
    1fca:	83 30       	cpi	r24, 0x03	; 3
    1fcc:	09 f4       	brne	.+2      	; 0x1fd0 <main+0xa2>
    1fce:	53 c0       	rjmp	.+166    	; 0x2076 <main+0x148>
    1fd0:	57 c0       	rjmp	.+174    	; 0x2080 <main+0x152>
    1fd2:	20 e0       	ldi	r18, 0x00	; 0
    1fd4:	30 e0       	ldi	r19, 0x00	; 0
    1fd6:	46 e1       	ldi	r20, 0x16	; 22
    1fd8:	54 e4       	ldi	r21, 0x44	; 68
    1fda:	60 91 d8 20 	lds	r22, 0x20D8	; 0x8020d8 <alt>
    1fde:	70 91 d9 20 	lds	r23, 0x20D9	; 0x8020d9 <alt+0x1>
    1fe2:	80 91 da 20 	lds	r24, 0x20DA	; 0x8020da <alt+0x2>
    1fe6:	90 91 db 20 	lds	r25, 0x20DB	; 0x8020db <alt+0x3>
    1fea:	c3 d7       	rcall	.+3974   	; 0x2f72 <__gesf2>
    1fec:	18 16       	cp	r1, r24
    1fee:	0c f0       	brlt	.+2      	; 0x1ff2 <main+0xc4>
    1ff0:	49 c0       	rjmp	.+146    	; 0x2084 <main+0x156>
    1ff2:	f1 10       	cpse	r15, r1
    1ff4:	47 c0       	rjmp	.+142    	; 0x2084 <main+0x156>
    1ff6:	0e 94 9c 04 	call	0x938	; 0x938 <cam_switch>
    1ffa:	ff 24       	eor	r15, r15
    1ffc:	f3 94       	inc	r15
    1ffe:	42 c0       	rjmp	.+132    	; 0x2084 <main+0x156>
    2000:	f1 10       	cpse	r15, r1
    2002:	04 c0       	rjmp	.+8      	; 0x200c <main+0xde>
    2004:	0e 94 9c 04 	call	0x938	; 0x938 <cam_switch>
    2008:	ff 24       	eor	r15, r15
    200a:	f3 94       	inc	r15
    200c:	20 e0       	ldi	r18, 0x00	; 0
    200e:	30 e0       	ldi	r19, 0x00	; 0
    2010:	41 ee       	ldi	r20, 0xE1	; 225
    2012:	53 e4       	ldi	r21, 0x43	; 67
    2014:	60 91 d8 20 	lds	r22, 0x20D8	; 0x8020d8 <alt>
    2018:	70 91 d9 20 	lds	r23, 0x20D9	; 0x8020d9 <alt+0x1>
    201c:	80 91 da 20 	lds	r24, 0x20DA	; 0x8020da <alt+0x2>
    2020:	90 91 db 20 	lds	r25, 0x20DB	; 0x8020db <alt+0x3>
    2024:	83 d5       	rcall	.+2822   	; 0x2b2c <__subsf3>
    2026:	8d d6       	rcall	.+3354   	; 0x2d42 <__fixsfsi>
    2028:	67 5f       	subi	r22, 0xF7	; 247
    202a:	7f 4f       	sbci	r23, 0xFF	; 255
    202c:	63 31       	cpi	r22, 0x13	; 19
    202e:	71 05       	cpc	r23, r1
    2030:	28 f4       	brcc	.+10     	; 0x203c <main+0x10e>
    2032:	0e 94 5c 07 	call	0xeb8	; 0xeb8 <release>
    2036:	0e 94 95 04 	call	0x92a	; 0x92a <hall_sensor_init>
    203a:	08 c0       	rjmp	.+16     	; 0x204c <main+0x11e>
    203c:	80 91 00 21 	lds	r24, 0x2100	; 0x802100 <released>
    2040:	88 23       	and	r24, r24
    2042:	21 f0       	breq	.+8      	; 0x204c <main+0x11e>
    2044:	ce 01       	movw	r24, r28
    2046:	8f 59       	subi	r24, 0x9F	; 159
    2048:	9f 4f       	sbci	r25, 0xFF	; 255
    204a:	e2 da       	rcall	.-2620   	; 0x1610 <servo_pid>
    204c:	20 e0       	ldi	r18, 0x00	; 0
    204e:	30 e0       	ldi	r19, 0x00	; 0
    2050:	48 ec       	ldi	r20, 0xC8	; 200
    2052:	53 e4       	ldi	r21, 0x43	; 67
    2054:	60 91 d8 20 	lds	r22, 0x20D8	; 0x8020d8 <alt>
    2058:	70 91 d9 20 	lds	r23, 0x20D9	; 0x8020d9 <alt+0x1>
    205c:	80 91 da 20 	lds	r24, 0x20DA	; 0x8020da <alt+0x2>
    2060:	90 91 db 20 	lds	r25, 0x20DB	; 0x8020db <alt+0x3>
    2064:	c8 d5       	rcall	.+2960   	; 0x2bf6 <__cmpsf2>
    2066:	88 23       	and	r24, r24
    2068:	6c f4       	brge	.+26     	; 0x2084 <main+0x156>
    206a:	f8 01       	movw	r30, r16
    206c:	90 81       	ld	r25, Z
    206e:	81 e0       	ldi	r24, 0x01	; 1
    2070:	89 27       	eor	r24, r25
    2072:	80 83       	st	Z, r24
    2074:	07 c0       	rjmp	.+14     	; 0x2084 <main+0x156>
    2076:	e1 10       	cpse	r14, r1
    2078:	05 c0       	rjmp	.+10     	; 0x2084 <main+0x156>
    207a:	ee 24       	eor	r14, r14
    207c:	e3 94       	inc	r14
    207e:	02 c0       	rjmp	.+4      	; 0x2084 <main+0x156>
    2080:	10 92 01 21 	sts	0x2101, r1	; 0x802101 <state>
    2084:	80 91 e6 20 	lds	r24, 0x20E6	; 0x8020e6 <data_packets>
    2088:	90 91 e7 20 	lds	r25, 0x20E7	; 0x8020e7 <data_packets+0x1>
    208c:	01 96       	adiw	r24, 0x01	; 1
    208e:	80 93 e6 20 	sts	0x20E6, r24	; 0x8020e6 <data_packets>
    2092:	90 93 e7 20 	sts	0x20E7, r25	; 0x8020e7 <data_packets+0x1>
    2096:	60 91 e8 20 	lds	r22, 0x20E8	; 0x8020e8 <timer>
    209a:	70 91 e9 20 	lds	r23, 0x20E9	; 0x8020e9 <timer+0x1>
    209e:	61 15       	cp	r22, r1
    20a0:	71 05       	cpc	r23, r1
    20a2:	09 f4       	brne	.+2      	; 0x20a6 <main+0x178>
    20a4:	83 cf       	rjmp	.-250    	; 0x1fac <main+0x7e>
    20a6:	0e 94 6f 19 	call	0x32de	; 0x32de <__udivmodhi4>
    20aa:	60 93 19 20 	sts	0x2019, r22	; 0x802019 <rate>
    20ae:	70 93 1a 20 	sts	0x201A, r23	; 0x80201a <rate+0x1>
    20b2:	7c cf       	rjmp	.-264    	; 0x1fac <main+0x7e>

000020b4 <reset>:
    20b4:	10 92 e0 20 	sts	0x20E0, r1	; 0x8020e0 <press>
    20b8:	10 92 e1 20 	sts	0x20E1, r1	; 0x8020e1 <press+0x1>
    20bc:	10 92 e2 20 	sts	0x20E2, r1	; 0x8020e2 <press+0x2>
    20c0:	10 92 e3 20 	sts	0x20E3, r1	; 0x8020e3 <press+0x3>
    20c4:	10 92 dc 20 	sts	0x20DC, r1	; 0x8020dc <temp>
    20c8:	10 92 dd 20 	sts	0x20DD, r1	; 0x8020dd <temp+0x1>
    20cc:	10 92 de 20 	sts	0x20DE, r1	; 0x8020de <temp+0x2>
    20d0:	10 92 df 20 	sts	0x20DF, r1	; 0x8020df <temp+0x3>
    20d4:	10 92 d8 20 	sts	0x20D8, r1	; 0x8020d8 <alt>
    20d8:	10 92 d9 20 	sts	0x20D9, r1	; 0x8020d9 <alt+0x1>
    20dc:	10 92 da 20 	sts	0x20DA, r1	; 0x8020da <alt+0x2>
    20e0:	10 92 db 20 	sts	0x20DB, r1	; 0x8020db <alt+0x3>
    20e4:	10 92 d4 20 	sts	0x20D4, r1	; 0x8020d4 <volt>
    20e8:	10 92 d5 20 	sts	0x20D5, r1	; 0x8020d5 <volt+0x1>
    20ec:	10 92 d6 20 	sts	0x20D6, r1	; 0x8020d6 <volt+0x2>
    20f0:	10 92 d7 20 	sts	0x20D7, r1	; 0x8020d7 <volt+0x3>
    20f4:	10 92 d0 20 	sts	0x20D0, r1	; 0x8020d0 <velocity>
    20f8:	10 92 d1 20 	sts	0x20D1, r1	; 0x8020d1 <velocity+0x1>
    20fc:	10 92 d2 20 	sts	0x20D2, r1	; 0x8020d2 <velocity+0x2>
    2100:	10 92 d3 20 	sts	0x20D3, r1	; 0x8020d3 <velocity+0x3>
    2104:	10 92 cc 20 	sts	0x20CC, r1	; 0x8020cc <gps_t>
    2108:	10 92 cd 20 	sts	0x20CD, r1	; 0x8020cd <gps_t+0x1>
    210c:	10 92 ce 20 	sts	0x20CE, r1	; 0x8020ce <gps_t+0x2>
    2110:	10 92 cf 20 	sts	0x20CF, r1	; 0x8020cf <gps_t+0x3>
    2114:	10 92 c8 20 	sts	0x20C8, r1	; 0x8020c8 <gps_lat>
    2118:	10 92 c9 20 	sts	0x20C9, r1	; 0x8020c9 <gps_lat+0x1>
    211c:	10 92 ca 20 	sts	0x20CA, r1	; 0x8020ca <gps_lat+0x2>
    2120:	10 92 cb 20 	sts	0x20CB, r1	; 0x8020cb <gps_lat+0x3>
    2124:	10 92 c4 20 	sts	0x20C4, r1	; 0x8020c4 <gps_long>
    2128:	10 92 c5 20 	sts	0x20C5, r1	; 0x8020c5 <gps_long+0x1>
    212c:	10 92 c6 20 	sts	0x20C6, r1	; 0x8020c6 <gps_long+0x2>
    2130:	10 92 c7 20 	sts	0x20C7, r1	; 0x8020c7 <gps_long+0x3>
    2134:	10 92 c0 20 	sts	0x20C0, r1	; 0x8020c0 <gps_alt>
    2138:	10 92 c1 20 	sts	0x20C1, r1	; 0x8020c1 <gps_alt+0x1>
    213c:	10 92 c2 20 	sts	0x20C2, r1	; 0x8020c2 <gps_alt+0x2>
    2140:	10 92 c3 20 	sts	0x20C3, r1	; 0x8020c3 <gps_alt+0x3>
    2144:	10 92 be 20 	sts	0x20BE, r1	; 0x8020be <gps_sats>
    2148:	10 92 bf 20 	sts	0x20BF, r1	; 0x8020bf <gps_sats+0x1>
    214c:	10 92 ba 20 	sts	0x20BA, r1	; 0x8020ba <pitch>
    2150:	10 92 bb 20 	sts	0x20BB, r1	; 0x8020bb <pitch+0x1>
    2154:	10 92 bc 20 	sts	0x20BC, r1	; 0x8020bc <pitch+0x2>
    2158:	10 92 bd 20 	sts	0x20BD, r1	; 0x8020bd <pitch+0x3>
    215c:	10 92 b6 20 	sts	0x20B6, r1	; 0x8020b6 <roll>
    2160:	10 92 b7 20 	sts	0x20B7, r1	; 0x8020b7 <roll+0x1>
    2164:	10 92 b8 20 	sts	0x20B8, r1	; 0x8020b8 <roll+0x2>
    2168:	10 92 b9 20 	sts	0x20B9, r1	; 0x8020b9 <roll+0x3>
    216c:	10 92 b2 20 	sts	0x20B2, r1	; 0x8020b2 <rpm>
    2170:	10 92 b3 20 	sts	0x20B3, r1	; 0x8020b3 <rpm+0x1>
    2174:	10 92 b4 20 	sts	0x20B4, r1	; 0x8020b4 <rpm+0x2>
    2178:	10 92 b5 20 	sts	0x20B5, r1	; 0x8020b5 <rpm+0x3>
    217c:	10 92 ae 20 	sts	0x20AE, r1	; 0x8020ae <__data_end>
    2180:	10 92 af 20 	sts	0x20AF, r1	; 0x8020af <__data_end+0x1>
    2184:	10 92 b0 20 	sts	0x20B0, r1	; 0x8020b0 <__data_end+0x2>
    2188:	10 92 b1 20 	sts	0x20B1, r1	; 0x8020b1 <__data_end+0x3>
    218c:	10 92 01 21 	sts	0x2101, r1	; 0x802101 <state>
    2190:	10 92 00 21 	sts	0x2100, r1	; 0x802100 <released>
    2194:	68 de       	rcall	.-816    	; 0x1e66 <system_init>
    2196:	81 e0       	ldi	r24, 0x01	; 1
    2198:	80 93 ff 20 	sts	0x20FF, r24	; 0x8020ff <reset_received>
    219c:	08 95       	ret

0000219e <xbee_command>:
    219e:	84 36       	cpi	r24, 0x64	; 100
    21a0:	91 f0       	breq	.+36     	; 0x21c6 <xbee_command+0x28>
    21a2:	28 f4       	brcc	.+10     	; 0x21ae <xbee_command+0x10>
    21a4:	81 36       	cpi	r24, 0x61	; 97
    21a6:	69 f0       	breq	.+26     	; 0x21c2 <xbee_command+0x24>
    21a8:	83 36       	cpi	r24, 0x63	; 99
    21aa:	49 f0       	breq	.+18     	; 0x21be <xbee_command+0x20>
    21ac:	08 95       	ret
    21ae:	85 36       	cpi	r24, 0x65	; 101
    21b0:	21 f0       	breq	.+8      	; 0x21ba <xbee_command+0x1c>
    21b2:	86 36       	cpi	r24, 0x66	; 102
    21b4:	49 f4       	brne	.+18     	; 0x21c8 <xbee_command+0x2a>
    21b6:	7e cf       	rjmp	.-260    	; 0x20b4 <reset>
    21b8:	08 95       	ret
    21ba:	c5 ca       	rjmp	.-2678   	; 0x1746 <cali_alt>
    21bc:	08 95       	ret
    21be:	c3 ca       	rjmp	.-2682   	; 0x1746 <cali_alt>
    21c0:	08 95       	ret
    21c2:	ee ca       	rjmp	.-2596   	; 0x17a0 <send_gps>
    21c4:	08 95       	ret
    21c6:	6c cb       	rjmp	.-2344   	; 0x18a0 <packet>
    21c8:	08 95       	ret

000021ca <__vector_47>:

ISR(TCE0_OVF_vect){
    21ca:	1f 92       	push	r1
    21cc:	0f 92       	push	r0
    21ce:	0f b6       	in	r0, 0x3f	; 63
    21d0:	0f 92       	push	r0
    21d2:	11 24       	eor	r1, r1
    21d4:	08 b6       	in	r0, 0x38	; 56
    21d6:	0f 92       	push	r0
    21d8:	18 be       	out	0x38, r1	; 56
    21da:	09 b6       	in	r0, 0x39	; 57
    21dc:	0f 92       	push	r0
    21de:	19 be       	out	0x39, r1	; 57
    21e0:	0a b6       	in	r0, 0x3a	; 58
    21e2:	0f 92       	push	r0
    21e4:	1a be       	out	0x3a, r1	; 58
    21e6:	0b b6       	in	r0, 0x3b	; 59
    21e8:	0f 92       	push	r0
    21ea:	1b be       	out	0x3b, r1	; 59
    21ec:	2f 92       	push	r2
    21ee:	3f 92       	push	r3
    21f0:	4f 92       	push	r4
    21f2:	5f 92       	push	r5
    21f4:	6f 92       	push	r6
    21f6:	7f 92       	push	r7
    21f8:	8f 92       	push	r8
    21fa:	9f 92       	push	r9
    21fc:	af 92       	push	r10
    21fe:	bf 92       	push	r11
    2200:	cf 92       	push	r12
    2202:	df 92       	push	r13
    2204:	ef 92       	push	r14
    2206:	ff 92       	push	r15
    2208:	0f 93       	push	r16
    220a:	1f 93       	push	r17
    220c:	2f 93       	push	r18
    220e:	3f 93       	push	r19
    2210:	4f 93       	push	r20
    2212:	5f 93       	push	r21
    2214:	6f 93       	push	r22
    2216:	7f 93       	push	r23
    2218:	8f 93       	push	r24
    221a:	9f 93       	push	r25
    221c:	af 93       	push	r26
    221e:	bf 93       	push	r27
    2220:	cf 93       	push	r28
    2222:	df 93       	push	r29
    2224:	ef 93       	push	r30
    2226:	ff 93       	push	r31
	timer++;
    2228:	00 91 e8 20 	lds	r16, 0x20E8	; 0x8020e8 <timer>
    222c:	10 91 e9 20 	lds	r17, 0x20E9	; 0x8020e9 <timer+0x1>
    2230:	0f 5f       	subi	r16, 0xFF	; 255
    2232:	1f 4f       	sbci	r17, 0xFF	; 255
    2234:	00 93 e8 20 	sts	0x20E8, r16	; 0x8020e8 <timer>
    2238:	10 93 e9 20 	sts	0x20E9, r17	; 0x8020e9 <timer+0x1>
	packets++;
    223c:	c0 91 e4 20 	lds	r28, 0x20E4	; 0x8020e4 <packets>
    2240:	d0 91 e5 20 	lds	r29, 0x20E5	; 0x8020e5 <packets+0x1>
    2244:	21 96       	adiw	r28, 0x01	; 1
    2246:	c0 93 e4 20 	sts	0x20E4, r28	; 0x8020e4 <packets>
    224a:	d0 93 e5 20 	sts	0x20E5, r29	; 0x8020e5 <packets+0x1>
	sprintf(str,format,timer,packets,
	(int16_t) (alt),						(int32_t) press,							(int16_t) (temp-273.15),				(int16_t)volt,
	(int16_t) (((int32_t)gps_t)/10000),		(int16_t) ((((int32_t)gps_t)%10000)/100),	(int16_t) (((int32_t)gps_t)%100),
	(int16_t) gps_lat,						((int32_t) (gps_lat*1000000))%1000000,		(int16_t) gps_long,						(int32_t)(abs(((int32_t)(gps_long*1000000))%1000000)),
	(int16_t) gps_alt,						((int16_t) (gps_alt)*10)%10,				gps_sats,
    224e:	60 91 c0 20 	lds	r22, 0x20C0	; 0x8020c0 <gps_alt>
    2252:	70 91 c1 20 	lds	r23, 0x20C1	; 0x8020c1 <gps_alt+0x1>
    2256:	80 91 c2 20 	lds	r24, 0x20C2	; 0x8020c2 <gps_alt+0x2>
    225a:	90 91 c3 20 	lds	r25, 0x20C3	; 0x8020c3 <gps_alt+0x3>
    225e:	71 d5       	rcall	.+2786   	; 0x2d42 <__fixsfsi>
    2260:	36 2e       	mov	r3, r22
    2262:	27 2e       	mov	r2, r23
	timer++;
	packets++;
	sprintf(str,format,timer,packets,
	(int16_t) (alt),						(int32_t) press,							(int16_t) (temp-273.15),				(int16_t)volt,
	(int16_t) (((int32_t)gps_t)/10000),		(int16_t) ((((int32_t)gps_t)%10000)/100),	(int16_t) (((int32_t)gps_t)%100),
	(int16_t) gps_lat,						((int32_t) (gps_lat*1000000))%1000000,		(int16_t) gps_long,						(int32_t)(abs(((int32_t)(gps_long*1000000))%1000000)),
    2264:	40 90 c4 20 	lds	r4, 0x20C4	; 0x8020c4 <gps_long>
    2268:	50 90 c5 20 	lds	r5, 0x20C5	; 0x8020c5 <gps_long+0x1>
    226c:	60 90 c6 20 	lds	r6, 0x20C6	; 0x8020c6 <gps_long+0x2>
    2270:	70 90 c7 20 	lds	r7, 0x20C7	; 0x8020c7 <gps_long+0x3>
    2274:	80 90 c8 20 	lds	r8, 0x20C8	; 0x8020c8 <gps_lat>
    2278:	90 90 c9 20 	lds	r9, 0x20C9	; 0x8020c9 <gps_lat+0x1>
    227c:	a0 90 ca 20 	lds	r10, 0x20CA	; 0x8020ca <gps_lat+0x2>
    2280:	b0 90 cb 20 	lds	r11, 0x20CB	; 0x8020cb <gps_lat+0x3>
ISR(TCE0_OVF_vect){
	timer++;
	packets++;
	sprintf(str,format,timer,packets,
	(int16_t) (alt),						(int32_t) press,							(int16_t) (temp-273.15),				(int16_t)volt,
	(int16_t) (((int32_t)gps_t)/10000),		(int16_t) ((((int32_t)gps_t)%10000)/100),	(int16_t) (((int32_t)gps_t)%100),
    2284:	60 91 cc 20 	lds	r22, 0x20CC	; 0x8020cc <gps_t>
    2288:	70 91 cd 20 	lds	r23, 0x20CD	; 0x8020cd <gps_t+0x1>
    228c:	80 91 ce 20 	lds	r24, 0x20CE	; 0x8020ce <gps_t+0x2>
    2290:	90 91 cf 20 	lds	r25, 0x20CF	; 0x8020cf <gps_t+0x3>
    2294:	56 d5       	rcall	.+2732   	; 0x2d42 <__fixsfsi>
    2296:	6b 01       	movw	r12, r22
    2298:	7c 01       	movw	r14, r24
}

ISR(TCE0_OVF_vect){
	timer++;
	packets++;
	sprintf(str,format,timer,packets,
    229a:	60 91 ae 20 	lds	r22, 0x20AE	; 0x8020ae <__data_end>
    229e:	70 91 af 20 	lds	r23, 0x20AF	; 0x8020af <__data_end+0x1>
    22a2:	80 91 b0 20 	lds	r24, 0x20B0	; 0x8020b0 <__data_end+0x2>
    22a6:	90 91 b1 20 	lds	r25, 0x20B1	; 0x8020b1 <__data_end+0x3>
    22aa:	4b d5       	rcall	.+2710   	; 0x2d42 <__fixsfsi>
    22ac:	7f 93       	push	r23
    22ae:	6f 93       	push	r22
    22b0:	80 91 01 21 	lds	r24, 0x2101	; 0x802101 <state>
    22b4:	1f 92       	push	r1
    22b6:	8f 93       	push	r24
    22b8:	60 91 b2 20 	lds	r22, 0x20B2	; 0x8020b2 <rpm>
    22bc:	70 91 b3 20 	lds	r23, 0x20B3	; 0x8020b3 <rpm+0x1>
    22c0:	80 91 b4 20 	lds	r24, 0x20B4	; 0x8020b4 <rpm+0x2>
    22c4:	90 91 b5 20 	lds	r25, 0x20B5	; 0x8020b5 <rpm+0x3>
    22c8:	3c d5       	rcall	.+2680   	; 0x2d42 <__fixsfsi>
    22ca:	7f 93       	push	r23
    22cc:	6f 93       	push	r22
    22ce:	60 91 b6 20 	lds	r22, 0x20B6	; 0x8020b6 <roll>
    22d2:	70 91 b7 20 	lds	r23, 0x20B7	; 0x8020b7 <roll+0x1>
    22d6:	80 91 b8 20 	lds	r24, 0x20B8	; 0x8020b8 <roll+0x2>
    22da:	90 91 b9 20 	lds	r25, 0x20B9	; 0x8020b9 <roll+0x3>
    22de:	31 d5       	rcall	.+2658   	; 0x2d42 <__fixsfsi>
    22e0:	7f 93       	push	r23
    22e2:	6f 93       	push	r22
    22e4:	60 91 ba 20 	lds	r22, 0x20BA	; 0x8020ba <pitch>
    22e8:	70 91 bb 20 	lds	r23, 0x20BB	; 0x8020bb <pitch+0x1>
    22ec:	80 91 bc 20 	lds	r24, 0x20BC	; 0x8020bc <pitch+0x2>
    22f0:	90 91 bd 20 	lds	r25, 0x20BD	; 0x8020bd <pitch+0x3>
    22f4:	26 d5       	rcall	.+2636   	; 0x2d42 <__fixsfsi>
    22f6:	7f 93       	push	r23
    22f8:	6f 93       	push	r22
    22fa:	80 91 bf 20 	lds	r24, 0x20BF	; 0x8020bf <gps_sats+0x1>
    22fe:	8f 93       	push	r24
    2300:	80 91 be 20 	lds	r24, 0x20BE	; 0x8020be <gps_sats>
    2304:	8f 93       	push	r24
    2306:	83 2d       	mov	r24, r3
    2308:	92 2d       	mov	r25, r2
    230a:	88 0f       	add	r24, r24
    230c:	99 1f       	adc	r25, r25
    230e:	9c 01       	movw	r18, r24
    2310:	22 0f       	add	r18, r18
    2312:	33 1f       	adc	r19, r19
    2314:	22 0f       	add	r18, r18
    2316:	33 1f       	adc	r19, r19
    2318:	82 0f       	add	r24, r18
    231a:	93 1f       	adc	r25, r19
    231c:	6a e0       	ldi	r22, 0x0A	; 10
    231e:	70 e0       	ldi	r23, 0x00	; 0
    2320:	f2 d7       	rcall	.+4068   	; 0x3306 <__divmodhi4>
    2322:	9f 93       	push	r25
    2324:	8f 93       	push	r24
    2326:	2f 92       	push	r2
    2328:	3f 92       	push	r3
    232a:	20 e0       	ldi	r18, 0x00	; 0
    232c:	34 e2       	ldi	r19, 0x24	; 36
    232e:	44 e7       	ldi	r20, 0x74	; 116
    2330:	59 e4       	ldi	r21, 0x49	; 73
    2332:	c3 01       	movw	r24, r6
    2334:	b2 01       	movw	r22, r4
    2336:	28 d6       	rcall	.+3152   	; 0x2f88 <__mulsf3>
    2338:	04 d5       	rcall	.+2568   	; 0x2d42 <__fixsfsi>
    233a:	20 e4       	ldi	r18, 0x40	; 64
    233c:	32 e4       	ldi	r19, 0x42	; 66
    233e:	4f e0       	ldi	r20, 0x0F	; 15
    2340:	50 e0       	ldi	r21, 0x00	; 0
    2342:	0e 94 b8 19 	call	0x3370	; 0x3370 <__divmodsi4>
    2346:	9b 01       	movw	r18, r22
    2348:	77 23       	and	r23, r23
    234a:	24 f4       	brge	.+8      	; 0x2354 <__vector_47+0x18a>
    234c:	22 27       	eor	r18, r18
    234e:	33 27       	eor	r19, r19
    2350:	26 1b       	sub	r18, r22
    2352:	37 0b       	sbc	r19, r23
    2354:	c9 01       	movw	r24, r18
    2356:	33 0f       	add	r19, r19
    2358:	aa 0b       	sbc	r26, r26
    235a:	bb 0b       	sbc	r27, r27
    235c:	bf 93       	push	r27
    235e:	af 93       	push	r26
    2360:	9f 93       	push	r25
    2362:	8f 93       	push	r24
    2364:	c3 01       	movw	r24, r6
    2366:	b2 01       	movw	r22, r4
    2368:	ec d4       	rcall	.+2520   	; 0x2d42 <__fixsfsi>
    236a:	7f 93       	push	r23
    236c:	6f 93       	push	r22
    236e:	20 e0       	ldi	r18, 0x00	; 0
    2370:	34 e2       	ldi	r19, 0x24	; 36
    2372:	44 e7       	ldi	r20, 0x74	; 116
    2374:	59 e4       	ldi	r21, 0x49	; 73
    2376:	c5 01       	movw	r24, r10
    2378:	b4 01       	movw	r22, r8
    237a:	06 d6       	rcall	.+3084   	; 0x2f88 <__mulsf3>
    237c:	e2 d4       	rcall	.+2500   	; 0x2d42 <__fixsfsi>
    237e:	20 e4       	ldi	r18, 0x40	; 64
    2380:	32 e4       	ldi	r19, 0x42	; 66
    2382:	4f e0       	ldi	r20, 0x0F	; 15
    2384:	50 e0       	ldi	r21, 0x00	; 0
    2386:	f4 d7       	rcall	.+4072   	; 0x3370 <__divmodsi4>
    2388:	9f 93       	push	r25
    238a:	8f 93       	push	r24
    238c:	7f 93       	push	r23
    238e:	6f 93       	push	r22
    2390:	c5 01       	movw	r24, r10
    2392:	b4 01       	movw	r22, r8
    2394:	d6 d4       	rcall	.+2476   	; 0x2d42 <__fixsfsi>
    2396:	7f 93       	push	r23
    2398:	6f 93       	push	r22
    239a:	0f 2e       	mov	r0, r31
    239c:	f4 e6       	ldi	r31, 0x64	; 100
    239e:	8f 2e       	mov	r8, r31
    23a0:	91 2c       	mov	r9, r1
    23a2:	a1 2c       	mov	r10, r1
    23a4:	b1 2c       	mov	r11, r1
    23a6:	f0 2d       	mov	r31, r0
    23a8:	c7 01       	movw	r24, r14
    23aa:	b6 01       	movw	r22, r12
    23ac:	a5 01       	movw	r20, r10
    23ae:	94 01       	movw	r18, r8
    23b0:	df d7       	rcall	.+4030   	; 0x3370 <__divmodsi4>
    23b2:	7f 93       	push	r23
    23b4:	6f 93       	push	r22
    23b6:	c7 01       	movw	r24, r14
    23b8:	b6 01       	movw	r22, r12
    23ba:	20 e1       	ldi	r18, 0x10	; 16
    23bc:	37 e2       	ldi	r19, 0x27	; 39
    23be:	40 e0       	ldi	r20, 0x00	; 0
    23c0:	50 e0       	ldi	r21, 0x00	; 0
    23c2:	d6 d7       	rcall	.+4012   	; 0x3370 <__divmodsi4>
    23c4:	f2 2e       	mov	r15, r18
    23c6:	e3 2e       	mov	r14, r19
    23c8:	a5 01       	movw	r20, r10
    23ca:	94 01       	movw	r18, r8
    23cc:	d1 d7       	rcall	.+4002   	; 0x3370 <__divmodsi4>
    23ce:	3f 93       	push	r19
    23d0:	2f 93       	push	r18
    23d2:	ef 92       	push	r14
    23d4:	ff 92       	push	r15
    23d6:	60 91 d4 20 	lds	r22, 0x20D4	; 0x8020d4 <volt>
    23da:	70 91 d5 20 	lds	r23, 0x20D5	; 0x8020d5 <volt+0x1>
    23de:	80 91 d6 20 	lds	r24, 0x20D6	; 0x8020d6 <volt+0x2>
    23e2:	90 91 d7 20 	lds	r25, 0x20D7	; 0x8020d7 <volt+0x3>
    23e6:	ad d4       	rcall	.+2394   	; 0x2d42 <__fixsfsi>
    23e8:	7f 93       	push	r23
    23ea:	6f 93       	push	r22
    23ec:	23 e3       	ldi	r18, 0x33	; 51
    23ee:	33 e9       	ldi	r19, 0x93	; 147
    23f0:	48 e8       	ldi	r20, 0x88	; 136
    23f2:	53 e4       	ldi	r21, 0x43	; 67
    23f4:	60 91 dc 20 	lds	r22, 0x20DC	; 0x8020dc <temp>
    23f8:	70 91 dd 20 	lds	r23, 0x20DD	; 0x8020dd <temp+0x1>
    23fc:	80 91 de 20 	lds	r24, 0x20DE	; 0x8020de <temp+0x2>
    2400:	90 91 df 20 	lds	r25, 0x20DF	; 0x8020df <temp+0x3>
    2404:	93 d3       	rcall	.+1830   	; 0x2b2c <__subsf3>
    2406:	9d d4       	rcall	.+2362   	; 0x2d42 <__fixsfsi>
    2408:	7f 93       	push	r23
    240a:	6f 93       	push	r22
    240c:	60 91 e0 20 	lds	r22, 0x20E0	; 0x8020e0 <press>
    2410:	70 91 e1 20 	lds	r23, 0x20E1	; 0x8020e1 <press+0x1>
    2414:	80 91 e2 20 	lds	r24, 0x20E2	; 0x8020e2 <press+0x2>
    2418:	90 91 e3 20 	lds	r25, 0x20E3	; 0x8020e3 <press+0x3>
    241c:	92 d4       	rcall	.+2340   	; 0x2d42 <__fixsfsi>
    241e:	9f 93       	push	r25
    2420:	8f 93       	push	r24
    2422:	7f 93       	push	r23
    2424:	6f 93       	push	r22
    2426:	60 91 d8 20 	lds	r22, 0x20D8	; 0x8020d8 <alt>
    242a:	70 91 d9 20 	lds	r23, 0x20D9	; 0x8020d9 <alt+0x1>
    242e:	80 91 da 20 	lds	r24, 0x20DA	; 0x8020da <alt+0x2>
    2432:	90 91 db 20 	lds	r25, 0x20DB	; 0x8020db <alt+0x3>
    2436:	85 d4       	rcall	.+2314   	; 0x2d42 <__fixsfsi>
    2438:	7f 93       	push	r23
    243a:	6f 93       	push	r22
    243c:	df 93       	push	r29
    243e:	cf 93       	push	r28
    2440:	1f 93       	push	r17
    2442:	0f 93       	push	r16
    2444:	80 91 18 20 	lds	r24, 0x2018	; 0x802018 <format+0x1>
    2448:	8f 93       	push	r24
    244a:	80 91 17 20 	lds	r24, 0x2017	; 0x802017 <format>
    244e:	8f 93       	push	r24
    2450:	ce e1       	ldi	r28, 0x1E	; 30
    2452:	d1 e2       	ldi	r29, 0x21	; 33
    2454:	df 93       	push	r29
    2456:	cf 93       	push	r28
    2458:	0e 94 6e 1a 	call	0x34dc	; 0x34dc <sprintf>
	(int16_t) (((int32_t)gps_t)/10000),		(int16_t) ((((int32_t)gps_t)%10000)/100),	(int16_t) (((int32_t)gps_t)%100),
	(int16_t) gps_lat,						((int32_t) (gps_lat*1000000))%1000000,		(int16_t) gps_long,						(int32_t)(abs(((int32_t)(gps_long*1000000))%1000000)),
	(int16_t) gps_alt,						((int16_t) (gps_alt)*10)%10,				gps_sats,
	(int16_t) pitch,						(int16_t) roll,								(int16_t) rpm,
	state,									(int16_t) angle); // Data Logging Test
	printf(str);
    245c:	8d b7       	in	r24, 0x3d	; 61
    245e:	9e b7       	in	r25, 0x3e	; 62
    2460:	c4 96       	adiw	r24, 0x34	; 52
    2462:	8d bf       	out	0x3d, r24	; 61
    2464:	9e bf       	out	0x3e, r25	; 62
    2466:	df 93       	push	r29
    2468:	cf 93       	push	r28
    246a:	0e 94 5b 1a 	call	0x34b6	; 0x34b6 <printf>
	
	// Updates EEPROM
	eeprom_write();
    246e:	92 dc       	rcall	.-1756   	; 0x1d94 <eeprom_write>
    2470:	0f 90       	pop	r0
	uint8_t byte0 = eeprom_read(EEPROM_PAGE | PACKET_ADDR_BYTE0);
	uint8_t byte1 = eeprom_read(EEPROM_PAGE | PACKET_ADDR_BYTE1);
	uint16_t a = (uint16_t) ((byte1<<8) | byte0);
	printf("%u\n", a);
	*/
}
    2472:	0f 90       	pop	r0
    2474:	ff 91       	pop	r31
    2476:	ef 91       	pop	r30
    2478:	df 91       	pop	r29
    247a:	cf 91       	pop	r28
    247c:	bf 91       	pop	r27
    247e:	af 91       	pop	r26
    2480:	9f 91       	pop	r25
    2482:	8f 91       	pop	r24
    2484:	7f 91       	pop	r23
    2486:	6f 91       	pop	r22
    2488:	5f 91       	pop	r21
    248a:	4f 91       	pop	r20
    248c:	3f 91       	pop	r19
    248e:	2f 91       	pop	r18
    2490:	1f 91       	pop	r17
    2492:	0f 91       	pop	r16
    2494:	ff 90       	pop	r15
    2496:	ef 90       	pop	r14
    2498:	df 90       	pop	r13
    249a:	cf 90       	pop	r12
    249c:	bf 90       	pop	r11
    249e:	af 90       	pop	r10
    24a0:	9f 90       	pop	r9
    24a2:	8f 90       	pop	r8
    24a4:	7f 90       	pop	r7
    24a6:	6f 90       	pop	r6
    24a8:	5f 90       	pop	r5
    24aa:	4f 90       	pop	r4
    24ac:	3f 90       	pop	r3
    24ae:	2f 90       	pop	r2
    24b0:	0f 90       	pop	r0
    24b2:	0b be       	out	0x3b, r0	; 59
    24b4:	0f 90       	pop	r0
    24b6:	0a be       	out	0x3a, r0	; 58
    24b8:	0f 90       	pop	r0
    24ba:	09 be       	out	0x39, r0	; 57
    24bc:	0f 90       	pop	r0
    24be:	08 be       	out	0x38, r0	; 56
    24c0:	0f 90       	pop	r0
    24c2:	0f be       	out	0x3f, r0	; 63
    24c4:	0f 90       	pop	r0
    24c6:	1f 90       	pop	r1
    24c8:	18 95       	reti

000024ca <__vector_58>:
    24ca:	1f 92       	push	r1

ISR(USARTE0_RXC_vect){
    24cc:	0f 92       	push	r0
    24ce:	0f b6       	in	r0, 0x3f	; 63
    24d0:	0f 92       	push	r0
    24d2:	11 24       	eor	r1, r1
    24d4:	08 b6       	in	r0, 0x38	; 56
    24d6:	0f 92       	push	r0
    24d8:	18 be       	out	0x38, r1	; 56
    24da:	09 b6       	in	r0, 0x39	; 57
    24dc:	0f 92       	push	r0
    24de:	19 be       	out	0x39, r1	; 57
    24e0:	0b b6       	in	r0, 0x3b	; 59
    24e2:	0f 92       	push	r0
    24e4:	1b be       	out	0x3b, r1	; 59
    24e6:	2f 93       	push	r18
    24e8:	3f 93       	push	r19
    24ea:	4f 93       	push	r20
    24ec:	5f 93       	push	r21
    24ee:	6f 93       	push	r22
    24f0:	7f 93       	push	r23
    24f2:	8f 93       	push	r24
    24f4:	9f 93       	push	r25
    24f6:	af 93       	push	r26
    24f8:	bf 93       	push	r27
    24fa:	ef 93       	push	r30
    24fc:	ff 93       	push	r31
	uint8_t c = usart_getchar(UART_TERMINAL_SERIAL);
    24fe:	80 ea       	ldi	r24, 0xA0	; 160
    2500:	9a e0       	ldi	r25, 0x0A	; 10
    2502:	0e 94 93 02 	call	0x526	; 0x526 <usart_getchar>
	//printf("%c\n", c);
	xbee_command(c);
    2506:	4b de       	rcall	.-874    	; 0x219e <xbee_command>
}
    2508:	ff 91       	pop	r31
    250a:	ef 91       	pop	r30
    250c:	bf 91       	pop	r27
    250e:	af 91       	pop	r26
    2510:	9f 91       	pop	r25
    2512:	8f 91       	pop	r24
    2514:	7f 91       	pop	r23
    2516:	6f 91       	pop	r22
    2518:	5f 91       	pop	r21
    251a:	4f 91       	pop	r20
    251c:	3f 91       	pop	r19
    251e:	2f 91       	pop	r18
    2520:	0f 90       	pop	r0
    2522:	0b be       	out	0x3b, r0	; 59
    2524:	0f 90       	pop	r0
    2526:	09 be       	out	0x39, r0	; 57
    2528:	0f 90       	pop	r0
    252a:	08 be       	out	0x38, r0	; 56
    252c:	0f 90       	pop	r0
    252e:	0f be       	out	0x3f, r0	; 63
    2530:	0f 90       	pop	r0
    2532:	1f 90       	pop	r1
    2534:	18 95       	reti

00002536 <__vector_91>:


// GPS recording
ISR(USARTD1_RXC_vect){
    2536:	1f 92       	push	r1
    2538:	0f 92       	push	r0
    253a:	0f b6       	in	r0, 0x3f	; 63
    253c:	0f 92       	push	r0
    253e:	11 24       	eor	r1, r1
    2540:	08 b6       	in	r0, 0x38	; 56
    2542:	0f 92       	push	r0
    2544:	18 be       	out	0x38, r1	; 56
    2546:	09 b6       	in	r0, 0x39	; 57
    2548:	0f 92       	push	r0
    254a:	19 be       	out	0x39, r1	; 57
    254c:	0a b6       	in	r0, 0x3a	; 58
    254e:	0f 92       	push	r0
    2550:	1a be       	out	0x3a, r1	; 58
    2552:	0b b6       	in	r0, 0x3b	; 59
    2554:	0f 92       	push	r0
    2556:	1b be       	out	0x3b, r1	; 59
    2558:	8f 92       	push	r8
    255a:	9f 92       	push	r9
    255c:	af 92       	push	r10
    255e:	bf 92       	push	r11
    2560:	cf 92       	push	r12
    2562:	df 92       	push	r13
    2564:	ef 92       	push	r14
    2566:	ff 92       	push	r15
    2568:	1f 93       	push	r17
    256a:	2f 93       	push	r18
    256c:	3f 93       	push	r19
    256e:	4f 93       	push	r20
    2570:	5f 93       	push	r21
    2572:	6f 93       	push	r22
    2574:	7f 93       	push	r23
    2576:	8f 93       	push	r24
    2578:	9f 93       	push	r25
    257a:	af 93       	push	r26
    257c:	bf 93       	push	r27
    257e:	ef 93       	push	r30
    2580:	ff 93       	push	r31
    2582:	cf 93       	push	r28
    2584:	df 93       	push	r29
    2586:	00 d0       	rcall	.+0      	; 0x2588 <__vector_91+0x52>
    2588:	00 d0       	rcall	.+0      	; 0x258a <__vector_91+0x54>
    258a:	cd b7       	in	r28, 0x3d	; 61
    258c:	de b7       	in	r29, 0x3e	; 62
	uint8_t c = usart_getchar(GPS_TERMINAL_SERIAL);
    258e:	80 eb       	ldi	r24, 0xB0	; 176
    2590:	99 e0       	ldi	r25, 0x09	; 9
    2592:	0e 94 93 02 	call	0x526	; 0x526 <usart_getchar>
    2596:	18 2f       	mov	r17, r24
	//printf("%c",c);
	
	if(c == (uint8_t) '$'){
    2598:	84 32       	cpi	r24, 0x24	; 36
    259a:	49 f4       	brne	.+18     	; 0x25ae <__vector_91+0x78>
		writing = 1;
    259c:	81 e0       	ldi	r24, 0x01	; 1
    259e:	80 93 ee 20 	sts	0x20EE, r24	; 0x8020ee <writing>
		pos = 0;
		word_pos = 0;
    25a2:	10 92 ec 20 	sts	0x20EC, r1	; 0x8020ec <word_pos>
		commas = 0;
    25a6:	10 92 eb 20 	sts	0x20EB, r1	; 0x8020eb <commas>
			}
		}
	}
		
	if(writing){
		switch(pos){
    25aa:	90 e0       	ldi	r25, 0x00	; 0
    25ac:	68 c2       	rjmp	.+1232   	; 0x2a7e <__vector_91+0x548>
		writing = 1;
		pos = 0;
		word_pos = 0;
		commas = 0;
	}
	else if(c == (uint8_t) '*'){
    25ae:	8a 32       	cpi	r24, 0x2A	; 42
    25b0:	29 f4       	brne	.+10     	; 0x25bc <__vector_91+0x86>
		commas = 0;
    25b2:	10 92 eb 20 	sts	0x20EB, r1	; 0x8020eb <commas>
		writing = 0;
    25b6:	10 92 ee 20 	sts	0x20EE, r1	; 0x8020ee <writing>
    25ba:	91 c2       	rjmp	.+1314   	; 0x2ade <__vector_91+0x5a8>
	}
	else if(c == (uint8_t) ','){
    25bc:	8c 32       	cpi	r24, 0x2C	; 44
    25be:	09 f0       	breq	.+2      	; 0x25c2 <__vector_91+0x8c>
    25c0:	49 c2       	rjmp	.+1170   	; 0x2a54 <__vector_91+0x51e>
		gps[0] = 32;
    25c2:	ea e0       	ldi	r30, 0x0A	; 10
    25c4:	f1 e2       	ldi	r31, 0x21	; 33
    25c6:	80 e2       	ldi	r24, 0x20	; 32
    25c8:	80 83       	st	Z, r24
		if(gps[1] == 32){
    25ca:	81 81       	ldd	r24, Z+1	; 0x01
    25cc:	80 32       	cpi	r24, 0x20	; 32
    25ce:	09 f0       	breq	.+2      	; 0x25d2 <__vector_91+0x9c>
    25d0:	6d c2       	rjmp	.+1242   	; 0x2aac <__vector_91+0x576>
			gps[0] = '0';
    25d2:	80 e3       	ldi	r24, 0x30	; 48
    25d4:	80 93 0a 21 	sts	0x210A, r24	; 0x80210a <gps>
    25d8:	69 c2       	rjmp	.+1234   	; 0x2aac <__vector_91+0x576>
			case 7:			//Sats
				sscanf(gps,"%d",&gps_sats);
				break;
			case 9:			//Altitude
				for(uint8_t i = 0; i < 15; i++){
					if(gps[i] == (uint8_t) '.'){
    25da:	80 91 0a 21 	lds	r24, 0x210A	; 0x80210a <gps>
    25de:	8e 32       	cpi	r24, 0x2E	; 46
    25e0:	09 f0       	breq	.+2      	; 0x25e4 <__vector_91+0xae>
    25e2:	9e c1       	rjmp	.+828    	; 0x2920 <__vector_91+0x3ea>
    25e4:	a4 c1       	rjmp	.+840    	; 0x292e <__vector_91+0x3f8>
				sscanf(dec,"%d",&val2);
				gps_lat = val/100 + ((double)(val%100) + ((double)(val2))/10000) / 60.0;
				break;
			case 4:			//Longitude
				for(uint8_t i = 0; i < 15; i++){
					if(gps[i] == (uint8_t) '.'){
    25e6:	80 91 0a 21 	lds	r24, 0x210A	; 0x80210a <gps>
    25ea:	8e 32       	cpi	r24, 0x2E	; 46
    25ec:	09 f0       	breq	.+2      	; 0x25f0 <__vector_91+0xba>
    25ee:	ec c0       	rjmp	.+472    	; 0x27c8 <__vector_91+0x292>
    25f0:	f2 c0       	rjmp	.+484    	; 0x27d6 <__vector_91+0x2a0>
				sscanf(gps,"%ld",&val);
				gps_t = (double) val;
				break;
			case 2:			//Latitude
				for(uint8_t i = 0; i < 15; i++){
					if(gps[i] == (uint8_t) '.'){
    25f2:	80 91 0a 21 	lds	r24, 0x210A	; 0x80210a <gps>
    25f6:	8e 32       	cpi	r24, 0x2E	; 46
    25f8:	09 f0       	breq	.+2      	; 0x25fc <__vector_91+0xc6>
    25fa:	51 c0       	rjmp	.+162    	; 0x269e <__vector_91+0x168>
    25fc:	57 c0       	rjmp	.+174    	; 0x26ac <__vector_91+0x176>
		int32_t val = 0;
		int16_t val2 = 0;
		switch(commas){
			case 1:			//Time
				for(uint8_t i = 0; i < 15; i++){
					if(gps[i] == (uint8_t) '.'){
    25fe:	91 91       	ld	r25, Z+
    2600:	9e 32       	cpi	r25, 0x2E	; 46
    2602:	29 f4       	brne	.+10     	; 0x260e <__vector_91+0xd8>
    2604:	01 c0       	rjmp	.+2      	; 0x2608 <__vector_91+0xd2>
    2606:	80 e0       	ldi	r24, 0x00	; 0
						idx = i;
    2608:	80 93 ea 20 	sts	0x20EA, r24	; 0x8020ea <idx>
						break;
    260c:	03 c0       	rjmp	.+6      	; 0x2614 <__vector_91+0xde>
		}
		int32_t val = 0;
		int16_t val2 = 0;
		switch(commas){
			case 1:			//Time
				for(uint8_t i = 0; i < 15; i++){
    260e:	8f 5f       	subi	r24, 0xFF	; 255
    2610:	8f 30       	cpi	r24, 0x0F	; 15
    2612:	a9 f7       	brne	.-22     	; 0x25fe <__vector_91+0xc8>
					if(gps[i] == (uint8_t) '.'){
						idx = i;
						break;
					}
				}
				gps[idx] = 32;
    2614:	20 91 ea 20 	lds	r18, 0x20EA	; 0x8020ea <idx>
    2618:	e2 2f       	mov	r30, r18
    261a:	f0 e0       	ldi	r31, 0x00	; 0
    261c:	e6 5f       	subi	r30, 0xF6	; 246
    261e:	fe 4d       	sbci	r31, 0xDE	; 222
    2620:	80 e2       	ldi	r24, 0x20	; 32
    2622:	80 83       	st	Z, r24
				for(uint8_t i = idx+1; i < 15; i++){
    2624:	2f 5f       	subi	r18, 0xFF	; 255
    2626:	2f 30       	cpi	r18, 0x0F	; 15
    2628:	c8 f4       	brcc	.+50     	; 0x265c <__vector_91+0x126>
					if(gps[i] == 32){
    262a:	82 2f       	mov	r24, r18
    262c:	90 e0       	ldi	r25, 0x00	; 0
    262e:	fc 01       	movw	r30, r24
    2630:	e6 5f       	subi	r30, 0xF6	; 246
    2632:	fe 4d       	sbci	r31, 0xDE	; 222
    2634:	30 81       	ld	r19, Z
    2636:	30 32       	cpi	r19, 0x20	; 32
    2638:	89 f0       	breq	.+34     	; 0x265c <__vector_91+0x126>
						break;
					}
					gps[i] = 32;
    263a:	40 e2       	ldi	r20, 0x20	; 32
    263c:	08 c0       	rjmp	.+16     	; 0x264e <__vector_91+0x118>
						break;
					}
				}
				gps[idx] = 32;
				for(uint8_t i = idx+1; i < 15; i++){
					if(gps[i] == 32){
    263e:	82 2f       	mov	r24, r18
    2640:	90 e0       	ldi	r25, 0x00	; 0
    2642:	fc 01       	movw	r30, r24
    2644:	e6 5f       	subi	r30, 0xF6	; 246
    2646:	fe 4d       	sbci	r31, 0xDE	; 222
    2648:	30 81       	ld	r19, Z
    264a:	30 32       	cpi	r19, 0x20	; 32
    264c:	39 f0       	breq	.+14     	; 0x265c <__vector_91+0x126>
						break;
					}
					gps[i] = 32;
    264e:	fc 01       	movw	r30, r24
    2650:	e6 5f       	subi	r30, 0xF6	; 246
    2652:	fe 4d       	sbci	r31, 0xDE	; 222
    2654:	40 83       	st	Z, r20
						idx = i;
						break;
					}
				}
				gps[idx] = 32;
				for(uint8_t i = idx+1; i < 15; i++){
    2656:	2f 5f       	subi	r18, 0xFF	; 255
    2658:	2f 30       	cpi	r18, 0x0F	; 15
    265a:	89 f7       	brne	.-30     	; 0x263e <__vector_91+0x108>
					if(gps[i] == 32){
						break;
					}
					gps[i] = 32;
				}
				sscanf(gps,"%ld",&val);
    265c:	ce 01       	movw	r24, r28
    265e:	01 96       	adiw	r24, 0x01	; 1
    2660:	9f 93       	push	r25
    2662:	8f 93       	push	r24
    2664:	86 ea       	ldi	r24, 0xA6	; 166
    2666:	90 e2       	ldi	r25, 0x20	; 32
    2668:	9f 93       	push	r25
    266a:	8f 93       	push	r24
    266c:	8a e0       	ldi	r24, 0x0A	; 10
    266e:	91 e2       	ldi	r25, 0x21	; 33
    2670:	9f 93       	push	r25
    2672:	8f 93       	push	r24
    2674:	5b d7       	rcall	.+3766   	; 0x352c <sscanf>
				gps_t = (double) val;
    2676:	69 81       	ldd	r22, Y+1	; 0x01
    2678:	7a 81       	ldd	r23, Y+2	; 0x02
    267a:	8b 81       	ldd	r24, Y+3	; 0x03
    267c:	9c 81       	ldd	r25, Y+4	; 0x04
    267e:	94 d3       	rcall	.+1832   	; 0x2da8 <__floatsisf>
    2680:	60 93 cc 20 	sts	0x20CC, r22	; 0x8020cc <gps_t>
    2684:	70 93 cd 20 	sts	0x20CD, r23	; 0x8020cd <gps_t+0x1>
    2688:	80 93 ce 20 	sts	0x20CE, r24	; 0x8020ce <gps_t+0x2>
    268c:	90 93 cf 20 	sts	0x20CF, r25	; 0x8020cf <gps_t+0x3>
				break;
    2690:	0f 90       	pop	r0
    2692:	0f 90       	pop	r0
    2694:	0f 90       	pop	r0
    2696:	0f 90       	pop	r0
    2698:	0f 90       	pop	r0
    269a:	0f 90       	pop	r0
    269c:	bd c1       	rjmp	.+890    	; 0x2a18 <__vector_91+0x4e2>
    269e:	eb e0       	ldi	r30, 0x0B	; 11
    26a0:	f1 e2       	ldi	r31, 0x21	; 33
			case 2:			//Latitude
				for(uint8_t i = 0; i < 15; i++){
    26a2:	81 e0       	ldi	r24, 0x01	; 1
					if(gps[i] == (uint8_t) '.'){
    26a4:	91 91       	ld	r25, Z+
    26a6:	9e 32       	cpi	r25, 0x2E	; 46
    26a8:	29 f4       	brne	.+10     	; 0x26b4 <__vector_91+0x17e>
    26aa:	01 c0       	rjmp	.+2      	; 0x26ae <__vector_91+0x178>
    26ac:	80 e0       	ldi	r24, 0x00	; 0
						idx = i;
    26ae:	80 93 ea 20 	sts	0x20EA, r24	; 0x8020ea <idx>
						break;
    26b2:	03 c0       	rjmp	.+6      	; 0x26ba <__vector_91+0x184>
				}
				sscanf(gps,"%ld",&val);
				gps_t = (double) val;
				break;
			case 2:			//Latitude
				for(uint8_t i = 0; i < 15; i++){
    26b4:	8f 5f       	subi	r24, 0xFF	; 255
    26b6:	8f 30       	cpi	r24, 0x0F	; 15
    26b8:	a9 f7       	brne	.-22     	; 0x26a4 <__vector_91+0x16e>
					if(gps[i] == (uint8_t) '.'){
						idx = i;
						break;
					}
				}
				gps[idx] = 32;
    26ba:	20 91 ea 20 	lds	r18, 0x20EA	; 0x8020ea <idx>
    26be:	42 2f       	mov	r20, r18
    26c0:	50 e0       	ldi	r21, 0x00	; 0
    26c2:	fa 01       	movw	r30, r20
    26c4:	e6 5f       	subi	r30, 0xF6	; 246
    26c6:	fe 4d       	sbci	r31, 0xDE	; 222
    26c8:	80 e2       	ldi	r24, 0x20	; 32
    26ca:	80 83       	st	Z, r24
				for(uint8_t i = idx+1; i < 15; i++){
    26cc:	2f 5f       	subi	r18, 0xFF	; 255
    26ce:	2f 30       	cpi	r18, 0x0F	; 15
    26d0:	f8 f4       	brcc	.+62     	; 0x2710 <__vector_91+0x1da>
					if(gps[i] == 32){
    26d2:	82 2f       	mov	r24, r18
    26d4:	90 e0       	ldi	r25, 0x00	; 0
    26d6:	fc 01       	movw	r30, r24
    26d8:	e6 5f       	subi	r30, 0xF6	; 246
    26da:	fe 4d       	sbci	r31, 0xDE	; 222
    26dc:	30 81       	ld	r19, Z
    26de:	30 32       	cpi	r19, 0x20	; 32
    26e0:	b9 f0       	breq	.+46     	; 0x2710 <__vector_91+0x1da>
						break;
					}
					dec[i-idx-1] = gps[i];
					gps[i] = 32;
    26e2:	60 e2       	ldi	r22, 0x20	; 32
    26e4:	08 c0       	rjmp	.+16     	; 0x26f6 <__vector_91+0x1c0>
						break;
					}
				}
				gps[idx] = 32;
				for(uint8_t i = idx+1; i < 15; i++){
					if(gps[i] == 32){
    26e6:	82 2f       	mov	r24, r18
    26e8:	90 e0       	ldi	r25, 0x00	; 0
    26ea:	fc 01       	movw	r30, r24
    26ec:	e6 5f       	subi	r30, 0xF6	; 246
    26ee:	fe 4d       	sbci	r31, 0xDE	; 222
    26f0:	30 81       	ld	r19, Z
    26f2:	30 32       	cpi	r19, 0x20	; 32
    26f4:	69 f0       	breq	.+26     	; 0x2710 <__vector_91+0x1da>
						break;
					}
					dec[i-idx-1] = gps[i];
    26f6:	fc 01       	movw	r30, r24
    26f8:	e4 1b       	sub	r30, r20
    26fa:	f5 0b       	sbc	r31, r21
    26fc:	e8 5e       	subi	r30, 0xE8	; 232
    26fe:	fe 4d       	sbci	r31, 0xDE	; 222
    2700:	30 83       	st	Z, r19
					gps[i] = 32;
    2702:	fc 01       	movw	r30, r24
    2704:	e6 5f       	subi	r30, 0xF6	; 246
    2706:	fe 4d       	sbci	r31, 0xDE	; 222
    2708:	60 83       	st	Z, r22
						idx = i;
						break;
					}
				}
				gps[idx] = 32;
				for(uint8_t i = idx+1; i < 15; i++){
    270a:	2f 5f       	subi	r18, 0xFF	; 255
    270c:	2f 30       	cpi	r18, 0x0F	; 15
    270e:	59 f7       	brne	.-42     	; 0x26e6 <__vector_91+0x1b0>
						break;
					}
					dec[i-idx-1] = gps[i];
					gps[i] = 32;
				}
				if(dec[0] == 32){
    2710:	80 91 19 21 	lds	r24, 0x2119	; 0x802119 <dec>
    2714:	80 32       	cpi	r24, 0x20	; 32
    2716:	19 f4       	brne	.+6      	; 0x271e <__vector_91+0x1e8>
					dec[0] = '0';
    2718:	80 e3       	ldi	r24, 0x30	; 48
    271a:	80 93 19 21 	sts	0x2119, r24	; 0x802119 <dec>
				}
				sscanf(gps,"%ld",&val);
    271e:	ce 01       	movw	r24, r28
    2720:	01 96       	adiw	r24, 0x01	; 1
    2722:	9f 93       	push	r25
    2724:	8f 93       	push	r24
    2726:	86 ea       	ldi	r24, 0xA6	; 166
    2728:	90 e2       	ldi	r25, 0x20	; 32
    272a:	9f 93       	push	r25
    272c:	8f 93       	push	r24
    272e:	8a e0       	ldi	r24, 0x0A	; 10
    2730:	91 e2       	ldi	r25, 0x21	; 33
    2732:	9f 93       	push	r25
    2734:	8f 93       	push	r24
    2736:	fa d6       	rcall	.+3572   	; 0x352c <sscanf>
				sscanf(dec,"%d",&val2);
    2738:	ce 01       	movw	r24, r28
    273a:	05 96       	adiw	r24, 0x05	; 5
    273c:	9f 93       	push	r25
    273e:	8f 93       	push	r24
    2740:	8a ea       	ldi	r24, 0xAA	; 170
    2742:	90 e2       	ldi	r25, 0x20	; 32
    2744:	9f 93       	push	r25
    2746:	8f 93       	push	r24
    2748:	89 e1       	ldi	r24, 0x19	; 25
    274a:	91 e2       	ldi	r25, 0x21	; 33
    274c:	9f 93       	push	r25
    274e:	8f 93       	push	r24
    2750:	ed d6       	rcall	.+3546   	; 0x352c <sscanf>
				gps_lat = val/100 + ((double)(val%100) + ((double)(val2))/10000) / 60.0;
    2752:	89 80       	ldd	r8, Y+1	; 0x01
    2754:	9a 80       	ldd	r9, Y+2	; 0x02
    2756:	ab 80       	ldd	r10, Y+3	; 0x03
    2758:	bc 80       	ldd	r11, Y+4	; 0x04
    275a:	6d 81       	ldd	r22, Y+5	; 0x05
    275c:	7e 81       	ldd	r23, Y+6	; 0x06
    275e:	07 2e       	mov	r0, r23
    2760:	00 0c       	add	r0, r0
    2762:	88 0b       	sbc	r24, r24
    2764:	99 0b       	sbc	r25, r25
    2766:	20 d3       	rcall	.+1600   	; 0x2da8 <__floatsisf>
    2768:	20 e0       	ldi	r18, 0x00	; 0
    276a:	30 e4       	ldi	r19, 0x40	; 64
    276c:	4c e1       	ldi	r20, 0x1C	; 28
    276e:	56 e4       	ldi	r21, 0x46	; 70
    2770:	46 d2       	rcall	.+1164   	; 0x2bfe <__divsf3>
    2772:	6b 01       	movw	r12, r22
    2774:	7c 01       	movw	r14, r24
    2776:	c5 01       	movw	r24, r10
    2778:	b4 01       	movw	r22, r8
    277a:	24 e6       	ldi	r18, 0x64	; 100
    277c:	30 e0       	ldi	r19, 0x00	; 0
    277e:	40 e0       	ldi	r20, 0x00	; 0
    2780:	50 e0       	ldi	r21, 0x00	; 0
    2782:	f6 d5       	rcall	.+3052   	; 0x3370 <__divmodsi4>
    2784:	49 01       	movw	r8, r18
    2786:	5a 01       	movw	r10, r20
    2788:	0f d3       	rcall	.+1566   	; 0x2da8 <__floatsisf>
    278a:	9b 01       	movw	r18, r22
    278c:	ac 01       	movw	r20, r24
    278e:	c7 01       	movw	r24, r14
    2790:	b6 01       	movw	r22, r12
    2792:	cd d1       	rcall	.+922    	; 0x2b2e <__addsf3>
    2794:	20 e0       	ldi	r18, 0x00	; 0
    2796:	30 e0       	ldi	r19, 0x00	; 0
    2798:	40 e7       	ldi	r20, 0x70	; 112
    279a:	52 e4       	ldi	r21, 0x42	; 66
    279c:	30 d2       	rcall	.+1120   	; 0x2bfe <__divsf3>
    279e:	6b 01       	movw	r12, r22
    27a0:	7c 01       	movw	r14, r24
    27a2:	c5 01       	movw	r24, r10
    27a4:	b4 01       	movw	r22, r8
    27a6:	00 d3       	rcall	.+1536   	; 0x2da8 <__floatsisf>
    27a8:	9b 01       	movw	r18, r22
    27aa:	ac 01       	movw	r20, r24
    27ac:	c7 01       	movw	r24, r14
    27ae:	b6 01       	movw	r22, r12
    27b0:	be d1       	rcall	.+892    	; 0x2b2e <__addsf3>
    27b2:	60 93 c8 20 	sts	0x20C8, r22	; 0x8020c8 <gps_lat>
    27b6:	70 93 c9 20 	sts	0x20C9, r23	; 0x8020c9 <gps_lat+0x1>
    27ba:	80 93 ca 20 	sts	0x20CA, r24	; 0x8020ca <gps_lat+0x2>
    27be:	90 93 cb 20 	sts	0x20CB, r25	; 0x8020cb <gps_lat+0x3>
				break;
    27c2:	cd bf       	out	0x3d, r28	; 61
    27c4:	de bf       	out	0x3e, r29	; 62
    27c6:	28 c1       	rjmp	.+592    	; 0x2a18 <__vector_91+0x4e2>
    27c8:	eb e0       	ldi	r30, 0x0B	; 11
    27ca:	f1 e2       	ldi	r31, 0x21	; 33
			case 4:			//Longitude
				for(uint8_t i = 0; i < 15; i++){
    27cc:	81 e0       	ldi	r24, 0x01	; 1
					if(gps[i] == (uint8_t) '.'){
    27ce:	91 91       	ld	r25, Z+
    27d0:	9e 32       	cpi	r25, 0x2E	; 46
    27d2:	29 f4       	brne	.+10     	; 0x27de <__vector_91+0x2a8>
    27d4:	01 c0       	rjmp	.+2      	; 0x27d8 <__vector_91+0x2a2>
    27d6:	80 e0       	ldi	r24, 0x00	; 0
						idx = i;
    27d8:	80 93 ea 20 	sts	0x20EA, r24	; 0x8020ea <idx>
						break;
    27dc:	03 c0       	rjmp	.+6      	; 0x27e4 <__vector_91+0x2ae>
				sscanf(gps,"%ld",&val);
				sscanf(dec,"%d",&val2);
				gps_lat = val/100 + ((double)(val%100) + ((double)(val2))/10000) / 60.0;
				break;
			case 4:			//Longitude
				for(uint8_t i = 0; i < 15; i++){
    27de:	8f 5f       	subi	r24, 0xFF	; 255
    27e0:	8f 30       	cpi	r24, 0x0F	; 15
    27e2:	a9 f7       	brne	.-22     	; 0x27ce <__vector_91+0x298>
					if(gps[i] == (uint8_t) '.'){
						idx = i;
						break;
					}
				}
				gps[idx] = 32;
    27e4:	20 91 ea 20 	lds	r18, 0x20EA	; 0x8020ea <idx>
    27e8:	42 2f       	mov	r20, r18
    27ea:	50 e0       	ldi	r21, 0x00	; 0
    27ec:	fa 01       	movw	r30, r20
    27ee:	e6 5f       	subi	r30, 0xF6	; 246
    27f0:	fe 4d       	sbci	r31, 0xDE	; 222
    27f2:	80 e2       	ldi	r24, 0x20	; 32
    27f4:	80 83       	st	Z, r24
				for(uint8_t i = idx+1; i < 15; i++){
    27f6:	2f 5f       	subi	r18, 0xFF	; 255
    27f8:	2f 30       	cpi	r18, 0x0F	; 15
    27fa:	f8 f4       	brcc	.+62     	; 0x283a <__vector_91+0x304>
					if(gps[i] == 32){
    27fc:	82 2f       	mov	r24, r18
    27fe:	90 e0       	ldi	r25, 0x00	; 0
    2800:	fc 01       	movw	r30, r24
    2802:	e6 5f       	subi	r30, 0xF6	; 246
    2804:	fe 4d       	sbci	r31, 0xDE	; 222
    2806:	30 81       	ld	r19, Z
    2808:	30 32       	cpi	r19, 0x20	; 32
    280a:	b9 f0       	breq	.+46     	; 0x283a <__vector_91+0x304>
						break;
					}
					dec[i-idx-1] = gps[i];
					gps[i] = 32;
    280c:	60 e2       	ldi	r22, 0x20	; 32
    280e:	08 c0       	rjmp	.+16     	; 0x2820 <__vector_91+0x2ea>
						break;
					}
				}
				gps[idx] = 32;
				for(uint8_t i = idx+1; i < 15; i++){
					if(gps[i] == 32){
    2810:	82 2f       	mov	r24, r18
    2812:	90 e0       	ldi	r25, 0x00	; 0
    2814:	fc 01       	movw	r30, r24
    2816:	e6 5f       	subi	r30, 0xF6	; 246
    2818:	fe 4d       	sbci	r31, 0xDE	; 222
    281a:	30 81       	ld	r19, Z
    281c:	30 32       	cpi	r19, 0x20	; 32
    281e:	69 f0       	breq	.+26     	; 0x283a <__vector_91+0x304>
						break;
					}
					dec[i-idx-1] = gps[i];
    2820:	fc 01       	movw	r30, r24
    2822:	e4 1b       	sub	r30, r20
    2824:	f5 0b       	sbc	r31, r21
    2826:	e8 5e       	subi	r30, 0xE8	; 232
    2828:	fe 4d       	sbci	r31, 0xDE	; 222
    282a:	30 83       	st	Z, r19
					gps[i] = 32;
    282c:	fc 01       	movw	r30, r24
    282e:	e6 5f       	subi	r30, 0xF6	; 246
    2830:	fe 4d       	sbci	r31, 0xDE	; 222
    2832:	60 83       	st	Z, r22
						idx = i;
						break;
					}
				}
				gps[idx] = 32;
				for(uint8_t i = idx+1; i < 15; i++){
    2834:	2f 5f       	subi	r18, 0xFF	; 255
    2836:	2f 30       	cpi	r18, 0x0F	; 15
    2838:	59 f7       	brne	.-42     	; 0x2810 <__vector_91+0x2da>
						break;
					}
					dec[i-idx-1] = gps[i];
					gps[i] = 32;
				}
				if(dec[0] == 32){
    283a:	80 91 19 21 	lds	r24, 0x2119	; 0x802119 <dec>
    283e:	80 32       	cpi	r24, 0x20	; 32
    2840:	19 f4       	brne	.+6      	; 0x2848 <__vector_91+0x312>
					dec[0] = '0';
    2842:	80 e3       	ldi	r24, 0x30	; 48
    2844:	80 93 19 21 	sts	0x2119, r24	; 0x802119 <dec>
				}
				sscanf(gps,"%ld",&val);
    2848:	ce 01       	movw	r24, r28
    284a:	01 96       	adiw	r24, 0x01	; 1
    284c:	9f 93       	push	r25
    284e:	8f 93       	push	r24
    2850:	86 ea       	ldi	r24, 0xA6	; 166
    2852:	90 e2       	ldi	r25, 0x20	; 32
    2854:	9f 93       	push	r25
    2856:	8f 93       	push	r24
    2858:	8a e0       	ldi	r24, 0x0A	; 10
    285a:	91 e2       	ldi	r25, 0x21	; 33
    285c:	9f 93       	push	r25
    285e:	8f 93       	push	r24
    2860:	65 d6       	rcall	.+3274   	; 0x352c <sscanf>
				sscanf(dec,"%d",&val2);
    2862:	ce 01       	movw	r24, r28
    2864:	05 96       	adiw	r24, 0x05	; 5
    2866:	9f 93       	push	r25
    2868:	8f 93       	push	r24
    286a:	8a ea       	ldi	r24, 0xAA	; 170
    286c:	90 e2       	ldi	r25, 0x20	; 32
    286e:	9f 93       	push	r25
    2870:	8f 93       	push	r24
    2872:	89 e1       	ldi	r24, 0x19	; 25
    2874:	91 e2       	ldi	r25, 0x21	; 33
    2876:	9f 93       	push	r25
    2878:	8f 93       	push	r24
    287a:	58 d6       	rcall	.+3248   	; 0x352c <sscanf>
				gps_long = -(val/100 + ((double)(val%100) + ((double)(val2))/10000) / 60.0);
    287c:	89 80       	ldd	r8, Y+1	; 0x01
    287e:	9a 80       	ldd	r9, Y+2	; 0x02
    2880:	ab 80       	ldd	r10, Y+3	; 0x03
    2882:	bc 80       	ldd	r11, Y+4	; 0x04
    2884:	6d 81       	ldd	r22, Y+5	; 0x05
    2886:	7e 81       	ldd	r23, Y+6	; 0x06
    2888:	07 2e       	mov	r0, r23
    288a:	00 0c       	add	r0, r0
    288c:	88 0b       	sbc	r24, r24
    288e:	99 0b       	sbc	r25, r25
    2890:	8b d2       	rcall	.+1302   	; 0x2da8 <__floatsisf>
    2892:	20 e0       	ldi	r18, 0x00	; 0
    2894:	30 e4       	ldi	r19, 0x40	; 64
    2896:	4c e1       	ldi	r20, 0x1C	; 28
    2898:	56 e4       	ldi	r21, 0x46	; 70
    289a:	b1 d1       	rcall	.+866    	; 0x2bfe <__divsf3>
    289c:	6b 01       	movw	r12, r22
    289e:	7c 01       	movw	r14, r24
    28a0:	c5 01       	movw	r24, r10
    28a2:	b4 01       	movw	r22, r8
    28a4:	24 e6       	ldi	r18, 0x64	; 100
    28a6:	30 e0       	ldi	r19, 0x00	; 0
    28a8:	40 e0       	ldi	r20, 0x00	; 0
    28aa:	50 e0       	ldi	r21, 0x00	; 0
    28ac:	61 d5       	rcall	.+2754   	; 0x3370 <__divmodsi4>
    28ae:	49 01       	movw	r8, r18
    28b0:	5a 01       	movw	r10, r20
    28b2:	7a d2       	rcall	.+1268   	; 0x2da8 <__floatsisf>
    28b4:	9b 01       	movw	r18, r22
    28b6:	ac 01       	movw	r20, r24
    28b8:	c7 01       	movw	r24, r14
    28ba:	b6 01       	movw	r22, r12
    28bc:	38 d1       	rcall	.+624    	; 0x2b2e <__addsf3>
    28be:	20 e0       	ldi	r18, 0x00	; 0
    28c0:	30 e0       	ldi	r19, 0x00	; 0
    28c2:	40 e7       	ldi	r20, 0x70	; 112
    28c4:	52 e4       	ldi	r21, 0x42	; 66
    28c6:	9b d1       	rcall	.+822    	; 0x2bfe <__divsf3>
    28c8:	6b 01       	movw	r12, r22
    28ca:	7c 01       	movw	r14, r24
    28cc:	c5 01       	movw	r24, r10
    28ce:	b4 01       	movw	r22, r8
    28d0:	6b d2       	rcall	.+1238   	; 0x2da8 <__floatsisf>
    28d2:	9b 01       	movw	r18, r22
    28d4:	ac 01       	movw	r20, r24
    28d6:	c7 01       	movw	r24, r14
    28d8:	b6 01       	movw	r22, r12
    28da:	29 d1       	rcall	.+594    	; 0x2b2e <__addsf3>
    28dc:	dc 01       	movw	r26, r24
    28de:	cb 01       	movw	r24, r22
    28e0:	b0 58       	subi	r27, 0x80	; 128
    28e2:	80 93 c4 20 	sts	0x20C4, r24	; 0x8020c4 <gps_long>
    28e6:	90 93 c5 20 	sts	0x20C5, r25	; 0x8020c5 <gps_long+0x1>
    28ea:	a0 93 c6 20 	sts	0x20C6, r26	; 0x8020c6 <gps_long+0x2>
    28ee:	b0 93 c7 20 	sts	0x20C7, r27	; 0x8020c7 <gps_long+0x3>
    28f2:	cd bf       	out	0x3d, r28	; 61
				break;
    28f4:	de bf       	out	0x3e, r29	; 62
    28f6:	90 c0       	rjmp	.+288    	; 0x2a18 <__vector_91+0x4e2>
    28f8:	8e eb       	ldi	r24, 0xBE	; 190
			case 7:			//Sats
				sscanf(gps,"%d",&gps_sats);
    28fa:	90 e2       	ldi	r25, 0x20	; 32
    28fc:	9f 93       	push	r25
    28fe:	8f 93       	push	r24
    2900:	8a ea       	ldi	r24, 0xAA	; 170
    2902:	90 e2       	ldi	r25, 0x20	; 32
    2904:	9f 93       	push	r25
    2906:	8f 93       	push	r24
    2908:	8a e0       	ldi	r24, 0x0A	; 10
    290a:	91 e2       	ldi	r25, 0x21	; 33
    290c:	9f 93       	push	r25
    290e:	8f 93       	push	r24
    2910:	0d d6       	rcall	.+3098   	; 0x352c <sscanf>
    2912:	0f 90       	pop	r0
    2914:	0f 90       	pop	r0
				break;
    2916:	0f 90       	pop	r0
    2918:	0f 90       	pop	r0
    291a:	0f 90       	pop	r0
    291c:	0f 90       	pop	r0
    291e:	7c c0       	rjmp	.+248    	; 0x2a18 <__vector_91+0x4e2>
    2920:	eb e0       	ldi	r30, 0x0B	; 11
    2922:	f1 e2       	ldi	r31, 0x21	; 33
    2924:	81 e0       	ldi	r24, 0x01	; 1
    2926:	91 91       	ld	r25, Z+
			case 9:			//Altitude
				for(uint8_t i = 0; i < 15; i++){
    2928:	9e 32       	cpi	r25, 0x2E	; 46
					if(gps[i] == (uint8_t) '.'){
    292a:	29 f4       	brne	.+10     	; 0x2936 <__vector_91+0x400>
    292c:	01 c0       	rjmp	.+2      	; 0x2930 <__vector_91+0x3fa>
    292e:	80 e0       	ldi	r24, 0x00	; 0
    2930:	80 93 ea 20 	sts	0x20EA, r24	; 0x8020ea <idx>
						idx = i;
    2934:	03 c0       	rjmp	.+6      	; 0x293c <__vector_91+0x406>
    2936:	8f 5f       	subi	r24, 0xFF	; 255
						break;
    2938:	8f 30       	cpi	r24, 0x0F	; 15
				break;
			case 7:			//Sats
				sscanf(gps,"%d",&gps_sats);
				break;
			case 9:			//Altitude
				for(uint8_t i = 0; i < 15; i++){
    293a:	a9 f7       	brne	.-22     	; 0x2926 <__vector_91+0x3f0>
    293c:	20 91 ea 20 	lds	r18, 0x20EA	; 0x8020ea <idx>
					if(gps[i] == (uint8_t) '.'){
						idx = i;
						break;
					}
				}
				gps[idx] = 32;
    2940:	42 2f       	mov	r20, r18
    2942:	50 e0       	ldi	r21, 0x00	; 0
    2944:	fa 01       	movw	r30, r20
    2946:	e6 5f       	subi	r30, 0xF6	; 246
    2948:	fe 4d       	sbci	r31, 0xDE	; 222
    294a:	80 e2       	ldi	r24, 0x20	; 32
    294c:	80 83       	st	Z, r24
    294e:	2f 5f       	subi	r18, 0xFF	; 255
    2950:	2f 30       	cpi	r18, 0x0F	; 15
				for(uint8_t i = idx+1; i < 15; i++){
    2952:	f8 f4       	brcc	.+62     	; 0x2992 <__vector_91+0x45c>
    2954:	82 2f       	mov	r24, r18
    2956:	90 e0       	ldi	r25, 0x00	; 0
					if(gps[i] == 32){
    2958:	fc 01       	movw	r30, r24
    295a:	e6 5f       	subi	r30, 0xF6	; 246
    295c:	fe 4d       	sbci	r31, 0xDE	; 222
    295e:	30 81       	ld	r19, Z
    2960:	30 32       	cpi	r19, 0x20	; 32
    2962:	b9 f0       	breq	.+46     	; 0x2992 <__vector_91+0x45c>
    2964:	60 e2       	ldi	r22, 0x20	; 32
    2966:	08 c0       	rjmp	.+16     	; 0x2978 <__vector_91+0x442>
						break;
					}
					dec[i-idx-1] = gps[i];
					gps[i] = 32;
    2968:	82 2f       	mov	r24, r18
    296a:	90 e0       	ldi	r25, 0x00	; 0
						break;
					}
				}
				gps[idx] = 32;
				for(uint8_t i = idx+1; i < 15; i++){
					if(gps[i] == 32){
    296c:	fc 01       	movw	r30, r24
    296e:	e6 5f       	subi	r30, 0xF6	; 246
    2970:	fe 4d       	sbci	r31, 0xDE	; 222
    2972:	30 81       	ld	r19, Z
    2974:	30 32       	cpi	r19, 0x20	; 32
    2976:	69 f0       	breq	.+26     	; 0x2992 <__vector_91+0x45c>
    2978:	fc 01       	movw	r30, r24
    297a:	e4 1b       	sub	r30, r20
						break;
					}
					dec[i-idx-1] = gps[i];
    297c:	f5 0b       	sbc	r31, r21
    297e:	e8 5e       	subi	r30, 0xE8	; 232
    2980:	fe 4d       	sbci	r31, 0xDE	; 222
    2982:	30 83       	st	Z, r19
    2984:	fc 01       	movw	r30, r24
    2986:	e6 5f       	subi	r30, 0xF6	; 246
					gps[i] = 32;
    2988:	fe 4d       	sbci	r31, 0xDE	; 222
    298a:	60 83       	st	Z, r22
    298c:	2f 5f       	subi	r18, 0xFF	; 255
						idx = i;
						break;
					}
				}
				gps[idx] = 32;
				for(uint8_t i = idx+1; i < 15; i++){
    298e:	2f 30       	cpi	r18, 0x0F	; 15
    2990:	59 f7       	brne	.-42     	; 0x2968 <__vector_91+0x432>
    2992:	80 91 19 21 	lds	r24, 0x2119	; 0x802119 <dec>
						break;
					}
					dec[i-idx-1] = gps[i];
					gps[i] = 32;
				}
				if(dec[0] == 32){
    2996:	80 32       	cpi	r24, 0x20	; 32
    2998:	19 f4       	brne	.+6      	; 0x29a0 <__vector_91+0x46a>
    299a:	80 e3       	ldi	r24, 0x30	; 48
					dec[0] = '0';
    299c:	80 93 19 21 	sts	0x2119, r24	; 0x802119 <dec>
    29a0:	ce 01       	movw	r24, r28
				}
				sscanf(gps,"%ld",&val);
    29a2:	01 96       	adiw	r24, 0x01	; 1
    29a4:	9f 93       	push	r25
    29a6:	8f 93       	push	r24
    29a8:	86 ea       	ldi	r24, 0xA6	; 166
    29aa:	90 e2       	ldi	r25, 0x20	; 32
    29ac:	9f 93       	push	r25
    29ae:	8f 93       	push	r24
    29b0:	8a e0       	ldi	r24, 0x0A	; 10
    29b2:	91 e2       	ldi	r25, 0x21	; 33
    29b4:	9f 93       	push	r25
    29b6:	8f 93       	push	r24
    29b8:	b9 d5       	rcall	.+2930   	; 0x352c <sscanf>
				sscanf(dec,"%d",&val2);
    29ba:	ce 01       	movw	r24, r28
    29bc:	05 96       	adiw	r24, 0x05	; 5
    29be:	9f 93       	push	r25
    29c0:	8f 93       	push	r24
    29c2:	8a ea       	ldi	r24, 0xAA	; 170
    29c4:	90 e2       	ldi	r25, 0x20	; 32
    29c6:	9f 93       	push	r25
    29c8:	8f 93       	push	r24
    29ca:	89 e1       	ldi	r24, 0x19	; 25
    29cc:	91 e2       	ldi	r25, 0x21	; 33
    29ce:	9f 93       	push	r25
    29d0:	8f 93       	push	r24
				gps_alt = (double) val + ((double) val2/10.0);
    29d2:	ac d5       	rcall	.+2904   	; 0x352c <sscanf>
    29d4:	69 81       	ldd	r22, Y+1	; 0x01
    29d6:	7a 81       	ldd	r23, Y+2	; 0x02
    29d8:	8b 81       	ldd	r24, Y+3	; 0x03
    29da:	9c 81       	ldd	r25, Y+4	; 0x04
    29dc:	e5 d1       	rcall	.+970    	; 0x2da8 <__floatsisf>
    29de:	6b 01       	movw	r12, r22
    29e0:	7c 01       	movw	r14, r24
    29e2:	6d 81       	ldd	r22, Y+5	; 0x05
    29e4:	7e 81       	ldd	r23, Y+6	; 0x06
    29e6:	07 2e       	mov	r0, r23
    29e8:	00 0c       	add	r0, r0
    29ea:	88 0b       	sbc	r24, r24
    29ec:	99 0b       	sbc	r25, r25
    29ee:	dc d1       	rcall	.+952    	; 0x2da8 <__floatsisf>
    29f0:	20 e0       	ldi	r18, 0x00	; 0
    29f2:	30 e0       	ldi	r19, 0x00	; 0
    29f4:	40 e2       	ldi	r20, 0x20	; 32
    29f6:	51 e4       	ldi	r21, 0x41	; 65
    29f8:	02 d1       	rcall	.+516    	; 0x2bfe <__divsf3>
    29fa:	9b 01       	movw	r18, r22
    29fc:	ac 01       	movw	r20, r24
    29fe:	c7 01       	movw	r24, r14
    2a00:	b6 01       	movw	r22, r12
    2a02:	95 d0       	rcall	.+298    	; 0x2b2e <__addsf3>
    2a04:	60 93 c0 20 	sts	0x20C0, r22	; 0x8020c0 <gps_alt>
    2a08:	70 93 c1 20 	sts	0x20C1, r23	; 0x8020c1 <gps_alt+0x1>
    2a0c:	80 93 c2 20 	sts	0x20C2, r24	; 0x8020c2 <gps_alt+0x2>
    2a10:	90 93 c3 20 	sts	0x20C3, r25	; 0x8020c3 <gps_alt+0x3>
    2a14:	cd bf       	out	0x3d, r28	; 61
    2a16:	de bf       	out	0x3e, r29	; 62
    2a18:	80 91 ee 20 	lds	r24, 0x20EE	; 0x8020ee <writing>
				break;
    2a1c:	88 23       	and	r24, r24
		}
	
		if(writing){
    2a1e:	d1 f0       	breq	.+52     	; 0x2a54 <__vector_91+0x51e>
    2a20:	10 92 ea 20 	sts	0x20EA, r1	; 0x8020ea <idx>
    2a24:	80 91 eb 20 	lds	r24, 0x20EB	; 0x8020eb <commas>
			idx = 0;
    2a28:	8f 5f       	subi	r24, 0xFF	; 255
			commas++;
    2a2a:	80 93 eb 20 	sts	0x20EB, r24	; 0x8020eb <commas>
    2a2e:	10 92 ec 20 	sts	0x20EC, r1	; 0x8020ec <word_pos>
    2a32:	ea e0       	ldi	r30, 0x0A	; 10
			word_pos = 0;
    2a34:	f1 e2       	ldi	r31, 0x21	; 33
    2a36:	29 e1       	ldi	r18, 0x19	; 25
    2a38:	31 e2       	ldi	r19, 0x21	; 33
    2a3a:	80 e2       	ldi	r24, 0x20	; 32
    2a3c:	81 93       	st	Z+, r24
    2a3e:	2e 17       	cp	r18, r30
			for(uint8_t i = 0; i < 15; i++){
				gps[i] = 32;
    2a40:	3f 07       	cpc	r19, r31
    2a42:	e1 f7       	brne	.-8      	; 0x2a3c <__vector_91+0x506>
	
		if(writing){
			idx = 0;
			commas++;
			word_pos = 0;
			for(uint8_t i = 0; i < 15; i++){
    2a44:	e9 e1       	ldi	r30, 0x19	; 25
    2a46:	f1 e2       	ldi	r31, 0x21	; 33
    2a48:	80 e2       	ldi	r24, 0x20	; 32
				gps[i] = 32;
			}
			for(uint8_t i = 0; i < 5; i++){
				dec[i] = 32;
    2a4a:	80 83       	st	Z, r24
    2a4c:	81 83       	std	Z+1, r24	; 0x01
    2a4e:	82 83       	std	Z+2, r24	; 0x02
    2a50:	83 83       	std	Z+3, r24	; 0x03
    2a52:	84 83       	std	Z+4, r24	; 0x04
    2a54:	80 91 ee 20 	lds	r24, 0x20EE	; 0x8020ee <writing>
    2a58:	88 23       	and	r24, r24
			}
		}
	}
		
	if(writing){
    2a5a:	09 f4       	brne	.+2      	; 0x2a5e <__vector_91+0x528>
    2a5c:	40 c0       	rjmp	.+128    	; 0x2ade <__vector_91+0x5a8>
    2a5e:	90 91 ed 20 	lds	r25, 0x20ED	; 0x8020ed <pos>
    2a62:	93 30       	cpi	r25, 0x03	; 3
		switch(pos){
    2a64:	19 f0       	breq	.+6      	; 0x2a6c <__vector_91+0x536>
    2a66:	94 30       	cpi	r25, 0x04	; 4
    2a68:	31 f0       	breq	.+12     	; 0x2a76 <__vector_91+0x540>
    2a6a:	09 c0       	rjmp	.+18     	; 0x2a7e <__vector_91+0x548>
    2a6c:	17 34       	cpi	r17, 0x47	; 71
    2a6e:	39 f0       	breq	.+14     	; 0x2a7e <__vector_91+0x548>
    2a70:	10 92 ee 20 	sts	0x20EE, r1	; 0x8020ee <writing>
			case 3:
				if(c != 'G'){
    2a74:	04 c0       	rjmp	.+8      	; 0x2a7e <__vector_91+0x548>
					writing = 0;
    2a76:	17 34       	cpi	r17, 0x47	; 71
    2a78:	11 f0       	breq	.+4      	; 0x2a7e <__vector_91+0x548>
    2a7a:	10 92 ee 20 	sts	0x20EE, r1	; 0x8020ee <writing>
				}
				break;
				
			case 4:
				if(c != 'G'){
    2a7e:	80 91 ec 20 	lds	r24, 0x20EC	; 0x8020ec <word_pos>
					writing = 0;
    2a82:	e8 2f       	mov	r30, r24
				}
				break;
		}
		gps[word_pos] = c;
    2a84:	f0 e0       	ldi	r31, 0x00	; 0
    2a86:	e6 5f       	subi	r30, 0xF6	; 246
    2a88:	fe 4d       	sbci	r31, 0xDE	; 222
    2a8a:	10 83       	st	Z, r17
    2a8c:	8f 5f       	subi	r24, 0xFF	; 255
    2a8e:	80 93 ec 20 	sts	0x20EC, r24	; 0x8020ec <word_pos>
		word_pos++;
    2a92:	9f 5f       	subi	r25, 0xFF	; 255
    2a94:	90 93 ed 20 	sts	0x20ED, r25	; 0x8020ed <pos>
		pos++;
    2a98:	22 c0       	rjmp	.+68     	; 0x2ade <__vector_91+0x5a8>
    2a9a:	80 91 0a 21 	lds	r24, 0x210A	; 0x80210a <gps>
	}
}
    2a9e:	8e 32       	cpi	r24, 0x2E	; 46
		int32_t val = 0;
		int16_t val2 = 0;
		switch(commas){
			case 1:			//Time
				for(uint8_t i = 0; i < 15; i++){
					if(gps[i] == (uint8_t) '.'){
    2aa0:	09 f4       	brne	.+2      	; 0x2aa4 <__vector_91+0x56e>
    2aa2:	b1 cd       	rjmp	.-1182   	; 0x2606 <__vector_91+0xd0>
    2aa4:	eb e0       	ldi	r30, 0x0B	; 11
    2aa6:	f1 e2       	ldi	r31, 0x21	; 33
    2aa8:	81 e0       	ldi	r24, 0x01	; 1
    2aaa:	a9 cd       	rjmp	.-1198   	; 0x25fe <__vector_91+0xc8>
    2aac:	19 82       	std	Y+1, r1	; 0x01
		}
		int32_t val = 0;
		int16_t val2 = 0;
		switch(commas){
			case 1:			//Time
				for(uint8_t i = 0; i < 15; i++){
    2aae:	1a 82       	std	Y+2, r1	; 0x02
    2ab0:	1b 82       	std	Y+3, r1	; 0x03
	else if(c == (uint8_t) ','){
		gps[0] = 32;
		if(gps[1] == 32){
			gps[0] = '0';
		}
		int32_t val = 0;
    2ab2:	1c 82       	std	Y+4, r1	; 0x04
    2ab4:	1d 82       	std	Y+5, r1	; 0x05
    2ab6:	1e 82       	std	Y+6, r1	; 0x06
    2ab8:	80 91 eb 20 	lds	r24, 0x20EB	; 0x8020eb <commas>
		int16_t val2 = 0;
    2abc:	84 30       	cpi	r24, 0x04	; 4
		switch(commas){
    2abe:	09 f4       	brne	.+2      	; 0x2ac2 <__vector_91+0x58c>
    2ac0:	92 cd       	rjmp	.-1244   	; 0x25e6 <__vector_91+0xb0>
    2ac2:	30 f4       	brcc	.+12     	; 0x2ad0 <__vector_91+0x59a>
    2ac4:	81 30       	cpi	r24, 0x01	; 1
    2ac6:	49 f3       	breq	.-46     	; 0x2a9a <__vector_91+0x564>
    2ac8:	82 30       	cpi	r24, 0x02	; 2
    2aca:	09 f4       	brne	.+2      	; 0x2ace <__vector_91+0x598>
    2acc:	92 cd       	rjmp	.-1244   	; 0x25f2 <__vector_91+0xbc>
    2ace:	a4 cf       	rjmp	.-184    	; 0x2a18 <__vector_91+0x4e2>
    2ad0:	87 30       	cpi	r24, 0x07	; 7
    2ad2:	09 f4       	brne	.+2      	; 0x2ad6 <__vector_91+0x5a0>
    2ad4:	11 cf       	rjmp	.-478    	; 0x28f8 <__vector_91+0x3c2>
    2ad6:	89 30       	cpi	r24, 0x09	; 9
    2ad8:	09 f4       	brne	.+2      	; 0x2adc <__vector_91+0x5a6>
    2ada:	7f cd       	rjmp	.-1282   	; 0x25da <__vector_91+0xa4>
    2adc:	9d cf       	rjmp	.-198    	; 0x2a18 <__vector_91+0x4e2>
    2ade:	26 96       	adiw	r28, 0x06	; 6
    2ae0:	cd bf       	out	0x3d, r28	; 61
    2ae2:	de bf       	out	0x3e, r29	; 62
		}
		gps[word_pos] = c;
		word_pos++;
		pos++;
	}
}
    2ae4:	df 91       	pop	r29
    2ae6:	cf 91       	pop	r28
    2ae8:	ff 91       	pop	r31
    2aea:	ef 91       	pop	r30
    2aec:	bf 91       	pop	r27
    2aee:	af 91       	pop	r26
    2af0:	9f 91       	pop	r25
    2af2:	8f 91       	pop	r24
    2af4:	7f 91       	pop	r23
    2af6:	6f 91       	pop	r22
    2af8:	5f 91       	pop	r21
    2afa:	4f 91       	pop	r20
    2afc:	3f 91       	pop	r19
    2afe:	2f 91       	pop	r18
    2b00:	1f 91       	pop	r17
    2b02:	ff 90       	pop	r15
    2b04:	ef 90       	pop	r14
    2b06:	df 90       	pop	r13
    2b08:	cf 90       	pop	r12
    2b0a:	bf 90       	pop	r11
    2b0c:	af 90       	pop	r10
    2b0e:	9f 90       	pop	r9
    2b10:	8f 90       	pop	r8
    2b12:	0f 90       	pop	r0
    2b14:	0b be       	out	0x3b, r0	; 59
    2b16:	0f 90       	pop	r0
    2b18:	0a be       	out	0x3a, r0	; 58
    2b1a:	0f 90       	pop	r0
    2b1c:	09 be       	out	0x39, r0	; 57
    2b1e:	0f 90       	pop	r0
    2b20:	08 be       	out	0x38, r0	; 56
    2b22:	0f 90       	pop	r0
    2b24:	0f be       	out	0x3f, r0	; 63
    2b26:	0f 90       	pop	r0
    2b28:	1f 90       	pop	r1
    2b2a:	18 95       	reti

00002b2c <__subsf3>:
    2b2c:	50 58       	subi	r21, 0x80	; 128

00002b2e <__addsf3>:
    2b2e:	bb 27       	eor	r27, r27
    2b30:	aa 27       	eor	r26, r26
    2b32:	0e d0       	rcall	.+28     	; 0x2b50 <__addsf3x>
    2b34:	e4 c1       	rjmp	.+968    	; 0x2efe <__fp_round>
    2b36:	d5 d1       	rcall	.+938    	; 0x2ee2 <__fp_pscA>
    2b38:	30 f0       	brcs	.+12     	; 0x2b46 <__addsf3+0x18>
    2b3a:	da d1       	rcall	.+948    	; 0x2ef0 <__fp_pscB>
    2b3c:	20 f0       	brcs	.+8      	; 0x2b46 <__addsf3+0x18>
    2b3e:	31 f4       	brne	.+12     	; 0x2b4c <__addsf3+0x1e>
    2b40:	9f 3f       	cpi	r25, 0xFF	; 255
    2b42:	11 f4       	brne	.+4      	; 0x2b48 <__addsf3+0x1a>
    2b44:	1e f4       	brtc	.+6      	; 0x2b4c <__addsf3+0x1e>
    2b46:	95 c1       	rjmp	.+810    	; 0x2e72 <__fp_nan>
    2b48:	0e f4       	brtc	.+2      	; 0x2b4c <__addsf3+0x1e>
    2b4a:	e0 95       	com	r30
    2b4c:	e7 fb       	bst	r30, 7
    2b4e:	8b c1       	rjmp	.+790    	; 0x2e66 <__fp_inf>

00002b50 <__addsf3x>:
    2b50:	e9 2f       	mov	r30, r25
    2b52:	e6 d1       	rcall	.+972    	; 0x2f20 <__fp_split3>
    2b54:	80 f3       	brcs	.-32     	; 0x2b36 <__addsf3+0x8>
    2b56:	ba 17       	cp	r27, r26
    2b58:	62 07       	cpc	r22, r18
    2b5a:	73 07       	cpc	r23, r19
    2b5c:	84 07       	cpc	r24, r20
    2b5e:	95 07       	cpc	r25, r21
    2b60:	18 f0       	brcs	.+6      	; 0x2b68 <__addsf3x+0x18>
    2b62:	71 f4       	brne	.+28     	; 0x2b80 <__addsf3x+0x30>
    2b64:	9e f5       	brtc	.+102    	; 0x2bcc <__addsf3x+0x7c>
    2b66:	fe c1       	rjmp	.+1020   	; 0x2f64 <__fp_zero>
    2b68:	0e f4       	brtc	.+2      	; 0x2b6c <__addsf3x+0x1c>
    2b6a:	e0 95       	com	r30
    2b6c:	0b 2e       	mov	r0, r27
    2b6e:	ba 2f       	mov	r27, r26
    2b70:	a0 2d       	mov	r26, r0
    2b72:	0b 01       	movw	r0, r22
    2b74:	b9 01       	movw	r22, r18
    2b76:	90 01       	movw	r18, r0
    2b78:	0c 01       	movw	r0, r24
    2b7a:	ca 01       	movw	r24, r20
    2b7c:	a0 01       	movw	r20, r0
    2b7e:	11 24       	eor	r1, r1
    2b80:	ff 27       	eor	r31, r31
    2b82:	59 1b       	sub	r21, r25
    2b84:	99 f0       	breq	.+38     	; 0x2bac <__addsf3x+0x5c>
    2b86:	59 3f       	cpi	r21, 0xF9	; 249
    2b88:	50 f4       	brcc	.+20     	; 0x2b9e <__addsf3x+0x4e>
    2b8a:	50 3e       	cpi	r21, 0xE0	; 224
    2b8c:	68 f1       	brcs	.+90     	; 0x2be8 <__addsf3x+0x98>
    2b8e:	1a 16       	cp	r1, r26
    2b90:	f0 40       	sbci	r31, 0x00	; 0
    2b92:	a2 2f       	mov	r26, r18
    2b94:	23 2f       	mov	r18, r19
    2b96:	34 2f       	mov	r19, r20
    2b98:	44 27       	eor	r20, r20
    2b9a:	58 5f       	subi	r21, 0xF8	; 248
    2b9c:	f3 cf       	rjmp	.-26     	; 0x2b84 <__addsf3x+0x34>
    2b9e:	46 95       	lsr	r20
    2ba0:	37 95       	ror	r19
    2ba2:	27 95       	ror	r18
    2ba4:	a7 95       	ror	r26
    2ba6:	f0 40       	sbci	r31, 0x00	; 0
    2ba8:	53 95       	inc	r21
    2baa:	c9 f7       	brne	.-14     	; 0x2b9e <__addsf3x+0x4e>
    2bac:	7e f4       	brtc	.+30     	; 0x2bcc <__addsf3x+0x7c>
    2bae:	1f 16       	cp	r1, r31
    2bb0:	ba 0b       	sbc	r27, r26
    2bb2:	62 0b       	sbc	r22, r18
    2bb4:	73 0b       	sbc	r23, r19
    2bb6:	84 0b       	sbc	r24, r20
    2bb8:	ba f0       	brmi	.+46     	; 0x2be8 <__addsf3x+0x98>
    2bba:	91 50       	subi	r25, 0x01	; 1
    2bbc:	a1 f0       	breq	.+40     	; 0x2be6 <__addsf3x+0x96>
    2bbe:	ff 0f       	add	r31, r31
    2bc0:	bb 1f       	adc	r27, r27
    2bc2:	66 1f       	adc	r22, r22
    2bc4:	77 1f       	adc	r23, r23
    2bc6:	88 1f       	adc	r24, r24
    2bc8:	c2 f7       	brpl	.-16     	; 0x2bba <__addsf3x+0x6a>
    2bca:	0e c0       	rjmp	.+28     	; 0x2be8 <__addsf3x+0x98>
    2bcc:	ba 0f       	add	r27, r26
    2bce:	62 1f       	adc	r22, r18
    2bd0:	73 1f       	adc	r23, r19
    2bd2:	84 1f       	adc	r24, r20
    2bd4:	48 f4       	brcc	.+18     	; 0x2be8 <__addsf3x+0x98>
    2bd6:	87 95       	ror	r24
    2bd8:	77 95       	ror	r23
    2bda:	67 95       	ror	r22
    2bdc:	b7 95       	ror	r27
    2bde:	f7 95       	ror	r31
    2be0:	9e 3f       	cpi	r25, 0xFE	; 254
    2be2:	08 f0       	brcs	.+2      	; 0x2be6 <__addsf3x+0x96>
    2be4:	b3 cf       	rjmp	.-154    	; 0x2b4c <__addsf3+0x1e>
    2be6:	93 95       	inc	r25
    2be8:	88 0f       	add	r24, r24
    2bea:	08 f0       	brcs	.+2      	; 0x2bee <__addsf3x+0x9e>
    2bec:	99 27       	eor	r25, r25
    2bee:	ee 0f       	add	r30, r30
    2bf0:	97 95       	ror	r25
    2bf2:	87 95       	ror	r24
    2bf4:	08 95       	ret

00002bf6 <__cmpsf2>:
    2bf6:	13 d1       	rcall	.+550    	; 0x2e1e <__fp_cmp>
    2bf8:	08 f4       	brcc	.+2      	; 0x2bfc <__cmpsf2+0x6>
    2bfa:	81 e0       	ldi	r24, 0x01	; 1
    2bfc:	08 95       	ret

00002bfe <__divsf3>:
    2bfe:	0c d0       	rcall	.+24     	; 0x2c18 <__divsf3x>
    2c00:	7e c1       	rjmp	.+764    	; 0x2efe <__fp_round>
    2c02:	76 d1       	rcall	.+748    	; 0x2ef0 <__fp_pscB>
    2c04:	40 f0       	brcs	.+16     	; 0x2c16 <__divsf3+0x18>
    2c06:	6d d1       	rcall	.+730    	; 0x2ee2 <__fp_pscA>
    2c08:	30 f0       	brcs	.+12     	; 0x2c16 <__divsf3+0x18>
    2c0a:	21 f4       	brne	.+8      	; 0x2c14 <__divsf3+0x16>
    2c0c:	5f 3f       	cpi	r21, 0xFF	; 255
    2c0e:	19 f0       	breq	.+6      	; 0x2c16 <__divsf3+0x18>
    2c10:	2a c1       	rjmp	.+596    	; 0x2e66 <__fp_inf>
    2c12:	51 11       	cpse	r21, r1
    2c14:	a8 c1       	rjmp	.+848    	; 0x2f66 <__fp_szero>
    2c16:	2d c1       	rjmp	.+602    	; 0x2e72 <__fp_nan>

00002c18 <__divsf3x>:
    2c18:	83 d1       	rcall	.+774    	; 0x2f20 <__fp_split3>
    2c1a:	98 f3       	brcs	.-26     	; 0x2c02 <__divsf3+0x4>

00002c1c <__divsf3_pse>:
    2c1c:	99 23       	and	r25, r25
    2c1e:	c9 f3       	breq	.-14     	; 0x2c12 <__divsf3+0x14>
    2c20:	55 23       	and	r21, r21
    2c22:	b1 f3       	breq	.-20     	; 0x2c10 <__divsf3+0x12>
    2c24:	95 1b       	sub	r25, r21
    2c26:	55 0b       	sbc	r21, r21
    2c28:	bb 27       	eor	r27, r27
    2c2a:	aa 27       	eor	r26, r26
    2c2c:	62 17       	cp	r22, r18
    2c2e:	73 07       	cpc	r23, r19
    2c30:	84 07       	cpc	r24, r20
    2c32:	38 f0       	brcs	.+14     	; 0x2c42 <__divsf3_pse+0x26>
    2c34:	9f 5f       	subi	r25, 0xFF	; 255
    2c36:	5f 4f       	sbci	r21, 0xFF	; 255
    2c38:	22 0f       	add	r18, r18
    2c3a:	33 1f       	adc	r19, r19
    2c3c:	44 1f       	adc	r20, r20
    2c3e:	aa 1f       	adc	r26, r26
    2c40:	a9 f3       	breq	.-22     	; 0x2c2c <__divsf3_pse+0x10>
    2c42:	33 d0       	rcall	.+102    	; 0x2caa <__divsf3_pse+0x8e>
    2c44:	0e 2e       	mov	r0, r30
    2c46:	3a f0       	brmi	.+14     	; 0x2c56 <__divsf3_pse+0x3a>
    2c48:	e0 e8       	ldi	r30, 0x80	; 128
    2c4a:	30 d0       	rcall	.+96     	; 0x2cac <__divsf3_pse+0x90>
    2c4c:	91 50       	subi	r25, 0x01	; 1
    2c4e:	50 40       	sbci	r21, 0x00	; 0
    2c50:	e6 95       	lsr	r30
    2c52:	00 1c       	adc	r0, r0
    2c54:	ca f7       	brpl	.-14     	; 0x2c48 <__divsf3_pse+0x2c>
    2c56:	29 d0       	rcall	.+82     	; 0x2caa <__divsf3_pse+0x8e>
    2c58:	fe 2f       	mov	r31, r30
    2c5a:	27 d0       	rcall	.+78     	; 0x2caa <__divsf3_pse+0x8e>
    2c5c:	66 0f       	add	r22, r22
    2c5e:	77 1f       	adc	r23, r23
    2c60:	88 1f       	adc	r24, r24
    2c62:	bb 1f       	adc	r27, r27
    2c64:	26 17       	cp	r18, r22
    2c66:	37 07       	cpc	r19, r23
    2c68:	48 07       	cpc	r20, r24
    2c6a:	ab 07       	cpc	r26, r27
    2c6c:	b0 e8       	ldi	r27, 0x80	; 128
    2c6e:	09 f0       	breq	.+2      	; 0x2c72 <__divsf3_pse+0x56>
    2c70:	bb 0b       	sbc	r27, r27
    2c72:	80 2d       	mov	r24, r0
    2c74:	bf 01       	movw	r22, r30
    2c76:	ff 27       	eor	r31, r31
    2c78:	93 58       	subi	r25, 0x83	; 131
    2c7a:	5f 4f       	sbci	r21, 0xFF	; 255
    2c7c:	2a f0       	brmi	.+10     	; 0x2c88 <__divsf3_pse+0x6c>
    2c7e:	9e 3f       	cpi	r25, 0xFE	; 254
    2c80:	51 05       	cpc	r21, r1
    2c82:	68 f0       	brcs	.+26     	; 0x2c9e <__divsf3_pse+0x82>
    2c84:	f0 c0       	rjmp	.+480    	; 0x2e66 <__fp_inf>
    2c86:	6f c1       	rjmp	.+734    	; 0x2f66 <__fp_szero>
    2c88:	5f 3f       	cpi	r21, 0xFF	; 255
    2c8a:	ec f3       	brlt	.-6      	; 0x2c86 <__divsf3_pse+0x6a>
    2c8c:	98 3e       	cpi	r25, 0xE8	; 232
    2c8e:	dc f3       	brlt	.-10     	; 0x2c86 <__divsf3_pse+0x6a>
    2c90:	86 95       	lsr	r24
    2c92:	77 95       	ror	r23
    2c94:	67 95       	ror	r22
    2c96:	b7 95       	ror	r27
    2c98:	f7 95       	ror	r31
    2c9a:	9f 5f       	subi	r25, 0xFF	; 255
    2c9c:	c9 f7       	brne	.-14     	; 0x2c90 <__divsf3_pse+0x74>
    2c9e:	88 0f       	add	r24, r24
    2ca0:	91 1d       	adc	r25, r1
    2ca2:	96 95       	lsr	r25
    2ca4:	87 95       	ror	r24
    2ca6:	97 f9       	bld	r25, 7
    2ca8:	08 95       	ret
    2caa:	e1 e0       	ldi	r30, 0x01	; 1
    2cac:	66 0f       	add	r22, r22
    2cae:	77 1f       	adc	r23, r23
    2cb0:	88 1f       	adc	r24, r24
    2cb2:	bb 1f       	adc	r27, r27
    2cb4:	62 17       	cp	r22, r18
    2cb6:	73 07       	cpc	r23, r19
    2cb8:	84 07       	cpc	r24, r20
    2cba:	ba 07       	cpc	r27, r26
    2cbc:	20 f0       	brcs	.+8      	; 0x2cc6 <__divsf3_pse+0xaa>
    2cbe:	62 1b       	sub	r22, r18
    2cc0:	73 0b       	sbc	r23, r19
    2cc2:	84 0b       	sbc	r24, r20
    2cc4:	ba 0b       	sbc	r27, r26
    2cc6:	ee 1f       	adc	r30, r30
    2cc8:	88 f7       	brcc	.-30     	; 0x2cac <__divsf3_pse+0x90>
    2cca:	e0 95       	com	r30
    2ccc:	08 95       	ret

00002cce <__fixsfdi>:
    2cce:	be e3       	ldi	r27, 0x3E	; 62
    2cd0:	04 d0       	rcall	.+8      	; 0x2cda <__fixunssfdi+0x2>
    2cd2:	08 f4       	brcc	.+2      	; 0x2cd6 <__fixsfdi+0x8>
    2cd4:	90 e8       	ldi	r25, 0x80	; 128
    2cd6:	08 95       	ret

00002cd8 <__fixunssfdi>:
    2cd8:	bf e3       	ldi	r27, 0x3F	; 63
    2cda:	22 27       	eor	r18, r18
    2cdc:	33 27       	eor	r19, r19
    2cde:	a9 01       	movw	r20, r18
    2ce0:	27 d1       	rcall	.+590    	; 0x2f30 <__fp_splitA>
    2ce2:	58 f1       	brcs	.+86     	; 0x2d3a <__fixunssfdi+0x62>
    2ce4:	9f 57       	subi	r25, 0x7F	; 127
    2ce6:	40 f1       	brcs	.+80     	; 0x2d38 <__fixunssfdi+0x60>
    2ce8:	b9 17       	cp	r27, r25
    2cea:	38 f1       	brcs	.+78     	; 0x2d3a <__fixunssfdi+0x62>
    2cec:	bf e3       	ldi	r27, 0x3F	; 63
    2cee:	b9 1b       	sub	r27, r25
    2cf0:	99 27       	eor	r25, r25
    2cf2:	b8 50       	subi	r27, 0x08	; 8
    2cf4:	3a f4       	brpl	.+14     	; 0x2d04 <__fixunssfdi+0x2c>
    2cf6:	66 0f       	add	r22, r22
    2cf8:	77 1f       	adc	r23, r23
    2cfa:	88 1f       	adc	r24, r24
    2cfc:	99 1f       	adc	r25, r25
    2cfe:	b3 95       	inc	r27
    2d00:	d2 f3       	brmi	.-12     	; 0x2cf6 <__fixunssfdi+0x1e>
    2d02:	16 c0       	rjmp	.+44     	; 0x2d30 <__fixunssfdi+0x58>
    2d04:	b8 50       	subi	r27, 0x08	; 8
    2d06:	4a f0       	brmi	.+18     	; 0x2d1a <__fixunssfdi+0x42>
    2d08:	23 2f       	mov	r18, r19
    2d0a:	34 2f       	mov	r19, r20
    2d0c:	45 2f       	mov	r20, r21
    2d0e:	56 2f       	mov	r21, r22
    2d10:	67 2f       	mov	r22, r23
    2d12:	78 2f       	mov	r23, r24
    2d14:	88 27       	eor	r24, r24
    2d16:	b8 50       	subi	r27, 0x08	; 8
    2d18:	ba f7       	brpl	.-18     	; 0x2d08 <__fixunssfdi+0x30>
    2d1a:	b8 5f       	subi	r27, 0xF8	; 248
    2d1c:	49 f0       	breq	.+18     	; 0x2d30 <__fixunssfdi+0x58>
    2d1e:	86 95       	lsr	r24
    2d20:	77 95       	ror	r23
    2d22:	67 95       	ror	r22
    2d24:	57 95       	ror	r21
    2d26:	47 95       	ror	r20
    2d28:	37 95       	ror	r19
    2d2a:	27 95       	ror	r18
    2d2c:	ba 95       	dec	r27
    2d2e:	b9 f7       	brne	.-18     	; 0x2d1e <__fixunssfdi+0x46>
    2d30:	0e f4       	brtc	.+2      	; 0x2d34 <__fixunssfdi+0x5c>
    2d32:	a2 d0       	rcall	.+324    	; 0x2e78 <__fp_negdi>
    2d34:	88 94       	clc
    2d36:	08 95       	ret
    2d38:	88 94       	clc
    2d3a:	60 e0       	ldi	r22, 0x00	; 0
    2d3c:	70 e0       	ldi	r23, 0x00	; 0
    2d3e:	cb 01       	movw	r24, r22
    2d40:	08 95       	ret

00002d42 <__fixsfsi>:
    2d42:	04 d0       	rcall	.+8      	; 0x2d4c <__fixunssfsi>
    2d44:	68 94       	set
    2d46:	b1 11       	cpse	r27, r1
    2d48:	0e c1       	rjmp	.+540    	; 0x2f66 <__fp_szero>
    2d4a:	08 95       	ret

00002d4c <__fixunssfsi>:
    2d4c:	f1 d0       	rcall	.+482    	; 0x2f30 <__fp_splitA>
    2d4e:	88 f0       	brcs	.+34     	; 0x2d72 <__fixunssfsi+0x26>
    2d50:	9f 57       	subi	r25, 0x7F	; 127
    2d52:	90 f0       	brcs	.+36     	; 0x2d78 <__fixunssfsi+0x2c>
    2d54:	b9 2f       	mov	r27, r25
    2d56:	99 27       	eor	r25, r25
    2d58:	b7 51       	subi	r27, 0x17	; 23
    2d5a:	a0 f0       	brcs	.+40     	; 0x2d84 <__fixunssfsi+0x38>
    2d5c:	d1 f0       	breq	.+52     	; 0x2d92 <__fixunssfsi+0x46>
    2d5e:	66 0f       	add	r22, r22
    2d60:	77 1f       	adc	r23, r23
    2d62:	88 1f       	adc	r24, r24
    2d64:	99 1f       	adc	r25, r25
    2d66:	1a f0       	brmi	.+6      	; 0x2d6e <__fixunssfsi+0x22>
    2d68:	ba 95       	dec	r27
    2d6a:	c9 f7       	brne	.-14     	; 0x2d5e <__fixunssfsi+0x12>
    2d6c:	12 c0       	rjmp	.+36     	; 0x2d92 <__fixunssfsi+0x46>
    2d6e:	b1 30       	cpi	r27, 0x01	; 1
    2d70:	81 f0       	breq	.+32     	; 0x2d92 <__fixunssfsi+0x46>
    2d72:	f8 d0       	rcall	.+496    	; 0x2f64 <__fp_zero>
    2d74:	b1 e0       	ldi	r27, 0x01	; 1
    2d76:	08 95       	ret
    2d78:	f5 c0       	rjmp	.+490    	; 0x2f64 <__fp_zero>
    2d7a:	67 2f       	mov	r22, r23
    2d7c:	78 2f       	mov	r23, r24
    2d7e:	88 27       	eor	r24, r24
    2d80:	b8 5f       	subi	r27, 0xF8	; 248
    2d82:	39 f0       	breq	.+14     	; 0x2d92 <__fixunssfsi+0x46>
    2d84:	b9 3f       	cpi	r27, 0xF9	; 249
    2d86:	cc f3       	brlt	.-14     	; 0x2d7a <__fixunssfsi+0x2e>
    2d88:	86 95       	lsr	r24
    2d8a:	77 95       	ror	r23
    2d8c:	67 95       	ror	r22
    2d8e:	b3 95       	inc	r27
    2d90:	d9 f7       	brne	.-10     	; 0x2d88 <__fixunssfsi+0x3c>
    2d92:	3e f4       	brtc	.+14     	; 0x2da2 <__fixunssfsi+0x56>
    2d94:	90 95       	com	r25
    2d96:	80 95       	com	r24
    2d98:	70 95       	com	r23
    2d9a:	61 95       	neg	r22
    2d9c:	7f 4f       	sbci	r23, 0xFF	; 255
    2d9e:	8f 4f       	sbci	r24, 0xFF	; 255
    2da0:	9f 4f       	sbci	r25, 0xFF	; 255
    2da2:	08 95       	ret

00002da4 <__floatunsisf>:
    2da4:	e8 94       	clt
    2da6:	09 c0       	rjmp	.+18     	; 0x2dba <__floatsisf+0x12>

00002da8 <__floatsisf>:
    2da8:	97 fb       	bst	r25, 7
    2daa:	3e f4       	brtc	.+14     	; 0x2dba <__floatsisf+0x12>
    2dac:	90 95       	com	r25
    2dae:	80 95       	com	r24
    2db0:	70 95       	com	r23
    2db2:	61 95       	neg	r22
    2db4:	7f 4f       	sbci	r23, 0xFF	; 255
    2db6:	8f 4f       	sbci	r24, 0xFF	; 255
    2db8:	9f 4f       	sbci	r25, 0xFF	; 255
    2dba:	99 23       	and	r25, r25
    2dbc:	a9 f0       	breq	.+42     	; 0x2de8 <__floatsisf+0x40>
    2dbe:	f9 2f       	mov	r31, r25
    2dc0:	96 e9       	ldi	r25, 0x96	; 150
    2dc2:	bb 27       	eor	r27, r27
    2dc4:	93 95       	inc	r25
    2dc6:	f6 95       	lsr	r31
    2dc8:	87 95       	ror	r24
    2dca:	77 95       	ror	r23
    2dcc:	67 95       	ror	r22
    2dce:	b7 95       	ror	r27
    2dd0:	f1 11       	cpse	r31, r1
    2dd2:	f8 cf       	rjmp	.-16     	; 0x2dc4 <__floatsisf+0x1c>
    2dd4:	fa f4       	brpl	.+62     	; 0x2e14 <__floatsisf+0x6c>
    2dd6:	bb 0f       	add	r27, r27
    2dd8:	11 f4       	brne	.+4      	; 0x2dde <__floatsisf+0x36>
    2dda:	60 ff       	sbrs	r22, 0
    2ddc:	1b c0       	rjmp	.+54     	; 0x2e14 <__floatsisf+0x6c>
    2dde:	6f 5f       	subi	r22, 0xFF	; 255
    2de0:	7f 4f       	sbci	r23, 0xFF	; 255
    2de2:	8f 4f       	sbci	r24, 0xFF	; 255
    2de4:	9f 4f       	sbci	r25, 0xFF	; 255
    2de6:	16 c0       	rjmp	.+44     	; 0x2e14 <__floatsisf+0x6c>
    2de8:	88 23       	and	r24, r24
    2dea:	11 f0       	breq	.+4      	; 0x2df0 <__floatsisf+0x48>
    2dec:	96 e9       	ldi	r25, 0x96	; 150
    2dee:	11 c0       	rjmp	.+34     	; 0x2e12 <__floatsisf+0x6a>
    2df0:	77 23       	and	r23, r23
    2df2:	21 f0       	breq	.+8      	; 0x2dfc <__floatsisf+0x54>
    2df4:	9e e8       	ldi	r25, 0x8E	; 142
    2df6:	87 2f       	mov	r24, r23
    2df8:	76 2f       	mov	r23, r22
    2dfa:	05 c0       	rjmp	.+10     	; 0x2e06 <__floatsisf+0x5e>
    2dfc:	66 23       	and	r22, r22
    2dfe:	71 f0       	breq	.+28     	; 0x2e1c <__floatsisf+0x74>
    2e00:	96 e8       	ldi	r25, 0x86	; 134
    2e02:	86 2f       	mov	r24, r22
    2e04:	70 e0       	ldi	r23, 0x00	; 0
    2e06:	60 e0       	ldi	r22, 0x00	; 0
    2e08:	2a f0       	brmi	.+10     	; 0x2e14 <__floatsisf+0x6c>
    2e0a:	9a 95       	dec	r25
    2e0c:	66 0f       	add	r22, r22
    2e0e:	77 1f       	adc	r23, r23
    2e10:	88 1f       	adc	r24, r24
    2e12:	da f7       	brpl	.-10     	; 0x2e0a <__floatsisf+0x62>
    2e14:	88 0f       	add	r24, r24
    2e16:	96 95       	lsr	r25
    2e18:	87 95       	ror	r24
    2e1a:	97 f9       	bld	r25, 7
    2e1c:	08 95       	ret

00002e1e <__fp_cmp>:
    2e1e:	99 0f       	add	r25, r25
    2e20:	00 08       	sbc	r0, r0
    2e22:	55 0f       	add	r21, r21
    2e24:	aa 0b       	sbc	r26, r26
    2e26:	e0 e8       	ldi	r30, 0x80	; 128
    2e28:	fe ef       	ldi	r31, 0xFE	; 254
    2e2a:	16 16       	cp	r1, r22
    2e2c:	17 06       	cpc	r1, r23
    2e2e:	e8 07       	cpc	r30, r24
    2e30:	f9 07       	cpc	r31, r25
    2e32:	c0 f0       	brcs	.+48     	; 0x2e64 <__fp_cmp+0x46>
    2e34:	12 16       	cp	r1, r18
    2e36:	13 06       	cpc	r1, r19
    2e38:	e4 07       	cpc	r30, r20
    2e3a:	f5 07       	cpc	r31, r21
    2e3c:	98 f0       	brcs	.+38     	; 0x2e64 <__fp_cmp+0x46>
    2e3e:	62 1b       	sub	r22, r18
    2e40:	73 0b       	sbc	r23, r19
    2e42:	84 0b       	sbc	r24, r20
    2e44:	95 0b       	sbc	r25, r21
    2e46:	39 f4       	brne	.+14     	; 0x2e56 <__fp_cmp+0x38>
    2e48:	0a 26       	eor	r0, r26
    2e4a:	61 f0       	breq	.+24     	; 0x2e64 <__fp_cmp+0x46>
    2e4c:	23 2b       	or	r18, r19
    2e4e:	24 2b       	or	r18, r20
    2e50:	25 2b       	or	r18, r21
    2e52:	21 f4       	brne	.+8      	; 0x2e5c <__fp_cmp+0x3e>
    2e54:	08 95       	ret
    2e56:	0a 26       	eor	r0, r26
    2e58:	09 f4       	brne	.+2      	; 0x2e5c <__fp_cmp+0x3e>
    2e5a:	a1 40       	sbci	r26, 0x01	; 1
    2e5c:	a6 95       	lsr	r26
    2e5e:	8f ef       	ldi	r24, 0xFF	; 255
    2e60:	81 1d       	adc	r24, r1
    2e62:	81 1d       	adc	r24, r1
    2e64:	08 95       	ret

00002e66 <__fp_inf>:
    2e66:	97 f9       	bld	r25, 7
    2e68:	9f 67       	ori	r25, 0x7F	; 127
    2e6a:	80 e8       	ldi	r24, 0x80	; 128
    2e6c:	70 e0       	ldi	r23, 0x00	; 0
    2e6e:	60 e0       	ldi	r22, 0x00	; 0
    2e70:	08 95       	ret

00002e72 <__fp_nan>:
    2e72:	9f ef       	ldi	r25, 0xFF	; 255
    2e74:	80 ec       	ldi	r24, 0xC0	; 192
    2e76:	08 95       	ret

00002e78 <__fp_negdi>:
    2e78:	90 95       	com	r25
    2e7a:	80 95       	com	r24
    2e7c:	70 95       	com	r23
    2e7e:	60 95       	com	r22
    2e80:	50 95       	com	r21
    2e82:	40 95       	com	r20
    2e84:	30 95       	com	r19
    2e86:	21 95       	neg	r18
    2e88:	3f 4f       	sbci	r19, 0xFF	; 255
    2e8a:	4f 4f       	sbci	r20, 0xFF	; 255
    2e8c:	5f 4f       	sbci	r21, 0xFF	; 255
    2e8e:	6f 4f       	sbci	r22, 0xFF	; 255
    2e90:	7f 4f       	sbci	r23, 0xFF	; 255
    2e92:	8f 4f       	sbci	r24, 0xFF	; 255
    2e94:	9f 4f       	sbci	r25, 0xFF	; 255
    2e96:	08 95       	ret

00002e98 <__fp_powser>:
    2e98:	df 93       	push	r29
    2e9a:	cf 93       	push	r28
    2e9c:	1f 93       	push	r17
    2e9e:	0f 93       	push	r16
    2ea0:	ff 92       	push	r15
    2ea2:	ef 92       	push	r14
    2ea4:	df 92       	push	r13
    2ea6:	7b 01       	movw	r14, r22
    2ea8:	8c 01       	movw	r16, r24
    2eaa:	68 94       	set
    2eac:	05 c0       	rjmp	.+10     	; 0x2eb8 <__fp_powser+0x20>
    2eae:	da 2e       	mov	r13, r26
    2eb0:	ef 01       	movw	r28, r30
    2eb2:	76 d0       	rcall	.+236    	; 0x2fa0 <__mulsf3x>
    2eb4:	fe 01       	movw	r30, r28
    2eb6:	e8 94       	clt
    2eb8:	a5 91       	lpm	r26, Z+
    2eba:	25 91       	lpm	r18, Z+
    2ebc:	35 91       	lpm	r19, Z+
    2ebe:	45 91       	lpm	r20, Z+
    2ec0:	55 91       	lpm	r21, Z+
    2ec2:	ae f3       	brts	.-22     	; 0x2eae <__fp_powser+0x16>
    2ec4:	ef 01       	movw	r28, r30
    2ec6:	44 de       	rcall	.-888    	; 0x2b50 <__addsf3x>
    2ec8:	fe 01       	movw	r30, r28
    2eca:	97 01       	movw	r18, r14
    2ecc:	a8 01       	movw	r20, r16
    2ece:	da 94       	dec	r13
    2ed0:	79 f7       	brne	.-34     	; 0x2eb0 <__fp_powser+0x18>
    2ed2:	df 90       	pop	r13
    2ed4:	ef 90       	pop	r14
    2ed6:	ff 90       	pop	r15
    2ed8:	0f 91       	pop	r16
    2eda:	1f 91       	pop	r17
    2edc:	cf 91       	pop	r28
    2ede:	df 91       	pop	r29
    2ee0:	08 95       	ret

00002ee2 <__fp_pscA>:
    2ee2:	00 24       	eor	r0, r0
    2ee4:	0a 94       	dec	r0
    2ee6:	16 16       	cp	r1, r22
    2ee8:	17 06       	cpc	r1, r23
    2eea:	18 06       	cpc	r1, r24
    2eec:	09 06       	cpc	r0, r25
    2eee:	08 95       	ret

00002ef0 <__fp_pscB>:
    2ef0:	00 24       	eor	r0, r0
    2ef2:	0a 94       	dec	r0
    2ef4:	12 16       	cp	r1, r18
    2ef6:	13 06       	cpc	r1, r19
    2ef8:	14 06       	cpc	r1, r20
    2efa:	05 06       	cpc	r0, r21
    2efc:	08 95       	ret

00002efe <__fp_round>:
    2efe:	09 2e       	mov	r0, r25
    2f00:	03 94       	inc	r0
    2f02:	00 0c       	add	r0, r0
    2f04:	11 f4       	brne	.+4      	; 0x2f0a <__fp_round+0xc>
    2f06:	88 23       	and	r24, r24
    2f08:	52 f0       	brmi	.+20     	; 0x2f1e <__fp_round+0x20>
    2f0a:	bb 0f       	add	r27, r27
    2f0c:	40 f4       	brcc	.+16     	; 0x2f1e <__fp_round+0x20>
    2f0e:	bf 2b       	or	r27, r31
    2f10:	11 f4       	brne	.+4      	; 0x2f16 <__fp_round+0x18>
    2f12:	60 ff       	sbrs	r22, 0
    2f14:	04 c0       	rjmp	.+8      	; 0x2f1e <__fp_round+0x20>
    2f16:	6f 5f       	subi	r22, 0xFF	; 255
    2f18:	7f 4f       	sbci	r23, 0xFF	; 255
    2f1a:	8f 4f       	sbci	r24, 0xFF	; 255
    2f1c:	9f 4f       	sbci	r25, 0xFF	; 255
    2f1e:	08 95       	ret

00002f20 <__fp_split3>:
    2f20:	57 fd       	sbrc	r21, 7
    2f22:	90 58       	subi	r25, 0x80	; 128
    2f24:	44 0f       	add	r20, r20
    2f26:	55 1f       	adc	r21, r21
    2f28:	59 f0       	breq	.+22     	; 0x2f40 <__fp_splitA+0x10>
    2f2a:	5f 3f       	cpi	r21, 0xFF	; 255
    2f2c:	71 f0       	breq	.+28     	; 0x2f4a <__fp_splitA+0x1a>
    2f2e:	47 95       	ror	r20

00002f30 <__fp_splitA>:
    2f30:	88 0f       	add	r24, r24
    2f32:	97 fb       	bst	r25, 7
    2f34:	99 1f       	adc	r25, r25
    2f36:	61 f0       	breq	.+24     	; 0x2f50 <__fp_splitA+0x20>
    2f38:	9f 3f       	cpi	r25, 0xFF	; 255
    2f3a:	79 f0       	breq	.+30     	; 0x2f5a <__fp_splitA+0x2a>
    2f3c:	87 95       	ror	r24
    2f3e:	08 95       	ret
    2f40:	12 16       	cp	r1, r18
    2f42:	13 06       	cpc	r1, r19
    2f44:	14 06       	cpc	r1, r20
    2f46:	55 1f       	adc	r21, r21
    2f48:	f2 cf       	rjmp	.-28     	; 0x2f2e <__fp_split3+0xe>
    2f4a:	46 95       	lsr	r20
    2f4c:	f1 df       	rcall	.-30     	; 0x2f30 <__fp_splitA>
    2f4e:	08 c0       	rjmp	.+16     	; 0x2f60 <__fp_splitA+0x30>
    2f50:	16 16       	cp	r1, r22
    2f52:	17 06       	cpc	r1, r23
    2f54:	18 06       	cpc	r1, r24
    2f56:	99 1f       	adc	r25, r25
    2f58:	f1 cf       	rjmp	.-30     	; 0x2f3c <__fp_splitA+0xc>
    2f5a:	86 95       	lsr	r24
    2f5c:	71 05       	cpc	r23, r1
    2f5e:	61 05       	cpc	r22, r1
    2f60:	08 94       	sec
    2f62:	08 95       	ret

00002f64 <__fp_zero>:
    2f64:	e8 94       	clt

00002f66 <__fp_szero>:
    2f66:	bb 27       	eor	r27, r27
    2f68:	66 27       	eor	r22, r22
    2f6a:	77 27       	eor	r23, r23
    2f6c:	cb 01       	movw	r24, r22
    2f6e:	97 f9       	bld	r25, 7
    2f70:	08 95       	ret

00002f72 <__gesf2>:
    2f72:	55 df       	rcall	.-342    	; 0x2e1e <__fp_cmp>
    2f74:	08 f4       	brcc	.+2      	; 0x2f78 <__gesf2+0x6>
    2f76:	8f ef       	ldi	r24, 0xFF	; 255
    2f78:	08 95       	ret

00002f7a <inverse>:
    2f7a:	9b 01       	movw	r18, r22
    2f7c:	ac 01       	movw	r20, r24
    2f7e:	60 e0       	ldi	r22, 0x00	; 0
    2f80:	70 e0       	ldi	r23, 0x00	; 0
    2f82:	80 e8       	ldi	r24, 0x80	; 128
    2f84:	9f e3       	ldi	r25, 0x3F	; 63
    2f86:	3b ce       	rjmp	.-906    	; 0x2bfe <__divsf3>

00002f88 <__mulsf3>:
    2f88:	0b d0       	rcall	.+22     	; 0x2fa0 <__mulsf3x>
    2f8a:	b9 cf       	rjmp	.-142    	; 0x2efe <__fp_round>
    2f8c:	aa df       	rcall	.-172    	; 0x2ee2 <__fp_pscA>
    2f8e:	28 f0       	brcs	.+10     	; 0x2f9a <__mulsf3+0x12>
    2f90:	af df       	rcall	.-162    	; 0x2ef0 <__fp_pscB>
    2f92:	18 f0       	brcs	.+6      	; 0x2f9a <__mulsf3+0x12>
    2f94:	95 23       	and	r25, r21
    2f96:	09 f0       	breq	.+2      	; 0x2f9a <__mulsf3+0x12>
    2f98:	66 cf       	rjmp	.-308    	; 0x2e66 <__fp_inf>
    2f9a:	6b cf       	rjmp	.-298    	; 0x2e72 <__fp_nan>
    2f9c:	11 24       	eor	r1, r1
    2f9e:	e3 cf       	rjmp	.-58     	; 0x2f66 <__fp_szero>

00002fa0 <__mulsf3x>:
    2fa0:	bf df       	rcall	.-130    	; 0x2f20 <__fp_split3>
    2fa2:	a0 f3       	brcs	.-24     	; 0x2f8c <__mulsf3+0x4>

00002fa4 <__mulsf3_pse>:
    2fa4:	95 9f       	mul	r25, r21
    2fa6:	d1 f3       	breq	.-12     	; 0x2f9c <__mulsf3+0x14>
    2fa8:	95 0f       	add	r25, r21
    2faa:	50 e0       	ldi	r21, 0x00	; 0
    2fac:	55 1f       	adc	r21, r21
    2fae:	62 9f       	mul	r22, r18
    2fb0:	f0 01       	movw	r30, r0
    2fb2:	72 9f       	mul	r23, r18
    2fb4:	bb 27       	eor	r27, r27
    2fb6:	f0 0d       	add	r31, r0
    2fb8:	b1 1d       	adc	r27, r1
    2fba:	63 9f       	mul	r22, r19
    2fbc:	aa 27       	eor	r26, r26
    2fbe:	f0 0d       	add	r31, r0
    2fc0:	b1 1d       	adc	r27, r1
    2fc2:	aa 1f       	adc	r26, r26
    2fc4:	64 9f       	mul	r22, r20
    2fc6:	66 27       	eor	r22, r22
    2fc8:	b0 0d       	add	r27, r0
    2fca:	a1 1d       	adc	r26, r1
    2fcc:	66 1f       	adc	r22, r22
    2fce:	82 9f       	mul	r24, r18
    2fd0:	22 27       	eor	r18, r18
    2fd2:	b0 0d       	add	r27, r0
    2fd4:	a1 1d       	adc	r26, r1
    2fd6:	62 1f       	adc	r22, r18
    2fd8:	73 9f       	mul	r23, r19
    2fda:	b0 0d       	add	r27, r0
    2fdc:	a1 1d       	adc	r26, r1
    2fde:	62 1f       	adc	r22, r18
    2fe0:	83 9f       	mul	r24, r19
    2fe2:	a0 0d       	add	r26, r0
    2fe4:	61 1d       	adc	r22, r1
    2fe6:	22 1f       	adc	r18, r18
    2fe8:	74 9f       	mul	r23, r20
    2fea:	33 27       	eor	r19, r19
    2fec:	a0 0d       	add	r26, r0
    2fee:	61 1d       	adc	r22, r1
    2ff0:	23 1f       	adc	r18, r19
    2ff2:	84 9f       	mul	r24, r20
    2ff4:	60 0d       	add	r22, r0
    2ff6:	21 1d       	adc	r18, r1
    2ff8:	82 2f       	mov	r24, r18
    2ffa:	76 2f       	mov	r23, r22
    2ffc:	6a 2f       	mov	r22, r26
    2ffe:	11 24       	eor	r1, r1
    3000:	9f 57       	subi	r25, 0x7F	; 127
    3002:	50 40       	sbci	r21, 0x00	; 0
    3004:	8a f0       	brmi	.+34     	; 0x3028 <__mulsf3_pse+0x84>
    3006:	e1 f0       	breq	.+56     	; 0x3040 <__mulsf3_pse+0x9c>
    3008:	88 23       	and	r24, r24
    300a:	4a f0       	brmi	.+18     	; 0x301e <__mulsf3_pse+0x7a>
    300c:	ee 0f       	add	r30, r30
    300e:	ff 1f       	adc	r31, r31
    3010:	bb 1f       	adc	r27, r27
    3012:	66 1f       	adc	r22, r22
    3014:	77 1f       	adc	r23, r23
    3016:	88 1f       	adc	r24, r24
    3018:	91 50       	subi	r25, 0x01	; 1
    301a:	50 40       	sbci	r21, 0x00	; 0
    301c:	a9 f7       	brne	.-22     	; 0x3008 <__mulsf3_pse+0x64>
    301e:	9e 3f       	cpi	r25, 0xFE	; 254
    3020:	51 05       	cpc	r21, r1
    3022:	70 f0       	brcs	.+28     	; 0x3040 <__mulsf3_pse+0x9c>
    3024:	20 cf       	rjmp	.-448    	; 0x2e66 <__fp_inf>
    3026:	9f cf       	rjmp	.-194    	; 0x2f66 <__fp_szero>
    3028:	5f 3f       	cpi	r21, 0xFF	; 255
    302a:	ec f3       	brlt	.-6      	; 0x3026 <__mulsf3_pse+0x82>
    302c:	98 3e       	cpi	r25, 0xE8	; 232
    302e:	dc f3       	brlt	.-10     	; 0x3026 <__mulsf3_pse+0x82>
    3030:	86 95       	lsr	r24
    3032:	77 95       	ror	r23
    3034:	67 95       	ror	r22
    3036:	b7 95       	ror	r27
    3038:	f7 95       	ror	r31
    303a:	e7 95       	ror	r30
    303c:	9f 5f       	subi	r25, 0xFF	; 255
    303e:	c1 f7       	brne	.-16     	; 0x3030 <__mulsf3_pse+0x8c>
    3040:	fe 2b       	or	r31, r30
    3042:	88 0f       	add	r24, r24
    3044:	91 1d       	adc	r25, r1
    3046:	96 95       	lsr	r25
    3048:	87 95       	ror	r24
    304a:	97 f9       	bld	r25, 7
    304c:	08 95       	ret

0000304e <pow>:
    304e:	fa 01       	movw	r30, r20
    3050:	ee 0f       	add	r30, r30
    3052:	ff 1f       	adc	r31, r31
    3054:	30 96       	adiw	r30, 0x00	; 0
    3056:	21 05       	cpc	r18, r1
    3058:	31 05       	cpc	r19, r1
    305a:	99 f1       	breq	.+102    	; 0x30c2 <pow+0x74>
    305c:	61 15       	cp	r22, r1
    305e:	71 05       	cpc	r23, r1
    3060:	61 f4       	brne	.+24     	; 0x307a <pow+0x2c>
    3062:	80 38       	cpi	r24, 0x80	; 128
    3064:	bf e3       	ldi	r27, 0x3F	; 63
    3066:	9b 07       	cpc	r25, r27
    3068:	49 f1       	breq	.+82     	; 0x30bc <pow+0x6e>
    306a:	68 94       	set
    306c:	90 38       	cpi	r25, 0x80	; 128
    306e:	81 05       	cpc	r24, r1
    3070:	61 f0       	breq	.+24     	; 0x308a <pow+0x3c>
    3072:	80 38       	cpi	r24, 0x80	; 128
    3074:	bf ef       	ldi	r27, 0xFF	; 255
    3076:	9b 07       	cpc	r25, r27
    3078:	41 f0       	breq	.+16     	; 0x308a <pow+0x3c>
    307a:	99 23       	and	r25, r25
    307c:	42 f5       	brpl	.+80     	; 0x30ce <pow+0x80>
    307e:	ff 3f       	cpi	r31, 0xFF	; 255
    3080:	e1 05       	cpc	r30, r1
    3082:	31 05       	cpc	r19, r1
    3084:	21 05       	cpc	r18, r1
    3086:	11 f1       	breq	.+68     	; 0x30cc <pow+0x7e>
    3088:	e8 94       	clt
    308a:	08 94       	sec
    308c:	e7 95       	ror	r30
    308e:	d9 01       	movw	r26, r18
    3090:	aa 23       	and	r26, r26
    3092:	29 f4       	brne	.+10     	; 0x309e <pow+0x50>
    3094:	ab 2f       	mov	r26, r27
    3096:	be 2f       	mov	r27, r30
    3098:	f8 5f       	subi	r31, 0xF8	; 248
    309a:	d0 f3       	brcs	.-12     	; 0x3090 <pow+0x42>
    309c:	10 c0       	rjmp	.+32     	; 0x30be <pow+0x70>
    309e:	ff 5f       	subi	r31, 0xFF	; 255
    30a0:	70 f4       	brcc	.+28     	; 0x30be <pow+0x70>
    30a2:	a6 95       	lsr	r26
    30a4:	e0 f7       	brcc	.-8      	; 0x309e <pow+0x50>
    30a6:	f7 39       	cpi	r31, 0x97	; 151
    30a8:	50 f0       	brcs	.+20     	; 0x30be <pow+0x70>
    30aa:	19 f0       	breq	.+6      	; 0x30b2 <pow+0x64>
    30ac:	ff 3a       	cpi	r31, 0xAF	; 175
    30ae:	38 f4       	brcc	.+14     	; 0x30be <pow+0x70>
    30b0:	9f 77       	andi	r25, 0x7F	; 127
    30b2:	9f 93       	push	r25
    30b4:	0c d0       	rcall	.+24     	; 0x30ce <pow+0x80>
    30b6:	0f 90       	pop	r0
    30b8:	07 fc       	sbrc	r0, 7
    30ba:	90 58       	subi	r25, 0x80	; 128
    30bc:	08 95       	ret
    30be:	3e f0       	brts	.+14     	; 0x30ce <pow+0x80>
    30c0:	d8 ce       	rjmp	.-592    	; 0x2e72 <__fp_nan>
    30c2:	60 e0       	ldi	r22, 0x00	; 0
    30c4:	70 e0       	ldi	r23, 0x00	; 0
    30c6:	80 e8       	ldi	r24, 0x80	; 128
    30c8:	9f e3       	ldi	r25, 0x3F	; 63
    30ca:	08 95       	ret
    30cc:	4f e7       	ldi	r20, 0x7F	; 127
    30ce:	9f 77       	andi	r25, 0x7F	; 127
    30d0:	5f 93       	push	r21
    30d2:	4f 93       	push	r20
    30d4:	3f 93       	push	r19
    30d6:	2f 93       	push	r18
    30d8:	80 d0       	rcall	.+256    	; 0x31da <log>
    30da:	2f 91       	pop	r18
    30dc:	3f 91       	pop	r19
    30de:	4f 91       	pop	r20
    30e0:	5f 91       	pop	r21
    30e2:	52 df       	rcall	.-348    	; 0x2f88 <__mulsf3>
    30e4:	05 c0       	rjmp	.+10     	; 0x30f0 <exp>
    30e6:	19 f4       	brne	.+6      	; 0x30ee <pow+0xa0>
    30e8:	0e f0       	brts	.+2      	; 0x30ec <pow+0x9e>
    30ea:	bd ce       	rjmp	.-646    	; 0x2e66 <__fp_inf>
    30ec:	3b cf       	rjmp	.-394    	; 0x2f64 <__fp_zero>
    30ee:	c1 ce       	rjmp	.-638    	; 0x2e72 <__fp_nan>

000030f0 <exp>:
    30f0:	1f df       	rcall	.-450    	; 0x2f30 <__fp_splitA>
    30f2:	c8 f3       	brcs	.-14     	; 0x30e6 <pow+0x98>
    30f4:	96 38       	cpi	r25, 0x86	; 134
    30f6:	c0 f7       	brcc	.-16     	; 0x30e8 <pow+0x9a>
    30f8:	07 f8       	bld	r0, 7
    30fa:	0f 92       	push	r0
    30fc:	e8 94       	clt
    30fe:	2b e3       	ldi	r18, 0x3B	; 59
    3100:	3a ea       	ldi	r19, 0xAA	; 170
    3102:	48 eb       	ldi	r20, 0xB8	; 184
    3104:	5f e7       	ldi	r21, 0x7F	; 127
    3106:	4e df       	rcall	.-356    	; 0x2fa4 <__mulsf3_pse>
    3108:	0f 92       	push	r0
    310a:	0f 92       	push	r0
    310c:	0f 92       	push	r0
    310e:	4d b7       	in	r20, 0x3d	; 61
    3110:	5e b7       	in	r21, 0x3e	; 62
    3112:	0f 92       	push	r0
    3114:	a2 d0       	rcall	.+324    	; 0x325a <modf>
    3116:	ec ef       	ldi	r30, 0xFC	; 252
    3118:	f1 e0       	ldi	r31, 0x01	; 1
    311a:	be de       	rcall	.-644    	; 0x2e98 <__fp_powser>
    311c:	4f 91       	pop	r20
    311e:	5f 91       	pop	r21
    3120:	ef 91       	pop	r30
    3122:	ff 91       	pop	r31
    3124:	e5 95       	asr	r30
    3126:	ee 1f       	adc	r30, r30
    3128:	ff 1f       	adc	r31, r31
    312a:	49 f0       	breq	.+18     	; 0x313e <exp+0x4e>
    312c:	fe 57       	subi	r31, 0x7E	; 126
    312e:	e0 68       	ori	r30, 0x80	; 128
    3130:	44 27       	eor	r20, r20
    3132:	ee 0f       	add	r30, r30
    3134:	44 1f       	adc	r20, r20
    3136:	fa 95       	dec	r31
    3138:	e1 f7       	brne	.-8      	; 0x3132 <exp+0x42>
    313a:	41 95       	neg	r20
    313c:	55 0b       	sbc	r21, r21
    313e:	14 d0       	rcall	.+40     	; 0x3168 <ldexp>
    3140:	0f 90       	pop	r0
    3142:	07 fe       	sbrs	r0, 7
    3144:	1a cf       	rjmp	.-460    	; 0x2f7a <inverse>
    3146:	08 95       	ret

00003148 <__fp_mpack>:
    3148:	9f 3f       	cpi	r25, 0xFF	; 255
    314a:	31 f0       	breq	.+12     	; 0x3158 <__fp_mpack_finite+0xc>

0000314c <__fp_mpack_finite>:
    314c:	91 50       	subi	r25, 0x01	; 1
    314e:	20 f4       	brcc	.+8      	; 0x3158 <__fp_mpack_finite+0xc>
    3150:	87 95       	ror	r24
    3152:	77 95       	ror	r23
    3154:	67 95       	ror	r22
    3156:	b7 95       	ror	r27
    3158:	88 0f       	add	r24, r24
    315a:	91 1d       	adc	r25, r1
    315c:	96 95       	lsr	r25
    315e:	87 95       	ror	r24
    3160:	97 f9       	bld	r25, 7
    3162:	08 95       	ret
    3164:	80 ce       	rjmp	.-768    	; 0x2e66 <__fp_inf>
    3166:	f0 cf       	rjmp	.-32     	; 0x3148 <__fp_mpack>

00003168 <ldexp>:
    3168:	e3 de       	rcall	.-570    	; 0x2f30 <__fp_splitA>
    316a:	e8 f3       	brcs	.-6      	; 0x3166 <__fp_mpack_finite+0x1a>
    316c:	99 23       	and	r25, r25
    316e:	d9 f3       	breq	.-10     	; 0x3166 <__fp_mpack_finite+0x1a>
    3170:	94 0f       	add	r25, r20
    3172:	51 1d       	adc	r21, r1
    3174:	bb f3       	brvs	.-18     	; 0x3164 <__fp_mpack_finite+0x18>
    3176:	91 50       	subi	r25, 0x01	; 1
    3178:	50 40       	sbci	r21, 0x00	; 0
    317a:	94 f0       	brlt	.+36     	; 0x31a0 <ldexp+0x38>
    317c:	59 f0       	breq	.+22     	; 0x3194 <ldexp+0x2c>
    317e:	88 23       	and	r24, r24
    3180:	32 f0       	brmi	.+12     	; 0x318e <ldexp+0x26>
    3182:	66 0f       	add	r22, r22
    3184:	77 1f       	adc	r23, r23
    3186:	88 1f       	adc	r24, r24
    3188:	91 50       	subi	r25, 0x01	; 1
    318a:	50 40       	sbci	r21, 0x00	; 0
    318c:	c1 f7       	brne	.-16     	; 0x317e <ldexp+0x16>
    318e:	9e 3f       	cpi	r25, 0xFE	; 254
    3190:	51 05       	cpc	r21, r1
    3192:	44 f7       	brge	.-48     	; 0x3164 <__fp_mpack_finite+0x18>
    3194:	88 0f       	add	r24, r24
    3196:	91 1d       	adc	r25, r1
    3198:	96 95       	lsr	r25
    319a:	87 95       	ror	r24
    319c:	97 f9       	bld	r25, 7
    319e:	08 95       	ret
    31a0:	5f 3f       	cpi	r21, 0xFF	; 255
    31a2:	ac f0       	brlt	.+42     	; 0x31ce <ldexp+0x66>
    31a4:	98 3e       	cpi	r25, 0xE8	; 232
    31a6:	9c f0       	brlt	.+38     	; 0x31ce <ldexp+0x66>
    31a8:	bb 27       	eor	r27, r27
    31aa:	86 95       	lsr	r24
    31ac:	77 95       	ror	r23
    31ae:	67 95       	ror	r22
    31b0:	b7 95       	ror	r27
    31b2:	08 f4       	brcc	.+2      	; 0x31b6 <ldexp+0x4e>
    31b4:	b1 60       	ori	r27, 0x01	; 1
    31b6:	93 95       	inc	r25
    31b8:	c1 f7       	brne	.-16     	; 0x31aa <ldexp+0x42>
    31ba:	bb 0f       	add	r27, r27
    31bc:	58 f7       	brcc	.-42     	; 0x3194 <ldexp+0x2c>
    31be:	11 f4       	brne	.+4      	; 0x31c4 <ldexp+0x5c>
    31c0:	60 ff       	sbrs	r22, 0
    31c2:	e8 cf       	rjmp	.-48     	; 0x3194 <ldexp+0x2c>
    31c4:	6f 5f       	subi	r22, 0xFF	; 255
    31c6:	7f 4f       	sbci	r23, 0xFF	; 255
    31c8:	8f 4f       	sbci	r24, 0xFF	; 255
    31ca:	9f 4f       	sbci	r25, 0xFF	; 255
    31cc:	e3 cf       	rjmp	.-58     	; 0x3194 <ldexp+0x2c>
    31ce:	cb ce       	rjmp	.-618    	; 0x2f66 <__fp_szero>
    31d0:	0e f0       	brts	.+2      	; 0x31d4 <ldexp+0x6c>
    31d2:	ba cf       	rjmp	.-140    	; 0x3148 <__fp_mpack>
    31d4:	4e ce       	rjmp	.-868    	; 0x2e72 <__fp_nan>
    31d6:	68 94       	set
    31d8:	46 ce       	rjmp	.-884    	; 0x2e66 <__fp_inf>

000031da <log>:
    31da:	aa de       	rcall	.-684    	; 0x2f30 <__fp_splitA>
    31dc:	c8 f3       	brcs	.-14     	; 0x31d0 <ldexp+0x68>
    31de:	99 23       	and	r25, r25
    31e0:	d1 f3       	breq	.-12     	; 0x31d6 <ldexp+0x6e>
    31e2:	c6 f3       	brts	.-16     	; 0x31d4 <ldexp+0x6c>
    31e4:	df 93       	push	r29
    31e6:	cf 93       	push	r28
    31e8:	1f 93       	push	r17
    31ea:	0f 93       	push	r16
    31ec:	ff 92       	push	r15
    31ee:	c9 2f       	mov	r28, r25
    31f0:	dd 27       	eor	r29, r29
    31f2:	88 23       	and	r24, r24
    31f4:	2a f0       	brmi	.+10     	; 0x3200 <log+0x26>
    31f6:	21 97       	sbiw	r28, 0x01	; 1
    31f8:	66 0f       	add	r22, r22
    31fa:	77 1f       	adc	r23, r23
    31fc:	88 1f       	adc	r24, r24
    31fe:	da f7       	brpl	.-10     	; 0x31f6 <log+0x1c>
    3200:	20 e0       	ldi	r18, 0x00	; 0
    3202:	30 e0       	ldi	r19, 0x00	; 0
    3204:	40 e8       	ldi	r20, 0x80	; 128
    3206:	5f eb       	ldi	r21, 0xBF	; 191
    3208:	9f e3       	ldi	r25, 0x3F	; 63
    320a:	88 39       	cpi	r24, 0x98	; 152
    320c:	20 f0       	brcs	.+8      	; 0x3216 <log+0x3c>
    320e:	80 3e       	cpi	r24, 0xE0	; 224
    3210:	30 f0       	brcs	.+12     	; 0x321e <log+0x44>
    3212:	21 96       	adiw	r28, 0x01	; 1
    3214:	8f 77       	andi	r24, 0x7F	; 127
    3216:	8b dc       	rcall	.-1770   	; 0x2b2e <__addsf3>
    3218:	e4 e2       	ldi	r30, 0x24	; 36
    321a:	f2 e0       	ldi	r31, 0x02	; 2
    321c:	03 c0       	rjmp	.+6      	; 0x3224 <log+0x4a>
    321e:	87 dc       	rcall	.-1778   	; 0x2b2e <__addsf3>
    3220:	e1 e5       	ldi	r30, 0x51	; 81
    3222:	f2 e0       	ldi	r31, 0x02	; 2
    3224:	39 de       	rcall	.-910    	; 0x2e98 <__fp_powser>
    3226:	8b 01       	movw	r16, r22
    3228:	be 01       	movw	r22, r28
    322a:	ec 01       	movw	r28, r24
    322c:	fb 2e       	mov	r15, r27
    322e:	6f 57       	subi	r22, 0x7F	; 127
    3230:	71 09       	sbc	r23, r1
    3232:	75 95       	asr	r23
    3234:	77 1f       	adc	r23, r23
    3236:	88 0b       	sbc	r24, r24
    3238:	99 0b       	sbc	r25, r25
    323a:	b6 dd       	rcall	.-1172   	; 0x2da8 <__floatsisf>
    323c:	28 e1       	ldi	r18, 0x18	; 24
    323e:	32 e7       	ldi	r19, 0x72	; 114
    3240:	41 e3       	ldi	r20, 0x31	; 49
    3242:	5f e3       	ldi	r21, 0x3F	; 63
    3244:	ad de       	rcall	.-678    	; 0x2fa0 <__mulsf3x>
    3246:	af 2d       	mov	r26, r15
    3248:	98 01       	movw	r18, r16
    324a:	ae 01       	movw	r20, r28
    324c:	ff 90       	pop	r15
    324e:	0f 91       	pop	r16
    3250:	1f 91       	pop	r17
    3252:	cf 91       	pop	r28
    3254:	df 91       	pop	r29
    3256:	7c dc       	rcall	.-1800   	; 0x2b50 <__addsf3x>
    3258:	52 ce       	rjmp	.-860    	; 0x2efe <__fp_round>

0000325a <modf>:
    325a:	fa 01       	movw	r30, r20
    325c:	dc 01       	movw	r26, r24
    325e:	aa 0f       	add	r26, r26
    3260:	bb 1f       	adc	r27, r27
    3262:	9b 01       	movw	r18, r22
    3264:	ac 01       	movw	r20, r24
    3266:	bf 57       	subi	r27, 0x7F	; 127
    3268:	28 f4       	brcc	.+10     	; 0x3274 <modf+0x1a>
    326a:	22 27       	eor	r18, r18
    326c:	33 27       	eor	r19, r19
    326e:	44 27       	eor	r20, r20
    3270:	50 78       	andi	r21, 0x80	; 128
    3272:	1f c0       	rjmp	.+62     	; 0x32b2 <modf+0x58>
    3274:	b7 51       	subi	r27, 0x17	; 23
    3276:	88 f4       	brcc	.+34     	; 0x329a <modf+0x40>
    3278:	ab 2f       	mov	r26, r27
    327a:	00 24       	eor	r0, r0
    327c:	46 95       	lsr	r20
    327e:	37 95       	ror	r19
    3280:	27 95       	ror	r18
    3282:	01 1c       	adc	r0, r1
    3284:	a3 95       	inc	r26
    3286:	d2 f3       	brmi	.-12     	; 0x327c <modf+0x22>
    3288:	00 20       	and	r0, r0
    328a:	69 f0       	breq	.+26     	; 0x32a6 <modf+0x4c>
    328c:	22 0f       	add	r18, r18
    328e:	33 1f       	adc	r19, r19
    3290:	44 1f       	adc	r20, r20
    3292:	b3 95       	inc	r27
    3294:	da f3       	brmi	.-10     	; 0x328c <modf+0x32>
    3296:	0d d0       	rcall	.+26     	; 0x32b2 <modf+0x58>
    3298:	49 cc       	rjmp	.-1902   	; 0x2b2c <__subsf3>
    329a:	61 30       	cpi	r22, 0x01	; 1
    329c:	71 05       	cpc	r23, r1
    329e:	a0 e8       	ldi	r26, 0x80	; 128
    32a0:	8a 07       	cpc	r24, r26
    32a2:	b9 46       	sbci	r27, 0x69	; 105
    32a4:	30 f4       	brcc	.+12     	; 0x32b2 <modf+0x58>
    32a6:	9b 01       	movw	r18, r22
    32a8:	ac 01       	movw	r20, r24
    32aa:	66 27       	eor	r22, r22
    32ac:	77 27       	eor	r23, r23
    32ae:	88 27       	eor	r24, r24
    32b0:	90 78       	andi	r25, 0x80	; 128
    32b2:	30 96       	adiw	r30, 0x00	; 0
    32b4:	21 f0       	breq	.+8      	; 0x32be <modf+0x64>
    32b6:	20 83       	st	Z, r18
    32b8:	31 83       	std	Z+1, r19	; 0x01
    32ba:	42 83       	std	Z+2, r20	; 0x02
    32bc:	53 83       	std	Z+3, r21	; 0x03
    32be:	08 95       	ret

000032c0 <__mulsi3>:
    32c0:	db 01       	movw	r26, r22
    32c2:	8f 93       	push	r24
    32c4:	9f 93       	push	r25
    32c6:	70 d0       	rcall	.+224    	; 0x33a8 <__muluhisi3>
    32c8:	bf 91       	pop	r27
    32ca:	af 91       	pop	r26
    32cc:	a2 9f       	mul	r26, r18
    32ce:	80 0d       	add	r24, r0
    32d0:	91 1d       	adc	r25, r1
    32d2:	a3 9f       	mul	r26, r19
    32d4:	90 0d       	add	r25, r0
    32d6:	b2 9f       	mul	r27, r18
    32d8:	90 0d       	add	r25, r0
    32da:	11 24       	eor	r1, r1
    32dc:	08 95       	ret

000032de <__udivmodhi4>:
    32de:	aa 1b       	sub	r26, r26
    32e0:	bb 1b       	sub	r27, r27
    32e2:	51 e1       	ldi	r21, 0x11	; 17
    32e4:	07 c0       	rjmp	.+14     	; 0x32f4 <__udivmodhi4_ep>

000032e6 <__udivmodhi4_loop>:
    32e6:	aa 1f       	adc	r26, r26
    32e8:	bb 1f       	adc	r27, r27
    32ea:	a6 17       	cp	r26, r22
    32ec:	b7 07       	cpc	r27, r23
    32ee:	10 f0       	brcs	.+4      	; 0x32f4 <__udivmodhi4_ep>
    32f0:	a6 1b       	sub	r26, r22
    32f2:	b7 0b       	sbc	r27, r23

000032f4 <__udivmodhi4_ep>:
    32f4:	88 1f       	adc	r24, r24
    32f6:	99 1f       	adc	r25, r25
    32f8:	5a 95       	dec	r21
    32fa:	a9 f7       	brne	.-22     	; 0x32e6 <__udivmodhi4_loop>
    32fc:	80 95       	com	r24
    32fe:	90 95       	com	r25
    3300:	bc 01       	movw	r22, r24
    3302:	cd 01       	movw	r24, r26
    3304:	08 95       	ret

00003306 <__divmodhi4>:
    3306:	97 fb       	bst	r25, 7
    3308:	07 2e       	mov	r0, r23
    330a:	16 f4       	brtc	.+4      	; 0x3310 <__divmodhi4+0xa>
    330c:	00 94       	com	r0
    330e:	06 d0       	rcall	.+12     	; 0x331c <__divmodhi4_neg1>
    3310:	77 fd       	sbrc	r23, 7
    3312:	08 d0       	rcall	.+16     	; 0x3324 <__divmodhi4_neg2>
    3314:	e4 df       	rcall	.-56     	; 0x32de <__udivmodhi4>
    3316:	07 fc       	sbrc	r0, 7
    3318:	05 d0       	rcall	.+10     	; 0x3324 <__divmodhi4_neg2>
    331a:	3e f4       	brtc	.+14     	; 0x332a <__divmodhi4_exit>

0000331c <__divmodhi4_neg1>:
    331c:	90 95       	com	r25
    331e:	81 95       	neg	r24
    3320:	9f 4f       	sbci	r25, 0xFF	; 255
    3322:	08 95       	ret

00003324 <__divmodhi4_neg2>:
    3324:	70 95       	com	r23
    3326:	61 95       	neg	r22
    3328:	7f 4f       	sbci	r23, 0xFF	; 255

0000332a <__divmodhi4_exit>:
    332a:	08 95       	ret

0000332c <__udivmodsi4>:
    332c:	a1 e2       	ldi	r26, 0x21	; 33
    332e:	1a 2e       	mov	r1, r26
    3330:	aa 1b       	sub	r26, r26
    3332:	bb 1b       	sub	r27, r27
    3334:	fd 01       	movw	r30, r26
    3336:	0d c0       	rjmp	.+26     	; 0x3352 <__udivmodsi4_ep>

00003338 <__udivmodsi4_loop>:
    3338:	aa 1f       	adc	r26, r26
    333a:	bb 1f       	adc	r27, r27
    333c:	ee 1f       	adc	r30, r30
    333e:	ff 1f       	adc	r31, r31
    3340:	a2 17       	cp	r26, r18
    3342:	b3 07       	cpc	r27, r19
    3344:	e4 07       	cpc	r30, r20
    3346:	f5 07       	cpc	r31, r21
    3348:	20 f0       	brcs	.+8      	; 0x3352 <__udivmodsi4_ep>
    334a:	a2 1b       	sub	r26, r18
    334c:	b3 0b       	sbc	r27, r19
    334e:	e4 0b       	sbc	r30, r20
    3350:	f5 0b       	sbc	r31, r21

00003352 <__udivmodsi4_ep>:
    3352:	66 1f       	adc	r22, r22
    3354:	77 1f       	adc	r23, r23
    3356:	88 1f       	adc	r24, r24
    3358:	99 1f       	adc	r25, r25
    335a:	1a 94       	dec	r1
    335c:	69 f7       	brne	.-38     	; 0x3338 <__udivmodsi4_loop>
    335e:	60 95       	com	r22
    3360:	70 95       	com	r23
    3362:	80 95       	com	r24
    3364:	90 95       	com	r25
    3366:	9b 01       	movw	r18, r22
    3368:	ac 01       	movw	r20, r24
    336a:	bd 01       	movw	r22, r26
    336c:	cf 01       	movw	r24, r30
    336e:	08 95       	ret

00003370 <__divmodsi4>:
    3370:	05 2e       	mov	r0, r21
    3372:	97 fb       	bst	r25, 7
    3374:	16 f4       	brtc	.+4      	; 0x337a <__divmodsi4+0xa>
    3376:	00 94       	com	r0
    3378:	0f d0       	rcall	.+30     	; 0x3398 <__negsi2>
    337a:	57 fd       	sbrc	r21, 7
    337c:	05 d0       	rcall	.+10     	; 0x3388 <__divmodsi4_neg2>
    337e:	d6 df       	rcall	.-84     	; 0x332c <__udivmodsi4>
    3380:	07 fc       	sbrc	r0, 7
    3382:	02 d0       	rcall	.+4      	; 0x3388 <__divmodsi4_neg2>
    3384:	46 f4       	brtc	.+16     	; 0x3396 <__divmodsi4_exit>
    3386:	08 c0       	rjmp	.+16     	; 0x3398 <__negsi2>

00003388 <__divmodsi4_neg2>:
    3388:	50 95       	com	r21
    338a:	40 95       	com	r20
    338c:	30 95       	com	r19
    338e:	21 95       	neg	r18
    3390:	3f 4f       	sbci	r19, 0xFF	; 255
    3392:	4f 4f       	sbci	r20, 0xFF	; 255
    3394:	5f 4f       	sbci	r21, 0xFF	; 255

00003396 <__divmodsi4_exit>:
    3396:	08 95       	ret

00003398 <__negsi2>:
    3398:	90 95       	com	r25
    339a:	80 95       	com	r24
    339c:	70 95       	com	r23
    339e:	61 95       	neg	r22
    33a0:	7f 4f       	sbci	r23, 0xFF	; 255
    33a2:	8f 4f       	sbci	r24, 0xFF	; 255
    33a4:	9f 4f       	sbci	r25, 0xFF	; 255
    33a6:	08 95       	ret

000033a8 <__muluhisi3>:
    33a8:	2d d0       	rcall	.+90     	; 0x3404 <__umulhisi3>
    33aa:	a5 9f       	mul	r26, r21
    33ac:	90 0d       	add	r25, r0
    33ae:	b4 9f       	mul	r27, r20
    33b0:	90 0d       	add	r25, r0
    33b2:	a4 9f       	mul	r26, r20
    33b4:	80 0d       	add	r24, r0
    33b6:	91 1d       	adc	r25, r1
    33b8:	11 24       	eor	r1, r1
    33ba:	08 95       	ret

000033bc <__mulshisi3>:
    33bc:	b7 ff       	sbrs	r27, 7
    33be:	f4 cf       	rjmp	.-24     	; 0x33a8 <__muluhisi3>

000033c0 <__mulohisi3>:
    33c0:	f3 df       	rcall	.-26     	; 0x33a8 <__muluhisi3>
    33c2:	82 1b       	sub	r24, r18
    33c4:	93 0b       	sbc	r25, r19
    33c6:	08 95       	ret

000033c8 <__ashrdi3>:
    33c8:	97 fb       	bst	r25, 7
    33ca:	10 f8       	bld	r1, 0

000033cc <__lshrdi3>:
    33cc:	16 94       	lsr	r1
    33ce:	00 08       	sbc	r0, r0
    33d0:	0f 93       	push	r16
    33d2:	08 30       	cpi	r16, 0x08	; 8
    33d4:	98 f0       	brcs	.+38     	; 0x33fc <__lshrdi3+0x30>
    33d6:	08 50       	subi	r16, 0x08	; 8
    33d8:	23 2f       	mov	r18, r19
    33da:	34 2f       	mov	r19, r20
    33dc:	45 2f       	mov	r20, r21
    33de:	56 2f       	mov	r21, r22
    33e0:	67 2f       	mov	r22, r23
    33e2:	78 2f       	mov	r23, r24
    33e4:	89 2f       	mov	r24, r25
    33e6:	90 2d       	mov	r25, r0
    33e8:	f4 cf       	rjmp	.-24     	; 0x33d2 <__lshrdi3+0x6>
    33ea:	05 94       	asr	r0
    33ec:	97 95       	ror	r25
    33ee:	87 95       	ror	r24
    33f0:	77 95       	ror	r23
    33f2:	67 95       	ror	r22
    33f4:	57 95       	ror	r21
    33f6:	47 95       	ror	r20
    33f8:	37 95       	ror	r19
    33fa:	27 95       	ror	r18
    33fc:	0a 95       	dec	r16
    33fe:	aa f7       	brpl	.-22     	; 0x33ea <__lshrdi3+0x1e>
    3400:	0f 91       	pop	r16
    3402:	08 95       	ret

00003404 <__umulhisi3>:
    3404:	a2 9f       	mul	r26, r18
    3406:	b0 01       	movw	r22, r0
    3408:	b3 9f       	mul	r27, r19
    340a:	c0 01       	movw	r24, r0
    340c:	a3 9f       	mul	r26, r19
    340e:	70 0d       	add	r23, r0
    3410:	81 1d       	adc	r24, r1
    3412:	11 24       	eor	r1, r1
    3414:	91 1d       	adc	r25, r1
    3416:	b2 9f       	mul	r27, r18
    3418:	70 0d       	add	r23, r0
    341a:	81 1d       	adc	r24, r1
    341c:	11 24       	eor	r1, r1
    341e:	91 1d       	adc	r25, r1
    3420:	08 95       	ret

00003422 <fdevopen>:
    3422:	0f 93       	push	r16
    3424:	1f 93       	push	r17
    3426:	cf 93       	push	r28
    3428:	df 93       	push	r29
    342a:	00 97       	sbiw	r24, 0x00	; 0
    342c:	31 f4       	brne	.+12     	; 0x343a <fdevopen+0x18>
    342e:	61 15       	cp	r22, r1
    3430:	71 05       	cpc	r23, r1
    3432:	19 f4       	brne	.+6      	; 0x343a <fdevopen+0x18>
    3434:	80 e0       	ldi	r24, 0x00	; 0
    3436:	90 e0       	ldi	r25, 0x00	; 0
    3438:	39 c0       	rjmp	.+114    	; 0x34ac <fdevopen+0x8a>
    343a:	8b 01       	movw	r16, r22
    343c:	ec 01       	movw	r28, r24
    343e:	6e e0       	ldi	r22, 0x0E	; 14
    3440:	70 e0       	ldi	r23, 0x00	; 0
    3442:	81 e0       	ldi	r24, 0x01	; 1
    3444:	90 e0       	ldi	r25, 0x00	; 0
    3446:	47 d5       	rcall	.+2702   	; 0x3ed6 <calloc>
    3448:	fc 01       	movw	r30, r24
    344a:	89 2b       	or	r24, r25
    344c:	99 f3       	breq	.-26     	; 0x3434 <fdevopen+0x12>
    344e:	80 e8       	ldi	r24, 0x80	; 128
    3450:	83 83       	std	Z+3, r24	; 0x03
    3452:	01 15       	cp	r16, r1
    3454:	11 05       	cpc	r17, r1
    3456:	71 f0       	breq	.+28     	; 0x3474 <fdevopen+0x52>
    3458:	02 87       	std	Z+10, r16	; 0x0a
    345a:	13 87       	std	Z+11, r17	; 0x0b
    345c:	81 e8       	ldi	r24, 0x81	; 129
    345e:	83 83       	std	Z+3, r24	; 0x03
    3460:	80 91 82 21 	lds	r24, 0x2182	; 0x802182 <__iob>
    3464:	90 91 83 21 	lds	r25, 0x2183	; 0x802183 <__iob+0x1>
    3468:	89 2b       	or	r24, r25
    346a:	21 f4       	brne	.+8      	; 0x3474 <fdevopen+0x52>
    346c:	e0 93 82 21 	sts	0x2182, r30	; 0x802182 <__iob>
    3470:	f0 93 83 21 	sts	0x2183, r31	; 0x802183 <__iob+0x1>
    3474:	20 97       	sbiw	r28, 0x00	; 0
    3476:	c9 f0       	breq	.+50     	; 0x34aa <fdevopen+0x88>
    3478:	c0 87       	std	Z+8, r28	; 0x08
    347a:	d1 87       	std	Z+9, r29	; 0x09
    347c:	83 81       	ldd	r24, Z+3	; 0x03
    347e:	82 60       	ori	r24, 0x02	; 2
    3480:	83 83       	std	Z+3, r24	; 0x03
    3482:	80 91 84 21 	lds	r24, 0x2184	; 0x802184 <__iob+0x2>
    3486:	90 91 85 21 	lds	r25, 0x2185	; 0x802185 <__iob+0x3>
    348a:	89 2b       	or	r24, r25
    348c:	71 f4       	brne	.+28     	; 0x34aa <fdevopen+0x88>
    348e:	e0 93 84 21 	sts	0x2184, r30	; 0x802184 <__iob+0x2>
    3492:	f0 93 85 21 	sts	0x2185, r31	; 0x802185 <__iob+0x3>
    3496:	80 91 86 21 	lds	r24, 0x2186	; 0x802186 <__iob+0x4>
    349a:	90 91 87 21 	lds	r25, 0x2187	; 0x802187 <__iob+0x5>
    349e:	89 2b       	or	r24, r25
    34a0:	21 f4       	brne	.+8      	; 0x34aa <fdevopen+0x88>
    34a2:	e0 93 86 21 	sts	0x2186, r30	; 0x802186 <__iob+0x4>
    34a6:	f0 93 87 21 	sts	0x2187, r31	; 0x802187 <__iob+0x5>
    34aa:	cf 01       	movw	r24, r30
    34ac:	df 91       	pop	r29
    34ae:	cf 91       	pop	r28
    34b0:	1f 91       	pop	r17
    34b2:	0f 91       	pop	r16
    34b4:	08 95       	ret

000034b6 <printf>:
    34b6:	cf 93       	push	r28
    34b8:	df 93       	push	r29
    34ba:	cd b7       	in	r28, 0x3d	; 61
    34bc:	de b7       	in	r29, 0x3e	; 62
    34be:	ae 01       	movw	r20, r28
    34c0:	4a 5f       	subi	r20, 0xFA	; 250
    34c2:	5f 4f       	sbci	r21, 0xFF	; 255
    34c4:	fa 01       	movw	r30, r20
    34c6:	61 91       	ld	r22, Z+
    34c8:	71 91       	ld	r23, Z+
    34ca:	af 01       	movw	r20, r30
    34cc:	80 91 84 21 	lds	r24, 0x2184	; 0x802184 <__iob+0x2>
    34d0:	90 91 85 21 	lds	r25, 0x2185	; 0x802185 <__iob+0x3>
    34d4:	46 d0       	rcall	.+140    	; 0x3562 <vfprintf>
    34d6:	df 91       	pop	r29
    34d8:	cf 91       	pop	r28
    34da:	08 95       	ret

000034dc <sprintf>:
    34dc:	0f 93       	push	r16
    34de:	1f 93       	push	r17
    34e0:	cf 93       	push	r28
    34e2:	df 93       	push	r29
    34e4:	cd b7       	in	r28, 0x3d	; 61
    34e6:	de b7       	in	r29, 0x3e	; 62
    34e8:	2e 97       	sbiw	r28, 0x0e	; 14
    34ea:	cd bf       	out	0x3d, r28	; 61
    34ec:	de bf       	out	0x3e, r29	; 62
    34ee:	0e 89       	ldd	r16, Y+22	; 0x16
    34f0:	1f 89       	ldd	r17, Y+23	; 0x17
    34f2:	86 e0       	ldi	r24, 0x06	; 6
    34f4:	8c 83       	std	Y+4, r24	; 0x04
    34f6:	09 83       	std	Y+1, r16	; 0x01
    34f8:	1a 83       	std	Y+2, r17	; 0x02
    34fa:	8f ef       	ldi	r24, 0xFF	; 255
    34fc:	9f e7       	ldi	r25, 0x7F	; 127
    34fe:	8d 83       	std	Y+5, r24	; 0x05
    3500:	9e 83       	std	Y+6, r25	; 0x06
    3502:	ae 01       	movw	r20, r28
    3504:	46 5e       	subi	r20, 0xE6	; 230
    3506:	5f 4f       	sbci	r21, 0xFF	; 255
    3508:	68 8d       	ldd	r22, Y+24	; 0x18
    350a:	79 8d       	ldd	r23, Y+25	; 0x19
    350c:	ce 01       	movw	r24, r28
    350e:	01 96       	adiw	r24, 0x01	; 1
    3510:	28 d0       	rcall	.+80     	; 0x3562 <vfprintf>
    3512:	ef 81       	ldd	r30, Y+7	; 0x07
    3514:	f8 85       	ldd	r31, Y+8	; 0x08
    3516:	e0 0f       	add	r30, r16
    3518:	f1 1f       	adc	r31, r17
    351a:	10 82       	st	Z, r1
    351c:	2e 96       	adiw	r28, 0x0e	; 14
    351e:	cd bf       	out	0x3d, r28	; 61
    3520:	de bf       	out	0x3e, r29	; 62
    3522:	df 91       	pop	r29
    3524:	cf 91       	pop	r28
    3526:	1f 91       	pop	r17
    3528:	0f 91       	pop	r16
    352a:	08 95       	ret

0000352c <sscanf>:
    352c:	cf 93       	push	r28
    352e:	df 93       	push	r29
    3530:	cd b7       	in	r28, 0x3d	; 61
    3532:	de b7       	in	r29, 0x3e	; 62
    3534:	2e 97       	sbiw	r28, 0x0e	; 14
    3536:	cd bf       	out	0x3d, r28	; 61
    3538:	de bf       	out	0x3e, r29	; 62
    353a:	85 e0       	ldi	r24, 0x05	; 5
    353c:	8c 83       	std	Y+4, r24	; 0x04
    353e:	8c 89       	ldd	r24, Y+20	; 0x14
    3540:	9d 89       	ldd	r25, Y+21	; 0x15
    3542:	89 83       	std	Y+1, r24	; 0x01
    3544:	9a 83       	std	Y+2, r25	; 0x02
    3546:	ae 01       	movw	r20, r28
    3548:	48 5e       	subi	r20, 0xE8	; 232
    354a:	5f 4f       	sbci	r21, 0xFF	; 255
    354c:	6e 89       	ldd	r22, Y+22	; 0x16
    354e:	7f 89       	ldd	r23, Y+23	; 0x17
    3550:	ce 01       	movw	r24, r28
    3552:	01 96       	adiw	r24, 0x01	; 1
    3554:	a9 d3       	rcall	.+1874   	; 0x3ca8 <vfscanf>
    3556:	2e 96       	adiw	r28, 0x0e	; 14
    3558:	cd bf       	out	0x3d, r28	; 61
    355a:	de bf       	out	0x3e, r29	; 62
    355c:	df 91       	pop	r29
    355e:	cf 91       	pop	r28
    3560:	08 95       	ret

00003562 <vfprintf>:
    3562:	2f 92       	push	r2
    3564:	3f 92       	push	r3
    3566:	4f 92       	push	r4
    3568:	5f 92       	push	r5
    356a:	6f 92       	push	r6
    356c:	7f 92       	push	r7
    356e:	8f 92       	push	r8
    3570:	9f 92       	push	r9
    3572:	af 92       	push	r10
    3574:	bf 92       	push	r11
    3576:	cf 92       	push	r12
    3578:	df 92       	push	r13
    357a:	ef 92       	push	r14
    357c:	ff 92       	push	r15
    357e:	0f 93       	push	r16
    3580:	1f 93       	push	r17
    3582:	cf 93       	push	r28
    3584:	df 93       	push	r29
    3586:	cd b7       	in	r28, 0x3d	; 61
    3588:	de b7       	in	r29, 0x3e	; 62
    358a:	2b 97       	sbiw	r28, 0x0b	; 11
    358c:	cd bf       	out	0x3d, r28	; 61
    358e:	de bf       	out	0x3e, r29	; 62
    3590:	6c 01       	movw	r12, r24
    3592:	7b 01       	movw	r14, r22
    3594:	8a 01       	movw	r16, r20
    3596:	fc 01       	movw	r30, r24
    3598:	16 82       	std	Z+6, r1	; 0x06
    359a:	17 82       	std	Z+7, r1	; 0x07
    359c:	83 81       	ldd	r24, Z+3	; 0x03
    359e:	81 ff       	sbrs	r24, 1
    35a0:	bf c1       	rjmp	.+894    	; 0x3920 <vfprintf+0x3be>
    35a2:	ce 01       	movw	r24, r28
    35a4:	01 96       	adiw	r24, 0x01	; 1
    35a6:	3c 01       	movw	r6, r24
    35a8:	f6 01       	movw	r30, r12
    35aa:	93 81       	ldd	r25, Z+3	; 0x03
    35ac:	f7 01       	movw	r30, r14
    35ae:	93 fd       	sbrc	r25, 3
    35b0:	85 91       	lpm	r24, Z+
    35b2:	93 ff       	sbrs	r25, 3
    35b4:	81 91       	ld	r24, Z+
    35b6:	7f 01       	movw	r14, r30
    35b8:	88 23       	and	r24, r24
    35ba:	09 f4       	brne	.+2      	; 0x35be <vfprintf+0x5c>
    35bc:	ad c1       	rjmp	.+858    	; 0x3918 <vfprintf+0x3b6>
    35be:	85 32       	cpi	r24, 0x25	; 37
    35c0:	39 f4       	brne	.+14     	; 0x35d0 <vfprintf+0x6e>
    35c2:	93 fd       	sbrc	r25, 3
    35c4:	85 91       	lpm	r24, Z+
    35c6:	93 ff       	sbrs	r25, 3
    35c8:	81 91       	ld	r24, Z+
    35ca:	7f 01       	movw	r14, r30
    35cc:	85 32       	cpi	r24, 0x25	; 37
    35ce:	21 f4       	brne	.+8      	; 0x35d8 <vfprintf+0x76>
    35d0:	b6 01       	movw	r22, r12
    35d2:	90 e0       	ldi	r25, 0x00	; 0
    35d4:	29 d6       	rcall	.+3154   	; 0x4228 <fputc>
    35d6:	e8 cf       	rjmp	.-48     	; 0x35a8 <vfprintf+0x46>
    35d8:	91 2c       	mov	r9, r1
    35da:	21 2c       	mov	r2, r1
    35dc:	31 2c       	mov	r3, r1
    35de:	ff e1       	ldi	r31, 0x1F	; 31
    35e0:	f3 15       	cp	r31, r3
    35e2:	d8 f0       	brcs	.+54     	; 0x361a <vfprintf+0xb8>
    35e4:	8b 32       	cpi	r24, 0x2B	; 43
    35e6:	79 f0       	breq	.+30     	; 0x3606 <vfprintf+0xa4>
    35e8:	38 f4       	brcc	.+14     	; 0x35f8 <vfprintf+0x96>
    35ea:	80 32       	cpi	r24, 0x20	; 32
    35ec:	79 f0       	breq	.+30     	; 0x360c <vfprintf+0xaa>
    35ee:	83 32       	cpi	r24, 0x23	; 35
    35f0:	a1 f4       	brne	.+40     	; 0x361a <vfprintf+0xb8>
    35f2:	23 2d       	mov	r18, r3
    35f4:	20 61       	ori	r18, 0x10	; 16
    35f6:	1d c0       	rjmp	.+58     	; 0x3632 <vfprintf+0xd0>
    35f8:	8d 32       	cpi	r24, 0x2D	; 45
    35fa:	61 f0       	breq	.+24     	; 0x3614 <vfprintf+0xb2>
    35fc:	80 33       	cpi	r24, 0x30	; 48
    35fe:	69 f4       	brne	.+26     	; 0x361a <vfprintf+0xb8>
    3600:	23 2d       	mov	r18, r3
    3602:	21 60       	ori	r18, 0x01	; 1
    3604:	16 c0       	rjmp	.+44     	; 0x3632 <vfprintf+0xd0>
    3606:	83 2d       	mov	r24, r3
    3608:	82 60       	ori	r24, 0x02	; 2
    360a:	38 2e       	mov	r3, r24
    360c:	e3 2d       	mov	r30, r3
    360e:	e4 60       	ori	r30, 0x04	; 4
    3610:	3e 2e       	mov	r3, r30
    3612:	2a c0       	rjmp	.+84     	; 0x3668 <vfprintf+0x106>
    3614:	f3 2d       	mov	r31, r3
    3616:	f8 60       	ori	r31, 0x08	; 8
    3618:	1d c0       	rjmp	.+58     	; 0x3654 <vfprintf+0xf2>
    361a:	37 fc       	sbrc	r3, 7
    361c:	2d c0       	rjmp	.+90     	; 0x3678 <vfprintf+0x116>
    361e:	20 ed       	ldi	r18, 0xD0	; 208
    3620:	28 0f       	add	r18, r24
    3622:	2a 30       	cpi	r18, 0x0A	; 10
    3624:	40 f0       	brcs	.+16     	; 0x3636 <vfprintf+0xd4>
    3626:	8e 32       	cpi	r24, 0x2E	; 46
    3628:	b9 f4       	brne	.+46     	; 0x3658 <vfprintf+0xf6>
    362a:	36 fc       	sbrc	r3, 6
    362c:	75 c1       	rjmp	.+746    	; 0x3918 <vfprintf+0x3b6>
    362e:	23 2d       	mov	r18, r3
    3630:	20 64       	ori	r18, 0x40	; 64
    3632:	32 2e       	mov	r3, r18
    3634:	19 c0       	rjmp	.+50     	; 0x3668 <vfprintf+0x106>
    3636:	36 fe       	sbrs	r3, 6
    3638:	06 c0       	rjmp	.+12     	; 0x3646 <vfprintf+0xe4>
    363a:	8a e0       	ldi	r24, 0x0A	; 10
    363c:	98 9e       	mul	r9, r24
    363e:	20 0d       	add	r18, r0
    3640:	11 24       	eor	r1, r1
    3642:	92 2e       	mov	r9, r18
    3644:	11 c0       	rjmp	.+34     	; 0x3668 <vfprintf+0x106>
    3646:	ea e0       	ldi	r30, 0x0A	; 10
    3648:	2e 9e       	mul	r2, r30
    364a:	20 0d       	add	r18, r0
    364c:	11 24       	eor	r1, r1
    364e:	22 2e       	mov	r2, r18
    3650:	f3 2d       	mov	r31, r3
    3652:	f0 62       	ori	r31, 0x20	; 32
    3654:	3f 2e       	mov	r3, r31
    3656:	08 c0       	rjmp	.+16     	; 0x3668 <vfprintf+0x106>
    3658:	8c 36       	cpi	r24, 0x6C	; 108
    365a:	21 f4       	brne	.+8      	; 0x3664 <vfprintf+0x102>
    365c:	83 2d       	mov	r24, r3
    365e:	80 68       	ori	r24, 0x80	; 128
    3660:	38 2e       	mov	r3, r24
    3662:	02 c0       	rjmp	.+4      	; 0x3668 <vfprintf+0x106>
    3664:	88 36       	cpi	r24, 0x68	; 104
    3666:	41 f4       	brne	.+16     	; 0x3678 <vfprintf+0x116>
    3668:	f7 01       	movw	r30, r14
    366a:	93 fd       	sbrc	r25, 3
    366c:	85 91       	lpm	r24, Z+
    366e:	93 ff       	sbrs	r25, 3
    3670:	81 91       	ld	r24, Z+
    3672:	7f 01       	movw	r14, r30
    3674:	81 11       	cpse	r24, r1
    3676:	b3 cf       	rjmp	.-154    	; 0x35de <vfprintf+0x7c>
    3678:	98 2f       	mov	r25, r24
    367a:	9f 7d       	andi	r25, 0xDF	; 223
    367c:	95 54       	subi	r25, 0x45	; 69
    367e:	93 30       	cpi	r25, 0x03	; 3
    3680:	28 f4       	brcc	.+10     	; 0x368c <vfprintf+0x12a>
    3682:	0c 5f       	subi	r16, 0xFC	; 252
    3684:	1f 4f       	sbci	r17, 0xFF	; 255
    3686:	9f e3       	ldi	r25, 0x3F	; 63
    3688:	99 83       	std	Y+1, r25	; 0x01
    368a:	0d c0       	rjmp	.+26     	; 0x36a6 <vfprintf+0x144>
    368c:	83 36       	cpi	r24, 0x63	; 99
    368e:	31 f0       	breq	.+12     	; 0x369c <vfprintf+0x13a>
    3690:	83 37       	cpi	r24, 0x73	; 115
    3692:	71 f0       	breq	.+28     	; 0x36b0 <vfprintf+0x14e>
    3694:	83 35       	cpi	r24, 0x53	; 83
    3696:	09 f0       	breq	.+2      	; 0x369a <vfprintf+0x138>
    3698:	55 c0       	rjmp	.+170    	; 0x3744 <vfprintf+0x1e2>
    369a:	20 c0       	rjmp	.+64     	; 0x36dc <vfprintf+0x17a>
    369c:	f8 01       	movw	r30, r16
    369e:	80 81       	ld	r24, Z
    36a0:	89 83       	std	Y+1, r24	; 0x01
    36a2:	0e 5f       	subi	r16, 0xFE	; 254
    36a4:	1f 4f       	sbci	r17, 0xFF	; 255
    36a6:	88 24       	eor	r8, r8
    36a8:	83 94       	inc	r8
    36aa:	91 2c       	mov	r9, r1
    36ac:	53 01       	movw	r10, r6
    36ae:	12 c0       	rjmp	.+36     	; 0x36d4 <vfprintf+0x172>
    36b0:	28 01       	movw	r4, r16
    36b2:	f2 e0       	ldi	r31, 0x02	; 2
    36b4:	4f 0e       	add	r4, r31
    36b6:	51 1c       	adc	r5, r1
    36b8:	f8 01       	movw	r30, r16
    36ba:	a0 80       	ld	r10, Z
    36bc:	b1 80       	ldd	r11, Z+1	; 0x01
    36be:	36 fe       	sbrs	r3, 6
    36c0:	03 c0       	rjmp	.+6      	; 0x36c8 <vfprintf+0x166>
    36c2:	69 2d       	mov	r22, r9
    36c4:	70 e0       	ldi	r23, 0x00	; 0
    36c6:	02 c0       	rjmp	.+4      	; 0x36cc <vfprintf+0x16a>
    36c8:	6f ef       	ldi	r22, 0xFF	; 255
    36ca:	7f ef       	ldi	r23, 0xFF	; 255
    36cc:	c5 01       	movw	r24, r10
    36ce:	63 d5       	rcall	.+2758   	; 0x4196 <strnlen>
    36d0:	4c 01       	movw	r8, r24
    36d2:	82 01       	movw	r16, r4
    36d4:	f3 2d       	mov	r31, r3
    36d6:	ff 77       	andi	r31, 0x7F	; 127
    36d8:	3f 2e       	mov	r3, r31
    36da:	15 c0       	rjmp	.+42     	; 0x3706 <vfprintf+0x1a4>
    36dc:	28 01       	movw	r4, r16
    36de:	22 e0       	ldi	r18, 0x02	; 2
    36e0:	42 0e       	add	r4, r18
    36e2:	51 1c       	adc	r5, r1
    36e4:	f8 01       	movw	r30, r16
    36e6:	a0 80       	ld	r10, Z
    36e8:	b1 80       	ldd	r11, Z+1	; 0x01
    36ea:	36 fe       	sbrs	r3, 6
    36ec:	03 c0       	rjmp	.+6      	; 0x36f4 <vfprintf+0x192>
    36ee:	69 2d       	mov	r22, r9
    36f0:	70 e0       	ldi	r23, 0x00	; 0
    36f2:	02 c0       	rjmp	.+4      	; 0x36f8 <vfprintf+0x196>
    36f4:	6f ef       	ldi	r22, 0xFF	; 255
    36f6:	7f ef       	ldi	r23, 0xFF	; 255
    36f8:	c5 01       	movw	r24, r10
    36fa:	3b d5       	rcall	.+2678   	; 0x4172 <strnlen_P>
    36fc:	4c 01       	movw	r8, r24
    36fe:	f3 2d       	mov	r31, r3
    3700:	f0 68       	ori	r31, 0x80	; 128
    3702:	3f 2e       	mov	r3, r31
    3704:	82 01       	movw	r16, r4
    3706:	33 fc       	sbrc	r3, 3
    3708:	19 c0       	rjmp	.+50     	; 0x373c <vfprintf+0x1da>
    370a:	82 2d       	mov	r24, r2
    370c:	90 e0       	ldi	r25, 0x00	; 0
    370e:	88 16       	cp	r8, r24
    3710:	99 06       	cpc	r9, r25
    3712:	a0 f4       	brcc	.+40     	; 0x373c <vfprintf+0x1da>
    3714:	b6 01       	movw	r22, r12
    3716:	80 e2       	ldi	r24, 0x20	; 32
    3718:	90 e0       	ldi	r25, 0x00	; 0
    371a:	86 d5       	rcall	.+2828   	; 0x4228 <fputc>
    371c:	2a 94       	dec	r2
    371e:	f5 cf       	rjmp	.-22     	; 0x370a <vfprintf+0x1a8>
    3720:	f5 01       	movw	r30, r10
    3722:	37 fc       	sbrc	r3, 7
    3724:	85 91       	lpm	r24, Z+
    3726:	37 fe       	sbrs	r3, 7
    3728:	81 91       	ld	r24, Z+
    372a:	5f 01       	movw	r10, r30
    372c:	b6 01       	movw	r22, r12
    372e:	90 e0       	ldi	r25, 0x00	; 0
    3730:	7b d5       	rcall	.+2806   	; 0x4228 <fputc>
    3732:	21 10       	cpse	r2, r1
    3734:	2a 94       	dec	r2
    3736:	21 e0       	ldi	r18, 0x01	; 1
    3738:	82 1a       	sub	r8, r18
    373a:	91 08       	sbc	r9, r1
    373c:	81 14       	cp	r8, r1
    373e:	91 04       	cpc	r9, r1
    3740:	79 f7       	brne	.-34     	; 0x3720 <vfprintf+0x1be>
    3742:	e1 c0       	rjmp	.+450    	; 0x3906 <vfprintf+0x3a4>
    3744:	84 36       	cpi	r24, 0x64	; 100
    3746:	11 f0       	breq	.+4      	; 0x374c <vfprintf+0x1ea>
    3748:	89 36       	cpi	r24, 0x69	; 105
    374a:	39 f5       	brne	.+78     	; 0x379a <vfprintf+0x238>
    374c:	f8 01       	movw	r30, r16
    374e:	37 fe       	sbrs	r3, 7
    3750:	07 c0       	rjmp	.+14     	; 0x3760 <vfprintf+0x1fe>
    3752:	60 81       	ld	r22, Z
    3754:	71 81       	ldd	r23, Z+1	; 0x01
    3756:	82 81       	ldd	r24, Z+2	; 0x02
    3758:	93 81       	ldd	r25, Z+3	; 0x03
    375a:	0c 5f       	subi	r16, 0xFC	; 252
    375c:	1f 4f       	sbci	r17, 0xFF	; 255
    375e:	08 c0       	rjmp	.+16     	; 0x3770 <vfprintf+0x20e>
    3760:	60 81       	ld	r22, Z
    3762:	71 81       	ldd	r23, Z+1	; 0x01
    3764:	07 2e       	mov	r0, r23
    3766:	00 0c       	add	r0, r0
    3768:	88 0b       	sbc	r24, r24
    376a:	99 0b       	sbc	r25, r25
    376c:	0e 5f       	subi	r16, 0xFE	; 254
    376e:	1f 4f       	sbci	r17, 0xFF	; 255
    3770:	f3 2d       	mov	r31, r3
    3772:	ff 76       	andi	r31, 0x6F	; 111
    3774:	3f 2e       	mov	r3, r31
    3776:	97 ff       	sbrs	r25, 7
    3778:	09 c0       	rjmp	.+18     	; 0x378c <vfprintf+0x22a>
    377a:	90 95       	com	r25
    377c:	80 95       	com	r24
    377e:	70 95       	com	r23
    3780:	61 95       	neg	r22
    3782:	7f 4f       	sbci	r23, 0xFF	; 255
    3784:	8f 4f       	sbci	r24, 0xFF	; 255
    3786:	9f 4f       	sbci	r25, 0xFF	; 255
    3788:	f0 68       	ori	r31, 0x80	; 128
    378a:	3f 2e       	mov	r3, r31
    378c:	2a e0       	ldi	r18, 0x0A	; 10
    378e:	30 e0       	ldi	r19, 0x00	; 0
    3790:	a3 01       	movw	r20, r6
    3792:	9f d5       	rcall	.+2878   	; 0x42d2 <__ultoa_invert>
    3794:	88 2e       	mov	r8, r24
    3796:	86 18       	sub	r8, r6
    3798:	44 c0       	rjmp	.+136    	; 0x3822 <vfprintf+0x2c0>
    379a:	85 37       	cpi	r24, 0x75	; 117
    379c:	31 f4       	brne	.+12     	; 0x37aa <vfprintf+0x248>
    379e:	23 2d       	mov	r18, r3
    37a0:	2f 7e       	andi	r18, 0xEF	; 239
    37a2:	b2 2e       	mov	r11, r18
    37a4:	2a e0       	ldi	r18, 0x0A	; 10
    37a6:	30 e0       	ldi	r19, 0x00	; 0
    37a8:	25 c0       	rjmp	.+74     	; 0x37f4 <vfprintf+0x292>
    37aa:	93 2d       	mov	r25, r3
    37ac:	99 7f       	andi	r25, 0xF9	; 249
    37ae:	b9 2e       	mov	r11, r25
    37b0:	8f 36       	cpi	r24, 0x6F	; 111
    37b2:	c1 f0       	breq	.+48     	; 0x37e4 <vfprintf+0x282>
    37b4:	18 f4       	brcc	.+6      	; 0x37bc <vfprintf+0x25a>
    37b6:	88 35       	cpi	r24, 0x58	; 88
    37b8:	79 f0       	breq	.+30     	; 0x37d8 <vfprintf+0x276>
    37ba:	ae c0       	rjmp	.+348    	; 0x3918 <vfprintf+0x3b6>
    37bc:	80 37       	cpi	r24, 0x70	; 112
    37be:	19 f0       	breq	.+6      	; 0x37c6 <vfprintf+0x264>
    37c0:	88 37       	cpi	r24, 0x78	; 120
    37c2:	21 f0       	breq	.+8      	; 0x37cc <vfprintf+0x26a>
    37c4:	a9 c0       	rjmp	.+338    	; 0x3918 <vfprintf+0x3b6>
    37c6:	e9 2f       	mov	r30, r25
    37c8:	e0 61       	ori	r30, 0x10	; 16
    37ca:	be 2e       	mov	r11, r30
    37cc:	b4 fe       	sbrs	r11, 4
    37ce:	0d c0       	rjmp	.+26     	; 0x37ea <vfprintf+0x288>
    37d0:	fb 2d       	mov	r31, r11
    37d2:	f4 60       	ori	r31, 0x04	; 4
    37d4:	bf 2e       	mov	r11, r31
    37d6:	09 c0       	rjmp	.+18     	; 0x37ea <vfprintf+0x288>
    37d8:	34 fe       	sbrs	r3, 4
    37da:	0a c0       	rjmp	.+20     	; 0x37f0 <vfprintf+0x28e>
    37dc:	29 2f       	mov	r18, r25
    37de:	26 60       	ori	r18, 0x06	; 6
    37e0:	b2 2e       	mov	r11, r18
    37e2:	06 c0       	rjmp	.+12     	; 0x37f0 <vfprintf+0x28e>
    37e4:	28 e0       	ldi	r18, 0x08	; 8
    37e6:	30 e0       	ldi	r19, 0x00	; 0
    37e8:	05 c0       	rjmp	.+10     	; 0x37f4 <vfprintf+0x292>
    37ea:	20 e1       	ldi	r18, 0x10	; 16
    37ec:	30 e0       	ldi	r19, 0x00	; 0
    37ee:	02 c0       	rjmp	.+4      	; 0x37f4 <vfprintf+0x292>
    37f0:	20 e1       	ldi	r18, 0x10	; 16
    37f2:	32 e0       	ldi	r19, 0x02	; 2
    37f4:	f8 01       	movw	r30, r16
    37f6:	b7 fe       	sbrs	r11, 7
    37f8:	07 c0       	rjmp	.+14     	; 0x3808 <vfprintf+0x2a6>
    37fa:	60 81       	ld	r22, Z
    37fc:	71 81       	ldd	r23, Z+1	; 0x01
    37fe:	82 81       	ldd	r24, Z+2	; 0x02
    3800:	93 81       	ldd	r25, Z+3	; 0x03
    3802:	0c 5f       	subi	r16, 0xFC	; 252
    3804:	1f 4f       	sbci	r17, 0xFF	; 255
    3806:	06 c0       	rjmp	.+12     	; 0x3814 <vfprintf+0x2b2>
    3808:	60 81       	ld	r22, Z
    380a:	71 81       	ldd	r23, Z+1	; 0x01
    380c:	80 e0       	ldi	r24, 0x00	; 0
    380e:	90 e0       	ldi	r25, 0x00	; 0
    3810:	0e 5f       	subi	r16, 0xFE	; 254
    3812:	1f 4f       	sbci	r17, 0xFF	; 255
    3814:	a3 01       	movw	r20, r6
    3816:	5d d5       	rcall	.+2746   	; 0x42d2 <__ultoa_invert>
    3818:	88 2e       	mov	r8, r24
    381a:	86 18       	sub	r8, r6
    381c:	fb 2d       	mov	r31, r11
    381e:	ff 77       	andi	r31, 0x7F	; 127
    3820:	3f 2e       	mov	r3, r31
    3822:	36 fe       	sbrs	r3, 6
    3824:	0d c0       	rjmp	.+26     	; 0x3840 <vfprintf+0x2de>
    3826:	23 2d       	mov	r18, r3
    3828:	2e 7f       	andi	r18, 0xFE	; 254
    382a:	a2 2e       	mov	r10, r18
    382c:	89 14       	cp	r8, r9
    382e:	58 f4       	brcc	.+22     	; 0x3846 <vfprintf+0x2e4>
    3830:	34 fe       	sbrs	r3, 4
    3832:	0b c0       	rjmp	.+22     	; 0x384a <vfprintf+0x2e8>
    3834:	32 fc       	sbrc	r3, 2
    3836:	09 c0       	rjmp	.+18     	; 0x384a <vfprintf+0x2e8>
    3838:	83 2d       	mov	r24, r3
    383a:	8e 7e       	andi	r24, 0xEE	; 238
    383c:	a8 2e       	mov	r10, r24
    383e:	05 c0       	rjmp	.+10     	; 0x384a <vfprintf+0x2e8>
    3840:	b8 2c       	mov	r11, r8
    3842:	a3 2c       	mov	r10, r3
    3844:	03 c0       	rjmp	.+6      	; 0x384c <vfprintf+0x2ea>
    3846:	b8 2c       	mov	r11, r8
    3848:	01 c0       	rjmp	.+2      	; 0x384c <vfprintf+0x2ea>
    384a:	b9 2c       	mov	r11, r9
    384c:	a4 fe       	sbrs	r10, 4
    384e:	0f c0       	rjmp	.+30     	; 0x386e <vfprintf+0x30c>
    3850:	fe 01       	movw	r30, r28
    3852:	e8 0d       	add	r30, r8
    3854:	f1 1d       	adc	r31, r1
    3856:	80 81       	ld	r24, Z
    3858:	80 33       	cpi	r24, 0x30	; 48
    385a:	21 f4       	brne	.+8      	; 0x3864 <vfprintf+0x302>
    385c:	9a 2d       	mov	r25, r10
    385e:	99 7e       	andi	r25, 0xE9	; 233
    3860:	a9 2e       	mov	r10, r25
    3862:	09 c0       	rjmp	.+18     	; 0x3876 <vfprintf+0x314>
    3864:	a2 fe       	sbrs	r10, 2
    3866:	06 c0       	rjmp	.+12     	; 0x3874 <vfprintf+0x312>
    3868:	b3 94       	inc	r11
    386a:	b3 94       	inc	r11
    386c:	04 c0       	rjmp	.+8      	; 0x3876 <vfprintf+0x314>
    386e:	8a 2d       	mov	r24, r10
    3870:	86 78       	andi	r24, 0x86	; 134
    3872:	09 f0       	breq	.+2      	; 0x3876 <vfprintf+0x314>
    3874:	b3 94       	inc	r11
    3876:	a3 fc       	sbrc	r10, 3
    3878:	10 c0       	rjmp	.+32     	; 0x389a <vfprintf+0x338>
    387a:	a0 fe       	sbrs	r10, 0
    387c:	06 c0       	rjmp	.+12     	; 0x388a <vfprintf+0x328>
    387e:	b2 14       	cp	r11, r2
    3880:	80 f4       	brcc	.+32     	; 0x38a2 <vfprintf+0x340>
    3882:	28 0c       	add	r2, r8
    3884:	92 2c       	mov	r9, r2
    3886:	9b 18       	sub	r9, r11
    3888:	0d c0       	rjmp	.+26     	; 0x38a4 <vfprintf+0x342>
    388a:	b2 14       	cp	r11, r2
    388c:	58 f4       	brcc	.+22     	; 0x38a4 <vfprintf+0x342>
    388e:	b6 01       	movw	r22, r12
    3890:	80 e2       	ldi	r24, 0x20	; 32
    3892:	90 e0       	ldi	r25, 0x00	; 0
    3894:	c9 d4       	rcall	.+2450   	; 0x4228 <fputc>
    3896:	b3 94       	inc	r11
    3898:	f8 cf       	rjmp	.-16     	; 0x388a <vfprintf+0x328>
    389a:	b2 14       	cp	r11, r2
    389c:	18 f4       	brcc	.+6      	; 0x38a4 <vfprintf+0x342>
    389e:	2b 18       	sub	r2, r11
    38a0:	02 c0       	rjmp	.+4      	; 0x38a6 <vfprintf+0x344>
    38a2:	98 2c       	mov	r9, r8
    38a4:	21 2c       	mov	r2, r1
    38a6:	a4 fe       	sbrs	r10, 4
    38a8:	0f c0       	rjmp	.+30     	; 0x38c8 <vfprintf+0x366>
    38aa:	b6 01       	movw	r22, r12
    38ac:	80 e3       	ldi	r24, 0x30	; 48
    38ae:	90 e0       	ldi	r25, 0x00	; 0
    38b0:	bb d4       	rcall	.+2422   	; 0x4228 <fputc>
    38b2:	a2 fe       	sbrs	r10, 2
    38b4:	16 c0       	rjmp	.+44     	; 0x38e2 <vfprintf+0x380>
    38b6:	a1 fc       	sbrc	r10, 1
    38b8:	03 c0       	rjmp	.+6      	; 0x38c0 <vfprintf+0x35e>
    38ba:	88 e7       	ldi	r24, 0x78	; 120
    38bc:	90 e0       	ldi	r25, 0x00	; 0
    38be:	02 c0       	rjmp	.+4      	; 0x38c4 <vfprintf+0x362>
    38c0:	88 e5       	ldi	r24, 0x58	; 88
    38c2:	90 e0       	ldi	r25, 0x00	; 0
    38c4:	b6 01       	movw	r22, r12
    38c6:	0c c0       	rjmp	.+24     	; 0x38e0 <vfprintf+0x37e>
    38c8:	8a 2d       	mov	r24, r10
    38ca:	86 78       	andi	r24, 0x86	; 134
    38cc:	51 f0       	breq	.+20     	; 0x38e2 <vfprintf+0x380>
    38ce:	a1 fe       	sbrs	r10, 1
    38d0:	02 c0       	rjmp	.+4      	; 0x38d6 <vfprintf+0x374>
    38d2:	8b e2       	ldi	r24, 0x2B	; 43
    38d4:	01 c0       	rjmp	.+2      	; 0x38d8 <vfprintf+0x376>
    38d6:	80 e2       	ldi	r24, 0x20	; 32
    38d8:	a7 fc       	sbrc	r10, 7
    38da:	8d e2       	ldi	r24, 0x2D	; 45
    38dc:	b6 01       	movw	r22, r12
    38de:	90 e0       	ldi	r25, 0x00	; 0
    38e0:	a3 d4       	rcall	.+2374   	; 0x4228 <fputc>
    38e2:	89 14       	cp	r8, r9
    38e4:	30 f4       	brcc	.+12     	; 0x38f2 <vfprintf+0x390>
    38e6:	b6 01       	movw	r22, r12
    38e8:	80 e3       	ldi	r24, 0x30	; 48
    38ea:	90 e0       	ldi	r25, 0x00	; 0
    38ec:	9d d4       	rcall	.+2362   	; 0x4228 <fputc>
    38ee:	9a 94       	dec	r9
    38f0:	f8 cf       	rjmp	.-16     	; 0x38e2 <vfprintf+0x380>
    38f2:	8a 94       	dec	r8
    38f4:	f3 01       	movw	r30, r6
    38f6:	e8 0d       	add	r30, r8
    38f8:	f1 1d       	adc	r31, r1
    38fa:	80 81       	ld	r24, Z
    38fc:	b6 01       	movw	r22, r12
    38fe:	90 e0       	ldi	r25, 0x00	; 0
    3900:	93 d4       	rcall	.+2342   	; 0x4228 <fputc>
    3902:	81 10       	cpse	r8, r1
    3904:	f6 cf       	rjmp	.-20     	; 0x38f2 <vfprintf+0x390>
    3906:	22 20       	and	r2, r2
    3908:	09 f4       	brne	.+2      	; 0x390c <vfprintf+0x3aa>
    390a:	4e ce       	rjmp	.-868    	; 0x35a8 <vfprintf+0x46>
    390c:	b6 01       	movw	r22, r12
    390e:	80 e2       	ldi	r24, 0x20	; 32
    3910:	90 e0       	ldi	r25, 0x00	; 0
    3912:	8a d4       	rcall	.+2324   	; 0x4228 <fputc>
    3914:	2a 94       	dec	r2
    3916:	f7 cf       	rjmp	.-18     	; 0x3906 <vfprintf+0x3a4>
    3918:	f6 01       	movw	r30, r12
    391a:	86 81       	ldd	r24, Z+6	; 0x06
    391c:	97 81       	ldd	r25, Z+7	; 0x07
    391e:	02 c0       	rjmp	.+4      	; 0x3924 <vfprintf+0x3c2>
    3920:	8f ef       	ldi	r24, 0xFF	; 255
    3922:	9f ef       	ldi	r25, 0xFF	; 255
    3924:	2b 96       	adiw	r28, 0x0b	; 11
    3926:	cd bf       	out	0x3d, r28	; 61
    3928:	de bf       	out	0x3e, r29	; 62
    392a:	df 91       	pop	r29
    392c:	cf 91       	pop	r28
    392e:	1f 91       	pop	r17
    3930:	0f 91       	pop	r16
    3932:	ff 90       	pop	r15
    3934:	ef 90       	pop	r14
    3936:	df 90       	pop	r13
    3938:	cf 90       	pop	r12
    393a:	bf 90       	pop	r11
    393c:	af 90       	pop	r10
    393e:	9f 90       	pop	r9
    3940:	8f 90       	pop	r8
    3942:	7f 90       	pop	r7
    3944:	6f 90       	pop	r6
    3946:	5f 90       	pop	r5
    3948:	4f 90       	pop	r4
    394a:	3f 90       	pop	r3
    394c:	2f 90       	pop	r2
    394e:	08 95       	ret

00003950 <putval>:
    3950:	20 fd       	sbrc	r18, 0
    3952:	09 c0       	rjmp	.+18     	; 0x3966 <putval+0x16>
    3954:	fc 01       	movw	r30, r24
    3956:	23 fd       	sbrc	r18, 3
    3958:	05 c0       	rjmp	.+10     	; 0x3964 <putval+0x14>
    395a:	22 ff       	sbrs	r18, 2
    395c:	02 c0       	rjmp	.+4      	; 0x3962 <putval+0x12>
    395e:	73 83       	std	Z+3, r23	; 0x03
    3960:	62 83       	std	Z+2, r22	; 0x02
    3962:	51 83       	std	Z+1, r21	; 0x01
    3964:	40 83       	st	Z, r20
    3966:	08 95       	ret

00003968 <mulacc>:
    3968:	44 fd       	sbrc	r20, 4
    396a:	17 c0       	rjmp	.+46     	; 0x399a <mulacc+0x32>
    396c:	46 fd       	sbrc	r20, 6
    396e:	17 c0       	rjmp	.+46     	; 0x399e <mulacc+0x36>
    3970:	ab 01       	movw	r20, r22
    3972:	bc 01       	movw	r22, r24
    3974:	da 01       	movw	r26, r20
    3976:	fb 01       	movw	r30, r22
    3978:	aa 0f       	add	r26, r26
    397a:	bb 1f       	adc	r27, r27
    397c:	ee 1f       	adc	r30, r30
    397e:	ff 1f       	adc	r31, r31
    3980:	10 94       	com	r1
    3982:	d1 f7       	brne	.-12     	; 0x3978 <mulacc+0x10>
    3984:	4a 0f       	add	r20, r26
    3986:	5b 1f       	adc	r21, r27
    3988:	6e 1f       	adc	r22, r30
    398a:	7f 1f       	adc	r23, r31
    398c:	cb 01       	movw	r24, r22
    398e:	ba 01       	movw	r22, r20
    3990:	66 0f       	add	r22, r22
    3992:	77 1f       	adc	r23, r23
    3994:	88 1f       	adc	r24, r24
    3996:	99 1f       	adc	r25, r25
    3998:	09 c0       	rjmp	.+18     	; 0x39ac <mulacc+0x44>
    399a:	33 e0       	ldi	r19, 0x03	; 3
    399c:	01 c0       	rjmp	.+2      	; 0x39a0 <mulacc+0x38>
    399e:	34 e0       	ldi	r19, 0x04	; 4
    39a0:	66 0f       	add	r22, r22
    39a2:	77 1f       	adc	r23, r23
    39a4:	88 1f       	adc	r24, r24
    39a6:	99 1f       	adc	r25, r25
    39a8:	31 50       	subi	r19, 0x01	; 1
    39aa:	d1 f7       	brne	.-12     	; 0x39a0 <mulacc+0x38>
    39ac:	62 0f       	add	r22, r18
    39ae:	71 1d       	adc	r23, r1
    39b0:	81 1d       	adc	r24, r1
    39b2:	91 1d       	adc	r25, r1
    39b4:	08 95       	ret

000039b6 <skip_spaces>:
    39b6:	0f 93       	push	r16
    39b8:	1f 93       	push	r17
    39ba:	cf 93       	push	r28
    39bc:	df 93       	push	r29
    39be:	8c 01       	movw	r16, r24
    39c0:	c8 01       	movw	r24, r16
    39c2:	f4 d3       	rcall	.+2024   	; 0x41ac <fgetc>
    39c4:	ec 01       	movw	r28, r24
    39c6:	97 fd       	sbrc	r25, 7
    39c8:	06 c0       	rjmp	.+12     	; 0x39d6 <skip_spaces+0x20>
    39ca:	c0 d3       	rcall	.+1920   	; 0x414c <isspace>
    39cc:	89 2b       	or	r24, r25
    39ce:	c1 f7       	brne	.-16     	; 0x39c0 <skip_spaces+0xa>
    39d0:	b8 01       	movw	r22, r16
    39d2:	ce 01       	movw	r24, r28
    39d4:	65 d4       	rcall	.+2250   	; 0x42a0 <ungetc>
    39d6:	ce 01       	movw	r24, r28
    39d8:	df 91       	pop	r29
    39da:	cf 91       	pop	r28
    39dc:	1f 91       	pop	r17
    39de:	0f 91       	pop	r16
    39e0:	08 95       	ret

000039e2 <conv_int>:
    39e2:	8f 92       	push	r8
    39e4:	9f 92       	push	r9
    39e6:	af 92       	push	r10
    39e8:	bf 92       	push	r11
    39ea:	ef 92       	push	r14
    39ec:	ff 92       	push	r15
    39ee:	0f 93       	push	r16
    39f0:	1f 93       	push	r17
    39f2:	cf 93       	push	r28
    39f4:	df 93       	push	r29
    39f6:	8c 01       	movw	r16, r24
    39f8:	d6 2f       	mov	r29, r22
    39fa:	7a 01       	movw	r14, r20
    39fc:	b2 2e       	mov	r11, r18
    39fe:	d6 d3       	rcall	.+1964   	; 0x41ac <fgetc>
    3a00:	9c 01       	movw	r18, r24
    3a02:	33 27       	eor	r19, r19
    3a04:	2b 32       	cpi	r18, 0x2B	; 43
    3a06:	31 05       	cpc	r19, r1
    3a08:	31 f0       	breq	.+12     	; 0x3a16 <conv_int+0x34>
    3a0a:	2d 32       	cpi	r18, 0x2D	; 45
    3a0c:	31 05       	cpc	r19, r1
    3a0e:	59 f4       	brne	.+22     	; 0x3a26 <conv_int+0x44>
    3a10:	8b 2d       	mov	r24, r11
    3a12:	80 68       	ori	r24, 0x80	; 128
    3a14:	b8 2e       	mov	r11, r24
    3a16:	d1 50       	subi	r29, 0x01	; 1
    3a18:	11 f4       	brne	.+4      	; 0x3a1e <conv_int+0x3c>
    3a1a:	80 e0       	ldi	r24, 0x00	; 0
    3a1c:	61 c0       	rjmp	.+194    	; 0x3ae0 <conv_int+0xfe>
    3a1e:	c8 01       	movw	r24, r16
    3a20:	c5 d3       	rcall	.+1930   	; 0x41ac <fgetc>
    3a22:	97 fd       	sbrc	r25, 7
    3a24:	fa cf       	rjmp	.-12     	; 0x3a1a <conv_int+0x38>
    3a26:	cb 2d       	mov	r28, r11
    3a28:	cd 7f       	andi	r28, 0xFD	; 253
    3a2a:	2b 2d       	mov	r18, r11
    3a2c:	20 73       	andi	r18, 0x30	; 48
    3a2e:	f9 f4       	brne	.+62     	; 0x3a6e <conv_int+0x8c>
    3a30:	80 33       	cpi	r24, 0x30	; 48
    3a32:	e9 f4       	brne	.+58     	; 0x3a6e <conv_int+0x8c>
    3a34:	aa 24       	eor	r10, r10
    3a36:	aa 94       	dec	r10
    3a38:	ad 0e       	add	r10, r29
    3a3a:	09 f4       	brne	.+2      	; 0x3a3e <conv_int+0x5c>
    3a3c:	3e c0       	rjmp	.+124    	; 0x3aba <conv_int+0xd8>
    3a3e:	c8 01       	movw	r24, r16
    3a40:	b5 d3       	rcall	.+1898   	; 0x41ac <fgetc>
    3a42:	97 fd       	sbrc	r25, 7
    3a44:	3a c0       	rjmp	.+116    	; 0x3aba <conv_int+0xd8>
    3a46:	9c 01       	movw	r18, r24
    3a48:	2f 7d       	andi	r18, 0xDF	; 223
    3a4a:	33 27       	eor	r19, r19
    3a4c:	28 35       	cpi	r18, 0x58	; 88
    3a4e:	31 05       	cpc	r19, r1
    3a50:	41 f4       	brne	.+16     	; 0x3a62 <conv_int+0x80>
    3a52:	c2 64       	ori	r28, 0x42	; 66
    3a54:	d2 50       	subi	r29, 0x02	; 2
    3a56:	89 f1       	breq	.+98     	; 0x3aba <conv_int+0xd8>
    3a58:	c8 01       	movw	r24, r16
    3a5a:	a8 d3       	rcall	.+1872   	; 0x41ac <fgetc>
    3a5c:	97 ff       	sbrs	r25, 7
    3a5e:	07 c0       	rjmp	.+14     	; 0x3a6e <conv_int+0x8c>
    3a60:	2c c0       	rjmp	.+88     	; 0x3aba <conv_int+0xd8>
    3a62:	b6 fe       	sbrs	r11, 6
    3a64:	02 c0       	rjmp	.+4      	; 0x3a6a <conv_int+0x88>
    3a66:	c2 60       	ori	r28, 0x02	; 2
    3a68:	01 c0       	rjmp	.+2      	; 0x3a6c <conv_int+0x8a>
    3a6a:	c2 61       	ori	r28, 0x12	; 18
    3a6c:	da 2d       	mov	r29, r10
    3a6e:	81 2c       	mov	r8, r1
    3a70:	91 2c       	mov	r9, r1
    3a72:	54 01       	movw	r10, r8
    3a74:	20 ed       	ldi	r18, 0xD0	; 208
    3a76:	28 0f       	add	r18, r24
    3a78:	28 30       	cpi	r18, 0x08	; 8
    3a7a:	78 f0       	brcs	.+30     	; 0x3a9a <conv_int+0xb8>
    3a7c:	c4 ff       	sbrs	r28, 4
    3a7e:	03 c0       	rjmp	.+6      	; 0x3a86 <conv_int+0xa4>
    3a80:	b8 01       	movw	r22, r16
    3a82:	0e d4       	rcall	.+2076   	; 0x42a0 <ungetc>
    3a84:	17 c0       	rjmp	.+46     	; 0x3ab4 <conv_int+0xd2>
    3a86:	2a 30       	cpi	r18, 0x0A	; 10
    3a88:	40 f0       	brcs	.+16     	; 0x3a9a <conv_int+0xb8>
    3a8a:	c6 ff       	sbrs	r28, 6
    3a8c:	f9 cf       	rjmp	.-14     	; 0x3a80 <conv_int+0x9e>
    3a8e:	2f 7d       	andi	r18, 0xDF	; 223
    3a90:	3f ee       	ldi	r19, 0xEF	; 239
    3a92:	32 0f       	add	r19, r18
    3a94:	36 30       	cpi	r19, 0x06	; 6
    3a96:	a0 f7       	brcc	.-24     	; 0x3a80 <conv_int+0x9e>
    3a98:	27 50       	subi	r18, 0x07	; 7
    3a9a:	4c 2f       	mov	r20, r28
    3a9c:	c5 01       	movw	r24, r10
    3a9e:	b4 01       	movw	r22, r8
    3aa0:	63 df       	rcall	.-314    	; 0x3968 <mulacc>
    3aa2:	4b 01       	movw	r8, r22
    3aa4:	5c 01       	movw	r10, r24
    3aa6:	c2 60       	ori	r28, 0x02	; 2
    3aa8:	d1 50       	subi	r29, 0x01	; 1
    3aaa:	51 f0       	breq	.+20     	; 0x3ac0 <conv_int+0xde>
    3aac:	c8 01       	movw	r24, r16
    3aae:	7e d3       	rcall	.+1788   	; 0x41ac <fgetc>
    3ab0:	97 ff       	sbrs	r25, 7
    3ab2:	e0 cf       	rjmp	.-64     	; 0x3a74 <conv_int+0x92>
    3ab4:	c1 fd       	sbrc	r28, 1
    3ab6:	04 c0       	rjmp	.+8      	; 0x3ac0 <conv_int+0xde>
    3ab8:	b0 cf       	rjmp	.-160    	; 0x3a1a <conv_int+0x38>
    3aba:	81 2c       	mov	r8, r1
    3abc:	91 2c       	mov	r9, r1
    3abe:	54 01       	movw	r10, r8
    3ac0:	c7 ff       	sbrs	r28, 7
    3ac2:	08 c0       	rjmp	.+16     	; 0x3ad4 <conv_int+0xf2>
    3ac4:	b0 94       	com	r11
    3ac6:	a0 94       	com	r10
    3ac8:	90 94       	com	r9
    3aca:	80 94       	com	r8
    3acc:	81 1c       	adc	r8, r1
    3ace:	91 1c       	adc	r9, r1
    3ad0:	a1 1c       	adc	r10, r1
    3ad2:	b1 1c       	adc	r11, r1
    3ad4:	2c 2f       	mov	r18, r28
    3ad6:	b5 01       	movw	r22, r10
    3ad8:	a4 01       	movw	r20, r8
    3ada:	c7 01       	movw	r24, r14
    3adc:	39 df       	rcall	.-398    	; 0x3950 <putval>
    3ade:	81 e0       	ldi	r24, 0x01	; 1
    3ae0:	df 91       	pop	r29
    3ae2:	cf 91       	pop	r28
    3ae4:	1f 91       	pop	r17
    3ae6:	0f 91       	pop	r16
    3ae8:	ff 90       	pop	r15
    3aea:	ef 90       	pop	r14
    3aec:	bf 90       	pop	r11
    3aee:	af 90       	pop	r10
    3af0:	9f 90       	pop	r9
    3af2:	8f 90       	pop	r8
    3af4:	08 95       	ret

00003af6 <conv_brk>:
    3af6:	5f 92       	push	r5
    3af8:	6f 92       	push	r6
    3afa:	7f 92       	push	r7
    3afc:	8f 92       	push	r8
    3afe:	9f 92       	push	r9
    3b00:	af 92       	push	r10
    3b02:	bf 92       	push	r11
    3b04:	cf 92       	push	r12
    3b06:	df 92       	push	r13
    3b08:	ef 92       	push	r14
    3b0a:	ff 92       	push	r15
    3b0c:	0f 93       	push	r16
    3b0e:	1f 93       	push	r17
    3b10:	cf 93       	push	r28
    3b12:	df 93       	push	r29
    3b14:	cd b7       	in	r28, 0x3d	; 61
    3b16:	de b7       	in	r29, 0x3e	; 62
    3b18:	a0 97       	sbiw	r28, 0x20	; 32
    3b1a:	cd bf       	out	0x3d, r28	; 61
    3b1c:	de bf       	out	0x3e, r29	; 62
    3b1e:	5c 01       	movw	r10, r24
    3b20:	96 2e       	mov	r9, r22
    3b22:	7a 01       	movw	r14, r20
    3b24:	f9 01       	movw	r30, r18
    3b26:	8e 01       	movw	r16, r28
    3b28:	0f 5f       	subi	r16, 0xFF	; 255
    3b2a:	1f 4f       	sbci	r17, 0xFF	; 255
    3b2c:	68 01       	movw	r12, r16
    3b2e:	80 e2       	ldi	r24, 0x20	; 32
    3b30:	d8 01       	movw	r26, r16
    3b32:	1d 92       	st	X+, r1
    3b34:	8a 95       	dec	r24
    3b36:	e9 f7       	brne	.-6      	; 0x3b32 <conv_brk+0x3c>
    3b38:	d5 01       	movw	r26, r10
    3b3a:	13 96       	adiw	r26, 0x03	; 3
    3b3c:	8c 90       	ld	r8, X
    3b3e:	80 e0       	ldi	r24, 0x00	; 0
    3b40:	90 e0       	ldi	r25, 0x00	; 0
    3b42:	61 2c       	mov	r6, r1
    3b44:	71 2c       	mov	r7, r1
    3b46:	30 e0       	ldi	r19, 0x00	; 0
    3b48:	61 e0       	ldi	r22, 0x01	; 1
    3b4a:	70 e0       	ldi	r23, 0x00	; 0
    3b4c:	83 fc       	sbrc	r8, 3
    3b4e:	25 91       	lpm	r18, Z+
    3b50:	83 fe       	sbrs	r8, 3
    3b52:	21 91       	ld	r18, Z+
    3b54:	8f 01       	movw	r16, r30
    3b56:	52 2e       	mov	r5, r18
    3b58:	21 11       	cpse	r18, r1
    3b5a:	03 c0       	rjmp	.+6      	; 0x3b62 <conv_brk+0x6c>
    3b5c:	80 e0       	ldi	r24, 0x00	; 0
    3b5e:	90 e0       	ldi	r25, 0x00	; 0
    3b60:	90 c0       	rjmp	.+288    	; 0x3c82 <conv_brk+0x18c>
    3b62:	2e 35       	cpi	r18, 0x5E	; 94
    3b64:	11 f4       	brne	.+4      	; 0x3b6a <conv_brk+0x74>
    3b66:	00 97       	sbiw	r24, 0x00	; 0
    3b68:	51 f1       	breq	.+84     	; 0x3bbe <conv_brk+0xc8>
    3b6a:	43 2f       	mov	r20, r19
    3b6c:	50 e0       	ldi	r21, 0x00	; 0
    3b6e:	48 17       	cp	r20, r24
    3b70:	59 07       	cpc	r21, r25
    3b72:	3c f4       	brge	.+14     	; 0x3b82 <conv_brk+0x8c>
    3b74:	2d 35       	cpi	r18, 0x5D	; 93
    3b76:	59 f1       	breq	.+86     	; 0x3bce <conv_brk+0xd8>
    3b78:	2d 32       	cpi	r18, 0x2D	; 45
    3b7a:	19 f4       	brne	.+6      	; 0x3b82 <conv_brk+0x8c>
    3b7c:	77 20       	and	r7, r7
    3b7e:	09 f1       	breq	.+66     	; 0x3bc2 <conv_brk+0xcc>
    3b80:	03 c0       	rjmp	.+6      	; 0x3b88 <conv_brk+0x92>
    3b82:	77 20       	and	r7, r7
    3b84:	09 f4       	brne	.+2      	; 0x3b88 <conv_brk+0x92>
    3b86:	68 c0       	rjmp	.+208    	; 0x3c58 <conv_brk+0x162>
    3b88:	45 2d       	mov	r20, r5
    3b8a:	46 95       	lsr	r20
    3b8c:	46 95       	lsr	r20
    3b8e:	46 95       	lsr	r20
    3b90:	d6 01       	movw	r26, r12
    3b92:	a4 0f       	add	r26, r20
    3b94:	b1 1d       	adc	r27, r1
    3b96:	45 2d       	mov	r20, r5
    3b98:	47 70       	andi	r20, 0x07	; 7
    3b9a:	8b 01       	movw	r16, r22
    3b9c:	02 c0       	rjmp	.+4      	; 0x3ba2 <conv_brk+0xac>
    3b9e:	00 0f       	add	r16, r16
    3ba0:	11 1f       	adc	r17, r17
    3ba2:	4a 95       	dec	r20
    3ba4:	e2 f7       	brpl	.-8      	; 0x3b9e <conv_brk+0xa8>
    3ba6:	a8 01       	movw	r20, r16
    3ba8:	5c 91       	ld	r21, X
    3baa:	45 2b       	or	r20, r21
    3bac:	4c 93       	st	X, r20
    3bae:	65 14       	cp	r6, r5
    3bb0:	59 f0       	breq	.+22     	; 0x3bc8 <conv_brk+0xd2>
    3bb2:	56 14       	cp	r5, r6
    3bb4:	10 f4       	brcc	.+4      	; 0x3bba <conv_brk+0xc4>
    3bb6:	53 94       	inc	r5
    3bb8:	e7 cf       	rjmp	.-50     	; 0x3b88 <conv_brk+0x92>
    3bba:	5a 94       	dec	r5
    3bbc:	e5 cf       	rjmp	.-54     	; 0x3b88 <conv_brk+0x92>
    3bbe:	31 e0       	ldi	r19, 0x01	; 1
    3bc0:	04 c0       	rjmp	.+8      	; 0x3bca <conv_brk+0xd4>
    3bc2:	77 24       	eor	r7, r7
    3bc4:	73 94       	inc	r7
    3bc6:	01 c0       	rjmp	.+2      	; 0x3bca <conv_brk+0xd4>
    3bc8:	71 2c       	mov	r7, r1
    3bca:	01 96       	adiw	r24, 0x01	; 1
    3bcc:	bf cf       	rjmp	.-130    	; 0x3b4c <conv_brk+0x56>
    3bce:	77 20       	and	r7, r7
    3bd0:	19 f0       	breq	.+6      	; 0x3bd8 <conv_brk+0xe2>
    3bd2:	8e 81       	ldd	r24, Y+6	; 0x06
    3bd4:	80 62       	ori	r24, 0x20	; 32
    3bd6:	8e 83       	std	Y+6, r24	; 0x06
    3bd8:	31 11       	cpse	r19, r1
    3bda:	03 c0       	rjmp	.+6      	; 0x3be2 <conv_brk+0xec>
    3bdc:	88 24       	eor	r8, r8
    3bde:	83 94       	inc	r8
    3be0:	17 c0       	rjmp	.+46     	; 0x3c10 <conv_brk+0x11a>
    3be2:	f6 01       	movw	r30, r12
    3be4:	9e 01       	movw	r18, r28
    3be6:	2f 5d       	subi	r18, 0xDF	; 223
    3be8:	3f 4f       	sbci	r19, 0xFF	; 255
    3bea:	80 81       	ld	r24, Z
    3bec:	80 95       	com	r24
    3bee:	81 93       	st	Z+, r24
    3bf0:	2e 17       	cp	r18, r30
    3bf2:	3f 07       	cpc	r19, r31
    3bf4:	d1 f7       	brne	.-12     	; 0x3bea <conv_brk+0xf4>
    3bf6:	f2 cf       	rjmp	.-28     	; 0x3bdc <conv_brk+0xe6>
    3bf8:	e1 14       	cp	r14, r1
    3bfa:	f1 04       	cpc	r15, r1
    3bfc:	29 f0       	breq	.+10     	; 0x3c08 <conv_brk+0x112>
    3bfe:	d7 01       	movw	r26, r14
    3c00:	8c 93       	st	X, r24
    3c02:	f7 01       	movw	r30, r14
    3c04:	31 96       	adiw	r30, 0x01	; 1
    3c06:	7f 01       	movw	r14, r30
    3c08:	9a 94       	dec	r9
    3c0a:	81 2c       	mov	r8, r1
    3c0c:	99 20       	and	r9, r9
    3c0e:	e9 f0       	breq	.+58     	; 0x3c4a <conv_brk+0x154>
    3c10:	c5 01       	movw	r24, r10
    3c12:	cc d2       	rcall	.+1432   	; 0x41ac <fgetc>
    3c14:	97 fd       	sbrc	r25, 7
    3c16:	17 c0       	rjmp	.+46     	; 0x3c46 <conv_brk+0x150>
    3c18:	fc 01       	movw	r30, r24
    3c1a:	ff 27       	eor	r31, r31
    3c1c:	23 e0       	ldi	r18, 0x03	; 3
    3c1e:	f5 95       	asr	r31
    3c20:	e7 95       	ror	r30
    3c22:	2a 95       	dec	r18
    3c24:	e1 f7       	brne	.-8      	; 0x3c1e <conv_brk+0x128>
    3c26:	ec 0d       	add	r30, r12
    3c28:	fd 1d       	adc	r31, r13
    3c2a:	20 81       	ld	r18, Z
    3c2c:	30 e0       	ldi	r19, 0x00	; 0
    3c2e:	ac 01       	movw	r20, r24
    3c30:	47 70       	andi	r20, 0x07	; 7
    3c32:	55 27       	eor	r21, r21
    3c34:	02 c0       	rjmp	.+4      	; 0x3c3a <conv_brk+0x144>
    3c36:	35 95       	asr	r19
    3c38:	27 95       	ror	r18
    3c3a:	4a 95       	dec	r20
    3c3c:	e2 f7       	brpl	.-8      	; 0x3c36 <conv_brk+0x140>
    3c3e:	20 fd       	sbrc	r18, 0
    3c40:	db cf       	rjmp	.-74     	; 0x3bf8 <conv_brk+0x102>
    3c42:	b5 01       	movw	r22, r10
    3c44:	2d d3       	rcall	.+1626   	; 0x42a0 <ungetc>
    3c46:	81 10       	cpse	r8, r1
    3c48:	89 cf       	rjmp	.-238    	; 0x3b5c <conv_brk+0x66>
    3c4a:	e1 14       	cp	r14, r1
    3c4c:	f1 04       	cpc	r15, r1
    3c4e:	11 f0       	breq	.+4      	; 0x3c54 <conv_brk+0x15e>
    3c50:	d7 01       	movw	r26, r14
    3c52:	1c 92       	st	X, r1
    3c54:	c8 01       	movw	r24, r16
    3c56:	15 c0       	rjmp	.+42     	; 0x3c82 <conv_brk+0x18c>
    3c58:	42 2f       	mov	r20, r18
    3c5a:	46 95       	lsr	r20
    3c5c:	46 95       	lsr	r20
    3c5e:	46 95       	lsr	r20
    3c60:	d6 01       	movw	r26, r12
    3c62:	a4 0f       	add	r26, r20
    3c64:	b1 1d       	adc	r27, r1
    3c66:	42 2f       	mov	r20, r18
    3c68:	47 70       	andi	r20, 0x07	; 7
    3c6a:	8b 01       	movw	r16, r22
    3c6c:	02 c0       	rjmp	.+4      	; 0x3c72 <conv_brk+0x17c>
    3c6e:	00 0f       	add	r16, r16
    3c70:	11 1f       	adc	r17, r17
    3c72:	4a 95       	dec	r20
    3c74:	e2 f7       	brpl	.-8      	; 0x3c6e <conv_brk+0x178>
    3c76:	a8 01       	movw	r20, r16
    3c78:	5c 91       	ld	r21, X
    3c7a:	45 2b       	or	r20, r21
    3c7c:	4c 93       	st	X, r20
    3c7e:	62 2e       	mov	r6, r18
    3c80:	a4 cf       	rjmp	.-184    	; 0x3bca <conv_brk+0xd4>
    3c82:	a0 96       	adiw	r28, 0x20	; 32
    3c84:	cd bf       	out	0x3d, r28	; 61
    3c86:	de bf       	out	0x3e, r29	; 62
    3c88:	df 91       	pop	r29
    3c8a:	cf 91       	pop	r28
    3c8c:	1f 91       	pop	r17
    3c8e:	0f 91       	pop	r16
    3c90:	ff 90       	pop	r15
    3c92:	ef 90       	pop	r14
    3c94:	df 90       	pop	r13
    3c96:	cf 90       	pop	r12
    3c98:	bf 90       	pop	r11
    3c9a:	af 90       	pop	r10
    3c9c:	9f 90       	pop	r9
    3c9e:	8f 90       	pop	r8
    3ca0:	7f 90       	pop	r7
    3ca2:	6f 90       	pop	r6
    3ca4:	5f 90       	pop	r5
    3ca6:	08 95       	ret

00003ca8 <vfscanf>:
    3ca8:	5f 92       	push	r5
    3caa:	6f 92       	push	r6
    3cac:	7f 92       	push	r7
    3cae:	8f 92       	push	r8
    3cb0:	9f 92       	push	r9
    3cb2:	af 92       	push	r10
    3cb4:	bf 92       	push	r11
    3cb6:	cf 92       	push	r12
    3cb8:	df 92       	push	r13
    3cba:	ef 92       	push	r14
    3cbc:	ff 92       	push	r15
    3cbe:	0f 93       	push	r16
    3cc0:	1f 93       	push	r17
    3cc2:	cf 93       	push	r28
    3cc4:	df 93       	push	r29
    3cc6:	6c 01       	movw	r12, r24
    3cc8:	eb 01       	movw	r28, r22
    3cca:	5a 01       	movw	r10, r20
    3ccc:	fc 01       	movw	r30, r24
    3cce:	16 82       	std	Z+6, r1	; 0x06
    3cd0:	17 82       	std	Z+7, r1	; 0x07
    3cd2:	51 2c       	mov	r5, r1
    3cd4:	f6 01       	movw	r30, r12
    3cd6:	e3 80       	ldd	r14, Z+3	; 0x03
    3cd8:	fe 01       	movw	r30, r28
    3cda:	e3 fc       	sbrc	r14, 3
    3cdc:	85 91       	lpm	r24, Z+
    3cde:	e3 fe       	sbrs	r14, 3
    3ce0:	81 91       	ld	r24, Z+
    3ce2:	18 2f       	mov	r17, r24
    3ce4:	ef 01       	movw	r28, r30
    3ce6:	88 23       	and	r24, r24
    3ce8:	09 f4       	brne	.+2      	; 0x3cec <vfscanf+0x44>
    3cea:	e0 c0       	rjmp	.+448    	; 0x3eac <vfscanf+0x204>
    3cec:	90 e0       	ldi	r25, 0x00	; 0
    3cee:	2e d2       	rcall	.+1116   	; 0x414c <isspace>
    3cf0:	89 2b       	or	r24, r25
    3cf2:	19 f0       	breq	.+6      	; 0x3cfa <vfscanf+0x52>
    3cf4:	c6 01       	movw	r24, r12
    3cf6:	5f de       	rcall	.-834    	; 0x39b6 <skip_spaces>
    3cf8:	ed cf       	rjmp	.-38     	; 0x3cd4 <vfscanf+0x2c>
    3cfa:	15 32       	cpi	r17, 0x25	; 37
    3cfc:	41 f4       	brne	.+16     	; 0x3d0e <vfscanf+0x66>
    3cfe:	fe 01       	movw	r30, r28
    3d00:	e3 fc       	sbrc	r14, 3
    3d02:	15 91       	lpm	r17, Z+
    3d04:	e3 fe       	sbrs	r14, 3
    3d06:	11 91       	ld	r17, Z+
    3d08:	ef 01       	movw	r28, r30
    3d0a:	15 32       	cpi	r17, 0x25	; 37
    3d0c:	71 f4       	brne	.+28     	; 0x3d2a <vfscanf+0x82>
    3d0e:	c6 01       	movw	r24, r12
    3d10:	4d d2       	rcall	.+1178   	; 0x41ac <fgetc>
    3d12:	97 fd       	sbrc	r25, 7
    3d14:	c9 c0       	rjmp	.+402    	; 0x3ea8 <vfscanf+0x200>
    3d16:	41 2f       	mov	r20, r17
    3d18:	50 e0       	ldi	r21, 0x00	; 0
    3d1a:	9c 01       	movw	r18, r24
    3d1c:	33 27       	eor	r19, r19
    3d1e:	24 17       	cp	r18, r20
    3d20:	35 07       	cpc	r19, r21
    3d22:	c1 f2       	breq	.-80     	; 0x3cd4 <vfscanf+0x2c>
    3d24:	b6 01       	movw	r22, r12
    3d26:	bc d2       	rcall	.+1400   	; 0x42a0 <ungetc>
    3d28:	c1 c0       	rjmp	.+386    	; 0x3eac <vfscanf+0x204>
    3d2a:	1a 32       	cpi	r17, 0x2A	; 42
    3d2c:	39 f4       	brne	.+14     	; 0x3d3c <vfscanf+0x94>
    3d2e:	e3 fc       	sbrc	r14, 3
    3d30:	15 91       	lpm	r17, Z+
    3d32:	e3 fe       	sbrs	r14, 3
    3d34:	11 91       	ld	r17, Z+
    3d36:	ef 01       	movw	r28, r30
    3d38:	01 e0       	ldi	r16, 0x01	; 1
    3d3a:	01 c0       	rjmp	.+2      	; 0x3d3e <vfscanf+0x96>
    3d3c:	00 e0       	ldi	r16, 0x00	; 0
    3d3e:	f1 2c       	mov	r15, r1
    3d40:	20 ed       	ldi	r18, 0xD0	; 208
    3d42:	21 0f       	add	r18, r17
    3d44:	2a 30       	cpi	r18, 0x0A	; 10
    3d46:	78 f4       	brcc	.+30     	; 0x3d66 <vfscanf+0xbe>
    3d48:	02 60       	ori	r16, 0x02	; 2
    3d4a:	6f 2d       	mov	r22, r15
    3d4c:	70 e0       	ldi	r23, 0x00	; 0
    3d4e:	80 e0       	ldi	r24, 0x00	; 0
    3d50:	90 e0       	ldi	r25, 0x00	; 0
    3d52:	40 e2       	ldi	r20, 0x20	; 32
    3d54:	09 de       	rcall	.-1006   	; 0x3968 <mulacc>
    3d56:	f6 2e       	mov	r15, r22
    3d58:	fe 01       	movw	r30, r28
    3d5a:	e3 fc       	sbrc	r14, 3
    3d5c:	15 91       	lpm	r17, Z+
    3d5e:	e3 fe       	sbrs	r14, 3
    3d60:	11 91       	ld	r17, Z+
    3d62:	ef 01       	movw	r28, r30
    3d64:	ed cf       	rjmp	.-38     	; 0x3d40 <vfscanf+0x98>
    3d66:	01 ff       	sbrs	r16, 1
    3d68:	03 c0       	rjmp	.+6      	; 0x3d70 <vfscanf+0xc8>
    3d6a:	f1 10       	cpse	r15, r1
    3d6c:	03 c0       	rjmp	.+6      	; 0x3d74 <vfscanf+0xcc>
    3d6e:	9e c0       	rjmp	.+316    	; 0x3eac <vfscanf+0x204>
    3d70:	ff 24       	eor	r15, r15
    3d72:	fa 94       	dec	r15
    3d74:	18 36       	cpi	r17, 0x68	; 104
    3d76:	19 f0       	breq	.+6      	; 0x3d7e <vfscanf+0xd6>
    3d78:	1c 36       	cpi	r17, 0x6C	; 108
    3d7a:	51 f0       	breq	.+20     	; 0x3d90 <vfscanf+0xe8>
    3d7c:	10 c0       	rjmp	.+32     	; 0x3d9e <vfscanf+0xf6>
    3d7e:	fe 01       	movw	r30, r28
    3d80:	e3 fc       	sbrc	r14, 3
    3d82:	15 91       	lpm	r17, Z+
    3d84:	e3 fe       	sbrs	r14, 3
    3d86:	11 91       	ld	r17, Z+
    3d88:	ef 01       	movw	r28, r30
    3d8a:	18 36       	cpi	r17, 0x68	; 104
    3d8c:	41 f4       	brne	.+16     	; 0x3d9e <vfscanf+0xf6>
    3d8e:	08 60       	ori	r16, 0x08	; 8
    3d90:	04 60       	ori	r16, 0x04	; 4
    3d92:	fe 01       	movw	r30, r28
    3d94:	e3 fc       	sbrc	r14, 3
    3d96:	15 91       	lpm	r17, Z+
    3d98:	e3 fe       	sbrs	r14, 3
    3d9a:	11 91       	ld	r17, Z+
    3d9c:	ef 01       	movw	r28, r30
    3d9e:	11 23       	and	r17, r17
    3da0:	09 f4       	brne	.+2      	; 0x3da4 <vfscanf+0xfc>
    3da2:	84 c0       	rjmp	.+264    	; 0x3eac <vfscanf+0x204>
    3da4:	61 2f       	mov	r22, r17
    3da6:	70 e0       	ldi	r23, 0x00	; 0
    3da8:	8e e7       	ldi	r24, 0x7E	; 126
    3daa:	92 e0       	ldi	r25, 0x02	; 2
    3dac:	d7 d1       	rcall	.+942    	; 0x415c <strchr_P>
    3dae:	89 2b       	or	r24, r25
    3db0:	09 f4       	brne	.+2      	; 0x3db4 <vfscanf+0x10c>
    3db2:	7c c0       	rjmp	.+248    	; 0x3eac <vfscanf+0x204>
    3db4:	00 fd       	sbrc	r16, 0
    3db6:	07 c0       	rjmp	.+14     	; 0x3dc6 <vfscanf+0x11e>
    3db8:	f5 01       	movw	r30, r10
    3dba:	80 80       	ld	r8, Z
    3dbc:	91 80       	ldd	r9, Z+1	; 0x01
    3dbe:	c5 01       	movw	r24, r10
    3dc0:	02 96       	adiw	r24, 0x02	; 2
    3dc2:	5c 01       	movw	r10, r24
    3dc4:	02 c0       	rjmp	.+4      	; 0x3dca <vfscanf+0x122>
    3dc6:	81 2c       	mov	r8, r1
    3dc8:	91 2c       	mov	r9, r1
    3dca:	1e 36       	cpi	r17, 0x6E	; 110
    3dcc:	49 f4       	brne	.+18     	; 0x3de0 <vfscanf+0x138>
    3dce:	f6 01       	movw	r30, r12
    3dd0:	46 81       	ldd	r20, Z+6	; 0x06
    3dd2:	57 81       	ldd	r21, Z+7	; 0x07
    3dd4:	60 e0       	ldi	r22, 0x00	; 0
    3dd6:	70 e0       	ldi	r23, 0x00	; 0
    3dd8:	20 2f       	mov	r18, r16
    3dda:	c4 01       	movw	r24, r8
    3ddc:	b9 dd       	rcall	.-1166   	; 0x3950 <putval>
    3dde:	7a cf       	rjmp	.-268    	; 0x3cd4 <vfscanf+0x2c>
    3de0:	13 36       	cpi	r17, 0x63	; 99
    3de2:	a1 f4       	brne	.+40     	; 0x3e0c <vfscanf+0x164>
    3de4:	01 fd       	sbrc	r16, 1
    3de6:	02 c0       	rjmp	.+4      	; 0x3dec <vfscanf+0x144>
    3de8:	ff 24       	eor	r15, r15
    3dea:	f3 94       	inc	r15
    3dec:	c6 01       	movw	r24, r12
    3dee:	de d1       	rcall	.+956    	; 0x41ac <fgetc>
    3df0:	97 fd       	sbrc	r25, 7
    3df2:	5a c0       	rjmp	.+180    	; 0x3ea8 <vfscanf+0x200>
    3df4:	81 14       	cp	r8, r1
    3df6:	91 04       	cpc	r9, r1
    3df8:	29 f0       	breq	.+10     	; 0x3e04 <vfscanf+0x15c>
    3dfa:	f4 01       	movw	r30, r8
    3dfc:	80 83       	st	Z, r24
    3dfe:	c4 01       	movw	r24, r8
    3e00:	01 96       	adiw	r24, 0x01	; 1
    3e02:	4c 01       	movw	r8, r24
    3e04:	fa 94       	dec	r15
    3e06:	f1 10       	cpse	r15, r1
    3e08:	f1 cf       	rjmp	.-30     	; 0x3dec <vfscanf+0x144>
    3e0a:	4a c0       	rjmp	.+148    	; 0x3ea0 <vfscanf+0x1f8>
    3e0c:	1b 35       	cpi	r17, 0x5B	; 91
    3e0e:	51 f4       	brne	.+20     	; 0x3e24 <vfscanf+0x17c>
    3e10:	9e 01       	movw	r18, r28
    3e12:	a4 01       	movw	r20, r8
    3e14:	6f 2d       	mov	r22, r15
    3e16:	c6 01       	movw	r24, r12
    3e18:	6e de       	rcall	.-804    	; 0x3af6 <conv_brk>
    3e1a:	ec 01       	movw	r28, r24
    3e1c:	89 2b       	or	r24, r25
    3e1e:	09 f0       	breq	.+2      	; 0x3e22 <vfscanf+0x17a>
    3e20:	3f c0       	rjmp	.+126    	; 0x3ea0 <vfscanf+0x1f8>
    3e22:	39 c0       	rjmp	.+114    	; 0x3e96 <vfscanf+0x1ee>
    3e24:	c6 01       	movw	r24, r12
    3e26:	c7 dd       	rcall	.-1138   	; 0x39b6 <skip_spaces>
    3e28:	97 fd       	sbrc	r25, 7
    3e2a:	3e c0       	rjmp	.+124    	; 0x3ea8 <vfscanf+0x200>
    3e2c:	1f 36       	cpi	r17, 0x6F	; 111
    3e2e:	49 f1       	breq	.+82     	; 0x3e82 <vfscanf+0x1da>
    3e30:	28 f4       	brcc	.+10     	; 0x3e3c <vfscanf+0x194>
    3e32:	14 36       	cpi	r17, 0x64	; 100
    3e34:	21 f1       	breq	.+72     	; 0x3e7e <vfscanf+0x1d6>
    3e36:	19 36       	cpi	r17, 0x69	; 105
    3e38:	39 f1       	breq	.+78     	; 0x3e88 <vfscanf+0x1e0>
    3e3a:	25 c0       	rjmp	.+74     	; 0x3e86 <vfscanf+0x1de>
    3e3c:	13 37       	cpi	r17, 0x73	; 115
    3e3e:	71 f0       	breq	.+28     	; 0x3e5c <vfscanf+0x1b4>
    3e40:	15 37       	cpi	r17, 0x75	; 117
    3e42:	e9 f0       	breq	.+58     	; 0x3e7e <vfscanf+0x1d6>
    3e44:	20 c0       	rjmp	.+64     	; 0x3e86 <vfscanf+0x1de>
    3e46:	81 14       	cp	r8, r1
    3e48:	91 04       	cpc	r9, r1
    3e4a:	29 f0       	breq	.+10     	; 0x3e56 <vfscanf+0x1ae>
    3e4c:	f4 01       	movw	r30, r8
    3e4e:	60 82       	st	Z, r6
    3e50:	c4 01       	movw	r24, r8
    3e52:	01 96       	adiw	r24, 0x01	; 1
    3e54:	4c 01       	movw	r8, r24
    3e56:	fa 94       	dec	r15
    3e58:	ff 20       	and	r15, r15
    3e5a:	59 f0       	breq	.+22     	; 0x3e72 <vfscanf+0x1ca>
    3e5c:	c6 01       	movw	r24, r12
    3e5e:	a6 d1       	rcall	.+844    	; 0x41ac <fgetc>
    3e60:	3c 01       	movw	r6, r24
    3e62:	97 fd       	sbrc	r25, 7
    3e64:	06 c0       	rjmp	.+12     	; 0x3e72 <vfscanf+0x1ca>
    3e66:	72 d1       	rcall	.+740    	; 0x414c <isspace>
    3e68:	89 2b       	or	r24, r25
    3e6a:	69 f3       	breq	.-38     	; 0x3e46 <vfscanf+0x19e>
    3e6c:	b6 01       	movw	r22, r12
    3e6e:	c3 01       	movw	r24, r6
    3e70:	17 d2       	rcall	.+1070   	; 0x42a0 <ungetc>
    3e72:	81 14       	cp	r8, r1
    3e74:	91 04       	cpc	r9, r1
    3e76:	a1 f0       	breq	.+40     	; 0x3ea0 <vfscanf+0x1f8>
    3e78:	f4 01       	movw	r30, r8
    3e7a:	10 82       	st	Z, r1
    3e7c:	11 c0       	rjmp	.+34     	; 0x3ea0 <vfscanf+0x1f8>
    3e7e:	00 62       	ori	r16, 0x20	; 32
    3e80:	03 c0       	rjmp	.+6      	; 0x3e88 <vfscanf+0x1e0>
    3e82:	00 61       	ori	r16, 0x10	; 16
    3e84:	01 c0       	rjmp	.+2      	; 0x3e88 <vfscanf+0x1e0>
    3e86:	00 64       	ori	r16, 0x40	; 64
    3e88:	20 2f       	mov	r18, r16
    3e8a:	a4 01       	movw	r20, r8
    3e8c:	6f 2d       	mov	r22, r15
    3e8e:	c6 01       	movw	r24, r12
    3e90:	a8 dd       	rcall	.-1200   	; 0x39e2 <conv_int>
    3e92:	81 11       	cpse	r24, r1
    3e94:	05 c0       	rjmp	.+10     	; 0x3ea0 <vfscanf+0x1f8>
    3e96:	f6 01       	movw	r30, r12
    3e98:	83 81       	ldd	r24, Z+3	; 0x03
    3e9a:	80 73       	andi	r24, 0x30	; 48
    3e9c:	29 f4       	brne	.+10     	; 0x3ea8 <vfscanf+0x200>
    3e9e:	06 c0       	rjmp	.+12     	; 0x3eac <vfscanf+0x204>
    3ea0:	00 fd       	sbrc	r16, 0
    3ea2:	18 cf       	rjmp	.-464    	; 0x3cd4 <vfscanf+0x2c>
    3ea4:	53 94       	inc	r5
    3ea6:	16 cf       	rjmp	.-468    	; 0x3cd4 <vfscanf+0x2c>
    3ea8:	55 20       	and	r5, r5
    3eaa:	19 f0       	breq	.+6      	; 0x3eb2 <vfscanf+0x20a>
    3eac:	85 2d       	mov	r24, r5
    3eae:	90 e0       	ldi	r25, 0x00	; 0
    3eb0:	02 c0       	rjmp	.+4      	; 0x3eb6 <vfscanf+0x20e>
    3eb2:	8f ef       	ldi	r24, 0xFF	; 255
    3eb4:	9f ef       	ldi	r25, 0xFF	; 255
    3eb6:	df 91       	pop	r29
    3eb8:	cf 91       	pop	r28
    3eba:	1f 91       	pop	r17
    3ebc:	0f 91       	pop	r16
    3ebe:	ff 90       	pop	r15
    3ec0:	ef 90       	pop	r14
    3ec2:	df 90       	pop	r13
    3ec4:	cf 90       	pop	r12
    3ec6:	bf 90       	pop	r11
    3ec8:	af 90       	pop	r10
    3eca:	9f 90       	pop	r9
    3ecc:	8f 90       	pop	r8
    3ece:	7f 90       	pop	r7
    3ed0:	6f 90       	pop	r6
    3ed2:	5f 90       	pop	r5
    3ed4:	08 95       	ret

00003ed6 <calloc>:
    3ed6:	0f 93       	push	r16
    3ed8:	1f 93       	push	r17
    3eda:	cf 93       	push	r28
    3edc:	df 93       	push	r29
    3ede:	86 9f       	mul	r24, r22
    3ee0:	80 01       	movw	r16, r0
    3ee2:	87 9f       	mul	r24, r23
    3ee4:	10 0d       	add	r17, r0
    3ee6:	96 9f       	mul	r25, r22
    3ee8:	10 0d       	add	r17, r0
    3eea:	11 24       	eor	r1, r1
    3eec:	c8 01       	movw	r24, r16
    3eee:	0d d0       	rcall	.+26     	; 0x3f0a <malloc>
    3ef0:	ec 01       	movw	r28, r24
    3ef2:	00 97       	sbiw	r24, 0x00	; 0
    3ef4:	21 f0       	breq	.+8      	; 0x3efe <calloc+0x28>
    3ef6:	a8 01       	movw	r20, r16
    3ef8:	60 e0       	ldi	r22, 0x00	; 0
    3efa:	70 e0       	ldi	r23, 0x00	; 0
    3efc:	45 d1       	rcall	.+650    	; 0x4188 <memset>
    3efe:	ce 01       	movw	r24, r28
    3f00:	df 91       	pop	r29
    3f02:	cf 91       	pop	r28
    3f04:	1f 91       	pop	r17
    3f06:	0f 91       	pop	r16
    3f08:	08 95       	ret

00003f0a <malloc>:
    3f0a:	0f 93       	push	r16
    3f0c:	1f 93       	push	r17
    3f0e:	cf 93       	push	r28
    3f10:	df 93       	push	r29
    3f12:	82 30       	cpi	r24, 0x02	; 2
    3f14:	91 05       	cpc	r25, r1
    3f16:	10 f4       	brcc	.+4      	; 0x3f1c <malloc+0x12>
    3f18:	82 e0       	ldi	r24, 0x02	; 2
    3f1a:	90 e0       	ldi	r25, 0x00	; 0
    3f1c:	e0 91 8a 21 	lds	r30, 0x218A	; 0x80218a <__flp>
    3f20:	f0 91 8b 21 	lds	r31, 0x218B	; 0x80218b <__flp+0x1>
    3f24:	20 e0       	ldi	r18, 0x00	; 0
    3f26:	30 e0       	ldi	r19, 0x00	; 0
    3f28:	a0 e0       	ldi	r26, 0x00	; 0
    3f2a:	b0 e0       	ldi	r27, 0x00	; 0
    3f2c:	30 97       	sbiw	r30, 0x00	; 0
    3f2e:	19 f1       	breq	.+70     	; 0x3f76 <malloc+0x6c>
    3f30:	40 81       	ld	r20, Z
    3f32:	51 81       	ldd	r21, Z+1	; 0x01
    3f34:	02 81       	ldd	r16, Z+2	; 0x02
    3f36:	13 81       	ldd	r17, Z+3	; 0x03
    3f38:	48 17       	cp	r20, r24
    3f3a:	59 07       	cpc	r21, r25
    3f3c:	c8 f0       	brcs	.+50     	; 0x3f70 <malloc+0x66>
    3f3e:	84 17       	cp	r24, r20
    3f40:	95 07       	cpc	r25, r21
    3f42:	69 f4       	brne	.+26     	; 0x3f5e <malloc+0x54>
    3f44:	10 97       	sbiw	r26, 0x00	; 0
    3f46:	31 f0       	breq	.+12     	; 0x3f54 <malloc+0x4a>
    3f48:	12 96       	adiw	r26, 0x02	; 2
    3f4a:	0c 93       	st	X, r16
    3f4c:	12 97       	sbiw	r26, 0x02	; 2
    3f4e:	13 96       	adiw	r26, 0x03	; 3
    3f50:	1c 93       	st	X, r17
    3f52:	27 c0       	rjmp	.+78     	; 0x3fa2 <malloc+0x98>
    3f54:	00 93 8a 21 	sts	0x218A, r16	; 0x80218a <__flp>
    3f58:	10 93 8b 21 	sts	0x218B, r17	; 0x80218b <__flp+0x1>
    3f5c:	22 c0       	rjmp	.+68     	; 0x3fa2 <malloc+0x98>
    3f5e:	21 15       	cp	r18, r1
    3f60:	31 05       	cpc	r19, r1
    3f62:	19 f0       	breq	.+6      	; 0x3f6a <malloc+0x60>
    3f64:	42 17       	cp	r20, r18
    3f66:	53 07       	cpc	r21, r19
    3f68:	18 f4       	brcc	.+6      	; 0x3f70 <malloc+0x66>
    3f6a:	9a 01       	movw	r18, r20
    3f6c:	bd 01       	movw	r22, r26
    3f6e:	ef 01       	movw	r28, r30
    3f70:	df 01       	movw	r26, r30
    3f72:	f8 01       	movw	r30, r16
    3f74:	db cf       	rjmp	.-74     	; 0x3f2c <malloc+0x22>
    3f76:	21 15       	cp	r18, r1
    3f78:	31 05       	cpc	r19, r1
    3f7a:	f9 f0       	breq	.+62     	; 0x3fba <malloc+0xb0>
    3f7c:	28 1b       	sub	r18, r24
    3f7e:	39 0b       	sbc	r19, r25
    3f80:	24 30       	cpi	r18, 0x04	; 4
    3f82:	31 05       	cpc	r19, r1
    3f84:	80 f4       	brcc	.+32     	; 0x3fa6 <malloc+0x9c>
    3f86:	8a 81       	ldd	r24, Y+2	; 0x02
    3f88:	9b 81       	ldd	r25, Y+3	; 0x03
    3f8a:	61 15       	cp	r22, r1
    3f8c:	71 05       	cpc	r23, r1
    3f8e:	21 f0       	breq	.+8      	; 0x3f98 <malloc+0x8e>
    3f90:	fb 01       	movw	r30, r22
    3f92:	82 83       	std	Z+2, r24	; 0x02
    3f94:	93 83       	std	Z+3, r25	; 0x03
    3f96:	04 c0       	rjmp	.+8      	; 0x3fa0 <malloc+0x96>
    3f98:	80 93 8a 21 	sts	0x218A, r24	; 0x80218a <__flp>
    3f9c:	90 93 8b 21 	sts	0x218B, r25	; 0x80218b <__flp+0x1>
    3fa0:	fe 01       	movw	r30, r28
    3fa2:	32 96       	adiw	r30, 0x02	; 2
    3fa4:	44 c0       	rjmp	.+136    	; 0x402e <__stack+0x2f>
    3fa6:	fe 01       	movw	r30, r28
    3fa8:	e2 0f       	add	r30, r18
    3faa:	f3 1f       	adc	r31, r19
    3fac:	81 93       	st	Z+, r24
    3fae:	91 93       	st	Z+, r25
    3fb0:	22 50       	subi	r18, 0x02	; 2
    3fb2:	31 09       	sbc	r19, r1
    3fb4:	28 83       	st	Y, r18
    3fb6:	39 83       	std	Y+1, r19	; 0x01
    3fb8:	3a c0       	rjmp	.+116    	; 0x402e <__stack+0x2f>
    3fba:	20 91 88 21 	lds	r18, 0x2188	; 0x802188 <__brkval>
    3fbe:	30 91 89 21 	lds	r19, 0x2189	; 0x802189 <__brkval+0x1>
    3fc2:	23 2b       	or	r18, r19
    3fc4:	41 f4       	brne	.+16     	; 0x3fd6 <malloc+0xcc>
    3fc6:	20 91 02 20 	lds	r18, 0x2002	; 0x802002 <__malloc_heap_start>
    3fca:	30 91 03 20 	lds	r19, 0x2003	; 0x802003 <__malloc_heap_start+0x1>
    3fce:	20 93 88 21 	sts	0x2188, r18	; 0x802188 <__brkval>
    3fd2:	30 93 89 21 	sts	0x2189, r19	; 0x802189 <__brkval+0x1>
    3fd6:	20 91 00 20 	lds	r18, 0x2000	; 0x802000 <__data_start>
    3fda:	30 91 01 20 	lds	r19, 0x2001	; 0x802001 <__data_start+0x1>
    3fde:	21 15       	cp	r18, r1
    3fe0:	31 05       	cpc	r19, r1
    3fe2:	41 f4       	brne	.+16     	; 0x3ff4 <malloc+0xea>
    3fe4:	2d b7       	in	r18, 0x3d	; 61
    3fe6:	3e b7       	in	r19, 0x3e	; 62
    3fe8:	40 91 04 20 	lds	r20, 0x2004	; 0x802004 <__malloc_margin>
    3fec:	50 91 05 20 	lds	r21, 0x2005	; 0x802005 <__malloc_margin+0x1>
    3ff0:	24 1b       	sub	r18, r20
    3ff2:	35 0b       	sbc	r19, r21
    3ff4:	e0 91 88 21 	lds	r30, 0x2188	; 0x802188 <__brkval>
    3ff8:	f0 91 89 21 	lds	r31, 0x2189	; 0x802189 <__brkval+0x1>
    3ffc:	e2 17       	cp	r30, r18
    3ffe:	f3 07       	cpc	r31, r19
    4000:	a0 f4       	brcc	.+40     	; 0x402a <__stack+0x2b>
    4002:	2e 1b       	sub	r18, r30
    4004:	3f 0b       	sbc	r19, r31
    4006:	28 17       	cp	r18, r24
    4008:	39 07       	cpc	r19, r25
    400a:	78 f0       	brcs	.+30     	; 0x402a <__stack+0x2b>
    400c:	ac 01       	movw	r20, r24
    400e:	4e 5f       	subi	r20, 0xFE	; 254
    4010:	5f 4f       	sbci	r21, 0xFF	; 255
    4012:	24 17       	cp	r18, r20
    4014:	35 07       	cpc	r19, r21
    4016:	48 f0       	brcs	.+18     	; 0x402a <__stack+0x2b>
    4018:	4e 0f       	add	r20, r30
    401a:	5f 1f       	adc	r21, r31
    401c:	40 93 88 21 	sts	0x2188, r20	; 0x802188 <__brkval>
    4020:	50 93 89 21 	sts	0x2189, r21	; 0x802189 <__brkval+0x1>
    4024:	81 93       	st	Z+, r24
    4026:	91 93       	st	Z+, r25
    4028:	02 c0       	rjmp	.+4      	; 0x402e <__stack+0x2f>
    402a:	e0 e0       	ldi	r30, 0x00	; 0
    402c:	f0 e0       	ldi	r31, 0x00	; 0
    402e:	cf 01       	movw	r24, r30
    4030:	df 91       	pop	r29
    4032:	cf 91       	pop	r28
    4034:	1f 91       	pop	r17
    4036:	0f 91       	pop	r16
    4038:	08 95       	ret

0000403a <free>:
    403a:	cf 93       	push	r28
    403c:	df 93       	push	r29
    403e:	00 97       	sbiw	r24, 0x00	; 0
    4040:	09 f4       	brne	.+2      	; 0x4044 <free+0xa>
    4042:	81 c0       	rjmp	.+258    	; 0x4146 <free+0x10c>
    4044:	fc 01       	movw	r30, r24
    4046:	32 97       	sbiw	r30, 0x02	; 2
    4048:	12 82       	std	Z+2, r1	; 0x02
    404a:	13 82       	std	Z+3, r1	; 0x03
    404c:	a0 91 8a 21 	lds	r26, 0x218A	; 0x80218a <__flp>
    4050:	b0 91 8b 21 	lds	r27, 0x218B	; 0x80218b <__flp+0x1>
    4054:	10 97       	sbiw	r26, 0x00	; 0
    4056:	81 f4       	brne	.+32     	; 0x4078 <free+0x3e>
    4058:	20 81       	ld	r18, Z
    405a:	31 81       	ldd	r19, Z+1	; 0x01
    405c:	82 0f       	add	r24, r18
    405e:	93 1f       	adc	r25, r19
    4060:	20 91 88 21 	lds	r18, 0x2188	; 0x802188 <__brkval>
    4064:	30 91 89 21 	lds	r19, 0x2189	; 0x802189 <__brkval+0x1>
    4068:	28 17       	cp	r18, r24
    406a:	39 07       	cpc	r19, r25
    406c:	51 f5       	brne	.+84     	; 0x40c2 <free+0x88>
    406e:	e0 93 88 21 	sts	0x2188, r30	; 0x802188 <__brkval>
    4072:	f0 93 89 21 	sts	0x2189, r31	; 0x802189 <__brkval+0x1>
    4076:	67 c0       	rjmp	.+206    	; 0x4146 <free+0x10c>
    4078:	ed 01       	movw	r28, r26
    407a:	20 e0       	ldi	r18, 0x00	; 0
    407c:	30 e0       	ldi	r19, 0x00	; 0
    407e:	ce 17       	cp	r28, r30
    4080:	df 07       	cpc	r29, r31
    4082:	40 f4       	brcc	.+16     	; 0x4094 <free+0x5a>
    4084:	4a 81       	ldd	r20, Y+2	; 0x02
    4086:	5b 81       	ldd	r21, Y+3	; 0x03
    4088:	9e 01       	movw	r18, r28
    408a:	41 15       	cp	r20, r1
    408c:	51 05       	cpc	r21, r1
    408e:	f1 f0       	breq	.+60     	; 0x40cc <free+0x92>
    4090:	ea 01       	movw	r28, r20
    4092:	f5 cf       	rjmp	.-22     	; 0x407e <free+0x44>
    4094:	c2 83       	std	Z+2, r28	; 0x02
    4096:	d3 83       	std	Z+3, r29	; 0x03
    4098:	40 81       	ld	r20, Z
    409a:	51 81       	ldd	r21, Z+1	; 0x01
    409c:	84 0f       	add	r24, r20
    409e:	95 1f       	adc	r25, r21
    40a0:	c8 17       	cp	r28, r24
    40a2:	d9 07       	cpc	r29, r25
    40a4:	59 f4       	brne	.+22     	; 0x40bc <free+0x82>
    40a6:	88 81       	ld	r24, Y
    40a8:	99 81       	ldd	r25, Y+1	; 0x01
    40aa:	84 0f       	add	r24, r20
    40ac:	95 1f       	adc	r25, r21
    40ae:	02 96       	adiw	r24, 0x02	; 2
    40b0:	80 83       	st	Z, r24
    40b2:	91 83       	std	Z+1, r25	; 0x01
    40b4:	8a 81       	ldd	r24, Y+2	; 0x02
    40b6:	9b 81       	ldd	r25, Y+3	; 0x03
    40b8:	82 83       	std	Z+2, r24	; 0x02
    40ba:	93 83       	std	Z+3, r25	; 0x03
    40bc:	21 15       	cp	r18, r1
    40be:	31 05       	cpc	r19, r1
    40c0:	29 f4       	brne	.+10     	; 0x40cc <free+0x92>
    40c2:	e0 93 8a 21 	sts	0x218A, r30	; 0x80218a <__flp>
    40c6:	f0 93 8b 21 	sts	0x218B, r31	; 0x80218b <__flp+0x1>
    40ca:	3d c0       	rjmp	.+122    	; 0x4146 <free+0x10c>
    40cc:	e9 01       	movw	r28, r18
    40ce:	ea 83       	std	Y+2, r30	; 0x02
    40d0:	fb 83       	std	Y+3, r31	; 0x03
    40d2:	49 91       	ld	r20, Y+
    40d4:	59 91       	ld	r21, Y+
    40d6:	c4 0f       	add	r28, r20
    40d8:	d5 1f       	adc	r29, r21
    40da:	ec 17       	cp	r30, r28
    40dc:	fd 07       	cpc	r31, r29
    40de:	61 f4       	brne	.+24     	; 0x40f8 <free+0xbe>
    40e0:	80 81       	ld	r24, Z
    40e2:	91 81       	ldd	r25, Z+1	; 0x01
    40e4:	84 0f       	add	r24, r20
    40e6:	95 1f       	adc	r25, r21
    40e8:	02 96       	adiw	r24, 0x02	; 2
    40ea:	e9 01       	movw	r28, r18
    40ec:	88 83       	st	Y, r24
    40ee:	99 83       	std	Y+1, r25	; 0x01
    40f0:	82 81       	ldd	r24, Z+2	; 0x02
    40f2:	93 81       	ldd	r25, Z+3	; 0x03
    40f4:	8a 83       	std	Y+2, r24	; 0x02
    40f6:	9b 83       	std	Y+3, r25	; 0x03
    40f8:	e0 e0       	ldi	r30, 0x00	; 0
    40fa:	f0 e0       	ldi	r31, 0x00	; 0
    40fc:	12 96       	adiw	r26, 0x02	; 2
    40fe:	8d 91       	ld	r24, X+
    4100:	9c 91       	ld	r25, X
    4102:	13 97       	sbiw	r26, 0x03	; 3
    4104:	00 97       	sbiw	r24, 0x00	; 0
    4106:	19 f0       	breq	.+6      	; 0x410e <free+0xd4>
    4108:	fd 01       	movw	r30, r26
    410a:	dc 01       	movw	r26, r24
    410c:	f7 cf       	rjmp	.-18     	; 0x40fc <free+0xc2>
    410e:	8d 91       	ld	r24, X+
    4110:	9c 91       	ld	r25, X
    4112:	11 97       	sbiw	r26, 0x01	; 1
    4114:	9d 01       	movw	r18, r26
    4116:	2e 5f       	subi	r18, 0xFE	; 254
    4118:	3f 4f       	sbci	r19, 0xFF	; 255
    411a:	82 0f       	add	r24, r18
    411c:	93 1f       	adc	r25, r19
    411e:	20 91 88 21 	lds	r18, 0x2188	; 0x802188 <__brkval>
    4122:	30 91 89 21 	lds	r19, 0x2189	; 0x802189 <__brkval+0x1>
    4126:	28 17       	cp	r18, r24
    4128:	39 07       	cpc	r19, r25
    412a:	69 f4       	brne	.+26     	; 0x4146 <free+0x10c>
    412c:	30 97       	sbiw	r30, 0x00	; 0
    412e:	29 f4       	brne	.+10     	; 0x413a <free+0x100>
    4130:	10 92 8a 21 	sts	0x218A, r1	; 0x80218a <__flp>
    4134:	10 92 8b 21 	sts	0x218B, r1	; 0x80218b <__flp+0x1>
    4138:	02 c0       	rjmp	.+4      	; 0x413e <free+0x104>
    413a:	12 82       	std	Z+2, r1	; 0x02
    413c:	13 82       	std	Z+3, r1	; 0x03
    413e:	a0 93 88 21 	sts	0x2188, r26	; 0x802188 <__brkval>
    4142:	b0 93 89 21 	sts	0x2189, r27	; 0x802189 <__brkval+0x1>
    4146:	df 91       	pop	r29
    4148:	cf 91       	pop	r28
    414a:	08 95       	ret

0000414c <isspace>:
    414c:	91 11       	cpse	r25, r1
    414e:	1f c1       	rjmp	.+574    	; 0x438e <__ctype_isfalse>
    4150:	80 32       	cpi	r24, 0x20	; 32
    4152:	19 f0       	breq	.+6      	; 0x415a <isspace+0xe>
    4154:	89 50       	subi	r24, 0x09	; 9
    4156:	85 50       	subi	r24, 0x05	; 5
    4158:	d0 f7       	brcc	.-12     	; 0x414e <isspace+0x2>
    415a:	08 95       	ret

0000415c <strchr_P>:
    415c:	fc 01       	movw	r30, r24
    415e:	05 90       	lpm	r0, Z+
    4160:	06 16       	cp	r0, r22
    4162:	21 f0       	breq	.+8      	; 0x416c <strchr_P+0x10>
    4164:	00 20       	and	r0, r0
    4166:	d9 f7       	brne	.-10     	; 0x415e <strchr_P+0x2>
    4168:	c0 01       	movw	r24, r0
    416a:	08 95       	ret
    416c:	31 97       	sbiw	r30, 0x01	; 1
    416e:	cf 01       	movw	r24, r30
    4170:	08 95       	ret

00004172 <strnlen_P>:
    4172:	fc 01       	movw	r30, r24
    4174:	05 90       	lpm	r0, Z+
    4176:	61 50       	subi	r22, 0x01	; 1
    4178:	70 40       	sbci	r23, 0x00	; 0
    417a:	01 10       	cpse	r0, r1
    417c:	d8 f7       	brcc	.-10     	; 0x4174 <strnlen_P+0x2>
    417e:	80 95       	com	r24
    4180:	90 95       	com	r25
    4182:	8e 0f       	add	r24, r30
    4184:	9f 1f       	adc	r25, r31
    4186:	08 95       	ret

00004188 <memset>:
    4188:	dc 01       	movw	r26, r24
    418a:	01 c0       	rjmp	.+2      	; 0x418e <memset+0x6>
    418c:	6d 93       	st	X+, r22
    418e:	41 50       	subi	r20, 0x01	; 1
    4190:	50 40       	sbci	r21, 0x00	; 0
    4192:	e0 f7       	brcc	.-8      	; 0x418c <memset+0x4>
    4194:	08 95       	ret

00004196 <strnlen>:
    4196:	fc 01       	movw	r30, r24
    4198:	61 50       	subi	r22, 0x01	; 1
    419a:	70 40       	sbci	r23, 0x00	; 0
    419c:	01 90       	ld	r0, Z+
    419e:	01 10       	cpse	r0, r1
    41a0:	d8 f7       	brcc	.-10     	; 0x4198 <strnlen+0x2>
    41a2:	80 95       	com	r24
    41a4:	90 95       	com	r25
    41a6:	8e 0f       	add	r24, r30
    41a8:	9f 1f       	adc	r25, r31
    41aa:	08 95       	ret

000041ac <fgetc>:
    41ac:	cf 93       	push	r28
    41ae:	df 93       	push	r29
    41b0:	ec 01       	movw	r28, r24
    41b2:	2b 81       	ldd	r18, Y+3	; 0x03
    41b4:	20 ff       	sbrs	r18, 0
    41b6:	33 c0       	rjmp	.+102    	; 0x421e <fgetc+0x72>
    41b8:	26 ff       	sbrs	r18, 6
    41ba:	0a c0       	rjmp	.+20     	; 0x41d0 <fgetc+0x24>
    41bc:	2f 7b       	andi	r18, 0xBF	; 191
    41be:	2b 83       	std	Y+3, r18	; 0x03
    41c0:	8e 81       	ldd	r24, Y+6	; 0x06
    41c2:	9f 81       	ldd	r25, Y+7	; 0x07
    41c4:	01 96       	adiw	r24, 0x01	; 1
    41c6:	8e 83       	std	Y+6, r24	; 0x06
    41c8:	9f 83       	std	Y+7, r25	; 0x07
    41ca:	8a 81       	ldd	r24, Y+2	; 0x02
    41cc:	90 e0       	ldi	r25, 0x00	; 0
    41ce:	29 c0       	rjmp	.+82     	; 0x4222 <fgetc+0x76>
    41d0:	22 ff       	sbrs	r18, 2
    41d2:	0f c0       	rjmp	.+30     	; 0x41f2 <fgetc+0x46>
    41d4:	e8 81       	ld	r30, Y
    41d6:	f9 81       	ldd	r31, Y+1	; 0x01
    41d8:	80 81       	ld	r24, Z
    41da:	08 2e       	mov	r0, r24
    41dc:	00 0c       	add	r0, r0
    41de:	99 0b       	sbc	r25, r25
    41e0:	00 97       	sbiw	r24, 0x00	; 0
    41e2:	19 f4       	brne	.+6      	; 0x41ea <fgetc+0x3e>
    41e4:	20 62       	ori	r18, 0x20	; 32
    41e6:	2b 83       	std	Y+3, r18	; 0x03
    41e8:	1a c0       	rjmp	.+52     	; 0x421e <fgetc+0x72>
    41ea:	31 96       	adiw	r30, 0x01	; 1
    41ec:	e8 83       	st	Y, r30
    41ee:	f9 83       	std	Y+1, r31	; 0x01
    41f0:	0e c0       	rjmp	.+28     	; 0x420e <fgetc+0x62>
    41f2:	ea 85       	ldd	r30, Y+10	; 0x0a
    41f4:	fb 85       	ldd	r31, Y+11	; 0x0b
    41f6:	19 95       	eicall
    41f8:	97 ff       	sbrs	r25, 7
    41fa:	09 c0       	rjmp	.+18     	; 0x420e <fgetc+0x62>
    41fc:	2b 81       	ldd	r18, Y+3	; 0x03
    41fe:	01 96       	adiw	r24, 0x01	; 1
    4200:	11 f0       	breq	.+4      	; 0x4206 <fgetc+0x5a>
    4202:	80 e2       	ldi	r24, 0x20	; 32
    4204:	01 c0       	rjmp	.+2      	; 0x4208 <fgetc+0x5c>
    4206:	80 e1       	ldi	r24, 0x10	; 16
    4208:	82 2b       	or	r24, r18
    420a:	8b 83       	std	Y+3, r24	; 0x03
    420c:	08 c0       	rjmp	.+16     	; 0x421e <fgetc+0x72>
    420e:	2e 81       	ldd	r18, Y+6	; 0x06
    4210:	3f 81       	ldd	r19, Y+7	; 0x07
    4212:	2f 5f       	subi	r18, 0xFF	; 255
    4214:	3f 4f       	sbci	r19, 0xFF	; 255
    4216:	2e 83       	std	Y+6, r18	; 0x06
    4218:	3f 83       	std	Y+7, r19	; 0x07
    421a:	99 27       	eor	r25, r25
    421c:	02 c0       	rjmp	.+4      	; 0x4222 <fgetc+0x76>
    421e:	8f ef       	ldi	r24, 0xFF	; 255
    4220:	9f ef       	ldi	r25, 0xFF	; 255
    4222:	df 91       	pop	r29
    4224:	cf 91       	pop	r28
    4226:	08 95       	ret

00004228 <fputc>:
    4228:	0f 93       	push	r16
    422a:	1f 93       	push	r17
    422c:	cf 93       	push	r28
    422e:	df 93       	push	r29
    4230:	fb 01       	movw	r30, r22
    4232:	23 81       	ldd	r18, Z+3	; 0x03
    4234:	21 fd       	sbrc	r18, 1
    4236:	03 c0       	rjmp	.+6      	; 0x423e <fputc+0x16>
    4238:	8f ef       	ldi	r24, 0xFF	; 255
    423a:	9f ef       	ldi	r25, 0xFF	; 255
    423c:	2c c0       	rjmp	.+88     	; 0x4296 <fputc+0x6e>
    423e:	22 ff       	sbrs	r18, 2
    4240:	16 c0       	rjmp	.+44     	; 0x426e <fputc+0x46>
    4242:	46 81       	ldd	r20, Z+6	; 0x06
    4244:	57 81       	ldd	r21, Z+7	; 0x07
    4246:	24 81       	ldd	r18, Z+4	; 0x04
    4248:	35 81       	ldd	r19, Z+5	; 0x05
    424a:	42 17       	cp	r20, r18
    424c:	53 07       	cpc	r21, r19
    424e:	44 f4       	brge	.+16     	; 0x4260 <fputc+0x38>
    4250:	a0 81       	ld	r26, Z
    4252:	b1 81       	ldd	r27, Z+1	; 0x01
    4254:	9d 01       	movw	r18, r26
    4256:	2f 5f       	subi	r18, 0xFF	; 255
    4258:	3f 4f       	sbci	r19, 0xFF	; 255
    425a:	20 83       	st	Z, r18
    425c:	31 83       	std	Z+1, r19	; 0x01
    425e:	8c 93       	st	X, r24
    4260:	26 81       	ldd	r18, Z+6	; 0x06
    4262:	37 81       	ldd	r19, Z+7	; 0x07
    4264:	2f 5f       	subi	r18, 0xFF	; 255
    4266:	3f 4f       	sbci	r19, 0xFF	; 255
    4268:	26 83       	std	Z+6, r18	; 0x06
    426a:	37 83       	std	Z+7, r19	; 0x07
    426c:	14 c0       	rjmp	.+40     	; 0x4296 <fputc+0x6e>
    426e:	8b 01       	movw	r16, r22
    4270:	ec 01       	movw	r28, r24
    4272:	fb 01       	movw	r30, r22
    4274:	00 84       	ldd	r0, Z+8	; 0x08
    4276:	f1 85       	ldd	r31, Z+9	; 0x09
    4278:	e0 2d       	mov	r30, r0
    427a:	19 95       	eicall
    427c:	89 2b       	or	r24, r25
    427e:	e1 f6       	brne	.-72     	; 0x4238 <fputc+0x10>
    4280:	d8 01       	movw	r26, r16
    4282:	16 96       	adiw	r26, 0x06	; 6
    4284:	8d 91       	ld	r24, X+
    4286:	9c 91       	ld	r25, X
    4288:	17 97       	sbiw	r26, 0x07	; 7
    428a:	01 96       	adiw	r24, 0x01	; 1
    428c:	16 96       	adiw	r26, 0x06	; 6
    428e:	8d 93       	st	X+, r24
    4290:	9c 93       	st	X, r25
    4292:	17 97       	sbiw	r26, 0x07	; 7
    4294:	ce 01       	movw	r24, r28
    4296:	df 91       	pop	r29
    4298:	cf 91       	pop	r28
    429a:	1f 91       	pop	r17
    429c:	0f 91       	pop	r16
    429e:	08 95       	ret

000042a0 <ungetc>:
    42a0:	fb 01       	movw	r30, r22
    42a2:	23 81       	ldd	r18, Z+3	; 0x03
    42a4:	20 ff       	sbrs	r18, 0
    42a6:	12 c0       	rjmp	.+36     	; 0x42cc <ungetc+0x2c>
    42a8:	26 fd       	sbrc	r18, 6
    42aa:	10 c0       	rjmp	.+32     	; 0x42cc <ungetc+0x2c>
    42ac:	8f 3f       	cpi	r24, 0xFF	; 255
    42ae:	3f ef       	ldi	r19, 0xFF	; 255
    42b0:	93 07       	cpc	r25, r19
    42b2:	61 f0       	breq	.+24     	; 0x42cc <ungetc+0x2c>
    42b4:	82 83       	std	Z+2, r24	; 0x02
    42b6:	2f 7d       	andi	r18, 0xDF	; 223
    42b8:	20 64       	ori	r18, 0x40	; 64
    42ba:	23 83       	std	Z+3, r18	; 0x03
    42bc:	26 81       	ldd	r18, Z+6	; 0x06
    42be:	37 81       	ldd	r19, Z+7	; 0x07
    42c0:	21 50       	subi	r18, 0x01	; 1
    42c2:	31 09       	sbc	r19, r1
    42c4:	26 83       	std	Z+6, r18	; 0x06
    42c6:	37 83       	std	Z+7, r19	; 0x07
    42c8:	99 27       	eor	r25, r25
    42ca:	08 95       	ret
    42cc:	8f ef       	ldi	r24, 0xFF	; 255
    42ce:	9f ef       	ldi	r25, 0xFF	; 255
    42d0:	08 95       	ret

000042d2 <__ultoa_invert>:
    42d2:	fa 01       	movw	r30, r20
    42d4:	aa 27       	eor	r26, r26
    42d6:	28 30       	cpi	r18, 0x08	; 8
    42d8:	51 f1       	breq	.+84     	; 0x432e <__ultoa_invert+0x5c>
    42da:	20 31       	cpi	r18, 0x10	; 16
    42dc:	81 f1       	breq	.+96     	; 0x433e <__ultoa_invert+0x6c>
    42de:	e8 94       	clt
    42e0:	6f 93       	push	r22
    42e2:	6e 7f       	andi	r22, 0xFE	; 254
    42e4:	6e 5f       	subi	r22, 0xFE	; 254
    42e6:	7f 4f       	sbci	r23, 0xFF	; 255
    42e8:	8f 4f       	sbci	r24, 0xFF	; 255
    42ea:	9f 4f       	sbci	r25, 0xFF	; 255
    42ec:	af 4f       	sbci	r26, 0xFF	; 255
    42ee:	b1 e0       	ldi	r27, 0x01	; 1
    42f0:	3e d0       	rcall	.+124    	; 0x436e <__ultoa_invert+0x9c>
    42f2:	b4 e0       	ldi	r27, 0x04	; 4
    42f4:	3c d0       	rcall	.+120    	; 0x436e <__ultoa_invert+0x9c>
    42f6:	67 0f       	add	r22, r23
    42f8:	78 1f       	adc	r23, r24
    42fa:	89 1f       	adc	r24, r25
    42fc:	9a 1f       	adc	r25, r26
    42fe:	a1 1d       	adc	r26, r1
    4300:	68 0f       	add	r22, r24
    4302:	79 1f       	adc	r23, r25
    4304:	8a 1f       	adc	r24, r26
    4306:	91 1d       	adc	r25, r1
    4308:	a1 1d       	adc	r26, r1
    430a:	6a 0f       	add	r22, r26
    430c:	71 1d       	adc	r23, r1
    430e:	81 1d       	adc	r24, r1
    4310:	91 1d       	adc	r25, r1
    4312:	a1 1d       	adc	r26, r1
    4314:	20 d0       	rcall	.+64     	; 0x4356 <__ultoa_invert+0x84>
    4316:	09 f4       	brne	.+2      	; 0x431a <__ultoa_invert+0x48>
    4318:	68 94       	set
    431a:	3f 91       	pop	r19
    431c:	2a e0       	ldi	r18, 0x0A	; 10
    431e:	26 9f       	mul	r18, r22
    4320:	11 24       	eor	r1, r1
    4322:	30 19       	sub	r19, r0
    4324:	30 5d       	subi	r19, 0xD0	; 208
    4326:	31 93       	st	Z+, r19
    4328:	de f6       	brtc	.-74     	; 0x42e0 <__ultoa_invert+0xe>
    432a:	cf 01       	movw	r24, r30
    432c:	08 95       	ret
    432e:	46 2f       	mov	r20, r22
    4330:	47 70       	andi	r20, 0x07	; 7
    4332:	40 5d       	subi	r20, 0xD0	; 208
    4334:	41 93       	st	Z+, r20
    4336:	b3 e0       	ldi	r27, 0x03	; 3
    4338:	0f d0       	rcall	.+30     	; 0x4358 <__ultoa_invert+0x86>
    433a:	c9 f7       	brne	.-14     	; 0x432e <__ultoa_invert+0x5c>
    433c:	f6 cf       	rjmp	.-20     	; 0x432a <__ultoa_invert+0x58>
    433e:	46 2f       	mov	r20, r22
    4340:	4f 70       	andi	r20, 0x0F	; 15
    4342:	40 5d       	subi	r20, 0xD0	; 208
    4344:	4a 33       	cpi	r20, 0x3A	; 58
    4346:	18 f0       	brcs	.+6      	; 0x434e <__ultoa_invert+0x7c>
    4348:	49 5d       	subi	r20, 0xD9	; 217
    434a:	31 fd       	sbrc	r19, 1
    434c:	40 52       	subi	r20, 0x20	; 32
    434e:	41 93       	st	Z+, r20
    4350:	02 d0       	rcall	.+4      	; 0x4356 <__ultoa_invert+0x84>
    4352:	a9 f7       	brne	.-22     	; 0x433e <__ultoa_invert+0x6c>
    4354:	ea cf       	rjmp	.-44     	; 0x432a <__ultoa_invert+0x58>
    4356:	b4 e0       	ldi	r27, 0x04	; 4
    4358:	a6 95       	lsr	r26
    435a:	97 95       	ror	r25
    435c:	87 95       	ror	r24
    435e:	77 95       	ror	r23
    4360:	67 95       	ror	r22
    4362:	ba 95       	dec	r27
    4364:	c9 f7       	brne	.-14     	; 0x4358 <__ultoa_invert+0x86>
    4366:	00 97       	sbiw	r24, 0x00	; 0
    4368:	61 05       	cpc	r22, r1
    436a:	71 05       	cpc	r23, r1
    436c:	08 95       	ret
    436e:	9b 01       	movw	r18, r22
    4370:	ac 01       	movw	r20, r24
    4372:	0a 2e       	mov	r0, r26
    4374:	06 94       	lsr	r0
    4376:	57 95       	ror	r21
    4378:	47 95       	ror	r20
    437a:	37 95       	ror	r19
    437c:	27 95       	ror	r18
    437e:	ba 95       	dec	r27
    4380:	c9 f7       	brne	.-14     	; 0x4374 <__ultoa_invert+0xa2>
    4382:	62 0f       	add	r22, r18
    4384:	73 1f       	adc	r23, r19
    4386:	84 1f       	adc	r24, r20
    4388:	95 1f       	adc	r25, r21
    438a:	a0 1d       	adc	r26, r0
    438c:	08 95       	ret

0000438e <__ctype_isfalse>:
    438e:	99 27       	eor	r25, r25
    4390:	88 27       	eor	r24, r24

00004392 <__ctype_istrue>:
    4392:	08 95       	ret

00004394 <_exit>:
    4394:	f8 94       	cli

00004396 <__stop_program>:
    4396:	ff cf       	rjmp	.-2      	; 0x4396 <__stop_program>
