
SkyFire.elf:     file format elf32-avr

Sections:
Idx Name          Size      VMA       LMA       File off  Algn
  0 .text         0000413e  00000000  00000000  00000094  2**1
                  CONTENTS, ALLOC, LOAD, READONLY, CODE
  1 .data         0000009e  00802000  0000413e  000041d2  2**0
                  CONTENTS, ALLOC, LOAD, DATA
  2 .bss          000000dc  0080209e  0080209e  00004270  2**0
                  ALLOC
  3 .comment      0000005c  00000000  00000000  00004270  2**0
                  CONTENTS, READONLY
  4 .note.gnu.avr.deviceinfo 00000040  00000000  00000000  000042cc  2**2
                  CONTENTS, READONLY
  5 .debug_aranges 000004a0  00000000  00000000  00004310  2**3
                  CONTENTS, READONLY, DEBUGGING
  6 .debug_info   00012544  00000000  00000000  000047b0  2**0
                  CONTENTS, READONLY, DEBUGGING
  7 .debug_abbrev 000047c5  00000000  00000000  00016cf4  2**0
                  CONTENTS, READONLY, DEBUGGING
  8 .debug_line   000085cc  00000000  00000000  0001b4b9  2**0
                  CONTENTS, READONLY, DEBUGGING
  9 .debug_frame  000011e4  00000000  00000000  00023a88  2**2
                  CONTENTS, READONLY, DEBUGGING
 10 .debug_str    0002d3a7  00000000  00000000  00024c6c  2**0
                  CONTENTS, READONLY, DEBUGGING
 11 .debug_loc    00004c05  00000000  00000000  00052013  2**0
                  CONTENTS, READONLY, DEBUGGING
 12 .debug_ranges 00000450  00000000  00000000  00056c18  2**0
                  CONTENTS, READONLY, DEBUGGING
 13 .debug_macro  000031ef  00000000  00000000  00057068  2**0
                  CONTENTS, READONLY, DEBUGGING

Disassembly of section .text:

00000000 <__vectors>:
       0:	44 c1       	rjmp	.+648    	; 0x28a <__ctors_end>
       2:	00 00       	nop
       4:	68 c1       	rjmp	.+720    	; 0x2d6 <__bad_interrupt>
       6:	00 00       	nop
       8:	66 c1       	rjmp	.+716    	; 0x2d6 <__bad_interrupt>
       a:	00 00       	nop
       c:	64 c1       	rjmp	.+712    	; 0x2d6 <__bad_interrupt>
       e:	00 00       	nop
      10:	62 c1       	rjmp	.+708    	; 0x2d6 <__bad_interrupt>
      12:	00 00       	nop
      14:	60 c1       	rjmp	.+704    	; 0x2d6 <__bad_interrupt>
      16:	00 00       	nop
      18:	5e c1       	rjmp	.+700    	; 0x2d6 <__bad_interrupt>
      1a:	00 00       	nop
      1c:	5c c1       	rjmp	.+696    	; 0x2d6 <__bad_interrupt>
      1e:	00 00       	nop
      20:	5a c1       	rjmp	.+692    	; 0x2d6 <__bad_interrupt>
      22:	00 00       	nop
      24:	58 c1       	rjmp	.+688    	; 0x2d6 <__bad_interrupt>
      26:	00 00       	nop
      28:	56 c1       	rjmp	.+684    	; 0x2d6 <__bad_interrupt>
      2a:	00 00       	nop
      2c:	54 c1       	rjmp	.+680    	; 0x2d6 <__bad_interrupt>
      2e:	00 00       	nop
      30:	52 c1       	rjmp	.+676    	; 0x2d6 <__bad_interrupt>
      32:	00 00       	nop
      34:	50 c1       	rjmp	.+672    	; 0x2d6 <__bad_interrupt>
      36:	00 00       	nop
      38:	4e c1       	rjmp	.+668    	; 0x2d6 <__bad_interrupt>
      3a:	00 00       	nop
      3c:	4c c1       	rjmp	.+664    	; 0x2d6 <__bad_interrupt>
      3e:	00 00       	nop
      40:	4a c1       	rjmp	.+660    	; 0x2d6 <__bad_interrupt>
      42:	00 00       	nop
      44:	48 c1       	rjmp	.+656    	; 0x2d6 <__bad_interrupt>
      46:	00 00       	nop
      48:	46 c1       	rjmp	.+652    	; 0x2d6 <__bad_interrupt>
      4a:	00 00       	nop
      4c:	44 c1       	rjmp	.+648    	; 0x2d6 <__bad_interrupt>
      4e:	00 00       	nop
      50:	42 c1       	rjmp	.+644    	; 0x2d6 <__bad_interrupt>
      52:	00 00       	nop
      54:	40 c1       	rjmp	.+640    	; 0x2d6 <__bad_interrupt>
      56:	00 00       	nop
      58:	3e c1       	rjmp	.+636    	; 0x2d6 <__bad_interrupt>
      5a:	00 00       	nop
      5c:	3c c1       	rjmp	.+632    	; 0x2d6 <__bad_interrupt>
      5e:	00 00       	nop
      60:	3a c1       	rjmp	.+628    	; 0x2d6 <__bad_interrupt>
      62:	00 00       	nop
      64:	38 c1       	rjmp	.+624    	; 0x2d6 <__bad_interrupt>
      66:	00 00       	nop
      68:	36 c1       	rjmp	.+620    	; 0x2d6 <__bad_interrupt>
      6a:	00 00       	nop
      6c:	34 c1       	rjmp	.+616    	; 0x2d6 <__bad_interrupt>
      6e:	00 00       	nop
      70:	32 c1       	rjmp	.+612    	; 0x2d6 <__bad_interrupt>
      72:	00 00       	nop
      74:	30 c1       	rjmp	.+608    	; 0x2d6 <__bad_interrupt>
      76:	00 00       	nop
      78:	2e c1       	rjmp	.+604    	; 0x2d6 <__bad_interrupt>
      7a:	00 00       	nop
      7c:	2c c1       	rjmp	.+600    	; 0x2d6 <__bad_interrupt>
      7e:	00 00       	nop
      80:	2a c1       	rjmp	.+596    	; 0x2d6 <__bad_interrupt>
      82:	00 00       	nop
      84:	28 c1       	rjmp	.+592    	; 0x2d6 <__bad_interrupt>
      86:	00 00       	nop
      88:	26 c1       	rjmp	.+588    	; 0x2d6 <__bad_interrupt>
      8a:	00 00       	nop
      8c:	24 c1       	rjmp	.+584    	; 0x2d6 <__bad_interrupt>
      8e:	00 00       	nop
      90:	22 c1       	rjmp	.+580    	; 0x2d6 <__bad_interrupt>
      92:	00 00       	nop
      94:	20 c1       	rjmp	.+576    	; 0x2d6 <__bad_interrupt>
      96:	00 00       	nop
      98:	1e c1       	rjmp	.+572    	; 0x2d6 <__bad_interrupt>
      9a:	00 00       	nop
      9c:	1c c1       	rjmp	.+568    	; 0x2d6 <__bad_interrupt>
      9e:	00 00       	nop
      a0:	1a c1       	rjmp	.+564    	; 0x2d6 <__bad_interrupt>
      a2:	00 00       	nop
      a4:	18 c1       	rjmp	.+560    	; 0x2d6 <__bad_interrupt>
      a6:	00 00       	nop
      a8:	16 c1       	rjmp	.+556    	; 0x2d6 <__bad_interrupt>
      aa:	00 00       	nop
      ac:	14 c1       	rjmp	.+552    	; 0x2d6 <__bad_interrupt>
      ae:	00 00       	nop
      b0:	12 c1       	rjmp	.+548    	; 0x2d6 <__bad_interrupt>
      b2:	00 00       	nop
      b4:	10 c1       	rjmp	.+544    	; 0x2d6 <__bad_interrupt>
      b6:	00 00       	nop
      b8:	0e c1       	rjmp	.+540    	; 0x2d6 <__bad_interrupt>
      ba:	00 00       	nop
      bc:	0c 94 2e 10 	jmp	0x205c	; 0x205c <__vector_47>
      c0:	0a c1       	rjmp	.+532    	; 0x2d6 <__bad_interrupt>
      c2:	00 00       	nop
      c4:	08 c1       	rjmp	.+528    	; 0x2d6 <__bad_interrupt>
      c6:	00 00       	nop
      c8:	06 c1       	rjmp	.+524    	; 0x2d6 <__bad_interrupt>
      ca:	00 00       	nop
      cc:	04 c1       	rjmp	.+520    	; 0x2d6 <__bad_interrupt>
      ce:	00 00       	nop
      d0:	02 c1       	rjmp	.+516    	; 0x2d6 <__bad_interrupt>
      d2:	00 00       	nop
      d4:	00 c1       	rjmp	.+512    	; 0x2d6 <__bad_interrupt>
      d6:	00 00       	nop
      d8:	fe c0       	rjmp	.+508    	; 0x2d6 <__bad_interrupt>
      da:	00 00       	nop
      dc:	fc c0       	rjmp	.+504    	; 0x2d6 <__bad_interrupt>
      de:	00 00       	nop
      e0:	fa c0       	rjmp	.+500    	; 0x2d6 <__bad_interrupt>
      e2:	00 00       	nop
      e4:	f8 c0       	rjmp	.+496    	; 0x2d6 <__bad_interrupt>
      e6:	00 00       	nop
      e8:	0c 94 a0 11 	jmp	0x2340	; 0x2340 <__vector_58>
      ec:	f4 c0       	rjmp	.+488    	; 0x2d6 <__bad_interrupt>
      ee:	00 00       	nop
      f0:	f2 c0       	rjmp	.+484    	; 0x2d6 <__bad_interrupt>
      f2:	00 00       	nop
      f4:	f0 c0       	rjmp	.+480    	; 0x2d6 <__bad_interrupt>
      f6:	00 00       	nop
      f8:	ee c0       	rjmp	.+476    	; 0x2d6 <__bad_interrupt>
      fa:	00 00       	nop
      fc:	ec c0       	rjmp	.+472    	; 0x2d6 <__bad_interrupt>
      fe:	00 00       	nop
     100:	ea c0       	rjmp	.+468    	; 0x2d6 <__bad_interrupt>
     102:	00 00       	nop
     104:	e8 c0       	rjmp	.+464    	; 0x2d6 <__bad_interrupt>
     106:	00 00       	nop
     108:	e6 c0       	rjmp	.+460    	; 0x2d6 <__bad_interrupt>
     10a:	00 00       	nop
     10c:	e4 c0       	rjmp	.+456    	; 0x2d6 <__bad_interrupt>
     10e:	00 00       	nop
     110:	e2 c0       	rjmp	.+452    	; 0x2d6 <__bad_interrupt>
     112:	00 00       	nop
     114:	e0 c0       	rjmp	.+448    	; 0x2d6 <__bad_interrupt>
     116:	00 00       	nop
     118:	de c0       	rjmp	.+444    	; 0x2d6 <__bad_interrupt>
     11a:	00 00       	nop
     11c:	08 c1       	rjmp	.+528    	; 0x32e <__vector_71>
     11e:	00 00       	nop
     120:	43 c1       	rjmp	.+646    	; 0x3a8 <__vector_72>
     122:	00 00       	nop
     124:	7e c1       	rjmp	.+764    	; 0x422 <__vector_73>
     126:	00 00       	nop
     128:	b9 c1       	rjmp	.+882    	; 0x49c <__vector_74>
     12a:	00 00       	nop
     12c:	d4 c0       	rjmp	.+424    	; 0x2d6 <__bad_interrupt>
     12e:	00 00       	nop
     130:	d2 c0       	rjmp	.+420    	; 0x2d6 <__bad_interrupt>
     132:	00 00       	nop
     134:	d0 c0       	rjmp	.+416    	; 0x2d6 <__bad_interrupt>
     136:	00 00       	nop
     138:	ce c0       	rjmp	.+412    	; 0x2d6 <__bad_interrupt>
     13a:	00 00       	nop
     13c:	cc c0       	rjmp	.+408    	; 0x2d6 <__bad_interrupt>
     13e:	00 00       	nop
     140:	ca c0       	rjmp	.+404    	; 0x2d6 <__bad_interrupt>
     142:	00 00       	nop
     144:	c8 c0       	rjmp	.+400    	; 0x2d6 <__bad_interrupt>
     146:	00 00       	nop
     148:	c6 c0       	rjmp	.+396    	; 0x2d6 <__bad_interrupt>
     14a:	00 00       	nop
     14c:	c4 c0       	rjmp	.+392    	; 0x2d6 <__bad_interrupt>
     14e:	00 00       	nop
     150:	c2 c0       	rjmp	.+388    	; 0x2d6 <__bad_interrupt>
     152:	00 00       	nop
     154:	c0 c0       	rjmp	.+384    	; 0x2d6 <__bad_interrupt>
     156:	00 00       	nop
     158:	be c0       	rjmp	.+380    	; 0x2d6 <__bad_interrupt>
     15a:	00 00       	nop
     15c:	bc c0       	rjmp	.+376    	; 0x2d6 <__bad_interrupt>
     15e:	00 00       	nop
     160:	ba c0       	rjmp	.+372    	; 0x2d6 <__bad_interrupt>
     162:	00 00       	nop
     164:	b8 c0       	rjmp	.+368    	; 0x2d6 <__bad_interrupt>
     166:	00 00       	nop
     168:	b6 c0       	rjmp	.+364    	; 0x2d6 <__bad_interrupt>
     16a:	00 00       	nop
     16c:	0c 94 d6 11 	jmp	0x23ac	; 0x23ac <__vector_91>
     170:	b2 c0       	rjmp	.+356    	; 0x2d6 <__bad_interrupt>
     172:	00 00       	nop
     174:	b0 c0       	rjmp	.+352    	; 0x2d6 <__bad_interrupt>
     176:	00 00       	nop
     178:	ae c0       	rjmp	.+348    	; 0x2d6 <__bad_interrupt>
     17a:	00 00       	nop
     17c:	ac c0       	rjmp	.+344    	; 0x2d6 <__bad_interrupt>
     17e:	00 00       	nop
     180:	aa c0       	rjmp	.+340    	; 0x2d6 <__bad_interrupt>
     182:	00 00       	nop
     184:	a8 c0       	rjmp	.+336    	; 0x2d6 <__bad_interrupt>
     186:	00 00       	nop
     188:	a6 c0       	rjmp	.+332    	; 0x2d6 <__bad_interrupt>
     18a:	00 00       	nop
     18c:	a4 c0       	rjmp	.+328    	; 0x2d6 <__bad_interrupt>
     18e:	00 00       	nop
     190:	a2 c0       	rjmp	.+324    	; 0x2d6 <__bad_interrupt>
     192:	00 00       	nop
     194:	a0 c0       	rjmp	.+320    	; 0x2d6 <__bad_interrupt>
     196:	00 00       	nop
     198:	9e c0       	rjmp	.+316    	; 0x2d6 <__bad_interrupt>
     19a:	00 00       	nop
     19c:	9c c0       	rjmp	.+312    	; 0x2d6 <__bad_interrupt>
     19e:	00 00       	nop
     1a0:	9a c0       	rjmp	.+308    	; 0x2d6 <__bad_interrupt>
     1a2:	00 00       	nop
     1a4:	98 c0       	rjmp	.+304    	; 0x2d6 <__bad_interrupt>
     1a6:	00 00       	nop
     1a8:	96 c0       	rjmp	.+300    	; 0x2d6 <__bad_interrupt>
     1aa:	00 00       	nop
     1ac:	94 c0       	rjmp	.+296    	; 0x2d6 <__bad_interrupt>
     1ae:	00 00       	nop
     1b0:	92 c0       	rjmp	.+292    	; 0x2d6 <__bad_interrupt>
     1b2:	00 00       	nop
     1b4:	90 c0       	rjmp	.+288    	; 0x2d6 <__bad_interrupt>
     1b6:	00 00       	nop
     1b8:	8e c0       	rjmp	.+284    	; 0x2d6 <__bad_interrupt>
     1ba:	00 00       	nop
     1bc:	8c c0       	rjmp	.+280    	; 0x2d6 <__bad_interrupt>
     1be:	00 00       	nop
     1c0:	8a c0       	rjmp	.+276    	; 0x2d6 <__bad_interrupt>
     1c2:	00 00       	nop
     1c4:	88 c0       	rjmp	.+272    	; 0x2d6 <__bad_interrupt>
     1c6:	00 00       	nop
     1c8:	86 c0       	rjmp	.+268    	; 0x2d6 <__bad_interrupt>
     1ca:	00 00       	nop
     1cc:	84 c0       	rjmp	.+264    	; 0x2d6 <__bad_interrupt>
     1ce:	00 00       	nop
     1d0:	82 c0       	rjmp	.+260    	; 0x2d6 <__bad_interrupt>
     1d2:	00 00       	nop
     1d4:	80 c0       	rjmp	.+256    	; 0x2d6 <__bad_interrupt>
     1d6:	00 00       	nop
     1d8:	7e c0       	rjmp	.+252    	; 0x2d6 <__bad_interrupt>
     1da:	00 00       	nop
     1dc:	7c c0       	rjmp	.+248    	; 0x2d6 <__bad_interrupt>
     1de:	00 00       	nop
     1e0:	7a c0       	rjmp	.+244    	; 0x2d6 <__bad_interrupt>
     1e2:	00 00       	nop
     1e4:	78 c0       	rjmp	.+240    	; 0x2d6 <__bad_interrupt>
     1e6:	00 00       	nop
     1e8:	76 c0       	rjmp	.+236    	; 0x2d6 <__bad_interrupt>
     1ea:	00 00       	nop
     1ec:	74 c0       	rjmp	.+232    	; 0x2d6 <__bad_interrupt>
     1ee:	00 00       	nop
     1f0:	72 c0       	rjmp	.+228    	; 0x2d6 <__bad_interrupt>
     1f2:	00 00       	nop
     1f4:	70 c0       	rjmp	.+224    	; 0x2d6 <__bad_interrupt>
     1f6:	00 00       	nop
     1f8:	6e c0       	rjmp	.+220    	; 0x2d6 <__bad_interrupt>
     1fa:	00 00       	nop
     1fc:	07 63       	ori	r16, 0x37	; 55
     1fe:	42 36       	cpi	r20, 0x62	; 98
     200:	b7 9b       	sbis	0x16, 7	; 22
     202:	d8 a7       	std	Y+40, r29	; 0x28
     204:	1a 39       	cpi	r17, 0x9A	; 154
     206:	68 56       	subi	r22, 0x68	; 104
     208:	18 ae       	std	Y+56, r1	; 0x38
     20a:	ba ab       	std	Y+50, r27	; 0x32
     20c:	55 8c       	ldd	r5, Z+29	; 0x1d
     20e:	1d 3c       	cpi	r17, 0xCD	; 205
     210:	b7 cc       	rjmp	.-1682   	; 0xfffffb80 <__eeprom_end+0xff7efb80>
     212:	57 63       	ori	r21, 0x37	; 55
     214:	bd 6d       	ori	r27, 0xDD	; 221
     216:	ed fd       	.word	0xfded	; ????
     218:	75 3e       	cpi	r23, 0xE5	; 229
     21a:	f6 17       	cp	r31, r22
     21c:	72 31       	cpi	r23, 0x12	; 18
     21e:	bf 00       	.word	0x00bf	; ????
     220:	00 00       	nop
     222:	80 3f       	cpi	r24, 0xF0	; 240
     224:	08 00       	.word	0x0008	; ????
     226:	00 00       	nop
     228:	be 92       	st	-X, r11
     22a:	24 49       	sbci	r18, 0x94	; 148
     22c:	12 3e       	cpi	r17, 0xE2	; 226
     22e:	ab aa       	std	Y+51, r10	; 0x33
     230:	aa 2a       	or	r10, r26
     232:	be cd       	rjmp	.-1156   	; 0xfffffdb0 <__eeprom_end+0xff7efdb0>
     234:	cc cc       	rjmp	.-1640   	; 0xfffffbce <__eeprom_end+0xff7efbce>
     236:	4c 3e       	cpi	r20, 0xEC	; 236
     238:	00 00       	nop
     23a:	00 80       	ld	r0, Z
     23c:	be ab       	std	Y+54, r27	; 0x36
     23e:	aa aa       	std	Y+50, r10	; 0x32
     240:	aa 3e       	cpi	r26, 0xEA	; 234
     242:	00 00       	nop
     244:	00 00       	nop
     246:	bf 00       	.word	0x00bf	; ????
     248:	00 00       	nop
     24a:	80 3f       	cpi	r24, 0xF0	; 240
     24c:	00 00       	nop
     24e:	00 00       	nop
     250:	00 08       	sbc	r0, r0
     252:	41 78       	andi	r20, 0x81	; 129
     254:	d3 bb       	out	0x13, r29	; 19
     256:	43 87       	std	Z+11, r20	; 0x0b
     258:	d1 13       	cpse	r29, r17
     25a:	3d 19       	sub	r19, r13
     25c:	0e 3c       	cpi	r16, 0xCE	; 206
     25e:	c3 bd       	out	0x23, r28	; 35
     260:	42 82       	std	Z+2, r4	; 0x02
     262:	ad 2b       	or	r26, r29
     264:	3e 68       	ori	r19, 0x8E	; 142
     266:	ec 82       	std	Y+4, r14	; 0x04
     268:	76 be       	out	0x36, r7	; 54
     26a:	d9 8f       	std	Y+25, r29	; 0x19
     26c:	e1 a9       	ldd	r30, Z+49	; 0x31
     26e:	3e 4c       	sbci	r19, 0xCE	; 206
     270:	80 ef       	ldi	r24, 0xF0	; 240
     272:	ff be       	out	0x3f, r15	; 63
     274:	01 c4       	rjmp	.+2050   	; 0xa78 <ms5607_convert_d2+0x14>
     276:	ff 7f       	andi	r31, 0xFF	; 255
     278:	3f 00       	.word	0x003f	; ????
     27a:	00 00       	nop
	...

0000027e <__trampolines_end>:
     27e:	63 64       	ori	r22, 0x43	; 67
     280:	69 6e       	ori	r22, 0xE9	; 233
     282:	6f 70       	andi	r22, 0x0F	; 15
     284:	73 75       	andi	r23, 0x53	; 83
     286:	78 58       	subi	r23, 0x88	; 136
     288:	5b 00       	.word	0x005b	; ????

0000028a <__ctors_end>:
     28a:	11 24       	eor	r1, r1
     28c:	1f be       	out	0x3f, r1	; 63
     28e:	cf ef       	ldi	r28, 0xFF	; 255
     290:	cd bf       	out	0x3d, r28	; 61
     292:	df e3       	ldi	r29, 0x3F	; 63
     294:	de bf       	out	0x3e, r29	; 62
     296:	00 e0       	ldi	r16, 0x00	; 0
     298:	0c bf       	out	0x3c, r16	; 60
     29a:	18 be       	out	0x38, r1	; 56
     29c:	19 be       	out	0x39, r1	; 57
     29e:	1a be       	out	0x3a, r1	; 58
     2a0:	1b be       	out	0x3b, r1	; 59

000002a2 <__do_copy_data>:
     2a2:	10 e2       	ldi	r17, 0x20	; 32
     2a4:	a0 e0       	ldi	r26, 0x00	; 0
     2a6:	b0 e2       	ldi	r27, 0x20	; 32
     2a8:	ee e3       	ldi	r30, 0x3E	; 62
     2aa:	f1 e4       	ldi	r31, 0x41	; 65
     2ac:	00 e0       	ldi	r16, 0x00	; 0
     2ae:	0b bf       	out	0x3b, r16	; 59
     2b0:	02 c0       	rjmp	.+4      	; 0x2b6 <__do_copy_data+0x14>
     2b2:	07 90       	elpm	r0, Z+
     2b4:	0d 92       	st	X+, r0
     2b6:	ae 39       	cpi	r26, 0x9E	; 158
     2b8:	b1 07       	cpc	r27, r17
     2ba:	d9 f7       	brne	.-10     	; 0x2b2 <__do_copy_data+0x10>
     2bc:	1b be       	out	0x3b, r1	; 59

000002be <__do_clear_bss>:
     2be:	21 e2       	ldi	r18, 0x21	; 33
     2c0:	ae e9       	ldi	r26, 0x9E	; 158
     2c2:	b0 e2       	ldi	r27, 0x20	; 32
     2c4:	01 c0       	rjmp	.+2      	; 0x2c8 <.do_clear_bss_start>

000002c6 <.do_clear_bss_loop>:
     2c6:	1d 92       	st	X+, r1

000002c8 <.do_clear_bss_start>:
     2c8:	aa 37       	cpi	r26, 0x7A	; 122
     2ca:	b2 07       	cpc	r27, r18
     2cc:	e1 f7       	brne	.-8      	; 0x2c6 <.do_clear_bss_loop>
     2ce:	0e 94 d4 0b 	call	0x17a8	; 0x17a8 <main>
     2d2:	0c 94 9d 20 	jmp	0x413a	; 0x413a <_exit>

000002d6 <__bad_interrupt>:
     2d6:	94 ce       	rjmp	.-728    	; 0x0 <__vectors>

000002d8 <_read>:
#elif (defined(__GNUC__) && (XMEGA || MEGA) )

int _read (int *f); // Remove GCC compiler warning

int _read (int *f)
{
     2d8:	cf 93       	push	r28
     2da:	df 93       	push	r29
     2dc:	1f 92       	push	r1
     2de:	cd b7       	in	r28, 0x3d	; 61
     2e0:	de b7       	in	r29, 0x3e	; 62
	char c;
	ptr_get(stdio_base,&c);
     2e2:	80 91 f4 20 	lds	r24, 0x20F4	; 0x8020f4 <stdio_base>
     2e6:	90 91 f5 20 	lds	r25, 0x20F5	; 0x8020f5 <stdio_base+0x1>
     2ea:	e0 91 f0 20 	lds	r30, 0x20F0	; 0x8020f0 <ptr_get>
     2ee:	f0 91 f1 20 	lds	r31, 0x20F1	; 0x8020f1 <ptr_get+0x1>
     2f2:	be 01       	movw	r22, r28
     2f4:	6f 5f       	subi	r22, 0xFF	; 255
     2f6:	7f 4f       	sbci	r23, 0xFF	; 255
     2f8:	19 95       	eicall
	return c;
     2fa:	89 81       	ldd	r24, Y+1	; 0x01
}
     2fc:	08 2e       	mov	r0, r24
     2fe:	00 0c       	add	r0, r0
     300:	99 0b       	sbc	r25, r25
     302:	0f 90       	pop	r0
     304:	df 91       	pop	r29
     306:	cf 91       	pop	r28
     308:	08 95       	ret

0000030a <_write>:
#elif (defined(__GNUC__) && (XMEGA || MEGA))

int _write (char c, int *f);

int _write (char c, int *f)
{
     30a:	68 2f       	mov	r22, r24
	if (ptr_put(stdio_base, c) < 0) {
     30c:	80 91 f4 20 	lds	r24, 0x20F4	; 0x8020f4 <stdio_base>
     310:	90 91 f5 20 	lds	r25, 0x20F5	; 0x8020f5 <stdio_base+0x1>
     314:	e0 91 f2 20 	lds	r30, 0x20F2	; 0x8020f2 <ptr_put>
     318:	f0 91 f3 20 	lds	r31, 0x20F3	; 0x8020f3 <ptr_put+0x1>
     31c:	19 95       	eicall
     31e:	99 23       	and	r25, r25
     320:	1c f0       	brlt	.+6      	; 0x328 <_write+0x1e>
		return -1;
	}
	return 1;
     322:	81 e0       	ldi	r24, 0x01	; 1
     324:	90 e0       	ldi	r25, 0x00	; 0
     326:	08 95       	ret
int _write (char c, int *f);

int _write (char c, int *f)
{
	if (ptr_put(stdio_base, c) < 0) {
		return -1;
     328:	8f ef       	ldi	r24, 0xFF	; 255
     32a:	9f ef       	ldi	r25, 0xFF	; 255
	}
	return 1;
}
     32c:	08 95       	ret

0000032e <__vector_71>:
 *
 * Calls the callback function that has been set for the ADC when the channel's
 * interrupt flag is set, if its interrupt has been enabled.
 */
ISR(ADCA_CH0_vect)
{
     32e:	1f 92       	push	r1
     330:	0f 92       	push	r0
     332:	0f b6       	in	r0, 0x3f	; 63
     334:	0f 92       	push	r0
     336:	11 24       	eor	r1, r1
     338:	08 b6       	in	r0, 0x38	; 56
     33a:	0f 92       	push	r0
     33c:	18 be       	out	0x38, r1	; 56
     33e:	09 b6       	in	r0, 0x39	; 57
     340:	0f 92       	push	r0
     342:	19 be       	out	0x39, r1	; 57
     344:	0b b6       	in	r0, 0x3b	; 59
     346:	0f 92       	push	r0
     348:	1b be       	out	0x3b, r1	; 59
     34a:	2f 93       	push	r18
     34c:	3f 93       	push	r19
     34e:	4f 93       	push	r20
     350:	5f 93       	push	r21
     352:	6f 93       	push	r22
     354:	7f 93       	push	r23
     356:	8f 93       	push	r24
     358:	9f 93       	push	r25
     35a:	af 93       	push	r26
     35c:	bf 93       	push	r27
     35e:	ef 93       	push	r30
     360:	ff 93       	push	r31
	adca_callback(&ADCA, ADC_CH0, adc_get_result(&ADCA, ADC_CH0));
     362:	40 91 24 02 	lds	r20, 0x0224	; 0x800224 <__TEXT_REGION_LENGTH__+0x700224>
     366:	50 91 25 02 	lds	r21, 0x0225	; 0x800225 <__TEXT_REGION_LENGTH__+0x700225>
     36a:	e0 91 f6 20 	lds	r30, 0x20F6	; 0x8020f6 <adca_callback>
     36e:	f0 91 f7 20 	lds	r31, 0x20F7	; 0x8020f7 <adca_callback+0x1>
     372:	61 e0       	ldi	r22, 0x01	; 1
     374:	80 e0       	ldi	r24, 0x00	; 0
     376:	92 e0       	ldi	r25, 0x02	; 2
     378:	19 95       	eicall
}
     37a:	ff 91       	pop	r31
     37c:	ef 91       	pop	r30
     37e:	bf 91       	pop	r27
     380:	af 91       	pop	r26
     382:	9f 91       	pop	r25
     384:	8f 91       	pop	r24
     386:	7f 91       	pop	r23
     388:	6f 91       	pop	r22
     38a:	5f 91       	pop	r21
     38c:	4f 91       	pop	r20
     38e:	3f 91       	pop	r19
     390:	2f 91       	pop	r18
     392:	0f 90       	pop	r0
     394:	0b be       	out	0x3b, r0	; 59
     396:	0f 90       	pop	r0
     398:	09 be       	out	0x39, r0	; 57
     39a:	0f 90       	pop	r0
     39c:	08 be       	out	0x38, r0	; 56
     39e:	0f 90       	pop	r0
     3a0:	0f be       	out	0x3f, r0	; 63
     3a2:	0f 90       	pop	r0
     3a4:	1f 90       	pop	r1
     3a6:	18 95       	reti

000003a8 <__vector_72>:
 *
 * Calls the callback function that has been set for the ADC when the channel's
 * interrupt flag is set, if its interrupt has been enabled.
 */
ISR(ADCA_CH1_vect)
{
     3a8:	1f 92       	push	r1
     3aa:	0f 92       	push	r0
     3ac:	0f b6       	in	r0, 0x3f	; 63
     3ae:	0f 92       	push	r0
     3b0:	11 24       	eor	r1, r1
     3b2:	08 b6       	in	r0, 0x38	; 56
     3b4:	0f 92       	push	r0
     3b6:	18 be       	out	0x38, r1	; 56
     3b8:	09 b6       	in	r0, 0x39	; 57
     3ba:	0f 92       	push	r0
     3bc:	19 be       	out	0x39, r1	; 57
     3be:	0b b6       	in	r0, 0x3b	; 59
     3c0:	0f 92       	push	r0
     3c2:	1b be       	out	0x3b, r1	; 59
     3c4:	2f 93       	push	r18
     3c6:	3f 93       	push	r19
     3c8:	4f 93       	push	r20
     3ca:	5f 93       	push	r21
     3cc:	6f 93       	push	r22
     3ce:	7f 93       	push	r23
     3d0:	8f 93       	push	r24
     3d2:	9f 93       	push	r25
     3d4:	af 93       	push	r26
     3d6:	bf 93       	push	r27
     3d8:	ef 93       	push	r30
     3da:	ff 93       	push	r31
	adca_callback(&ADCA, ADC_CH1, adc_get_result(&ADCA, ADC_CH1));
     3dc:	40 91 2c 02 	lds	r20, 0x022C	; 0x80022c <__TEXT_REGION_LENGTH__+0x70022c>
     3e0:	50 91 2d 02 	lds	r21, 0x022D	; 0x80022d <__TEXT_REGION_LENGTH__+0x70022d>
     3e4:	e0 91 f6 20 	lds	r30, 0x20F6	; 0x8020f6 <adca_callback>
     3e8:	f0 91 f7 20 	lds	r31, 0x20F7	; 0x8020f7 <adca_callback+0x1>
     3ec:	62 e0       	ldi	r22, 0x02	; 2
     3ee:	80 e0       	ldi	r24, 0x00	; 0
     3f0:	92 e0       	ldi	r25, 0x02	; 2
     3f2:	19 95       	eicall
}
     3f4:	ff 91       	pop	r31
     3f6:	ef 91       	pop	r30
     3f8:	bf 91       	pop	r27
     3fa:	af 91       	pop	r26
     3fc:	9f 91       	pop	r25
     3fe:	8f 91       	pop	r24
     400:	7f 91       	pop	r23
     402:	6f 91       	pop	r22
     404:	5f 91       	pop	r21
     406:	4f 91       	pop	r20
     408:	3f 91       	pop	r19
     40a:	2f 91       	pop	r18
     40c:	0f 90       	pop	r0
     40e:	0b be       	out	0x3b, r0	; 59
     410:	0f 90       	pop	r0
     412:	09 be       	out	0x39, r0	; 57
     414:	0f 90       	pop	r0
     416:	08 be       	out	0x38, r0	; 56
     418:	0f 90       	pop	r0
     41a:	0f be       	out	0x3f, r0	; 63
     41c:	0f 90       	pop	r0
     41e:	1f 90       	pop	r1
     420:	18 95       	reti

00000422 <__vector_73>:
 *
 * Calls the callback function that has been set for the ADC when the channel's
 * interrupt flag is set, if its interrupt has been enabled.
 */
ISR(ADCA_CH2_vect)
{
     422:	1f 92       	push	r1
     424:	0f 92       	push	r0
     426:	0f b6       	in	r0, 0x3f	; 63
     428:	0f 92       	push	r0
     42a:	11 24       	eor	r1, r1
     42c:	08 b6       	in	r0, 0x38	; 56
     42e:	0f 92       	push	r0
     430:	18 be       	out	0x38, r1	; 56
     432:	09 b6       	in	r0, 0x39	; 57
     434:	0f 92       	push	r0
     436:	19 be       	out	0x39, r1	; 57
     438:	0b b6       	in	r0, 0x3b	; 59
     43a:	0f 92       	push	r0
     43c:	1b be       	out	0x3b, r1	; 59
     43e:	2f 93       	push	r18
     440:	3f 93       	push	r19
     442:	4f 93       	push	r20
     444:	5f 93       	push	r21
     446:	6f 93       	push	r22
     448:	7f 93       	push	r23
     44a:	8f 93       	push	r24
     44c:	9f 93       	push	r25
     44e:	af 93       	push	r26
     450:	bf 93       	push	r27
     452:	ef 93       	push	r30
     454:	ff 93       	push	r31
	adca_callback(&ADCA, ADC_CH2, adc_get_result(&ADCA, ADC_CH2));
     456:	40 91 34 02 	lds	r20, 0x0234	; 0x800234 <__TEXT_REGION_LENGTH__+0x700234>
     45a:	50 91 35 02 	lds	r21, 0x0235	; 0x800235 <__TEXT_REGION_LENGTH__+0x700235>
     45e:	e0 91 f6 20 	lds	r30, 0x20F6	; 0x8020f6 <adca_callback>
     462:	f0 91 f7 20 	lds	r31, 0x20F7	; 0x8020f7 <adca_callback+0x1>
     466:	64 e0       	ldi	r22, 0x04	; 4
     468:	80 e0       	ldi	r24, 0x00	; 0
     46a:	92 e0       	ldi	r25, 0x02	; 2
     46c:	19 95       	eicall
}
     46e:	ff 91       	pop	r31
     470:	ef 91       	pop	r30
     472:	bf 91       	pop	r27
     474:	af 91       	pop	r26
     476:	9f 91       	pop	r25
     478:	8f 91       	pop	r24
     47a:	7f 91       	pop	r23
     47c:	6f 91       	pop	r22
     47e:	5f 91       	pop	r21
     480:	4f 91       	pop	r20
     482:	3f 91       	pop	r19
     484:	2f 91       	pop	r18
     486:	0f 90       	pop	r0
     488:	0b be       	out	0x3b, r0	; 59
     48a:	0f 90       	pop	r0
     48c:	09 be       	out	0x39, r0	; 57
     48e:	0f 90       	pop	r0
     490:	08 be       	out	0x38, r0	; 56
     492:	0f 90       	pop	r0
     494:	0f be       	out	0x3f, r0	; 63
     496:	0f 90       	pop	r0
     498:	1f 90       	pop	r1
     49a:	18 95       	reti

0000049c <__vector_74>:
 *
 * Calls the callback function that has been set for the ADC when the channel's
 * interrupt flag is set, if its interrupt has been enabled.
 */
ISR(ADCA_CH3_vect)
{
     49c:	1f 92       	push	r1
     49e:	0f 92       	push	r0
     4a0:	0f b6       	in	r0, 0x3f	; 63
     4a2:	0f 92       	push	r0
     4a4:	11 24       	eor	r1, r1
     4a6:	08 b6       	in	r0, 0x38	; 56
     4a8:	0f 92       	push	r0
     4aa:	18 be       	out	0x38, r1	; 56
     4ac:	09 b6       	in	r0, 0x39	; 57
     4ae:	0f 92       	push	r0
     4b0:	19 be       	out	0x39, r1	; 57
     4b2:	0b b6       	in	r0, 0x3b	; 59
     4b4:	0f 92       	push	r0
     4b6:	1b be       	out	0x3b, r1	; 59
     4b8:	2f 93       	push	r18
     4ba:	3f 93       	push	r19
     4bc:	4f 93       	push	r20
     4be:	5f 93       	push	r21
     4c0:	6f 93       	push	r22
     4c2:	7f 93       	push	r23
     4c4:	8f 93       	push	r24
     4c6:	9f 93       	push	r25
     4c8:	af 93       	push	r26
     4ca:	bf 93       	push	r27
     4cc:	ef 93       	push	r30
     4ce:	ff 93       	push	r31
	adca_callback(&ADCA, ADC_CH3, adc_get_result(&ADCA, ADC_CH3));
     4d0:	40 91 3c 02 	lds	r20, 0x023C	; 0x80023c <__TEXT_REGION_LENGTH__+0x70023c>
     4d4:	50 91 3d 02 	lds	r21, 0x023D	; 0x80023d <__TEXT_REGION_LENGTH__+0x70023d>
     4d8:	e0 91 f6 20 	lds	r30, 0x20F6	; 0x8020f6 <adca_callback>
     4dc:	f0 91 f7 20 	lds	r31, 0x20F7	; 0x8020f7 <adca_callback+0x1>
     4e0:	68 e0       	ldi	r22, 0x08	; 8
     4e2:	80 e0       	ldi	r24, 0x00	; 0
     4e4:	92 e0       	ldi	r25, 0x02	; 2
     4e6:	19 95       	eicall
}
     4e8:	ff 91       	pop	r31
     4ea:	ef 91       	pop	r30
     4ec:	bf 91       	pop	r27
     4ee:	af 91       	pop	r26
     4f0:	9f 91       	pop	r25
     4f2:	8f 91       	pop	r24
     4f4:	7f 91       	pop	r23
     4f6:	6f 91       	pop	r22
     4f8:	5f 91       	pop	r21
     4fa:	4f 91       	pop	r20
     4fc:	3f 91       	pop	r19
     4fe:	2f 91       	pop	r18
     500:	0f 90       	pop	r0
     502:	0b be       	out	0x3b, r0	; 59
     504:	0f 90       	pop	r0
     506:	09 be       	out	0x39, r0	; 57
     508:	0f 90       	pop	r0
     50a:	08 be       	out	0x38, r0	; 56
     50c:	0f 90       	pop	r0
     50e:	0f be       	out	0x3f, r0	; 63
     510:	0f 90       	pop	r0
     512:	1f 90       	pop	r1
     514:	18 95       	reti

00000516 <usart_putchar>:

	if (baud_offset != USART_BAUD_UNDEFINED) {
		(usart)->BAUDCTRLB = (uint8_t)((uint16_t)baudctrl);
		(usart)->BAUDCTRLA = (uint8_t)((uint16_t)baudctrl >> 8);
	}
}
     516:	fc 01       	movw	r30, r24
     518:	91 81       	ldd	r25, Z+1	; 0x01
     51a:	95 ff       	sbrs	r25, 5
     51c:	fd cf       	rjmp	.-6      	; 0x518 <usart_putchar+0x2>
     51e:	60 83       	st	Z, r22
     520:	80 e0       	ldi	r24, 0x00	; 0
     522:	90 e0       	ldi	r25, 0x00	; 0
     524:	08 95       	ret

00000526 <usart_getchar>:
     526:	fc 01       	movw	r30, r24
     528:	91 81       	ldd	r25, Z+1	; 0x01
     52a:	99 23       	and	r25, r25
     52c:	ec f7       	brge	.-6      	; 0x528 <usart_getchar+0x2>
     52e:	80 81       	ld	r24, Z
     530:	08 95       	ret

00000532 <usart_set_baudrate>:
 * \retval true if the hardware supports the baud rate
 * \retval false if the hardware does not support the baud rate (i.e. it's
 *               either too high or too low.)
 */
bool usart_set_baudrate(USART_t *usart, uint32_t baud, uint32_t cpu_hz)
{
     532:	4f 92       	push	r4
     534:	5f 92       	push	r5
     536:	6f 92       	push	r6
     538:	7f 92       	push	r7
     53a:	8f 92       	push	r8
     53c:	9f 92       	push	r9
     53e:	af 92       	push	r10
     540:	bf 92       	push	r11
     542:	ef 92       	push	r14
     544:	ff 92       	push	r15
     546:	0f 93       	push	r16
     548:	1f 93       	push	r17
     54a:	cf 93       	push	r28
     54c:	7c 01       	movw	r14, r24
     54e:	4a 01       	movw	r8, r20
     550:	5b 01       	movw	r10, r22
     552:	28 01       	movw	r4, r16
     554:	39 01       	movw	r6, r18
	/* 8 = (2^0) * 8 * (2^0) = (2^BSCALE_MIN) * 8 * (BSEL_MIN) */
	max_rate = cpu_hz / 8;
	/* 4194304 = (2^7) * 8 * (2^12) = (2^BSCALE_MAX) * 8 * (BSEL_MAX+1) */
	min_rate = cpu_hz / 4194304;

	if (!((usart)->CTRLB & USART_CLK2X_bm)) {
     556:	fc 01       	movw	r30, r24
     558:	84 81       	ldd	r24, Z+4	; 0x04
     55a:	82 ff       	sbrs	r24, 2
     55c:	16 c0       	rjmp	.+44     	; 0x58a <usart_set_baudrate+0x58>

	/*
	 * Check if the hardware supports the given baud rate
	 */
	/* 8 = (2^0) * 8 * (2^0) = (2^BSCALE_MIN) * 8 * (BSEL_MIN) */
	max_rate = cpu_hz / 8;
     55e:	d9 01       	movw	r26, r18
     560:	c8 01       	movw	r24, r16
     562:	68 94       	set
     564:	12 f8       	bld	r1, 2
     566:	b6 95       	lsr	r27
     568:	a7 95       	ror	r26
     56a:	97 95       	ror	r25
     56c:	87 95       	ror	r24
     56e:	16 94       	lsr	r1
     570:	d1 f7       	brne	.-12     	; 0x566 <usart_set_baudrate+0x34>
	/* 4194304 = (2^7) * 8 * (2^12) = (2^BSCALE_MAX) * 8 * (BSEL_MAX+1) */
	min_rate = cpu_hz / 4194304;
     572:	b9 01       	movw	r22, r18
     574:	a8 01       	movw	r20, r16
     576:	03 2e       	mov	r0, r19
     578:	36 e1       	ldi	r19, 0x16	; 22
     57a:	76 95       	lsr	r23
     57c:	67 95       	ror	r22
     57e:	57 95       	ror	r21
     580:	47 95       	ror	r20
     582:	3a 95       	dec	r19
     584:	d1 f7       	brne	.-12     	; 0x57a <usart_set_baudrate+0x48>
     586:	30 2d       	mov	r19, r0
     588:	15 c0       	rjmp	.+42     	; 0x5b4 <usart_set_baudrate+0x82>

	if (!((usart)->CTRLB & USART_CLK2X_bm)) {
		max_rate /= 2;
     58a:	d9 01       	movw	r26, r18
     58c:	c8 01       	movw	r24, r16
     58e:	68 94       	set
     590:	13 f8       	bld	r1, 3
     592:	b6 95       	lsr	r27
     594:	a7 95       	ror	r26
     596:	97 95       	ror	r25
     598:	87 95       	ror	r24
     59a:	16 94       	lsr	r1
     59c:	d1 f7       	brne	.-12     	; 0x592 <usart_set_baudrate+0x60>
		min_rate /= 2;
     59e:	b9 01       	movw	r22, r18
     5a0:	a8 01       	movw	r20, r16
     5a2:	03 2e       	mov	r0, r19
     5a4:	37 e1       	ldi	r19, 0x17	; 23
     5a6:	76 95       	lsr	r23
     5a8:	67 95       	ror	r22
     5aa:	57 95       	ror	r21
     5ac:	47 95       	ror	r20
     5ae:	3a 95       	dec	r19
     5b0:	d1 f7       	brne	.-12     	; 0x5a6 <usart_set_baudrate+0x74>
     5b2:	30 2d       	mov	r19, r0
	}

	if ((baud > max_rate) || (baud < min_rate)) {
     5b4:	88 15       	cp	r24, r8
     5b6:	99 05       	cpc	r25, r9
     5b8:	aa 05       	cpc	r26, r10
     5ba:	bb 05       	cpc	r27, r11
     5bc:	08 f4       	brcc	.+2      	; 0x5c0 <usart_set_baudrate+0x8e>
     5be:	a6 c0       	rjmp	.+332    	; 0x70c <usart_set_baudrate+0x1da>
     5c0:	84 16       	cp	r8, r20
     5c2:	95 06       	cpc	r9, r21
     5c4:	a6 06       	cpc	r10, r22
     5c6:	b7 06       	cpc	r11, r23
     5c8:	08 f4       	brcc	.+2      	; 0x5cc <usart_set_baudrate+0x9a>
     5ca:	a2 c0       	rjmp	.+324    	; 0x710 <usart_set_baudrate+0x1de>
		return false;
	}

	/* Check if double speed is enabled. */
	if (!((usart)->CTRLB & USART_CLK2X_bm)) {
     5cc:	f7 01       	movw	r30, r14
     5ce:	84 81       	ldd	r24, Z+4	; 0x04
     5d0:	82 fd       	sbrc	r24, 2
     5d2:	04 c0       	rjmp	.+8      	; 0x5dc <usart_set_baudrate+0xaa>
		baud *= 2;
     5d4:	88 0c       	add	r8, r8
     5d6:	99 1c       	adc	r9, r9
     5d8:	aa 1c       	adc	r10, r10
     5da:	bb 1c       	adc	r11, r11
	}

	/* Find the lowest possible exponent. */
	limit = 0xfffU >> 4;
	ratio = cpu_hz / baud;
     5dc:	c3 01       	movw	r24, r6
     5de:	b2 01       	movw	r22, r4
     5e0:	a5 01       	movw	r20, r10
     5e2:	94 01       	movw	r18, r8
     5e4:	0e 94 87 18 	call	0x310e	; 0x310e <__udivmodsi4>

	for (exp = -7; exp < 7; exp++) {
		if (ratio < limit) {
     5e8:	2f 3f       	cpi	r18, 0xFF	; 255
     5ea:	31 05       	cpc	r19, r1
     5ec:	41 05       	cpc	r20, r1
     5ee:	51 05       	cpc	r21, r1
     5f0:	08 f4       	brcc	.+2      	; 0x5f4 <usart_set_baudrate+0xc2>
     5f2:	90 c0       	rjmp	.+288    	; 0x714 <usart_set_baudrate+0x1e2>
     5f4:	8f ef       	ldi	r24, 0xFF	; 255
     5f6:	90 e0       	ldi	r25, 0x00	; 0
     5f8:	a0 e0       	ldi	r26, 0x00	; 0
     5fa:	b0 e0       	ldi	r27, 0x00	; 0
     5fc:	c9 ef       	ldi	r28, 0xF9	; 249
     5fe:	05 c0       	rjmp	.+10     	; 0x60a <usart_set_baudrate+0xd8>
     600:	28 17       	cp	r18, r24
     602:	39 07       	cpc	r19, r25
     604:	4a 07       	cpc	r20, r26
     606:	5b 07       	cpc	r21, r27
     608:	58 f0       	brcs	.+22     	; 0x620 <usart_set_baudrate+0xee>
			break;
		}

		limit <<= 1;
     60a:	88 0f       	add	r24, r24
     60c:	99 1f       	adc	r25, r25
     60e:	aa 1f       	adc	r26, r26
     610:	bb 1f       	adc	r27, r27

		if (exp < -3) {
     612:	cd 3f       	cpi	r28, 0xFD	; 253
     614:	0c f4       	brge	.+2      	; 0x618 <usart_set_baudrate+0xe6>
			limit |= 1;
     616:	81 60       	ori	r24, 0x01	; 1
     618:	cf 5f       	subi	r28, 0xFF	; 255

	/* Find the lowest possible exponent. */
	limit = 0xfffU >> 4;
	ratio = cpu_hz / baud;

	for (exp = -7; exp < 7; exp++) {
     61a:	c7 30       	cpi	r28, 0x07	; 7
     61c:	89 f7       	brne	.-30     	; 0x600 <usart_set_baudrate+0xce>
     61e:	4f c0       	rjmp	.+158    	; 0x6be <usart_set_baudrate+0x18c>
	 * point.
	 *
	 * The formula for calculating BSEL is slightly different when exp is
	 * negative than it is when exp is positive.
	 */
	if (exp < 0) {
     620:	cc 23       	and	r28, r28
     622:	0c f0       	brlt	.+2      	; 0x626 <usart_set_baudrate+0xf4>
     624:	4c c0       	rjmp	.+152    	; 0x6be <usart_set_baudrate+0x18c>
		/* We are supposed to subtract 1, then apply BSCALE. We want to
		 * apply BSCALE first, so we need to turn everything inside the
		 * parenthesis into a single fractional expression.
		 */
		cpu_hz -= 8 * baud;
     626:	d5 01       	movw	r26, r10
     628:	c4 01       	movw	r24, r8
     62a:	88 0f       	add	r24, r24
     62c:	99 1f       	adc	r25, r25
     62e:	aa 1f       	adc	r26, r26
     630:	bb 1f       	adc	r27, r27
     632:	88 0f       	add	r24, r24
     634:	99 1f       	adc	r25, r25
     636:	aa 1f       	adc	r26, r26
     638:	bb 1f       	adc	r27, r27
     63a:	88 0f       	add	r24, r24
     63c:	99 1f       	adc	r25, r25
     63e:	aa 1f       	adc	r26, r26
     640:	bb 1f       	adc	r27, r27
     642:	48 1a       	sub	r4, r24
     644:	59 0a       	sbc	r5, r25
     646:	6a 0a       	sbc	r6, r26
     648:	7b 0a       	sbc	r7, r27
		/* If we end up with a left-shift after taking the final
		 * divide-by-8 into account, do the shift before the divide.
		 * Otherwise, left-shift the denominator instead (effectively
		 * resulting in an overall right shift.)
		 */
		if (exp <= -3) {
     64a:	ce 3f       	cpi	r28, 0xFE	; 254
     64c:	f4 f4       	brge	.+60     	; 0x68a <usart_set_baudrate+0x158>
			div = ((cpu_hz << (-exp - 3)) + baud / 2) / baud;
     64e:	8d ef       	ldi	r24, 0xFD	; 253
     650:	9f ef       	ldi	r25, 0xFF	; 255
     652:	8c 1b       	sub	r24, r28
     654:	91 09       	sbc	r25, r1
     656:	c7 fd       	sbrc	r28, 7
     658:	93 95       	inc	r25
     65a:	04 c0       	rjmp	.+8      	; 0x664 <usart_set_baudrate+0x132>
     65c:	44 0c       	add	r4, r4
     65e:	55 1c       	adc	r5, r5
     660:	66 1c       	adc	r6, r6
     662:	77 1c       	adc	r7, r7
     664:	8a 95       	dec	r24
     666:	d2 f7       	brpl	.-12     	; 0x65c <usart_set_baudrate+0x12a>
     668:	d5 01       	movw	r26, r10
     66a:	c4 01       	movw	r24, r8
     66c:	b6 95       	lsr	r27
     66e:	a7 95       	ror	r26
     670:	97 95       	ror	r25
     672:	87 95       	ror	r24
     674:	bc 01       	movw	r22, r24
     676:	cd 01       	movw	r24, r26
     678:	64 0d       	add	r22, r4
     67a:	75 1d       	adc	r23, r5
     67c:	86 1d       	adc	r24, r6
     67e:	97 1d       	adc	r25, r7
     680:	a5 01       	movw	r20, r10
     682:	94 01       	movw	r18, r8
     684:	0e 94 87 18 	call	0x310e	; 0x310e <__udivmodsi4>
     688:	37 c0       	rjmp	.+110    	; 0x6f8 <usart_set_baudrate+0x1c6>
		} else {
			baud <<= exp + 3;
     68a:	83 e0       	ldi	r24, 0x03	; 3
     68c:	8c 0f       	add	r24, r28
     68e:	a5 01       	movw	r20, r10
     690:	94 01       	movw	r18, r8
     692:	04 c0       	rjmp	.+8      	; 0x69c <usart_set_baudrate+0x16a>
     694:	22 0f       	add	r18, r18
     696:	33 1f       	adc	r19, r19
     698:	44 1f       	adc	r20, r20
     69a:	55 1f       	adc	r21, r21
     69c:	8a 95       	dec	r24
     69e:	d2 f7       	brpl	.-12     	; 0x694 <usart_set_baudrate+0x162>
			div = (cpu_hz + baud / 2) / baud;
     6a0:	da 01       	movw	r26, r20
     6a2:	c9 01       	movw	r24, r18
     6a4:	b6 95       	lsr	r27
     6a6:	a7 95       	ror	r26
     6a8:	97 95       	ror	r25
     6aa:	87 95       	ror	r24
     6ac:	bc 01       	movw	r22, r24
     6ae:	cd 01       	movw	r24, r26
     6b0:	64 0d       	add	r22, r4
     6b2:	75 1d       	adc	r23, r5
     6b4:	86 1d       	adc	r24, r6
     6b6:	97 1d       	adc	r25, r7
     6b8:	0e 94 87 18 	call	0x310e	; 0x310e <__udivmodsi4>
     6bc:	1d c0       	rjmp	.+58     	; 0x6f8 <usart_set_baudrate+0x1c6>
		}
	} else {
		/* We will always do a right shift in this case, but we need to
		 * shift three extra positions because of the divide-by-8.
		 */
		baud <<= exp + 3;
     6be:	83 e0       	ldi	r24, 0x03	; 3
     6c0:	8c 0f       	add	r24, r28
     6c2:	a5 01       	movw	r20, r10
     6c4:	94 01       	movw	r18, r8
     6c6:	04 c0       	rjmp	.+8      	; 0x6d0 <usart_set_baudrate+0x19e>
     6c8:	22 0f       	add	r18, r18
     6ca:	33 1f       	adc	r19, r19
     6cc:	44 1f       	adc	r20, r20
     6ce:	55 1f       	adc	r21, r21
     6d0:	8a 95       	dec	r24
     6d2:	d2 f7       	brpl	.-12     	; 0x6c8 <usart_set_baudrate+0x196>
		div = (cpu_hz + baud / 2) / baud - 1;
     6d4:	da 01       	movw	r26, r20
     6d6:	c9 01       	movw	r24, r18
     6d8:	b6 95       	lsr	r27
     6da:	a7 95       	ror	r26
     6dc:	97 95       	ror	r25
     6de:	87 95       	ror	r24
     6e0:	bc 01       	movw	r22, r24
     6e2:	cd 01       	movw	r24, r26
     6e4:	64 0d       	add	r22, r4
     6e6:	75 1d       	adc	r23, r5
     6e8:	86 1d       	adc	r24, r6
     6ea:	97 1d       	adc	r25, r7
     6ec:	0e 94 87 18 	call	0x310e	; 0x310e <__udivmodsi4>
     6f0:	21 50       	subi	r18, 0x01	; 1
     6f2:	31 09       	sbc	r19, r1
     6f4:	41 09       	sbc	r20, r1
     6f6:	51 09       	sbc	r21, r1
	}

	(usart)->BAUDCTRLB = (uint8_t)(((div >> 8) & 0X0F) | (exp << 4));
     6f8:	83 2f       	mov	r24, r19
     6fa:	8f 70       	andi	r24, 0x0F	; 15
     6fc:	c2 95       	swap	r28
     6fe:	c0 7f       	andi	r28, 0xF0	; 240
     700:	c8 2b       	or	r28, r24
     702:	f7 01       	movw	r30, r14
     704:	c7 83       	std	Z+7, r28	; 0x07
	(usart)->BAUDCTRLA = (uint8_t)div;
     706:	26 83       	std	Z+6, r18	; 0x06

	return true;
     708:	81 e0       	ldi	r24, 0x01	; 1
     70a:	18 c0       	rjmp	.+48     	; 0x73c <usart_set_baudrate+0x20a>
		max_rate /= 2;
		min_rate /= 2;
	}

	if ((baud > max_rate) || (baud < min_rate)) {
		return false;
     70c:	80 e0       	ldi	r24, 0x00	; 0
     70e:	16 c0       	rjmp	.+44     	; 0x73c <usart_set_baudrate+0x20a>
     710:	80 e0       	ldi	r24, 0x00	; 0
     712:	14 c0       	rjmp	.+40     	; 0x73c <usart_set_baudrate+0x20a>
	if (exp < 0) {
		/* We are supposed to subtract 1, then apply BSCALE. We want to
		 * apply BSCALE first, so we need to turn everything inside the
		 * parenthesis into a single fractional expression.
		 */
		cpu_hz -= 8 * baud;
     714:	d5 01       	movw	r26, r10
     716:	c4 01       	movw	r24, r8
     718:	88 0f       	add	r24, r24
     71a:	99 1f       	adc	r25, r25
     71c:	aa 1f       	adc	r26, r26
     71e:	bb 1f       	adc	r27, r27
     720:	88 0f       	add	r24, r24
     722:	99 1f       	adc	r25, r25
     724:	aa 1f       	adc	r26, r26
     726:	bb 1f       	adc	r27, r27
     728:	88 0f       	add	r24, r24
     72a:	99 1f       	adc	r25, r25
     72c:	aa 1f       	adc	r26, r26
     72e:	bb 1f       	adc	r27, r27
     730:	48 1a       	sub	r4, r24
     732:	59 0a       	sbc	r5, r25
     734:	6a 0a       	sbc	r6, r26
     736:	7b 0a       	sbc	r7, r27

	/* Find the lowest possible exponent. */
	limit = 0xfffU >> 4;
	ratio = cpu_hz / baud;

	for (exp = -7; exp < 7; exp++) {
     738:	c9 ef       	ldi	r28, 0xF9	; 249
     73a:	89 cf       	rjmp	.-238    	; 0x64e <usart_set_baudrate+0x11c>

	(usart)->BAUDCTRLB = (uint8_t)(((div >> 8) & 0X0F) | (exp << 4));
	(usart)->BAUDCTRLA = (uint8_t)div;

	return true;
}
     73c:	cf 91       	pop	r28
     73e:	1f 91       	pop	r17
     740:	0f 91       	pop	r16
     742:	ff 90       	pop	r15
     744:	ef 90       	pop	r14
     746:	bf 90       	pop	r11
     748:	af 90       	pop	r10
     74a:	9f 90       	pop	r9
     74c:	8f 90       	pop	r8
     74e:	7f 90       	pop	r7
     750:	6f 90       	pop	r6
     752:	5f 90       	pop	r5
     754:	4f 90       	pop	r4
     756:	08 95       	ret

00000758 <usart_init_rs232>:
 *
 * \retval true if the initialization was successfull
 * \retval false if the initialization failed (error in baud rate calculation)
 */
bool usart_init_rs232(USART_t *usart, const usart_rs232_options_t *opt)
{
     758:	0f 93       	push	r16
     75a:	1f 93       	push	r17
     75c:	cf 93       	push	r28
     75e:	df 93       	push	r29
     760:	ec 01       	movw	r28, r24
     762:	8b 01       	movw	r16, r22
 *
 * \param module Pointer to the module's base address.
 */
static inline void sysclk_enable_peripheral_clock(const volatile void *module)
{
	if (module == NULL) {
     764:	00 97       	sbiw	r24, 0x00	; 0
     766:	09 f4       	brne	.+2      	; 0x76a <usart_init_rs232+0x12>
     768:	be c0       	rjmp	.+380    	; 0x8e6 <usart_init_rs232+0x18e>
		Assert(false);
	}
#ifdef AES
	else if (module == &AES) {
     76a:	80 3c       	cpi	r24, 0xC0	; 192
     76c:	91 05       	cpc	r25, r1
     76e:	21 f4       	brne	.+8      	; 0x778 <usart_init_rs232+0x20>
		sysclk_enable_module(SYSCLK_PORT_GEN, SYSCLK_AES);
     770:	60 e1       	ldi	r22, 0x10	; 16
     772:	80 e0       	ldi	r24, 0x00	; 0
     774:	4a d3       	rcall	.+1684   	; 0xe0a <sysclk_enable_module>
     776:	b7 c0       	rjmp	.+366    	; 0x8e6 <usart_init_rs232+0x18e>
	else if (module == &EBI) {
		sysclk_enable_module(SYSCLK_PORT_GEN, SYSCLK_EBI);
	}
#endif
#ifdef RTC
	else if (module == &RTC) {
     778:	c1 15       	cp	r28, r1
     77a:	84 e0       	ldi	r24, 0x04	; 4
     77c:	d8 07       	cpc	r29, r24
     77e:	21 f4       	brne	.+8      	; 0x788 <usart_init_rs232+0x30>
		sysclk_enable_module(SYSCLK_PORT_GEN, SYSCLK_RTC);
     780:	64 e0       	ldi	r22, 0x04	; 4
     782:	80 e0       	ldi	r24, 0x00	; 0
     784:	42 d3       	rcall	.+1668   	; 0xe0a <sysclk_enable_module>
     786:	af c0       	rjmp	.+350    	; 0x8e6 <usart_init_rs232+0x18e>
	}
#endif
#ifdef EVSYS
	else if (module == &EVSYS) {
     788:	c0 38       	cpi	r28, 0x80	; 128
     78a:	e1 e0       	ldi	r30, 0x01	; 1
     78c:	de 07       	cpc	r29, r30
     78e:	21 f4       	brne	.+8      	; 0x798 <usart_init_rs232+0x40>
		sysclk_enable_module(SYSCLK_PORT_GEN, SYSCLK_EVSYS);
     790:	62 e0       	ldi	r22, 0x02	; 2
     792:	80 e0       	ldi	r24, 0x00	; 0
     794:	3a d3       	rcall	.+1652   	; 0xe0a <sysclk_enable_module>
     796:	a7 c0       	rjmp	.+334    	; 0x8e6 <usart_init_rs232+0x18e>
	}
#endif
#ifdef DMA
	else if (module == &DMA) {
     798:	c1 15       	cp	r28, r1
     79a:	f1 e0       	ldi	r31, 0x01	; 1
     79c:	df 07       	cpc	r29, r31
		sysclk_enable_module(SYSCLK_PORT_GEN, SYSCLK_DMA);
     79e:	21 f4       	brne	.+8      	; 0x7a8 <usart_init_rs232+0x50>
     7a0:	61 e0       	ldi	r22, 0x01	; 1
     7a2:	80 e0       	ldi	r24, 0x00	; 0
     7a4:	32 d3       	rcall	.+1636   	; 0xe0a <sysclk_enable_module>
     7a6:	9f c0       	rjmp	.+318    	; 0x8e6 <usart_init_rs232+0x18e>
	else if (module == &EDMA) {
		sysclk_enable_module(SYSCLK_PORT_GEN, SYSCLK_EDMA);
	}
#endif
#ifdef ACA
	else if (module == &ACA) {
     7a8:	c0 38       	cpi	r28, 0x80	; 128
     7aa:	83 e0       	ldi	r24, 0x03	; 3
     7ac:	d8 07       	cpc	r29, r24
		sysclk_enable_module(SYSCLK_PORT_A, SYSCLK_AC);
     7ae:	21 f4       	brne	.+8      	; 0x7b8 <usart_init_rs232+0x60>
     7b0:	61 e0       	ldi	r22, 0x01	; 1
     7b2:	81 e0       	ldi	r24, 0x01	; 1
     7b4:	2a d3       	rcall	.+1620   	; 0xe0a <sysclk_enable_module>
     7b6:	97 c0       	rjmp	.+302    	; 0x8e6 <usart_init_rs232+0x18e>
	else if (module == &ACB) {
		sysclk_enable_module(SYSCLK_PORT_B, SYSCLK_AC);
	}
#endif
#ifdef ADCA
	else if (module == &ADCA) {
     7b8:	c1 15       	cp	r28, r1
     7ba:	e2 e0       	ldi	r30, 0x02	; 2
     7bc:	de 07       	cpc	r29, r30
		sysclk_enable_module(SYSCLK_PORT_A, SYSCLK_ADC);
     7be:	21 f4       	brne	.+8      	; 0x7c8 <usart_init_rs232+0x70>
     7c0:	62 e0       	ldi	r22, 0x02	; 2
     7c2:	81 e0       	ldi	r24, 0x01	; 1
     7c4:	22 d3       	rcall	.+1604   	; 0xe0a <sysclk_enable_module>
     7c6:	8f c0       	rjmp	.+286    	; 0x8e6 <usart_init_rs232+0x18e>
	}
#endif
// Workaround for bad XMEGA D header file
#if !XMEGA_D
#ifdef DACB
	else if (module == &DACB) {
     7c8:	c0 32       	cpi	r28, 0x20	; 32
     7ca:	f3 e0       	ldi	r31, 0x03	; 3
     7cc:	df 07       	cpc	r29, r31
		sysclk_enable_module(SYSCLK_PORT_B, SYSCLK_DAC);
     7ce:	21 f4       	brne	.+8      	; 0x7d8 <usart_init_rs232+0x80>
     7d0:	64 e0       	ldi	r22, 0x04	; 4
     7d2:	82 e0       	ldi	r24, 0x02	; 2
     7d4:	1a d3       	rcall	.+1588   	; 0xe0a <sysclk_enable_module>
	}
#endif
#endif // Workaround end
#ifdef TCC0
	else if (module == &TCC0) {
     7d6:	87 c0       	rjmp	.+270    	; 0x8e6 <usart_init_rs232+0x18e>
     7d8:	c1 15       	cp	r28, r1
     7da:	88 e0       	ldi	r24, 0x08	; 8
     7dc:	d8 07       	cpc	r29, r24
		sysclk_enable_module(SYSCLK_PORT_C, SYSCLK_TC0);
     7de:	21 f4       	brne	.+8      	; 0x7e8 <usart_init_rs232+0x90>
     7e0:	61 e0       	ldi	r22, 0x01	; 1
     7e2:	83 e0       	ldi	r24, 0x03	; 3
     7e4:	12 d3       	rcall	.+1572   	; 0xe0a <sysclk_enable_module>
	}
#endif
#ifdef TCD0
	else if (module == &TCD0) {
     7e6:	7f c0       	rjmp	.+254    	; 0x8e6 <usart_init_rs232+0x18e>
     7e8:	c1 15       	cp	r28, r1
     7ea:	e9 e0       	ldi	r30, 0x09	; 9
     7ec:	de 07       	cpc	r29, r30
		sysclk_enable_module(SYSCLK_PORT_D, SYSCLK_TC0);
     7ee:	21 f4       	brne	.+8      	; 0x7f8 <usart_init_rs232+0xa0>
     7f0:	61 e0       	ldi	r22, 0x01	; 1
     7f2:	84 e0       	ldi	r24, 0x04	; 4
     7f4:	0a d3       	rcall	.+1556   	; 0xe0a <sysclk_enable_module>
	}
#endif
#ifdef TCE0
	else if (module == &TCE0) {
     7f6:	77 c0       	rjmp	.+238    	; 0x8e6 <usart_init_rs232+0x18e>
     7f8:	c1 15       	cp	r28, r1
     7fa:	fa e0       	ldi	r31, 0x0A	; 10
     7fc:	df 07       	cpc	r29, r31
		sysclk_enable_module(SYSCLK_PORT_E, SYSCLK_TC0);
     7fe:	21 f4       	brne	.+8      	; 0x808 <usart_init_rs232+0xb0>
     800:	61 e0       	ldi	r22, 0x01	; 1
     802:	85 e0       	ldi	r24, 0x05	; 5
     804:	02 d3       	rcall	.+1540   	; 0xe0a <sysclk_enable_module>
	else if (module == &TCF0) {
		sysclk_enable_module(SYSCLK_PORT_F, SYSCLK_TC0);
	}
#endif
#ifdef TCC1
	else if (module == &TCC1) {
     806:	6f c0       	rjmp	.+222    	; 0x8e6 <usart_init_rs232+0x18e>
     808:	c0 34       	cpi	r28, 0x40	; 64
     80a:	88 e0       	ldi	r24, 0x08	; 8
     80c:	d8 07       	cpc	r29, r24
		sysclk_enable_module(SYSCLK_PORT_C, SYSCLK_TC1);
     80e:	21 f4       	brne	.+8      	; 0x818 <usart_init_rs232+0xc0>
     810:	62 e0       	ldi	r22, 0x02	; 2
     812:	83 e0       	ldi	r24, 0x03	; 3
     814:	fa d2       	rcall	.+1524   	; 0xe0a <sysclk_enable_module>
	}
#endif
#ifdef TCD1
	else if (module == &TCD1) {
     816:	67 c0       	rjmp	.+206    	; 0x8e6 <usart_init_rs232+0x18e>
     818:	c0 34       	cpi	r28, 0x40	; 64
     81a:	e9 e0       	ldi	r30, 0x09	; 9
		sysclk_enable_module(SYSCLK_PORT_D, SYSCLK_TC1);
     81c:	de 07       	cpc	r29, r30
     81e:	21 f4       	brne	.+8      	; 0x828 <usart_init_rs232+0xd0>
     820:	62 e0       	ldi	r22, 0x02	; 2
     822:	84 e0       	ldi	r24, 0x04	; 4
     824:	f2 d2       	rcall	.+1508   	; 0xe0a <sysclk_enable_module>
	else if (module == &TCD5) {
		sysclk_enable_module(SYSCLK_PORT_D, SYSCLK_TC5);
	}
#endif
#ifdef HIRESC
	else if (module == &HIRESC) {
     826:	5f c0       	rjmp	.+190    	; 0x8e6 <usart_init_rs232+0x18e>
     828:	c0 39       	cpi	r28, 0x90	; 144
     82a:	f8 e0       	ldi	r31, 0x08	; 8
			sysclk_enable_module(SYSCLK_PORT_C, SYSCLK_HIRES);
     82c:	df 07       	cpc	r29, r31
     82e:	21 f4       	brne	.+8      	; 0x838 <usart_init_rs232+0xe0>
     830:	64 e0       	ldi	r22, 0x04	; 4
     832:	83 e0       	ldi	r24, 0x03	; 3
     834:	ea d2       	rcall	.+1492   	; 0xe0a <sysclk_enable_module>
	}
#endif
#ifdef HIRESD
	else if (module == &HIRESD) {
     836:	57 c0       	rjmp	.+174    	; 0x8e6 <usart_init_rs232+0x18e>
     838:	c0 39       	cpi	r28, 0x90	; 144
     83a:	89 e0       	ldi	r24, 0x09	; 9
		sysclk_enable_module(SYSCLK_PORT_D, SYSCLK_HIRES);
     83c:	d8 07       	cpc	r29, r24
     83e:	21 f4       	brne	.+8      	; 0x848 <usart_init_rs232+0xf0>
     840:	64 e0       	ldi	r22, 0x04	; 4
     842:	84 e0       	ldi	r24, 0x04	; 4
     844:	e2 d2       	rcall	.+1476   	; 0xe0a <sysclk_enable_module>
	}
#endif
#ifdef HIRESE
	else if (module == &HIRESE) {
     846:	4f c0       	rjmp	.+158    	; 0x8e6 <usart_init_rs232+0x18e>
     848:	c0 39       	cpi	r28, 0x90	; 144
     84a:	ea e0       	ldi	r30, 0x0A	; 10
		sysclk_enable_module(SYSCLK_PORT_E, SYSCLK_HIRES);
     84c:	de 07       	cpc	r29, r30
     84e:	21 f4       	brne	.+8      	; 0x858 <usart_init_rs232+0x100>
     850:	64 e0       	ldi	r22, 0x04	; 4
     852:	85 e0       	ldi	r24, 0x05	; 5
	else if (module == &HIRESF) {
		sysclk_enable_module(SYSCLK_PORT_F, SYSCLK_HIRES);
	}
#endif
#ifdef SPIC
	else if (module == &SPIC) {
     854:	da d2       	rcall	.+1460   	; 0xe0a <sysclk_enable_module>
     856:	47 c0       	rjmp	.+142    	; 0x8e6 <usart_init_rs232+0x18e>
     858:	c0 3c       	cpi	r28, 0xC0	; 192
     85a:	f8 e0       	ldi	r31, 0x08	; 8
		sysclk_enable_module(SYSCLK_PORT_C, SYSCLK_SPI);
     85c:	df 07       	cpc	r29, r31
     85e:	21 f4       	brne	.+8      	; 0x868 <usart_init_rs232+0x110>
     860:	68 e0       	ldi	r22, 0x08	; 8
     862:	83 e0       	ldi	r24, 0x03	; 3
	}
#endif
#ifdef SPID
	else if (module == &SPID) {
     864:	d2 d2       	rcall	.+1444   	; 0xe0a <sysclk_enable_module>
     866:	3f c0       	rjmp	.+126    	; 0x8e6 <usart_init_rs232+0x18e>
     868:	c0 3c       	cpi	r28, 0xC0	; 192
     86a:	89 e0       	ldi	r24, 0x09	; 9
		sysclk_enable_module(SYSCLK_PORT_D, SYSCLK_SPI);
     86c:	d8 07       	cpc	r29, r24
     86e:	21 f4       	brne	.+8      	; 0x878 <usart_init_rs232+0x120>
     870:	68 e0       	ldi	r22, 0x08	; 8
     872:	84 e0       	ldi	r24, 0x04	; 4
	else if (module == &SPIF) {
		sysclk_enable_module(SYSCLK_PORT_F, SYSCLK_SPI);
	}
#endif
#ifdef USARTC0
	else if (module == &USARTC0) {
     874:	ca d2       	rcall	.+1428   	; 0xe0a <sysclk_enable_module>
     876:	37 c0       	rjmp	.+110    	; 0x8e6 <usart_init_rs232+0x18e>
     878:	c0 3a       	cpi	r28, 0xA0	; 160
     87a:	e8 e0       	ldi	r30, 0x08	; 8
		sysclk_enable_module(SYSCLK_PORT_C, SYSCLK_USART0);
     87c:	de 07       	cpc	r29, r30
     87e:	21 f4       	brne	.+8      	; 0x888 <usart_init_rs232+0x130>
     880:	60 e1       	ldi	r22, 0x10	; 16
     882:	83 e0       	ldi	r24, 0x03	; 3
	}
#endif
#ifdef USARTD0
	else if (module == &USARTD0) {
     884:	c2 d2       	rcall	.+1412   	; 0xe0a <sysclk_enable_module>
     886:	2f c0       	rjmp	.+94     	; 0x8e6 <usart_init_rs232+0x18e>
     888:	c0 3a       	cpi	r28, 0xA0	; 160
     88a:	f9 e0       	ldi	r31, 0x09	; 9
		sysclk_enable_module(SYSCLK_PORT_D, SYSCLK_USART0);
     88c:	df 07       	cpc	r29, r31
     88e:	21 f4       	brne	.+8      	; 0x898 <usart_init_rs232+0x140>
     890:	60 e1       	ldi	r22, 0x10	; 16
     892:	84 e0       	ldi	r24, 0x04	; 4
	}
#endif
#ifdef USARTE0
	else if (module == &USARTE0) {
     894:	ba d2       	rcall	.+1396   	; 0xe0a <sysclk_enable_module>
     896:	27 c0       	rjmp	.+78     	; 0x8e6 <usart_init_rs232+0x18e>
     898:	c0 3a       	cpi	r28, 0xA0	; 160
		sysclk_enable_module(SYSCLK_PORT_E, SYSCLK_USART0);
     89a:	8a e0       	ldi	r24, 0x0A	; 10
     89c:	d8 07       	cpc	r29, r24
     89e:	21 f4       	brne	.+8      	; 0x8a8 <usart_init_rs232+0x150>
     8a0:	60 e1       	ldi	r22, 0x10	; 16
     8a2:	85 e0       	ldi	r24, 0x05	; 5
	else if (module == &USARTF0) {
		sysclk_enable_module(SYSCLK_PORT_F, SYSCLK_USART0);
	}
#endif
#ifdef USARTC1
	else if (module == &USARTC1) {
     8a4:	b2 d2       	rcall	.+1380   	; 0xe0a <sysclk_enable_module>
     8a6:	1f c0       	rjmp	.+62     	; 0x8e6 <usart_init_rs232+0x18e>
     8a8:	c0 3b       	cpi	r28, 0xB0	; 176
		sysclk_enable_module(SYSCLK_PORT_C, SYSCLK_USART1);
     8aa:	e8 e0       	ldi	r30, 0x08	; 8
     8ac:	de 07       	cpc	r29, r30
     8ae:	21 f4       	brne	.+8      	; 0x8b8 <usart_init_rs232+0x160>
     8b0:	60 e2       	ldi	r22, 0x20	; 32
     8b2:	83 e0       	ldi	r24, 0x03	; 3
	}
#endif
#ifdef USARTD1
	else if (module == &USARTD1) {
     8b4:	aa d2       	rcall	.+1364   	; 0xe0a <sysclk_enable_module>
     8b6:	17 c0       	rjmp	.+46     	; 0x8e6 <usart_init_rs232+0x18e>
     8b8:	c0 3b       	cpi	r28, 0xB0	; 176
		sysclk_enable_module(SYSCLK_PORT_D, SYSCLK_USART1);
     8ba:	f9 e0       	ldi	r31, 0x09	; 9
     8bc:	df 07       	cpc	r29, r31
     8be:	21 f4       	brne	.+8      	; 0x8c8 <usart_init_rs232+0x170>
     8c0:	60 e2       	ldi	r22, 0x20	; 32
     8c2:	84 e0       	ldi	r24, 0x04	; 4
	else if (module == &USARTF1) {
		sysclk_enable_module(SYSCLK_PORT_F, SYSCLK_USART1);
	}
#endif
#ifdef TWIC
	else if (module == &TWIC) {
     8c4:	a2 d2       	rcall	.+1348   	; 0xe0a <sysclk_enable_module>
     8c6:	0f c0       	rjmp	.+30     	; 0x8e6 <usart_init_rs232+0x18e>
     8c8:	c0 38       	cpi	r28, 0x80	; 128
     8ca:	84 e0       	ldi	r24, 0x04	; 4
		sysclk_enable_module(SYSCLK_PORT_C, SYSCLK_TWI);
     8cc:	d8 07       	cpc	r29, r24
     8ce:	21 f4       	brne	.+8      	; 0x8d8 <usart_init_rs232+0x180>
     8d0:	60 e4       	ldi	r22, 0x40	; 64
     8d2:	83 e0       	ldi	r24, 0x03	; 3
     8d4:	9a d2       	rcall	.+1332   	; 0xe0a <sysclk_enable_module>
	else if (module == &TWID) {
		sysclk_enable_module(SYSCLK_PORT_D, SYSCLK_TWI);
	}
#endif
#ifdef TWIE
	else if (module == &TWIE) {
     8d6:	07 c0       	rjmp	.+14     	; 0x8e6 <usart_init_rs232+0x18e>
     8d8:	c0 3a       	cpi	r28, 0xA0	; 160
     8da:	e4 e0       	ldi	r30, 0x04	; 4
     8dc:	de 07       	cpc	r29, r30
		sysclk_enable_module(SYSCLK_PORT_E, SYSCLK_TWI);
     8de:	19 f4       	brne	.+6      	; 0x8e6 <usart_init_rs232+0x18e>
     8e0:	60 e4       	ldi	r22, 0x40	; 64
     8e2:	85 e0       	ldi	r24, 0x05	; 5
 * - 0x2        : IrDA mode.
 * - 0x3        : Master SPI mode.
 */
static inline void usart_set_mode(USART_t *usart, USART_CMODE_t usartmode)
{
	(usart)->CTRLC = ((usart)->CTRLC & (~USART_CMODE_gm)) | usartmode;
     8e4:	92 d2       	rcall	.+1316   	; 0xe0a <sysclk_enable_module>
     8e6:	8d 81       	ldd	r24, Y+5	; 0x05
     8e8:	8f 73       	andi	r24, 0x3F	; 63
 *  \param twoStopBits Enable two stop bit mode. Use bool type.
 */
static inline void usart_format_set(USART_t *usart, USART_CHSIZE_t charSize,
		USART_PMODE_t parityMode, bool twoStopBits)
{
	(usart)->CTRLC = (uint8_t)charSize | parityMode
     8ea:	8d 83       	std	Y+5, r24	; 0x05
     8ec:	f8 01       	movw	r30, r16
     8ee:	95 81       	ldd	r25, Z+5	; 0x05
     8f0:	84 81       	ldd	r24, Z+4	; 0x04
     8f2:	89 2b       	or	r24, r25
     8f4:	96 81       	ldd	r25, Z+6	; 0x06
     8f6:	91 11       	cpse	r25, r1
     8f8:	98 e0       	ldi	r25, 0x08	; 8
     8fa:	89 2b       	or	r24, r25
	bool result;
	sysclk_enable_peripheral_clock(usart);
	usart_set_mode(usart, USART_CMODE_ASYNCHRONOUS_gc);
	usart_format_set(usart, opt->charlength, opt->paritytype,
			opt->stopbits);
	result = usart_set_baudrate(usart, opt->baudrate, sysclk_get_per_hz());
     8fc:	8d 83       	std	Y+5, r24	; 0x05
     8fe:	f8 01       	movw	r30, r16
     900:	40 81       	ld	r20, Z
     902:	51 81       	ldd	r21, Z+1	; 0x01
     904:	62 81       	ldd	r22, Z+2	; 0x02
     906:	73 81       	ldd	r23, Z+3	; 0x03
     908:	00 e0       	ldi	r16, 0x00	; 0
     90a:	18 e4       	ldi	r17, 0x48	; 72
     90c:	28 ee       	ldi	r18, 0xE8	; 232
     90e:	31 e0       	ldi	r19, 0x01	; 1
     910:	ce 01       	movw	r24, r28
     912:	0f de       	rcall	.-994    	; 0x532 <usart_set_baudrate>
 *
 * \param usart Pointer to the USART module.
 */
static inline void usart_tx_enable(USART_t *usart)
{
	(usart)->CTRLB |= USART_TXEN_bm;
     914:	9c 81       	ldd	r25, Y+4	; 0x04
     916:	98 60       	ori	r25, 0x08	; 8
     918:	9c 83       	std	Y+4, r25	; 0x04
 *
 * \param usart Pointer to the USART module
 */
static inline void usart_rx_enable(USART_t *usart)
{
	(usart)->CTRLB |= USART_RXEN_bm;
     91a:	9c 81       	ldd	r25, Y+4	; 0x04
     91c:	90 61       	ori	r25, 0x10	; 16
     91e:	9c 83       	std	Y+4, r25	; 0x04
	usart_tx_enable(usart);
	usart_rx_enable(usart);
	
	return result;
}
     920:	df 91       	pop	r29
     922:	cf 91       	pop	r28
     924:	1f 91       	pop	r17
     926:	0f 91       	pop	r16
     928:	08 95       	ret

0000092a <hall_sensor_init>:
 */ 

#include <asf.h>
#include "hall.h"

void hall_sensor_init(void){
     92a:	08 95       	ret

0000092c <cam_init>:

#include "spy_cam.h"
#include <asf.h>

void cam_init(void){
	PORTA.DIR |= 0x08; // Sets A3 to output
     92c:	e0 e0       	ldi	r30, 0x00	; 0
     92e:	f6 e0       	ldi	r31, 0x06	; 6
     930:	80 81       	ld	r24, Z
     932:	88 60       	ori	r24, 0x08	; 8
     934:	80 83       	st	Z, r24
     936:	08 95       	ret

00000938 <cam_switch>:
}

void cam_switch(void){
	PORTA.OUT ^= 0x08; // Changes A3 from high to low or vice-versa
     938:	e0 e0       	ldi	r30, 0x00	; 0
     93a:	f6 e0       	ldi	r31, 0x06	; 6
     93c:	94 81       	ldd	r25, Z+4	; 0x04
     93e:	88 e0       	ldi	r24, 0x08	; 8
     940:	89 27       	eor	r24, r25
     942:	84 83       	std	Z+4, r24	; 0x04
     944:	08 95       	ret

00000946 <gps_uart_init>:

#include <asf.h>
#include <string.h>
#include "mt3339.h"

void gps_uart_init(void){
     946:	cf 93       	push	r28
     948:	df 93       	push	r29
     94a:	cd b7       	in	r28, 0x3d	; 61
     94c:	de b7       	in	r29, 0x3e	; 62
     94e:	27 97       	sbiw	r28, 0x07	; 7
     950:	cd bf       	out	0x3d, r28	; 61
     952:	de bf       	out	0x3e, r29	; 62
		sysclk_enable_module(SYSCLK_PORT_C, SYSCLK_USART1);
	}
#endif
#ifdef USARTD1
	else if (module == &USARTD1) {
		sysclk_enable_module(SYSCLK_PORT_D, SYSCLK_USART1);
     954:	60 e2       	ldi	r22, 0x20	; 32
     956:	84 e0       	ldi	r24, 0x04	; 4
     958:	58 d2       	rcall	.+1200   	; 0xe0a <sysclk_enable_module>
		.charlength =	GPS_TERMINAL_SERIAL_CHAR_LEN,
		.paritytype =	GPS_TERMINAL_SERIAL_PARITY,
		.stopbits	=	GPS_TERMINAL_SERIAL_STOP_BIT
	};
	
	GPS_TERMINAL_PORT.DIR |= GPS_TERMINAL_TX_PIN; // Puts pin to output
     95a:	e0 e6       	ldi	r30, 0x60	; 96
     95c:	f6 e0       	ldi	r31, 0x06	; 6
     95e:	80 81       	ld	r24, Z
     960:	80 68       	ori	r24, 0x80	; 128
     962:	80 83       	st	Z, r24
static inline bool usart_serial_init(usart_if usart, const
		usart_serial_options_t *options)
{
	// USART options.
	usart_rs232_options_t usart_rs232_options;
	usart_rs232_options.charlength   = options->charlength;
     964:	e6 e0       	ldi	r30, 0x06	; 6
     966:	f0 e2       	ldi	r31, 0x20	; 32
     968:	84 81       	ldd	r24, Z+4	; 0x04
     96a:	8d 83       	std	Y+5, r24	; 0x05
	usart_rs232_options.paritytype   = options->paritytype;
     96c:	85 81       	ldd	r24, Z+5	; 0x05
     96e:	8e 83       	std	Y+6, r24	; 0x06
	usart_rs232_options.stopbits     = options->stopbits;
     970:	86 81       	ldd	r24, Z+6	; 0x06
     972:	8f 83       	std	Y+7, r24	; 0x07
	usart_rs232_options.baudrate     = options->baudrate;
     974:	80 81       	ld	r24, Z
     976:	91 81       	ldd	r25, Z+1	; 0x01
     978:	a2 81       	ldd	r26, Z+2	; 0x02
     97a:	b3 81       	ldd	r27, Z+3	; 0x03
     97c:	89 83       	std	Y+1, r24	; 0x01
     97e:	9a 83       	std	Y+2, r25	; 0x02
     980:	ab 83       	std	Y+3, r26	; 0x03
     982:	bc 83       	std	Y+4, r27	; 0x04
		sysclk_enable_module(SYSCLK_PORT_D,PR_USART0_bm);
	}
#endif
#ifdef USARTD1
	if((uint16_t)usart == (uint16_t)&USARTD1) {
		sysclk_enable_module(SYSCLK_PORT_D,PR_USART1_bm);
     984:	60 e2       	ldi	r22, 0x20	; 32
     986:	84 e0       	ldi	r24, 0x04	; 4
     988:	40 d2       	rcall	.+1152   	; 0xe0a <sysclk_enable_module>
#ifdef USARTF1
	if((uint16_t)usart == (uint16_t)&USARTF1) {
		sysclk_enable_module(SYSCLK_PORT_F,PR_USART1_bm);
	}
#endif
	if (usart_init_rs232(usart, &usart_rs232_options)) {
     98a:	be 01       	movw	r22, r28
     98c:	6f 5f       	subi	r22, 0xFF	; 255
     98e:	7f 4f       	sbci	r23, 0xFF	; 255
     990:	80 eb       	ldi	r24, 0xB0	; 176
     992:	99 e0       	ldi	r25, 0x09	; 9
     994:	e1 de       	rcall	.-574    	; 0x758 <usart_init_rs232>
	
	usart_serial_init(GPS_TERMINAL_SERIAL,&gps_config);
}
     996:	27 96       	adiw	r28, 0x07	; 7
     998:	cd bf       	out	0x3d, r28	; 61
     99a:	de bf       	out	0x3e, r29	; 62
     99c:	df 91       	pop	r29
     99e:	cf 91       	pop	r28
     9a0:	08 95       	ret

000009a2 <__portable_avr_delay_cycles>:
 *
 * @{
 */
__always_optimize
static inline void __portable_avr_delay_cycles(unsigned long n)
{
     9a2:	04 c0       	rjmp	.+8      	; 0x9ac <__portable_avr_delay_cycles+0xa>
	while (n) {
		barrier();
		n--;
     9a4:	61 50       	subi	r22, 0x01	; 1
     9a6:	71 09       	sbc	r23, r1
     9a8:	81 09       	sbc	r24, r1
     9aa:	91 09       	sbc	r25, r1
 * @{
 */
__always_optimize
static inline void __portable_avr_delay_cycles(unsigned long n)
{
	while (n) {
     9ac:	61 15       	cp	r22, r1
     9ae:	71 05       	cpc	r23, r1
     9b0:	81 05       	cpc	r24, r1
     9b2:	91 05       	cpc	r25, r1
     9b4:	b9 f7       	brne	.-18     	; 0x9a4 <__portable_avr_delay_cycles+0x2>
     9b6:	08 95       	ret

000009b8 <flip_ms5607>:
	
	return rx_data;
}

void flip_ms5607(void){
	MS5607_PORT.OUT ^= MS5607_PIN;
     9b8:	e0 e4       	ldi	r30, 0x40	; 64
     9ba:	f6 e0       	ldi	r31, 0x06	; 6
     9bc:	94 81       	ldd	r25, Z+4	; 0x04
     9be:	80 e1       	ldi	r24, 0x10	; 16
     9c0:	89 27       	eor	r24, r25
     9c2:	84 83       	std	Z+4, r24	; 0x04
     9c4:	08 95       	ret

000009c6 <ms5607_init>:
#include <asf.h>
#include "ms5607.h"
#include "spi_controller.h"

void ms5607_init(void){
	PORTC.OUT |= 0x10; // makes the 4th pin on Port C be set on high (0b00010000)
     9c6:	e0 e4       	ldi	r30, 0x40	; 64
     9c8:	f6 e0       	ldi	r31, 0x06	; 6
     9ca:	84 81       	ldd	r24, Z+4	; 0x04
     9cc:	80 61       	ori	r24, 0x10	; 16
     9ce:	84 83       	std	Z+4, r24	; 0x04
	delay_ms(5);
     9d0:	6b e2       	ldi	r22, 0x2B	; 43
     9d2:	78 e6       	ldi	r23, 0x68	; 104
     9d4:	80 e0       	ldi	r24, 0x00	; 0
     9d6:	90 e0       	ldi	r25, 0x00	; 0
     9d8:	e4 df       	rcall	.-56     	; 0x9a2 <__portable_avr_delay_cycles>
	
	// Resets the ms5607
	flip_ms5607();
     9da:	ee df       	rcall	.-36     	; 0x9b8 <flip_ms5607>
	spi_write(CMD_MS5607_RESET);
     9dc:	8e e1       	ldi	r24, 0x1E	; 30
     9de:	82 d0       	rcall	.+260    	; 0xae4 <spi_write>
     9e0:	60 e8       	ldi	r22, 0x80	; 128
	delay_ms(3);
     9e2:	7e e3       	ldi	r23, 0x3E	; 62
     9e4:	80 e0       	ldi	r24, 0x00	; 0
     9e6:	90 e0       	ldi	r25, 0x00	; 0
     9e8:	dc df       	rcall	.-72     	; 0x9a2 <__portable_avr_delay_cycles>
	flip_ms5607();
     9ea:	e6 df       	rcall	.-52     	; 0x9b8 <flip_ms5607>
	delay_ms(2);
     9ec:	6b ea       	ldi	r22, 0xAB	; 171
     9ee:	79 e2       	ldi	r23, 0x29	; 41
     9f0:	80 e0       	ldi	r24, 0x00	; 0
     9f2:	90 e0       	ldi	r25, 0x00	; 0
     9f4:	d6 cf       	rjmp	.-84     	; 0x9a2 <__portable_avr_delay_cycles>
     9f6:	08 95       	ret

000009f8 <ms5607_read>:
     9f8:	cf 93       	push	r28
}

uint16_t ms5607_read(uint16_t comm)
{
     9fa:	df 93       	push	r29
     9fc:	c8 2f       	mov	r28, r24
	uint16_t rx_data = 0; // temporary 16-bit value
	flip_ms5607(); // select our spi device
     9fe:	dc df       	rcall	.-72     	; 0x9b8 <flip_ms5607>
	spi_write(comm); // write a specified command to ask for data
     a00:	8c 2f       	mov	r24, r28
	
	/*typecast this expression from an 8-bit to a 16-bit and shift it 8 bits to the left
	  meaning the returned value is now in the upper 8 bits rx_data*/
	rx_data = (uint16_t)spi_read()<<8; 
     a02:	70 d0       	rcall	.+224    	; 0xae4 <spi_write>
     a04:	5f d0       	rcall	.+190    	; 0xac4 <spi_read>
     a06:	c8 2f       	mov	r28, r24
     a08:	d0 e0       	ldi	r29, 0x00	; 0
     a0a:	dc 2f       	mov	r29, r28
	
	// OR the second byte with the 16-bit variable, the returned value is now in the lower 8 bits of 'rx_data'
	rx_data |= spi_read(); 
     a0c:	cc 27       	eor	r28, r28
     a0e:	5a d0       	rcall	.+180    	; 0xac4 <spi_read>
     a10:	c8 2b       	or	r28, r24
	
	flip_ms5607(); // end spi exchange
     a12:	d2 df       	rcall	.-92     	; 0x9b8 <flip_ms5607>
     a14:	ce 01       	movw	r24, r28
	
	return rx_data; // return the 16-bit value
}
     a16:	df 91       	pop	r29
     a18:	cf 91       	pop	r28
     a1a:	08 95       	ret

00000a1c <ms5607_convert_d1>:
     a1c:	cf 92       	push	r12

uint32_t ms5607_convert_d1(void)
{
     a1e:	df 92       	push	r13
     a20:	ef 92       	push	r14
     a22:	ff 92       	push	r15
	uint32_t rx_data = 0; // temporary 16-bit value
	// CONVERT D1
	flip_ms5607(); // select our spi device
     a24:	c9 df       	rcall	.-110    	; 0x9b8 <flip_ms5607>
	spi_write(CMD_MS5607_D1_4096); // write a specified command to ask for data
     a26:	88 e4       	ldi	r24, 0x48	; 72
     a28:	5d d0       	rcall	.+186    	; 0xae4 <spi_write>
	delay_ms(10);
     a2a:	66 e5       	ldi	r22, 0x56	; 86
     a2c:	70 ed       	ldi	r23, 0xD0	; 208
     a2e:	80 e0       	ldi	r24, 0x00	; 0
     a30:	90 e0       	ldi	r25, 0x00	; 0
	flip_ms5607();
     a32:	b7 df       	rcall	.-146    	; 0x9a2 <__portable_avr_delay_cycles>
	
	flip_ms5607();
     a34:	c1 df       	rcall	.-126    	; 0x9b8 <flip_ms5607>
     a36:	c0 df       	rcall	.-128    	; 0x9b8 <flip_ms5607>
	spi_write(CMD_MS5607_READ_ADC);
     a38:	80 e0       	ldi	r24, 0x00	; 0
     a3a:	54 d0       	rcall	.+168    	; 0xae4 <spi_write>
     a3c:	43 d0       	rcall	.+134    	; 0xac4 <spi_read>
	rx_data  = (uint32_t) spi_read()<<16;
     a3e:	c8 2e       	mov	r12, r24
     a40:	d1 2c       	mov	r13, r1
     a42:	e1 2c       	mov	r14, r1
     a44:	f1 2c       	mov	r15, r1
     a46:	76 01       	movw	r14, r12
     a48:	dd 24       	eor	r13, r13
	rx_data |= (uint32_t) spi_read()<<8;
     a4a:	cc 24       	eor	r12, r12
     a4c:	3b d0       	rcall	.+118    	; 0xac4 <spi_read>
     a4e:	d8 2a       	or	r13, r24
	rx_data |= spi_read();
     a50:	39 d0       	rcall	.+114    	; 0xac4 <spi_read>
     a52:	c8 2a       	or	r12, r24
     a54:	b1 df       	rcall	.-158    	; 0x9b8 <flip_ms5607>
	flip_ms5607();
     a56:	c7 01       	movw	r24, r14
     a58:	b6 01       	movw	r22, r12
	
	return rx_data;
}
     a5a:	ff 90       	pop	r15
     a5c:	ef 90       	pop	r14
     a5e:	df 90       	pop	r13
     a60:	cf 90       	pop	r12
     a62:	08 95       	ret

00000a64 <ms5607_convert_d2>:
     a64:	cf 92       	push	r12
     a66:	df 92       	push	r13

uint32_t ms5607_convert_d2(void)
{
     a68:	ef 92       	push	r14
     a6a:	ff 92       	push	r15
	uint32_t rx_data = 0; // temporary 16-bit value
	// CONVERT D2
	flip_ms5607(); // select our spi device
     a6c:	a5 df       	rcall	.-182    	; 0x9b8 <flip_ms5607>
	spi_write(CMD_MS5607_D2_4096); // write a specified command to ask for data
     a6e:	88 e5       	ldi	r24, 0x58	; 88
     a70:	39 d0       	rcall	.+114    	; 0xae4 <spi_write>
	delay_ms(10);
     a72:	66 e5       	ldi	r22, 0x56	; 86
     a74:	70 ed       	ldi	r23, 0xD0	; 208
     a76:	80 e0       	ldi	r24, 0x00	; 0
     a78:	90 e0       	ldi	r25, 0x00	; 0
	flip_ms5607();
     a7a:	93 df       	rcall	.-218    	; 0x9a2 <__portable_avr_delay_cycles>
	
	flip_ms5607();
     a7c:	9d df       	rcall	.-198    	; 0x9b8 <flip_ms5607>
     a7e:	9c df       	rcall	.-200    	; 0x9b8 <flip_ms5607>
	spi_write(CMD_MS5607_READ_ADC);
     a80:	80 e0       	ldi	r24, 0x00	; 0
     a82:	30 d0       	rcall	.+96     	; 0xae4 <spi_write>
     a84:	1f d0       	rcall	.+62     	; 0xac4 <spi_read>
	rx_data  = (uint32_t) spi_read()<<16;
     a86:	c8 2e       	mov	r12, r24
     a88:	d1 2c       	mov	r13, r1
     a8a:	e1 2c       	mov	r14, r1
     a8c:	f1 2c       	mov	r15, r1
     a8e:	76 01       	movw	r14, r12
     a90:	dd 24       	eor	r13, r13
	rx_data |= (uint32_t) spi_read()<<8;
     a92:	cc 24       	eor	r12, r12
     a94:	17 d0       	rcall	.+46     	; 0xac4 <spi_read>
     a96:	d8 2a       	or	r13, r24
	rx_data |= spi_read();
     a98:	15 d0       	rcall	.+42     	; 0xac4 <spi_read>
     a9a:	c8 2a       	or	r12, r24
     a9c:	8d df       	rcall	.-230    	; 0x9b8 <flip_ms5607>
	flip_ms5607();
     a9e:	c7 01       	movw	r24, r14
     aa0:	b6 01       	movw	r22, r12
	
	return rx_data;
}
     aa2:	ff 90       	pop	r15
     aa4:	ef 90       	pop	r14
     aa6:	df 90       	pop	r13
     aa8:	cf 90       	pop	r12
     aaa:	08 95       	ret

00000aac <spi_init>:
     aac:	68 e0       	ldi	r22, 0x08	; 8
     aae:	83 e0       	ldi	r24, 0x03	; 3
	PORTC.DIR |= 0b10110000; 
}

void spi_select(uint8_t port)
{
	PORTC.OUT ^= port; //switches SS
     ab0:	ac d1       	rcall	.+856    	; 0xe0a <sysclk_enable_module>
     ab2:	81 e5       	ldi	r24, 0x51	; 81
     ab4:	80 93 c0 08 	sts	0x08C0, r24	; 0x8008c0 <__TEXT_REGION_LENGTH__+0x7008c0>
     ab8:	e0 e4       	ldi	r30, 0x40	; 64
     aba:	f6 e0       	ldi	r31, 0x06	; 6
     abc:	80 81       	ld	r24, Z
     abe:	80 6b       	ori	r24, 0xB0	; 176
     ac0:	80 83       	st	Z, r24
     ac2:	08 95       	ret

00000ac4 <spi_read>:

uint8_t spi_read(void)
{
	uint8_t iter_max = 100;
	uint8_t count = 0;
	SPIC.DATA = 0xFF; // make the DATA register something we know
     ac4:	e0 ec       	ldi	r30, 0xC0	; 192
     ac6:	f8 e0       	ldi	r31, 0x08	; 8
     ac8:	8f ef       	ldi	r24, 0xFF	; 255
     aca:	83 83       	std	Z+3, r24	; 0x03
	while(!(SPIC.STATUS>>7) && count < iter_max){ // wait for the SPI interrupt flag to let us know the transfer is complete
     acc:	82 81       	ldd	r24, Z+2	; 0x02
     ace:	88 23       	and	r24, r24
     ad0:	34 f0       	brlt	.+12     	; 0xade <spi_read+0x1a>
     ad2:	84 e6       	ldi	r24, 0x64	; 100
     ad4:	92 81       	ldd	r25, Z+2	; 0x02
     ad6:	99 23       	and	r25, r25
     ad8:	14 f0       	brlt	.+4      	; 0xade <spi_read+0x1a>
     ada:	81 50       	subi	r24, 0x01	; 1
     adc:	d9 f7       	brne	.-10     	; 0xad4 <spi_read+0x10>
		count++;	
	}
	
	return SPIC.DATA; // return the data from this function
     ade:	80 91 c3 08 	lds	r24, 0x08C3	; 0x8008c3 <__TEXT_REGION_LENGTH__+0x7008c3>
}
     ae2:	08 95       	ret

00000ae4 <spi_write>:

void spi_write(uint8_t data)
{
	SPIC.DATA = data; // write the data we want to send to the data register
     ae4:	80 93 c3 08 	sts	0x08C3, r24	; 0x8008c3 <__TEXT_REGION_LENGTH__+0x7008c3>
	while(!(SPIC.STATUS>>7)); // wait to ensure the data is sent before we do anything else
     ae8:	e0 ec       	ldi	r30, 0xC0	; 192
     aea:	f8 e0       	ldi	r31, 0x08	; 8
     aec:	82 81       	ldd	r24, Z+2	; 0x02
     aee:	88 23       	and	r24, r24
     af0:	ec f7       	brge	.-6      	; 0xaec <spi_write+0x8>
     af2:	08 95       	ret

00000af4 <usart_serial_getchar>:
 * \param usart   Base address of the USART instance.
 * \param data   Data to read
 *
 */
static inline void usart_serial_getchar(usart_if usart, uint8_t *data)
{
     af4:	cf 93       	push	r28
     af6:	df 93       	push	r29
     af8:	eb 01       	movw	r28, r22
	*data = usart_getchar(usart);
     afa:	15 dd       	rcall	.-1494   	; 0x526 <usart_getchar>
     afc:	88 83       	st	Y, r24
}
     afe:	df 91       	pop	r29
     b00:	cf 91       	pop	r28
     b02:	08 95       	ret

00000b04 <usart_serial_putchar>:
 *
 * \return Status code
 */
static inline enum status_code usart_serial_putchar(usart_if usart, uint8_t c)
{
	return usart_putchar(usart, c);
     b04:	08 cd       	rjmp	.-1520   	; 0x516 <usart_putchar>
}
     b06:	08 95       	ret

00000b08 <data_terminal_init>:

#include <asf.h>
#include "data_logger.h"

void data_terminal_init()
{
     b08:	cf 93       	push	r28
     b0a:	df 93       	push	r29
     b0c:	cd b7       	in	r28, 0x3d	; 61
     b0e:	de b7       	in	r29, 0x3e	; 62
     b10:	27 97       	sbiw	r28, 0x07	; 7
     b12:	cd bf       	out	0x3d, r28	; 61
     b14:	de bf       	out	0x3e, r29	; 62
		sysclk_enable_module(SYSCLK_PORT_D, SYSCLK_USART0);
	}
#endif
#ifdef USARTE0
	else if (module == &USARTE0) {
		sysclk_enable_module(SYSCLK_PORT_E, SYSCLK_USART0);
     b16:	60 e1       	ldi	r22, 0x10	; 16
     b18:	85 e0       	ldi	r24, 0x05	; 5
     b1a:	77 d1       	rcall	.+750    	; 0xe0a <sysclk_enable_module>
		.charlength =	UART_TERMINAL_SERIAL_CHAR_LEN,
		.paritytype =	UART_TERMINAL_SERIAL_PARITY,
		.stopbits	=	UART_TERMINAL_SERIAL_STOP_BIT
	};
	
	UART_TERMINAL_PORT.DIR |= UART_TERMINAL_TX_PIN;	// set the USART transmit pin to output
     b1c:	e0 e8       	ldi	r30, 0x80	; 128
     b1e:	f6 e0       	ldi	r31, 0x06	; 6
     b20:	80 81       	ld	r24, Z
     b22:	88 60       	ori	r24, 0x08	; 8
     b24:	80 83       	st	Z, r24
 * \param opt         Options needed to set up RS232 communication (see \ref usart_options_t).
 *
 */
static inline void stdio_serial_init(volatile void *usart, const usart_serial_options_t *opt)
{
	stdio_base = (void *)usart;
     b26:	80 ea       	ldi	r24, 0xA0	; 160
     b28:	9a e0       	ldi	r25, 0x0A	; 10
     b2a:	80 93 f4 20 	sts	0x20F4, r24	; 0x8020f4 <stdio_base>
     b2e:	90 93 f5 20 	sts	0x20F5, r25	; 0x8020f5 <stdio_base+0x1>
	ptr_put = (int (*)(void volatile*,char))&usart_serial_putchar;
     b32:	82 e8       	ldi	r24, 0x82	; 130
     b34:	95 e0       	ldi	r25, 0x05	; 5
     b36:	80 93 f2 20 	sts	0x20F2, r24	; 0x8020f2 <ptr_put>
     b3a:	90 93 f3 20 	sts	0x20F3, r25	; 0x8020f3 <ptr_put+0x1>
	ptr_get = (void (*)(void volatile*,char*))&usart_serial_getchar;
     b3e:	8a e7       	ldi	r24, 0x7A	; 122
     b40:	95 e0       	ldi	r25, 0x05	; 5
     b42:	80 93 f0 20 	sts	0x20F0, r24	; 0x8020f0 <ptr_get>
     b46:	90 93 f1 20 	sts	0x20F1, r25	; 0x8020f1 <ptr_get+0x1>
static inline bool usart_serial_init(usart_if usart, const
		usart_serial_options_t *options)
{
	// USART options.
	usart_rs232_options_t usart_rs232_options;
	usart_rs232_options.charlength   = options->charlength;
     b4a:	ed e0       	ldi	r30, 0x0D	; 13
     b4c:	f0 e2       	ldi	r31, 0x20	; 32
     b4e:	84 81       	ldd	r24, Z+4	; 0x04
     b50:	8d 83       	std	Y+5, r24	; 0x05
	usart_rs232_options.paritytype   = options->paritytype;
     b52:	85 81       	ldd	r24, Z+5	; 0x05
     b54:	8e 83       	std	Y+6, r24	; 0x06
	usart_rs232_options.stopbits     = options->stopbits;
     b56:	86 81       	ldd	r24, Z+6	; 0x06
     b58:	8f 83       	std	Y+7, r24	; 0x07
	usart_rs232_options.baudrate     = options->baudrate;
     b5a:	80 81       	ld	r24, Z
     b5c:	91 81       	ldd	r25, Z+1	; 0x01
     b5e:	a2 81       	ldd	r26, Z+2	; 0x02
     b60:	b3 81       	ldd	r27, Z+3	; 0x03
     b62:	89 83       	std	Y+1, r24	; 0x01
     b64:	9a 83       	std	Y+2, r25	; 0x02
     b66:	ab 83       	std	Y+3, r26	; 0x03
     b68:	bc 83       	std	Y+4, r27	; 0x04
		sysclk_enable_module(SYSCLK_PORT_D,PR_USART1_bm);
	}
#endif
#ifdef USARTE0
	if((uint16_t)usart == (uint16_t)&USARTE0) {
		sysclk_enable_module(SYSCLK_PORT_E,PR_USART0_bm);
     b6a:	60 e1       	ldi	r22, 0x10	; 16
     b6c:	85 e0       	ldi	r24, 0x05	; 5
     b6e:	4d d1       	rcall	.+666    	; 0xe0a <sysclk_enable_module>
#ifdef USARTF1
	if((uint16_t)usart == (uint16_t)&USARTF1) {
		sysclk_enable_module(SYSCLK_PORT_F,PR_USART1_bm);
	}
#endif
	if (usart_init_rs232(usart, &usart_rs232_options)) {
     b70:	be 01       	movw	r22, r28
     b72:	6f 5f       	subi	r22, 0xFF	; 255
     b74:	7f 4f       	sbci	r23, 0xFF	; 255
     b76:	80 ea       	ldi	r24, 0xA0	; 160
     b78:	9a e0       	ldi	r25, 0x0A	; 10
     b7a:	ee dd       	rcall	.-1060   	; 0x758 <usart_init_rs232>
# endif

# if defined(__GNUC__)
#  if (XMEGA || MEGA_RF)
	// For AVR GCC libc print redirection uses fdevopen.
	fdevopen((int (*)(char, FILE*))(_write),(int (*)(FILE*))(_read));
     b7c:	6c e6       	ldi	r22, 0x6C	; 108
     b7e:	71 e0       	ldi	r23, 0x01	; 1
     b80:	85 e8       	ldi	r24, 0x85	; 133
     b82:	91 e0       	ldi	r25, 0x01	; 1
     b84:	0e 94 e4 18 	call	0x31c8	; 0x31c8 <fdevopen>
	
	stdio_serial_init(UART_TERMINAL_SERIAL, &usart_config); // function maps the serial output to printf, not necessary to know how it works
     b88:	27 96       	adiw	r28, 0x07	; 7
     b8a:	cd bf       	out	0x3d, r28	; 61
     b8c:	de bf       	out	0x3e, r29	; 62
     b8e:	df 91       	pop	r29
     b90:	cf 91       	pop	r28
     b92:	08 95       	ret

00000b94 <rb16_write>:
	}
	else
	{
		buffer->tail = (buffer->tail + move_distance) % buffer->array_length; //Modulus is so that we don't point to above the buffer's location
	}
}
     b94:	cf 93       	push	r28
     b96:	df 93       	push	r29
     b98:	fc 01       	movw	r30, r24
     b9a:	41 15       	cp	r20, r1
     b9c:	51 05       	cpc	r21, r1
     b9e:	b1 f1       	breq	.+108    	; 0xc0c <rb16_write+0x78>
     ba0:	80 e0       	ldi	r24, 0x00	; 0
     ba2:	90 e0       	ldi	r25, 0x00	; 0
     ba4:	20 e0       	ldi	r18, 0x00	; 0
     ba6:	88 0f       	add	r24, r24
     ba8:	99 1f       	adc	r25, r25
     baa:	db 01       	movw	r26, r22
     bac:	a8 0f       	add	r26, r24
     bae:	b9 1f       	adc	r27, r25
     bb0:	8d 91       	ld	r24, X+
     bb2:	9c 91       	ld	r25, X
     bb4:	a2 81       	ldd	r26, Z+2	; 0x02
     bb6:	b3 81       	ldd	r27, Z+3	; 0x03
     bb8:	aa 0f       	add	r26, r26
     bba:	bb 1f       	adc	r27, r27
     bbc:	c6 81       	ldd	r28, Z+6	; 0x06
     bbe:	d7 81       	ldd	r29, Z+7	; 0x07
     bc0:	ac 0f       	add	r26, r28
     bc2:	bd 1f       	adc	r27, r29
     bc4:	8d 93       	st	X+, r24
     bc6:	9c 93       	st	X, r25
     bc8:	82 81       	ldd	r24, Z+2	; 0x02
     bca:	93 81       	ldd	r25, Z+3	; 0x03
     bcc:	01 96       	adiw	r24, 0x01	; 1
     bce:	82 83       	std	Z+2, r24	; 0x02
     bd0:	93 83       	std	Z+3, r25	; 0x03
     bd2:	a0 81       	ld	r26, Z
     bd4:	b1 81       	ldd	r27, Z+1	; 0x01
     bd6:	8a 17       	cp	r24, r26
     bd8:	9b 07       	cpc	r25, r27
     bda:	11 f4       	brne	.+4      	; 0xbe0 <rb16_write+0x4c>
     bdc:	12 82       	std	Z+2, r1	; 0x02
     bde:	13 82       	std	Z+3, r1	; 0x03
     be0:	82 81       	ldd	r24, Z+2	; 0x02
     be2:	93 81       	ldd	r25, Z+3	; 0x03
     be4:	c4 81       	ldd	r28, Z+4	; 0x04
     be6:	d5 81       	ldd	r29, Z+5	; 0x05
     be8:	8c 17       	cp	r24, r28
     bea:	9d 07       	cpc	r25, r29
     bec:	49 f4       	brne	.+18     	; 0xc00 <rb16_write+0x6c>
     bee:	01 96       	adiw	r24, 0x01	; 1
     bf0:	a8 17       	cp	r26, r24
     bf2:	b9 07       	cpc	r27, r25
     bf4:	19 f0       	breq	.+6      	; 0xbfc <rb16_write+0x68>
     bf6:	84 83       	std	Z+4, r24	; 0x04
     bf8:	95 83       	std	Z+5, r25	; 0x05
     bfa:	02 c0       	rjmp	.+4      	; 0xc00 <rb16_write+0x6c>
     bfc:	14 82       	std	Z+4, r1	; 0x04
     bfe:	15 82       	std	Z+5, r1	; 0x05
     c00:	2f 5f       	subi	r18, 0xFF	; 255
     c02:	82 2f       	mov	r24, r18
     c04:	90 e0       	ldi	r25, 0x00	; 0
     c06:	84 17       	cp	r24, r20
     c08:	95 07       	cpc	r25, r21
     c0a:	68 f2       	brcs	.-102    	; 0xba6 <rb16_write+0x12>
     c0c:	df 91       	pop	r29
     c0e:	cf 91       	pop	r28
     c10:	08 95       	ret

00000c12 <rb16_init>:
     c12:	fc 01       	movw	r30, r24
     c14:	12 82       	std	Z+2, r1	; 0x02
     c16:	13 82       	std	Z+3, r1	; 0x03
     c18:	14 82       	std	Z+4, r1	; 0x04
     c1a:	15 82       	std	Z+5, r1	; 0x05
     c1c:	66 83       	std	Z+6, r22	; 0x06
     c1e:	77 83       	std	Z+7, r23	; 0x07
     c20:	40 83       	st	Z, r20
     c22:	51 83       	std	Z+1, r21	; 0x01
     c24:	08 95       	ret

00000c26 <rb16_get_nth>:
     c26:	dc 01       	movw	r26, r24
     c28:	12 96       	adiw	r26, 0x02	; 2
     c2a:	ed 91       	ld	r30, X+
     c2c:	fc 91       	ld	r31, X
     c2e:	13 97       	sbiw	r26, 0x03	; 3
     c30:	cb 01       	movw	r24, r22
     c32:	01 96       	adiw	r24, 0x01	; 1
     c34:	e8 17       	cp	r30, r24
     c36:	f9 07       	cpc	r31, r25
     c38:	78 f0       	brcs	.+30     	; 0xc58 <rb16_get_nth+0x32>
     c3a:	e1 50       	subi	r30, 0x01	; 1
     c3c:	f0 48       	sbci	r31, 0x80	; 128
     c3e:	e6 1b       	sub	r30, r22
     c40:	f7 0b       	sbc	r31, r23
     c42:	ee 0f       	add	r30, r30
     c44:	ff 1f       	adc	r31, r31
     c46:	16 96       	adiw	r26, 0x06	; 6
     c48:	8d 91       	ld	r24, X+
     c4a:	9c 91       	ld	r25, X
     c4c:	17 97       	sbiw	r26, 0x07	; 7
     c4e:	e8 0f       	add	r30, r24
     c50:	f9 1f       	adc	r31, r25
     c52:	80 81       	ld	r24, Z
     c54:	91 81       	ldd	r25, Z+1	; 0x01
     c56:	08 95       	ret
     c58:	2d 91       	ld	r18, X+
     c5a:	3c 91       	ld	r19, X
     c5c:	11 97       	sbiw	r26, 0x01	; 1
     c5e:	e2 0f       	add	r30, r18
     c60:	f3 1f       	adc	r31, r19
     c62:	e1 50       	subi	r30, 0x01	; 1
     c64:	f0 48       	sbci	r31, 0x80	; 128
     c66:	e6 1b       	sub	r30, r22
     c68:	f7 0b       	sbc	r31, r23
     c6a:	ee 0f       	add	r30, r30
     c6c:	ff 1f       	adc	r31, r31
     c6e:	16 96       	adiw	r26, 0x06	; 6
     c70:	8d 91       	ld	r24, X+
     c72:	9c 91       	ld	r25, X
     c74:	17 97       	sbiw	r26, 0x07	; 7
     c76:	e8 0f       	add	r30, r24
     c78:	f9 1f       	adc	r31, r25
     c7a:	80 81       	ld	r24, Z
     c7c:	91 81       	ldd	r25, Z+1	; 0x01
     c7e:	08 95       	ret

00000c80 <rb32_write>:
     c80:	cf 92       	push	r12
     c82:	df 92       	push	r13
     c84:	ef 92       	push	r14
     c86:	ff 92       	push	r15
     c88:	cf 93       	push	r28
     c8a:	df 93       	push	r29
     c8c:	fc 01       	movw	r30, r24
     c8e:	41 15       	cp	r20, r1
     c90:	51 05       	cpc	r21, r1
     c92:	09 f4       	brne	.+2      	; 0xc96 <rb32_write+0x16>
     c94:	3f c0       	rjmp	.+126    	; 0xd14 <rb32_write+0x94>
     c96:	80 e0       	ldi	r24, 0x00	; 0
     c98:	90 e0       	ldi	r25, 0x00	; 0
     c9a:	20 e0       	ldi	r18, 0x00	; 0
     c9c:	88 0f       	add	r24, r24
     c9e:	99 1f       	adc	r25, r25
     ca0:	88 0f       	add	r24, r24
     ca2:	99 1f       	adc	r25, r25
     ca4:	db 01       	movw	r26, r22
     ca6:	a8 0f       	add	r26, r24
     ca8:	b9 1f       	adc	r27, r25
     caa:	cd 90       	ld	r12, X+
     cac:	dd 90       	ld	r13, X+
     cae:	ed 90       	ld	r14, X+
     cb0:	fc 90       	ld	r15, X
     cb2:	a2 81       	ldd	r26, Z+2	; 0x02
     cb4:	b3 81       	ldd	r27, Z+3	; 0x03
     cb6:	aa 0f       	add	r26, r26
     cb8:	bb 1f       	adc	r27, r27
     cba:	aa 0f       	add	r26, r26
     cbc:	bb 1f       	adc	r27, r27
     cbe:	86 81       	ldd	r24, Z+6	; 0x06
     cc0:	97 81       	ldd	r25, Z+7	; 0x07
     cc2:	a8 0f       	add	r26, r24
     cc4:	b9 1f       	adc	r27, r25
     cc6:	cd 92       	st	X+, r12
     cc8:	dd 92       	st	X+, r13
     cca:	ed 92       	st	X+, r14
     ccc:	fc 92       	st	X, r15
     cce:	13 97       	sbiw	r26, 0x03	; 3
     cd0:	82 81       	ldd	r24, Z+2	; 0x02
     cd2:	93 81       	ldd	r25, Z+3	; 0x03
     cd4:	01 96       	adiw	r24, 0x01	; 1
     cd6:	82 83       	std	Z+2, r24	; 0x02
     cd8:	93 83       	std	Z+3, r25	; 0x03
     cda:	a0 81       	ld	r26, Z
     cdc:	b1 81       	ldd	r27, Z+1	; 0x01
     cde:	8a 17       	cp	r24, r26
     ce0:	9b 07       	cpc	r25, r27
     ce2:	11 f4       	brne	.+4      	; 0xce8 <rb32_write+0x68>
     ce4:	12 82       	std	Z+2, r1	; 0x02
     ce6:	13 82       	std	Z+3, r1	; 0x03
     ce8:	82 81       	ldd	r24, Z+2	; 0x02
     cea:	93 81       	ldd	r25, Z+3	; 0x03
     cec:	c4 81       	ldd	r28, Z+4	; 0x04
     cee:	d5 81       	ldd	r29, Z+5	; 0x05
     cf0:	8c 17       	cp	r24, r28
     cf2:	9d 07       	cpc	r25, r29
     cf4:	49 f4       	brne	.+18     	; 0xd08 <rb32_write+0x88>
     cf6:	01 96       	adiw	r24, 0x01	; 1
     cf8:	a8 17       	cp	r26, r24
     cfa:	b9 07       	cpc	r27, r25
     cfc:	19 f0       	breq	.+6      	; 0xd04 <rb32_write+0x84>
     cfe:	84 83       	std	Z+4, r24	; 0x04
     d00:	95 83       	std	Z+5, r25	; 0x05
     d02:	02 c0       	rjmp	.+4      	; 0xd08 <rb32_write+0x88>
     d04:	14 82       	std	Z+4, r1	; 0x04
     d06:	15 82       	std	Z+5, r1	; 0x05
     d08:	2f 5f       	subi	r18, 0xFF	; 255
     d0a:	82 2f       	mov	r24, r18
     d0c:	90 e0       	ldi	r25, 0x00	; 0
     d0e:	84 17       	cp	r24, r20
     d10:	95 07       	cpc	r25, r21
     d12:	20 f2       	brcs	.-120    	; 0xc9c <rb32_write+0x1c>
     d14:	df 91       	pop	r29
     d16:	cf 91       	pop	r28
     d18:	ff 90       	pop	r15
     d1a:	ef 90       	pop	r14
     d1c:	df 90       	pop	r13
     d1e:	cf 90       	pop	r12
     d20:	08 95       	ret

00000d22 <rb32_init>:
     d22:	fc 01       	movw	r30, r24
     d24:	12 82       	std	Z+2, r1	; 0x02
     d26:	13 82       	std	Z+3, r1	; 0x03
     d28:	14 82       	std	Z+4, r1	; 0x04
     d2a:	15 82       	std	Z+5, r1	; 0x05
     d2c:	66 83       	std	Z+6, r22	; 0x06
     d2e:	77 83       	std	Z+7, r23	; 0x07
     d30:	40 83       	st	Z, r20
     d32:	51 83       	std	Z+1, r21	; 0x01
     d34:	08 95       	ret

00000d36 <rb32_get_nth>:
	}
}

int32_t rb32_get_nth(RingBuffer32_t* buffer, uint16_t index)
//Returns the nth newest value in the RingBuffer
{
     d36:	dc 01       	movw	r26, r24
	//Does not do bounds checking, so be careful in usage
	//	Verify index < rb16_length() to guard against requesting a value beyond what the buffer currently stores
	//	Verify index < buffer->array_length to guard against requesting a value from some random memory location
	
	//Most recent value is in head - 1
	if (index + 1 <= buffer->head) //Value is between zero and buffer->head
     d38:	12 96       	adiw	r26, 0x02	; 2
     d3a:	ed 91       	ld	r30, X+
     d3c:	fc 91       	ld	r31, X
     d3e:	13 97       	sbiw	r26, 0x03	; 3
     d40:	cb 01       	movw	r24, r22
     d42:	01 96       	adiw	r24, 0x01	; 1
     d44:	e8 17       	cp	r30, r24
     d46:	f9 07       	cpc	r31, r25
     d48:	98 f0       	brcs	.+38     	; 0xd70 <rb32_get_nth+0x3a>
		return buffer->buffer[buffer->head - index - 1];
     d4a:	e1 50       	subi	r30, 0x01	; 1
     d4c:	f0 4c       	sbci	r31, 0xC0	; 192
     d4e:	e6 1b       	sub	r30, r22
     d50:	f7 0b       	sbc	r31, r23
     d52:	ee 0f       	add	r30, r30
     d54:	ff 1f       	adc	r31, r31
     d56:	ee 0f       	add	r30, r30
     d58:	ff 1f       	adc	r31, r31
     d5a:	16 96       	adiw	r26, 0x06	; 6
     d5c:	8d 91       	ld	r24, X+
     d5e:	9c 91       	ld	r25, X
     d60:	17 97       	sbiw	r26, 0x07	; 7
     d62:	e8 0f       	add	r30, r24
     d64:	f9 1f       	adc	r31, r25
     d66:	60 81       	ld	r22, Z
     d68:	71 81       	ldd	r23, Z+1	; 0x01
     d6a:	82 81       	ldd	r24, Z+2	; 0x02
     d6c:	93 81       	ldd	r25, Z+3	; 0x03
     d6e:	08 95       	ret
	else
		return buffer->buffer[buffer->array_length - 1 - index + buffer->head];
     d70:	2d 91       	ld	r18, X+
     d72:	3c 91       	ld	r19, X
     d74:	11 97       	sbiw	r26, 0x01	; 1
     d76:	e2 0f       	add	r30, r18
     d78:	f3 1f       	adc	r31, r19
     d7a:	e1 50       	subi	r30, 0x01	; 1
     d7c:	f0 4c       	sbci	r31, 0xC0	; 192
     d7e:	e6 1b       	sub	r30, r22
     d80:	f7 0b       	sbc	r31, r23
     d82:	ee 0f       	add	r30, r30
     d84:	ff 1f       	adc	r31, r31
     d86:	ee 0f       	add	r30, r30
     d88:	ff 1f       	adc	r31, r31
     d8a:	16 96       	adiw	r26, 0x06	; 6
     d8c:	8d 91       	ld	r24, X+
     d8e:	9c 91       	ld	r25, X
     d90:	17 97       	sbiw	r26, 0x07	; 7
     d92:	e8 0f       	add	r30, r24
     d94:	f9 1f       	adc	r31, r25
     d96:	60 81       	ld	r22, Z
     d98:	71 81       	ldd	r23, Z+1	; 0x01
     d9a:	82 81       	ldd	r24, Z+2	; 0x02
     d9c:	93 81       	ldd	r25, Z+3	; 0x03
}
     d9e:	08 95       	ret

00000da0 <sysclk_init>:
#  include <nvm.h>
#endif


void sysclk_init(void)
{
     da0:	cf 93       	push	r28
     da2:	df 93       	push	r29
     da4:	1f 92       	push	r1
     da6:	1f 92       	push	r1
     da8:	cd b7       	in	r28, 0x3d	; 61
     daa:	de b7       	in	r29, 0x3e	; 62
#endif
	bool need_rc2mhz = false;

	/* Turn off all peripheral clocks that can be turned off. */
	for (i = 0; i <= SYSCLK_PORT_F; i++) {
		*(reg++) = 0xff;
     dac:	8f ef       	ldi	r24, 0xFF	; 255
     dae:	80 93 70 00 	sts	0x0070, r24	; 0x800070 <__TEXT_REGION_LENGTH__+0x700070>
     db2:	80 93 71 00 	sts	0x0071, r24	; 0x800071 <__TEXT_REGION_LENGTH__+0x700071>
     db6:	80 93 72 00 	sts	0x0072, r24	; 0x800072 <__TEXT_REGION_LENGTH__+0x700072>
     dba:	80 93 73 00 	sts	0x0073, r24	; 0x800073 <__TEXT_REGION_LENGTH__+0x700073>
     dbe:	80 93 74 00 	sts	0x0074, r24	; 0x800074 <__TEXT_REGION_LENGTH__+0x700074>
     dc2:	80 93 75 00 	sts	0x0075, r24	; 0x800075 <__TEXT_REGION_LENGTH__+0x700075>
     dc6:	80 93 76 00 	sts	0x0076, r24	; 0x800076 <__TEXT_REGION_LENGTH__+0x700076>

typedef uint8_t irqflags_t;

static inline irqflags_t cpu_irq_save(void)
{
	volatile irqflags_t flags = SREG;
     dca:	8f b7       	in	r24, 0x3f	; 63
     dcc:	8a 83       	std	Y+2, r24	; 0x02
	cpu_irq_disable();
     dce:	f8 94       	cli
	return flags;
     dd0:	9a 81       	ldd	r25, Y+2	; 0x02
	irqflags_t flags;

	Assert(id != OSC_ID_USBSOF);

	flags = cpu_irq_save();
	OSC.CTRL |= id;
     dd2:	e0 e5       	ldi	r30, 0x50	; 80
     dd4:	f0 e0       	ldi	r31, 0x00	; 0
     dd6:	80 81       	ld	r24, Z
     dd8:	82 60       	ori	r24, 0x02	; 2
     dda:	80 83       	st	Z, r24
}

static inline void cpu_irq_restore(irqflags_t flags)
{
	barrier();
	SREG = flags;
     ddc:	9f bf       	out	0x3f, r25	; 63

static inline bool osc_is_ready(uint8_t id)
{
	Assert(id != OSC_ID_USBSOF);

	return OSC.STATUS & id;
     dde:	81 81       	ldd	r24, Z+1	; 0x01
 *
 * \param id A number identifying the oscillator to wait for.
 */
static inline void osc_wait_ready(uint8_t id)
{
	while (!osc_is_ready(id)) {
     de0:	81 ff       	sbrs	r24, 1
     de2:	fd cf       	rjmp	.-6      	; 0xdde <sysclk_init+0x3e>
		default:
			//unhandled_case(CONFIG_SYSCLK_SOURCE);
			return;
		}

		ccp_write_io((uint8_t *)&CLK.CTRL, CONFIG_SYSCLK_SOURCE);
     de4:	61 e0       	ldi	r22, 0x01	; 1
     de6:	80 e4       	ldi	r24, 0x40	; 64
     de8:	90 e0       	ldi	r25, 0x00	; 0
     dea:	25 d0       	rcall	.+74     	; 0xe36 <ccp_write_io>

typedef uint8_t irqflags_t;

static inline irqflags_t cpu_irq_save(void)
{
	volatile irqflags_t flags = SREG;
     dec:	8f b7       	in	r24, 0x3f	; 63
     dee:	89 83       	std	Y+1, r24	; 0x01
	cpu_irq_disable();
     df0:	f8 94       	cli
	return flags;
     df2:	99 81       	ldd	r25, Y+1	; 0x01
	irqflags_t flags;

	Assert(id != OSC_ID_USBSOF);

	flags = cpu_irq_save();
	OSC.CTRL &= ~id;
     df4:	e0 e5       	ldi	r30, 0x50	; 80
     df6:	f0 e0       	ldi	r31, 0x00	; 0
     df8:	80 81       	ld	r24, Z
     dfa:	8e 7f       	andi	r24, 0xFE	; 254
     dfc:	80 83       	st	Z, r24
}

static inline void cpu_irq_restore(irqflags_t flags)
{
	barrier();
	SREG = flags;
     dfe:	9f bf       	out	0x3f, r25	; 63
	}

#ifdef CONFIG_RTC_SOURCE
	sysclk_rtcsrc_enable(CONFIG_RTC_SOURCE);
#endif
}
     e00:	0f 90       	pop	r0
     e02:	0f 90       	pop	r0
     e04:	df 91       	pop	r29
     e06:	cf 91       	pop	r28
     e08:	08 95       	ret

00000e0a <sysclk_enable_module>:

void sysclk_enable_module(enum sysclk_port_id port, uint8_t id)
{
     e0a:	cf 93       	push	r28
     e0c:	df 93       	push	r29
     e0e:	1f 92       	push	r1
     e10:	cd b7       	in	r28, 0x3d	; 61
     e12:	de b7       	in	r29, 0x3e	; 62

typedef uint8_t irqflags_t;

static inline irqflags_t cpu_irq_save(void)
{
	volatile irqflags_t flags = SREG;
     e14:	9f b7       	in	r25, 0x3f	; 63
     e16:	99 83       	std	Y+1, r25	; 0x01
	cpu_irq_disable();
     e18:	f8 94       	cli
	return flags;
     e1a:	99 81       	ldd	r25, Y+1	; 0x01
	irqflags_t flags = cpu_irq_save();

	*((uint8_t *)&PR.PRGEN + port) &= ~id;
     e1c:	e8 2f       	mov	r30, r24
     e1e:	f0 e0       	ldi	r31, 0x00	; 0
     e20:	e0 59       	subi	r30, 0x90	; 144
     e22:	ff 4f       	sbci	r31, 0xFF	; 255
     e24:	60 95       	com	r22
     e26:	80 81       	ld	r24, Z
     e28:	68 23       	and	r22, r24
     e2a:	60 83       	st	Z, r22
}

static inline void cpu_irq_restore(irqflags_t flags)
{
	barrier();
	SREG = flags;
     e2c:	9f bf       	out	0x3f, r25	; 63

	cpu_irq_restore(flags);
}
     e2e:	0f 90       	pop	r0
     e30:	df 91       	pop	r29
     e32:	cf 91       	pop	r28
     e34:	08 95       	ret

00000e36 <ccp_write_io>:

	PUBLIC_FUNCTION(ccp_write_io)

#if defined(__GNUC__)

	out     RAMPZ, r1               // Reset bits 23:16 of Z
     e36:	1b be       	out	0x3b, r1	; 59
	movw    r30, r24                // Load addr into Z
     e38:	fc 01       	movw	r30, r24
	ldi     r18, CCP_IOREG          // Load magic CCP value
     e3a:	28 ed       	ldi	r18, 0xD8	; 216
	out     CCP, r18                // Start CCP handshake
     e3c:	24 bf       	out	0x34, r18	; 52
	st      Z, r22                  // Write value to I/O register
     e3e:	60 83       	st	Z, r22
	ret                             // Return to caller
     e40:	08 95       	ret

00000e42 <__portable_avr_delay_cycles>:
	
	NVM.CMD = ERASE_EEPROM;
	CCP = CCP_IOREG_MODE;
	NVM.CTRLA = CTRLA_CMDEX_BYTE;
	while(NVM.STATUS>>7);
}
     e42:	04 c0       	rjmp	.+8      	; 0xe4c <__portable_avr_delay_cycles+0xa>
     e44:	61 50       	subi	r22, 0x01	; 1
     e46:	71 09       	sbc	r23, r1
     e48:	81 09       	sbc	r24, r1
     e4a:	91 09       	sbc	r25, r1
     e4c:	61 15       	cp	r22, r1
     e4e:	71 05       	cpc	r23, r1
     e50:	81 05       	cpc	r24, r1
     e52:	91 05       	cpc	r25, r1
     e54:	b9 f7       	brne	.-18     	; 0xe44 <__portable_avr_delay_cycles+0x2>
     e56:	08 95       	ret

00000e58 <pressure_init>:
     e58:	cf 93       	push	r28
     e5a:	df 93       	push	r29
     e5c:	b4 dd       	rcall	.-1176   	; 0x9c6 <ms5607_init>
     e5e:	82 ea       	ldi	r24, 0xA2	; 162
     e60:	90 e0       	ldi	r25, 0x00	; 0
     e62:	ca dd       	rcall	.-1132   	; 0x9f8 <ms5607_read>
     e64:	cd ed       	ldi	r28, 0xDD	; 221
     e66:	d0 e2       	ldi	r29, 0x20	; 32
     e68:	88 83       	st	Y, r24
     e6a:	99 83       	std	Y+1, r25	; 0x01
     e6c:	84 ea       	ldi	r24, 0xA4	; 164
     e6e:	90 e0       	ldi	r25, 0x00	; 0
     e70:	c3 dd       	rcall	.-1146   	; 0x9f8 <ms5607_read>
     e72:	8a 83       	std	Y+2, r24	; 0x02
     e74:	9b 83       	std	Y+3, r25	; 0x03
     e76:	86 ea       	ldi	r24, 0xA6	; 166
     e78:	90 e0       	ldi	r25, 0x00	; 0
     e7a:	be dd       	rcall	.-1156   	; 0x9f8 <ms5607_read>
     e7c:	8c 83       	std	Y+4, r24	; 0x04
     e7e:	9d 83       	std	Y+5, r25	; 0x05
     e80:	88 ea       	ldi	r24, 0xA8	; 168
     e82:	90 e0       	ldi	r25, 0x00	; 0
     e84:	b9 dd       	rcall	.-1166   	; 0x9f8 <ms5607_read>
     e86:	8e 83       	std	Y+6, r24	; 0x06
     e88:	9f 83       	std	Y+7, r25	; 0x07
     e8a:	8a ea       	ldi	r24, 0xAA	; 170
     e8c:	90 e0       	ldi	r25, 0x00	; 0
     e8e:	b4 dd       	rcall	.-1176   	; 0x9f8 <ms5607_read>
     e90:	88 87       	std	Y+8, r24	; 0x08
     e92:	99 87       	std	Y+9, r25	; 0x09
     e94:	8c ea       	ldi	r24, 0xAC	; 172
     e96:	90 e0       	ldi	r25, 0x00	; 0
     e98:	af dd       	rcall	.-1186   	; 0x9f8 <ms5607_read>
     e9a:	8a 87       	std	Y+10, r24	; 0x0a
     e9c:	9b 87       	std	Y+11, r25	; 0x0b
     e9e:	df 91       	pop	r29
     ea0:	cf 91       	pop	r28
     ea2:	08 95       	ret

00000ea4 <gps_init>:
     ea4:	50 dd       	rcall	.-1376   	; 0x946 <gps_uart_init>
     ea6:	6b ea       	ldi	r22, 0xAB	; 171
     ea8:	79 e2       	ldi	r23, 0x29	; 41
     eaa:	80 e0       	ldi	r24, 0x00	; 0
     eac:	90 e0       	ldi	r25, 0x00	; 0
     eae:	c9 df       	rcall	.-110    	; 0xe42 <__portable_avr_delay_cycles>
     eb0:	80 e3       	ldi	r24, 0x30	; 48
     eb2:	80 93 b3 09 	sts	0x09B3, r24	; 0x8009b3 <__TEXT_REGION_LENGTH__+0x7009b3>
     eb6:	08 95       	ret

00000eb8 <get_pressure>:
     eb8:	4f 92       	push	r4
     eba:	5f 92       	push	r5
     ebc:	6f 92       	push	r6
     ebe:	7f 92       	push	r7
     ec0:	8f 92       	push	r8
     ec2:	9f 92       	push	r9
     ec4:	af 92       	push	r10
     ec6:	bf 92       	push	r11
     ec8:	cf 92       	push	r12
     eca:	df 92       	push	r13
     ecc:	ef 92       	push	r14
     ece:	ff 92       	push	r15
     ed0:	cf 93       	push	r28
     ed2:	df 93       	push	r29
     ed4:	a3 dd       	rcall	.-1210   	; 0xa1c <ms5607_convert_d1>
     ed6:	6b 01       	movw	r12, r22
     ed8:	7c 01       	movw	r14, r24
     eda:	c4 dd       	rcall	.-1144   	; 0xa64 <ms5607_convert_d2>
     edc:	0e 94 d3 15 	call	0x2ba6	; 0x2ba6 <__floatunsisf>
     ee0:	4b 01       	movw	r8, r22
     ee2:	5c 01       	movw	r10, r24
     ee4:	cd ed       	ldi	r28, 0xDD	; 221
     ee6:	d0 e2       	ldi	r29, 0x20	; 32
     ee8:	68 85       	ldd	r22, Y+8	; 0x08
     eea:	79 85       	ldd	r23, Y+9	; 0x09
     eec:	80 e0       	ldi	r24, 0x00	; 0
     eee:	90 e0       	ldi	r25, 0x00	; 0
     ef0:	0e 94 d3 15 	call	0x2ba6	; 0x2ba6 <__floatunsisf>
     ef4:	20 e0       	ldi	r18, 0x00	; 0
     ef6:	30 e0       	ldi	r19, 0x00	; 0
     ef8:	40 e8       	ldi	r20, 0x80	; 128
     efa:	53 e4       	ldi	r21, 0x43	; 67
     efc:	0e 94 b5 16 	call	0x2d6a	; 0x2d6a <__mulsf3>
     f00:	9b 01       	movw	r18, r22
     f02:	ac 01       	movw	r20, r24
     f04:	c5 01       	movw	r24, r10
     f06:	b4 01       	movw	r22, r8
     f08:	0e 94 d1 14 	call	0x29a2	; 0x29a2 <__subsf3>
     f0c:	4b 01       	movw	r8, r22
     f0e:	5c 01       	movw	r10, r24
     f10:	6c 81       	ldd	r22, Y+4	; 0x04
     f12:	7d 81       	ldd	r23, Y+5	; 0x05
     f14:	80 e0       	ldi	r24, 0x00	; 0
     f16:	90 e0       	ldi	r25, 0x00	; 0
     f18:	0e 94 d3 15 	call	0x2ba6	; 0x2ba6 <__floatunsisf>
     f1c:	a5 01       	movw	r20, r10
     f1e:	94 01       	movw	r18, r8
     f20:	0e 94 b5 16 	call	0x2d6a	; 0x2d6a <__mulsf3>
     f24:	20 e0       	ldi	r18, 0x00	; 0
     f26:	30 e0       	ldi	r19, 0x00	; 0
     f28:	40 e0       	ldi	r20, 0x00	; 0
     f2a:	5c e3       	ldi	r21, 0x3C	; 60
     f2c:	0e 94 b5 16 	call	0x2d6a	; 0x2d6a <__mulsf3>
     f30:	2b 01       	movw	r4, r22
     f32:	3c 01       	movw	r6, r24
     f34:	68 81       	ld	r22, Y
     f36:	79 81       	ldd	r23, Y+1	; 0x01
     f38:	80 e0       	ldi	r24, 0x00	; 0
     f3a:	90 e0       	ldi	r25, 0x00	; 0
     f3c:	0e 94 d3 15 	call	0x2ba6	; 0x2ba6 <__floatunsisf>
     f40:	20 e0       	ldi	r18, 0x00	; 0
     f42:	30 e0       	ldi	r19, 0x00	; 0
     f44:	40 e8       	ldi	r20, 0x80	; 128
     f46:	57 e4       	ldi	r21, 0x47	; 71
     f48:	0e 94 b5 16 	call	0x2d6a	; 0x2d6a <__mulsf3>
     f4c:	9b 01       	movw	r18, r22
     f4e:	ac 01       	movw	r20, r24
     f50:	c3 01       	movw	r24, r6
     f52:	b2 01       	movw	r22, r4
     f54:	0e 94 d2 14 	call	0x29a4	; 0x29a4 <__addsf3>
     f58:	2b 01       	movw	r4, r22
     f5a:	3c 01       	movw	r6, r24
     f5c:	c7 01       	movw	r24, r14
     f5e:	b6 01       	movw	r22, r12
     f60:	0e 94 d3 15 	call	0x2ba6	; 0x2ba6 <__floatunsisf>
     f64:	9b 01       	movw	r18, r22
     f66:	ac 01       	movw	r20, r24
     f68:	c3 01       	movw	r24, r6
     f6a:	b2 01       	movw	r22, r4
     f6c:	0e 94 b5 16 	call	0x2d6a	; 0x2d6a <__mulsf3>
     f70:	20 e0       	ldi	r18, 0x00	; 0
     f72:	30 e0       	ldi	r19, 0x00	; 0
     f74:	40 e0       	ldi	r20, 0x00	; 0
     f76:	55 e3       	ldi	r21, 0x35	; 53
     f78:	0e 94 b5 16 	call	0x2d6a	; 0x2d6a <__mulsf3>
     f7c:	6b 01       	movw	r12, r22
     f7e:	7c 01       	movw	r14, r24
     f80:	6e 81       	ldd	r22, Y+6	; 0x06
     f82:	7f 81       	ldd	r23, Y+7	; 0x07
     f84:	80 e0       	ldi	r24, 0x00	; 0
     f86:	90 e0       	ldi	r25, 0x00	; 0
     f88:	0e 94 d3 15 	call	0x2ba6	; 0x2ba6 <__floatunsisf>
     f8c:	a5 01       	movw	r20, r10
     f8e:	94 01       	movw	r18, r8
     f90:	0e 94 b5 16 	call	0x2d6a	; 0x2d6a <__mulsf3>
     f94:	20 e0       	ldi	r18, 0x00	; 0
     f96:	30 e0       	ldi	r19, 0x00	; 0
     f98:	40 e8       	ldi	r20, 0x80	; 128
     f9a:	5c e3       	ldi	r21, 0x3C	; 60
     f9c:	0e 94 b5 16 	call	0x2d6a	; 0x2d6a <__mulsf3>
     fa0:	4b 01       	movw	r8, r22
     fa2:	5c 01       	movw	r10, r24
     fa4:	6a 81       	ldd	r22, Y+2	; 0x02
     fa6:	7b 81       	ldd	r23, Y+3	; 0x03
     fa8:	80 e0       	ldi	r24, 0x00	; 0
     faa:	90 e0       	ldi	r25, 0x00	; 0
     fac:	0e 94 d3 15 	call	0x2ba6	; 0x2ba6 <__floatunsisf>
     fb0:	20 e0       	ldi	r18, 0x00	; 0
     fb2:	30 e0       	ldi	r19, 0x00	; 0
     fb4:	40 e0       	ldi	r20, 0x00	; 0
     fb6:	58 e4       	ldi	r21, 0x48	; 72
     fb8:	0e 94 b5 16 	call	0x2d6a	; 0x2d6a <__mulsf3>
     fbc:	9b 01       	movw	r18, r22
     fbe:	ac 01       	movw	r20, r24
     fc0:	c5 01       	movw	r24, r10
     fc2:	b4 01       	movw	r22, r8
     fc4:	0e 94 d2 14 	call	0x29a4	; 0x29a4 <__addsf3>
     fc8:	9b 01       	movw	r18, r22
     fca:	ac 01       	movw	r20, r24
     fcc:	c7 01       	movw	r24, r14
     fce:	b6 01       	movw	r22, r12
     fd0:	0e 94 d1 14 	call	0x29a2	; 0x29a2 <__subsf3>
     fd4:	20 e0       	ldi	r18, 0x00	; 0
     fd6:	30 e0       	ldi	r19, 0x00	; 0
     fd8:	40 e0       	ldi	r20, 0x00	; 0
     fda:	58 e3       	ldi	r21, 0x38	; 56
     fdc:	0e 94 b5 16 	call	0x2d6a	; 0x2d6a <__mulsf3>
     fe0:	df 91       	pop	r29
     fe2:	cf 91       	pop	r28
     fe4:	ff 90       	pop	r15
     fe6:	ef 90       	pop	r14
     fe8:	df 90       	pop	r13
     fea:	cf 90       	pop	r12
     fec:	bf 90       	pop	r11
     fee:	af 90       	pop	r10
     ff0:	9f 90       	pop	r9
     ff2:	8f 90       	pop	r8
     ff4:	7f 90       	pop	r7
     ff6:	6f 90       	pop	r6
     ff8:	5f 90       	pop	r5
     ffa:	4f 90       	pop	r4
     ffc:	08 95       	ret

00000ffe <get_altitude>:
     ffe:	4f 92       	push	r4
    1000:	5f 92       	push	r5
    1002:	6f 92       	push	r6
    1004:	7f 92       	push	r7
    1006:	8f 92       	push	r8
    1008:	9f 92       	push	r9
    100a:	af 92       	push	r10
    100c:	bf 92       	push	r11
    100e:	cf 92       	push	r12
    1010:	df 92       	push	r13
    1012:	ef 92       	push	r14
    1014:	ff 92       	push	r15
    1016:	2b 01       	movw	r4, r22
    1018:	3c 01       	movw	r6, r24
    101a:	c0 90 21 20 	lds	r12, 0x2021	; 0x802021 <L>
    101e:	d0 90 22 20 	lds	r13, 0x2022	; 0x802022 <L+0x1>
    1022:	e0 90 23 20 	lds	r14, 0x2023	; 0x802023 <L+0x2>
    1026:	f0 90 24 20 	lds	r15, 0x2024	; 0x802024 <L+0x3>
    102a:	20 91 25 20 	lds	r18, 0x2025	; 0x802025 <R>
    102e:	30 91 26 20 	lds	r19, 0x2026	; 0x802026 <R+0x1>
    1032:	40 91 27 20 	lds	r20, 0x2027	; 0x802027 <R+0x2>
    1036:	50 91 28 20 	lds	r21, 0x2028	; 0x802028 <R+0x3>
    103a:	c7 01       	movw	r24, r14
    103c:	b6 01       	movw	r22, r12
    103e:	0e 94 b5 16 	call	0x2d6a	; 0x2d6a <__mulsf3>
    1042:	20 91 1d 20 	lds	r18, 0x201D	; 0x80201d <g_0>
    1046:	30 91 1e 20 	lds	r19, 0x201E	; 0x80201e <g_0+0x1>
    104a:	40 91 1f 20 	lds	r20, 0x201F	; 0x80201f <g_0+0x2>
    104e:	50 91 20 20 	lds	r21, 0x2020	; 0x802020 <g_0+0x3>
    1052:	0e 94 3a 15 	call	0x2a74	; 0x2a74 <__divsf3>
    1056:	4b 01       	movw	r8, r22
    1058:	5c 01       	movw	r10, r24
    105a:	a3 01       	movw	r20, r6
    105c:	92 01       	movw	r18, r4
    105e:	60 91 2d 20 	lds	r22, 0x202D	; 0x80202d <ground_p>
    1062:	70 91 2e 20 	lds	r23, 0x202E	; 0x80202e <ground_p+0x1>
    1066:	80 91 2f 20 	lds	r24, 0x202F	; 0x80202f <ground_p+0x2>
    106a:	90 91 30 20 	lds	r25, 0x2030	; 0x802030 <ground_p+0x3>
    106e:	0e 94 3a 15 	call	0x2a74	; 0x2a74 <__divsf3>
    1072:	a5 01       	movw	r20, r10
    1074:	94 01       	movw	r18, r8
    1076:	0e 94 18 17 	call	0x2e30	; 0x2e30 <pow>
    107a:	20 e0       	ldi	r18, 0x00	; 0
    107c:	30 e0       	ldi	r19, 0x00	; 0
    107e:	40 e8       	ldi	r20, 0x80	; 128
    1080:	5f e3       	ldi	r21, 0x3F	; 63
    1082:	0e 94 d1 14 	call	0x29a2	; 0x29a2 <__subsf3>
    1086:	20 91 29 20 	lds	r18, 0x2029	; 0x802029 <ground_t>
    108a:	30 91 2a 20 	lds	r19, 0x202A	; 0x80202a <ground_t+0x1>
    108e:	40 91 2b 20 	lds	r20, 0x202B	; 0x80202b <ground_t+0x2>
    1092:	50 91 2c 20 	lds	r21, 0x202C	; 0x80202c <ground_t+0x3>
    1096:	0e 94 b5 16 	call	0x2d6a	; 0x2d6a <__mulsf3>
    109a:	a7 01       	movw	r20, r14
    109c:	96 01       	movw	r18, r12
    109e:	0e 94 3a 15 	call	0x2a74	; 0x2a74 <__divsf3>
    10a2:	20 91 e9 20 	lds	r18, 0x20E9	; 0x8020e9 <ground_a>
    10a6:	30 91 ea 20 	lds	r19, 0x20EA	; 0x8020ea <ground_a+0x1>
    10aa:	40 91 eb 20 	lds	r20, 0x20EB	; 0x8020eb <ground_a+0x2>
    10ae:	50 91 ec 20 	lds	r21, 0x20EC	; 0x8020ec <ground_a+0x3>
    10b2:	0e 94 d1 14 	call	0x29a2	; 0x29a2 <__subsf3>
    10b6:	ff 90       	pop	r15
    10b8:	ef 90       	pop	r14
    10ba:	df 90       	pop	r13
    10bc:	cf 90       	pop	r12
    10be:	bf 90       	pop	r11
    10c0:	af 90       	pop	r10
    10c2:	9f 90       	pop	r9
    10c4:	8f 90       	pop	r8
    10c6:	7f 90       	pop	r7
    10c8:	6f 90       	pop	r6
    10ca:	5f 90       	pop	r5
    10cc:	4f 90       	pop	r4
    10ce:	08 95       	ret

000010d0 <diff>:
    10d0:	2f 92       	push	r2
    10d2:	3f 92       	push	r3
    10d4:	4f 92       	push	r4
    10d6:	5f 92       	push	r5
    10d8:	6f 92       	push	r6
    10da:	7f 92       	push	r7
    10dc:	8f 92       	push	r8
    10de:	9f 92       	push	r9
    10e0:	af 92       	push	r10
    10e2:	bf 92       	push	r11
    10e4:	cf 92       	push	r12
    10e6:	df 92       	push	r13
    10e8:	ef 92       	push	r14
    10ea:	ff 92       	push	r15
    10ec:	0f 93       	push	r16
    10ee:	1f 93       	push	r17
    10f0:	cf 93       	push	r28
    10f2:	df 93       	push	r29
    10f4:	00 d0       	rcall	.+0      	; 0x10f6 <diff+0x26>
    10f6:	00 d0       	rcall	.+0      	; 0x10f8 <diff+0x28>
    10f8:	cd b7       	in	r28, 0x3d	; 61
    10fa:	de b7       	in	r29, 0x3e	; 62
    10fc:	6c 01       	movw	r12, r24
    10fe:	80 91 16 20 	lds	r24, 0x2016	; 0x802016 <data_samples>
    1102:	88 23       	and	r24, r24
    1104:	09 f4       	brne	.+2      	; 0x1108 <diff+0x38>
    1106:	6c c0       	rjmp	.+216    	; 0x11e0 <diff+0x110>
    1108:	00 e0       	ldi	r16, 0x00	; 0
    110a:	10 e0       	ldi	r17, 0x00	; 0
    110c:	41 2c       	mov	r4, r1
    110e:	51 2c       	mov	r5, r1
    1110:	32 01       	movw	r6, r4
    1112:	86 2e       	mov	r8, r22
    1114:	91 2c       	mov	r9, r1
    1116:	a1 2c       	mov	r10, r1
    1118:	b1 2c       	mov	r11, r1
    111a:	89 82       	std	Y+1, r8	; 0x01
    111c:	9a 82       	std	Y+2, r9	; 0x02
    111e:	ab 82       	std	Y+3, r10	; 0x03
    1120:	bc 82       	std	Y+4, r11	; 0x04
    1122:	b8 01       	movw	r22, r16
    1124:	c6 01       	movw	r24, r12
    1126:	7f dd       	rcall	.-1282   	; 0xc26 <rb16_get_nth>
    1128:	5c 01       	movw	r10, r24
    112a:	18 01       	movw	r2, r16
    112c:	2f ef       	ldi	r18, 0xFF	; 255
    112e:	22 1a       	sub	r2, r18
    1130:	32 0a       	sbc	r3, r18
    1132:	b1 01       	movw	r22, r2
    1134:	c6 01       	movw	r24, r12
    1136:	77 dd       	rcall	.-1298   	; 0xc26 <rb16_get_nth>
    1138:	7c 01       	movw	r14, r24
    113a:	b8 01       	movw	r22, r16
    113c:	6e 5f       	subi	r22, 0xFE	; 254
    113e:	7f 4f       	sbci	r23, 0xFF	; 255
    1140:	c6 01       	movw	r24, r12
    1142:	71 dd       	rcall	.-1310   	; 0xc26 <rb16_get_nth>
    1144:	a5 01       	movw	r20, r10
    1146:	bb 0c       	add	r11, r11
    1148:	66 0b       	sbc	r22, r22
    114a:	77 0b       	sbc	r23, r23
    114c:	8a 01       	movw	r16, r20
    114e:	9b 01       	movw	r18, r22
    1150:	00 0f       	add	r16, r16
    1152:	11 1f       	adc	r17, r17
    1154:	22 1f       	adc	r18, r18
    1156:	33 1f       	adc	r19, r19
    1158:	40 0f       	add	r20, r16
    115a:	51 1f       	adc	r21, r17
    115c:	62 1f       	adc	r22, r18
    115e:	73 1f       	adc	r23, r19
    1160:	87 01       	movw	r16, r14
    1162:	ff 0c       	add	r15, r15
    1164:	22 0b       	sbc	r18, r18
    1166:	33 0b       	sbc	r19, r19
    1168:	78 01       	movw	r14, r16
    116a:	89 01       	movw	r16, r18
    116c:	ee 0c       	add	r14, r14
    116e:	ff 1c       	adc	r15, r15
    1170:	00 1f       	adc	r16, r16
    1172:	11 1f       	adc	r17, r17
    1174:	ee 0c       	add	r14, r14
    1176:	ff 1c       	adc	r15, r15
    1178:	00 1f       	adc	r16, r16
    117a:	11 1f       	adc	r17, r17
    117c:	4a 01       	movw	r8, r20
    117e:	5b 01       	movw	r10, r22
    1180:	8e 18       	sub	r8, r14
    1182:	9f 08       	sbc	r9, r15
    1184:	a0 0a       	sbc	r10, r16
    1186:	b1 0a       	sbc	r11, r17
    1188:	ac 01       	movw	r20, r24
    118a:	99 0f       	add	r25, r25
    118c:	66 0b       	sbc	r22, r22
    118e:	77 0b       	sbc	r23, r23
    1190:	d5 01       	movw	r26, r10
    1192:	c4 01       	movw	r24, r8
    1194:	84 0f       	add	r24, r20
    1196:	95 1f       	adc	r25, r21
    1198:	a6 1f       	adc	r26, r22
    119a:	b7 1f       	adc	r27, r23
    119c:	9c 01       	movw	r18, r24
    119e:	ad 01       	movw	r20, r26
    11a0:	69 81       	ldd	r22, Y+1	; 0x01
    11a2:	7a 81       	ldd	r23, Y+2	; 0x02
    11a4:	8b 81       	ldd	r24, Y+3	; 0x03
    11a6:	9c 81       	ldd	r25, Y+4	; 0x04
    11a8:	0e 94 51 18 	call	0x30a2	; 0x30a2 <__mulsi3>
    11ac:	0e 94 d5 15 	call	0x2baa	; 0x2baa <__floatsisf>
    11b0:	20 e0       	ldi	r18, 0x00	; 0
    11b2:	30 e0       	ldi	r19, 0x00	; 0
    11b4:	40 e0       	ldi	r20, 0x00	; 0
    11b6:	5f e3       	ldi	r21, 0x3F	; 63
    11b8:	0e 94 b5 16 	call	0x2d6a	; 0x2d6a <__mulsf3>
    11bc:	9b 01       	movw	r18, r22
    11be:	ac 01       	movw	r20, r24
    11c0:	c3 01       	movw	r24, r6
    11c2:	b2 01       	movw	r22, r4
    11c4:	0e 94 d2 14 	call	0x29a4	; 0x29a4 <__addsf3>
    11c8:	2b 01       	movw	r4, r22
    11ca:	3c 01       	movw	r6, r24
    11cc:	80 91 16 20 	lds	r24, 0x2016	; 0x802016 <data_samples>
    11d0:	81 01       	movw	r16, r2
    11d2:	28 2f       	mov	r18, r24
    11d4:	30 e0       	ldi	r19, 0x00	; 0
    11d6:	22 16       	cp	r2, r18
    11d8:	33 06       	cpc	r3, r19
    11da:	08 f4       	brcc	.+2      	; 0x11de <diff+0x10e>
    11dc:	a2 cf       	rjmp	.-188    	; 0x1122 <diff+0x52>
    11de:	03 c0       	rjmp	.+6      	; 0x11e6 <diff+0x116>
    11e0:	41 2c       	mov	r4, r1
    11e2:	51 2c       	mov	r5, r1
    11e4:	32 01       	movw	r6, r4
    11e6:	68 2f       	mov	r22, r24
    11e8:	70 e0       	ldi	r23, 0x00	; 0
    11ea:	80 e0       	ldi	r24, 0x00	; 0
    11ec:	90 e0       	ldi	r25, 0x00	; 0
    11ee:	0e 94 d5 15 	call	0x2baa	; 0x2baa <__floatsisf>
    11f2:	9b 01       	movw	r18, r22
    11f4:	ac 01       	movw	r20, r24
    11f6:	c3 01       	movw	r24, r6
    11f8:	b2 01       	movw	r22, r4
    11fa:	0e 94 3a 15 	call	0x2a74	; 0x2a74 <__divsf3>
    11fe:	20 e0       	ldi	r18, 0x00	; 0
    1200:	30 e0       	ldi	r19, 0x00	; 0
    1202:	48 ec       	ldi	r20, 0xC8	; 200
    1204:	52 e4       	ldi	r21, 0x42	; 66
    1206:	0e 94 3a 15 	call	0x2a74	; 0x2a74 <__divsf3>
    120a:	26 96       	adiw	r28, 0x06	; 6
    120c:	cd bf       	out	0x3d, r28	; 61
    120e:	de bf       	out	0x3e, r29	; 62
    1210:	df 91       	pop	r29
    1212:	cf 91       	pop	r28
    1214:	1f 91       	pop	r17
    1216:	0f 91       	pop	r16
    1218:	ff 90       	pop	r15
    121a:	ef 90       	pop	r14
    121c:	df 90       	pop	r13
    121e:	cf 90       	pop	r12
    1220:	bf 90       	pop	r11
    1222:	af 90       	pop	r10
    1224:	9f 90       	pop	r9
    1226:	8f 90       	pop	r8
    1228:	7f 90       	pop	r7
    122a:	6f 90       	pop	r6
    122c:	5f 90       	pop	r5
    122e:	4f 90       	pop	r4
    1230:	3f 90       	pop	r3
    1232:	2f 90       	pop	r2
    1234:	08 95       	ret

00001236 <data_check>:
    1236:	3f 92       	push	r3
    1238:	4f 92       	push	r4
    123a:	5f 92       	push	r5
    123c:	6f 92       	push	r6
    123e:	7f 92       	push	r7
    1240:	8f 92       	push	r8
    1242:	9f 92       	push	r9
    1244:	af 92       	push	r10
    1246:	bf 92       	push	r11
    1248:	cf 92       	push	r12
    124a:	df 92       	push	r13
    124c:	ef 92       	push	r14
    124e:	ff 92       	push	r15
    1250:	0f 93       	push	r16
    1252:	1f 93       	push	r17
    1254:	cf 93       	push	r28
    1256:	df 93       	push	r29
    1258:	00 d0       	rcall	.+0      	; 0x125a <data_check+0x24>
    125a:	00 d0       	rcall	.+0      	; 0x125c <data_check+0x26>
    125c:	cd b7       	in	r28, 0x3d	; 61
    125e:	de b7       	in	r29, 0x3e	; 62
    1260:	8c 01       	movw	r16, r24
    1262:	19 82       	std	Y+1, r1	; 0x01
    1264:	1a 82       	std	Y+2, r1	; 0x02
    1266:	c1 2c       	mov	r12, r1
    1268:	d1 2c       	mov	r13, r1
    126a:	76 01       	movw	r14, r12
    126c:	69 81       	ldd	r22, Y+1	; 0x01
    126e:	7a 81       	ldd	r23, Y+2	; 0x02
    1270:	c8 01       	movw	r24, r16
    1272:	61 dd       	rcall	.-1342   	; 0xd36 <rb32_get_nth>
    1274:	4b 01       	movw	r8, r22
    1276:	5c 01       	movw	r10, r24
    1278:	21 ea       	ldi	r18, 0xA1	; 161
    127a:	82 1a       	sub	r8, r18
    127c:	26 e8       	ldi	r18, 0x86	; 134
    127e:	92 0a       	sbc	r9, r18
    1280:	21 e0       	ldi	r18, 0x01	; 1
    1282:	a2 0a       	sbc	r10, r18
    1284:	b1 08       	sbc	r11, r1
    1286:	2f ed       	ldi	r18, 0xDF	; 223
    1288:	82 16       	cp	r8, r18
    128a:	2f e0       	ldi	r18, 0x0F	; 15
    128c:	92 06       	cpc	r9, r18
    128e:	27 e9       	ldi	r18, 0x97	; 151
    1290:	a2 06       	cpc	r10, r18
    1292:	b1 04       	cpc	r11, r1
    1294:	80 f4       	brcc	.+32     	; 0x12b6 <data_check+0x80>
    1296:	0e 94 d5 15 	call	0x2baa	; 0x2baa <__floatsisf>
    129a:	20 e0       	ldi	r18, 0x00	; 0
    129c:	30 e0       	ldi	r19, 0x00	; 0
    129e:	40 ea       	ldi	r20, 0xA0	; 160
    12a0:	50 e4       	ldi	r21, 0x40	; 64
    12a2:	0e 94 3a 15 	call	0x2a74	; 0x2a74 <__divsf3>
    12a6:	9b 01       	movw	r18, r22
    12a8:	ac 01       	movw	r20, r24
    12aa:	c7 01       	movw	r24, r14
    12ac:	b6 01       	movw	r22, r12
    12ae:	0e 94 d2 14 	call	0x29a4	; 0x29a4 <__addsf3>
    12b2:	6b 01       	movw	r12, r22
    12b4:	7c 01       	movw	r14, r24
    12b6:	89 81       	ldd	r24, Y+1	; 0x01
    12b8:	9a 81       	ldd	r25, Y+2	; 0x02
    12ba:	01 96       	adiw	r24, 0x01	; 1
    12bc:	89 83       	std	Y+1, r24	; 0x01
    12be:	9a 83       	std	Y+2, r25	; 0x02
    12c0:	05 97       	sbiw	r24, 0x05	; 5
    12c2:	a1 f6       	brne	.-88     	; 0x126c <data_check+0x36>
    12c4:	19 82       	std	Y+1, r1	; 0x01
    12c6:	1a 82       	std	Y+2, r1	; 0x02
    12c8:	81 2c       	mov	r8, r1
    12ca:	91 2c       	mov	r9, r1
    12cc:	54 01       	movw	r10, r8
    12ce:	69 81       	ldd	r22, Y+1	; 0x01
    12d0:	7a 81       	ldd	r23, Y+2	; 0x02
    12d2:	c8 01       	movw	r24, r16
    12d4:	30 dd       	rcall	.-1440   	; 0xd36 <rb32_get_nth>
    12d6:	2b 01       	movw	r4, r22
    12d8:	3c 01       	movw	r6, r24
    12da:	21 ea       	ldi	r18, 0xA1	; 161
    12dc:	42 1a       	sub	r4, r18
    12de:	26 e8       	ldi	r18, 0x86	; 134
    12e0:	52 0a       	sbc	r5, r18
    12e2:	21 e0       	ldi	r18, 0x01	; 1
    12e4:	62 0a       	sbc	r6, r18
    12e6:	71 08       	sbc	r7, r1
    12e8:	2f ed       	ldi	r18, 0xDF	; 223
    12ea:	42 16       	cp	r4, r18
    12ec:	2f e0       	ldi	r18, 0x0F	; 15
    12ee:	52 06       	cpc	r5, r18
    12f0:	27 e9       	ldi	r18, 0x97	; 151
    12f2:	62 06       	cpc	r6, r18
    12f4:	71 04       	cpc	r7, r1
    12f6:	90 f4       	brcc	.+36     	; 0x131c <data_check+0xe6>
    12f8:	0e 94 d5 15 	call	0x2baa	; 0x2baa <__floatsisf>
    12fc:	a7 01       	movw	r20, r14
    12fe:	96 01       	movw	r18, r12
    1300:	0e 94 d1 14 	call	0x29a2	; 0x29a2 <__subsf3>
    1304:	9b 01       	movw	r18, r22
    1306:	ac 01       	movw	r20, r24
    1308:	0e 94 b5 16 	call	0x2d6a	; 0x2d6a <__mulsf3>
    130c:	9b 01       	movw	r18, r22
    130e:	ac 01       	movw	r20, r24
    1310:	c5 01       	movw	r24, r10
    1312:	b4 01       	movw	r22, r8
    1314:	0e 94 d2 14 	call	0x29a4	; 0x29a4 <__addsf3>
    1318:	4b 01       	movw	r8, r22
    131a:	5c 01       	movw	r10, r24
    131c:	89 81       	ldd	r24, Y+1	; 0x01
    131e:	9a 81       	ldd	r25, Y+2	; 0x02
    1320:	01 96       	adiw	r24, 0x01	; 1
    1322:	89 83       	std	Y+1, r24	; 0x01
    1324:	9a 83       	std	Y+2, r25	; 0x02
    1326:	05 97       	sbiw	r24, 0x05	; 5
    1328:	91 f6       	brne	.-92     	; 0x12ce <data_check+0x98>
    132a:	20 e0       	ldi	r18, 0x00	; 0
    132c:	30 e0       	ldi	r19, 0x00	; 0
    132e:	40 e8       	ldi	r20, 0x80	; 128
    1330:	5e e3       	ldi	r21, 0x3E	; 62
    1332:	c5 01       	movw	r24, r10
    1334:	b4 01       	movw	r22, r8
    1336:	0e 94 b5 16 	call	0x2d6a	; 0x2d6a <__mulsf3>
    133a:	69 83       	std	Y+1, r22	; 0x01
    133c:	7a 83       	std	Y+2, r23	; 0x02
    133e:	8b 83       	std	Y+3, r24	; 0x03
    1340:	9c 83       	std	Y+4, r25	; 0x04
    1342:	1d 82       	std	Y+5, r1	; 0x05
    1344:	1e 82       	std	Y+6, r1	; 0x06
    1346:	31 2c       	mov	r3, r1
    1348:	41 2c       	mov	r4, r1
    134a:	51 2c       	mov	r5, r1
    134c:	32 01       	movw	r6, r4
    134e:	6d 81       	ldd	r22, Y+5	; 0x05
    1350:	7e 81       	ldd	r23, Y+6	; 0x06
    1352:	c8 01       	movw	r24, r16
    1354:	f0 dc       	rcall	.-1568   	; 0xd36 <rb32_get_nth>
    1356:	4b 01       	movw	r8, r22
    1358:	5c 01       	movw	r10, r24
    135a:	21 ea       	ldi	r18, 0xA1	; 161
    135c:	82 1a       	sub	r8, r18
    135e:	26 e8       	ldi	r18, 0x86	; 134
    1360:	92 0a       	sbc	r9, r18
    1362:	21 e0       	ldi	r18, 0x01	; 1
    1364:	a2 0a       	sbc	r10, r18
    1366:	b1 08       	sbc	r11, r1
    1368:	2f ed       	ldi	r18, 0xDF	; 223
    136a:	82 16       	cp	r8, r18
    136c:	2f e0       	ldi	r18, 0x0F	; 15
    136e:	92 06       	cpc	r9, r18
    1370:	27 e9       	ldi	r18, 0x97	; 151
    1372:	a2 06       	cpc	r10, r18
    1374:	b1 04       	cpc	r11, r1
    1376:	50 f5       	brcc	.+84     	; 0x13cc <data_check+0x196>
    1378:	0e 94 d5 15 	call	0x2baa	; 0x2baa <__floatsisf>
    137c:	4b 01       	movw	r8, r22
    137e:	5c 01       	movw	r10, r24
    1380:	a7 01       	movw	r20, r14
    1382:	96 01       	movw	r18, r12
    1384:	0e 94 d1 14 	call	0x29a2	; 0x29a2 <__subsf3>
    1388:	0e 94 a2 15 	call	0x2b44	; 0x2b44 <__fixsfsi>
    138c:	9b 01       	movw	r18, r22
    138e:	77 23       	and	r23, r23
    1390:	24 f4       	brge	.+8      	; 0x139a <data_check+0x164>
    1392:	22 27       	eor	r18, r18
    1394:	33 27       	eor	r19, r19
    1396:	26 1b       	sub	r18, r22
    1398:	37 0b       	sbc	r19, r23
    139a:	b9 01       	movw	r22, r18
    139c:	33 0f       	add	r19, r19
    139e:	88 0b       	sbc	r24, r24
    13a0:	99 0b       	sbc	r25, r25
    13a2:	0e 94 d5 15 	call	0x2baa	; 0x2baa <__floatsisf>
    13a6:	9b 01       	movw	r18, r22
    13a8:	ac 01       	movw	r20, r24
    13aa:	69 81       	ldd	r22, Y+1	; 0x01
    13ac:	7a 81       	ldd	r23, Y+2	; 0x02
    13ae:	8b 81       	ldd	r24, Y+3	; 0x03
    13b0:	9c 81       	ldd	r25, Y+4	; 0x04
    13b2:	0e 94 aa 16 	call	0x2d54	; 0x2d54 <__gesf2>
    13b6:	88 23       	and	r24, r24
    13b8:	4c f0       	brlt	.+18     	; 0x13cc <data_check+0x196>
    13ba:	a5 01       	movw	r20, r10
    13bc:	94 01       	movw	r18, r8
    13be:	c3 01       	movw	r24, r6
    13c0:	b2 01       	movw	r22, r4
    13c2:	0e 94 d2 14 	call	0x29a4	; 0x29a4 <__addsf3>
    13c6:	2b 01       	movw	r4, r22
    13c8:	3c 01       	movw	r6, r24
    13ca:	33 94       	inc	r3
    13cc:	8d 81       	ldd	r24, Y+5	; 0x05
    13ce:	9e 81       	ldd	r25, Y+6	; 0x06
    13d0:	01 96       	adiw	r24, 0x01	; 1
    13d2:	8d 83       	std	Y+5, r24	; 0x05
    13d4:	9e 83       	std	Y+6, r25	; 0x06
    13d6:	05 97       	sbiw	r24, 0x05	; 5
    13d8:	09 f0       	breq	.+2      	; 0x13dc <data_check+0x1a6>
    13da:	b9 cf       	rjmp	.-142    	; 0x134e <data_check+0x118>
    13dc:	33 20       	and	r3, r3
    13de:	69 f0       	breq	.+26     	; 0x13fa <data_check+0x1c4>
    13e0:	63 2d       	mov	r22, r3
    13e2:	70 e0       	ldi	r23, 0x00	; 0
    13e4:	80 e0       	ldi	r24, 0x00	; 0
    13e6:	90 e0       	ldi	r25, 0x00	; 0
    13e8:	0e 94 d3 15 	call	0x2ba6	; 0x2ba6 <__floatunsisf>
    13ec:	9b 01       	movw	r18, r22
    13ee:	ac 01       	movw	r20, r24
    13f0:	c3 01       	movw	r24, r6
    13f2:	b2 01       	movw	r22, r4
    13f4:	0e 94 3a 15 	call	0x2a74	; 0x2a74 <__divsf3>
    13f8:	04 c0       	rjmp	.+8      	; 0x1402 <data_check+0x1cc>
    13fa:	60 e0       	ldi	r22, 0x00	; 0
    13fc:	70 e0       	ldi	r23, 0x00	; 0
    13fe:	80 e8       	ldi	r24, 0x80	; 128
    1400:	9f eb       	ldi	r25, 0xBF	; 191
    1402:	26 96       	adiw	r28, 0x06	; 6
    1404:	cd bf       	out	0x3d, r28	; 61
    1406:	de bf       	out	0x3e, r29	; 62
    1408:	df 91       	pop	r29
    140a:	cf 91       	pop	r28
    140c:	1f 91       	pop	r17
    140e:	0f 91       	pop	r16
    1410:	ff 90       	pop	r15
    1412:	ef 90       	pop	r14
    1414:	df 90       	pop	r13
    1416:	cf 90       	pop	r12
    1418:	bf 90       	pop	r11
    141a:	af 90       	pop	r10
    141c:	9f 90       	pop	r9
    141e:	8f 90       	pop	r8
    1420:	7f 90       	pop	r7
    1422:	6f 90       	pop	r6
    1424:	5f 90       	pop	r5
    1426:	4f 90       	pop	r4
    1428:	3f 90       	pop	r3
    142a:	08 95       	ret

0000142c <data_collect>:
    142c:	af 92       	push	r10
    142e:	bf 92       	push	r11
    1430:	cf 92       	push	r12
    1432:	df 92       	push	r13
    1434:	ef 92       	push	r14
    1436:	ff 92       	push	r15
    1438:	0f 93       	push	r16
    143a:	1f 93       	push	r17
    143c:	cf 93       	push	r28
    143e:	df 93       	push	r29
    1440:	00 d0       	rcall	.+0      	; 0x1442 <data_collect+0x16>
    1442:	00 d0       	rcall	.+0      	; 0x1444 <data_collect+0x18>
    1444:	cd b7       	in	r28, 0x3d	; 61
    1446:	de b7       	in	r29, 0x3e	; 62
    1448:	5c 01       	movw	r10, r24
    144a:	8b 01       	movw	r16, r22
    144c:	35 dd       	rcall	.-1430   	; 0xeb8 <get_pressure>
    144e:	20 e0       	ldi	r18, 0x00	; 0
    1450:	30 e0       	ldi	r19, 0x00	; 0
    1452:	40 e2       	ldi	r20, 0x20	; 32
    1454:	51 e4       	ldi	r21, 0x41	; 65
    1456:	0e 94 b5 16 	call	0x2d6a	; 0x2d6a <__mulsf3>
    145a:	0e 94 a2 15 	call	0x2b44	; 0x2b44 <__fixsfsi>
    145e:	69 83       	std	Y+1, r22	; 0x01
    1460:	7a 83       	std	Y+2, r23	; 0x02
    1462:	8b 83       	std	Y+3, r24	; 0x03
    1464:	9c 83       	std	Y+4, r25	; 0x04
    1466:	41 e0       	ldi	r20, 0x01	; 1
    1468:	50 e0       	ldi	r21, 0x00	; 0
    146a:	be 01       	movw	r22, r28
    146c:	6f 5f       	subi	r22, 0xFF	; 255
    146e:	7f 4f       	sbci	r23, 0xFF	; 255
    1470:	c8 01       	movw	r24, r16
    1472:	06 dc       	rcall	.-2036   	; 0xc80 <rb32_write>
    1474:	c8 01       	movw	r24, r16
    1476:	df de       	rcall	.-578    	; 0x1236 <data_check>
    1478:	20 e0       	ldi	r18, 0x00	; 0
    147a:	30 e0       	ldi	r19, 0x00	; 0
    147c:	40 e2       	ldi	r20, 0x20	; 32
    147e:	51 e4       	ldi	r21, 0x41	; 65
    1480:	0e 94 3a 15 	call	0x2a74	; 0x2a74 <__divsf3>
    1484:	6b 01       	movw	r12, r22
    1486:	7c 01       	movw	r14, r24
    1488:	20 e0       	ldi	r18, 0x00	; 0
    148a:	30 e0       	ldi	r19, 0x00	; 0
    148c:	40 e8       	ldi	r20, 0x80	; 128
    148e:	5f eb       	ldi	r21, 0xBF	; 191
    1490:	0e 94 36 15 	call	0x2a6c	; 0x2a6c <__cmpsf2>
    1494:	88 23       	and	r24, r24
    1496:	81 f1       	breq	.+96     	; 0x14f8 <data_collect+0xcc>
    1498:	c0 92 d0 20 	sts	0x20D0, r12	; 0x8020d0 <press>
    149c:	d0 92 d1 20 	sts	0x20D1, r13	; 0x8020d1 <press+0x1>
    14a0:	e0 92 d2 20 	sts	0x20D2, r14	; 0x8020d2 <press+0x2>
    14a4:	f0 92 d3 20 	sts	0x20D3, r15	; 0x8020d3 <press+0x3>
    14a8:	c7 01       	movw	r24, r14
    14aa:	b6 01       	movw	r22, r12
    14ac:	a8 dd       	rcall	.-1200   	; 0xffe <get_altitude>
    14ae:	60 93 c8 20 	sts	0x20C8, r22	; 0x8020c8 <alt>
    14b2:	70 93 c9 20 	sts	0x20C9, r23	; 0x8020c9 <alt+0x1>
    14b6:	80 93 ca 20 	sts	0x20CA, r24	; 0x8020ca <alt+0x2>
    14ba:	90 93 cb 20 	sts	0x20CB, r25	; 0x8020cb <alt+0x3>
    14be:	20 e0       	ldi	r18, 0x00	; 0
    14c0:	30 e0       	ldi	r19, 0x00	; 0
    14c2:	48 ec       	ldi	r20, 0xC8	; 200
    14c4:	52 e4       	ldi	r21, 0x42	; 66
    14c6:	0e 94 b5 16 	call	0x2d6a	; 0x2d6a <__mulsf3>
    14ca:	0e 94 a2 15 	call	0x2b44	; 0x2b44 <__fixsfsi>
    14ce:	6d 83       	std	Y+5, r22	; 0x05
    14d0:	7e 83       	std	Y+6, r23	; 0x06
    14d2:	41 e0       	ldi	r20, 0x01	; 1
    14d4:	50 e0       	ldi	r21, 0x00	; 0
    14d6:	be 01       	movw	r22, r28
    14d8:	6b 5f       	subi	r22, 0xFB	; 251
    14da:	7f 4f       	sbci	r23, 0xFF	; 255
    14dc:	c5 01       	movw	r24, r10
    14de:	5a db       	rcall	.-2380   	; 0xb94 <rb16_write>
    14e0:	60 91 19 20 	lds	r22, 0x2019	; 0x802019 <rate>
    14e4:	c5 01       	movw	r24, r10
    14e6:	f4 dd       	rcall	.-1048   	; 0x10d0 <diff>
    14e8:	60 93 c0 20 	sts	0x20C0, r22	; 0x8020c0 <velocity>
    14ec:	70 93 c1 20 	sts	0x20C1, r23	; 0x8020c1 <velocity+0x1>
    14f0:	80 93 c2 20 	sts	0x20C2, r24	; 0x8020c2 <velocity+0x2>
    14f4:	90 93 c3 20 	sts	0x20C3, r25	; 0x8020c3 <velocity+0x3>
    14f8:	83 e3       	ldi	r24, 0x33	; 51
    14fa:	93 e1       	ldi	r25, 0x13	; 19
    14fc:	a0 e9       	ldi	r26, 0x90	; 144
    14fe:	b3 e4       	ldi	r27, 0x43	; 67
    1500:	80 93 cc 20 	sts	0x20CC, r24	; 0x8020cc <temp>
    1504:	90 93 cd 20 	sts	0x20CD, r25	; 0x8020cd <temp+0x1>
    1508:	a0 93 ce 20 	sts	0x20CE, r26	; 0x8020ce <temp+0x2>
    150c:	b0 93 cf 20 	sts	0x20CF, r27	; 0x8020cf <temp+0x3>
    1510:	26 96       	adiw	r28, 0x06	; 6
    1512:	cd bf       	out	0x3d, r28	; 61
    1514:	de bf       	out	0x3e, r29	; 62
    1516:	df 91       	pop	r29
    1518:	cf 91       	pop	r28
    151a:	1f 91       	pop	r17
    151c:	0f 91       	pop	r16
    151e:	ff 90       	pop	r15
    1520:	ef 90       	pop	r14
    1522:	df 90       	pop	r13
    1524:	cf 90       	pop	r12
    1526:	bf 90       	pop	r11
    1528:	af 90       	pop	r10
    152a:	08 95       	ret

0000152c <state_check>:
    152c:	cf 92       	push	r12
    152e:	df 92       	push	r13
    1530:	ef 92       	push	r14
    1532:	ff 92       	push	r15
    1534:	c0 90 c0 20 	lds	r12, 0x20C0	; 0x8020c0 <velocity>
    1538:	d0 90 c1 20 	lds	r13, 0x20C1	; 0x8020c1 <velocity+0x1>
    153c:	e0 90 c2 20 	lds	r14, 0x20C2	; 0x8020c2 <velocity+0x2>
    1540:	f0 90 c3 20 	lds	r15, 0x20C3	; 0x8020c3 <velocity+0x3>
    1544:	c7 01       	movw	r24, r14
    1546:	b6 01       	movw	r22, r12
    1548:	0e 94 a2 15 	call	0x2b44	; 0x2b44 <__fixsfsi>
    154c:	9b 01       	movw	r18, r22
    154e:	77 23       	and	r23, r23
    1550:	24 f4       	brge	.+8      	; 0x155a <state_check+0x2e>
    1552:	22 27       	eor	r18, r18
    1554:	33 27       	eor	r19, r19
    1556:	26 1b       	sub	r18, r22
    1558:	37 0b       	sbc	r19, r23
    155a:	26 30       	cpi	r18, 0x06	; 6
    155c:	31 05       	cpc	r19, r1
    155e:	8c f0       	brlt	.+34     	; 0x1582 <state_check+0x56>
    1560:	20 e0       	ldi	r18, 0x00	; 0
    1562:	30 e0       	ldi	r19, 0x00	; 0
    1564:	a9 01       	movw	r20, r18
    1566:	c7 01       	movw	r24, r14
    1568:	b6 01       	movw	r22, r12
    156a:	0e 94 36 15 	call	0x2a6c	; 0x2a6c <__cmpsf2>
    156e:	88 23       	and	r24, r24
    1570:	24 f0       	brlt	.+8      	; 0x157a <state_check+0x4e>
    1572:	81 e0       	ldi	r24, 0x01	; 1
    1574:	80 93 ef 20 	sts	0x20EF, r24	; 0x8020ef <state>
    1578:	24 c0       	rjmp	.+72     	; 0x15c2 <state_check+0x96>
    157a:	82 e0       	ldi	r24, 0x02	; 2
    157c:	80 93 ef 20 	sts	0x20EF, r24	; 0x8020ef <state>
    1580:	20 c0       	rjmp	.+64     	; 0x15c2 <state_check+0x96>
    1582:	10 92 ef 20 	sts	0x20EF, r1	; 0x8020ef <state>
    1586:	20 e0       	ldi	r18, 0x00	; 0
    1588:	30 e0       	ldi	r19, 0x00	; 0
    158a:	48 e4       	ldi	r20, 0x48	; 72
    158c:	52 e4       	ldi	r21, 0x42	; 66
    158e:	60 91 c8 20 	lds	r22, 0x20C8	; 0x8020c8 <alt>
    1592:	70 91 c9 20 	lds	r23, 0x20C9	; 0x8020c9 <alt+0x1>
    1596:	80 91 ca 20 	lds	r24, 0x20CA	; 0x8020ca <alt+0x2>
    159a:	90 91 cb 20 	lds	r25, 0x20CB	; 0x8020cb <alt+0x3>
    159e:	0e 94 aa 16 	call	0x2d54	; 0x2d54 <__gesf2>
    15a2:	18 16       	cp	r1, r24
    15a4:	24 f0       	brlt	.+8      	; 0x15ae <state_check+0x82>
    15a6:	80 91 ed 20 	lds	r24, 0x20ED	; 0x8020ed <reset_received>
    15aa:	88 23       	and	r24, r24
    15ac:	19 f0       	breq	.+6      	; 0x15b4 <state_check+0x88>
    15ae:	81 e0       	ldi	r24, 0x01	; 1
    15b0:	80 93 ef 20 	sts	0x20EF, r24	; 0x8020ef <state>
    15b4:	80 91 ee 20 	lds	r24, 0x20EE	; 0x8020ee <released>
    15b8:	88 23       	and	r24, r24
    15ba:	19 f0       	breq	.+6      	; 0x15c2 <state_check+0x96>
    15bc:	83 e0       	ldi	r24, 0x03	; 3
    15be:	80 93 ef 20 	sts	0x20EF, r24	; 0x8020ef <state>
    15c2:	ff 90       	pop	r15
    15c4:	ef 90       	pop	r14
    15c6:	df 90       	pop	r13
    15c8:	cf 90       	pop	r12
    15ca:	08 95       	ret

000015cc <servo_pid>:
    15cc:	8f 92       	push	r8
    15ce:	9f 92       	push	r9
    15d0:	af 92       	push	r10
    15d2:	bf 92       	push	r11
    15d4:	cf 92       	push	r12
    15d6:	df 92       	push	r13
    15d8:	ef 92       	push	r14
    15da:	ff 92       	push	r15
    15dc:	0f 93       	push	r16
    15de:	1f 93       	push	r17
    15e0:	cf 93       	push	r28
    15e2:	df 93       	push	r29
    15e4:	7c 01       	movw	r14, r24
    15e6:	c0 e0       	ldi	r28, 0x00	; 0
    15e8:	d0 e0       	ldi	r29, 0x00	; 0
    15ea:	00 e0       	ldi	r16, 0x00	; 0
    15ec:	10 e0       	ldi	r17, 0x00	; 0
    15ee:	be 01       	movw	r22, r28
    15f0:	c7 01       	movw	r24, r14
    15f2:	19 db       	rcall	.-2510   	; 0xc26 <rb16_get_nth>
    15f4:	08 0f       	add	r16, r24
    15f6:	19 1f       	adc	r17, r25
    15f8:	21 96       	adiw	r28, 0x01	; 1
    15fa:	ca 30       	cpi	r28, 0x0A	; 10
    15fc:	d1 05       	cpc	r29, r1
    15fe:	b9 f7       	brne	.-18     	; 0x15ee <servo_pid+0x22>
    1600:	60 e0       	ldi	r22, 0x00	; 0
    1602:	70 e0       	ldi	r23, 0x00	; 0
    1604:	c7 01       	movw	r24, r14
    1606:	0f db       	rcall	.-2530   	; 0xc26 <rb16_get_nth>
    1608:	ec 01       	movw	r28, r24
    160a:	60 91 19 20 	lds	r22, 0x2019	; 0x802019 <rate>
    160e:	c7 01       	movw	r24, r14
    1610:	5f dd       	rcall	.-1346   	; 0x10d0 <diff>
    1612:	6b 01       	movw	r12, r22
    1614:	7c 01       	movw	r14, r24
    1616:	be 01       	movw	r22, r28
    1618:	dd 0f       	add	r29, r29
    161a:	88 0b       	sbc	r24, r24
    161c:	99 0b       	sbc	r25, r25
    161e:	0e 94 d5 15 	call	0x2baa	; 0x2baa <__floatsisf>
    1622:	20 e0       	ldi	r18, 0x00	; 0
    1624:	30 e0       	ldi	r19, 0x00	; 0
    1626:	a9 01       	movw	r20, r18
    1628:	0e 94 b5 16 	call	0x2d6a	; 0x2d6a <__mulsf3>
    162c:	20 e0       	ldi	r18, 0x00	; 0
    162e:	30 e0       	ldi	r19, 0x00	; 0
    1630:	48 ec       	ldi	r20, 0xC8	; 200
    1632:	52 e4       	ldi	r21, 0x42	; 66
    1634:	0e 94 3a 15 	call	0x2a74	; 0x2a74 <__divsf3>
    1638:	4b 01       	movw	r8, r22
    163a:	5c 01       	movw	r10, r24
    163c:	b8 01       	movw	r22, r16
    163e:	11 0f       	add	r17, r17
    1640:	88 0b       	sbc	r24, r24
    1642:	99 0b       	sbc	r25, r25
    1644:	0e 94 d5 15 	call	0x2baa	; 0x2baa <__floatsisf>
    1648:	20 e0       	ldi	r18, 0x00	; 0
    164a:	30 e0       	ldi	r19, 0x00	; 0
    164c:	a9 01       	movw	r20, r18
    164e:	0e 94 b5 16 	call	0x2d6a	; 0x2d6a <__mulsf3>
    1652:	20 e0       	ldi	r18, 0x00	; 0
    1654:	30 e0       	ldi	r19, 0x00	; 0
    1656:	48 ec       	ldi	r20, 0xC8	; 200
    1658:	52 e4       	ldi	r21, 0x42	; 66
    165a:	0e 94 3a 15 	call	0x2a74	; 0x2a74 <__divsf3>
    165e:	9b 01       	movw	r18, r22
    1660:	ac 01       	movw	r20, r24
    1662:	c5 01       	movw	r24, r10
    1664:	b4 01       	movw	r22, r8
    1666:	0e 94 d2 14 	call	0x29a4	; 0x29a4 <__addsf3>
    166a:	4b 01       	movw	r8, r22
    166c:	5c 01       	movw	r10, r24
    166e:	20 e0       	ldi	r18, 0x00	; 0
    1670:	30 e0       	ldi	r19, 0x00	; 0
    1672:	a9 01       	movw	r20, r18
    1674:	c7 01       	movw	r24, r14
    1676:	b6 01       	movw	r22, r12
    1678:	0e 94 b5 16 	call	0x2d6a	; 0x2d6a <__mulsf3>
    167c:	9b 01       	movw	r18, r22
    167e:	ac 01       	movw	r20, r24
    1680:	c5 01       	movw	r24, r10
    1682:	b4 01       	movw	r22, r8
    1684:	0e 94 d2 14 	call	0x29a4	; 0x29a4 <__addsf3>
    1688:	20 e0       	ldi	r18, 0x00	; 0
    168a:	30 e8       	ldi	r19, 0x80	; 128
    168c:	4b eb       	ldi	r20, 0xBB	; 187
    168e:	54 e4       	ldi	r21, 0x44	; 68
    1690:	0e 94 d2 14 	call	0x29a4	; 0x29a4 <__addsf3>
    1694:	0e 94 a7 15 	call	0x2b4e	; 0x2b4e <__fixunssfsi>
    1698:	60 93 1b 20 	sts	0x201B, r22	; 0x80201b <servo_pulse>
    169c:	70 93 1c 20 	sts	0x201C, r23	; 0x80201c <servo_pulse+0x1>
    16a0:	80 e0       	ldi	r24, 0x00	; 0
    16a2:	90 e0       	ldi	r25, 0x00	; 0
    16a4:	0e 94 d3 15 	call	0x2ba6	; 0x2ba6 <__floatunsisf>
    16a8:	20 e0       	ldi	r18, 0x00	; 0
    16aa:	30 e0       	ldi	r19, 0x00	; 0
    16ac:	4a e7       	ldi	r20, 0x7A	; 122
    16ae:	54 e4       	ldi	r21, 0x44	; 68
    16b0:	0e 94 3a 15 	call	0x2a74	; 0x2a74 <__divsf3>
    16b4:	20 e0       	ldi	r18, 0x00	; 0
    16b6:	30 e0       	ldi	r19, 0x00	; 0
    16b8:	4a ef       	ldi	r20, 0xFA	; 250
    16ba:	53 e4       	ldi	r21, 0x43	; 67
    16bc:	0e 94 b5 16 	call	0x2d6a	; 0x2d6a <__mulsf3>
    16c0:	0e 94 a7 15 	call	0x2b4e	; 0x2b4e <__fixunssfsi>
    16c4:	60 93 68 09 	sts	0x0968, r22	; 0x800968 <__TEXT_REGION_LENGTH__+0x700968>
    16c8:	70 93 69 09 	sts	0x0969, r23	; 0x800969 <__TEXT_REGION_LENGTH__+0x700969>
    16cc:	df 91       	pop	r29
    16ce:	cf 91       	pop	r28
    16d0:	1f 91       	pop	r17
    16d2:	0f 91       	pop	r16
    16d4:	ff 90       	pop	r15
    16d6:	ef 90       	pop	r14
    16d8:	df 90       	pop	r13
    16da:	cf 90       	pop	r12
    16dc:	bf 90       	pop	r11
    16de:	af 90       	pop	r10
    16e0:	9f 90       	pop	r9
    16e2:	8f 90       	pop	r8
    16e4:	08 95       	ret

000016e6 <clock_init>:
    16e6:	61 e0       	ldi	r22, 0x01	; 1
    16e8:	85 e0       	ldi	r24, 0x05	; 5
    16ea:	8f db       	rcall	.-2274   	; 0xe0a <sysclk_enable_module>
    16ec:	e0 e0       	ldi	r30, 0x00	; 0
    16ee:	fa e0       	ldi	r31, 0x0A	; 10
    16f0:	87 e0       	ldi	r24, 0x07	; 7
    16f2:	80 83       	st	Z, r24
    16f4:	81 e1       	ldi	r24, 0x11	; 17
    16f6:	9a e7       	ldi	r25, 0x7A	; 122
    16f8:	86 a3       	std	Z+38, r24	; 0x26
    16fa:	97 a3       	std	Z+39, r25	; 0x27
    16fc:	81 e0       	ldi	r24, 0x01	; 1
    16fe:	86 83       	std	Z+6, r24	; 0x06
    1700:	08 95       	ret

00001702 <system_init>:
    1702:	0f 93       	push	r16
    1704:	1f 93       	push	r17
    1706:	4c db       	rcall	.-2408   	; 0xda0 <sysclk_init>
    1708:	6b ea       	ldi	r22, 0xAB	; 171
    170a:	79 e2       	ldi	r23, 0x29	; 41
    170c:	80 e0       	ldi	r24, 0x00	; 0
    170e:	90 e0       	ldi	r25, 0x00	; 0
    1710:	98 db       	rcall	.-2256   	; 0xe42 <__portable_avr_delay_cycles>
    1712:	78 94       	sei
    1714:	8c eb       	ldi	r24, 0xBC	; 188
    1716:	80 93 40 06 	sts	0x0640, r24	; 0x800640 <__TEXT_REGION_LENGTH__+0x700640>
    171a:	87 e0       	ldi	r24, 0x07	; 7
    171c:	80 93 a2 00 	sts	0x00A2, r24	; 0x8000a2 <__TEXT_REGION_LENGTH__+0x7000a2>
    1720:	f3 d9       	rcall	.-3098   	; 0xb08 <data_terminal_init>
    1722:	6b ea       	ldi	r22, 0xAB	; 171
    1724:	70 eb       	ldi	r23, 0xB0	; 176
    1726:	88 e2       	ldi	r24, 0x28	; 40
    1728:	90 e0       	ldi	r25, 0x00	; 0
    172a:	8b db       	rcall	.-2282   	; 0xe42 <__portable_avr_delay_cycles>
    172c:	6b ea       	ldi	r22, 0xAB	; 171
    172e:	79 e2       	ldi	r23, 0x29	; 41
    1730:	80 e0       	ldi	r24, 0x00	; 0
    1732:	90 e0       	ldi	r25, 0x00	; 0
    1734:	86 db       	rcall	.-2292   	; 0xe42 <__portable_avr_delay_cycles>
    1736:	ba d9       	rcall	.-3212   	; 0xaac <spi_init>
    1738:	6b ea       	ldi	r22, 0xAB	; 171
    173a:	79 e2       	ldi	r23, 0x29	; 41
    173c:	80 e0       	ldi	r24, 0x00	; 0
    173e:	90 e0       	ldi	r25, 0x00	; 0
    1740:	80 db       	rcall	.-2304   	; 0xe42 <__portable_avr_delay_cycles>
    1742:	8a db       	rcall	.-2284   	; 0xe58 <pressure_init>
    1744:	6b ea       	ldi	r22, 0xAB	; 171
    1746:	79 e2       	ldi	r23, 0x29	; 41
    1748:	80 e0       	ldi	r24, 0x00	; 0
    174a:	90 e0       	ldi	r25, 0x00	; 0
    174c:	7a db       	rcall	.-2316   	; 0xe42 <__portable_avr_delay_cycles>
    174e:	80 e2       	ldi	r24, 0x20	; 32
    1750:	80 93 a3 0a 	sts	0x0AA3, r24	; 0x800aa3 <__TEXT_REGION_LENGTH__+0x700aa3>
    1754:	a7 db       	rcall	.-2226   	; 0xea4 <gps_init>
    1756:	c7 df       	rcall	.-114    	; 0x16e6 <clock_init>
    1758:	e9 d8       	rcall	.-3630   	; 0x92c <cam_init>
    175a:	66 e5       	ldi	r22, 0x56	; 86
    175c:	70 ed       	ldi	r23, 0xD0	; 208
    175e:	80 e0       	ldi	r24, 0x00	; 0
    1760:	90 e0       	ldi	r25, 0x00	; 0
    1762:	6f db       	rcall	.-2338   	; 0xe42 <__portable_avr_delay_cycles>
    1764:	e3 de       	rcall	.-570    	; 0x152c <state_check>
    1766:	a8 db       	rcall	.-2224   	; 0xeb8 <get_pressure>
    1768:	60 93 2d 20 	sts	0x202D, r22	; 0x80202d <ground_p>
    176c:	70 93 2e 20 	sts	0x202E, r23	; 0x80202e <ground_p+0x1>
    1770:	80 93 2f 20 	sts	0x202F, r24	; 0x80202f <ground_p+0x2>
    1774:	90 93 30 20 	sts	0x2030, r25	; 0x802030 <ground_p+0x3>
    1778:	03 e3       	ldi	r16, 0x33	; 51
    177a:	13 e1       	ldi	r17, 0x13	; 19
    177c:	20 e9       	ldi	r18, 0x90	; 144
    177e:	33 e4       	ldi	r19, 0x43	; 67
    1780:	00 93 29 20 	sts	0x2029, r16	; 0x802029 <ground_t>
    1784:	10 93 2a 20 	sts	0x202A, r17	; 0x80202a <ground_t+0x1>
    1788:	20 93 2b 20 	sts	0x202B, r18	; 0x80202b <ground_t+0x2>
    178c:	30 93 2c 20 	sts	0x202C, r19	; 0x80202c <ground_t+0x3>
    1790:	36 dc       	rcall	.-1940   	; 0xffe <get_altitude>
    1792:	60 93 e9 20 	sts	0x20E9, r22	; 0x8020e9 <ground_a>
    1796:	70 93 ea 20 	sts	0x20EA, r23	; 0x8020ea <ground_a+0x1>
    179a:	80 93 eb 20 	sts	0x20EB, r24	; 0x8020eb <ground_a+0x2>
    179e:	90 93 ec 20 	sts	0x20EC, r25	; 0x8020ec <ground_a+0x3>
    17a2:	1f 91       	pop	r17
    17a4:	0f 91       	pop	r16
    17a6:	08 95       	ret

000017a8 <main>:
    17a8:	cf 93       	push	r28
    17aa:	df 93       	push	r29
    17ac:	cd b7       	in	r28, 0x3d	; 61
    17ae:	de b7       	in	r29, 0x3e	; 62
    17b0:	ce 56       	subi	r28, 0x6E	; 110
    17b2:	d1 09       	sbc	r29, r1
    17b4:	cd bf       	out	0x3d, r28	; 61
    17b6:	de bf       	out	0x3e, r29	; 62
    17b8:	a4 df       	rcall	.-184    	; 0x1702 <system_init>
    17ba:	66 e5       	ldi	r22, 0x56	; 86
    17bc:	73 e2       	ldi	r23, 0x23	; 35
    17be:	88 e0       	ldi	r24, 0x08	; 8
    17c0:	90 e0       	ldi	r25, 0x00	; 0
    17c2:	3f db       	rcall	.-2434   	; 0xe42 <__portable_avr_delay_cycles>
    17c4:	14 e1       	ldi	r17, 0x14	; 20
    17c6:	be 01       	movw	r22, r28
    17c8:	6f 5f       	subi	r22, 0xFF	; 255
    17ca:	7f 4f       	sbci	r23, 0xFF	; 255
    17cc:	fb 01       	movw	r30, r22
    17ce:	81 2f       	mov	r24, r17
    17d0:	11 92       	st	Z+, r1
    17d2:	8a 95       	dec	r24
    17d4:	e9 f7       	brne	.-6      	; 0x17d0 <main+0x28>
    17d6:	4a e0       	ldi	r20, 0x0A	; 10
    17d8:	50 e0       	ldi	r21, 0x00	; 0
    17da:	ce 01       	movw	r24, r28
    17dc:	45 96       	adiw	r24, 0x15	; 21
    17de:	19 da       	rcall	.-3022   	; 0xc12 <rb16_init>
    17e0:	be 01       	movw	r22, r28
    17e2:	63 5e       	subi	r22, 0xE3	; 227
    17e4:	7f 4f       	sbci	r23, 0xFF	; 255
    17e6:	88 e2       	ldi	r24, 0x28	; 40
    17e8:	fb 01       	movw	r30, r22
    17ea:	11 92       	st	Z+, r1
    17ec:	8a 95       	dec	r24
    17ee:	e9 f7       	brne	.-6      	; 0x17ea <main+0x42>
    17f0:	4a e0       	ldi	r20, 0x0A	; 10
    17f2:	50 e0       	ldi	r21, 0x00	; 0
    17f4:	ce 01       	movw	r24, r28
    17f6:	8b 5b       	subi	r24, 0xBB	; 187
    17f8:	9f 4f       	sbci	r25, 0xFF	; 255
    17fa:	93 da       	rcall	.-2778   	; 0xd22 <rb32_init>
    17fc:	be 01       	movw	r22, r28
    17fe:	63 5b       	subi	r22, 0xB3	; 179
    1800:	7f 4f       	sbci	r23, 0xFF	; 255
    1802:	fb 01       	movw	r30, r22
    1804:	11 92       	st	Z+, r1
    1806:	1a 95       	dec	r17
    1808:	e9 f7       	brne	.-6      	; 0x1804 <main+0x5c>
    180a:	4a e0       	ldi	r20, 0x0A	; 10
    180c:	50 e0       	ldi	r21, 0x00	; 0
    180e:	ce 01       	movw	r24, r28
    1810:	8f 59       	subi	r24, 0x9F	; 159
    1812:	9f 4f       	sbci	r25, 0xFF	; 255
    1814:	fe d9       	rcall	.-3076   	; 0xc12 <rb16_init>
    1816:	af 96       	adiw	r28, 0x2f	; 47
    1818:	1f ae       	std	Y+63, r1	; 0x3f
    181a:	af 97       	sbiw	r28, 0x2f	; 47
    181c:	ae 96       	adiw	r28, 0x2e	; 46
    181e:	1f ae       	std	Y+63, r1	; 0x3f
    1820:	ae 97       	sbiw	r28, 0x2e	; 46
    1822:	0f 2e       	mov	r0, r31
    1824:	fc e0       	ldi	r31, 0x0C	; 12
    1826:	cf 2e       	mov	r12, r31
    1828:	f1 e2       	ldi	r31, 0x21	; 33
    182a:	df 2e       	mov	r13, r31
    182c:	f0 2d       	mov	r31, r0
    182e:	be 01       	movw	r22, r28
    1830:	6b 5b       	subi	r22, 0xBB	; 187
    1832:	7f 4f       	sbci	r23, 0xFF	; 255
    1834:	ce 01       	movw	r24, r28
    1836:	45 96       	adiw	r24, 0x15	; 21
    1838:	f9 dd       	rcall	.-1038   	; 0x142c <data_collect>
    183a:	78 de       	rcall	.-784    	; 0x152c <state_check>
    183c:	80 91 ef 20 	lds	r24, 0x20EF	; 0x8020ef <state>
    1840:	81 30       	cpi	r24, 0x01	; 1
    1842:	41 f0       	breq	.+16     	; 0x1854 <main+0xac>
    1844:	08 f4       	brcc	.+2      	; 0x1848 <main+0xa0>
    1846:	5a c0       	rjmp	.+180    	; 0x18fc <main+0x154>
    1848:	82 30       	cpi	r24, 0x02	; 2
    184a:	01 f1       	breq	.+64     	; 0x188c <main+0xe4>
    184c:	83 30       	cpi	r24, 0x03	; 3
    184e:	09 f4       	brne	.+2      	; 0x1852 <main+0xaa>
    1850:	49 c0       	rjmp	.+146    	; 0x18e4 <main+0x13c>
    1852:	52 c0       	rjmp	.+164    	; 0x18f8 <main+0x150>
    1854:	20 e0       	ldi	r18, 0x00	; 0
    1856:	30 e0       	ldi	r19, 0x00	; 0
    1858:	46 e1       	ldi	r20, 0x16	; 22
    185a:	54 e4       	ldi	r21, 0x44	; 68
    185c:	60 91 c8 20 	lds	r22, 0x20C8	; 0x8020c8 <alt>
    1860:	70 91 c9 20 	lds	r23, 0x20C9	; 0x8020c9 <alt+0x1>
    1864:	80 91 ca 20 	lds	r24, 0x20CA	; 0x8020ca <alt+0x2>
    1868:	90 91 cb 20 	lds	r25, 0x20CB	; 0x8020cb <alt+0x3>
    186c:	0e 94 aa 16 	call	0x2d54	; 0x2d54 <__gesf2>
    1870:	18 16       	cp	r1, r24
    1872:	0c f0       	brlt	.+2      	; 0x1876 <main+0xce>
    1874:	43 c0       	rjmp	.+134    	; 0x18fc <main+0x154>
    1876:	ae 96       	adiw	r28, 0x2e	; 46
    1878:	ff ad       	ldd	r31, Y+63	; 0x3f
    187a:	ae 97       	sbiw	r28, 0x2e	; 46
    187c:	f1 11       	cpse	r31, r1
    187e:	3e c0       	rjmp	.+124    	; 0x18fc <main+0x154>
    1880:	5b d8       	rcall	.-3914   	; 0x938 <cam_switch>
    1882:	81 e0       	ldi	r24, 0x01	; 1
    1884:	ae 96       	adiw	r28, 0x2e	; 46
    1886:	8f af       	std	Y+63, r24	; 0x3f
    1888:	ae 97       	sbiw	r28, 0x2e	; 46
    188a:	38 c0       	rjmp	.+112    	; 0x18fc <main+0x154>
    188c:	ae 96       	adiw	r28, 0x2e	; 46
    188e:	9f ad       	ldd	r25, Y+63	; 0x3f
    1890:	ae 97       	sbiw	r28, 0x2e	; 46
    1892:	91 11       	cpse	r25, r1
    1894:	05 c0       	rjmp	.+10     	; 0x18a0 <main+0xf8>
    1896:	50 d8       	rcall	.-3936   	; 0x938 <cam_switch>
    1898:	e1 e0       	ldi	r30, 0x01	; 1
    189a:	ae 96       	adiw	r28, 0x2e	; 46
    189c:	ef af       	std	Y+63, r30	; 0x3f
    189e:	ae 97       	sbiw	r28, 0x2e	; 46
    18a0:	20 e0       	ldi	r18, 0x00	; 0
    18a2:	30 e0       	ldi	r19, 0x00	; 0
    18a4:	41 ee       	ldi	r20, 0xE1	; 225
    18a6:	53 e4       	ldi	r21, 0x43	; 67
    18a8:	60 91 c8 20 	lds	r22, 0x20C8	; 0x8020c8 <alt>
    18ac:	70 91 c9 20 	lds	r23, 0x20C9	; 0x8020c9 <alt+0x1>
    18b0:	80 91 ca 20 	lds	r24, 0x20CA	; 0x8020ca <alt+0x2>
    18b4:	90 91 cb 20 	lds	r25, 0x20CB	; 0x8020cb <alt+0x3>
    18b8:	0e 94 d1 14 	call	0x29a2	; 0x29a2 <__subsf3>
    18bc:	0e 94 a2 15 	call	0x2b44	; 0x2b44 <__fixsfsi>
    18c0:	67 5f       	subi	r22, 0xF7	; 247
    18c2:	7f 4f       	sbci	r23, 0xFF	; 255
    18c4:	63 31       	cpi	r22, 0x13	; 19
    18c6:	71 05       	cpc	r23, r1
    18c8:	20 f4       	brcc	.+8      	; 0x18d2 <main+0x12a>
    18ca:	81 e0       	ldi	r24, 0x01	; 1
    18cc:	80 93 ee 20 	sts	0x20EE, r24	; 0x8020ee <released>
    18d0:	2c d8       	rcall	.-4008   	; 0x92a <hall_sensor_init>
    18d2:	80 91 ee 20 	lds	r24, 0x20EE	; 0x8020ee <released>
    18d6:	88 23       	and	r24, r24
    18d8:	89 f0       	breq	.+34     	; 0x18fc <main+0x154>
    18da:	ce 01       	movw	r24, r28
    18dc:	8f 59       	subi	r24, 0x9F	; 159
    18de:	9f 4f       	sbci	r25, 0xFF	; 255
    18e0:	75 de       	rcall	.-790    	; 0x15cc <servo_pid>
    18e2:	0c c0       	rjmp	.+24     	; 0x18fc <main+0x154>
    18e4:	af 96       	adiw	r28, 0x2f	; 47
    18e6:	ff ad       	ldd	r31, Y+63	; 0x3f
    18e8:	af 97       	sbiw	r28, 0x2f	; 47
    18ea:	f1 11       	cpse	r31, r1
    18ec:	07 c0       	rjmp	.+14     	; 0x18fc <main+0x154>
    18ee:	81 e0       	ldi	r24, 0x01	; 1
    18f0:	af 96       	adiw	r28, 0x2f	; 47
    18f2:	8f af       	std	Y+63, r24	; 0x3f
    18f4:	af 97       	sbiw	r28, 0x2f	; 47
    18f6:	02 c0       	rjmp	.+4      	; 0x18fc <main+0x154>
    18f8:	10 92 ef 20 	sts	0x20EF, r1	; 0x8020ef <state>
    18fc:	e0 90 d4 20 	lds	r14, 0x20D4	; 0x8020d4 <packets>
    1900:	f0 90 d5 20 	lds	r15, 0x20D5	; 0x8020d5 <packets+0x1>
    1904:	9f ef       	ldi	r25, 0xFF	; 255
    1906:	e9 1a       	sub	r14, r25
    1908:	f9 0a       	sbc	r15, r25
    190a:	e0 92 d4 20 	sts	0x20D4, r14	; 0x8020d4 <packets>
    190e:	f0 92 d5 20 	sts	0x20D5, r15	; 0x8020d5 <packets+0x1>
    1912:	20 90 d6 20 	lds	r2, 0x20D6	; 0x8020d6 <timer>
    1916:	30 90 d7 20 	lds	r3, 0x20D7	; 0x8020d7 <timer+0x1>
    191a:	21 14       	cp	r2, r1
    191c:	31 04       	cpc	r3, r1
    191e:	41 f0       	breq	.+16     	; 0x1930 <main+0x188>
    1920:	c7 01       	movw	r24, r14
    1922:	b1 01       	movw	r22, r2
    1924:	0e 94 60 18 	call	0x30c0	; 0x30c0 <__udivmodhi4>
    1928:	60 93 19 20 	sts	0x2019, r22	; 0x802019 <rate>
    192c:	70 93 1a 20 	sts	0x201A, r23	; 0x80201a <rate+0x1>
    1930:	60 91 b0 20 	lds	r22, 0x20B0	; 0x8020b0 <gps_alt>
    1934:	70 91 b1 20 	lds	r23, 0x20B1	; 0x8020b1 <gps_alt+0x1>
    1938:	80 91 b2 20 	lds	r24, 0x20B2	; 0x8020b2 <gps_alt+0x2>
    193c:	90 91 b3 20 	lds	r25, 0x20B3	; 0x8020b3 <gps_alt+0x3>
    1940:	0e 94 a2 15 	call	0x2b44	; 0x2b44 <__fixsfsi>
    1944:	16 2f       	mov	r17, r22
    1946:	07 2f       	mov	r16, r23
    1948:	80 90 b4 20 	lds	r8, 0x20B4	; 0x8020b4 <gps_long>
    194c:	90 90 b5 20 	lds	r9, 0x20B5	; 0x8020b5 <gps_long+0x1>
    1950:	a0 90 b6 20 	lds	r10, 0x20B6	; 0x8020b6 <gps_long+0x2>
    1954:	b0 90 b7 20 	lds	r11, 0x20B7	; 0x8020b7 <gps_long+0x3>
    1958:	40 90 b8 20 	lds	r4, 0x20B8	; 0x8020b8 <gps_lat>
    195c:	50 90 b9 20 	lds	r5, 0x20B9	; 0x8020b9 <gps_lat+0x1>
    1960:	60 90 ba 20 	lds	r6, 0x20BA	; 0x8020ba <gps_lat+0x2>
    1964:	70 90 bb 20 	lds	r7, 0x20BB	; 0x8020bb <gps_lat+0x3>
    1968:	60 91 bc 20 	lds	r22, 0x20BC	; 0x8020bc <gps_t>
    196c:	70 91 bd 20 	lds	r23, 0x20BD	; 0x8020bd <gps_t+0x1>
    1970:	80 91 be 20 	lds	r24, 0x20BE	; 0x8020be <gps_t+0x2>
    1974:	90 91 bf 20 	lds	r25, 0x20BF	; 0x8020bf <gps_t+0x3>
    1978:	0e 94 a2 15 	call	0x2b44	; 0x2b44 <__fixsfsi>
    197c:	ad 96       	adiw	r28, 0x2d	; 45
    197e:	6c af       	std	Y+60, r22	; 0x3c
    1980:	7d af       	std	Y+61, r23	; 0x3d
    1982:	8e af       	std	Y+62, r24	; 0x3e
    1984:	9f af       	std	Y+63, r25	; 0x3f
    1986:	ad 97       	sbiw	r28, 0x2d	; 45
    1988:	60 91 9e 20 	lds	r22, 0x209E	; 0x80209e <__data_end>
    198c:	70 91 9f 20 	lds	r23, 0x209F	; 0x80209f <__data_end+0x1>
    1990:	80 91 a0 20 	lds	r24, 0x20A0	; 0x8020a0 <__data_end+0x2>
    1994:	90 91 a1 20 	lds	r25, 0x20A1	; 0x8020a1 <__data_end+0x3>
    1998:	0e 94 a2 15 	call	0x2b44	; 0x2b44 <__fixsfsi>
    199c:	7f 93       	push	r23
    199e:	6f 93       	push	r22
    19a0:	80 91 ef 20 	lds	r24, 0x20EF	; 0x8020ef <state>
    19a4:	1f 92       	push	r1
    19a6:	8f 93       	push	r24
    19a8:	60 91 a2 20 	lds	r22, 0x20A2	; 0x8020a2 <rpm>
    19ac:	70 91 a3 20 	lds	r23, 0x20A3	; 0x8020a3 <rpm+0x1>
    19b0:	80 91 a4 20 	lds	r24, 0x20A4	; 0x8020a4 <rpm+0x2>
    19b4:	90 91 a5 20 	lds	r25, 0x20A5	; 0x8020a5 <rpm+0x3>
    19b8:	0e 94 a2 15 	call	0x2b44	; 0x2b44 <__fixsfsi>
    19bc:	7f 93       	push	r23
    19be:	6f 93       	push	r22
    19c0:	60 91 a6 20 	lds	r22, 0x20A6	; 0x8020a6 <roll>
    19c4:	70 91 a7 20 	lds	r23, 0x20A7	; 0x8020a7 <roll+0x1>
    19c8:	80 91 a8 20 	lds	r24, 0x20A8	; 0x8020a8 <roll+0x2>
    19cc:	90 91 a9 20 	lds	r25, 0x20A9	; 0x8020a9 <roll+0x3>
    19d0:	0e 94 a2 15 	call	0x2b44	; 0x2b44 <__fixsfsi>
    19d4:	7f 93       	push	r23
    19d6:	6f 93       	push	r22
    19d8:	60 91 aa 20 	lds	r22, 0x20AA	; 0x8020aa <pitch>
    19dc:	70 91 ab 20 	lds	r23, 0x20AB	; 0x8020ab <pitch+0x1>
    19e0:	80 91 ac 20 	lds	r24, 0x20AC	; 0x8020ac <pitch+0x2>
    19e4:	90 91 ad 20 	lds	r25, 0x20AD	; 0x8020ad <pitch+0x3>
    19e8:	0e 94 a2 15 	call	0x2b44	; 0x2b44 <__fixsfsi>
    19ec:	7f 93       	push	r23
    19ee:	6f 93       	push	r22
    19f0:	80 91 af 20 	lds	r24, 0x20AF	; 0x8020af <gps_sats+0x1>
    19f4:	8f 93       	push	r24
    19f6:	80 91 ae 20 	lds	r24, 0x20AE	; 0x8020ae <gps_sats>
    19fa:	8f 93       	push	r24
    19fc:	81 2f       	mov	r24, r17
    19fe:	90 2f       	mov	r25, r16
    1a00:	88 0f       	add	r24, r24
    1a02:	99 1f       	adc	r25, r25
    1a04:	9c 01       	movw	r18, r24
    1a06:	22 0f       	add	r18, r18
    1a08:	33 1f       	adc	r19, r19
    1a0a:	22 0f       	add	r18, r18
    1a0c:	33 1f       	adc	r19, r19
    1a0e:	82 0f       	add	r24, r18
    1a10:	93 1f       	adc	r25, r19
    1a12:	6a e0       	ldi	r22, 0x0A	; 10
    1a14:	70 e0       	ldi	r23, 0x00	; 0
    1a16:	0e 94 74 18 	call	0x30e8	; 0x30e8 <__divmodhi4>
    1a1a:	9f 93       	push	r25
    1a1c:	8f 93       	push	r24
    1a1e:	0f 93       	push	r16
    1a20:	1f 93       	push	r17
    1a22:	20 e0       	ldi	r18, 0x00	; 0
    1a24:	34 e2       	ldi	r19, 0x24	; 36
    1a26:	44 e7       	ldi	r20, 0x74	; 116
    1a28:	59 e4       	ldi	r21, 0x49	; 73
    1a2a:	c5 01       	movw	r24, r10
    1a2c:	b4 01       	movw	r22, r8
    1a2e:	0e 94 b5 16 	call	0x2d6a	; 0x2d6a <__mulsf3>
    1a32:	0e 94 a2 15 	call	0x2b44	; 0x2b44 <__fixsfsi>
    1a36:	20 e4       	ldi	r18, 0x40	; 64
    1a38:	32 e4       	ldi	r19, 0x42	; 66
    1a3a:	4f e0       	ldi	r20, 0x0F	; 15
    1a3c:	50 e0       	ldi	r21, 0x00	; 0
    1a3e:	0e 94 a9 18 	call	0x3152	; 0x3152 <__divmodsi4>
    1a42:	9b 01       	movw	r18, r22
    1a44:	77 23       	and	r23, r23
    1a46:	24 f4       	brge	.+8      	; 0x1a50 <main+0x2a8>
    1a48:	22 27       	eor	r18, r18
    1a4a:	33 27       	eor	r19, r19
    1a4c:	26 1b       	sub	r18, r22
    1a4e:	37 0b       	sbc	r19, r23
    1a50:	c9 01       	movw	r24, r18
    1a52:	33 0f       	add	r19, r19
    1a54:	aa 0b       	sbc	r26, r26
    1a56:	bb 0b       	sbc	r27, r27
    1a58:	bf 93       	push	r27
    1a5a:	af 93       	push	r26
    1a5c:	9f 93       	push	r25
    1a5e:	8f 93       	push	r24
    1a60:	c5 01       	movw	r24, r10
    1a62:	b4 01       	movw	r22, r8
    1a64:	0e 94 a2 15 	call	0x2b44	; 0x2b44 <__fixsfsi>
    1a68:	7f 93       	push	r23
    1a6a:	6f 93       	push	r22
    1a6c:	20 e0       	ldi	r18, 0x00	; 0
    1a6e:	34 e2       	ldi	r19, 0x24	; 36
    1a70:	44 e7       	ldi	r20, 0x74	; 116
    1a72:	59 e4       	ldi	r21, 0x49	; 73
    1a74:	c3 01       	movw	r24, r6
    1a76:	b2 01       	movw	r22, r4
    1a78:	0e 94 b5 16 	call	0x2d6a	; 0x2d6a <__mulsf3>
    1a7c:	0e 94 a2 15 	call	0x2b44	; 0x2b44 <__fixsfsi>
    1a80:	20 e4       	ldi	r18, 0x40	; 64
    1a82:	32 e4       	ldi	r19, 0x42	; 66
    1a84:	4f e0       	ldi	r20, 0x0F	; 15
    1a86:	50 e0       	ldi	r21, 0x00	; 0
    1a88:	0e 94 a9 18 	call	0x3152	; 0x3152 <__divmodsi4>
    1a8c:	9f 93       	push	r25
    1a8e:	8f 93       	push	r24
    1a90:	7f 93       	push	r23
    1a92:	6f 93       	push	r22
    1a94:	c3 01       	movw	r24, r6
    1a96:	b2 01       	movw	r22, r4
    1a98:	0e 94 a2 15 	call	0x2b44	; 0x2b44 <__fixsfsi>
    1a9c:	7f 93       	push	r23
    1a9e:	6f 93       	push	r22
    1aa0:	ad 96       	adiw	r28, 0x2d	; 45
    1aa2:	6c ad       	ldd	r22, Y+60	; 0x3c
    1aa4:	7d ad       	ldd	r23, Y+61	; 0x3d
    1aa6:	8e ad       	ldd	r24, Y+62	; 0x3e
    1aa8:	9f ad       	ldd	r25, Y+63	; 0x3f
    1aaa:	ad 97       	sbiw	r28, 0x2d	; 45
    1aac:	24 e6       	ldi	r18, 0x64	; 100
    1aae:	30 e0       	ldi	r19, 0x00	; 0
    1ab0:	40 e0       	ldi	r20, 0x00	; 0
    1ab2:	50 e0       	ldi	r21, 0x00	; 0
    1ab4:	0e 94 a9 18 	call	0x3152	; 0x3152 <__divmodsi4>
    1ab8:	7f 93       	push	r23
    1aba:	6f 93       	push	r22
    1abc:	ad 96       	adiw	r28, 0x2d	; 45
    1abe:	6c ad       	ldd	r22, Y+60	; 0x3c
    1ac0:	7d ad       	ldd	r23, Y+61	; 0x3d
    1ac2:	8e ad       	ldd	r24, Y+62	; 0x3e
    1ac4:	9f ad       	ldd	r25, Y+63	; 0x3f
    1ac6:	ad 97       	sbiw	r28, 0x2d	; 45
    1ac8:	20 e1       	ldi	r18, 0x10	; 16
    1aca:	37 e2       	ldi	r19, 0x27	; 39
    1acc:	40 e0       	ldi	r20, 0x00	; 0
    1ace:	50 e0       	ldi	r21, 0x00	; 0
    1ad0:	0e 94 a9 18 	call	0x3152	; 0x3152 <__divmodsi4>
    1ad4:	12 2f       	mov	r17, r18
    1ad6:	03 2f       	mov	r16, r19
    1ad8:	24 e6       	ldi	r18, 0x64	; 100
    1ada:	30 e0       	ldi	r19, 0x00	; 0
    1adc:	40 e0       	ldi	r20, 0x00	; 0
    1ade:	50 e0       	ldi	r21, 0x00	; 0
    1ae0:	0e 94 a9 18 	call	0x3152	; 0x3152 <__divmodsi4>
    1ae4:	3f 93       	push	r19
    1ae6:	2f 93       	push	r18
    1ae8:	0f 93       	push	r16
    1aea:	1f 93       	push	r17
    1aec:	60 91 c4 20 	lds	r22, 0x20C4	; 0x8020c4 <volt>
    1af0:	70 91 c5 20 	lds	r23, 0x20C5	; 0x8020c5 <volt+0x1>
    1af4:	80 91 c6 20 	lds	r24, 0x20C6	; 0x8020c6 <volt+0x2>
    1af8:	90 91 c7 20 	lds	r25, 0x20C7	; 0x8020c7 <volt+0x3>
    1afc:	0e 94 a2 15 	call	0x2b44	; 0x2b44 <__fixsfsi>
    1b00:	7f 93       	push	r23
    1b02:	6f 93       	push	r22
    1b04:	23 e3       	ldi	r18, 0x33	; 51
    1b06:	33 e9       	ldi	r19, 0x93	; 147
    1b08:	48 e8       	ldi	r20, 0x88	; 136
    1b0a:	53 e4       	ldi	r21, 0x43	; 67
    1b0c:	60 91 cc 20 	lds	r22, 0x20CC	; 0x8020cc <temp>
    1b10:	70 91 cd 20 	lds	r23, 0x20CD	; 0x8020cd <temp+0x1>
    1b14:	80 91 ce 20 	lds	r24, 0x20CE	; 0x8020ce <temp+0x2>
    1b18:	90 91 cf 20 	lds	r25, 0x20CF	; 0x8020cf <temp+0x3>
    1b1c:	42 d7       	rcall	.+3716   	; 0x29a2 <__subsf3>
    1b1e:	0e 94 a2 15 	call	0x2b44	; 0x2b44 <__fixsfsi>
    1b22:	7f 93       	push	r23
    1b24:	6f 93       	push	r22
    1b26:	60 91 d0 20 	lds	r22, 0x20D0	; 0x8020d0 <press>
    1b2a:	70 91 d1 20 	lds	r23, 0x20D1	; 0x8020d1 <press+0x1>
    1b2e:	80 91 d2 20 	lds	r24, 0x20D2	; 0x8020d2 <press+0x2>
    1b32:	90 91 d3 20 	lds	r25, 0x20D3	; 0x8020d3 <press+0x3>
    1b36:	0e 94 a2 15 	call	0x2b44	; 0x2b44 <__fixsfsi>
    1b3a:	9f 93       	push	r25
    1b3c:	8f 93       	push	r24
    1b3e:	7f 93       	push	r23
    1b40:	6f 93       	push	r22
    1b42:	60 91 c8 20 	lds	r22, 0x20C8	; 0x8020c8 <alt>
    1b46:	70 91 c9 20 	lds	r23, 0x20C9	; 0x8020c9 <alt+0x1>
    1b4a:	80 91 ca 20 	lds	r24, 0x20CA	; 0x8020ca <alt+0x2>
    1b4e:	90 91 cb 20 	lds	r25, 0x20CB	; 0x8020cb <alt+0x3>
    1b52:	f8 d7       	rcall	.+4080   	; 0x2b44 <__fixsfsi>
    1b54:	7f 93       	push	r23
    1b56:	6f 93       	push	r22
    1b58:	ff 92       	push	r15
    1b5a:	ef 92       	push	r14
    1b5c:	3f 92       	push	r3
    1b5e:	2f 92       	push	r2
    1b60:	80 91 18 20 	lds	r24, 0x2018	; 0x802018 <format+0x1>
    1b64:	8f 93       	push	r24
    1b66:	80 91 17 20 	lds	r24, 0x2017	; 0x802017 <format>
    1b6a:	8f 93       	push	r24
    1b6c:	df 92       	push	r13
    1b6e:	cf 92       	push	r12
    1b70:	0e 94 41 19 	call	0x3282	; 0x3282 <sprintf>
    1b74:	cd bf       	out	0x3d, r28	; 61
    1b76:	de bf       	out	0x3e, r29	; 62
    1b78:	5a ce       	rjmp	.-844    	; 0x182e <main+0x86>

00001b7a <reset>:
    1b7a:	10 92 d0 20 	sts	0x20D0, r1	; 0x8020d0 <press>
    1b7e:	10 92 d1 20 	sts	0x20D1, r1	; 0x8020d1 <press+0x1>
    1b82:	10 92 d2 20 	sts	0x20D2, r1	; 0x8020d2 <press+0x2>
    1b86:	10 92 d3 20 	sts	0x20D3, r1	; 0x8020d3 <press+0x3>
    1b8a:	10 92 cc 20 	sts	0x20CC, r1	; 0x8020cc <temp>
    1b8e:	10 92 cd 20 	sts	0x20CD, r1	; 0x8020cd <temp+0x1>
    1b92:	10 92 ce 20 	sts	0x20CE, r1	; 0x8020ce <temp+0x2>
    1b96:	10 92 cf 20 	sts	0x20CF, r1	; 0x8020cf <temp+0x3>
    1b9a:	10 92 c8 20 	sts	0x20C8, r1	; 0x8020c8 <alt>
    1b9e:	10 92 c9 20 	sts	0x20C9, r1	; 0x8020c9 <alt+0x1>
    1ba2:	10 92 ca 20 	sts	0x20CA, r1	; 0x8020ca <alt+0x2>
    1ba6:	10 92 cb 20 	sts	0x20CB, r1	; 0x8020cb <alt+0x3>
    1baa:	10 92 c4 20 	sts	0x20C4, r1	; 0x8020c4 <volt>
    1bae:	10 92 c5 20 	sts	0x20C5, r1	; 0x8020c5 <volt+0x1>
    1bb2:	10 92 c6 20 	sts	0x20C6, r1	; 0x8020c6 <volt+0x2>
    1bb6:	10 92 c7 20 	sts	0x20C7, r1	; 0x8020c7 <volt+0x3>
    1bba:	10 92 c0 20 	sts	0x20C0, r1	; 0x8020c0 <velocity>
    1bbe:	10 92 c1 20 	sts	0x20C1, r1	; 0x8020c1 <velocity+0x1>
    1bc2:	10 92 c2 20 	sts	0x20C2, r1	; 0x8020c2 <velocity+0x2>
    1bc6:	10 92 c3 20 	sts	0x20C3, r1	; 0x8020c3 <velocity+0x3>
    1bca:	10 92 bc 20 	sts	0x20BC, r1	; 0x8020bc <gps_t>
    1bce:	10 92 bd 20 	sts	0x20BD, r1	; 0x8020bd <gps_t+0x1>
    1bd2:	10 92 be 20 	sts	0x20BE, r1	; 0x8020be <gps_t+0x2>
    1bd6:	10 92 bf 20 	sts	0x20BF, r1	; 0x8020bf <gps_t+0x3>
    1bda:	10 92 b8 20 	sts	0x20B8, r1	; 0x8020b8 <gps_lat>
    1bde:	10 92 b9 20 	sts	0x20B9, r1	; 0x8020b9 <gps_lat+0x1>
    1be2:	10 92 ba 20 	sts	0x20BA, r1	; 0x8020ba <gps_lat+0x2>
    1be6:	10 92 bb 20 	sts	0x20BB, r1	; 0x8020bb <gps_lat+0x3>
    1bea:	10 92 b4 20 	sts	0x20B4, r1	; 0x8020b4 <gps_long>
    1bee:	10 92 b5 20 	sts	0x20B5, r1	; 0x8020b5 <gps_long+0x1>
    1bf2:	10 92 b6 20 	sts	0x20B6, r1	; 0x8020b6 <gps_long+0x2>
    1bf6:	10 92 b7 20 	sts	0x20B7, r1	; 0x8020b7 <gps_long+0x3>
    1bfa:	10 92 b0 20 	sts	0x20B0, r1	; 0x8020b0 <gps_alt>
    1bfe:	10 92 b1 20 	sts	0x20B1, r1	; 0x8020b1 <gps_alt+0x1>
    1c02:	10 92 b2 20 	sts	0x20B2, r1	; 0x8020b2 <gps_alt+0x2>
    1c06:	10 92 b3 20 	sts	0x20B3, r1	; 0x8020b3 <gps_alt+0x3>
    1c0a:	10 92 ae 20 	sts	0x20AE, r1	; 0x8020ae <gps_sats>
    1c0e:	10 92 af 20 	sts	0x20AF, r1	; 0x8020af <gps_sats+0x1>
    1c12:	10 92 aa 20 	sts	0x20AA, r1	; 0x8020aa <pitch>
    1c16:	10 92 ab 20 	sts	0x20AB, r1	; 0x8020ab <pitch+0x1>
    1c1a:	10 92 ac 20 	sts	0x20AC, r1	; 0x8020ac <pitch+0x2>
    1c1e:	10 92 ad 20 	sts	0x20AD, r1	; 0x8020ad <pitch+0x3>
    1c22:	10 92 a6 20 	sts	0x20A6, r1	; 0x8020a6 <roll>
    1c26:	10 92 a7 20 	sts	0x20A7, r1	; 0x8020a7 <roll+0x1>
    1c2a:	10 92 a8 20 	sts	0x20A8, r1	; 0x8020a8 <roll+0x2>
    1c2e:	10 92 a9 20 	sts	0x20A9, r1	; 0x8020a9 <roll+0x3>
    1c32:	10 92 a2 20 	sts	0x20A2, r1	; 0x8020a2 <rpm>
    1c36:	10 92 a3 20 	sts	0x20A3, r1	; 0x8020a3 <rpm+0x1>
    1c3a:	10 92 a4 20 	sts	0x20A4, r1	; 0x8020a4 <rpm+0x2>
    1c3e:	10 92 a5 20 	sts	0x20A5, r1	; 0x8020a5 <rpm+0x3>
    1c42:	10 92 9e 20 	sts	0x209E, r1	; 0x80209e <__data_end>
    1c46:	10 92 9f 20 	sts	0x209F, r1	; 0x80209f <__data_end+0x1>
    1c4a:	10 92 a0 20 	sts	0x20A0, r1	; 0x8020a0 <__data_end+0x2>
    1c4e:	10 92 a1 20 	sts	0x20A1, r1	; 0x8020a1 <__data_end+0x3>
    1c52:	10 92 ef 20 	sts	0x20EF, r1	; 0x8020ef <state>
    1c56:	10 92 ee 20 	sts	0x20EE, r1	; 0x8020ee <released>
    1c5a:	53 dd       	rcall	.-1370   	; 0x1702 <system_init>
    1c5c:	81 e0       	ldi	r24, 0x01	; 1
    1c5e:	80 93 ed 20 	sts	0x20ED, r24	; 0x8020ed <reset_received>
    1c62:	08 95       	ret

00001c64 <cali_alt>:
    1c64:	80 91 d0 20 	lds	r24, 0x20D0	; 0x8020d0 <press>
    1c68:	90 91 d1 20 	lds	r25, 0x20D1	; 0x8020d1 <press+0x1>
    1c6c:	a0 91 d2 20 	lds	r26, 0x20D2	; 0x8020d2 <press+0x2>
    1c70:	b0 91 d3 20 	lds	r27, 0x20D3	; 0x8020d3 <press+0x3>
    1c74:	80 93 2d 20 	sts	0x202D, r24	; 0x80202d <ground_p>
    1c78:	90 93 2e 20 	sts	0x202E, r25	; 0x80202e <ground_p+0x1>
    1c7c:	a0 93 2f 20 	sts	0x202F, r26	; 0x80202f <ground_p+0x2>
    1c80:	b0 93 30 20 	sts	0x2030, r27	; 0x802030 <ground_p+0x3>
    1c84:	80 91 c8 20 	lds	r24, 0x20C8	; 0x8020c8 <alt>
    1c88:	90 91 c9 20 	lds	r25, 0x20C9	; 0x8020c9 <alt+0x1>
    1c8c:	a0 91 ca 20 	lds	r26, 0x20CA	; 0x8020ca <alt+0x2>
    1c90:	b0 91 cb 20 	lds	r27, 0x20CB	; 0x8020cb <alt+0x3>
    1c94:	80 93 e9 20 	sts	0x20E9, r24	; 0x8020e9 <ground_a>
    1c98:	90 93 ea 20 	sts	0x20EA, r25	; 0x8020ea <ground_a+0x1>
    1c9c:	a0 93 eb 20 	sts	0x20EB, r26	; 0x8020eb <ground_a+0x2>
    1ca0:	b0 93 ec 20 	sts	0x20EC, r27	; 0x8020ec <ground_a+0x3>
    1ca4:	83 e3       	ldi	r24, 0x33	; 51
    1ca6:	93 e1       	ldi	r25, 0x13	; 19
    1ca8:	a0 e9       	ldi	r26, 0x90	; 144
    1caa:	b3 e4       	ldi	r27, 0x43	; 67
    1cac:	80 93 29 20 	sts	0x2029, r24	; 0x802029 <ground_t>
    1cb0:	90 93 2a 20 	sts	0x202A, r25	; 0x80202a <ground_t+0x1>
    1cb4:	a0 93 2b 20 	sts	0x202B, r26	; 0x80202b <ground_t+0x2>
    1cb8:	b0 93 2c 20 	sts	0x202C, r27	; 0x80202c <ground_t+0x3>
    1cbc:	08 95       	ret

00001cbe <send_gps>:
    1cbe:	8f 92       	push	r8
    1cc0:	9f 92       	push	r9
    1cc2:	af 92       	push	r10
    1cc4:	bf 92       	push	r11
    1cc6:	cf 92       	push	r12
    1cc8:	df 92       	push	r13
    1cca:	ef 92       	push	r14
    1ccc:	ff 92       	push	r15
    1cce:	0f 93       	push	r16
    1cd0:	1f 93       	push	r17
    1cd2:	cf 93       	push	r28
    1cd4:	df 93       	push	r29
    1cd6:	cd b7       	in	r28, 0x3d	; 61
    1cd8:	de b7       	in	r29, 0x3e	; 62
    1cda:	c6 54       	subi	r28, 0x46	; 70
    1cdc:	d1 09       	sbc	r29, r1
    1cde:	cd bf       	out	0x3d, r28	; 61
    1ce0:	de bf       	out	0x3e, r29	; 62
    1ce2:	60 91 b4 20 	lds	r22, 0x20B4	; 0x8020b4 <gps_long>
    1ce6:	70 91 b5 20 	lds	r23, 0x20B5	; 0x8020b5 <gps_long+0x1>
    1cea:	80 91 b6 20 	lds	r24, 0x20B6	; 0x8020b6 <gps_long+0x2>
    1cee:	90 91 b7 20 	lds	r25, 0x20B7	; 0x8020b7 <gps_long+0x3>
    1cf2:	28 d7       	rcall	.+3664   	; 0x2b44 <__fixsfsi>
    1cf4:	16 2f       	mov	r17, r22
    1cf6:	07 2f       	mov	r16, r23
    1cf8:	c0 90 b8 20 	lds	r12, 0x20B8	; 0x8020b8 <gps_lat>
    1cfc:	d0 90 b9 20 	lds	r13, 0x20B9	; 0x8020b9 <gps_lat+0x1>
    1d00:	e0 90 ba 20 	lds	r14, 0x20BA	; 0x8020ba <gps_lat+0x2>
    1d04:	f0 90 bb 20 	lds	r15, 0x20BB	; 0x8020bb <gps_lat+0x3>
    1d08:	a6 2f       	mov	r26, r22
    1d0a:	b7 2f       	mov	r27, r23
    1d0c:	bb 23       	and	r27, r27
    1d0e:	1c f4       	brge	.+6      	; 0x1d16 <send_gps+0x58>
    1d10:	b1 95       	neg	r27
    1d12:	a1 95       	neg	r26
    1d14:	b1 09       	sbc	r27, r1
    1d16:	20 e4       	ldi	r18, 0x40	; 64
    1d18:	32 e4       	ldi	r19, 0x42	; 66
    1d1a:	4f e0       	ldi	r20, 0x0F	; 15
    1d1c:	50 e0       	ldi	r21, 0x00	; 0
    1d1e:	0e 94 cf 18 	call	0x319e	; 0x319e <__mulshisi3>
    1d22:	0f 2e       	mov	r0, r31
    1d24:	f0 e4       	ldi	r31, 0x40	; 64
    1d26:	8f 2e       	mov	r8, r31
    1d28:	f2 e4       	ldi	r31, 0x42	; 66
    1d2a:	9f 2e       	mov	r9, r31
    1d2c:	ff e0       	ldi	r31, 0x0F	; 15
    1d2e:	af 2e       	mov	r10, r31
    1d30:	b1 2c       	mov	r11, r1
    1d32:	f0 2d       	mov	r31, r0
    1d34:	0e 94 a9 18 	call	0x3152	; 0x3152 <__divmodsi4>
    1d38:	9f 93       	push	r25
    1d3a:	8f 93       	push	r24
    1d3c:	7f 93       	push	r23
    1d3e:	6f 93       	push	r22
    1d40:	0f 93       	push	r16
    1d42:	1f 93       	push	r17
    1d44:	20 e0       	ldi	r18, 0x00	; 0
    1d46:	34 e2       	ldi	r19, 0x24	; 36
    1d48:	44 e7       	ldi	r20, 0x74	; 116
    1d4a:	59 e4       	ldi	r21, 0x49	; 73
    1d4c:	c7 01       	movw	r24, r14
    1d4e:	b6 01       	movw	r22, r12
    1d50:	0e 94 b5 16 	call	0x2d6a	; 0x2d6a <__mulsf3>
    1d54:	f7 d6       	rcall	.+3566   	; 0x2b44 <__fixsfsi>
    1d56:	a5 01       	movw	r20, r10
    1d58:	94 01       	movw	r18, r8
    1d5a:	0e 94 a9 18 	call	0x3152	; 0x3152 <__divmodsi4>
    1d5e:	9f 93       	push	r25
    1d60:	8f 93       	push	r24
    1d62:	7f 93       	push	r23
    1d64:	6f 93       	push	r22
    1d66:	c7 01       	movw	r24, r14
    1d68:	b6 01       	movw	r22, r12
    1d6a:	ec d6       	rcall	.+3544   	; 0x2b44 <__fixsfsi>
    1d6c:	7f 93       	push	r23
    1d6e:	6f 93       	push	r22
    1d70:	80 91 15 20 	lds	r24, 0x2015	; 0x802015 <gps_msg+0x1>
    1d74:	8f 93       	push	r24
    1d76:	80 91 14 20 	lds	r24, 0x2014	; 0x802014 <gps_msg>
    1d7a:	8f 93       	push	r24
    1d7c:	8e 01       	movw	r16, r28
    1d7e:	0f 5f       	subi	r16, 0xFF	; 255
    1d80:	1f 4f       	sbci	r17, 0xFF	; 255
    1d82:	1f 93       	push	r17
    1d84:	0f 93       	push	r16
    1d86:	0e 94 41 19 	call	0x3282	; 0x3282 <sprintf>
    1d8a:	1f 93       	push	r17
    1d8c:	0f 93       	push	r16
    1d8e:	0e 94 2e 19 	call	0x325c	; 0x325c <printf>
    1d92:	cd bf       	out	0x3d, r28	; 61
    1d94:	de bf       	out	0x3e, r29	; 62
    1d96:	ca 5b       	subi	r28, 0xBA	; 186
    1d98:	df 4f       	sbci	r29, 0xFF	; 255
    1d9a:	cd bf       	out	0x3d, r28	; 61
    1d9c:	de bf       	out	0x3e, r29	; 62
    1d9e:	df 91       	pop	r29
    1da0:	cf 91       	pop	r28
    1da2:	1f 91       	pop	r17
    1da4:	0f 91       	pop	r16
    1da6:	ff 90       	pop	r15
    1da8:	ef 90       	pop	r14
    1daa:	df 90       	pop	r13
    1dac:	cf 90       	pop	r12
    1dae:	bf 90       	pop	r11
    1db0:	af 90       	pop	r10
    1db2:	9f 90       	pop	r9
    1db4:	8f 90       	pop	r8
    1db6:	08 95       	ret

00001db8 <packet>:
    1db8:	4f 92       	push	r4
    1dba:	5f 92       	push	r5
    1dbc:	6f 92       	push	r6
    1dbe:	7f 92       	push	r7
    1dc0:	8f 92       	push	r8
    1dc2:	9f 92       	push	r9
    1dc4:	af 92       	push	r10
    1dc6:	bf 92       	push	r11
    1dc8:	cf 92       	push	r12
    1dca:	df 92       	push	r13
    1dcc:	ef 92       	push	r14
    1dce:	ff 92       	push	r15
    1dd0:	cf 93       	push	r28
    1dd2:	df 93       	push	r29
    1dd4:	60 91 b0 20 	lds	r22, 0x20B0	; 0x8020b0 <gps_alt>
    1dd8:	70 91 b1 20 	lds	r23, 0x20B1	; 0x8020b1 <gps_alt+0x1>
    1ddc:	80 91 b2 20 	lds	r24, 0x20B2	; 0x8020b2 <gps_alt+0x2>
    1de0:	90 91 b3 20 	lds	r25, 0x20B3	; 0x8020b3 <gps_alt+0x3>
    1de4:	af d6       	rcall	.+3422   	; 0x2b44 <__fixsfsi>
    1de6:	c6 2f       	mov	r28, r22
    1de8:	d7 2f       	mov	r29, r23
    1dea:	40 90 b4 20 	lds	r4, 0x20B4	; 0x8020b4 <gps_long>
    1dee:	50 90 b5 20 	lds	r5, 0x20B5	; 0x8020b5 <gps_long+0x1>
    1df2:	60 90 b6 20 	lds	r6, 0x20B6	; 0x8020b6 <gps_long+0x2>
    1df6:	70 90 b7 20 	lds	r7, 0x20B7	; 0x8020b7 <gps_long+0x3>
    1dfa:	80 90 b8 20 	lds	r8, 0x20B8	; 0x8020b8 <gps_lat>
    1dfe:	90 90 b9 20 	lds	r9, 0x20B9	; 0x8020b9 <gps_lat+0x1>
    1e02:	a0 90 ba 20 	lds	r10, 0x20BA	; 0x8020ba <gps_lat+0x2>
    1e06:	b0 90 bb 20 	lds	r11, 0x20BB	; 0x8020bb <gps_lat+0x3>
    1e0a:	60 91 bc 20 	lds	r22, 0x20BC	; 0x8020bc <gps_t>
    1e0e:	70 91 bd 20 	lds	r23, 0x20BD	; 0x8020bd <gps_t+0x1>
    1e12:	80 91 be 20 	lds	r24, 0x20BE	; 0x8020be <gps_t+0x2>
    1e16:	90 91 bf 20 	lds	r25, 0x20BF	; 0x8020bf <gps_t+0x3>
    1e1a:	94 d6       	rcall	.+3368   	; 0x2b44 <__fixsfsi>
    1e1c:	6b 01       	movw	r12, r22
    1e1e:	7c 01       	movw	r14, r24
    1e20:	60 91 9e 20 	lds	r22, 0x209E	; 0x80209e <__data_end>
    1e24:	70 91 9f 20 	lds	r23, 0x209F	; 0x80209f <__data_end+0x1>
    1e28:	80 91 a0 20 	lds	r24, 0x20A0	; 0x8020a0 <__data_end+0x2>
    1e2c:	90 91 a1 20 	lds	r25, 0x20A1	; 0x8020a1 <__data_end+0x3>
    1e30:	89 d6       	rcall	.+3346   	; 0x2b44 <__fixsfsi>
    1e32:	7f 93       	push	r23
    1e34:	6f 93       	push	r22
    1e36:	80 91 ef 20 	lds	r24, 0x20EF	; 0x8020ef <state>
    1e3a:	1f 92       	push	r1
    1e3c:	8f 93       	push	r24
    1e3e:	60 91 a2 20 	lds	r22, 0x20A2	; 0x8020a2 <rpm>
    1e42:	70 91 a3 20 	lds	r23, 0x20A3	; 0x8020a3 <rpm+0x1>
    1e46:	80 91 a4 20 	lds	r24, 0x20A4	; 0x8020a4 <rpm+0x2>
    1e4a:	90 91 a5 20 	lds	r25, 0x20A5	; 0x8020a5 <rpm+0x3>
    1e4e:	7a d6       	rcall	.+3316   	; 0x2b44 <__fixsfsi>
    1e50:	7f 93       	push	r23
    1e52:	6f 93       	push	r22
    1e54:	60 91 a6 20 	lds	r22, 0x20A6	; 0x8020a6 <roll>
    1e58:	70 91 a7 20 	lds	r23, 0x20A7	; 0x8020a7 <roll+0x1>
    1e5c:	80 91 a8 20 	lds	r24, 0x20A8	; 0x8020a8 <roll+0x2>
    1e60:	90 91 a9 20 	lds	r25, 0x20A9	; 0x8020a9 <roll+0x3>
    1e64:	6f d6       	rcall	.+3294   	; 0x2b44 <__fixsfsi>
    1e66:	7f 93       	push	r23
    1e68:	6f 93       	push	r22
    1e6a:	60 91 aa 20 	lds	r22, 0x20AA	; 0x8020aa <pitch>
    1e6e:	70 91 ab 20 	lds	r23, 0x20AB	; 0x8020ab <pitch+0x1>
    1e72:	80 91 ac 20 	lds	r24, 0x20AC	; 0x8020ac <pitch+0x2>
    1e76:	90 91 ad 20 	lds	r25, 0x20AD	; 0x8020ad <pitch+0x3>
    1e7a:	64 d6       	rcall	.+3272   	; 0x2b44 <__fixsfsi>
    1e7c:	7f 93       	push	r23
    1e7e:	6f 93       	push	r22
    1e80:	80 91 af 20 	lds	r24, 0x20AF	; 0x8020af <gps_sats+0x1>
    1e84:	8f 93       	push	r24
    1e86:	80 91 ae 20 	lds	r24, 0x20AE	; 0x8020ae <gps_sats>
    1e8a:	8f 93       	push	r24
    1e8c:	8c 2f       	mov	r24, r28
    1e8e:	9d 2f       	mov	r25, r29
    1e90:	88 0f       	add	r24, r24
    1e92:	99 1f       	adc	r25, r25
    1e94:	9c 01       	movw	r18, r24
    1e96:	22 0f       	add	r18, r18
    1e98:	33 1f       	adc	r19, r19
    1e9a:	22 0f       	add	r18, r18
    1e9c:	33 1f       	adc	r19, r19
    1e9e:	82 0f       	add	r24, r18
    1ea0:	93 1f       	adc	r25, r19
    1ea2:	6a e0       	ldi	r22, 0x0A	; 10
    1ea4:	70 e0       	ldi	r23, 0x00	; 0
    1ea6:	0e 94 74 18 	call	0x30e8	; 0x30e8 <__divmodhi4>
    1eaa:	9f 93       	push	r25
    1eac:	8f 93       	push	r24
    1eae:	df 93       	push	r29
    1eb0:	cf 93       	push	r28
    1eb2:	20 e0       	ldi	r18, 0x00	; 0
    1eb4:	34 e2       	ldi	r19, 0x24	; 36
    1eb6:	44 e7       	ldi	r20, 0x74	; 116
    1eb8:	59 e4       	ldi	r21, 0x49	; 73
    1eba:	c3 01       	movw	r24, r6
    1ebc:	b2 01       	movw	r22, r4
    1ebe:	55 d7       	rcall	.+3754   	; 0x2d6a <__mulsf3>
    1ec0:	41 d6       	rcall	.+3202   	; 0x2b44 <__fixsfsi>
    1ec2:	20 e4       	ldi	r18, 0x40	; 64
    1ec4:	32 e4       	ldi	r19, 0x42	; 66
    1ec6:	4f e0       	ldi	r20, 0x0F	; 15
    1ec8:	50 e0       	ldi	r21, 0x00	; 0
    1eca:	0e 94 a9 18 	call	0x3152	; 0x3152 <__divmodsi4>
    1ece:	9b 01       	movw	r18, r22
    1ed0:	77 23       	and	r23, r23
    1ed2:	24 f4       	brge	.+8      	; 0x1edc <packet+0x124>
    1ed4:	22 27       	eor	r18, r18
    1ed6:	33 27       	eor	r19, r19
    1ed8:	26 1b       	sub	r18, r22
    1eda:	37 0b       	sbc	r19, r23
    1edc:	c9 01       	movw	r24, r18
    1ede:	33 0f       	add	r19, r19
    1ee0:	aa 0b       	sbc	r26, r26
    1ee2:	bb 0b       	sbc	r27, r27
    1ee4:	bf 93       	push	r27
    1ee6:	af 93       	push	r26
    1ee8:	9f 93       	push	r25
    1eea:	8f 93       	push	r24
    1eec:	c3 01       	movw	r24, r6
    1eee:	b2 01       	movw	r22, r4
    1ef0:	29 d6       	rcall	.+3154   	; 0x2b44 <__fixsfsi>
    1ef2:	7f 93       	push	r23
    1ef4:	6f 93       	push	r22
    1ef6:	20 e0       	ldi	r18, 0x00	; 0
    1ef8:	34 e2       	ldi	r19, 0x24	; 36
    1efa:	44 e7       	ldi	r20, 0x74	; 116
    1efc:	59 e4       	ldi	r21, 0x49	; 73
    1efe:	c5 01       	movw	r24, r10
    1f00:	b4 01       	movw	r22, r8
    1f02:	33 d7       	rcall	.+3686   	; 0x2d6a <__mulsf3>
    1f04:	1f d6       	rcall	.+3134   	; 0x2b44 <__fixsfsi>
    1f06:	20 e4       	ldi	r18, 0x40	; 64
    1f08:	32 e4       	ldi	r19, 0x42	; 66
    1f0a:	4f e0       	ldi	r20, 0x0F	; 15
    1f0c:	50 e0       	ldi	r21, 0x00	; 0
    1f0e:	0e 94 a9 18 	call	0x3152	; 0x3152 <__divmodsi4>
    1f12:	9f 93       	push	r25
    1f14:	8f 93       	push	r24
    1f16:	7f 93       	push	r23
    1f18:	6f 93       	push	r22
    1f1a:	c5 01       	movw	r24, r10
    1f1c:	b4 01       	movw	r22, r8
    1f1e:	12 d6       	rcall	.+3108   	; 0x2b44 <__fixsfsi>
    1f20:	7f 93       	push	r23
    1f22:	6f 93       	push	r22
    1f24:	0f 2e       	mov	r0, r31
    1f26:	f4 e6       	ldi	r31, 0x64	; 100
    1f28:	8f 2e       	mov	r8, r31
    1f2a:	91 2c       	mov	r9, r1
    1f2c:	a1 2c       	mov	r10, r1
    1f2e:	b1 2c       	mov	r11, r1
    1f30:	f0 2d       	mov	r31, r0
    1f32:	c7 01       	movw	r24, r14
    1f34:	b6 01       	movw	r22, r12
    1f36:	a5 01       	movw	r20, r10
    1f38:	94 01       	movw	r18, r8
    1f3a:	0e 94 a9 18 	call	0x3152	; 0x3152 <__divmodsi4>
    1f3e:	7f 93       	push	r23
    1f40:	6f 93       	push	r22
    1f42:	c7 01       	movw	r24, r14
    1f44:	b6 01       	movw	r22, r12
    1f46:	20 e1       	ldi	r18, 0x10	; 16
    1f48:	37 e2       	ldi	r19, 0x27	; 39
    1f4a:	40 e0       	ldi	r20, 0x00	; 0
    1f4c:	50 e0       	ldi	r21, 0x00	; 0
    1f4e:	0e 94 a9 18 	call	0x3152	; 0x3152 <__divmodsi4>
    1f52:	c2 2f       	mov	r28, r18
    1f54:	d3 2f       	mov	r29, r19
    1f56:	a5 01       	movw	r20, r10
    1f58:	94 01       	movw	r18, r8
    1f5a:	0e 94 a9 18 	call	0x3152	; 0x3152 <__divmodsi4>
    1f5e:	3f 93       	push	r19
    1f60:	2f 93       	push	r18
    1f62:	df 93       	push	r29
    1f64:	cf 93       	push	r28
    1f66:	60 91 c4 20 	lds	r22, 0x20C4	; 0x8020c4 <volt>
    1f6a:	70 91 c5 20 	lds	r23, 0x20C5	; 0x8020c5 <volt+0x1>
    1f6e:	80 91 c6 20 	lds	r24, 0x20C6	; 0x8020c6 <volt+0x2>
    1f72:	90 91 c7 20 	lds	r25, 0x20C7	; 0x8020c7 <volt+0x3>
    1f76:	e6 d5       	rcall	.+3020   	; 0x2b44 <__fixsfsi>
    1f78:	7f 93       	push	r23
    1f7a:	6f 93       	push	r22
    1f7c:	23 e3       	ldi	r18, 0x33	; 51
    1f7e:	33 e9       	ldi	r19, 0x93	; 147
    1f80:	48 e8       	ldi	r20, 0x88	; 136
    1f82:	53 e4       	ldi	r21, 0x43	; 67
    1f84:	60 91 cc 20 	lds	r22, 0x20CC	; 0x8020cc <temp>
    1f88:	70 91 cd 20 	lds	r23, 0x20CD	; 0x8020cd <temp+0x1>
    1f8c:	80 91 ce 20 	lds	r24, 0x20CE	; 0x8020ce <temp+0x2>
    1f90:	90 91 cf 20 	lds	r25, 0x20CF	; 0x8020cf <temp+0x3>
    1f94:	06 d5       	rcall	.+2572   	; 0x29a2 <__subsf3>
    1f96:	d6 d5       	rcall	.+2988   	; 0x2b44 <__fixsfsi>
    1f98:	7f 93       	push	r23
    1f9a:	6f 93       	push	r22
    1f9c:	60 91 d0 20 	lds	r22, 0x20D0	; 0x8020d0 <press>
    1fa0:	70 91 d1 20 	lds	r23, 0x20D1	; 0x8020d1 <press+0x1>
    1fa4:	80 91 d2 20 	lds	r24, 0x20D2	; 0x8020d2 <press+0x2>
    1fa8:	90 91 d3 20 	lds	r25, 0x20D3	; 0x8020d3 <press+0x3>
    1fac:	cb d5       	rcall	.+2966   	; 0x2b44 <__fixsfsi>
    1fae:	9f 93       	push	r25
    1fb0:	8f 93       	push	r24
    1fb2:	7f 93       	push	r23
    1fb4:	6f 93       	push	r22
    1fb6:	60 91 c8 20 	lds	r22, 0x20C8	; 0x8020c8 <alt>
    1fba:	70 91 c9 20 	lds	r23, 0x20C9	; 0x8020c9 <alt+0x1>
    1fbe:	80 91 ca 20 	lds	r24, 0x20CA	; 0x8020ca <alt+0x2>
    1fc2:	90 91 cb 20 	lds	r25, 0x20CB	; 0x8020cb <alt+0x3>
    1fc6:	be d5       	rcall	.+2940   	; 0x2b44 <__fixsfsi>
    1fc8:	7f 93       	push	r23
    1fca:	6f 93       	push	r22
    1fcc:	80 91 d5 20 	lds	r24, 0x20D5	; 0x8020d5 <packets+0x1>
    1fd0:	8f 93       	push	r24
    1fd2:	80 91 d4 20 	lds	r24, 0x20D4	; 0x8020d4 <packets>
    1fd6:	8f 93       	push	r24
    1fd8:	80 91 d7 20 	lds	r24, 0x20D7	; 0x8020d7 <timer+0x1>
    1fdc:	8f 93       	push	r24
    1fde:	80 91 d6 20 	lds	r24, 0x20D6	; 0x8020d6 <timer>
    1fe2:	8f 93       	push	r24
    1fe4:	80 91 18 20 	lds	r24, 0x2018	; 0x802018 <format+0x1>
    1fe8:	8f 93       	push	r24
    1fea:	80 91 17 20 	lds	r24, 0x2017	; 0x802017 <format>
    1fee:	8f 93       	push	r24
    1ff0:	cc e0       	ldi	r28, 0x0C	; 12
    1ff2:	d1 e2       	ldi	r29, 0x21	; 33
    1ff4:	df 93       	push	r29
    1ff6:	cf 93       	push	r28
    1ff8:	0e 94 41 19 	call	0x3282	; 0x3282 <sprintf>
    1ffc:	8d b7       	in	r24, 0x3d	; 61
    1ffe:	9e b7       	in	r25, 0x3e	; 62
    2000:	c4 96       	adiw	r24, 0x34	; 52
    2002:	8d bf       	out	0x3d, r24	; 61
    2004:	9e bf       	out	0x3e, r25	; 62
    2006:	df 93       	push	r29
    2008:	cf 93       	push	r28
    200a:	0e 94 2e 19 	call	0x325c	; 0x325c <printf>
    200e:	0f 90       	pop	r0
    2010:	0f 90       	pop	r0
    2012:	df 91       	pop	r29
    2014:	cf 91       	pop	r28
    2016:	ff 90       	pop	r15
    2018:	ef 90       	pop	r14
    201a:	df 90       	pop	r13
    201c:	cf 90       	pop	r12
    201e:	bf 90       	pop	r11
    2020:	af 90       	pop	r10
    2022:	9f 90       	pop	r9
    2024:	8f 90       	pop	r8
    2026:	7f 90       	pop	r7
    2028:	6f 90       	pop	r6
    202a:	5f 90       	pop	r5
    202c:	4f 90       	pop	r4
    202e:	08 95       	ret

00002030 <xbee_command>:
    2030:	84 36       	cpi	r24, 0x64	; 100
    2032:	91 f0       	breq	.+36     	; 0x2058 <xbee_command+0x28>
    2034:	28 f4       	brcc	.+10     	; 0x2040 <xbee_command+0x10>
    2036:	81 36       	cpi	r24, 0x61	; 97
    2038:	69 f0       	breq	.+26     	; 0x2054 <xbee_command+0x24>
    203a:	83 36       	cpi	r24, 0x63	; 99
    203c:	49 f0       	breq	.+18     	; 0x2050 <xbee_command+0x20>
    203e:	08 95       	ret
    2040:	85 36       	cpi	r24, 0x65	; 101
    2042:	21 f0       	breq	.+8      	; 0x204c <xbee_command+0x1c>
    2044:	86 36       	cpi	r24, 0x66	; 102
    2046:	49 f4       	brne	.+18     	; 0x205a <xbee_command+0x2a>
    2048:	98 cd       	rjmp	.-1232   	; 0x1b7a <reset>
    204a:	08 95       	ret
    204c:	0b ce       	rjmp	.-1002   	; 0x1c64 <cali_alt>
    204e:	08 95       	ret
    2050:	09 ce       	rjmp	.-1006   	; 0x1c64 <cali_alt>
    2052:	08 95       	ret
    2054:	34 ce       	rjmp	.-920    	; 0x1cbe <send_gps>
    2056:	08 95       	ret
    2058:	af ce       	rjmp	.-674    	; 0x1db8 <packet>
    205a:	08 95       	ret

0000205c <__vector_47>:

ISR(TCE0_OVF_vect){
    205c:	1f 92       	push	r1
    205e:	0f 92       	push	r0
    2060:	0f b6       	in	r0, 0x3f	; 63
    2062:	0f 92       	push	r0
    2064:	11 24       	eor	r1, r1
    2066:	08 b6       	in	r0, 0x38	; 56
    2068:	0f 92       	push	r0
    206a:	18 be       	out	0x38, r1	; 56
    206c:	09 b6       	in	r0, 0x39	; 57
    206e:	0f 92       	push	r0
    2070:	19 be       	out	0x39, r1	; 57
    2072:	0a b6       	in	r0, 0x3a	; 58
    2074:	0f 92       	push	r0
    2076:	1a be       	out	0x3a, r1	; 58
    2078:	0b b6       	in	r0, 0x3b	; 59
    207a:	0f 92       	push	r0
    207c:	1b be       	out	0x3b, r1	; 59
    207e:	4f 92       	push	r4
    2080:	5f 92       	push	r5
    2082:	6f 92       	push	r6
    2084:	7f 92       	push	r7
    2086:	8f 92       	push	r8
    2088:	9f 92       	push	r9
    208a:	af 92       	push	r10
    208c:	bf 92       	push	r11
    208e:	cf 92       	push	r12
    2090:	df 92       	push	r13
    2092:	ef 92       	push	r14
    2094:	ff 92       	push	r15
    2096:	0f 93       	push	r16
    2098:	1f 93       	push	r17
    209a:	2f 93       	push	r18
    209c:	3f 93       	push	r19
    209e:	4f 93       	push	r20
    20a0:	5f 93       	push	r21
    20a2:	6f 93       	push	r22
    20a4:	7f 93       	push	r23
    20a6:	8f 93       	push	r24
    20a8:	9f 93       	push	r25
    20aa:	af 93       	push	r26
    20ac:	bf 93       	push	r27
    20ae:	cf 93       	push	r28
    20b0:	df 93       	push	r29
    20b2:	ef 93       	push	r30
    20b4:	ff 93       	push	r31
	timer++;
    20b6:	c0 91 d6 20 	lds	r28, 0x20D6	; 0x8020d6 <timer>
    20ba:	d0 91 d7 20 	lds	r29, 0x20D7	; 0x8020d7 <timer+0x1>
    20be:	21 96       	adiw	r28, 0x01	; 1
    20c0:	c0 93 d6 20 	sts	0x20D6, r28	; 0x8020d6 <timer>
    20c4:	d0 93 d7 20 	sts	0x20D7, r29	; 0x8020d7 <timer+0x1>
	sprintf(str,format,timer,packets,
	(int16_t) (alt),						(int32_t) press,							(int16_t) (temp-273.15),				(int16_t)volt,
	(int16_t) (((int32_t)gps_t)/10000),		(int16_t) ((((int32_t)gps_t)%10000)/100),	(int16_t) (((int32_t)gps_t)%100),
	(int16_t) gps_lat,						((int32_t) (gps_lat*1000000))%1000000,		(int16_t) gps_long,						(int32_t)(abs(((int32_t)(gps_long*1000000))%1000000)),
	(int16_t) gps_alt,						((int16_t) (gps_alt)*10)%10,				gps_sats,
    20c8:	60 91 b0 20 	lds	r22, 0x20B0	; 0x8020b0 <gps_alt>
    20cc:	70 91 b1 20 	lds	r23, 0x20B1	; 0x8020b1 <gps_alt+0x1>
    20d0:	80 91 b2 20 	lds	r24, 0x20B2	; 0x8020b2 <gps_alt+0x2>
    20d4:	90 91 b3 20 	lds	r25, 0x20B3	; 0x8020b3 <gps_alt+0x3>
    20d8:	35 d5       	rcall	.+2666   	; 0x2b44 <__fixsfsi>
    20da:	16 2f       	mov	r17, r22
    20dc:	07 2f       	mov	r16, r23
ISR(TCE0_OVF_vect){
	timer++;
	sprintf(str,format,timer,packets,
	(int16_t) (alt),						(int32_t) press,							(int16_t) (temp-273.15),				(int16_t)volt,
	(int16_t) (((int32_t)gps_t)/10000),		(int16_t) ((((int32_t)gps_t)%10000)/100),	(int16_t) (((int32_t)gps_t)%100),
	(int16_t) gps_lat,						((int32_t) (gps_lat*1000000))%1000000,		(int16_t) gps_long,						(int32_t)(abs(((int32_t)(gps_long*1000000))%1000000)),
    20de:	40 90 b4 20 	lds	r4, 0x20B4	; 0x8020b4 <gps_long>
    20e2:	50 90 b5 20 	lds	r5, 0x20B5	; 0x8020b5 <gps_long+0x1>
    20e6:	60 90 b6 20 	lds	r6, 0x20B6	; 0x8020b6 <gps_long+0x2>
    20ea:	70 90 b7 20 	lds	r7, 0x20B7	; 0x8020b7 <gps_long+0x3>
    20ee:	80 90 b8 20 	lds	r8, 0x20B8	; 0x8020b8 <gps_lat>
    20f2:	90 90 b9 20 	lds	r9, 0x20B9	; 0x8020b9 <gps_lat+0x1>
    20f6:	a0 90 ba 20 	lds	r10, 0x20BA	; 0x8020ba <gps_lat+0x2>
    20fa:	b0 90 bb 20 	lds	r11, 0x20BB	; 0x8020bb <gps_lat+0x3>

ISR(TCE0_OVF_vect){
	timer++;
	sprintf(str,format,timer,packets,
	(int16_t) (alt),						(int32_t) press,							(int16_t) (temp-273.15),				(int16_t)volt,
	(int16_t) (((int32_t)gps_t)/10000),		(int16_t) ((((int32_t)gps_t)%10000)/100),	(int16_t) (((int32_t)gps_t)%100),
    20fe:	60 91 bc 20 	lds	r22, 0x20BC	; 0x8020bc <gps_t>
    2102:	70 91 bd 20 	lds	r23, 0x20BD	; 0x8020bd <gps_t+0x1>
    2106:	80 91 be 20 	lds	r24, 0x20BE	; 0x8020be <gps_t+0x2>
    210a:	90 91 bf 20 	lds	r25, 0x20BF	; 0x8020bf <gps_t+0x3>
    210e:	1a d5       	rcall	.+2612   	; 0x2b44 <__fixsfsi>
    2110:	6b 01       	movw	r12, r22
    2112:	7c 01       	movw	r14, r24
	while(NVM.STATUS>>7);
}

ISR(TCE0_OVF_vect){
	timer++;
	sprintf(str,format,timer,packets,
    2114:	60 91 9e 20 	lds	r22, 0x209E	; 0x80209e <__data_end>
    2118:	70 91 9f 20 	lds	r23, 0x209F	; 0x80209f <__data_end+0x1>
    211c:	80 91 a0 20 	lds	r24, 0x20A0	; 0x8020a0 <__data_end+0x2>
    2120:	90 91 a1 20 	lds	r25, 0x20A1	; 0x8020a1 <__data_end+0x3>
    2124:	0f d5       	rcall	.+2590   	; 0x2b44 <__fixsfsi>
    2126:	7f 93       	push	r23
    2128:	6f 93       	push	r22
    212a:	80 91 ef 20 	lds	r24, 0x20EF	; 0x8020ef <state>
    212e:	1f 92       	push	r1
    2130:	8f 93       	push	r24
    2132:	60 91 a2 20 	lds	r22, 0x20A2	; 0x8020a2 <rpm>
    2136:	70 91 a3 20 	lds	r23, 0x20A3	; 0x8020a3 <rpm+0x1>
    213a:	80 91 a4 20 	lds	r24, 0x20A4	; 0x8020a4 <rpm+0x2>
    213e:	90 91 a5 20 	lds	r25, 0x20A5	; 0x8020a5 <rpm+0x3>
    2142:	00 d5       	rcall	.+2560   	; 0x2b44 <__fixsfsi>
    2144:	7f 93       	push	r23
    2146:	6f 93       	push	r22
    2148:	60 91 a6 20 	lds	r22, 0x20A6	; 0x8020a6 <roll>
    214c:	70 91 a7 20 	lds	r23, 0x20A7	; 0x8020a7 <roll+0x1>
    2150:	80 91 a8 20 	lds	r24, 0x20A8	; 0x8020a8 <roll+0x2>
    2154:	90 91 a9 20 	lds	r25, 0x20A9	; 0x8020a9 <roll+0x3>
    2158:	f5 d4       	rcall	.+2538   	; 0x2b44 <__fixsfsi>
    215a:	7f 93       	push	r23
    215c:	6f 93       	push	r22
    215e:	60 91 aa 20 	lds	r22, 0x20AA	; 0x8020aa <pitch>
    2162:	70 91 ab 20 	lds	r23, 0x20AB	; 0x8020ab <pitch+0x1>
    2166:	80 91 ac 20 	lds	r24, 0x20AC	; 0x8020ac <pitch+0x2>
    216a:	90 91 ad 20 	lds	r25, 0x20AD	; 0x8020ad <pitch+0x3>
    216e:	ea d4       	rcall	.+2516   	; 0x2b44 <__fixsfsi>
    2170:	7f 93       	push	r23
    2172:	6f 93       	push	r22
    2174:	80 91 af 20 	lds	r24, 0x20AF	; 0x8020af <gps_sats+0x1>
    2178:	8f 93       	push	r24
    217a:	80 91 ae 20 	lds	r24, 0x20AE	; 0x8020ae <gps_sats>
    217e:	8f 93       	push	r24
    2180:	81 2f       	mov	r24, r17
    2182:	90 2f       	mov	r25, r16
    2184:	88 0f       	add	r24, r24
    2186:	99 1f       	adc	r25, r25
    2188:	9c 01       	movw	r18, r24
    218a:	22 0f       	add	r18, r18
    218c:	33 1f       	adc	r19, r19
    218e:	22 0f       	add	r18, r18
    2190:	33 1f       	adc	r19, r19
    2192:	82 0f       	add	r24, r18
    2194:	93 1f       	adc	r25, r19
    2196:	6a e0       	ldi	r22, 0x0A	; 10
    2198:	70 e0       	ldi	r23, 0x00	; 0
    219a:	a6 d7       	rcall	.+3916   	; 0x30e8 <__divmodhi4>
    219c:	9f 93       	push	r25
    219e:	8f 93       	push	r24
    21a0:	0f 93       	push	r16
    21a2:	1f 93       	push	r17
    21a4:	20 e0       	ldi	r18, 0x00	; 0
    21a6:	34 e2       	ldi	r19, 0x24	; 36
    21a8:	44 e7       	ldi	r20, 0x74	; 116
    21aa:	59 e4       	ldi	r21, 0x49	; 73
    21ac:	c3 01       	movw	r24, r6
    21ae:	b2 01       	movw	r22, r4
    21b0:	dc d5       	rcall	.+3000   	; 0x2d6a <__mulsf3>
    21b2:	c8 d4       	rcall	.+2448   	; 0x2b44 <__fixsfsi>
    21b4:	20 e4       	ldi	r18, 0x40	; 64
    21b6:	32 e4       	ldi	r19, 0x42	; 66
    21b8:	4f e0       	ldi	r20, 0x0F	; 15
    21ba:	50 e0       	ldi	r21, 0x00	; 0
    21bc:	ca d7       	rcall	.+3988   	; 0x3152 <__divmodsi4>
    21be:	9b 01       	movw	r18, r22
    21c0:	77 23       	and	r23, r23
    21c2:	24 f4       	brge	.+8      	; 0x21cc <__vector_47+0x170>
    21c4:	22 27       	eor	r18, r18
    21c6:	33 27       	eor	r19, r19
    21c8:	26 1b       	sub	r18, r22
    21ca:	37 0b       	sbc	r19, r23
    21cc:	c9 01       	movw	r24, r18
    21ce:	33 0f       	add	r19, r19
    21d0:	aa 0b       	sbc	r26, r26
    21d2:	bb 0b       	sbc	r27, r27
    21d4:	bf 93       	push	r27
    21d6:	af 93       	push	r26
    21d8:	9f 93       	push	r25
    21da:	8f 93       	push	r24
    21dc:	c3 01       	movw	r24, r6
    21de:	b2 01       	movw	r22, r4
    21e0:	b1 d4       	rcall	.+2402   	; 0x2b44 <__fixsfsi>
    21e2:	7f 93       	push	r23
    21e4:	6f 93       	push	r22
    21e6:	20 e0       	ldi	r18, 0x00	; 0
    21e8:	34 e2       	ldi	r19, 0x24	; 36
    21ea:	44 e7       	ldi	r20, 0x74	; 116
    21ec:	59 e4       	ldi	r21, 0x49	; 73
    21ee:	c5 01       	movw	r24, r10
    21f0:	b4 01       	movw	r22, r8
    21f2:	bb d5       	rcall	.+2934   	; 0x2d6a <__mulsf3>
    21f4:	a7 d4       	rcall	.+2382   	; 0x2b44 <__fixsfsi>
    21f6:	20 e4       	ldi	r18, 0x40	; 64
    21f8:	32 e4       	ldi	r19, 0x42	; 66
    21fa:	4f e0       	ldi	r20, 0x0F	; 15
    21fc:	50 e0       	ldi	r21, 0x00	; 0
    21fe:	a9 d7       	rcall	.+3922   	; 0x3152 <__divmodsi4>
    2200:	9f 93       	push	r25
    2202:	8f 93       	push	r24
    2204:	7f 93       	push	r23
    2206:	6f 93       	push	r22
    2208:	c5 01       	movw	r24, r10
    220a:	b4 01       	movw	r22, r8
    220c:	9b d4       	rcall	.+2358   	; 0x2b44 <__fixsfsi>
    220e:	7f 93       	push	r23
    2210:	6f 93       	push	r22
    2212:	0f 2e       	mov	r0, r31
    2214:	f4 e6       	ldi	r31, 0x64	; 100
    2216:	8f 2e       	mov	r8, r31
    2218:	91 2c       	mov	r9, r1
    221a:	a1 2c       	mov	r10, r1
    221c:	b1 2c       	mov	r11, r1
    221e:	f0 2d       	mov	r31, r0
    2220:	c7 01       	movw	r24, r14
    2222:	b6 01       	movw	r22, r12
    2224:	a5 01       	movw	r20, r10
    2226:	94 01       	movw	r18, r8
    2228:	94 d7       	rcall	.+3880   	; 0x3152 <__divmodsi4>
    222a:	7f 93       	push	r23
    222c:	6f 93       	push	r22
    222e:	c7 01       	movw	r24, r14
    2230:	b6 01       	movw	r22, r12
    2232:	20 e1       	ldi	r18, 0x10	; 16
    2234:	37 e2       	ldi	r19, 0x27	; 39
    2236:	40 e0       	ldi	r20, 0x00	; 0
    2238:	50 e0       	ldi	r21, 0x00	; 0
    223a:	8b d7       	rcall	.+3862   	; 0x3152 <__divmodsi4>
    223c:	12 2f       	mov	r17, r18
    223e:	03 2f       	mov	r16, r19
    2240:	a5 01       	movw	r20, r10
    2242:	94 01       	movw	r18, r8
    2244:	86 d7       	rcall	.+3852   	; 0x3152 <__divmodsi4>
    2246:	3f 93       	push	r19
    2248:	2f 93       	push	r18
    224a:	0f 93       	push	r16
    224c:	1f 93       	push	r17
    224e:	60 91 c4 20 	lds	r22, 0x20C4	; 0x8020c4 <volt>
    2252:	70 91 c5 20 	lds	r23, 0x20C5	; 0x8020c5 <volt+0x1>
    2256:	80 91 c6 20 	lds	r24, 0x20C6	; 0x8020c6 <volt+0x2>
    225a:	90 91 c7 20 	lds	r25, 0x20C7	; 0x8020c7 <volt+0x3>
    225e:	72 d4       	rcall	.+2276   	; 0x2b44 <__fixsfsi>
    2260:	7f 93       	push	r23
    2262:	6f 93       	push	r22
    2264:	23 e3       	ldi	r18, 0x33	; 51
    2266:	33 e9       	ldi	r19, 0x93	; 147
    2268:	48 e8       	ldi	r20, 0x88	; 136
    226a:	53 e4       	ldi	r21, 0x43	; 67
    226c:	60 91 cc 20 	lds	r22, 0x20CC	; 0x8020cc <temp>
    2270:	70 91 cd 20 	lds	r23, 0x20CD	; 0x8020cd <temp+0x1>
    2274:	80 91 ce 20 	lds	r24, 0x20CE	; 0x8020ce <temp+0x2>
    2278:	90 91 cf 20 	lds	r25, 0x20CF	; 0x8020cf <temp+0x3>
    227c:	92 d3       	rcall	.+1828   	; 0x29a2 <__subsf3>
    227e:	62 d4       	rcall	.+2244   	; 0x2b44 <__fixsfsi>
    2280:	7f 93       	push	r23
    2282:	6f 93       	push	r22
    2284:	60 91 d0 20 	lds	r22, 0x20D0	; 0x8020d0 <press>
    2288:	70 91 d1 20 	lds	r23, 0x20D1	; 0x8020d1 <press+0x1>
    228c:	80 91 d2 20 	lds	r24, 0x20D2	; 0x8020d2 <press+0x2>
    2290:	90 91 d3 20 	lds	r25, 0x20D3	; 0x8020d3 <press+0x3>
    2294:	57 d4       	rcall	.+2222   	; 0x2b44 <__fixsfsi>
    2296:	9f 93       	push	r25
    2298:	8f 93       	push	r24
    229a:	7f 93       	push	r23
    229c:	6f 93       	push	r22
    229e:	60 91 c8 20 	lds	r22, 0x20C8	; 0x8020c8 <alt>
    22a2:	70 91 c9 20 	lds	r23, 0x20C9	; 0x8020c9 <alt+0x1>
    22a6:	80 91 ca 20 	lds	r24, 0x20CA	; 0x8020ca <alt+0x2>
    22aa:	90 91 cb 20 	lds	r25, 0x20CB	; 0x8020cb <alt+0x3>
    22ae:	4a d4       	rcall	.+2196   	; 0x2b44 <__fixsfsi>
    22b0:	7f 93       	push	r23
    22b2:	6f 93       	push	r22
    22b4:	80 91 d5 20 	lds	r24, 0x20D5	; 0x8020d5 <packets+0x1>
    22b8:	8f 93       	push	r24
    22ba:	80 91 d4 20 	lds	r24, 0x20D4	; 0x8020d4 <packets>
    22be:	8f 93       	push	r24
    22c0:	df 93       	push	r29
    22c2:	cf 93       	push	r28
    22c4:	80 91 18 20 	lds	r24, 0x2018	; 0x802018 <format+0x1>
    22c8:	8f 93       	push	r24
    22ca:	80 91 17 20 	lds	r24, 0x2017	; 0x802017 <format>
    22ce:	8f 93       	push	r24
    22d0:	cc e0       	ldi	r28, 0x0C	; 12
    22d2:	d1 e2       	ldi	r29, 0x21	; 33
    22d4:	df 93       	push	r29
    22d6:	cf 93       	push	r28
    22d8:	d4 d7       	rcall	.+4008   	; 0x3282 <sprintf>
	(int16_t) (((int32_t)gps_t)/10000),		(int16_t) ((((int32_t)gps_t)%10000)/100),	(int16_t) (((int32_t)gps_t)%100),
	(int16_t) gps_lat,						((int32_t) (gps_lat*1000000))%1000000,		(int16_t) gps_long,						(int32_t)(abs(((int32_t)(gps_long*1000000))%1000000)),
	(int16_t) gps_alt,						((int16_t) (gps_alt)*10)%10,				gps_sats,
	(int16_t) pitch,						(int16_t) roll,								(int16_t) rpm,
	state,									(int16_t)angle); // Data Logging Test
	printf(str);
    22da:	8d b7       	in	r24, 0x3d	; 61
    22dc:	9e b7       	in	r25, 0x3e	; 62
    22de:	c4 96       	adiw	r24, 0x34	; 52
    22e0:	8d bf       	out	0x3d, r24	; 61
    22e2:	9e bf       	out	0x3e, r25	; 62
    22e4:	df 93       	push	r29
    22e6:	cf 93       	push	r28
    22e8:	b9 d7       	rcall	.+3954   	; 0x325c <printf>
    22ea:	0f 90       	pop	r0
	//XBEE_spi_write(str);
}
    22ec:	0f 90       	pop	r0
    22ee:	ff 91       	pop	r31
    22f0:	ef 91       	pop	r30
    22f2:	df 91       	pop	r29
    22f4:	cf 91       	pop	r28
    22f6:	bf 91       	pop	r27
    22f8:	af 91       	pop	r26
    22fa:	9f 91       	pop	r25
    22fc:	8f 91       	pop	r24
    22fe:	7f 91       	pop	r23
    2300:	6f 91       	pop	r22
    2302:	5f 91       	pop	r21
    2304:	4f 91       	pop	r20
    2306:	3f 91       	pop	r19
    2308:	2f 91       	pop	r18
    230a:	1f 91       	pop	r17
    230c:	0f 91       	pop	r16
    230e:	ff 90       	pop	r15
    2310:	ef 90       	pop	r14
    2312:	df 90       	pop	r13
    2314:	cf 90       	pop	r12
    2316:	bf 90       	pop	r11
    2318:	af 90       	pop	r10
    231a:	9f 90       	pop	r9
    231c:	8f 90       	pop	r8
    231e:	7f 90       	pop	r7
    2320:	6f 90       	pop	r6
    2322:	5f 90       	pop	r5
    2324:	4f 90       	pop	r4
    2326:	0f 90       	pop	r0
    2328:	0b be       	out	0x3b, r0	; 59
    232a:	0f 90       	pop	r0
    232c:	0a be       	out	0x3a, r0	; 58
    232e:	0f 90       	pop	r0
    2330:	09 be       	out	0x39, r0	; 57
    2332:	0f 90       	pop	r0
    2334:	08 be       	out	0x38, r0	; 56
    2336:	0f 90       	pop	r0
    2338:	0f be       	out	0x3f, r0	; 63
    233a:	0f 90       	pop	r0
    233c:	1f 90       	pop	r1
    233e:	18 95       	reti

00002340 <__vector_58>:
    2340:	1f 92       	push	r1

ISR(USARTE0_RXC_vect){
    2342:	0f 92       	push	r0
    2344:	0f b6       	in	r0, 0x3f	; 63
    2346:	0f 92       	push	r0
    2348:	11 24       	eor	r1, r1
    234a:	08 b6       	in	r0, 0x38	; 56
    234c:	0f 92       	push	r0
    234e:	18 be       	out	0x38, r1	; 56
    2350:	09 b6       	in	r0, 0x39	; 57
    2352:	0f 92       	push	r0
    2354:	19 be       	out	0x39, r1	; 57
    2356:	0b b6       	in	r0, 0x3b	; 59
    2358:	0f 92       	push	r0
    235a:	1b be       	out	0x3b, r1	; 59
    235c:	2f 93       	push	r18
    235e:	3f 93       	push	r19
    2360:	4f 93       	push	r20
    2362:	5f 93       	push	r21
    2364:	6f 93       	push	r22
    2366:	7f 93       	push	r23
    2368:	8f 93       	push	r24
    236a:	9f 93       	push	r25
    236c:	af 93       	push	r26
    236e:	bf 93       	push	r27
    2370:	ef 93       	push	r30
    2372:	ff 93       	push	r31
	uint8_t c = usart_getchar(UART_TERMINAL_SERIAL);
    2374:	80 ea       	ldi	r24, 0xA0	; 160
    2376:	9a e0       	ldi	r25, 0x0A	; 10
    2378:	0e 94 93 02 	call	0x526	; 0x526 <usart_getchar>
	//printf("%c\n", c);
	xbee_command(c);
    237c:	59 de       	rcall	.-846    	; 0x2030 <xbee_command>
}
    237e:	ff 91       	pop	r31
    2380:	ef 91       	pop	r30
    2382:	bf 91       	pop	r27
    2384:	af 91       	pop	r26
    2386:	9f 91       	pop	r25
    2388:	8f 91       	pop	r24
    238a:	7f 91       	pop	r23
    238c:	6f 91       	pop	r22
    238e:	5f 91       	pop	r21
    2390:	4f 91       	pop	r20
    2392:	3f 91       	pop	r19
    2394:	2f 91       	pop	r18
    2396:	0f 90       	pop	r0
    2398:	0b be       	out	0x3b, r0	; 59
    239a:	0f 90       	pop	r0
    239c:	09 be       	out	0x39, r0	; 57
    239e:	0f 90       	pop	r0
    23a0:	08 be       	out	0x38, r0	; 56
    23a2:	0f 90       	pop	r0
    23a4:	0f be       	out	0x3f, r0	; 63
    23a6:	0f 90       	pop	r0
    23a8:	1f 90       	pop	r1
    23aa:	18 95       	reti

000023ac <__vector_91>:


// GPS recording
ISR(USARTD1_RXC_vect){
    23ac:	1f 92       	push	r1
    23ae:	0f 92       	push	r0
    23b0:	0f b6       	in	r0, 0x3f	; 63
    23b2:	0f 92       	push	r0
    23b4:	11 24       	eor	r1, r1
    23b6:	08 b6       	in	r0, 0x38	; 56
    23b8:	0f 92       	push	r0
    23ba:	18 be       	out	0x38, r1	; 56
    23bc:	09 b6       	in	r0, 0x39	; 57
    23be:	0f 92       	push	r0
    23c0:	19 be       	out	0x39, r1	; 57
    23c2:	0a b6       	in	r0, 0x3a	; 58
    23c4:	0f 92       	push	r0
    23c6:	1a be       	out	0x3a, r1	; 58
    23c8:	0b b6       	in	r0, 0x3b	; 59
    23ca:	0f 92       	push	r0
    23cc:	1b be       	out	0x3b, r1	; 59
    23ce:	8f 92       	push	r8
    23d0:	9f 92       	push	r9
    23d2:	af 92       	push	r10
    23d4:	bf 92       	push	r11
    23d6:	cf 92       	push	r12
    23d8:	df 92       	push	r13
    23da:	ef 92       	push	r14
    23dc:	ff 92       	push	r15
    23de:	1f 93       	push	r17
    23e0:	2f 93       	push	r18
    23e2:	3f 93       	push	r19
    23e4:	4f 93       	push	r20
    23e6:	5f 93       	push	r21
    23e8:	6f 93       	push	r22
    23ea:	7f 93       	push	r23
    23ec:	8f 93       	push	r24
    23ee:	9f 93       	push	r25
    23f0:	af 93       	push	r26
    23f2:	bf 93       	push	r27
    23f4:	ef 93       	push	r30
    23f6:	ff 93       	push	r31
    23f8:	cf 93       	push	r28
    23fa:	df 93       	push	r29
    23fc:	00 d0       	rcall	.+0      	; 0x23fe <__vector_91+0x52>
    23fe:	00 d0       	rcall	.+0      	; 0x2400 <__vector_91+0x54>
    2400:	cd b7       	in	r28, 0x3d	; 61
    2402:	de b7       	in	r29, 0x3e	; 62
	uint8_t c = usart_getchar(GPS_TERMINAL_SERIAL);
    2404:	80 eb       	ldi	r24, 0xB0	; 176
    2406:	99 e0       	ldi	r25, 0x09	; 9
    2408:	0e 94 93 02 	call	0x526	; 0x526 <usart_getchar>
    240c:	18 2f       	mov	r17, r24
	//printf("%c",c);
	
	if(c == (uint8_t) '$'){
    240e:	84 32       	cpi	r24, 0x24	; 36
    2410:	49 f4       	brne	.+18     	; 0x2424 <__vector_91+0x78>
		writing = 1;
    2412:	81 e0       	ldi	r24, 0x01	; 1
    2414:	80 93 dc 20 	sts	0x20DC, r24	; 0x8020dc <writing>
		pos = 0;
		word_pos = 0;
    2418:	10 92 da 20 	sts	0x20DA, r1	; 0x8020da <word_pos>
		commas = 0;
    241c:	10 92 d9 20 	sts	0x20D9, r1	; 0x8020d9 <commas>
			}
		}
	}
		
	if(writing){
		switch(pos){
    2420:	90 e0       	ldi	r25, 0x00	; 0
    2422:	68 c2       	rjmp	.+1232   	; 0x28f4 <__vector_91+0x548>
		writing = 1;
		pos = 0;
		word_pos = 0;
		commas = 0;
	}
	else if(c == (uint8_t) '*'){
    2424:	8a 32       	cpi	r24, 0x2A	; 42
    2426:	29 f4       	brne	.+10     	; 0x2432 <__vector_91+0x86>
		commas = 0;
    2428:	10 92 d9 20 	sts	0x20D9, r1	; 0x8020d9 <commas>
		writing = 0;
    242c:	10 92 dc 20 	sts	0x20DC, r1	; 0x8020dc <writing>
    2430:	91 c2       	rjmp	.+1314   	; 0x2954 <__vector_91+0x5a8>
	}
	else if(c == (uint8_t) ','){
    2432:	8c 32       	cpi	r24, 0x2C	; 44
    2434:	09 f0       	breq	.+2      	; 0x2438 <__vector_91+0x8c>
    2436:	49 c2       	rjmp	.+1170   	; 0x28ca <__vector_91+0x51e>
		gps[0] = 32;
    2438:	e8 ef       	ldi	r30, 0xF8	; 248
    243a:	f0 e2       	ldi	r31, 0x20	; 32
    243c:	80 e2       	ldi	r24, 0x20	; 32
    243e:	80 83       	st	Z, r24
		if(gps[1] == 32){
    2440:	81 81       	ldd	r24, Z+1	; 0x01
    2442:	80 32       	cpi	r24, 0x20	; 32
    2444:	09 f0       	breq	.+2      	; 0x2448 <__vector_91+0x9c>
    2446:	6d c2       	rjmp	.+1242   	; 0x2922 <__vector_91+0x576>
			gps[0] = '0';
    2448:	80 e3       	ldi	r24, 0x30	; 48
    244a:	80 93 f8 20 	sts	0x20F8, r24	; 0x8020f8 <gps>
    244e:	69 c2       	rjmp	.+1234   	; 0x2922 <__vector_91+0x576>
			case 7:			//Sats
				sscanf(gps,"%d",&gps_sats);
				break;
			case 9:			//Altitude
				for(uint8_t i = 0; i < 15; i++){
					if(gps[i] == (uint8_t) '.'){
    2450:	80 91 f8 20 	lds	r24, 0x20F8	; 0x8020f8 <gps>
    2454:	8e 32       	cpi	r24, 0x2E	; 46
    2456:	09 f0       	breq	.+2      	; 0x245a <__vector_91+0xae>
    2458:	9e c1       	rjmp	.+828    	; 0x2796 <__vector_91+0x3ea>
    245a:	a4 c1       	rjmp	.+840    	; 0x27a4 <__vector_91+0x3f8>
				sscanf(dec,"%d",&val2);
				gps_lat = val/100 + ((double)(val%100) + ((double)(val2))/10000) / 60.0;
				break;
			case 4:			//Longitude
				for(uint8_t i = 0; i < 15; i++){
					if(gps[i] == (uint8_t) '.'){
    245c:	80 91 f8 20 	lds	r24, 0x20F8	; 0x8020f8 <gps>
    2460:	8e 32       	cpi	r24, 0x2E	; 46
    2462:	09 f0       	breq	.+2      	; 0x2466 <__vector_91+0xba>
    2464:	ec c0       	rjmp	.+472    	; 0x263e <__vector_91+0x292>
    2466:	f2 c0       	rjmp	.+484    	; 0x264c <__vector_91+0x2a0>
				sscanf(gps,"%ld",&val);
				gps_t = (double) val;
				break;
			case 2:			//Latitude
				for(uint8_t i = 0; i < 15; i++){
					if(gps[i] == (uint8_t) '.'){
    2468:	80 91 f8 20 	lds	r24, 0x20F8	; 0x8020f8 <gps>
    246c:	8e 32       	cpi	r24, 0x2E	; 46
    246e:	09 f0       	breq	.+2      	; 0x2472 <__vector_91+0xc6>
    2470:	51 c0       	rjmp	.+162    	; 0x2514 <__vector_91+0x168>
    2472:	57 c0       	rjmp	.+174    	; 0x2522 <__vector_91+0x176>
		int32_t val = 0;
		int16_t val2 = 0;
		switch(commas){
			case 1:			//Time
				for(uint8_t i = 0; i < 15; i++){
					if(gps[i] == (uint8_t) '.'){
    2474:	91 91       	ld	r25, Z+
    2476:	9e 32       	cpi	r25, 0x2E	; 46
    2478:	29 f4       	brne	.+10     	; 0x2484 <__vector_91+0xd8>
    247a:	01 c0       	rjmp	.+2      	; 0x247e <__vector_91+0xd2>
    247c:	80 e0       	ldi	r24, 0x00	; 0
						idx = i;
    247e:	80 93 d8 20 	sts	0x20D8, r24	; 0x8020d8 <idx>
						break;
    2482:	03 c0       	rjmp	.+6      	; 0x248a <__vector_91+0xde>
		}
		int32_t val = 0;
		int16_t val2 = 0;
		switch(commas){
			case 1:			//Time
				for(uint8_t i = 0; i < 15; i++){
    2484:	8f 5f       	subi	r24, 0xFF	; 255
    2486:	8f 30       	cpi	r24, 0x0F	; 15
    2488:	a9 f7       	brne	.-22     	; 0x2474 <__vector_91+0xc8>
					if(gps[i] == (uint8_t) '.'){
						idx = i;
						break;
					}
				}
				gps[idx] = 32;
    248a:	20 91 d8 20 	lds	r18, 0x20D8	; 0x8020d8 <idx>
    248e:	e2 2f       	mov	r30, r18
    2490:	f0 e0       	ldi	r31, 0x00	; 0
    2492:	e8 50       	subi	r30, 0x08	; 8
    2494:	ff 4d       	sbci	r31, 0xDF	; 223
    2496:	80 e2       	ldi	r24, 0x20	; 32
    2498:	80 83       	st	Z, r24
				for(uint8_t i = idx+1; i < 15; i++){
    249a:	2f 5f       	subi	r18, 0xFF	; 255
    249c:	2f 30       	cpi	r18, 0x0F	; 15
    249e:	c8 f4       	brcc	.+50     	; 0x24d2 <__vector_91+0x126>
					if(gps[i] == 32){
    24a0:	82 2f       	mov	r24, r18
    24a2:	90 e0       	ldi	r25, 0x00	; 0
    24a4:	fc 01       	movw	r30, r24
    24a6:	e8 50       	subi	r30, 0x08	; 8
    24a8:	ff 4d       	sbci	r31, 0xDF	; 223
    24aa:	30 81       	ld	r19, Z
    24ac:	30 32       	cpi	r19, 0x20	; 32
    24ae:	89 f0       	breq	.+34     	; 0x24d2 <__vector_91+0x126>
						break;
					}
					gps[i] = 32;
    24b0:	40 e2       	ldi	r20, 0x20	; 32
    24b2:	08 c0       	rjmp	.+16     	; 0x24c4 <__vector_91+0x118>
						break;
					}
				}
				gps[idx] = 32;
				for(uint8_t i = idx+1; i < 15; i++){
					if(gps[i] == 32){
    24b4:	82 2f       	mov	r24, r18
    24b6:	90 e0       	ldi	r25, 0x00	; 0
    24b8:	fc 01       	movw	r30, r24
    24ba:	e8 50       	subi	r30, 0x08	; 8
    24bc:	ff 4d       	sbci	r31, 0xDF	; 223
    24be:	30 81       	ld	r19, Z
    24c0:	30 32       	cpi	r19, 0x20	; 32
    24c2:	39 f0       	breq	.+14     	; 0x24d2 <__vector_91+0x126>
						break;
					}
					gps[i] = 32;
    24c4:	fc 01       	movw	r30, r24
    24c6:	e8 50       	subi	r30, 0x08	; 8
    24c8:	ff 4d       	sbci	r31, 0xDF	; 223
    24ca:	40 83       	st	Z, r20
						idx = i;
						break;
					}
				}
				gps[idx] = 32;
				for(uint8_t i = idx+1; i < 15; i++){
    24cc:	2f 5f       	subi	r18, 0xFF	; 255
    24ce:	2f 30       	cpi	r18, 0x0F	; 15
    24d0:	89 f7       	brne	.-30     	; 0x24b4 <__vector_91+0x108>
					if(gps[i] == 32){
						break;
					}
					gps[i] = 32;
				}
				sscanf(gps,"%ld",&val);
    24d2:	ce 01       	movw	r24, r28
    24d4:	01 96       	adiw	r24, 0x01	; 1
    24d6:	9f 93       	push	r25
    24d8:	8f 93       	push	r24
    24da:	86 e9       	ldi	r24, 0x96	; 150
    24dc:	90 e2       	ldi	r25, 0x20	; 32
    24de:	9f 93       	push	r25
    24e0:	8f 93       	push	r24
    24e2:	88 ef       	ldi	r24, 0xF8	; 248
    24e4:	90 e2       	ldi	r25, 0x20	; 32
    24e6:	9f 93       	push	r25
    24e8:	8f 93       	push	r24
    24ea:	f3 d6       	rcall	.+3558   	; 0x32d2 <sscanf>
				gps_t = (double) val;
    24ec:	69 81       	ldd	r22, Y+1	; 0x01
    24ee:	7a 81       	ldd	r23, Y+2	; 0x02
    24f0:	8b 81       	ldd	r24, Y+3	; 0x03
    24f2:	9c 81       	ldd	r25, Y+4	; 0x04
    24f4:	5a d3       	rcall	.+1716   	; 0x2baa <__floatsisf>
    24f6:	60 93 bc 20 	sts	0x20BC, r22	; 0x8020bc <gps_t>
    24fa:	70 93 bd 20 	sts	0x20BD, r23	; 0x8020bd <gps_t+0x1>
    24fe:	80 93 be 20 	sts	0x20BE, r24	; 0x8020be <gps_t+0x2>
    2502:	90 93 bf 20 	sts	0x20BF, r25	; 0x8020bf <gps_t+0x3>
				break;
    2506:	0f 90       	pop	r0
    2508:	0f 90       	pop	r0
    250a:	0f 90       	pop	r0
    250c:	0f 90       	pop	r0
    250e:	0f 90       	pop	r0
    2510:	0f 90       	pop	r0
    2512:	bd c1       	rjmp	.+890    	; 0x288e <__vector_91+0x4e2>
    2514:	e9 ef       	ldi	r30, 0xF9	; 249
    2516:	f0 e2       	ldi	r31, 0x20	; 32
			case 2:			//Latitude
				for(uint8_t i = 0; i < 15; i++){
    2518:	81 e0       	ldi	r24, 0x01	; 1
					if(gps[i] == (uint8_t) '.'){
    251a:	91 91       	ld	r25, Z+
    251c:	9e 32       	cpi	r25, 0x2E	; 46
    251e:	29 f4       	brne	.+10     	; 0x252a <__vector_91+0x17e>
    2520:	01 c0       	rjmp	.+2      	; 0x2524 <__vector_91+0x178>
    2522:	80 e0       	ldi	r24, 0x00	; 0
						idx = i;
    2524:	80 93 d8 20 	sts	0x20D8, r24	; 0x8020d8 <idx>
						break;
    2528:	03 c0       	rjmp	.+6      	; 0x2530 <__vector_91+0x184>
				}
				sscanf(gps,"%ld",&val);
				gps_t = (double) val;
				break;
			case 2:			//Latitude
				for(uint8_t i = 0; i < 15; i++){
    252a:	8f 5f       	subi	r24, 0xFF	; 255
    252c:	8f 30       	cpi	r24, 0x0F	; 15
    252e:	a9 f7       	brne	.-22     	; 0x251a <__vector_91+0x16e>
					if(gps[i] == (uint8_t) '.'){
						idx = i;
						break;
					}
				}
				gps[idx] = 32;
    2530:	20 91 d8 20 	lds	r18, 0x20D8	; 0x8020d8 <idx>
    2534:	42 2f       	mov	r20, r18
    2536:	50 e0       	ldi	r21, 0x00	; 0
    2538:	fa 01       	movw	r30, r20
    253a:	e8 50       	subi	r30, 0x08	; 8
    253c:	ff 4d       	sbci	r31, 0xDF	; 223
    253e:	80 e2       	ldi	r24, 0x20	; 32
    2540:	80 83       	st	Z, r24
				for(uint8_t i = idx+1; i < 15; i++){
    2542:	2f 5f       	subi	r18, 0xFF	; 255
    2544:	2f 30       	cpi	r18, 0x0F	; 15
    2546:	f8 f4       	brcc	.+62     	; 0x2586 <__vector_91+0x1da>
					if(gps[i] == 32){
    2548:	82 2f       	mov	r24, r18
    254a:	90 e0       	ldi	r25, 0x00	; 0
    254c:	fc 01       	movw	r30, r24
    254e:	e8 50       	subi	r30, 0x08	; 8
    2550:	ff 4d       	sbci	r31, 0xDF	; 223
    2552:	30 81       	ld	r19, Z
    2554:	30 32       	cpi	r19, 0x20	; 32
    2556:	b9 f0       	breq	.+46     	; 0x2586 <__vector_91+0x1da>
						break;
					}
					dec[i-idx-1] = gps[i];
					gps[i] = 32;
    2558:	60 e2       	ldi	r22, 0x20	; 32
    255a:	08 c0       	rjmp	.+16     	; 0x256c <__vector_91+0x1c0>
						break;
					}
				}
				gps[idx] = 32;
				for(uint8_t i = idx+1; i < 15; i++){
					if(gps[i] == 32){
    255c:	82 2f       	mov	r24, r18
    255e:	90 e0       	ldi	r25, 0x00	; 0
    2560:	fc 01       	movw	r30, r24
    2562:	e8 50       	subi	r30, 0x08	; 8
    2564:	ff 4d       	sbci	r31, 0xDF	; 223
    2566:	30 81       	ld	r19, Z
    2568:	30 32       	cpi	r19, 0x20	; 32
    256a:	69 f0       	breq	.+26     	; 0x2586 <__vector_91+0x1da>
						break;
					}
					dec[i-idx-1] = gps[i];
    256c:	fc 01       	movw	r30, r24
    256e:	e4 1b       	sub	r30, r20
    2570:	f5 0b       	sbc	r31, r21
    2572:	ea 5f       	subi	r30, 0xFA	; 250
    2574:	fe 4d       	sbci	r31, 0xDE	; 222
    2576:	30 83       	st	Z, r19
					gps[i] = 32;
    2578:	fc 01       	movw	r30, r24
    257a:	e8 50       	subi	r30, 0x08	; 8
    257c:	ff 4d       	sbci	r31, 0xDF	; 223
    257e:	60 83       	st	Z, r22
						idx = i;
						break;
					}
				}
				gps[idx] = 32;
				for(uint8_t i = idx+1; i < 15; i++){
    2580:	2f 5f       	subi	r18, 0xFF	; 255
    2582:	2f 30       	cpi	r18, 0x0F	; 15
    2584:	59 f7       	brne	.-42     	; 0x255c <__vector_91+0x1b0>
						break;
					}
					dec[i-idx-1] = gps[i];
					gps[i] = 32;
				}
				if(dec[0] == 32){
    2586:	80 91 07 21 	lds	r24, 0x2107	; 0x802107 <dec>
    258a:	80 32       	cpi	r24, 0x20	; 32
    258c:	19 f4       	brne	.+6      	; 0x2594 <__vector_91+0x1e8>
					dec[0] = '0';
    258e:	80 e3       	ldi	r24, 0x30	; 48
    2590:	80 93 07 21 	sts	0x2107, r24	; 0x802107 <dec>
				}
				sscanf(gps,"%ld",&val);
    2594:	ce 01       	movw	r24, r28
    2596:	01 96       	adiw	r24, 0x01	; 1
    2598:	9f 93       	push	r25
    259a:	8f 93       	push	r24
    259c:	86 e9       	ldi	r24, 0x96	; 150
    259e:	90 e2       	ldi	r25, 0x20	; 32
    25a0:	9f 93       	push	r25
    25a2:	8f 93       	push	r24
    25a4:	88 ef       	ldi	r24, 0xF8	; 248
    25a6:	90 e2       	ldi	r25, 0x20	; 32
    25a8:	9f 93       	push	r25
    25aa:	8f 93       	push	r24
    25ac:	92 d6       	rcall	.+3364   	; 0x32d2 <sscanf>
				sscanf(dec,"%d",&val2);
    25ae:	ce 01       	movw	r24, r28
    25b0:	05 96       	adiw	r24, 0x05	; 5
    25b2:	9f 93       	push	r25
    25b4:	8f 93       	push	r24
    25b6:	8a e9       	ldi	r24, 0x9A	; 154
    25b8:	90 e2       	ldi	r25, 0x20	; 32
    25ba:	9f 93       	push	r25
    25bc:	8f 93       	push	r24
    25be:	87 e0       	ldi	r24, 0x07	; 7
    25c0:	91 e2       	ldi	r25, 0x21	; 33
    25c2:	9f 93       	push	r25
    25c4:	8f 93       	push	r24
    25c6:	85 d6       	rcall	.+3338   	; 0x32d2 <sscanf>
				gps_lat = val/100 + ((double)(val%100) + ((double)(val2))/10000) / 60.0;
    25c8:	89 80       	ldd	r8, Y+1	; 0x01
    25ca:	9a 80       	ldd	r9, Y+2	; 0x02
    25cc:	ab 80       	ldd	r10, Y+3	; 0x03
    25ce:	bc 80       	ldd	r11, Y+4	; 0x04
    25d0:	6d 81       	ldd	r22, Y+5	; 0x05
    25d2:	7e 81       	ldd	r23, Y+6	; 0x06
    25d4:	07 2e       	mov	r0, r23
    25d6:	00 0c       	add	r0, r0
    25d8:	88 0b       	sbc	r24, r24
    25da:	99 0b       	sbc	r25, r25
    25dc:	e6 d2       	rcall	.+1484   	; 0x2baa <__floatsisf>
    25de:	20 e0       	ldi	r18, 0x00	; 0
    25e0:	30 e4       	ldi	r19, 0x40	; 64
    25e2:	4c e1       	ldi	r20, 0x1C	; 28
    25e4:	56 e4       	ldi	r21, 0x46	; 70
    25e6:	46 d2       	rcall	.+1164   	; 0x2a74 <__divsf3>
    25e8:	6b 01       	movw	r12, r22
    25ea:	7c 01       	movw	r14, r24
    25ec:	c5 01       	movw	r24, r10
    25ee:	b4 01       	movw	r22, r8
    25f0:	24 e6       	ldi	r18, 0x64	; 100
    25f2:	30 e0       	ldi	r19, 0x00	; 0
    25f4:	40 e0       	ldi	r20, 0x00	; 0
    25f6:	50 e0       	ldi	r21, 0x00	; 0
    25f8:	ac d5       	rcall	.+2904   	; 0x3152 <__divmodsi4>
    25fa:	49 01       	movw	r8, r18
    25fc:	5a 01       	movw	r10, r20
    25fe:	d5 d2       	rcall	.+1450   	; 0x2baa <__floatsisf>
    2600:	9b 01       	movw	r18, r22
    2602:	ac 01       	movw	r20, r24
    2604:	c7 01       	movw	r24, r14
    2606:	b6 01       	movw	r22, r12
    2608:	cd d1       	rcall	.+922    	; 0x29a4 <__addsf3>
    260a:	20 e0       	ldi	r18, 0x00	; 0
    260c:	30 e0       	ldi	r19, 0x00	; 0
    260e:	40 e7       	ldi	r20, 0x70	; 112
    2610:	52 e4       	ldi	r21, 0x42	; 66
    2612:	30 d2       	rcall	.+1120   	; 0x2a74 <__divsf3>
    2614:	6b 01       	movw	r12, r22
    2616:	7c 01       	movw	r14, r24
    2618:	c5 01       	movw	r24, r10
    261a:	b4 01       	movw	r22, r8
    261c:	c6 d2       	rcall	.+1420   	; 0x2baa <__floatsisf>
    261e:	9b 01       	movw	r18, r22
    2620:	ac 01       	movw	r20, r24
    2622:	c7 01       	movw	r24, r14
    2624:	b6 01       	movw	r22, r12
    2626:	be d1       	rcall	.+892    	; 0x29a4 <__addsf3>
    2628:	60 93 b8 20 	sts	0x20B8, r22	; 0x8020b8 <gps_lat>
    262c:	70 93 b9 20 	sts	0x20B9, r23	; 0x8020b9 <gps_lat+0x1>
    2630:	80 93 ba 20 	sts	0x20BA, r24	; 0x8020ba <gps_lat+0x2>
    2634:	90 93 bb 20 	sts	0x20BB, r25	; 0x8020bb <gps_lat+0x3>
				break;
    2638:	cd bf       	out	0x3d, r28	; 61
    263a:	de bf       	out	0x3e, r29	; 62
    263c:	28 c1       	rjmp	.+592    	; 0x288e <__vector_91+0x4e2>
    263e:	e9 ef       	ldi	r30, 0xF9	; 249
    2640:	f0 e2       	ldi	r31, 0x20	; 32
			case 4:			//Longitude
				for(uint8_t i = 0; i < 15; i++){
    2642:	81 e0       	ldi	r24, 0x01	; 1
					if(gps[i] == (uint8_t) '.'){
    2644:	91 91       	ld	r25, Z+
    2646:	9e 32       	cpi	r25, 0x2E	; 46
    2648:	29 f4       	brne	.+10     	; 0x2654 <__vector_91+0x2a8>
    264a:	01 c0       	rjmp	.+2      	; 0x264e <__vector_91+0x2a2>
    264c:	80 e0       	ldi	r24, 0x00	; 0
						idx = i;
    264e:	80 93 d8 20 	sts	0x20D8, r24	; 0x8020d8 <idx>
						break;
    2652:	03 c0       	rjmp	.+6      	; 0x265a <__vector_91+0x2ae>
				sscanf(gps,"%ld",&val);
				sscanf(dec,"%d",&val2);
				gps_lat = val/100 + ((double)(val%100) + ((double)(val2))/10000) / 60.0;
				break;
			case 4:			//Longitude
				for(uint8_t i = 0; i < 15; i++){
    2654:	8f 5f       	subi	r24, 0xFF	; 255
    2656:	8f 30       	cpi	r24, 0x0F	; 15
    2658:	a9 f7       	brne	.-22     	; 0x2644 <__vector_91+0x298>
					if(gps[i] == (uint8_t) '.'){
						idx = i;
						break;
					}
				}
				gps[idx] = 32;
    265a:	20 91 d8 20 	lds	r18, 0x20D8	; 0x8020d8 <idx>
    265e:	42 2f       	mov	r20, r18
    2660:	50 e0       	ldi	r21, 0x00	; 0
    2662:	fa 01       	movw	r30, r20
    2664:	e8 50       	subi	r30, 0x08	; 8
    2666:	ff 4d       	sbci	r31, 0xDF	; 223
    2668:	80 e2       	ldi	r24, 0x20	; 32
    266a:	80 83       	st	Z, r24
				for(uint8_t i = idx+1; i < 15; i++){
    266c:	2f 5f       	subi	r18, 0xFF	; 255
    266e:	2f 30       	cpi	r18, 0x0F	; 15
    2670:	f8 f4       	brcc	.+62     	; 0x26b0 <__vector_91+0x304>
					if(gps[i] == 32){
    2672:	82 2f       	mov	r24, r18
    2674:	90 e0       	ldi	r25, 0x00	; 0
    2676:	fc 01       	movw	r30, r24
    2678:	e8 50       	subi	r30, 0x08	; 8
    267a:	ff 4d       	sbci	r31, 0xDF	; 223
    267c:	30 81       	ld	r19, Z
    267e:	30 32       	cpi	r19, 0x20	; 32
    2680:	b9 f0       	breq	.+46     	; 0x26b0 <__vector_91+0x304>
						break;
					}
					dec[i-idx-1] = gps[i];
					gps[i] = 32;
    2682:	60 e2       	ldi	r22, 0x20	; 32
    2684:	08 c0       	rjmp	.+16     	; 0x2696 <__vector_91+0x2ea>
						break;
					}
				}
				gps[idx] = 32;
				for(uint8_t i = idx+1; i < 15; i++){
					if(gps[i] == 32){
    2686:	82 2f       	mov	r24, r18
    2688:	90 e0       	ldi	r25, 0x00	; 0
    268a:	fc 01       	movw	r30, r24
    268c:	e8 50       	subi	r30, 0x08	; 8
    268e:	ff 4d       	sbci	r31, 0xDF	; 223
    2690:	30 81       	ld	r19, Z
    2692:	30 32       	cpi	r19, 0x20	; 32
    2694:	69 f0       	breq	.+26     	; 0x26b0 <__vector_91+0x304>
						break;
					}
					dec[i-idx-1] = gps[i];
    2696:	fc 01       	movw	r30, r24
    2698:	e4 1b       	sub	r30, r20
    269a:	f5 0b       	sbc	r31, r21
    269c:	ea 5f       	subi	r30, 0xFA	; 250
    269e:	fe 4d       	sbci	r31, 0xDE	; 222
    26a0:	30 83       	st	Z, r19
					gps[i] = 32;
    26a2:	fc 01       	movw	r30, r24
    26a4:	e8 50       	subi	r30, 0x08	; 8
    26a6:	ff 4d       	sbci	r31, 0xDF	; 223
    26a8:	60 83       	st	Z, r22
						idx = i;
						break;
					}
				}
				gps[idx] = 32;
				for(uint8_t i = idx+1; i < 15; i++){
    26aa:	2f 5f       	subi	r18, 0xFF	; 255
    26ac:	2f 30       	cpi	r18, 0x0F	; 15
    26ae:	59 f7       	brne	.-42     	; 0x2686 <__vector_91+0x2da>
						break;
					}
					dec[i-idx-1] = gps[i];
					gps[i] = 32;
				}
				if(dec[0] == 32){
    26b0:	80 91 07 21 	lds	r24, 0x2107	; 0x802107 <dec>
    26b4:	80 32       	cpi	r24, 0x20	; 32
    26b6:	19 f4       	brne	.+6      	; 0x26be <__vector_91+0x312>
					dec[0] = '0';
    26b8:	80 e3       	ldi	r24, 0x30	; 48
    26ba:	80 93 07 21 	sts	0x2107, r24	; 0x802107 <dec>
				}
				sscanf(gps,"%ld",&val);
    26be:	ce 01       	movw	r24, r28
    26c0:	01 96       	adiw	r24, 0x01	; 1
    26c2:	9f 93       	push	r25
    26c4:	8f 93       	push	r24
    26c6:	86 e9       	ldi	r24, 0x96	; 150
    26c8:	90 e2       	ldi	r25, 0x20	; 32
    26ca:	9f 93       	push	r25
    26cc:	8f 93       	push	r24
    26ce:	88 ef       	ldi	r24, 0xF8	; 248
    26d0:	90 e2       	ldi	r25, 0x20	; 32
    26d2:	9f 93       	push	r25
    26d4:	8f 93       	push	r24
    26d6:	fd d5       	rcall	.+3066   	; 0x32d2 <sscanf>
				sscanf(dec,"%d",&val2);
    26d8:	ce 01       	movw	r24, r28
    26da:	05 96       	adiw	r24, 0x05	; 5
    26dc:	9f 93       	push	r25
    26de:	8f 93       	push	r24
    26e0:	8a e9       	ldi	r24, 0x9A	; 154
    26e2:	90 e2       	ldi	r25, 0x20	; 32
    26e4:	9f 93       	push	r25
    26e6:	8f 93       	push	r24
    26e8:	87 e0       	ldi	r24, 0x07	; 7
    26ea:	91 e2       	ldi	r25, 0x21	; 33
    26ec:	9f 93       	push	r25
    26ee:	8f 93       	push	r24
    26f0:	f0 d5       	rcall	.+3040   	; 0x32d2 <sscanf>
				gps_long = -(val/100 + ((double)(val%100) + ((double)(val2))/10000) / 60.0);
    26f2:	89 80       	ldd	r8, Y+1	; 0x01
    26f4:	9a 80       	ldd	r9, Y+2	; 0x02
    26f6:	ab 80       	ldd	r10, Y+3	; 0x03
    26f8:	bc 80       	ldd	r11, Y+4	; 0x04
    26fa:	6d 81       	ldd	r22, Y+5	; 0x05
    26fc:	7e 81       	ldd	r23, Y+6	; 0x06
    26fe:	07 2e       	mov	r0, r23
    2700:	00 0c       	add	r0, r0
    2702:	88 0b       	sbc	r24, r24
    2704:	99 0b       	sbc	r25, r25
    2706:	51 d2       	rcall	.+1186   	; 0x2baa <__floatsisf>
    2708:	20 e0       	ldi	r18, 0x00	; 0
    270a:	30 e4       	ldi	r19, 0x40	; 64
    270c:	4c e1       	ldi	r20, 0x1C	; 28
    270e:	56 e4       	ldi	r21, 0x46	; 70
    2710:	b1 d1       	rcall	.+866    	; 0x2a74 <__divsf3>
    2712:	6b 01       	movw	r12, r22
    2714:	7c 01       	movw	r14, r24
    2716:	c5 01       	movw	r24, r10
    2718:	b4 01       	movw	r22, r8
    271a:	24 e6       	ldi	r18, 0x64	; 100
    271c:	30 e0       	ldi	r19, 0x00	; 0
    271e:	40 e0       	ldi	r20, 0x00	; 0
    2720:	50 e0       	ldi	r21, 0x00	; 0
    2722:	17 d5       	rcall	.+2606   	; 0x3152 <__divmodsi4>
    2724:	49 01       	movw	r8, r18
    2726:	5a 01       	movw	r10, r20
    2728:	40 d2       	rcall	.+1152   	; 0x2baa <__floatsisf>
    272a:	9b 01       	movw	r18, r22
    272c:	ac 01       	movw	r20, r24
    272e:	c7 01       	movw	r24, r14
    2730:	b6 01       	movw	r22, r12
    2732:	38 d1       	rcall	.+624    	; 0x29a4 <__addsf3>
    2734:	20 e0       	ldi	r18, 0x00	; 0
    2736:	30 e0       	ldi	r19, 0x00	; 0
    2738:	40 e7       	ldi	r20, 0x70	; 112
    273a:	52 e4       	ldi	r21, 0x42	; 66
    273c:	9b d1       	rcall	.+822    	; 0x2a74 <__divsf3>
    273e:	6b 01       	movw	r12, r22
    2740:	7c 01       	movw	r14, r24
    2742:	c5 01       	movw	r24, r10
    2744:	b4 01       	movw	r22, r8
    2746:	31 d2       	rcall	.+1122   	; 0x2baa <__floatsisf>
    2748:	9b 01       	movw	r18, r22
    274a:	ac 01       	movw	r20, r24
    274c:	c7 01       	movw	r24, r14
    274e:	b6 01       	movw	r22, r12
    2750:	29 d1       	rcall	.+594    	; 0x29a4 <__addsf3>
    2752:	dc 01       	movw	r26, r24
    2754:	cb 01       	movw	r24, r22
    2756:	b0 58       	subi	r27, 0x80	; 128
    2758:	80 93 b4 20 	sts	0x20B4, r24	; 0x8020b4 <gps_long>
    275c:	90 93 b5 20 	sts	0x20B5, r25	; 0x8020b5 <gps_long+0x1>
    2760:	a0 93 b6 20 	sts	0x20B6, r26	; 0x8020b6 <gps_long+0x2>
    2764:	b0 93 b7 20 	sts	0x20B7, r27	; 0x8020b7 <gps_long+0x3>
    2768:	cd bf       	out	0x3d, r28	; 61
				break;
    276a:	de bf       	out	0x3e, r29	; 62
    276c:	90 c0       	rjmp	.+288    	; 0x288e <__vector_91+0x4e2>
    276e:	8e ea       	ldi	r24, 0xAE	; 174
			case 7:			//Sats
				sscanf(gps,"%d",&gps_sats);
    2770:	90 e2       	ldi	r25, 0x20	; 32
    2772:	9f 93       	push	r25
    2774:	8f 93       	push	r24
    2776:	8a e9       	ldi	r24, 0x9A	; 154
    2778:	90 e2       	ldi	r25, 0x20	; 32
    277a:	9f 93       	push	r25
    277c:	8f 93       	push	r24
    277e:	88 ef       	ldi	r24, 0xF8	; 248
    2780:	90 e2       	ldi	r25, 0x20	; 32
    2782:	9f 93       	push	r25
    2784:	8f 93       	push	r24
    2786:	a5 d5       	rcall	.+2890   	; 0x32d2 <sscanf>
    2788:	0f 90       	pop	r0
    278a:	0f 90       	pop	r0
				break;
    278c:	0f 90       	pop	r0
    278e:	0f 90       	pop	r0
    2790:	0f 90       	pop	r0
    2792:	0f 90       	pop	r0
    2794:	7c c0       	rjmp	.+248    	; 0x288e <__vector_91+0x4e2>
    2796:	e9 ef       	ldi	r30, 0xF9	; 249
    2798:	f0 e2       	ldi	r31, 0x20	; 32
    279a:	81 e0       	ldi	r24, 0x01	; 1
    279c:	91 91       	ld	r25, Z+
			case 9:			//Altitude
				for(uint8_t i = 0; i < 15; i++){
    279e:	9e 32       	cpi	r25, 0x2E	; 46
					if(gps[i] == (uint8_t) '.'){
    27a0:	29 f4       	brne	.+10     	; 0x27ac <__vector_91+0x400>
    27a2:	01 c0       	rjmp	.+2      	; 0x27a6 <__vector_91+0x3fa>
    27a4:	80 e0       	ldi	r24, 0x00	; 0
    27a6:	80 93 d8 20 	sts	0x20D8, r24	; 0x8020d8 <idx>
						idx = i;
    27aa:	03 c0       	rjmp	.+6      	; 0x27b2 <__vector_91+0x406>
    27ac:	8f 5f       	subi	r24, 0xFF	; 255
						break;
    27ae:	8f 30       	cpi	r24, 0x0F	; 15
				break;
			case 7:			//Sats
				sscanf(gps,"%d",&gps_sats);
				break;
			case 9:			//Altitude
				for(uint8_t i = 0; i < 15; i++){
    27b0:	a9 f7       	brne	.-22     	; 0x279c <__vector_91+0x3f0>
    27b2:	20 91 d8 20 	lds	r18, 0x20D8	; 0x8020d8 <idx>
					if(gps[i] == (uint8_t) '.'){
						idx = i;
						break;
					}
				}
				gps[idx] = 32;
    27b6:	42 2f       	mov	r20, r18
    27b8:	50 e0       	ldi	r21, 0x00	; 0
    27ba:	fa 01       	movw	r30, r20
    27bc:	e8 50       	subi	r30, 0x08	; 8
    27be:	ff 4d       	sbci	r31, 0xDF	; 223
    27c0:	80 e2       	ldi	r24, 0x20	; 32
    27c2:	80 83       	st	Z, r24
    27c4:	2f 5f       	subi	r18, 0xFF	; 255
    27c6:	2f 30       	cpi	r18, 0x0F	; 15
				for(uint8_t i = idx+1; i < 15; i++){
    27c8:	f8 f4       	brcc	.+62     	; 0x2808 <__vector_91+0x45c>
    27ca:	82 2f       	mov	r24, r18
    27cc:	90 e0       	ldi	r25, 0x00	; 0
					if(gps[i] == 32){
    27ce:	fc 01       	movw	r30, r24
    27d0:	e8 50       	subi	r30, 0x08	; 8
    27d2:	ff 4d       	sbci	r31, 0xDF	; 223
    27d4:	30 81       	ld	r19, Z
    27d6:	30 32       	cpi	r19, 0x20	; 32
    27d8:	b9 f0       	breq	.+46     	; 0x2808 <__vector_91+0x45c>
    27da:	60 e2       	ldi	r22, 0x20	; 32
    27dc:	08 c0       	rjmp	.+16     	; 0x27ee <__vector_91+0x442>
						break;
					}
					dec[i-idx-1] = gps[i];
					gps[i] = 32;
    27de:	82 2f       	mov	r24, r18
    27e0:	90 e0       	ldi	r25, 0x00	; 0
						break;
					}
				}
				gps[idx] = 32;
				for(uint8_t i = idx+1; i < 15; i++){
					if(gps[i] == 32){
    27e2:	fc 01       	movw	r30, r24
    27e4:	e8 50       	subi	r30, 0x08	; 8
    27e6:	ff 4d       	sbci	r31, 0xDF	; 223
    27e8:	30 81       	ld	r19, Z
    27ea:	30 32       	cpi	r19, 0x20	; 32
    27ec:	69 f0       	breq	.+26     	; 0x2808 <__vector_91+0x45c>
    27ee:	fc 01       	movw	r30, r24
    27f0:	e4 1b       	sub	r30, r20
						break;
					}
					dec[i-idx-1] = gps[i];
    27f2:	f5 0b       	sbc	r31, r21
    27f4:	ea 5f       	subi	r30, 0xFA	; 250
    27f6:	fe 4d       	sbci	r31, 0xDE	; 222
    27f8:	30 83       	st	Z, r19
    27fa:	fc 01       	movw	r30, r24
    27fc:	e8 50       	subi	r30, 0x08	; 8
					gps[i] = 32;
    27fe:	ff 4d       	sbci	r31, 0xDF	; 223
    2800:	60 83       	st	Z, r22
    2802:	2f 5f       	subi	r18, 0xFF	; 255
						idx = i;
						break;
					}
				}
				gps[idx] = 32;
				for(uint8_t i = idx+1; i < 15; i++){
    2804:	2f 30       	cpi	r18, 0x0F	; 15
    2806:	59 f7       	brne	.-42     	; 0x27de <__vector_91+0x432>
    2808:	80 91 07 21 	lds	r24, 0x2107	; 0x802107 <dec>
						break;
					}
					dec[i-idx-1] = gps[i];
					gps[i] = 32;
				}
				if(dec[0] == 32){
    280c:	80 32       	cpi	r24, 0x20	; 32
    280e:	19 f4       	brne	.+6      	; 0x2816 <__vector_91+0x46a>
    2810:	80 e3       	ldi	r24, 0x30	; 48
					dec[0] = '0';
    2812:	80 93 07 21 	sts	0x2107, r24	; 0x802107 <dec>
    2816:	ce 01       	movw	r24, r28
				}
				sscanf(gps,"%ld",&val);
    2818:	01 96       	adiw	r24, 0x01	; 1
    281a:	9f 93       	push	r25
    281c:	8f 93       	push	r24
    281e:	86 e9       	ldi	r24, 0x96	; 150
    2820:	90 e2       	ldi	r25, 0x20	; 32
    2822:	9f 93       	push	r25
    2824:	8f 93       	push	r24
    2826:	88 ef       	ldi	r24, 0xF8	; 248
    2828:	90 e2       	ldi	r25, 0x20	; 32
    282a:	9f 93       	push	r25
    282c:	8f 93       	push	r24
    282e:	51 d5       	rcall	.+2722   	; 0x32d2 <sscanf>
				sscanf(dec,"%d",&val2);
    2830:	ce 01       	movw	r24, r28
    2832:	05 96       	adiw	r24, 0x05	; 5
    2834:	9f 93       	push	r25
    2836:	8f 93       	push	r24
    2838:	8a e9       	ldi	r24, 0x9A	; 154
    283a:	90 e2       	ldi	r25, 0x20	; 32
    283c:	9f 93       	push	r25
    283e:	8f 93       	push	r24
    2840:	87 e0       	ldi	r24, 0x07	; 7
    2842:	91 e2       	ldi	r25, 0x21	; 33
    2844:	9f 93       	push	r25
    2846:	8f 93       	push	r24
				gps_alt = (double) val + ((double) val2/10.0);
    2848:	44 d5       	rcall	.+2696   	; 0x32d2 <sscanf>
    284a:	69 81       	ldd	r22, Y+1	; 0x01
    284c:	7a 81       	ldd	r23, Y+2	; 0x02
    284e:	8b 81       	ldd	r24, Y+3	; 0x03
    2850:	9c 81       	ldd	r25, Y+4	; 0x04
    2852:	ab d1       	rcall	.+854    	; 0x2baa <__floatsisf>
    2854:	6b 01       	movw	r12, r22
    2856:	7c 01       	movw	r14, r24
    2858:	6d 81       	ldd	r22, Y+5	; 0x05
    285a:	7e 81       	ldd	r23, Y+6	; 0x06
    285c:	07 2e       	mov	r0, r23
    285e:	00 0c       	add	r0, r0
    2860:	88 0b       	sbc	r24, r24
    2862:	99 0b       	sbc	r25, r25
    2864:	a2 d1       	rcall	.+836    	; 0x2baa <__floatsisf>
    2866:	20 e0       	ldi	r18, 0x00	; 0
    2868:	30 e0       	ldi	r19, 0x00	; 0
    286a:	40 e2       	ldi	r20, 0x20	; 32
    286c:	51 e4       	ldi	r21, 0x41	; 65
    286e:	02 d1       	rcall	.+516    	; 0x2a74 <__divsf3>
    2870:	9b 01       	movw	r18, r22
    2872:	ac 01       	movw	r20, r24
    2874:	c7 01       	movw	r24, r14
    2876:	b6 01       	movw	r22, r12
    2878:	95 d0       	rcall	.+298    	; 0x29a4 <__addsf3>
    287a:	60 93 b0 20 	sts	0x20B0, r22	; 0x8020b0 <gps_alt>
    287e:	70 93 b1 20 	sts	0x20B1, r23	; 0x8020b1 <gps_alt+0x1>
    2882:	80 93 b2 20 	sts	0x20B2, r24	; 0x8020b2 <gps_alt+0x2>
    2886:	90 93 b3 20 	sts	0x20B3, r25	; 0x8020b3 <gps_alt+0x3>
    288a:	cd bf       	out	0x3d, r28	; 61
    288c:	de bf       	out	0x3e, r29	; 62
    288e:	80 91 dc 20 	lds	r24, 0x20DC	; 0x8020dc <writing>
				break;
    2892:	88 23       	and	r24, r24
		}
	
		if(writing){
    2894:	d1 f0       	breq	.+52     	; 0x28ca <__vector_91+0x51e>
    2896:	10 92 d8 20 	sts	0x20D8, r1	; 0x8020d8 <idx>
    289a:	80 91 d9 20 	lds	r24, 0x20D9	; 0x8020d9 <commas>
			idx = 0;
    289e:	8f 5f       	subi	r24, 0xFF	; 255
			commas++;
    28a0:	80 93 d9 20 	sts	0x20D9, r24	; 0x8020d9 <commas>
    28a4:	10 92 da 20 	sts	0x20DA, r1	; 0x8020da <word_pos>
    28a8:	e8 ef       	ldi	r30, 0xF8	; 248
			word_pos = 0;
    28aa:	f0 e2       	ldi	r31, 0x20	; 32
    28ac:	27 e0       	ldi	r18, 0x07	; 7
    28ae:	31 e2       	ldi	r19, 0x21	; 33
    28b0:	80 e2       	ldi	r24, 0x20	; 32
    28b2:	81 93       	st	Z+, r24
    28b4:	2e 17       	cp	r18, r30
			for(uint8_t i = 0; i < 15; i++){
				gps[i] = 32;
    28b6:	3f 07       	cpc	r19, r31
    28b8:	e1 f7       	brne	.-8      	; 0x28b2 <__vector_91+0x506>
	
		if(writing){
			idx = 0;
			commas++;
			word_pos = 0;
			for(uint8_t i = 0; i < 15; i++){
    28ba:	e7 e0       	ldi	r30, 0x07	; 7
    28bc:	f1 e2       	ldi	r31, 0x21	; 33
    28be:	80 e2       	ldi	r24, 0x20	; 32
				gps[i] = 32;
			}
			for(uint8_t i = 0; i < 5; i++){
				dec[i] = 32;
    28c0:	80 83       	st	Z, r24
    28c2:	81 83       	std	Z+1, r24	; 0x01
    28c4:	82 83       	std	Z+2, r24	; 0x02
    28c6:	83 83       	std	Z+3, r24	; 0x03
    28c8:	84 83       	std	Z+4, r24	; 0x04
    28ca:	80 91 dc 20 	lds	r24, 0x20DC	; 0x8020dc <writing>
    28ce:	88 23       	and	r24, r24
			}
		}
	}
		
	if(writing){
    28d0:	09 f4       	brne	.+2      	; 0x28d4 <__vector_91+0x528>
    28d2:	40 c0       	rjmp	.+128    	; 0x2954 <__vector_91+0x5a8>
    28d4:	90 91 db 20 	lds	r25, 0x20DB	; 0x8020db <pos>
    28d8:	93 30       	cpi	r25, 0x03	; 3
		switch(pos){
    28da:	19 f0       	breq	.+6      	; 0x28e2 <__vector_91+0x536>
    28dc:	94 30       	cpi	r25, 0x04	; 4
    28de:	31 f0       	breq	.+12     	; 0x28ec <__vector_91+0x540>
    28e0:	09 c0       	rjmp	.+18     	; 0x28f4 <__vector_91+0x548>
    28e2:	17 34       	cpi	r17, 0x47	; 71
    28e4:	39 f0       	breq	.+14     	; 0x28f4 <__vector_91+0x548>
    28e6:	10 92 dc 20 	sts	0x20DC, r1	; 0x8020dc <writing>
			case 3:
				if(c != 'G'){
    28ea:	04 c0       	rjmp	.+8      	; 0x28f4 <__vector_91+0x548>
					writing = 0;
    28ec:	17 34       	cpi	r17, 0x47	; 71
    28ee:	11 f0       	breq	.+4      	; 0x28f4 <__vector_91+0x548>
    28f0:	10 92 dc 20 	sts	0x20DC, r1	; 0x8020dc <writing>
				}
				break;
				
			case 4:
				if(c != 'G'){
    28f4:	80 91 da 20 	lds	r24, 0x20DA	; 0x8020da <word_pos>
					writing = 0;
    28f8:	e8 2f       	mov	r30, r24
				}
				break;
		}
		gps[word_pos] = c;
    28fa:	f0 e0       	ldi	r31, 0x00	; 0
    28fc:	e8 50       	subi	r30, 0x08	; 8
    28fe:	ff 4d       	sbci	r31, 0xDF	; 223
    2900:	10 83       	st	Z, r17
    2902:	8f 5f       	subi	r24, 0xFF	; 255
    2904:	80 93 da 20 	sts	0x20DA, r24	; 0x8020da <word_pos>
		word_pos++;
    2908:	9f 5f       	subi	r25, 0xFF	; 255
    290a:	90 93 db 20 	sts	0x20DB, r25	; 0x8020db <pos>
		pos++;
    290e:	22 c0       	rjmp	.+68     	; 0x2954 <__vector_91+0x5a8>
    2910:	80 91 f8 20 	lds	r24, 0x20F8	; 0x8020f8 <gps>
	}
}
    2914:	8e 32       	cpi	r24, 0x2E	; 46
		int32_t val = 0;
		int16_t val2 = 0;
		switch(commas){
			case 1:			//Time
				for(uint8_t i = 0; i < 15; i++){
					if(gps[i] == (uint8_t) '.'){
    2916:	09 f4       	brne	.+2      	; 0x291a <__vector_91+0x56e>
    2918:	b1 cd       	rjmp	.-1182   	; 0x247c <__vector_91+0xd0>
    291a:	e9 ef       	ldi	r30, 0xF9	; 249
    291c:	f0 e2       	ldi	r31, 0x20	; 32
    291e:	81 e0       	ldi	r24, 0x01	; 1
    2920:	a9 cd       	rjmp	.-1198   	; 0x2474 <__vector_91+0xc8>
    2922:	19 82       	std	Y+1, r1	; 0x01
		}
		int32_t val = 0;
		int16_t val2 = 0;
		switch(commas){
			case 1:			//Time
				for(uint8_t i = 0; i < 15; i++){
    2924:	1a 82       	std	Y+2, r1	; 0x02
    2926:	1b 82       	std	Y+3, r1	; 0x03
	else if(c == (uint8_t) ','){
		gps[0] = 32;
		if(gps[1] == 32){
			gps[0] = '0';
		}
		int32_t val = 0;
    2928:	1c 82       	std	Y+4, r1	; 0x04
    292a:	1d 82       	std	Y+5, r1	; 0x05
    292c:	1e 82       	std	Y+6, r1	; 0x06
    292e:	80 91 d9 20 	lds	r24, 0x20D9	; 0x8020d9 <commas>
		int16_t val2 = 0;
    2932:	84 30       	cpi	r24, 0x04	; 4
		switch(commas){
    2934:	09 f4       	brne	.+2      	; 0x2938 <__vector_91+0x58c>
    2936:	92 cd       	rjmp	.-1244   	; 0x245c <__vector_91+0xb0>
    2938:	30 f4       	brcc	.+12     	; 0x2946 <__vector_91+0x59a>
    293a:	81 30       	cpi	r24, 0x01	; 1
    293c:	49 f3       	breq	.-46     	; 0x2910 <__vector_91+0x564>
    293e:	82 30       	cpi	r24, 0x02	; 2
    2940:	09 f4       	brne	.+2      	; 0x2944 <__vector_91+0x598>
    2942:	92 cd       	rjmp	.-1244   	; 0x2468 <__vector_91+0xbc>
    2944:	a4 cf       	rjmp	.-184    	; 0x288e <__vector_91+0x4e2>
    2946:	87 30       	cpi	r24, 0x07	; 7
    2948:	09 f4       	brne	.+2      	; 0x294c <__vector_91+0x5a0>
    294a:	11 cf       	rjmp	.-478    	; 0x276e <__vector_91+0x3c2>
    294c:	89 30       	cpi	r24, 0x09	; 9
    294e:	09 f4       	brne	.+2      	; 0x2952 <__vector_91+0x5a6>
    2950:	7f cd       	rjmp	.-1282   	; 0x2450 <__vector_91+0xa4>
    2952:	9d cf       	rjmp	.-198    	; 0x288e <__vector_91+0x4e2>
    2954:	26 96       	adiw	r28, 0x06	; 6
    2956:	cd bf       	out	0x3d, r28	; 61
    2958:	de bf       	out	0x3e, r29	; 62
		}
		gps[word_pos] = c;
		word_pos++;
		pos++;
	}
}
    295a:	df 91       	pop	r29
    295c:	cf 91       	pop	r28
    295e:	ff 91       	pop	r31
    2960:	ef 91       	pop	r30
    2962:	bf 91       	pop	r27
    2964:	af 91       	pop	r26
    2966:	9f 91       	pop	r25
    2968:	8f 91       	pop	r24
    296a:	7f 91       	pop	r23
    296c:	6f 91       	pop	r22
    296e:	5f 91       	pop	r21
    2970:	4f 91       	pop	r20
    2972:	3f 91       	pop	r19
    2974:	2f 91       	pop	r18
    2976:	1f 91       	pop	r17
    2978:	ff 90       	pop	r15
    297a:	ef 90       	pop	r14
    297c:	df 90       	pop	r13
    297e:	cf 90       	pop	r12
    2980:	bf 90       	pop	r11
    2982:	af 90       	pop	r10
    2984:	9f 90       	pop	r9
    2986:	8f 90       	pop	r8
    2988:	0f 90       	pop	r0
    298a:	0b be       	out	0x3b, r0	; 59
    298c:	0f 90       	pop	r0
    298e:	0a be       	out	0x3a, r0	; 58
    2990:	0f 90       	pop	r0
    2992:	09 be       	out	0x39, r0	; 57
    2994:	0f 90       	pop	r0
    2996:	08 be       	out	0x38, r0	; 56
    2998:	0f 90       	pop	r0
    299a:	0f be       	out	0x3f, r0	; 63
    299c:	0f 90       	pop	r0
    299e:	1f 90       	pop	r1
    29a0:	18 95       	reti

000029a2 <__subsf3>:
    29a2:	50 58       	subi	r21, 0x80	; 128

000029a4 <__addsf3>:
    29a4:	bb 27       	eor	r27, r27
    29a6:	aa 27       	eor	r26, r26
    29a8:	0e d0       	rcall	.+28     	; 0x29c6 <__addsf3x>
    29aa:	9a c1       	rjmp	.+820    	; 0x2ce0 <__fp_round>
    29ac:	8b d1       	rcall	.+790    	; 0x2cc4 <__fp_pscA>
    29ae:	30 f0       	brcs	.+12     	; 0x29bc <__addsf3+0x18>
    29b0:	90 d1       	rcall	.+800    	; 0x2cd2 <__fp_pscB>
    29b2:	20 f0       	brcs	.+8      	; 0x29bc <__addsf3+0x18>
    29b4:	31 f4       	brne	.+12     	; 0x29c2 <__addsf3+0x1e>
    29b6:	9f 3f       	cpi	r25, 0xFF	; 255
    29b8:	11 f4       	brne	.+4      	; 0x29be <__addsf3+0x1a>
    29ba:	1e f4       	brtc	.+6      	; 0x29c2 <__addsf3+0x1e>
    29bc:	5b c1       	rjmp	.+694    	; 0x2c74 <__fp_nan>
    29be:	0e f4       	brtc	.+2      	; 0x29c2 <__addsf3+0x1e>
    29c0:	e0 95       	com	r30
    29c2:	e7 fb       	bst	r30, 7
    29c4:	51 c1       	rjmp	.+674    	; 0x2c68 <__fp_inf>

000029c6 <__addsf3x>:
    29c6:	e9 2f       	mov	r30, r25
    29c8:	9c d1       	rcall	.+824    	; 0x2d02 <__fp_split3>
    29ca:	80 f3       	brcs	.-32     	; 0x29ac <__addsf3+0x8>
    29cc:	ba 17       	cp	r27, r26
    29ce:	62 07       	cpc	r22, r18
    29d0:	73 07       	cpc	r23, r19
    29d2:	84 07       	cpc	r24, r20
    29d4:	95 07       	cpc	r25, r21
    29d6:	18 f0       	brcs	.+6      	; 0x29de <__addsf3x+0x18>
    29d8:	71 f4       	brne	.+28     	; 0x29f6 <__addsf3x+0x30>
    29da:	9e f5       	brtc	.+102    	; 0x2a42 <__addsf3x+0x7c>
    29dc:	b4 c1       	rjmp	.+872    	; 0x2d46 <__fp_zero>
    29de:	0e f4       	brtc	.+2      	; 0x29e2 <__addsf3x+0x1c>
    29e0:	e0 95       	com	r30
    29e2:	0b 2e       	mov	r0, r27
    29e4:	ba 2f       	mov	r27, r26
    29e6:	a0 2d       	mov	r26, r0
    29e8:	0b 01       	movw	r0, r22
    29ea:	b9 01       	movw	r22, r18
    29ec:	90 01       	movw	r18, r0
    29ee:	0c 01       	movw	r0, r24
    29f0:	ca 01       	movw	r24, r20
    29f2:	a0 01       	movw	r20, r0
    29f4:	11 24       	eor	r1, r1
    29f6:	ff 27       	eor	r31, r31
    29f8:	59 1b       	sub	r21, r25
    29fa:	99 f0       	breq	.+38     	; 0x2a22 <__addsf3x+0x5c>
    29fc:	59 3f       	cpi	r21, 0xF9	; 249
    29fe:	50 f4       	brcc	.+20     	; 0x2a14 <__addsf3x+0x4e>
    2a00:	50 3e       	cpi	r21, 0xE0	; 224
    2a02:	68 f1       	brcs	.+90     	; 0x2a5e <__addsf3x+0x98>
    2a04:	1a 16       	cp	r1, r26
    2a06:	f0 40       	sbci	r31, 0x00	; 0
    2a08:	a2 2f       	mov	r26, r18
    2a0a:	23 2f       	mov	r18, r19
    2a0c:	34 2f       	mov	r19, r20
    2a0e:	44 27       	eor	r20, r20
    2a10:	58 5f       	subi	r21, 0xF8	; 248
    2a12:	f3 cf       	rjmp	.-26     	; 0x29fa <__addsf3x+0x34>
    2a14:	46 95       	lsr	r20
    2a16:	37 95       	ror	r19
    2a18:	27 95       	ror	r18
    2a1a:	a7 95       	ror	r26
    2a1c:	f0 40       	sbci	r31, 0x00	; 0
    2a1e:	53 95       	inc	r21
    2a20:	c9 f7       	brne	.-14     	; 0x2a14 <__addsf3x+0x4e>
    2a22:	7e f4       	brtc	.+30     	; 0x2a42 <__addsf3x+0x7c>
    2a24:	1f 16       	cp	r1, r31
    2a26:	ba 0b       	sbc	r27, r26
    2a28:	62 0b       	sbc	r22, r18
    2a2a:	73 0b       	sbc	r23, r19
    2a2c:	84 0b       	sbc	r24, r20
    2a2e:	ba f0       	brmi	.+46     	; 0x2a5e <__addsf3x+0x98>
    2a30:	91 50       	subi	r25, 0x01	; 1
    2a32:	a1 f0       	breq	.+40     	; 0x2a5c <__addsf3x+0x96>
    2a34:	ff 0f       	add	r31, r31
    2a36:	bb 1f       	adc	r27, r27
    2a38:	66 1f       	adc	r22, r22
    2a3a:	77 1f       	adc	r23, r23
    2a3c:	88 1f       	adc	r24, r24
    2a3e:	c2 f7       	brpl	.-16     	; 0x2a30 <__addsf3x+0x6a>
    2a40:	0e c0       	rjmp	.+28     	; 0x2a5e <__addsf3x+0x98>
    2a42:	ba 0f       	add	r27, r26
    2a44:	62 1f       	adc	r22, r18
    2a46:	73 1f       	adc	r23, r19
    2a48:	84 1f       	adc	r24, r20
    2a4a:	48 f4       	brcc	.+18     	; 0x2a5e <__addsf3x+0x98>
    2a4c:	87 95       	ror	r24
    2a4e:	77 95       	ror	r23
    2a50:	67 95       	ror	r22
    2a52:	b7 95       	ror	r27
    2a54:	f7 95       	ror	r31
    2a56:	9e 3f       	cpi	r25, 0xFE	; 254
    2a58:	08 f0       	brcs	.+2      	; 0x2a5c <__addsf3x+0x96>
    2a5a:	b3 cf       	rjmp	.-154    	; 0x29c2 <__addsf3+0x1e>
    2a5c:	93 95       	inc	r25
    2a5e:	88 0f       	add	r24, r24
    2a60:	08 f0       	brcs	.+2      	; 0x2a64 <__addsf3x+0x9e>
    2a62:	99 27       	eor	r25, r25
    2a64:	ee 0f       	add	r30, r30
    2a66:	97 95       	ror	r25
    2a68:	87 95       	ror	r24
    2a6a:	08 95       	ret

00002a6c <__cmpsf2>:
    2a6c:	d9 d0       	rcall	.+434    	; 0x2c20 <__fp_cmp>
    2a6e:	08 f4       	brcc	.+2      	; 0x2a72 <__cmpsf2+0x6>
    2a70:	81 e0       	ldi	r24, 0x01	; 1
    2a72:	08 95       	ret

00002a74 <__divsf3>:
    2a74:	0c d0       	rcall	.+24     	; 0x2a8e <__divsf3x>
    2a76:	34 c1       	rjmp	.+616    	; 0x2ce0 <__fp_round>
    2a78:	2c d1       	rcall	.+600    	; 0x2cd2 <__fp_pscB>
    2a7a:	40 f0       	brcs	.+16     	; 0x2a8c <__divsf3+0x18>
    2a7c:	23 d1       	rcall	.+582    	; 0x2cc4 <__fp_pscA>
    2a7e:	30 f0       	brcs	.+12     	; 0x2a8c <__divsf3+0x18>
    2a80:	21 f4       	brne	.+8      	; 0x2a8a <__divsf3+0x16>
    2a82:	5f 3f       	cpi	r21, 0xFF	; 255
    2a84:	19 f0       	breq	.+6      	; 0x2a8c <__divsf3+0x18>
    2a86:	f0 c0       	rjmp	.+480    	; 0x2c68 <__fp_inf>
    2a88:	51 11       	cpse	r21, r1
    2a8a:	5e c1       	rjmp	.+700    	; 0x2d48 <__fp_szero>
    2a8c:	f3 c0       	rjmp	.+486    	; 0x2c74 <__fp_nan>

00002a8e <__divsf3x>:
    2a8e:	39 d1       	rcall	.+626    	; 0x2d02 <__fp_split3>
    2a90:	98 f3       	brcs	.-26     	; 0x2a78 <__divsf3+0x4>

00002a92 <__divsf3_pse>:
    2a92:	99 23       	and	r25, r25
    2a94:	c9 f3       	breq	.-14     	; 0x2a88 <__divsf3+0x14>
    2a96:	55 23       	and	r21, r21
    2a98:	b1 f3       	breq	.-20     	; 0x2a86 <__divsf3+0x12>
    2a9a:	95 1b       	sub	r25, r21
    2a9c:	55 0b       	sbc	r21, r21
    2a9e:	bb 27       	eor	r27, r27
    2aa0:	aa 27       	eor	r26, r26
    2aa2:	62 17       	cp	r22, r18
    2aa4:	73 07       	cpc	r23, r19
    2aa6:	84 07       	cpc	r24, r20
    2aa8:	38 f0       	brcs	.+14     	; 0x2ab8 <__divsf3_pse+0x26>
    2aaa:	9f 5f       	subi	r25, 0xFF	; 255
    2aac:	5f 4f       	sbci	r21, 0xFF	; 255
    2aae:	22 0f       	add	r18, r18
    2ab0:	33 1f       	adc	r19, r19
    2ab2:	44 1f       	adc	r20, r20
    2ab4:	aa 1f       	adc	r26, r26
    2ab6:	a9 f3       	breq	.-22     	; 0x2aa2 <__divsf3_pse+0x10>
    2ab8:	33 d0       	rcall	.+102    	; 0x2b20 <__divsf3_pse+0x8e>
    2aba:	0e 2e       	mov	r0, r30
    2abc:	3a f0       	brmi	.+14     	; 0x2acc <__divsf3_pse+0x3a>
    2abe:	e0 e8       	ldi	r30, 0x80	; 128
    2ac0:	30 d0       	rcall	.+96     	; 0x2b22 <__divsf3_pse+0x90>
    2ac2:	91 50       	subi	r25, 0x01	; 1
    2ac4:	50 40       	sbci	r21, 0x00	; 0
    2ac6:	e6 95       	lsr	r30
    2ac8:	00 1c       	adc	r0, r0
    2aca:	ca f7       	brpl	.-14     	; 0x2abe <__divsf3_pse+0x2c>
    2acc:	29 d0       	rcall	.+82     	; 0x2b20 <__divsf3_pse+0x8e>
    2ace:	fe 2f       	mov	r31, r30
    2ad0:	27 d0       	rcall	.+78     	; 0x2b20 <__divsf3_pse+0x8e>
    2ad2:	66 0f       	add	r22, r22
    2ad4:	77 1f       	adc	r23, r23
    2ad6:	88 1f       	adc	r24, r24
    2ad8:	bb 1f       	adc	r27, r27
    2ada:	26 17       	cp	r18, r22
    2adc:	37 07       	cpc	r19, r23
    2ade:	48 07       	cpc	r20, r24
    2ae0:	ab 07       	cpc	r26, r27
    2ae2:	b0 e8       	ldi	r27, 0x80	; 128
    2ae4:	09 f0       	breq	.+2      	; 0x2ae8 <__divsf3_pse+0x56>
    2ae6:	bb 0b       	sbc	r27, r27
    2ae8:	80 2d       	mov	r24, r0
    2aea:	bf 01       	movw	r22, r30
    2aec:	ff 27       	eor	r31, r31
    2aee:	93 58       	subi	r25, 0x83	; 131
    2af0:	5f 4f       	sbci	r21, 0xFF	; 255
    2af2:	2a f0       	brmi	.+10     	; 0x2afe <__divsf3_pse+0x6c>
    2af4:	9e 3f       	cpi	r25, 0xFE	; 254
    2af6:	51 05       	cpc	r21, r1
    2af8:	68 f0       	brcs	.+26     	; 0x2b14 <__divsf3_pse+0x82>
    2afa:	b6 c0       	rjmp	.+364    	; 0x2c68 <__fp_inf>
    2afc:	25 c1       	rjmp	.+586    	; 0x2d48 <__fp_szero>
    2afe:	5f 3f       	cpi	r21, 0xFF	; 255
    2b00:	ec f3       	brlt	.-6      	; 0x2afc <__divsf3_pse+0x6a>
    2b02:	98 3e       	cpi	r25, 0xE8	; 232
    2b04:	dc f3       	brlt	.-10     	; 0x2afc <__divsf3_pse+0x6a>
    2b06:	86 95       	lsr	r24
    2b08:	77 95       	ror	r23
    2b0a:	67 95       	ror	r22
    2b0c:	b7 95       	ror	r27
    2b0e:	f7 95       	ror	r31
    2b10:	9f 5f       	subi	r25, 0xFF	; 255
    2b12:	c9 f7       	brne	.-14     	; 0x2b06 <__divsf3_pse+0x74>
    2b14:	88 0f       	add	r24, r24
    2b16:	91 1d       	adc	r25, r1
    2b18:	96 95       	lsr	r25
    2b1a:	87 95       	ror	r24
    2b1c:	97 f9       	bld	r25, 7
    2b1e:	08 95       	ret
    2b20:	e1 e0       	ldi	r30, 0x01	; 1
    2b22:	66 0f       	add	r22, r22
    2b24:	77 1f       	adc	r23, r23
    2b26:	88 1f       	adc	r24, r24
    2b28:	bb 1f       	adc	r27, r27
    2b2a:	62 17       	cp	r22, r18
    2b2c:	73 07       	cpc	r23, r19
    2b2e:	84 07       	cpc	r24, r20
    2b30:	ba 07       	cpc	r27, r26
    2b32:	20 f0       	brcs	.+8      	; 0x2b3c <__divsf3_pse+0xaa>
    2b34:	62 1b       	sub	r22, r18
    2b36:	73 0b       	sbc	r23, r19
    2b38:	84 0b       	sbc	r24, r20
    2b3a:	ba 0b       	sbc	r27, r26
    2b3c:	ee 1f       	adc	r30, r30
    2b3e:	88 f7       	brcc	.-30     	; 0x2b22 <__divsf3_pse+0x90>
    2b40:	e0 95       	com	r30
    2b42:	08 95       	ret

00002b44 <__fixsfsi>:
    2b44:	04 d0       	rcall	.+8      	; 0x2b4e <__fixunssfsi>
    2b46:	68 94       	set
    2b48:	b1 11       	cpse	r27, r1
    2b4a:	fe c0       	rjmp	.+508    	; 0x2d48 <__fp_szero>
    2b4c:	08 95       	ret

00002b4e <__fixunssfsi>:
    2b4e:	e1 d0       	rcall	.+450    	; 0x2d12 <__fp_splitA>
    2b50:	88 f0       	brcs	.+34     	; 0x2b74 <__fixunssfsi+0x26>
    2b52:	9f 57       	subi	r25, 0x7F	; 127
    2b54:	90 f0       	brcs	.+36     	; 0x2b7a <__fixunssfsi+0x2c>
    2b56:	b9 2f       	mov	r27, r25
    2b58:	99 27       	eor	r25, r25
    2b5a:	b7 51       	subi	r27, 0x17	; 23
    2b5c:	a0 f0       	brcs	.+40     	; 0x2b86 <__fixunssfsi+0x38>
    2b5e:	d1 f0       	breq	.+52     	; 0x2b94 <__fixunssfsi+0x46>
    2b60:	66 0f       	add	r22, r22
    2b62:	77 1f       	adc	r23, r23
    2b64:	88 1f       	adc	r24, r24
    2b66:	99 1f       	adc	r25, r25
    2b68:	1a f0       	brmi	.+6      	; 0x2b70 <__fixunssfsi+0x22>
    2b6a:	ba 95       	dec	r27
    2b6c:	c9 f7       	brne	.-14     	; 0x2b60 <__fixunssfsi+0x12>
    2b6e:	12 c0       	rjmp	.+36     	; 0x2b94 <__fixunssfsi+0x46>
    2b70:	b1 30       	cpi	r27, 0x01	; 1
    2b72:	81 f0       	breq	.+32     	; 0x2b94 <__fixunssfsi+0x46>
    2b74:	e8 d0       	rcall	.+464    	; 0x2d46 <__fp_zero>
    2b76:	b1 e0       	ldi	r27, 0x01	; 1
    2b78:	08 95       	ret
    2b7a:	e5 c0       	rjmp	.+458    	; 0x2d46 <__fp_zero>
    2b7c:	67 2f       	mov	r22, r23
    2b7e:	78 2f       	mov	r23, r24
    2b80:	88 27       	eor	r24, r24
    2b82:	b8 5f       	subi	r27, 0xF8	; 248
    2b84:	39 f0       	breq	.+14     	; 0x2b94 <__fixunssfsi+0x46>
    2b86:	b9 3f       	cpi	r27, 0xF9	; 249
    2b88:	cc f3       	brlt	.-14     	; 0x2b7c <__fixunssfsi+0x2e>
    2b8a:	86 95       	lsr	r24
    2b8c:	77 95       	ror	r23
    2b8e:	67 95       	ror	r22
    2b90:	b3 95       	inc	r27
    2b92:	d9 f7       	brne	.-10     	; 0x2b8a <__fixunssfsi+0x3c>
    2b94:	3e f4       	brtc	.+14     	; 0x2ba4 <__fixunssfsi+0x56>
    2b96:	90 95       	com	r25
    2b98:	80 95       	com	r24
    2b9a:	70 95       	com	r23
    2b9c:	61 95       	neg	r22
    2b9e:	7f 4f       	sbci	r23, 0xFF	; 255
    2ba0:	8f 4f       	sbci	r24, 0xFF	; 255
    2ba2:	9f 4f       	sbci	r25, 0xFF	; 255
    2ba4:	08 95       	ret

00002ba6 <__floatunsisf>:
    2ba6:	e8 94       	clt
    2ba8:	09 c0       	rjmp	.+18     	; 0x2bbc <__floatsisf+0x12>

00002baa <__floatsisf>:
    2baa:	97 fb       	bst	r25, 7
    2bac:	3e f4       	brtc	.+14     	; 0x2bbc <__floatsisf+0x12>
    2bae:	90 95       	com	r25
    2bb0:	80 95       	com	r24
    2bb2:	70 95       	com	r23
    2bb4:	61 95       	neg	r22
    2bb6:	7f 4f       	sbci	r23, 0xFF	; 255
    2bb8:	8f 4f       	sbci	r24, 0xFF	; 255
    2bba:	9f 4f       	sbci	r25, 0xFF	; 255
    2bbc:	99 23       	and	r25, r25
    2bbe:	a9 f0       	breq	.+42     	; 0x2bea <__floatsisf+0x40>
    2bc0:	f9 2f       	mov	r31, r25
    2bc2:	96 e9       	ldi	r25, 0x96	; 150
    2bc4:	bb 27       	eor	r27, r27
    2bc6:	93 95       	inc	r25
    2bc8:	f6 95       	lsr	r31
    2bca:	87 95       	ror	r24
    2bcc:	77 95       	ror	r23
    2bce:	67 95       	ror	r22
    2bd0:	b7 95       	ror	r27
    2bd2:	f1 11       	cpse	r31, r1
    2bd4:	f8 cf       	rjmp	.-16     	; 0x2bc6 <__floatsisf+0x1c>
    2bd6:	fa f4       	brpl	.+62     	; 0x2c16 <__floatsisf+0x6c>
    2bd8:	bb 0f       	add	r27, r27
    2bda:	11 f4       	brne	.+4      	; 0x2be0 <__floatsisf+0x36>
    2bdc:	60 ff       	sbrs	r22, 0
    2bde:	1b c0       	rjmp	.+54     	; 0x2c16 <__floatsisf+0x6c>
    2be0:	6f 5f       	subi	r22, 0xFF	; 255
    2be2:	7f 4f       	sbci	r23, 0xFF	; 255
    2be4:	8f 4f       	sbci	r24, 0xFF	; 255
    2be6:	9f 4f       	sbci	r25, 0xFF	; 255
    2be8:	16 c0       	rjmp	.+44     	; 0x2c16 <__floatsisf+0x6c>
    2bea:	88 23       	and	r24, r24
    2bec:	11 f0       	breq	.+4      	; 0x2bf2 <__floatsisf+0x48>
    2bee:	96 e9       	ldi	r25, 0x96	; 150
    2bf0:	11 c0       	rjmp	.+34     	; 0x2c14 <__floatsisf+0x6a>
    2bf2:	77 23       	and	r23, r23
    2bf4:	21 f0       	breq	.+8      	; 0x2bfe <__floatsisf+0x54>
    2bf6:	9e e8       	ldi	r25, 0x8E	; 142
    2bf8:	87 2f       	mov	r24, r23
    2bfa:	76 2f       	mov	r23, r22
    2bfc:	05 c0       	rjmp	.+10     	; 0x2c08 <__floatsisf+0x5e>
    2bfe:	66 23       	and	r22, r22
    2c00:	71 f0       	breq	.+28     	; 0x2c1e <__floatsisf+0x74>
    2c02:	96 e8       	ldi	r25, 0x86	; 134
    2c04:	86 2f       	mov	r24, r22
    2c06:	70 e0       	ldi	r23, 0x00	; 0
    2c08:	60 e0       	ldi	r22, 0x00	; 0
    2c0a:	2a f0       	brmi	.+10     	; 0x2c16 <__floatsisf+0x6c>
    2c0c:	9a 95       	dec	r25
    2c0e:	66 0f       	add	r22, r22
    2c10:	77 1f       	adc	r23, r23
    2c12:	88 1f       	adc	r24, r24
    2c14:	da f7       	brpl	.-10     	; 0x2c0c <__floatsisf+0x62>
    2c16:	88 0f       	add	r24, r24
    2c18:	96 95       	lsr	r25
    2c1a:	87 95       	ror	r24
    2c1c:	97 f9       	bld	r25, 7
    2c1e:	08 95       	ret

00002c20 <__fp_cmp>:
    2c20:	99 0f       	add	r25, r25
    2c22:	00 08       	sbc	r0, r0
    2c24:	55 0f       	add	r21, r21
    2c26:	aa 0b       	sbc	r26, r26
    2c28:	e0 e8       	ldi	r30, 0x80	; 128
    2c2a:	fe ef       	ldi	r31, 0xFE	; 254
    2c2c:	16 16       	cp	r1, r22
    2c2e:	17 06       	cpc	r1, r23
    2c30:	e8 07       	cpc	r30, r24
    2c32:	f9 07       	cpc	r31, r25
    2c34:	c0 f0       	brcs	.+48     	; 0x2c66 <__fp_cmp+0x46>
    2c36:	12 16       	cp	r1, r18
    2c38:	13 06       	cpc	r1, r19
    2c3a:	e4 07       	cpc	r30, r20
    2c3c:	f5 07       	cpc	r31, r21
    2c3e:	98 f0       	brcs	.+38     	; 0x2c66 <__fp_cmp+0x46>
    2c40:	62 1b       	sub	r22, r18
    2c42:	73 0b       	sbc	r23, r19
    2c44:	84 0b       	sbc	r24, r20
    2c46:	95 0b       	sbc	r25, r21
    2c48:	39 f4       	brne	.+14     	; 0x2c58 <__fp_cmp+0x38>
    2c4a:	0a 26       	eor	r0, r26
    2c4c:	61 f0       	breq	.+24     	; 0x2c66 <__fp_cmp+0x46>
    2c4e:	23 2b       	or	r18, r19
    2c50:	24 2b       	or	r18, r20
    2c52:	25 2b       	or	r18, r21
    2c54:	21 f4       	brne	.+8      	; 0x2c5e <__fp_cmp+0x3e>
    2c56:	08 95       	ret
    2c58:	0a 26       	eor	r0, r26
    2c5a:	09 f4       	brne	.+2      	; 0x2c5e <__fp_cmp+0x3e>
    2c5c:	a1 40       	sbci	r26, 0x01	; 1
    2c5e:	a6 95       	lsr	r26
    2c60:	8f ef       	ldi	r24, 0xFF	; 255
    2c62:	81 1d       	adc	r24, r1
    2c64:	81 1d       	adc	r24, r1
    2c66:	08 95       	ret

00002c68 <__fp_inf>:
    2c68:	97 f9       	bld	r25, 7
    2c6a:	9f 67       	ori	r25, 0x7F	; 127
    2c6c:	80 e8       	ldi	r24, 0x80	; 128
    2c6e:	70 e0       	ldi	r23, 0x00	; 0
    2c70:	60 e0       	ldi	r22, 0x00	; 0
    2c72:	08 95       	ret

00002c74 <__fp_nan>:
    2c74:	9f ef       	ldi	r25, 0xFF	; 255
    2c76:	80 ec       	ldi	r24, 0xC0	; 192
    2c78:	08 95       	ret

00002c7a <__fp_powser>:
    2c7a:	df 93       	push	r29
    2c7c:	cf 93       	push	r28
    2c7e:	1f 93       	push	r17
    2c80:	0f 93       	push	r16
    2c82:	ff 92       	push	r15
    2c84:	ef 92       	push	r14
    2c86:	df 92       	push	r13
    2c88:	7b 01       	movw	r14, r22
    2c8a:	8c 01       	movw	r16, r24
    2c8c:	68 94       	set
    2c8e:	05 c0       	rjmp	.+10     	; 0x2c9a <__fp_powser+0x20>
    2c90:	da 2e       	mov	r13, r26
    2c92:	ef 01       	movw	r28, r30
    2c94:	76 d0       	rcall	.+236    	; 0x2d82 <__mulsf3x>
    2c96:	fe 01       	movw	r30, r28
    2c98:	e8 94       	clt
    2c9a:	a5 91       	lpm	r26, Z+
    2c9c:	25 91       	lpm	r18, Z+
    2c9e:	35 91       	lpm	r19, Z+
    2ca0:	45 91       	lpm	r20, Z+
    2ca2:	55 91       	lpm	r21, Z+
    2ca4:	ae f3       	brts	.-22     	; 0x2c90 <__fp_powser+0x16>
    2ca6:	ef 01       	movw	r28, r30
    2ca8:	8e de       	rcall	.-740    	; 0x29c6 <__addsf3x>
    2caa:	fe 01       	movw	r30, r28
    2cac:	97 01       	movw	r18, r14
    2cae:	a8 01       	movw	r20, r16
    2cb0:	da 94       	dec	r13
    2cb2:	79 f7       	brne	.-34     	; 0x2c92 <__fp_powser+0x18>
    2cb4:	df 90       	pop	r13
    2cb6:	ef 90       	pop	r14
    2cb8:	ff 90       	pop	r15
    2cba:	0f 91       	pop	r16
    2cbc:	1f 91       	pop	r17
    2cbe:	cf 91       	pop	r28
    2cc0:	df 91       	pop	r29
    2cc2:	08 95       	ret

00002cc4 <__fp_pscA>:
    2cc4:	00 24       	eor	r0, r0
    2cc6:	0a 94       	dec	r0
    2cc8:	16 16       	cp	r1, r22
    2cca:	17 06       	cpc	r1, r23
    2ccc:	18 06       	cpc	r1, r24
    2cce:	09 06       	cpc	r0, r25
    2cd0:	08 95       	ret

00002cd2 <__fp_pscB>:
    2cd2:	00 24       	eor	r0, r0
    2cd4:	0a 94       	dec	r0
    2cd6:	12 16       	cp	r1, r18
    2cd8:	13 06       	cpc	r1, r19
    2cda:	14 06       	cpc	r1, r20
    2cdc:	05 06       	cpc	r0, r21
    2cde:	08 95       	ret

00002ce0 <__fp_round>:
    2ce0:	09 2e       	mov	r0, r25
    2ce2:	03 94       	inc	r0
    2ce4:	00 0c       	add	r0, r0
    2ce6:	11 f4       	brne	.+4      	; 0x2cec <__fp_round+0xc>
    2ce8:	88 23       	and	r24, r24
    2cea:	52 f0       	brmi	.+20     	; 0x2d00 <__fp_round+0x20>
    2cec:	bb 0f       	add	r27, r27
    2cee:	40 f4       	brcc	.+16     	; 0x2d00 <__fp_round+0x20>
    2cf0:	bf 2b       	or	r27, r31
    2cf2:	11 f4       	brne	.+4      	; 0x2cf8 <__fp_round+0x18>
    2cf4:	60 ff       	sbrs	r22, 0
    2cf6:	04 c0       	rjmp	.+8      	; 0x2d00 <__fp_round+0x20>
    2cf8:	6f 5f       	subi	r22, 0xFF	; 255
    2cfa:	7f 4f       	sbci	r23, 0xFF	; 255
    2cfc:	8f 4f       	sbci	r24, 0xFF	; 255
    2cfe:	9f 4f       	sbci	r25, 0xFF	; 255
    2d00:	08 95       	ret

00002d02 <__fp_split3>:
    2d02:	57 fd       	sbrc	r21, 7
    2d04:	90 58       	subi	r25, 0x80	; 128
    2d06:	44 0f       	add	r20, r20
    2d08:	55 1f       	adc	r21, r21
    2d0a:	59 f0       	breq	.+22     	; 0x2d22 <__fp_splitA+0x10>
    2d0c:	5f 3f       	cpi	r21, 0xFF	; 255
    2d0e:	71 f0       	breq	.+28     	; 0x2d2c <__fp_splitA+0x1a>
    2d10:	47 95       	ror	r20

00002d12 <__fp_splitA>:
    2d12:	88 0f       	add	r24, r24
    2d14:	97 fb       	bst	r25, 7
    2d16:	99 1f       	adc	r25, r25
    2d18:	61 f0       	breq	.+24     	; 0x2d32 <__fp_splitA+0x20>
    2d1a:	9f 3f       	cpi	r25, 0xFF	; 255
    2d1c:	79 f0       	breq	.+30     	; 0x2d3c <__fp_splitA+0x2a>
    2d1e:	87 95       	ror	r24
    2d20:	08 95       	ret
    2d22:	12 16       	cp	r1, r18
    2d24:	13 06       	cpc	r1, r19
    2d26:	14 06       	cpc	r1, r20
    2d28:	55 1f       	adc	r21, r21
    2d2a:	f2 cf       	rjmp	.-28     	; 0x2d10 <__fp_split3+0xe>
    2d2c:	46 95       	lsr	r20
    2d2e:	f1 df       	rcall	.-30     	; 0x2d12 <__fp_splitA>
    2d30:	08 c0       	rjmp	.+16     	; 0x2d42 <__fp_splitA+0x30>
    2d32:	16 16       	cp	r1, r22
    2d34:	17 06       	cpc	r1, r23
    2d36:	18 06       	cpc	r1, r24
    2d38:	99 1f       	adc	r25, r25
    2d3a:	f1 cf       	rjmp	.-30     	; 0x2d1e <__fp_splitA+0xc>
    2d3c:	86 95       	lsr	r24
    2d3e:	71 05       	cpc	r23, r1
    2d40:	61 05       	cpc	r22, r1
    2d42:	08 94       	sec
    2d44:	08 95       	ret

00002d46 <__fp_zero>:
    2d46:	e8 94       	clt

00002d48 <__fp_szero>:
    2d48:	bb 27       	eor	r27, r27
    2d4a:	66 27       	eor	r22, r22
    2d4c:	77 27       	eor	r23, r23
    2d4e:	cb 01       	movw	r24, r22
    2d50:	97 f9       	bld	r25, 7
    2d52:	08 95       	ret

00002d54 <__gesf2>:
    2d54:	65 df       	rcall	.-310    	; 0x2c20 <__fp_cmp>
    2d56:	08 f4       	brcc	.+2      	; 0x2d5a <__gesf2+0x6>
    2d58:	8f ef       	ldi	r24, 0xFF	; 255
    2d5a:	08 95       	ret

00002d5c <inverse>:
    2d5c:	9b 01       	movw	r18, r22
    2d5e:	ac 01       	movw	r20, r24
    2d60:	60 e0       	ldi	r22, 0x00	; 0
    2d62:	70 e0       	ldi	r23, 0x00	; 0
    2d64:	80 e8       	ldi	r24, 0x80	; 128
    2d66:	9f e3       	ldi	r25, 0x3F	; 63
    2d68:	85 ce       	rjmp	.-758    	; 0x2a74 <__divsf3>

00002d6a <__mulsf3>:
    2d6a:	0b d0       	rcall	.+22     	; 0x2d82 <__mulsf3x>
    2d6c:	b9 cf       	rjmp	.-142    	; 0x2ce0 <__fp_round>
    2d6e:	aa df       	rcall	.-172    	; 0x2cc4 <__fp_pscA>
    2d70:	28 f0       	brcs	.+10     	; 0x2d7c <__mulsf3+0x12>
    2d72:	af df       	rcall	.-162    	; 0x2cd2 <__fp_pscB>
    2d74:	18 f0       	brcs	.+6      	; 0x2d7c <__mulsf3+0x12>
    2d76:	95 23       	and	r25, r21
    2d78:	09 f0       	breq	.+2      	; 0x2d7c <__mulsf3+0x12>
    2d7a:	76 cf       	rjmp	.-276    	; 0x2c68 <__fp_inf>
    2d7c:	7b cf       	rjmp	.-266    	; 0x2c74 <__fp_nan>
    2d7e:	11 24       	eor	r1, r1
    2d80:	e3 cf       	rjmp	.-58     	; 0x2d48 <__fp_szero>

00002d82 <__mulsf3x>:
    2d82:	bf df       	rcall	.-130    	; 0x2d02 <__fp_split3>
    2d84:	a0 f3       	brcs	.-24     	; 0x2d6e <__mulsf3+0x4>

00002d86 <__mulsf3_pse>:
    2d86:	95 9f       	mul	r25, r21
    2d88:	d1 f3       	breq	.-12     	; 0x2d7e <__mulsf3+0x14>
    2d8a:	95 0f       	add	r25, r21
    2d8c:	50 e0       	ldi	r21, 0x00	; 0
    2d8e:	55 1f       	adc	r21, r21
    2d90:	62 9f       	mul	r22, r18
    2d92:	f0 01       	movw	r30, r0
    2d94:	72 9f       	mul	r23, r18
    2d96:	bb 27       	eor	r27, r27
    2d98:	f0 0d       	add	r31, r0
    2d9a:	b1 1d       	adc	r27, r1
    2d9c:	63 9f       	mul	r22, r19
    2d9e:	aa 27       	eor	r26, r26
    2da0:	f0 0d       	add	r31, r0
    2da2:	b1 1d       	adc	r27, r1
    2da4:	aa 1f       	adc	r26, r26
    2da6:	64 9f       	mul	r22, r20
    2da8:	66 27       	eor	r22, r22
    2daa:	b0 0d       	add	r27, r0
    2dac:	a1 1d       	adc	r26, r1
    2dae:	66 1f       	adc	r22, r22
    2db0:	82 9f       	mul	r24, r18
    2db2:	22 27       	eor	r18, r18
    2db4:	b0 0d       	add	r27, r0
    2db6:	a1 1d       	adc	r26, r1
    2db8:	62 1f       	adc	r22, r18
    2dba:	73 9f       	mul	r23, r19
    2dbc:	b0 0d       	add	r27, r0
    2dbe:	a1 1d       	adc	r26, r1
    2dc0:	62 1f       	adc	r22, r18
    2dc2:	83 9f       	mul	r24, r19
    2dc4:	a0 0d       	add	r26, r0
    2dc6:	61 1d       	adc	r22, r1
    2dc8:	22 1f       	adc	r18, r18
    2dca:	74 9f       	mul	r23, r20
    2dcc:	33 27       	eor	r19, r19
    2dce:	a0 0d       	add	r26, r0
    2dd0:	61 1d       	adc	r22, r1
    2dd2:	23 1f       	adc	r18, r19
    2dd4:	84 9f       	mul	r24, r20
    2dd6:	60 0d       	add	r22, r0
    2dd8:	21 1d       	adc	r18, r1
    2dda:	82 2f       	mov	r24, r18
    2ddc:	76 2f       	mov	r23, r22
    2dde:	6a 2f       	mov	r22, r26
    2de0:	11 24       	eor	r1, r1
    2de2:	9f 57       	subi	r25, 0x7F	; 127
    2de4:	50 40       	sbci	r21, 0x00	; 0
    2de6:	8a f0       	brmi	.+34     	; 0x2e0a <__mulsf3_pse+0x84>
    2de8:	e1 f0       	breq	.+56     	; 0x2e22 <__mulsf3_pse+0x9c>
    2dea:	88 23       	and	r24, r24
    2dec:	4a f0       	brmi	.+18     	; 0x2e00 <__mulsf3_pse+0x7a>
    2dee:	ee 0f       	add	r30, r30
    2df0:	ff 1f       	adc	r31, r31
    2df2:	bb 1f       	adc	r27, r27
    2df4:	66 1f       	adc	r22, r22
    2df6:	77 1f       	adc	r23, r23
    2df8:	88 1f       	adc	r24, r24
    2dfa:	91 50       	subi	r25, 0x01	; 1
    2dfc:	50 40       	sbci	r21, 0x00	; 0
    2dfe:	a9 f7       	brne	.-22     	; 0x2dea <__mulsf3_pse+0x64>
    2e00:	9e 3f       	cpi	r25, 0xFE	; 254
    2e02:	51 05       	cpc	r21, r1
    2e04:	70 f0       	brcs	.+28     	; 0x2e22 <__mulsf3_pse+0x9c>
    2e06:	30 cf       	rjmp	.-416    	; 0x2c68 <__fp_inf>
    2e08:	9f cf       	rjmp	.-194    	; 0x2d48 <__fp_szero>
    2e0a:	5f 3f       	cpi	r21, 0xFF	; 255
    2e0c:	ec f3       	brlt	.-6      	; 0x2e08 <__mulsf3_pse+0x82>
    2e0e:	98 3e       	cpi	r25, 0xE8	; 232
    2e10:	dc f3       	brlt	.-10     	; 0x2e08 <__mulsf3_pse+0x82>
    2e12:	86 95       	lsr	r24
    2e14:	77 95       	ror	r23
    2e16:	67 95       	ror	r22
    2e18:	b7 95       	ror	r27
    2e1a:	f7 95       	ror	r31
    2e1c:	e7 95       	ror	r30
    2e1e:	9f 5f       	subi	r25, 0xFF	; 255
    2e20:	c1 f7       	brne	.-16     	; 0x2e12 <__mulsf3_pse+0x8c>
    2e22:	fe 2b       	or	r31, r30
    2e24:	88 0f       	add	r24, r24
    2e26:	91 1d       	adc	r25, r1
    2e28:	96 95       	lsr	r25
    2e2a:	87 95       	ror	r24
    2e2c:	97 f9       	bld	r25, 7
    2e2e:	08 95       	ret

00002e30 <pow>:
    2e30:	fa 01       	movw	r30, r20
    2e32:	ee 0f       	add	r30, r30
    2e34:	ff 1f       	adc	r31, r31
    2e36:	30 96       	adiw	r30, 0x00	; 0
    2e38:	21 05       	cpc	r18, r1
    2e3a:	31 05       	cpc	r19, r1
    2e3c:	99 f1       	breq	.+102    	; 0x2ea4 <pow+0x74>
    2e3e:	61 15       	cp	r22, r1
    2e40:	71 05       	cpc	r23, r1
    2e42:	61 f4       	brne	.+24     	; 0x2e5c <pow+0x2c>
    2e44:	80 38       	cpi	r24, 0x80	; 128
    2e46:	bf e3       	ldi	r27, 0x3F	; 63
    2e48:	9b 07       	cpc	r25, r27
    2e4a:	49 f1       	breq	.+82     	; 0x2e9e <pow+0x6e>
    2e4c:	68 94       	set
    2e4e:	90 38       	cpi	r25, 0x80	; 128
    2e50:	81 05       	cpc	r24, r1
    2e52:	61 f0       	breq	.+24     	; 0x2e6c <pow+0x3c>
    2e54:	80 38       	cpi	r24, 0x80	; 128
    2e56:	bf ef       	ldi	r27, 0xFF	; 255
    2e58:	9b 07       	cpc	r25, r27
    2e5a:	41 f0       	breq	.+16     	; 0x2e6c <pow+0x3c>
    2e5c:	99 23       	and	r25, r25
    2e5e:	42 f5       	brpl	.+80     	; 0x2eb0 <pow+0x80>
    2e60:	ff 3f       	cpi	r31, 0xFF	; 255
    2e62:	e1 05       	cpc	r30, r1
    2e64:	31 05       	cpc	r19, r1
    2e66:	21 05       	cpc	r18, r1
    2e68:	11 f1       	breq	.+68     	; 0x2eae <pow+0x7e>
    2e6a:	e8 94       	clt
    2e6c:	08 94       	sec
    2e6e:	e7 95       	ror	r30
    2e70:	d9 01       	movw	r26, r18
    2e72:	aa 23       	and	r26, r26
    2e74:	29 f4       	brne	.+10     	; 0x2e80 <pow+0x50>
    2e76:	ab 2f       	mov	r26, r27
    2e78:	be 2f       	mov	r27, r30
    2e7a:	f8 5f       	subi	r31, 0xF8	; 248
    2e7c:	d0 f3       	brcs	.-12     	; 0x2e72 <pow+0x42>
    2e7e:	10 c0       	rjmp	.+32     	; 0x2ea0 <pow+0x70>
    2e80:	ff 5f       	subi	r31, 0xFF	; 255
    2e82:	70 f4       	brcc	.+28     	; 0x2ea0 <pow+0x70>
    2e84:	a6 95       	lsr	r26
    2e86:	e0 f7       	brcc	.-8      	; 0x2e80 <pow+0x50>
    2e88:	f7 39       	cpi	r31, 0x97	; 151
    2e8a:	50 f0       	brcs	.+20     	; 0x2ea0 <pow+0x70>
    2e8c:	19 f0       	breq	.+6      	; 0x2e94 <pow+0x64>
    2e8e:	ff 3a       	cpi	r31, 0xAF	; 175
    2e90:	38 f4       	brcc	.+14     	; 0x2ea0 <pow+0x70>
    2e92:	9f 77       	andi	r25, 0x7F	; 127
    2e94:	9f 93       	push	r25
    2e96:	0c d0       	rcall	.+24     	; 0x2eb0 <pow+0x80>
    2e98:	0f 90       	pop	r0
    2e9a:	07 fc       	sbrc	r0, 7
    2e9c:	90 58       	subi	r25, 0x80	; 128
    2e9e:	08 95       	ret
    2ea0:	3e f0       	brts	.+14     	; 0x2eb0 <pow+0x80>
    2ea2:	e8 ce       	rjmp	.-560    	; 0x2c74 <__fp_nan>
    2ea4:	60 e0       	ldi	r22, 0x00	; 0
    2ea6:	70 e0       	ldi	r23, 0x00	; 0
    2ea8:	80 e8       	ldi	r24, 0x80	; 128
    2eaa:	9f e3       	ldi	r25, 0x3F	; 63
    2eac:	08 95       	ret
    2eae:	4f e7       	ldi	r20, 0x7F	; 127
    2eb0:	9f 77       	andi	r25, 0x7F	; 127
    2eb2:	5f 93       	push	r21
    2eb4:	4f 93       	push	r20
    2eb6:	3f 93       	push	r19
    2eb8:	2f 93       	push	r18
    2eba:	80 d0       	rcall	.+256    	; 0x2fbc <log>
    2ebc:	2f 91       	pop	r18
    2ebe:	3f 91       	pop	r19
    2ec0:	4f 91       	pop	r20
    2ec2:	5f 91       	pop	r21
    2ec4:	52 df       	rcall	.-348    	; 0x2d6a <__mulsf3>
    2ec6:	05 c0       	rjmp	.+10     	; 0x2ed2 <exp>
    2ec8:	19 f4       	brne	.+6      	; 0x2ed0 <pow+0xa0>
    2eca:	0e f0       	brts	.+2      	; 0x2ece <pow+0x9e>
    2ecc:	cd ce       	rjmp	.-614    	; 0x2c68 <__fp_inf>
    2ece:	3b cf       	rjmp	.-394    	; 0x2d46 <__fp_zero>
    2ed0:	d1 ce       	rjmp	.-606    	; 0x2c74 <__fp_nan>

00002ed2 <exp>:
    2ed2:	1f df       	rcall	.-450    	; 0x2d12 <__fp_splitA>
    2ed4:	c8 f3       	brcs	.-14     	; 0x2ec8 <pow+0x98>
    2ed6:	96 38       	cpi	r25, 0x86	; 134
    2ed8:	c0 f7       	brcc	.-16     	; 0x2eca <pow+0x9a>
    2eda:	07 f8       	bld	r0, 7
    2edc:	0f 92       	push	r0
    2ede:	e8 94       	clt
    2ee0:	2b e3       	ldi	r18, 0x3B	; 59
    2ee2:	3a ea       	ldi	r19, 0xAA	; 170
    2ee4:	48 eb       	ldi	r20, 0xB8	; 184
    2ee6:	5f e7       	ldi	r21, 0x7F	; 127
    2ee8:	4e df       	rcall	.-356    	; 0x2d86 <__mulsf3_pse>
    2eea:	0f 92       	push	r0
    2eec:	0f 92       	push	r0
    2eee:	0f 92       	push	r0
    2ef0:	4d b7       	in	r20, 0x3d	; 61
    2ef2:	5e b7       	in	r21, 0x3e	; 62
    2ef4:	0f 92       	push	r0
    2ef6:	a2 d0       	rcall	.+324    	; 0x303c <modf>
    2ef8:	ec ef       	ldi	r30, 0xFC	; 252
    2efa:	f1 e0       	ldi	r31, 0x01	; 1
    2efc:	be de       	rcall	.-644    	; 0x2c7a <__fp_powser>
    2efe:	4f 91       	pop	r20
    2f00:	5f 91       	pop	r21
    2f02:	ef 91       	pop	r30
    2f04:	ff 91       	pop	r31
    2f06:	e5 95       	asr	r30
    2f08:	ee 1f       	adc	r30, r30
    2f0a:	ff 1f       	adc	r31, r31
    2f0c:	49 f0       	breq	.+18     	; 0x2f20 <exp+0x4e>
    2f0e:	fe 57       	subi	r31, 0x7E	; 126
    2f10:	e0 68       	ori	r30, 0x80	; 128
    2f12:	44 27       	eor	r20, r20
    2f14:	ee 0f       	add	r30, r30
    2f16:	44 1f       	adc	r20, r20
    2f18:	fa 95       	dec	r31
    2f1a:	e1 f7       	brne	.-8      	; 0x2f14 <exp+0x42>
    2f1c:	41 95       	neg	r20
    2f1e:	55 0b       	sbc	r21, r21
    2f20:	14 d0       	rcall	.+40     	; 0x2f4a <ldexp>
    2f22:	0f 90       	pop	r0
    2f24:	07 fe       	sbrs	r0, 7
    2f26:	1a cf       	rjmp	.-460    	; 0x2d5c <inverse>
    2f28:	08 95       	ret

00002f2a <__fp_mpack>:
    2f2a:	9f 3f       	cpi	r25, 0xFF	; 255
    2f2c:	31 f0       	breq	.+12     	; 0x2f3a <__fp_mpack_finite+0xc>

00002f2e <__fp_mpack_finite>:
    2f2e:	91 50       	subi	r25, 0x01	; 1
    2f30:	20 f4       	brcc	.+8      	; 0x2f3a <__fp_mpack_finite+0xc>
    2f32:	87 95       	ror	r24
    2f34:	77 95       	ror	r23
    2f36:	67 95       	ror	r22
    2f38:	b7 95       	ror	r27
    2f3a:	88 0f       	add	r24, r24
    2f3c:	91 1d       	adc	r25, r1
    2f3e:	96 95       	lsr	r25
    2f40:	87 95       	ror	r24
    2f42:	97 f9       	bld	r25, 7
    2f44:	08 95       	ret
    2f46:	90 ce       	rjmp	.-736    	; 0x2c68 <__fp_inf>
    2f48:	f0 cf       	rjmp	.-32     	; 0x2f2a <__fp_mpack>

00002f4a <ldexp>:
    2f4a:	e3 de       	rcall	.-570    	; 0x2d12 <__fp_splitA>
    2f4c:	e8 f3       	brcs	.-6      	; 0x2f48 <__fp_mpack_finite+0x1a>
    2f4e:	99 23       	and	r25, r25
    2f50:	d9 f3       	breq	.-10     	; 0x2f48 <__fp_mpack_finite+0x1a>
    2f52:	94 0f       	add	r25, r20
    2f54:	51 1d       	adc	r21, r1
    2f56:	bb f3       	brvs	.-18     	; 0x2f46 <__fp_mpack_finite+0x18>
    2f58:	91 50       	subi	r25, 0x01	; 1
    2f5a:	50 40       	sbci	r21, 0x00	; 0
    2f5c:	94 f0       	brlt	.+36     	; 0x2f82 <ldexp+0x38>
    2f5e:	59 f0       	breq	.+22     	; 0x2f76 <ldexp+0x2c>
    2f60:	88 23       	and	r24, r24
    2f62:	32 f0       	brmi	.+12     	; 0x2f70 <ldexp+0x26>
    2f64:	66 0f       	add	r22, r22
    2f66:	77 1f       	adc	r23, r23
    2f68:	88 1f       	adc	r24, r24
    2f6a:	91 50       	subi	r25, 0x01	; 1
    2f6c:	50 40       	sbci	r21, 0x00	; 0
    2f6e:	c1 f7       	brne	.-16     	; 0x2f60 <ldexp+0x16>
    2f70:	9e 3f       	cpi	r25, 0xFE	; 254
    2f72:	51 05       	cpc	r21, r1
    2f74:	44 f7       	brge	.-48     	; 0x2f46 <__fp_mpack_finite+0x18>
    2f76:	88 0f       	add	r24, r24
    2f78:	91 1d       	adc	r25, r1
    2f7a:	96 95       	lsr	r25
    2f7c:	87 95       	ror	r24
    2f7e:	97 f9       	bld	r25, 7
    2f80:	08 95       	ret
    2f82:	5f 3f       	cpi	r21, 0xFF	; 255
    2f84:	ac f0       	brlt	.+42     	; 0x2fb0 <ldexp+0x66>
    2f86:	98 3e       	cpi	r25, 0xE8	; 232
    2f88:	9c f0       	brlt	.+38     	; 0x2fb0 <ldexp+0x66>
    2f8a:	bb 27       	eor	r27, r27
    2f8c:	86 95       	lsr	r24
    2f8e:	77 95       	ror	r23
    2f90:	67 95       	ror	r22
    2f92:	b7 95       	ror	r27
    2f94:	08 f4       	brcc	.+2      	; 0x2f98 <ldexp+0x4e>
    2f96:	b1 60       	ori	r27, 0x01	; 1
    2f98:	93 95       	inc	r25
    2f9a:	c1 f7       	brne	.-16     	; 0x2f8c <ldexp+0x42>
    2f9c:	bb 0f       	add	r27, r27
    2f9e:	58 f7       	brcc	.-42     	; 0x2f76 <ldexp+0x2c>
    2fa0:	11 f4       	brne	.+4      	; 0x2fa6 <ldexp+0x5c>
    2fa2:	60 ff       	sbrs	r22, 0
    2fa4:	e8 cf       	rjmp	.-48     	; 0x2f76 <ldexp+0x2c>
    2fa6:	6f 5f       	subi	r22, 0xFF	; 255
    2fa8:	7f 4f       	sbci	r23, 0xFF	; 255
    2faa:	8f 4f       	sbci	r24, 0xFF	; 255
    2fac:	9f 4f       	sbci	r25, 0xFF	; 255
    2fae:	e3 cf       	rjmp	.-58     	; 0x2f76 <ldexp+0x2c>
    2fb0:	cb ce       	rjmp	.-618    	; 0x2d48 <__fp_szero>
    2fb2:	0e f0       	brts	.+2      	; 0x2fb6 <ldexp+0x6c>
    2fb4:	ba cf       	rjmp	.-140    	; 0x2f2a <__fp_mpack>
    2fb6:	5e ce       	rjmp	.-836    	; 0x2c74 <__fp_nan>
    2fb8:	68 94       	set
    2fba:	56 ce       	rjmp	.-852    	; 0x2c68 <__fp_inf>

00002fbc <log>:
    2fbc:	aa de       	rcall	.-684    	; 0x2d12 <__fp_splitA>
    2fbe:	c8 f3       	brcs	.-14     	; 0x2fb2 <ldexp+0x68>
    2fc0:	99 23       	and	r25, r25
    2fc2:	d1 f3       	breq	.-12     	; 0x2fb8 <ldexp+0x6e>
    2fc4:	c6 f3       	brts	.-16     	; 0x2fb6 <ldexp+0x6c>
    2fc6:	df 93       	push	r29
    2fc8:	cf 93       	push	r28
    2fca:	1f 93       	push	r17
    2fcc:	0f 93       	push	r16
    2fce:	ff 92       	push	r15
    2fd0:	c9 2f       	mov	r28, r25
    2fd2:	dd 27       	eor	r29, r29
    2fd4:	88 23       	and	r24, r24
    2fd6:	2a f0       	brmi	.+10     	; 0x2fe2 <log+0x26>
    2fd8:	21 97       	sbiw	r28, 0x01	; 1
    2fda:	66 0f       	add	r22, r22
    2fdc:	77 1f       	adc	r23, r23
    2fde:	88 1f       	adc	r24, r24
    2fe0:	da f7       	brpl	.-10     	; 0x2fd8 <log+0x1c>
    2fe2:	20 e0       	ldi	r18, 0x00	; 0
    2fe4:	30 e0       	ldi	r19, 0x00	; 0
    2fe6:	40 e8       	ldi	r20, 0x80	; 128
    2fe8:	5f eb       	ldi	r21, 0xBF	; 191
    2fea:	9f e3       	ldi	r25, 0x3F	; 63
    2fec:	88 39       	cpi	r24, 0x98	; 152
    2fee:	20 f0       	brcs	.+8      	; 0x2ff8 <log+0x3c>
    2ff0:	80 3e       	cpi	r24, 0xE0	; 224
    2ff2:	30 f0       	brcs	.+12     	; 0x3000 <log+0x44>
    2ff4:	21 96       	adiw	r28, 0x01	; 1
    2ff6:	8f 77       	andi	r24, 0x7F	; 127
    2ff8:	d5 dc       	rcall	.-1622   	; 0x29a4 <__addsf3>
    2ffa:	e4 e2       	ldi	r30, 0x24	; 36
    2ffc:	f2 e0       	ldi	r31, 0x02	; 2
    2ffe:	03 c0       	rjmp	.+6      	; 0x3006 <log+0x4a>
    3000:	d1 dc       	rcall	.-1630   	; 0x29a4 <__addsf3>
    3002:	e1 e5       	ldi	r30, 0x51	; 81
    3004:	f2 e0       	ldi	r31, 0x02	; 2
    3006:	39 de       	rcall	.-910    	; 0x2c7a <__fp_powser>
    3008:	8b 01       	movw	r16, r22
    300a:	be 01       	movw	r22, r28
    300c:	ec 01       	movw	r28, r24
    300e:	fb 2e       	mov	r15, r27
    3010:	6f 57       	subi	r22, 0x7F	; 127
    3012:	71 09       	sbc	r23, r1
    3014:	75 95       	asr	r23
    3016:	77 1f       	adc	r23, r23
    3018:	88 0b       	sbc	r24, r24
    301a:	99 0b       	sbc	r25, r25
    301c:	c6 dd       	rcall	.-1140   	; 0x2baa <__floatsisf>
    301e:	28 e1       	ldi	r18, 0x18	; 24
    3020:	32 e7       	ldi	r19, 0x72	; 114
    3022:	41 e3       	ldi	r20, 0x31	; 49
    3024:	5f e3       	ldi	r21, 0x3F	; 63
    3026:	ad de       	rcall	.-678    	; 0x2d82 <__mulsf3x>
    3028:	af 2d       	mov	r26, r15
    302a:	98 01       	movw	r18, r16
    302c:	ae 01       	movw	r20, r28
    302e:	ff 90       	pop	r15
    3030:	0f 91       	pop	r16
    3032:	1f 91       	pop	r17
    3034:	cf 91       	pop	r28
    3036:	df 91       	pop	r29
    3038:	c6 dc       	rcall	.-1652   	; 0x29c6 <__addsf3x>
    303a:	52 ce       	rjmp	.-860    	; 0x2ce0 <__fp_round>

0000303c <modf>:
    303c:	fa 01       	movw	r30, r20
    303e:	dc 01       	movw	r26, r24
    3040:	aa 0f       	add	r26, r26
    3042:	bb 1f       	adc	r27, r27
    3044:	9b 01       	movw	r18, r22
    3046:	ac 01       	movw	r20, r24
    3048:	bf 57       	subi	r27, 0x7F	; 127
    304a:	28 f4       	brcc	.+10     	; 0x3056 <modf+0x1a>
    304c:	22 27       	eor	r18, r18
    304e:	33 27       	eor	r19, r19
    3050:	44 27       	eor	r20, r20
    3052:	50 78       	andi	r21, 0x80	; 128
    3054:	1f c0       	rjmp	.+62     	; 0x3094 <modf+0x58>
    3056:	b7 51       	subi	r27, 0x17	; 23
    3058:	88 f4       	brcc	.+34     	; 0x307c <modf+0x40>
    305a:	ab 2f       	mov	r26, r27
    305c:	00 24       	eor	r0, r0
    305e:	46 95       	lsr	r20
    3060:	37 95       	ror	r19
    3062:	27 95       	ror	r18
    3064:	01 1c       	adc	r0, r1
    3066:	a3 95       	inc	r26
    3068:	d2 f3       	brmi	.-12     	; 0x305e <modf+0x22>
    306a:	00 20       	and	r0, r0
    306c:	69 f0       	breq	.+26     	; 0x3088 <modf+0x4c>
    306e:	22 0f       	add	r18, r18
    3070:	33 1f       	adc	r19, r19
    3072:	44 1f       	adc	r20, r20
    3074:	b3 95       	inc	r27
    3076:	da f3       	brmi	.-10     	; 0x306e <modf+0x32>
    3078:	0d d0       	rcall	.+26     	; 0x3094 <modf+0x58>
    307a:	93 cc       	rjmp	.-1754   	; 0x29a2 <__subsf3>
    307c:	61 30       	cpi	r22, 0x01	; 1
    307e:	71 05       	cpc	r23, r1
    3080:	a0 e8       	ldi	r26, 0x80	; 128
    3082:	8a 07       	cpc	r24, r26
    3084:	b9 46       	sbci	r27, 0x69	; 105
    3086:	30 f4       	brcc	.+12     	; 0x3094 <modf+0x58>
    3088:	9b 01       	movw	r18, r22
    308a:	ac 01       	movw	r20, r24
    308c:	66 27       	eor	r22, r22
    308e:	77 27       	eor	r23, r23
    3090:	88 27       	eor	r24, r24
    3092:	90 78       	andi	r25, 0x80	; 128
    3094:	30 96       	adiw	r30, 0x00	; 0
    3096:	21 f0       	breq	.+8      	; 0x30a0 <modf+0x64>
    3098:	20 83       	st	Z, r18
    309a:	31 83       	std	Z+1, r19	; 0x01
    309c:	42 83       	std	Z+2, r20	; 0x02
    309e:	53 83       	std	Z+3, r21	; 0x03
    30a0:	08 95       	ret

000030a2 <__mulsi3>:
    30a2:	db 01       	movw	r26, r22
    30a4:	8f 93       	push	r24
    30a6:	9f 93       	push	r25
    30a8:	70 d0       	rcall	.+224    	; 0x318a <__muluhisi3>
    30aa:	bf 91       	pop	r27
    30ac:	af 91       	pop	r26
    30ae:	a2 9f       	mul	r26, r18
    30b0:	80 0d       	add	r24, r0
    30b2:	91 1d       	adc	r25, r1
    30b4:	a3 9f       	mul	r26, r19
    30b6:	90 0d       	add	r25, r0
    30b8:	b2 9f       	mul	r27, r18
    30ba:	90 0d       	add	r25, r0
    30bc:	11 24       	eor	r1, r1
    30be:	08 95       	ret

000030c0 <__udivmodhi4>:
    30c0:	aa 1b       	sub	r26, r26
    30c2:	bb 1b       	sub	r27, r27
    30c4:	51 e1       	ldi	r21, 0x11	; 17
    30c6:	07 c0       	rjmp	.+14     	; 0x30d6 <__udivmodhi4_ep>

000030c8 <__udivmodhi4_loop>:
    30c8:	aa 1f       	adc	r26, r26
    30ca:	bb 1f       	adc	r27, r27
    30cc:	a6 17       	cp	r26, r22
    30ce:	b7 07       	cpc	r27, r23
    30d0:	10 f0       	brcs	.+4      	; 0x30d6 <__udivmodhi4_ep>
    30d2:	a6 1b       	sub	r26, r22
    30d4:	b7 0b       	sbc	r27, r23

000030d6 <__udivmodhi4_ep>:
    30d6:	88 1f       	adc	r24, r24
    30d8:	99 1f       	adc	r25, r25
    30da:	5a 95       	dec	r21
    30dc:	a9 f7       	brne	.-22     	; 0x30c8 <__udivmodhi4_loop>
    30de:	80 95       	com	r24
    30e0:	90 95       	com	r25
    30e2:	bc 01       	movw	r22, r24
    30e4:	cd 01       	movw	r24, r26
    30e6:	08 95       	ret

000030e8 <__divmodhi4>:
    30e8:	97 fb       	bst	r25, 7
    30ea:	07 2e       	mov	r0, r23
    30ec:	16 f4       	brtc	.+4      	; 0x30f2 <__divmodhi4+0xa>
    30ee:	00 94       	com	r0
    30f0:	06 d0       	rcall	.+12     	; 0x30fe <__divmodhi4_neg1>
    30f2:	77 fd       	sbrc	r23, 7
    30f4:	08 d0       	rcall	.+16     	; 0x3106 <__divmodhi4_neg2>
    30f6:	e4 df       	rcall	.-56     	; 0x30c0 <__udivmodhi4>
    30f8:	07 fc       	sbrc	r0, 7
    30fa:	05 d0       	rcall	.+10     	; 0x3106 <__divmodhi4_neg2>
    30fc:	3e f4       	brtc	.+14     	; 0x310c <__divmodhi4_exit>

000030fe <__divmodhi4_neg1>:
    30fe:	90 95       	com	r25
    3100:	81 95       	neg	r24
    3102:	9f 4f       	sbci	r25, 0xFF	; 255
    3104:	08 95       	ret

00003106 <__divmodhi4_neg2>:
    3106:	70 95       	com	r23
    3108:	61 95       	neg	r22
    310a:	7f 4f       	sbci	r23, 0xFF	; 255

0000310c <__divmodhi4_exit>:
    310c:	08 95       	ret

0000310e <__udivmodsi4>:
    310e:	a1 e2       	ldi	r26, 0x21	; 33
    3110:	1a 2e       	mov	r1, r26
    3112:	aa 1b       	sub	r26, r26
    3114:	bb 1b       	sub	r27, r27
    3116:	fd 01       	movw	r30, r26
    3118:	0d c0       	rjmp	.+26     	; 0x3134 <__udivmodsi4_ep>

0000311a <__udivmodsi4_loop>:
    311a:	aa 1f       	adc	r26, r26
    311c:	bb 1f       	adc	r27, r27
    311e:	ee 1f       	adc	r30, r30
    3120:	ff 1f       	adc	r31, r31
    3122:	a2 17       	cp	r26, r18
    3124:	b3 07       	cpc	r27, r19
    3126:	e4 07       	cpc	r30, r20
    3128:	f5 07       	cpc	r31, r21
    312a:	20 f0       	brcs	.+8      	; 0x3134 <__udivmodsi4_ep>
    312c:	a2 1b       	sub	r26, r18
    312e:	b3 0b       	sbc	r27, r19
    3130:	e4 0b       	sbc	r30, r20
    3132:	f5 0b       	sbc	r31, r21

00003134 <__udivmodsi4_ep>:
    3134:	66 1f       	adc	r22, r22
    3136:	77 1f       	adc	r23, r23
    3138:	88 1f       	adc	r24, r24
    313a:	99 1f       	adc	r25, r25
    313c:	1a 94       	dec	r1
    313e:	69 f7       	brne	.-38     	; 0x311a <__udivmodsi4_loop>
    3140:	60 95       	com	r22
    3142:	70 95       	com	r23
    3144:	80 95       	com	r24
    3146:	90 95       	com	r25
    3148:	9b 01       	movw	r18, r22
    314a:	ac 01       	movw	r20, r24
    314c:	bd 01       	movw	r22, r26
    314e:	cf 01       	movw	r24, r30
    3150:	08 95       	ret

00003152 <__divmodsi4>:
    3152:	05 2e       	mov	r0, r21
    3154:	97 fb       	bst	r25, 7
    3156:	16 f4       	brtc	.+4      	; 0x315c <__divmodsi4+0xa>
    3158:	00 94       	com	r0
    315a:	0f d0       	rcall	.+30     	; 0x317a <__negsi2>
    315c:	57 fd       	sbrc	r21, 7
    315e:	05 d0       	rcall	.+10     	; 0x316a <__divmodsi4_neg2>
    3160:	d6 df       	rcall	.-84     	; 0x310e <__udivmodsi4>
    3162:	07 fc       	sbrc	r0, 7
    3164:	02 d0       	rcall	.+4      	; 0x316a <__divmodsi4_neg2>
    3166:	46 f4       	brtc	.+16     	; 0x3178 <__divmodsi4_exit>
    3168:	08 c0       	rjmp	.+16     	; 0x317a <__negsi2>

0000316a <__divmodsi4_neg2>:
    316a:	50 95       	com	r21
    316c:	40 95       	com	r20
    316e:	30 95       	com	r19
    3170:	21 95       	neg	r18
    3172:	3f 4f       	sbci	r19, 0xFF	; 255
    3174:	4f 4f       	sbci	r20, 0xFF	; 255
    3176:	5f 4f       	sbci	r21, 0xFF	; 255

00003178 <__divmodsi4_exit>:
    3178:	08 95       	ret

0000317a <__negsi2>:
    317a:	90 95       	com	r25
    317c:	80 95       	com	r24
    317e:	70 95       	com	r23
    3180:	61 95       	neg	r22
    3182:	7f 4f       	sbci	r23, 0xFF	; 255
    3184:	8f 4f       	sbci	r24, 0xFF	; 255
    3186:	9f 4f       	sbci	r25, 0xFF	; 255
    3188:	08 95       	ret

0000318a <__muluhisi3>:
    318a:	0f d0       	rcall	.+30     	; 0x31aa <__umulhisi3>
    318c:	a5 9f       	mul	r26, r21
    318e:	90 0d       	add	r25, r0
    3190:	b4 9f       	mul	r27, r20
    3192:	90 0d       	add	r25, r0
    3194:	a4 9f       	mul	r26, r20
    3196:	80 0d       	add	r24, r0
    3198:	91 1d       	adc	r25, r1
    319a:	11 24       	eor	r1, r1
    319c:	08 95       	ret

0000319e <__mulshisi3>:
    319e:	b7 ff       	sbrs	r27, 7
    31a0:	f4 cf       	rjmp	.-24     	; 0x318a <__muluhisi3>

000031a2 <__mulohisi3>:
    31a2:	f3 df       	rcall	.-26     	; 0x318a <__muluhisi3>
    31a4:	82 1b       	sub	r24, r18
    31a6:	93 0b       	sbc	r25, r19
    31a8:	08 95       	ret

000031aa <__umulhisi3>:
    31aa:	a2 9f       	mul	r26, r18
    31ac:	b0 01       	movw	r22, r0
    31ae:	b3 9f       	mul	r27, r19
    31b0:	c0 01       	movw	r24, r0
    31b2:	a3 9f       	mul	r26, r19
    31b4:	70 0d       	add	r23, r0
    31b6:	81 1d       	adc	r24, r1
    31b8:	11 24       	eor	r1, r1
    31ba:	91 1d       	adc	r25, r1
    31bc:	b2 9f       	mul	r27, r18
    31be:	70 0d       	add	r23, r0
    31c0:	81 1d       	adc	r24, r1
    31c2:	11 24       	eor	r1, r1
    31c4:	91 1d       	adc	r25, r1
    31c6:	08 95       	ret

000031c8 <fdevopen>:
    31c8:	0f 93       	push	r16
    31ca:	1f 93       	push	r17
    31cc:	cf 93       	push	r28
    31ce:	df 93       	push	r29
    31d0:	00 97       	sbiw	r24, 0x00	; 0
    31d2:	31 f4       	brne	.+12     	; 0x31e0 <fdevopen+0x18>
    31d4:	61 15       	cp	r22, r1
    31d6:	71 05       	cpc	r23, r1
    31d8:	19 f4       	brne	.+6      	; 0x31e0 <fdevopen+0x18>
    31da:	80 e0       	ldi	r24, 0x00	; 0
    31dc:	90 e0       	ldi	r25, 0x00	; 0
    31de:	39 c0       	rjmp	.+114    	; 0x3252 <fdevopen+0x8a>
    31e0:	8b 01       	movw	r16, r22
    31e2:	ec 01       	movw	r28, r24
    31e4:	6e e0       	ldi	r22, 0x0E	; 14
    31e6:	70 e0       	ldi	r23, 0x00	; 0
    31e8:	81 e0       	ldi	r24, 0x01	; 1
    31ea:	90 e0       	ldi	r25, 0x00	; 0
    31ec:	47 d5       	rcall	.+2702   	; 0x3c7c <calloc>
    31ee:	fc 01       	movw	r30, r24
    31f0:	89 2b       	or	r24, r25
    31f2:	99 f3       	breq	.-26     	; 0x31da <fdevopen+0x12>
    31f4:	80 e8       	ldi	r24, 0x80	; 128
    31f6:	83 83       	std	Z+3, r24	; 0x03
    31f8:	01 15       	cp	r16, r1
    31fa:	11 05       	cpc	r17, r1
    31fc:	71 f0       	breq	.+28     	; 0x321a <fdevopen+0x52>
    31fe:	02 87       	std	Z+10, r16	; 0x0a
    3200:	13 87       	std	Z+11, r17	; 0x0b
    3202:	81 e8       	ldi	r24, 0x81	; 129
    3204:	83 83       	std	Z+3, r24	; 0x03
    3206:	80 91 70 21 	lds	r24, 0x2170	; 0x802170 <__iob>
    320a:	90 91 71 21 	lds	r25, 0x2171	; 0x802171 <__iob+0x1>
    320e:	89 2b       	or	r24, r25
    3210:	21 f4       	brne	.+8      	; 0x321a <fdevopen+0x52>
    3212:	e0 93 70 21 	sts	0x2170, r30	; 0x802170 <__iob>
    3216:	f0 93 71 21 	sts	0x2171, r31	; 0x802171 <__iob+0x1>
    321a:	20 97       	sbiw	r28, 0x00	; 0
    321c:	c9 f0       	breq	.+50     	; 0x3250 <fdevopen+0x88>
    321e:	c0 87       	std	Z+8, r28	; 0x08
    3220:	d1 87       	std	Z+9, r29	; 0x09
    3222:	83 81       	ldd	r24, Z+3	; 0x03
    3224:	82 60       	ori	r24, 0x02	; 2
    3226:	83 83       	std	Z+3, r24	; 0x03
    3228:	80 91 72 21 	lds	r24, 0x2172	; 0x802172 <__iob+0x2>
    322c:	90 91 73 21 	lds	r25, 0x2173	; 0x802173 <__iob+0x3>
    3230:	89 2b       	or	r24, r25
    3232:	71 f4       	brne	.+28     	; 0x3250 <fdevopen+0x88>
    3234:	e0 93 72 21 	sts	0x2172, r30	; 0x802172 <__iob+0x2>
    3238:	f0 93 73 21 	sts	0x2173, r31	; 0x802173 <__iob+0x3>
    323c:	80 91 74 21 	lds	r24, 0x2174	; 0x802174 <__iob+0x4>
    3240:	90 91 75 21 	lds	r25, 0x2175	; 0x802175 <__iob+0x5>
    3244:	89 2b       	or	r24, r25
    3246:	21 f4       	brne	.+8      	; 0x3250 <fdevopen+0x88>
    3248:	e0 93 74 21 	sts	0x2174, r30	; 0x802174 <__iob+0x4>
    324c:	f0 93 75 21 	sts	0x2175, r31	; 0x802175 <__iob+0x5>
    3250:	cf 01       	movw	r24, r30
    3252:	df 91       	pop	r29
    3254:	cf 91       	pop	r28
    3256:	1f 91       	pop	r17
    3258:	0f 91       	pop	r16
    325a:	08 95       	ret

0000325c <printf>:
    325c:	cf 93       	push	r28
    325e:	df 93       	push	r29
    3260:	cd b7       	in	r28, 0x3d	; 61
    3262:	de b7       	in	r29, 0x3e	; 62
    3264:	ae 01       	movw	r20, r28
    3266:	4a 5f       	subi	r20, 0xFA	; 250
    3268:	5f 4f       	sbci	r21, 0xFF	; 255
    326a:	fa 01       	movw	r30, r20
    326c:	61 91       	ld	r22, Z+
    326e:	71 91       	ld	r23, Z+
    3270:	af 01       	movw	r20, r30
    3272:	80 91 72 21 	lds	r24, 0x2172	; 0x802172 <__iob+0x2>
    3276:	90 91 73 21 	lds	r25, 0x2173	; 0x802173 <__iob+0x3>
    327a:	46 d0       	rcall	.+140    	; 0x3308 <vfprintf>
    327c:	df 91       	pop	r29
    327e:	cf 91       	pop	r28
    3280:	08 95       	ret

00003282 <sprintf>:
    3282:	0f 93       	push	r16
    3284:	1f 93       	push	r17
    3286:	cf 93       	push	r28
    3288:	df 93       	push	r29
    328a:	cd b7       	in	r28, 0x3d	; 61
    328c:	de b7       	in	r29, 0x3e	; 62
    328e:	2e 97       	sbiw	r28, 0x0e	; 14
    3290:	cd bf       	out	0x3d, r28	; 61
    3292:	de bf       	out	0x3e, r29	; 62
    3294:	0e 89       	ldd	r16, Y+22	; 0x16
    3296:	1f 89       	ldd	r17, Y+23	; 0x17
    3298:	86 e0       	ldi	r24, 0x06	; 6
    329a:	8c 83       	std	Y+4, r24	; 0x04
    329c:	09 83       	std	Y+1, r16	; 0x01
    329e:	1a 83       	std	Y+2, r17	; 0x02
    32a0:	8f ef       	ldi	r24, 0xFF	; 255
    32a2:	9f e7       	ldi	r25, 0x7F	; 127
    32a4:	8d 83       	std	Y+5, r24	; 0x05
    32a6:	9e 83       	std	Y+6, r25	; 0x06
    32a8:	ae 01       	movw	r20, r28
    32aa:	46 5e       	subi	r20, 0xE6	; 230
    32ac:	5f 4f       	sbci	r21, 0xFF	; 255
    32ae:	68 8d       	ldd	r22, Y+24	; 0x18
    32b0:	79 8d       	ldd	r23, Y+25	; 0x19
    32b2:	ce 01       	movw	r24, r28
    32b4:	01 96       	adiw	r24, 0x01	; 1
    32b6:	28 d0       	rcall	.+80     	; 0x3308 <vfprintf>
    32b8:	ef 81       	ldd	r30, Y+7	; 0x07
    32ba:	f8 85       	ldd	r31, Y+8	; 0x08
    32bc:	e0 0f       	add	r30, r16
    32be:	f1 1f       	adc	r31, r17
    32c0:	10 82       	st	Z, r1
    32c2:	2e 96       	adiw	r28, 0x0e	; 14
    32c4:	cd bf       	out	0x3d, r28	; 61
    32c6:	de bf       	out	0x3e, r29	; 62
    32c8:	df 91       	pop	r29
    32ca:	cf 91       	pop	r28
    32cc:	1f 91       	pop	r17
    32ce:	0f 91       	pop	r16
    32d0:	08 95       	ret

000032d2 <sscanf>:
    32d2:	cf 93       	push	r28
    32d4:	df 93       	push	r29
    32d6:	cd b7       	in	r28, 0x3d	; 61
    32d8:	de b7       	in	r29, 0x3e	; 62
    32da:	2e 97       	sbiw	r28, 0x0e	; 14
    32dc:	cd bf       	out	0x3d, r28	; 61
    32de:	de bf       	out	0x3e, r29	; 62
    32e0:	85 e0       	ldi	r24, 0x05	; 5
    32e2:	8c 83       	std	Y+4, r24	; 0x04
    32e4:	8c 89       	ldd	r24, Y+20	; 0x14
    32e6:	9d 89       	ldd	r25, Y+21	; 0x15
    32e8:	89 83       	std	Y+1, r24	; 0x01
    32ea:	9a 83       	std	Y+2, r25	; 0x02
    32ec:	ae 01       	movw	r20, r28
    32ee:	48 5e       	subi	r20, 0xE8	; 232
    32f0:	5f 4f       	sbci	r21, 0xFF	; 255
    32f2:	6e 89       	ldd	r22, Y+22	; 0x16
    32f4:	7f 89       	ldd	r23, Y+23	; 0x17
    32f6:	ce 01       	movw	r24, r28
    32f8:	01 96       	adiw	r24, 0x01	; 1
    32fa:	a9 d3       	rcall	.+1874   	; 0x3a4e <vfscanf>
    32fc:	2e 96       	adiw	r28, 0x0e	; 14
    32fe:	cd bf       	out	0x3d, r28	; 61
    3300:	de bf       	out	0x3e, r29	; 62
    3302:	df 91       	pop	r29
    3304:	cf 91       	pop	r28
    3306:	08 95       	ret

00003308 <vfprintf>:
    3308:	2f 92       	push	r2
    330a:	3f 92       	push	r3
    330c:	4f 92       	push	r4
    330e:	5f 92       	push	r5
    3310:	6f 92       	push	r6
    3312:	7f 92       	push	r7
    3314:	8f 92       	push	r8
    3316:	9f 92       	push	r9
    3318:	af 92       	push	r10
    331a:	bf 92       	push	r11
    331c:	cf 92       	push	r12
    331e:	df 92       	push	r13
    3320:	ef 92       	push	r14
    3322:	ff 92       	push	r15
    3324:	0f 93       	push	r16
    3326:	1f 93       	push	r17
    3328:	cf 93       	push	r28
    332a:	df 93       	push	r29
    332c:	cd b7       	in	r28, 0x3d	; 61
    332e:	de b7       	in	r29, 0x3e	; 62
    3330:	2b 97       	sbiw	r28, 0x0b	; 11
    3332:	cd bf       	out	0x3d, r28	; 61
    3334:	de bf       	out	0x3e, r29	; 62
    3336:	6c 01       	movw	r12, r24
    3338:	7b 01       	movw	r14, r22
    333a:	8a 01       	movw	r16, r20
    333c:	fc 01       	movw	r30, r24
    333e:	16 82       	std	Z+6, r1	; 0x06
    3340:	17 82       	std	Z+7, r1	; 0x07
    3342:	83 81       	ldd	r24, Z+3	; 0x03
    3344:	81 ff       	sbrs	r24, 1
    3346:	bf c1       	rjmp	.+894    	; 0x36c6 <vfprintf+0x3be>
    3348:	ce 01       	movw	r24, r28
    334a:	01 96       	adiw	r24, 0x01	; 1
    334c:	3c 01       	movw	r6, r24
    334e:	f6 01       	movw	r30, r12
    3350:	93 81       	ldd	r25, Z+3	; 0x03
    3352:	f7 01       	movw	r30, r14
    3354:	93 fd       	sbrc	r25, 3
    3356:	85 91       	lpm	r24, Z+
    3358:	93 ff       	sbrs	r25, 3
    335a:	81 91       	ld	r24, Z+
    335c:	7f 01       	movw	r14, r30
    335e:	88 23       	and	r24, r24
    3360:	09 f4       	brne	.+2      	; 0x3364 <vfprintf+0x5c>
    3362:	ad c1       	rjmp	.+858    	; 0x36be <vfprintf+0x3b6>
    3364:	85 32       	cpi	r24, 0x25	; 37
    3366:	39 f4       	brne	.+14     	; 0x3376 <vfprintf+0x6e>
    3368:	93 fd       	sbrc	r25, 3
    336a:	85 91       	lpm	r24, Z+
    336c:	93 ff       	sbrs	r25, 3
    336e:	81 91       	ld	r24, Z+
    3370:	7f 01       	movw	r14, r30
    3372:	85 32       	cpi	r24, 0x25	; 37
    3374:	21 f4       	brne	.+8      	; 0x337e <vfprintf+0x76>
    3376:	b6 01       	movw	r22, r12
    3378:	90 e0       	ldi	r25, 0x00	; 0
    337a:	29 d6       	rcall	.+3154   	; 0x3fce <fputc>
    337c:	e8 cf       	rjmp	.-48     	; 0x334e <vfprintf+0x46>
    337e:	91 2c       	mov	r9, r1
    3380:	21 2c       	mov	r2, r1
    3382:	31 2c       	mov	r3, r1
    3384:	ff e1       	ldi	r31, 0x1F	; 31
    3386:	f3 15       	cp	r31, r3
    3388:	d8 f0       	brcs	.+54     	; 0x33c0 <vfprintf+0xb8>
    338a:	8b 32       	cpi	r24, 0x2B	; 43
    338c:	79 f0       	breq	.+30     	; 0x33ac <vfprintf+0xa4>
    338e:	38 f4       	brcc	.+14     	; 0x339e <vfprintf+0x96>
    3390:	80 32       	cpi	r24, 0x20	; 32
    3392:	79 f0       	breq	.+30     	; 0x33b2 <vfprintf+0xaa>
    3394:	83 32       	cpi	r24, 0x23	; 35
    3396:	a1 f4       	brne	.+40     	; 0x33c0 <vfprintf+0xb8>
    3398:	23 2d       	mov	r18, r3
    339a:	20 61       	ori	r18, 0x10	; 16
    339c:	1d c0       	rjmp	.+58     	; 0x33d8 <vfprintf+0xd0>
    339e:	8d 32       	cpi	r24, 0x2D	; 45
    33a0:	61 f0       	breq	.+24     	; 0x33ba <vfprintf+0xb2>
    33a2:	80 33       	cpi	r24, 0x30	; 48
    33a4:	69 f4       	brne	.+26     	; 0x33c0 <vfprintf+0xb8>
    33a6:	23 2d       	mov	r18, r3
    33a8:	21 60       	ori	r18, 0x01	; 1
    33aa:	16 c0       	rjmp	.+44     	; 0x33d8 <vfprintf+0xd0>
    33ac:	83 2d       	mov	r24, r3
    33ae:	82 60       	ori	r24, 0x02	; 2
    33b0:	38 2e       	mov	r3, r24
    33b2:	e3 2d       	mov	r30, r3
    33b4:	e4 60       	ori	r30, 0x04	; 4
    33b6:	3e 2e       	mov	r3, r30
    33b8:	2a c0       	rjmp	.+84     	; 0x340e <vfprintf+0x106>
    33ba:	f3 2d       	mov	r31, r3
    33bc:	f8 60       	ori	r31, 0x08	; 8
    33be:	1d c0       	rjmp	.+58     	; 0x33fa <vfprintf+0xf2>
    33c0:	37 fc       	sbrc	r3, 7
    33c2:	2d c0       	rjmp	.+90     	; 0x341e <vfprintf+0x116>
    33c4:	20 ed       	ldi	r18, 0xD0	; 208
    33c6:	28 0f       	add	r18, r24
    33c8:	2a 30       	cpi	r18, 0x0A	; 10
    33ca:	40 f0       	brcs	.+16     	; 0x33dc <vfprintf+0xd4>
    33cc:	8e 32       	cpi	r24, 0x2E	; 46
    33ce:	b9 f4       	brne	.+46     	; 0x33fe <vfprintf+0xf6>
    33d0:	36 fc       	sbrc	r3, 6
    33d2:	75 c1       	rjmp	.+746    	; 0x36be <vfprintf+0x3b6>
    33d4:	23 2d       	mov	r18, r3
    33d6:	20 64       	ori	r18, 0x40	; 64
    33d8:	32 2e       	mov	r3, r18
    33da:	19 c0       	rjmp	.+50     	; 0x340e <vfprintf+0x106>
    33dc:	36 fe       	sbrs	r3, 6
    33de:	06 c0       	rjmp	.+12     	; 0x33ec <vfprintf+0xe4>
    33e0:	8a e0       	ldi	r24, 0x0A	; 10
    33e2:	98 9e       	mul	r9, r24
    33e4:	20 0d       	add	r18, r0
    33e6:	11 24       	eor	r1, r1
    33e8:	92 2e       	mov	r9, r18
    33ea:	11 c0       	rjmp	.+34     	; 0x340e <vfprintf+0x106>
    33ec:	ea e0       	ldi	r30, 0x0A	; 10
    33ee:	2e 9e       	mul	r2, r30
    33f0:	20 0d       	add	r18, r0
    33f2:	11 24       	eor	r1, r1
    33f4:	22 2e       	mov	r2, r18
    33f6:	f3 2d       	mov	r31, r3
    33f8:	f0 62       	ori	r31, 0x20	; 32
    33fa:	3f 2e       	mov	r3, r31
    33fc:	08 c0       	rjmp	.+16     	; 0x340e <vfprintf+0x106>
    33fe:	8c 36       	cpi	r24, 0x6C	; 108
    3400:	21 f4       	brne	.+8      	; 0x340a <vfprintf+0x102>
    3402:	83 2d       	mov	r24, r3
    3404:	80 68       	ori	r24, 0x80	; 128
    3406:	38 2e       	mov	r3, r24
    3408:	02 c0       	rjmp	.+4      	; 0x340e <vfprintf+0x106>
    340a:	88 36       	cpi	r24, 0x68	; 104
    340c:	41 f4       	brne	.+16     	; 0x341e <vfprintf+0x116>
    340e:	f7 01       	movw	r30, r14
    3410:	93 fd       	sbrc	r25, 3
    3412:	85 91       	lpm	r24, Z+
    3414:	93 ff       	sbrs	r25, 3
    3416:	81 91       	ld	r24, Z+
    3418:	7f 01       	movw	r14, r30
    341a:	81 11       	cpse	r24, r1
    341c:	b3 cf       	rjmp	.-154    	; 0x3384 <vfprintf+0x7c>
    341e:	98 2f       	mov	r25, r24
    3420:	9f 7d       	andi	r25, 0xDF	; 223
    3422:	95 54       	subi	r25, 0x45	; 69
    3424:	93 30       	cpi	r25, 0x03	; 3
    3426:	28 f4       	brcc	.+10     	; 0x3432 <vfprintf+0x12a>
    3428:	0c 5f       	subi	r16, 0xFC	; 252
    342a:	1f 4f       	sbci	r17, 0xFF	; 255
    342c:	9f e3       	ldi	r25, 0x3F	; 63
    342e:	99 83       	std	Y+1, r25	; 0x01
    3430:	0d c0       	rjmp	.+26     	; 0x344c <vfprintf+0x144>
    3432:	83 36       	cpi	r24, 0x63	; 99
    3434:	31 f0       	breq	.+12     	; 0x3442 <vfprintf+0x13a>
    3436:	83 37       	cpi	r24, 0x73	; 115
    3438:	71 f0       	breq	.+28     	; 0x3456 <vfprintf+0x14e>
    343a:	83 35       	cpi	r24, 0x53	; 83
    343c:	09 f0       	breq	.+2      	; 0x3440 <vfprintf+0x138>
    343e:	55 c0       	rjmp	.+170    	; 0x34ea <vfprintf+0x1e2>
    3440:	20 c0       	rjmp	.+64     	; 0x3482 <vfprintf+0x17a>
    3442:	f8 01       	movw	r30, r16
    3444:	80 81       	ld	r24, Z
    3446:	89 83       	std	Y+1, r24	; 0x01
    3448:	0e 5f       	subi	r16, 0xFE	; 254
    344a:	1f 4f       	sbci	r17, 0xFF	; 255
    344c:	88 24       	eor	r8, r8
    344e:	83 94       	inc	r8
    3450:	91 2c       	mov	r9, r1
    3452:	53 01       	movw	r10, r6
    3454:	12 c0       	rjmp	.+36     	; 0x347a <vfprintf+0x172>
    3456:	28 01       	movw	r4, r16
    3458:	f2 e0       	ldi	r31, 0x02	; 2
    345a:	4f 0e       	add	r4, r31
    345c:	51 1c       	adc	r5, r1
    345e:	f8 01       	movw	r30, r16
    3460:	a0 80       	ld	r10, Z
    3462:	b1 80       	ldd	r11, Z+1	; 0x01
    3464:	36 fe       	sbrs	r3, 6
    3466:	03 c0       	rjmp	.+6      	; 0x346e <vfprintf+0x166>
    3468:	69 2d       	mov	r22, r9
    346a:	70 e0       	ldi	r23, 0x00	; 0
    346c:	02 c0       	rjmp	.+4      	; 0x3472 <vfprintf+0x16a>
    346e:	6f ef       	ldi	r22, 0xFF	; 255
    3470:	7f ef       	ldi	r23, 0xFF	; 255
    3472:	c5 01       	movw	r24, r10
    3474:	63 d5       	rcall	.+2758   	; 0x3f3c <strnlen>
    3476:	4c 01       	movw	r8, r24
    3478:	82 01       	movw	r16, r4
    347a:	f3 2d       	mov	r31, r3
    347c:	ff 77       	andi	r31, 0x7F	; 127
    347e:	3f 2e       	mov	r3, r31
    3480:	15 c0       	rjmp	.+42     	; 0x34ac <vfprintf+0x1a4>
    3482:	28 01       	movw	r4, r16
    3484:	22 e0       	ldi	r18, 0x02	; 2
    3486:	42 0e       	add	r4, r18
    3488:	51 1c       	adc	r5, r1
    348a:	f8 01       	movw	r30, r16
    348c:	a0 80       	ld	r10, Z
    348e:	b1 80       	ldd	r11, Z+1	; 0x01
    3490:	36 fe       	sbrs	r3, 6
    3492:	03 c0       	rjmp	.+6      	; 0x349a <vfprintf+0x192>
    3494:	69 2d       	mov	r22, r9
    3496:	70 e0       	ldi	r23, 0x00	; 0
    3498:	02 c0       	rjmp	.+4      	; 0x349e <vfprintf+0x196>
    349a:	6f ef       	ldi	r22, 0xFF	; 255
    349c:	7f ef       	ldi	r23, 0xFF	; 255
    349e:	c5 01       	movw	r24, r10
    34a0:	3b d5       	rcall	.+2678   	; 0x3f18 <strnlen_P>
    34a2:	4c 01       	movw	r8, r24
    34a4:	f3 2d       	mov	r31, r3
    34a6:	f0 68       	ori	r31, 0x80	; 128
    34a8:	3f 2e       	mov	r3, r31
    34aa:	82 01       	movw	r16, r4
    34ac:	33 fc       	sbrc	r3, 3
    34ae:	19 c0       	rjmp	.+50     	; 0x34e2 <vfprintf+0x1da>
    34b0:	82 2d       	mov	r24, r2
    34b2:	90 e0       	ldi	r25, 0x00	; 0
    34b4:	88 16       	cp	r8, r24
    34b6:	99 06       	cpc	r9, r25
    34b8:	a0 f4       	brcc	.+40     	; 0x34e2 <vfprintf+0x1da>
    34ba:	b6 01       	movw	r22, r12
    34bc:	80 e2       	ldi	r24, 0x20	; 32
    34be:	90 e0       	ldi	r25, 0x00	; 0
    34c0:	86 d5       	rcall	.+2828   	; 0x3fce <fputc>
    34c2:	2a 94       	dec	r2
    34c4:	f5 cf       	rjmp	.-22     	; 0x34b0 <vfprintf+0x1a8>
    34c6:	f5 01       	movw	r30, r10
    34c8:	37 fc       	sbrc	r3, 7
    34ca:	85 91       	lpm	r24, Z+
    34cc:	37 fe       	sbrs	r3, 7
    34ce:	81 91       	ld	r24, Z+
    34d0:	5f 01       	movw	r10, r30
    34d2:	b6 01       	movw	r22, r12
    34d4:	90 e0       	ldi	r25, 0x00	; 0
    34d6:	7b d5       	rcall	.+2806   	; 0x3fce <fputc>
    34d8:	21 10       	cpse	r2, r1
    34da:	2a 94       	dec	r2
    34dc:	21 e0       	ldi	r18, 0x01	; 1
    34de:	82 1a       	sub	r8, r18
    34e0:	91 08       	sbc	r9, r1
    34e2:	81 14       	cp	r8, r1
    34e4:	91 04       	cpc	r9, r1
    34e6:	79 f7       	brne	.-34     	; 0x34c6 <vfprintf+0x1be>
    34e8:	e1 c0       	rjmp	.+450    	; 0x36ac <vfprintf+0x3a4>
    34ea:	84 36       	cpi	r24, 0x64	; 100
    34ec:	11 f0       	breq	.+4      	; 0x34f2 <vfprintf+0x1ea>
    34ee:	89 36       	cpi	r24, 0x69	; 105
    34f0:	39 f5       	brne	.+78     	; 0x3540 <vfprintf+0x238>
    34f2:	f8 01       	movw	r30, r16
    34f4:	37 fe       	sbrs	r3, 7
    34f6:	07 c0       	rjmp	.+14     	; 0x3506 <vfprintf+0x1fe>
    34f8:	60 81       	ld	r22, Z
    34fa:	71 81       	ldd	r23, Z+1	; 0x01
    34fc:	82 81       	ldd	r24, Z+2	; 0x02
    34fe:	93 81       	ldd	r25, Z+3	; 0x03
    3500:	0c 5f       	subi	r16, 0xFC	; 252
    3502:	1f 4f       	sbci	r17, 0xFF	; 255
    3504:	08 c0       	rjmp	.+16     	; 0x3516 <vfprintf+0x20e>
    3506:	60 81       	ld	r22, Z
    3508:	71 81       	ldd	r23, Z+1	; 0x01
    350a:	07 2e       	mov	r0, r23
    350c:	00 0c       	add	r0, r0
    350e:	88 0b       	sbc	r24, r24
    3510:	99 0b       	sbc	r25, r25
    3512:	0e 5f       	subi	r16, 0xFE	; 254
    3514:	1f 4f       	sbci	r17, 0xFF	; 255
    3516:	f3 2d       	mov	r31, r3
    3518:	ff 76       	andi	r31, 0x6F	; 111
    351a:	3f 2e       	mov	r3, r31
    351c:	97 ff       	sbrs	r25, 7
    351e:	09 c0       	rjmp	.+18     	; 0x3532 <vfprintf+0x22a>
    3520:	90 95       	com	r25
    3522:	80 95       	com	r24
    3524:	70 95       	com	r23
    3526:	61 95       	neg	r22
    3528:	7f 4f       	sbci	r23, 0xFF	; 255
    352a:	8f 4f       	sbci	r24, 0xFF	; 255
    352c:	9f 4f       	sbci	r25, 0xFF	; 255
    352e:	f0 68       	ori	r31, 0x80	; 128
    3530:	3f 2e       	mov	r3, r31
    3532:	2a e0       	ldi	r18, 0x0A	; 10
    3534:	30 e0       	ldi	r19, 0x00	; 0
    3536:	a3 01       	movw	r20, r6
    3538:	9f d5       	rcall	.+2878   	; 0x4078 <__ultoa_invert>
    353a:	88 2e       	mov	r8, r24
    353c:	86 18       	sub	r8, r6
    353e:	44 c0       	rjmp	.+136    	; 0x35c8 <vfprintf+0x2c0>
    3540:	85 37       	cpi	r24, 0x75	; 117
    3542:	31 f4       	brne	.+12     	; 0x3550 <vfprintf+0x248>
    3544:	23 2d       	mov	r18, r3
    3546:	2f 7e       	andi	r18, 0xEF	; 239
    3548:	b2 2e       	mov	r11, r18
    354a:	2a e0       	ldi	r18, 0x0A	; 10
    354c:	30 e0       	ldi	r19, 0x00	; 0
    354e:	25 c0       	rjmp	.+74     	; 0x359a <vfprintf+0x292>
    3550:	93 2d       	mov	r25, r3
    3552:	99 7f       	andi	r25, 0xF9	; 249
    3554:	b9 2e       	mov	r11, r25
    3556:	8f 36       	cpi	r24, 0x6F	; 111
    3558:	c1 f0       	breq	.+48     	; 0x358a <vfprintf+0x282>
    355a:	18 f4       	brcc	.+6      	; 0x3562 <vfprintf+0x25a>
    355c:	88 35       	cpi	r24, 0x58	; 88
    355e:	79 f0       	breq	.+30     	; 0x357e <vfprintf+0x276>
    3560:	ae c0       	rjmp	.+348    	; 0x36be <vfprintf+0x3b6>
    3562:	80 37       	cpi	r24, 0x70	; 112
    3564:	19 f0       	breq	.+6      	; 0x356c <vfprintf+0x264>
    3566:	88 37       	cpi	r24, 0x78	; 120
    3568:	21 f0       	breq	.+8      	; 0x3572 <vfprintf+0x26a>
    356a:	a9 c0       	rjmp	.+338    	; 0x36be <vfprintf+0x3b6>
    356c:	e9 2f       	mov	r30, r25
    356e:	e0 61       	ori	r30, 0x10	; 16
    3570:	be 2e       	mov	r11, r30
    3572:	b4 fe       	sbrs	r11, 4
    3574:	0d c0       	rjmp	.+26     	; 0x3590 <vfprintf+0x288>
    3576:	fb 2d       	mov	r31, r11
    3578:	f4 60       	ori	r31, 0x04	; 4
    357a:	bf 2e       	mov	r11, r31
    357c:	09 c0       	rjmp	.+18     	; 0x3590 <vfprintf+0x288>
    357e:	34 fe       	sbrs	r3, 4
    3580:	0a c0       	rjmp	.+20     	; 0x3596 <vfprintf+0x28e>
    3582:	29 2f       	mov	r18, r25
    3584:	26 60       	ori	r18, 0x06	; 6
    3586:	b2 2e       	mov	r11, r18
    3588:	06 c0       	rjmp	.+12     	; 0x3596 <vfprintf+0x28e>
    358a:	28 e0       	ldi	r18, 0x08	; 8
    358c:	30 e0       	ldi	r19, 0x00	; 0
    358e:	05 c0       	rjmp	.+10     	; 0x359a <vfprintf+0x292>
    3590:	20 e1       	ldi	r18, 0x10	; 16
    3592:	30 e0       	ldi	r19, 0x00	; 0
    3594:	02 c0       	rjmp	.+4      	; 0x359a <vfprintf+0x292>
    3596:	20 e1       	ldi	r18, 0x10	; 16
    3598:	32 e0       	ldi	r19, 0x02	; 2
    359a:	f8 01       	movw	r30, r16
    359c:	b7 fe       	sbrs	r11, 7
    359e:	07 c0       	rjmp	.+14     	; 0x35ae <vfprintf+0x2a6>
    35a0:	60 81       	ld	r22, Z
    35a2:	71 81       	ldd	r23, Z+1	; 0x01
    35a4:	82 81       	ldd	r24, Z+2	; 0x02
    35a6:	93 81       	ldd	r25, Z+3	; 0x03
    35a8:	0c 5f       	subi	r16, 0xFC	; 252
    35aa:	1f 4f       	sbci	r17, 0xFF	; 255
    35ac:	06 c0       	rjmp	.+12     	; 0x35ba <vfprintf+0x2b2>
    35ae:	60 81       	ld	r22, Z
    35b0:	71 81       	ldd	r23, Z+1	; 0x01
    35b2:	80 e0       	ldi	r24, 0x00	; 0
    35b4:	90 e0       	ldi	r25, 0x00	; 0
    35b6:	0e 5f       	subi	r16, 0xFE	; 254
    35b8:	1f 4f       	sbci	r17, 0xFF	; 255
    35ba:	a3 01       	movw	r20, r6
    35bc:	5d d5       	rcall	.+2746   	; 0x4078 <__ultoa_invert>
    35be:	88 2e       	mov	r8, r24
    35c0:	86 18       	sub	r8, r6
    35c2:	fb 2d       	mov	r31, r11
    35c4:	ff 77       	andi	r31, 0x7F	; 127
    35c6:	3f 2e       	mov	r3, r31
    35c8:	36 fe       	sbrs	r3, 6
    35ca:	0d c0       	rjmp	.+26     	; 0x35e6 <vfprintf+0x2de>
    35cc:	23 2d       	mov	r18, r3
    35ce:	2e 7f       	andi	r18, 0xFE	; 254
    35d0:	a2 2e       	mov	r10, r18
    35d2:	89 14       	cp	r8, r9
    35d4:	58 f4       	brcc	.+22     	; 0x35ec <vfprintf+0x2e4>
    35d6:	34 fe       	sbrs	r3, 4
    35d8:	0b c0       	rjmp	.+22     	; 0x35f0 <vfprintf+0x2e8>
    35da:	32 fc       	sbrc	r3, 2
    35dc:	09 c0       	rjmp	.+18     	; 0x35f0 <vfprintf+0x2e8>
    35de:	83 2d       	mov	r24, r3
    35e0:	8e 7e       	andi	r24, 0xEE	; 238
    35e2:	a8 2e       	mov	r10, r24
    35e4:	05 c0       	rjmp	.+10     	; 0x35f0 <vfprintf+0x2e8>
    35e6:	b8 2c       	mov	r11, r8
    35e8:	a3 2c       	mov	r10, r3
    35ea:	03 c0       	rjmp	.+6      	; 0x35f2 <vfprintf+0x2ea>
    35ec:	b8 2c       	mov	r11, r8
    35ee:	01 c0       	rjmp	.+2      	; 0x35f2 <vfprintf+0x2ea>
    35f0:	b9 2c       	mov	r11, r9
    35f2:	a4 fe       	sbrs	r10, 4
    35f4:	0f c0       	rjmp	.+30     	; 0x3614 <vfprintf+0x30c>
    35f6:	fe 01       	movw	r30, r28
    35f8:	e8 0d       	add	r30, r8
    35fa:	f1 1d       	adc	r31, r1
    35fc:	80 81       	ld	r24, Z
    35fe:	80 33       	cpi	r24, 0x30	; 48
    3600:	21 f4       	brne	.+8      	; 0x360a <vfprintf+0x302>
    3602:	9a 2d       	mov	r25, r10
    3604:	99 7e       	andi	r25, 0xE9	; 233
    3606:	a9 2e       	mov	r10, r25
    3608:	09 c0       	rjmp	.+18     	; 0x361c <vfprintf+0x314>
    360a:	a2 fe       	sbrs	r10, 2
    360c:	06 c0       	rjmp	.+12     	; 0x361a <vfprintf+0x312>
    360e:	b3 94       	inc	r11
    3610:	b3 94       	inc	r11
    3612:	04 c0       	rjmp	.+8      	; 0x361c <vfprintf+0x314>
    3614:	8a 2d       	mov	r24, r10
    3616:	86 78       	andi	r24, 0x86	; 134
    3618:	09 f0       	breq	.+2      	; 0x361c <vfprintf+0x314>
    361a:	b3 94       	inc	r11
    361c:	a3 fc       	sbrc	r10, 3
    361e:	10 c0       	rjmp	.+32     	; 0x3640 <vfprintf+0x338>
    3620:	a0 fe       	sbrs	r10, 0
    3622:	06 c0       	rjmp	.+12     	; 0x3630 <vfprintf+0x328>
    3624:	b2 14       	cp	r11, r2
    3626:	80 f4       	brcc	.+32     	; 0x3648 <vfprintf+0x340>
    3628:	28 0c       	add	r2, r8
    362a:	92 2c       	mov	r9, r2
    362c:	9b 18       	sub	r9, r11
    362e:	0d c0       	rjmp	.+26     	; 0x364a <vfprintf+0x342>
    3630:	b2 14       	cp	r11, r2
    3632:	58 f4       	brcc	.+22     	; 0x364a <vfprintf+0x342>
    3634:	b6 01       	movw	r22, r12
    3636:	80 e2       	ldi	r24, 0x20	; 32
    3638:	90 e0       	ldi	r25, 0x00	; 0
    363a:	c9 d4       	rcall	.+2450   	; 0x3fce <fputc>
    363c:	b3 94       	inc	r11
    363e:	f8 cf       	rjmp	.-16     	; 0x3630 <vfprintf+0x328>
    3640:	b2 14       	cp	r11, r2
    3642:	18 f4       	brcc	.+6      	; 0x364a <vfprintf+0x342>
    3644:	2b 18       	sub	r2, r11
    3646:	02 c0       	rjmp	.+4      	; 0x364c <vfprintf+0x344>
    3648:	98 2c       	mov	r9, r8
    364a:	21 2c       	mov	r2, r1
    364c:	a4 fe       	sbrs	r10, 4
    364e:	0f c0       	rjmp	.+30     	; 0x366e <vfprintf+0x366>
    3650:	b6 01       	movw	r22, r12
    3652:	80 e3       	ldi	r24, 0x30	; 48
    3654:	90 e0       	ldi	r25, 0x00	; 0
    3656:	bb d4       	rcall	.+2422   	; 0x3fce <fputc>
    3658:	a2 fe       	sbrs	r10, 2
    365a:	16 c0       	rjmp	.+44     	; 0x3688 <vfprintf+0x380>
    365c:	a1 fc       	sbrc	r10, 1
    365e:	03 c0       	rjmp	.+6      	; 0x3666 <vfprintf+0x35e>
    3660:	88 e7       	ldi	r24, 0x78	; 120
    3662:	90 e0       	ldi	r25, 0x00	; 0
    3664:	02 c0       	rjmp	.+4      	; 0x366a <vfprintf+0x362>
    3666:	88 e5       	ldi	r24, 0x58	; 88
    3668:	90 e0       	ldi	r25, 0x00	; 0
    366a:	b6 01       	movw	r22, r12
    366c:	0c c0       	rjmp	.+24     	; 0x3686 <vfprintf+0x37e>
    366e:	8a 2d       	mov	r24, r10
    3670:	86 78       	andi	r24, 0x86	; 134
    3672:	51 f0       	breq	.+20     	; 0x3688 <vfprintf+0x380>
    3674:	a1 fe       	sbrs	r10, 1
    3676:	02 c0       	rjmp	.+4      	; 0x367c <vfprintf+0x374>
    3678:	8b e2       	ldi	r24, 0x2B	; 43
    367a:	01 c0       	rjmp	.+2      	; 0x367e <vfprintf+0x376>
    367c:	80 e2       	ldi	r24, 0x20	; 32
    367e:	a7 fc       	sbrc	r10, 7
    3680:	8d e2       	ldi	r24, 0x2D	; 45
    3682:	b6 01       	movw	r22, r12
    3684:	90 e0       	ldi	r25, 0x00	; 0
    3686:	a3 d4       	rcall	.+2374   	; 0x3fce <fputc>
    3688:	89 14       	cp	r8, r9
    368a:	30 f4       	brcc	.+12     	; 0x3698 <vfprintf+0x390>
    368c:	b6 01       	movw	r22, r12
    368e:	80 e3       	ldi	r24, 0x30	; 48
    3690:	90 e0       	ldi	r25, 0x00	; 0
    3692:	9d d4       	rcall	.+2362   	; 0x3fce <fputc>
    3694:	9a 94       	dec	r9
    3696:	f8 cf       	rjmp	.-16     	; 0x3688 <vfprintf+0x380>
    3698:	8a 94       	dec	r8
    369a:	f3 01       	movw	r30, r6
    369c:	e8 0d       	add	r30, r8
    369e:	f1 1d       	adc	r31, r1
    36a0:	80 81       	ld	r24, Z
    36a2:	b6 01       	movw	r22, r12
    36a4:	90 e0       	ldi	r25, 0x00	; 0
    36a6:	93 d4       	rcall	.+2342   	; 0x3fce <fputc>
    36a8:	81 10       	cpse	r8, r1
    36aa:	f6 cf       	rjmp	.-20     	; 0x3698 <vfprintf+0x390>
    36ac:	22 20       	and	r2, r2
    36ae:	09 f4       	brne	.+2      	; 0x36b2 <vfprintf+0x3aa>
    36b0:	4e ce       	rjmp	.-868    	; 0x334e <vfprintf+0x46>
    36b2:	b6 01       	movw	r22, r12
    36b4:	80 e2       	ldi	r24, 0x20	; 32
    36b6:	90 e0       	ldi	r25, 0x00	; 0
    36b8:	8a d4       	rcall	.+2324   	; 0x3fce <fputc>
    36ba:	2a 94       	dec	r2
    36bc:	f7 cf       	rjmp	.-18     	; 0x36ac <vfprintf+0x3a4>
    36be:	f6 01       	movw	r30, r12
    36c0:	86 81       	ldd	r24, Z+6	; 0x06
    36c2:	97 81       	ldd	r25, Z+7	; 0x07
    36c4:	02 c0       	rjmp	.+4      	; 0x36ca <vfprintf+0x3c2>
    36c6:	8f ef       	ldi	r24, 0xFF	; 255
    36c8:	9f ef       	ldi	r25, 0xFF	; 255
    36ca:	2b 96       	adiw	r28, 0x0b	; 11
    36cc:	cd bf       	out	0x3d, r28	; 61
    36ce:	de bf       	out	0x3e, r29	; 62
    36d0:	df 91       	pop	r29
    36d2:	cf 91       	pop	r28
    36d4:	1f 91       	pop	r17
    36d6:	0f 91       	pop	r16
    36d8:	ff 90       	pop	r15
    36da:	ef 90       	pop	r14
    36dc:	df 90       	pop	r13
    36de:	cf 90       	pop	r12
    36e0:	bf 90       	pop	r11
    36e2:	af 90       	pop	r10
    36e4:	9f 90       	pop	r9
    36e6:	8f 90       	pop	r8
    36e8:	7f 90       	pop	r7
    36ea:	6f 90       	pop	r6
    36ec:	5f 90       	pop	r5
    36ee:	4f 90       	pop	r4
    36f0:	3f 90       	pop	r3
    36f2:	2f 90       	pop	r2
    36f4:	08 95       	ret

000036f6 <putval>:
    36f6:	20 fd       	sbrc	r18, 0
    36f8:	09 c0       	rjmp	.+18     	; 0x370c <putval+0x16>
    36fa:	fc 01       	movw	r30, r24
    36fc:	23 fd       	sbrc	r18, 3
    36fe:	05 c0       	rjmp	.+10     	; 0x370a <putval+0x14>
    3700:	22 ff       	sbrs	r18, 2
    3702:	02 c0       	rjmp	.+4      	; 0x3708 <putval+0x12>
    3704:	73 83       	std	Z+3, r23	; 0x03
    3706:	62 83       	std	Z+2, r22	; 0x02
    3708:	51 83       	std	Z+1, r21	; 0x01
    370a:	40 83       	st	Z, r20
    370c:	08 95       	ret

0000370e <mulacc>:
    370e:	44 fd       	sbrc	r20, 4
    3710:	17 c0       	rjmp	.+46     	; 0x3740 <mulacc+0x32>
    3712:	46 fd       	sbrc	r20, 6
    3714:	17 c0       	rjmp	.+46     	; 0x3744 <mulacc+0x36>
    3716:	ab 01       	movw	r20, r22
    3718:	bc 01       	movw	r22, r24
    371a:	da 01       	movw	r26, r20
    371c:	fb 01       	movw	r30, r22
    371e:	aa 0f       	add	r26, r26
    3720:	bb 1f       	adc	r27, r27
    3722:	ee 1f       	adc	r30, r30
    3724:	ff 1f       	adc	r31, r31
    3726:	10 94       	com	r1
    3728:	d1 f7       	brne	.-12     	; 0x371e <mulacc+0x10>
    372a:	4a 0f       	add	r20, r26
    372c:	5b 1f       	adc	r21, r27
    372e:	6e 1f       	adc	r22, r30
    3730:	7f 1f       	adc	r23, r31
    3732:	cb 01       	movw	r24, r22
    3734:	ba 01       	movw	r22, r20
    3736:	66 0f       	add	r22, r22
    3738:	77 1f       	adc	r23, r23
    373a:	88 1f       	adc	r24, r24
    373c:	99 1f       	adc	r25, r25
    373e:	09 c0       	rjmp	.+18     	; 0x3752 <mulacc+0x44>
    3740:	33 e0       	ldi	r19, 0x03	; 3
    3742:	01 c0       	rjmp	.+2      	; 0x3746 <mulacc+0x38>
    3744:	34 e0       	ldi	r19, 0x04	; 4
    3746:	66 0f       	add	r22, r22
    3748:	77 1f       	adc	r23, r23
    374a:	88 1f       	adc	r24, r24
    374c:	99 1f       	adc	r25, r25
    374e:	31 50       	subi	r19, 0x01	; 1
    3750:	d1 f7       	brne	.-12     	; 0x3746 <mulacc+0x38>
    3752:	62 0f       	add	r22, r18
    3754:	71 1d       	adc	r23, r1
    3756:	81 1d       	adc	r24, r1
    3758:	91 1d       	adc	r25, r1
    375a:	08 95       	ret

0000375c <skip_spaces>:
    375c:	0f 93       	push	r16
    375e:	1f 93       	push	r17
    3760:	cf 93       	push	r28
    3762:	df 93       	push	r29
    3764:	8c 01       	movw	r16, r24
    3766:	c8 01       	movw	r24, r16
    3768:	f4 d3       	rcall	.+2024   	; 0x3f52 <fgetc>
    376a:	ec 01       	movw	r28, r24
    376c:	97 fd       	sbrc	r25, 7
    376e:	06 c0       	rjmp	.+12     	; 0x377c <skip_spaces+0x20>
    3770:	c0 d3       	rcall	.+1920   	; 0x3ef2 <isspace>
    3772:	89 2b       	or	r24, r25
    3774:	c1 f7       	brne	.-16     	; 0x3766 <skip_spaces+0xa>
    3776:	b8 01       	movw	r22, r16
    3778:	ce 01       	movw	r24, r28
    377a:	65 d4       	rcall	.+2250   	; 0x4046 <ungetc>
    377c:	ce 01       	movw	r24, r28
    377e:	df 91       	pop	r29
    3780:	cf 91       	pop	r28
    3782:	1f 91       	pop	r17
    3784:	0f 91       	pop	r16
    3786:	08 95       	ret

00003788 <conv_int>:
    3788:	8f 92       	push	r8
    378a:	9f 92       	push	r9
    378c:	af 92       	push	r10
    378e:	bf 92       	push	r11
    3790:	ef 92       	push	r14
    3792:	ff 92       	push	r15
    3794:	0f 93       	push	r16
    3796:	1f 93       	push	r17
    3798:	cf 93       	push	r28
    379a:	df 93       	push	r29
    379c:	8c 01       	movw	r16, r24
    379e:	d6 2f       	mov	r29, r22
    37a0:	7a 01       	movw	r14, r20
    37a2:	b2 2e       	mov	r11, r18
    37a4:	d6 d3       	rcall	.+1964   	; 0x3f52 <fgetc>
    37a6:	9c 01       	movw	r18, r24
    37a8:	33 27       	eor	r19, r19
    37aa:	2b 32       	cpi	r18, 0x2B	; 43
    37ac:	31 05       	cpc	r19, r1
    37ae:	31 f0       	breq	.+12     	; 0x37bc <conv_int+0x34>
    37b0:	2d 32       	cpi	r18, 0x2D	; 45
    37b2:	31 05       	cpc	r19, r1
    37b4:	59 f4       	brne	.+22     	; 0x37cc <conv_int+0x44>
    37b6:	8b 2d       	mov	r24, r11
    37b8:	80 68       	ori	r24, 0x80	; 128
    37ba:	b8 2e       	mov	r11, r24
    37bc:	d1 50       	subi	r29, 0x01	; 1
    37be:	11 f4       	brne	.+4      	; 0x37c4 <conv_int+0x3c>
    37c0:	80 e0       	ldi	r24, 0x00	; 0
    37c2:	61 c0       	rjmp	.+194    	; 0x3886 <conv_int+0xfe>
    37c4:	c8 01       	movw	r24, r16
    37c6:	c5 d3       	rcall	.+1930   	; 0x3f52 <fgetc>
    37c8:	97 fd       	sbrc	r25, 7
    37ca:	fa cf       	rjmp	.-12     	; 0x37c0 <conv_int+0x38>
    37cc:	cb 2d       	mov	r28, r11
    37ce:	cd 7f       	andi	r28, 0xFD	; 253
    37d0:	2b 2d       	mov	r18, r11
    37d2:	20 73       	andi	r18, 0x30	; 48
    37d4:	f9 f4       	brne	.+62     	; 0x3814 <conv_int+0x8c>
    37d6:	80 33       	cpi	r24, 0x30	; 48
    37d8:	e9 f4       	brne	.+58     	; 0x3814 <conv_int+0x8c>
    37da:	aa 24       	eor	r10, r10
    37dc:	aa 94       	dec	r10
    37de:	ad 0e       	add	r10, r29
    37e0:	09 f4       	brne	.+2      	; 0x37e4 <conv_int+0x5c>
    37e2:	3e c0       	rjmp	.+124    	; 0x3860 <conv_int+0xd8>
    37e4:	c8 01       	movw	r24, r16
    37e6:	b5 d3       	rcall	.+1898   	; 0x3f52 <fgetc>
    37e8:	97 fd       	sbrc	r25, 7
    37ea:	3a c0       	rjmp	.+116    	; 0x3860 <conv_int+0xd8>
    37ec:	9c 01       	movw	r18, r24
    37ee:	2f 7d       	andi	r18, 0xDF	; 223
    37f0:	33 27       	eor	r19, r19
    37f2:	28 35       	cpi	r18, 0x58	; 88
    37f4:	31 05       	cpc	r19, r1
    37f6:	41 f4       	brne	.+16     	; 0x3808 <conv_int+0x80>
    37f8:	c2 64       	ori	r28, 0x42	; 66
    37fa:	d2 50       	subi	r29, 0x02	; 2
    37fc:	89 f1       	breq	.+98     	; 0x3860 <conv_int+0xd8>
    37fe:	c8 01       	movw	r24, r16
    3800:	a8 d3       	rcall	.+1872   	; 0x3f52 <fgetc>
    3802:	97 ff       	sbrs	r25, 7
    3804:	07 c0       	rjmp	.+14     	; 0x3814 <conv_int+0x8c>
    3806:	2c c0       	rjmp	.+88     	; 0x3860 <conv_int+0xd8>
    3808:	b6 fe       	sbrs	r11, 6
    380a:	02 c0       	rjmp	.+4      	; 0x3810 <conv_int+0x88>
    380c:	c2 60       	ori	r28, 0x02	; 2
    380e:	01 c0       	rjmp	.+2      	; 0x3812 <conv_int+0x8a>
    3810:	c2 61       	ori	r28, 0x12	; 18
    3812:	da 2d       	mov	r29, r10
    3814:	81 2c       	mov	r8, r1
    3816:	91 2c       	mov	r9, r1
    3818:	54 01       	movw	r10, r8
    381a:	20 ed       	ldi	r18, 0xD0	; 208
    381c:	28 0f       	add	r18, r24
    381e:	28 30       	cpi	r18, 0x08	; 8
    3820:	78 f0       	brcs	.+30     	; 0x3840 <conv_int+0xb8>
    3822:	c4 ff       	sbrs	r28, 4
    3824:	03 c0       	rjmp	.+6      	; 0x382c <conv_int+0xa4>
    3826:	b8 01       	movw	r22, r16
    3828:	0e d4       	rcall	.+2076   	; 0x4046 <ungetc>
    382a:	17 c0       	rjmp	.+46     	; 0x385a <conv_int+0xd2>
    382c:	2a 30       	cpi	r18, 0x0A	; 10
    382e:	40 f0       	brcs	.+16     	; 0x3840 <conv_int+0xb8>
    3830:	c6 ff       	sbrs	r28, 6
    3832:	f9 cf       	rjmp	.-14     	; 0x3826 <conv_int+0x9e>
    3834:	2f 7d       	andi	r18, 0xDF	; 223
    3836:	3f ee       	ldi	r19, 0xEF	; 239
    3838:	32 0f       	add	r19, r18
    383a:	36 30       	cpi	r19, 0x06	; 6
    383c:	a0 f7       	brcc	.-24     	; 0x3826 <conv_int+0x9e>
    383e:	27 50       	subi	r18, 0x07	; 7
    3840:	4c 2f       	mov	r20, r28
    3842:	c5 01       	movw	r24, r10
    3844:	b4 01       	movw	r22, r8
    3846:	63 df       	rcall	.-314    	; 0x370e <mulacc>
    3848:	4b 01       	movw	r8, r22
    384a:	5c 01       	movw	r10, r24
    384c:	c2 60       	ori	r28, 0x02	; 2
    384e:	d1 50       	subi	r29, 0x01	; 1
    3850:	51 f0       	breq	.+20     	; 0x3866 <conv_int+0xde>
    3852:	c8 01       	movw	r24, r16
    3854:	7e d3       	rcall	.+1788   	; 0x3f52 <fgetc>
    3856:	97 ff       	sbrs	r25, 7
    3858:	e0 cf       	rjmp	.-64     	; 0x381a <conv_int+0x92>
    385a:	c1 fd       	sbrc	r28, 1
    385c:	04 c0       	rjmp	.+8      	; 0x3866 <conv_int+0xde>
    385e:	b0 cf       	rjmp	.-160    	; 0x37c0 <conv_int+0x38>
    3860:	81 2c       	mov	r8, r1
    3862:	91 2c       	mov	r9, r1
    3864:	54 01       	movw	r10, r8
    3866:	c7 ff       	sbrs	r28, 7
    3868:	08 c0       	rjmp	.+16     	; 0x387a <conv_int+0xf2>
    386a:	b0 94       	com	r11
    386c:	a0 94       	com	r10
    386e:	90 94       	com	r9
    3870:	80 94       	com	r8
    3872:	81 1c       	adc	r8, r1
    3874:	91 1c       	adc	r9, r1
    3876:	a1 1c       	adc	r10, r1
    3878:	b1 1c       	adc	r11, r1
    387a:	2c 2f       	mov	r18, r28
    387c:	b5 01       	movw	r22, r10
    387e:	a4 01       	movw	r20, r8
    3880:	c7 01       	movw	r24, r14
    3882:	39 df       	rcall	.-398    	; 0x36f6 <putval>
    3884:	81 e0       	ldi	r24, 0x01	; 1
    3886:	df 91       	pop	r29
    3888:	cf 91       	pop	r28
    388a:	1f 91       	pop	r17
    388c:	0f 91       	pop	r16
    388e:	ff 90       	pop	r15
    3890:	ef 90       	pop	r14
    3892:	bf 90       	pop	r11
    3894:	af 90       	pop	r10
    3896:	9f 90       	pop	r9
    3898:	8f 90       	pop	r8
    389a:	08 95       	ret

0000389c <conv_brk>:
    389c:	5f 92       	push	r5
    389e:	6f 92       	push	r6
    38a0:	7f 92       	push	r7
    38a2:	8f 92       	push	r8
    38a4:	9f 92       	push	r9
    38a6:	af 92       	push	r10
    38a8:	bf 92       	push	r11
    38aa:	cf 92       	push	r12
    38ac:	df 92       	push	r13
    38ae:	ef 92       	push	r14
    38b0:	ff 92       	push	r15
    38b2:	0f 93       	push	r16
    38b4:	1f 93       	push	r17
    38b6:	cf 93       	push	r28
    38b8:	df 93       	push	r29
    38ba:	cd b7       	in	r28, 0x3d	; 61
    38bc:	de b7       	in	r29, 0x3e	; 62
    38be:	a0 97       	sbiw	r28, 0x20	; 32
    38c0:	cd bf       	out	0x3d, r28	; 61
    38c2:	de bf       	out	0x3e, r29	; 62
    38c4:	5c 01       	movw	r10, r24
    38c6:	96 2e       	mov	r9, r22
    38c8:	7a 01       	movw	r14, r20
    38ca:	f9 01       	movw	r30, r18
    38cc:	8e 01       	movw	r16, r28
    38ce:	0f 5f       	subi	r16, 0xFF	; 255
    38d0:	1f 4f       	sbci	r17, 0xFF	; 255
    38d2:	68 01       	movw	r12, r16
    38d4:	80 e2       	ldi	r24, 0x20	; 32
    38d6:	d8 01       	movw	r26, r16
    38d8:	1d 92       	st	X+, r1
    38da:	8a 95       	dec	r24
    38dc:	e9 f7       	brne	.-6      	; 0x38d8 <conv_brk+0x3c>
    38de:	d5 01       	movw	r26, r10
    38e0:	13 96       	adiw	r26, 0x03	; 3
    38e2:	8c 90       	ld	r8, X
    38e4:	80 e0       	ldi	r24, 0x00	; 0
    38e6:	90 e0       	ldi	r25, 0x00	; 0
    38e8:	61 2c       	mov	r6, r1
    38ea:	71 2c       	mov	r7, r1
    38ec:	30 e0       	ldi	r19, 0x00	; 0
    38ee:	61 e0       	ldi	r22, 0x01	; 1
    38f0:	70 e0       	ldi	r23, 0x00	; 0
    38f2:	83 fc       	sbrc	r8, 3
    38f4:	25 91       	lpm	r18, Z+
    38f6:	83 fe       	sbrs	r8, 3
    38f8:	21 91       	ld	r18, Z+
    38fa:	8f 01       	movw	r16, r30
    38fc:	52 2e       	mov	r5, r18
    38fe:	21 11       	cpse	r18, r1
    3900:	03 c0       	rjmp	.+6      	; 0x3908 <conv_brk+0x6c>
    3902:	80 e0       	ldi	r24, 0x00	; 0
    3904:	90 e0       	ldi	r25, 0x00	; 0
    3906:	90 c0       	rjmp	.+288    	; 0x3a28 <conv_brk+0x18c>
    3908:	2e 35       	cpi	r18, 0x5E	; 94
    390a:	11 f4       	brne	.+4      	; 0x3910 <conv_brk+0x74>
    390c:	00 97       	sbiw	r24, 0x00	; 0
    390e:	51 f1       	breq	.+84     	; 0x3964 <conv_brk+0xc8>
    3910:	43 2f       	mov	r20, r19
    3912:	50 e0       	ldi	r21, 0x00	; 0
    3914:	48 17       	cp	r20, r24
    3916:	59 07       	cpc	r21, r25
    3918:	3c f4       	brge	.+14     	; 0x3928 <conv_brk+0x8c>
    391a:	2d 35       	cpi	r18, 0x5D	; 93
    391c:	59 f1       	breq	.+86     	; 0x3974 <conv_brk+0xd8>
    391e:	2d 32       	cpi	r18, 0x2D	; 45
    3920:	19 f4       	brne	.+6      	; 0x3928 <conv_brk+0x8c>
    3922:	77 20       	and	r7, r7
    3924:	09 f1       	breq	.+66     	; 0x3968 <conv_brk+0xcc>
    3926:	03 c0       	rjmp	.+6      	; 0x392e <conv_brk+0x92>
    3928:	77 20       	and	r7, r7
    392a:	09 f4       	brne	.+2      	; 0x392e <conv_brk+0x92>
    392c:	68 c0       	rjmp	.+208    	; 0x39fe <conv_brk+0x162>
    392e:	45 2d       	mov	r20, r5
    3930:	46 95       	lsr	r20
    3932:	46 95       	lsr	r20
    3934:	46 95       	lsr	r20
    3936:	d6 01       	movw	r26, r12
    3938:	a4 0f       	add	r26, r20
    393a:	b1 1d       	adc	r27, r1
    393c:	45 2d       	mov	r20, r5
    393e:	47 70       	andi	r20, 0x07	; 7
    3940:	8b 01       	movw	r16, r22
    3942:	02 c0       	rjmp	.+4      	; 0x3948 <conv_brk+0xac>
    3944:	00 0f       	add	r16, r16
    3946:	11 1f       	adc	r17, r17
    3948:	4a 95       	dec	r20
    394a:	e2 f7       	brpl	.-8      	; 0x3944 <conv_brk+0xa8>
    394c:	a8 01       	movw	r20, r16
    394e:	5c 91       	ld	r21, X
    3950:	45 2b       	or	r20, r21
    3952:	4c 93       	st	X, r20
    3954:	65 14       	cp	r6, r5
    3956:	59 f0       	breq	.+22     	; 0x396e <conv_brk+0xd2>
    3958:	56 14       	cp	r5, r6
    395a:	10 f4       	brcc	.+4      	; 0x3960 <conv_brk+0xc4>
    395c:	53 94       	inc	r5
    395e:	e7 cf       	rjmp	.-50     	; 0x392e <conv_brk+0x92>
    3960:	5a 94       	dec	r5
    3962:	e5 cf       	rjmp	.-54     	; 0x392e <conv_brk+0x92>
    3964:	31 e0       	ldi	r19, 0x01	; 1
    3966:	04 c0       	rjmp	.+8      	; 0x3970 <conv_brk+0xd4>
    3968:	77 24       	eor	r7, r7
    396a:	73 94       	inc	r7
    396c:	01 c0       	rjmp	.+2      	; 0x3970 <conv_brk+0xd4>
    396e:	71 2c       	mov	r7, r1
    3970:	01 96       	adiw	r24, 0x01	; 1
    3972:	bf cf       	rjmp	.-130    	; 0x38f2 <conv_brk+0x56>
    3974:	77 20       	and	r7, r7
    3976:	19 f0       	breq	.+6      	; 0x397e <conv_brk+0xe2>
    3978:	8e 81       	ldd	r24, Y+6	; 0x06
    397a:	80 62       	ori	r24, 0x20	; 32
    397c:	8e 83       	std	Y+6, r24	; 0x06
    397e:	31 11       	cpse	r19, r1
    3980:	03 c0       	rjmp	.+6      	; 0x3988 <conv_brk+0xec>
    3982:	88 24       	eor	r8, r8
    3984:	83 94       	inc	r8
    3986:	17 c0       	rjmp	.+46     	; 0x39b6 <conv_brk+0x11a>
    3988:	f6 01       	movw	r30, r12
    398a:	9e 01       	movw	r18, r28
    398c:	2f 5d       	subi	r18, 0xDF	; 223
    398e:	3f 4f       	sbci	r19, 0xFF	; 255
    3990:	80 81       	ld	r24, Z
    3992:	80 95       	com	r24
    3994:	81 93       	st	Z+, r24
    3996:	2e 17       	cp	r18, r30
    3998:	3f 07       	cpc	r19, r31
    399a:	d1 f7       	brne	.-12     	; 0x3990 <conv_brk+0xf4>
    399c:	f2 cf       	rjmp	.-28     	; 0x3982 <conv_brk+0xe6>
    399e:	e1 14       	cp	r14, r1
    39a0:	f1 04       	cpc	r15, r1
    39a2:	29 f0       	breq	.+10     	; 0x39ae <conv_brk+0x112>
    39a4:	d7 01       	movw	r26, r14
    39a6:	8c 93       	st	X, r24
    39a8:	f7 01       	movw	r30, r14
    39aa:	31 96       	adiw	r30, 0x01	; 1
    39ac:	7f 01       	movw	r14, r30
    39ae:	9a 94       	dec	r9
    39b0:	81 2c       	mov	r8, r1
    39b2:	99 20       	and	r9, r9
    39b4:	e9 f0       	breq	.+58     	; 0x39f0 <conv_brk+0x154>
    39b6:	c5 01       	movw	r24, r10
    39b8:	cc d2       	rcall	.+1432   	; 0x3f52 <fgetc>
    39ba:	97 fd       	sbrc	r25, 7
    39bc:	17 c0       	rjmp	.+46     	; 0x39ec <conv_brk+0x150>
    39be:	fc 01       	movw	r30, r24
    39c0:	ff 27       	eor	r31, r31
    39c2:	23 e0       	ldi	r18, 0x03	; 3
    39c4:	f5 95       	asr	r31
    39c6:	e7 95       	ror	r30
    39c8:	2a 95       	dec	r18
    39ca:	e1 f7       	brne	.-8      	; 0x39c4 <conv_brk+0x128>
    39cc:	ec 0d       	add	r30, r12
    39ce:	fd 1d       	adc	r31, r13
    39d0:	20 81       	ld	r18, Z
    39d2:	30 e0       	ldi	r19, 0x00	; 0
    39d4:	ac 01       	movw	r20, r24
    39d6:	47 70       	andi	r20, 0x07	; 7
    39d8:	55 27       	eor	r21, r21
    39da:	02 c0       	rjmp	.+4      	; 0x39e0 <conv_brk+0x144>
    39dc:	35 95       	asr	r19
    39de:	27 95       	ror	r18
    39e0:	4a 95       	dec	r20
    39e2:	e2 f7       	brpl	.-8      	; 0x39dc <conv_brk+0x140>
    39e4:	20 fd       	sbrc	r18, 0
    39e6:	db cf       	rjmp	.-74     	; 0x399e <conv_brk+0x102>
    39e8:	b5 01       	movw	r22, r10
    39ea:	2d d3       	rcall	.+1626   	; 0x4046 <ungetc>
    39ec:	81 10       	cpse	r8, r1
    39ee:	89 cf       	rjmp	.-238    	; 0x3902 <conv_brk+0x66>
    39f0:	e1 14       	cp	r14, r1
    39f2:	f1 04       	cpc	r15, r1
    39f4:	11 f0       	breq	.+4      	; 0x39fa <conv_brk+0x15e>
    39f6:	d7 01       	movw	r26, r14
    39f8:	1c 92       	st	X, r1
    39fa:	c8 01       	movw	r24, r16
    39fc:	15 c0       	rjmp	.+42     	; 0x3a28 <conv_brk+0x18c>
    39fe:	42 2f       	mov	r20, r18
    3a00:	46 95       	lsr	r20
    3a02:	46 95       	lsr	r20
    3a04:	46 95       	lsr	r20
    3a06:	d6 01       	movw	r26, r12
    3a08:	a4 0f       	add	r26, r20
    3a0a:	b1 1d       	adc	r27, r1
    3a0c:	42 2f       	mov	r20, r18
    3a0e:	47 70       	andi	r20, 0x07	; 7
    3a10:	8b 01       	movw	r16, r22
    3a12:	02 c0       	rjmp	.+4      	; 0x3a18 <conv_brk+0x17c>
    3a14:	00 0f       	add	r16, r16
    3a16:	11 1f       	adc	r17, r17
    3a18:	4a 95       	dec	r20
    3a1a:	e2 f7       	brpl	.-8      	; 0x3a14 <conv_brk+0x178>
    3a1c:	a8 01       	movw	r20, r16
    3a1e:	5c 91       	ld	r21, X
    3a20:	45 2b       	or	r20, r21
    3a22:	4c 93       	st	X, r20
    3a24:	62 2e       	mov	r6, r18
    3a26:	a4 cf       	rjmp	.-184    	; 0x3970 <conv_brk+0xd4>
    3a28:	a0 96       	adiw	r28, 0x20	; 32
    3a2a:	cd bf       	out	0x3d, r28	; 61
    3a2c:	de bf       	out	0x3e, r29	; 62
    3a2e:	df 91       	pop	r29
    3a30:	cf 91       	pop	r28
    3a32:	1f 91       	pop	r17
    3a34:	0f 91       	pop	r16
    3a36:	ff 90       	pop	r15
    3a38:	ef 90       	pop	r14
    3a3a:	df 90       	pop	r13
    3a3c:	cf 90       	pop	r12
    3a3e:	bf 90       	pop	r11
    3a40:	af 90       	pop	r10
    3a42:	9f 90       	pop	r9
    3a44:	8f 90       	pop	r8
    3a46:	7f 90       	pop	r7
    3a48:	6f 90       	pop	r6
    3a4a:	5f 90       	pop	r5
    3a4c:	08 95       	ret

00003a4e <vfscanf>:
    3a4e:	5f 92       	push	r5
    3a50:	6f 92       	push	r6
    3a52:	7f 92       	push	r7
    3a54:	8f 92       	push	r8
    3a56:	9f 92       	push	r9
    3a58:	af 92       	push	r10
    3a5a:	bf 92       	push	r11
    3a5c:	cf 92       	push	r12
    3a5e:	df 92       	push	r13
    3a60:	ef 92       	push	r14
    3a62:	ff 92       	push	r15
    3a64:	0f 93       	push	r16
    3a66:	1f 93       	push	r17
    3a68:	cf 93       	push	r28
    3a6a:	df 93       	push	r29
    3a6c:	6c 01       	movw	r12, r24
    3a6e:	eb 01       	movw	r28, r22
    3a70:	5a 01       	movw	r10, r20
    3a72:	fc 01       	movw	r30, r24
    3a74:	16 82       	std	Z+6, r1	; 0x06
    3a76:	17 82       	std	Z+7, r1	; 0x07
    3a78:	51 2c       	mov	r5, r1
    3a7a:	f6 01       	movw	r30, r12
    3a7c:	e3 80       	ldd	r14, Z+3	; 0x03
    3a7e:	fe 01       	movw	r30, r28
    3a80:	e3 fc       	sbrc	r14, 3
    3a82:	85 91       	lpm	r24, Z+
    3a84:	e3 fe       	sbrs	r14, 3
    3a86:	81 91       	ld	r24, Z+
    3a88:	18 2f       	mov	r17, r24
    3a8a:	ef 01       	movw	r28, r30
    3a8c:	88 23       	and	r24, r24
    3a8e:	09 f4       	brne	.+2      	; 0x3a92 <vfscanf+0x44>
    3a90:	e0 c0       	rjmp	.+448    	; 0x3c52 <vfscanf+0x204>
    3a92:	90 e0       	ldi	r25, 0x00	; 0
    3a94:	2e d2       	rcall	.+1116   	; 0x3ef2 <isspace>
    3a96:	89 2b       	or	r24, r25
    3a98:	19 f0       	breq	.+6      	; 0x3aa0 <vfscanf+0x52>
    3a9a:	c6 01       	movw	r24, r12
    3a9c:	5f de       	rcall	.-834    	; 0x375c <skip_spaces>
    3a9e:	ed cf       	rjmp	.-38     	; 0x3a7a <vfscanf+0x2c>
    3aa0:	15 32       	cpi	r17, 0x25	; 37
    3aa2:	41 f4       	brne	.+16     	; 0x3ab4 <vfscanf+0x66>
    3aa4:	fe 01       	movw	r30, r28
    3aa6:	e3 fc       	sbrc	r14, 3
    3aa8:	15 91       	lpm	r17, Z+
    3aaa:	e3 fe       	sbrs	r14, 3
    3aac:	11 91       	ld	r17, Z+
    3aae:	ef 01       	movw	r28, r30
    3ab0:	15 32       	cpi	r17, 0x25	; 37
    3ab2:	71 f4       	brne	.+28     	; 0x3ad0 <vfscanf+0x82>
    3ab4:	c6 01       	movw	r24, r12
    3ab6:	4d d2       	rcall	.+1178   	; 0x3f52 <fgetc>
    3ab8:	97 fd       	sbrc	r25, 7
    3aba:	c9 c0       	rjmp	.+402    	; 0x3c4e <vfscanf+0x200>
    3abc:	41 2f       	mov	r20, r17
    3abe:	50 e0       	ldi	r21, 0x00	; 0
    3ac0:	9c 01       	movw	r18, r24
    3ac2:	33 27       	eor	r19, r19
    3ac4:	24 17       	cp	r18, r20
    3ac6:	35 07       	cpc	r19, r21
    3ac8:	c1 f2       	breq	.-80     	; 0x3a7a <vfscanf+0x2c>
    3aca:	b6 01       	movw	r22, r12
    3acc:	bc d2       	rcall	.+1400   	; 0x4046 <ungetc>
    3ace:	c1 c0       	rjmp	.+386    	; 0x3c52 <vfscanf+0x204>
    3ad0:	1a 32       	cpi	r17, 0x2A	; 42
    3ad2:	39 f4       	brne	.+14     	; 0x3ae2 <vfscanf+0x94>
    3ad4:	e3 fc       	sbrc	r14, 3
    3ad6:	15 91       	lpm	r17, Z+
    3ad8:	e3 fe       	sbrs	r14, 3
    3ada:	11 91       	ld	r17, Z+
    3adc:	ef 01       	movw	r28, r30
    3ade:	01 e0       	ldi	r16, 0x01	; 1
    3ae0:	01 c0       	rjmp	.+2      	; 0x3ae4 <vfscanf+0x96>
    3ae2:	00 e0       	ldi	r16, 0x00	; 0
    3ae4:	f1 2c       	mov	r15, r1
    3ae6:	20 ed       	ldi	r18, 0xD0	; 208
    3ae8:	21 0f       	add	r18, r17
    3aea:	2a 30       	cpi	r18, 0x0A	; 10
    3aec:	78 f4       	brcc	.+30     	; 0x3b0c <vfscanf+0xbe>
    3aee:	02 60       	ori	r16, 0x02	; 2
    3af0:	6f 2d       	mov	r22, r15
    3af2:	70 e0       	ldi	r23, 0x00	; 0
    3af4:	80 e0       	ldi	r24, 0x00	; 0
    3af6:	90 e0       	ldi	r25, 0x00	; 0
    3af8:	40 e2       	ldi	r20, 0x20	; 32
    3afa:	09 de       	rcall	.-1006   	; 0x370e <mulacc>
    3afc:	f6 2e       	mov	r15, r22
    3afe:	fe 01       	movw	r30, r28
    3b00:	e3 fc       	sbrc	r14, 3
    3b02:	15 91       	lpm	r17, Z+
    3b04:	e3 fe       	sbrs	r14, 3
    3b06:	11 91       	ld	r17, Z+
    3b08:	ef 01       	movw	r28, r30
    3b0a:	ed cf       	rjmp	.-38     	; 0x3ae6 <vfscanf+0x98>
    3b0c:	01 ff       	sbrs	r16, 1
    3b0e:	03 c0       	rjmp	.+6      	; 0x3b16 <vfscanf+0xc8>
    3b10:	f1 10       	cpse	r15, r1
    3b12:	03 c0       	rjmp	.+6      	; 0x3b1a <vfscanf+0xcc>
    3b14:	9e c0       	rjmp	.+316    	; 0x3c52 <vfscanf+0x204>
    3b16:	ff 24       	eor	r15, r15
    3b18:	fa 94       	dec	r15
    3b1a:	18 36       	cpi	r17, 0x68	; 104
    3b1c:	19 f0       	breq	.+6      	; 0x3b24 <vfscanf+0xd6>
    3b1e:	1c 36       	cpi	r17, 0x6C	; 108
    3b20:	51 f0       	breq	.+20     	; 0x3b36 <vfscanf+0xe8>
    3b22:	10 c0       	rjmp	.+32     	; 0x3b44 <vfscanf+0xf6>
    3b24:	fe 01       	movw	r30, r28
    3b26:	e3 fc       	sbrc	r14, 3
    3b28:	15 91       	lpm	r17, Z+
    3b2a:	e3 fe       	sbrs	r14, 3
    3b2c:	11 91       	ld	r17, Z+
    3b2e:	ef 01       	movw	r28, r30
    3b30:	18 36       	cpi	r17, 0x68	; 104
    3b32:	41 f4       	brne	.+16     	; 0x3b44 <vfscanf+0xf6>
    3b34:	08 60       	ori	r16, 0x08	; 8
    3b36:	04 60       	ori	r16, 0x04	; 4
    3b38:	fe 01       	movw	r30, r28
    3b3a:	e3 fc       	sbrc	r14, 3
    3b3c:	15 91       	lpm	r17, Z+
    3b3e:	e3 fe       	sbrs	r14, 3
    3b40:	11 91       	ld	r17, Z+
    3b42:	ef 01       	movw	r28, r30
    3b44:	11 23       	and	r17, r17
    3b46:	09 f4       	brne	.+2      	; 0x3b4a <vfscanf+0xfc>
    3b48:	84 c0       	rjmp	.+264    	; 0x3c52 <vfscanf+0x204>
    3b4a:	61 2f       	mov	r22, r17
    3b4c:	70 e0       	ldi	r23, 0x00	; 0
    3b4e:	8e e7       	ldi	r24, 0x7E	; 126
    3b50:	92 e0       	ldi	r25, 0x02	; 2
    3b52:	d7 d1       	rcall	.+942    	; 0x3f02 <strchr_P>
    3b54:	89 2b       	or	r24, r25
    3b56:	09 f4       	brne	.+2      	; 0x3b5a <vfscanf+0x10c>
    3b58:	7c c0       	rjmp	.+248    	; 0x3c52 <vfscanf+0x204>
    3b5a:	00 fd       	sbrc	r16, 0
    3b5c:	07 c0       	rjmp	.+14     	; 0x3b6c <vfscanf+0x11e>
    3b5e:	f5 01       	movw	r30, r10
    3b60:	80 80       	ld	r8, Z
    3b62:	91 80       	ldd	r9, Z+1	; 0x01
    3b64:	c5 01       	movw	r24, r10
    3b66:	02 96       	adiw	r24, 0x02	; 2
    3b68:	5c 01       	movw	r10, r24
    3b6a:	02 c0       	rjmp	.+4      	; 0x3b70 <vfscanf+0x122>
    3b6c:	81 2c       	mov	r8, r1
    3b6e:	91 2c       	mov	r9, r1
    3b70:	1e 36       	cpi	r17, 0x6E	; 110
    3b72:	49 f4       	brne	.+18     	; 0x3b86 <vfscanf+0x138>
    3b74:	f6 01       	movw	r30, r12
    3b76:	46 81       	ldd	r20, Z+6	; 0x06
    3b78:	57 81       	ldd	r21, Z+7	; 0x07
    3b7a:	60 e0       	ldi	r22, 0x00	; 0
    3b7c:	70 e0       	ldi	r23, 0x00	; 0
    3b7e:	20 2f       	mov	r18, r16
    3b80:	c4 01       	movw	r24, r8
    3b82:	b9 dd       	rcall	.-1166   	; 0x36f6 <putval>
    3b84:	7a cf       	rjmp	.-268    	; 0x3a7a <vfscanf+0x2c>
    3b86:	13 36       	cpi	r17, 0x63	; 99
    3b88:	a1 f4       	brne	.+40     	; 0x3bb2 <vfscanf+0x164>
    3b8a:	01 fd       	sbrc	r16, 1
    3b8c:	02 c0       	rjmp	.+4      	; 0x3b92 <vfscanf+0x144>
    3b8e:	ff 24       	eor	r15, r15
    3b90:	f3 94       	inc	r15
    3b92:	c6 01       	movw	r24, r12
    3b94:	de d1       	rcall	.+956    	; 0x3f52 <fgetc>
    3b96:	97 fd       	sbrc	r25, 7
    3b98:	5a c0       	rjmp	.+180    	; 0x3c4e <vfscanf+0x200>
    3b9a:	81 14       	cp	r8, r1
    3b9c:	91 04       	cpc	r9, r1
    3b9e:	29 f0       	breq	.+10     	; 0x3baa <vfscanf+0x15c>
    3ba0:	f4 01       	movw	r30, r8
    3ba2:	80 83       	st	Z, r24
    3ba4:	c4 01       	movw	r24, r8
    3ba6:	01 96       	adiw	r24, 0x01	; 1
    3ba8:	4c 01       	movw	r8, r24
    3baa:	fa 94       	dec	r15
    3bac:	f1 10       	cpse	r15, r1
    3bae:	f1 cf       	rjmp	.-30     	; 0x3b92 <vfscanf+0x144>
    3bb0:	4a c0       	rjmp	.+148    	; 0x3c46 <vfscanf+0x1f8>
    3bb2:	1b 35       	cpi	r17, 0x5B	; 91
    3bb4:	51 f4       	brne	.+20     	; 0x3bca <vfscanf+0x17c>
    3bb6:	9e 01       	movw	r18, r28
    3bb8:	a4 01       	movw	r20, r8
    3bba:	6f 2d       	mov	r22, r15
    3bbc:	c6 01       	movw	r24, r12
    3bbe:	6e de       	rcall	.-804    	; 0x389c <conv_brk>
    3bc0:	ec 01       	movw	r28, r24
    3bc2:	89 2b       	or	r24, r25
    3bc4:	09 f0       	breq	.+2      	; 0x3bc8 <vfscanf+0x17a>
    3bc6:	3f c0       	rjmp	.+126    	; 0x3c46 <vfscanf+0x1f8>
    3bc8:	39 c0       	rjmp	.+114    	; 0x3c3c <vfscanf+0x1ee>
    3bca:	c6 01       	movw	r24, r12
    3bcc:	c7 dd       	rcall	.-1138   	; 0x375c <skip_spaces>
    3bce:	97 fd       	sbrc	r25, 7
    3bd0:	3e c0       	rjmp	.+124    	; 0x3c4e <vfscanf+0x200>
    3bd2:	1f 36       	cpi	r17, 0x6F	; 111
    3bd4:	49 f1       	breq	.+82     	; 0x3c28 <vfscanf+0x1da>
    3bd6:	28 f4       	brcc	.+10     	; 0x3be2 <vfscanf+0x194>
    3bd8:	14 36       	cpi	r17, 0x64	; 100
    3bda:	21 f1       	breq	.+72     	; 0x3c24 <vfscanf+0x1d6>
    3bdc:	19 36       	cpi	r17, 0x69	; 105
    3bde:	39 f1       	breq	.+78     	; 0x3c2e <vfscanf+0x1e0>
    3be0:	25 c0       	rjmp	.+74     	; 0x3c2c <vfscanf+0x1de>
    3be2:	13 37       	cpi	r17, 0x73	; 115
    3be4:	71 f0       	breq	.+28     	; 0x3c02 <vfscanf+0x1b4>
    3be6:	15 37       	cpi	r17, 0x75	; 117
    3be8:	e9 f0       	breq	.+58     	; 0x3c24 <vfscanf+0x1d6>
    3bea:	20 c0       	rjmp	.+64     	; 0x3c2c <vfscanf+0x1de>
    3bec:	81 14       	cp	r8, r1
    3bee:	91 04       	cpc	r9, r1
    3bf0:	29 f0       	breq	.+10     	; 0x3bfc <vfscanf+0x1ae>
    3bf2:	f4 01       	movw	r30, r8
    3bf4:	60 82       	st	Z, r6
    3bf6:	c4 01       	movw	r24, r8
    3bf8:	01 96       	adiw	r24, 0x01	; 1
    3bfa:	4c 01       	movw	r8, r24
    3bfc:	fa 94       	dec	r15
    3bfe:	ff 20       	and	r15, r15
    3c00:	59 f0       	breq	.+22     	; 0x3c18 <vfscanf+0x1ca>
    3c02:	c6 01       	movw	r24, r12
    3c04:	a6 d1       	rcall	.+844    	; 0x3f52 <fgetc>
    3c06:	3c 01       	movw	r6, r24
    3c08:	97 fd       	sbrc	r25, 7
    3c0a:	06 c0       	rjmp	.+12     	; 0x3c18 <vfscanf+0x1ca>
    3c0c:	72 d1       	rcall	.+740    	; 0x3ef2 <isspace>
    3c0e:	89 2b       	or	r24, r25
    3c10:	69 f3       	breq	.-38     	; 0x3bec <vfscanf+0x19e>
    3c12:	b6 01       	movw	r22, r12
    3c14:	c3 01       	movw	r24, r6
    3c16:	17 d2       	rcall	.+1070   	; 0x4046 <ungetc>
    3c18:	81 14       	cp	r8, r1
    3c1a:	91 04       	cpc	r9, r1
    3c1c:	a1 f0       	breq	.+40     	; 0x3c46 <vfscanf+0x1f8>
    3c1e:	f4 01       	movw	r30, r8
    3c20:	10 82       	st	Z, r1
    3c22:	11 c0       	rjmp	.+34     	; 0x3c46 <vfscanf+0x1f8>
    3c24:	00 62       	ori	r16, 0x20	; 32
    3c26:	03 c0       	rjmp	.+6      	; 0x3c2e <vfscanf+0x1e0>
    3c28:	00 61       	ori	r16, 0x10	; 16
    3c2a:	01 c0       	rjmp	.+2      	; 0x3c2e <vfscanf+0x1e0>
    3c2c:	00 64       	ori	r16, 0x40	; 64
    3c2e:	20 2f       	mov	r18, r16
    3c30:	a4 01       	movw	r20, r8
    3c32:	6f 2d       	mov	r22, r15
    3c34:	c6 01       	movw	r24, r12
    3c36:	a8 dd       	rcall	.-1200   	; 0x3788 <conv_int>
    3c38:	81 11       	cpse	r24, r1
    3c3a:	05 c0       	rjmp	.+10     	; 0x3c46 <vfscanf+0x1f8>
    3c3c:	f6 01       	movw	r30, r12
    3c3e:	83 81       	ldd	r24, Z+3	; 0x03
    3c40:	80 73       	andi	r24, 0x30	; 48
    3c42:	29 f4       	brne	.+10     	; 0x3c4e <vfscanf+0x200>
    3c44:	06 c0       	rjmp	.+12     	; 0x3c52 <vfscanf+0x204>
    3c46:	00 fd       	sbrc	r16, 0
    3c48:	18 cf       	rjmp	.-464    	; 0x3a7a <vfscanf+0x2c>
    3c4a:	53 94       	inc	r5
    3c4c:	16 cf       	rjmp	.-468    	; 0x3a7a <vfscanf+0x2c>
    3c4e:	55 20       	and	r5, r5
    3c50:	19 f0       	breq	.+6      	; 0x3c58 <vfscanf+0x20a>
    3c52:	85 2d       	mov	r24, r5
    3c54:	90 e0       	ldi	r25, 0x00	; 0
    3c56:	02 c0       	rjmp	.+4      	; 0x3c5c <vfscanf+0x20e>
    3c58:	8f ef       	ldi	r24, 0xFF	; 255
    3c5a:	9f ef       	ldi	r25, 0xFF	; 255
    3c5c:	df 91       	pop	r29
    3c5e:	cf 91       	pop	r28
    3c60:	1f 91       	pop	r17
    3c62:	0f 91       	pop	r16
    3c64:	ff 90       	pop	r15
    3c66:	ef 90       	pop	r14
    3c68:	df 90       	pop	r13
    3c6a:	cf 90       	pop	r12
    3c6c:	bf 90       	pop	r11
    3c6e:	af 90       	pop	r10
    3c70:	9f 90       	pop	r9
    3c72:	8f 90       	pop	r8
    3c74:	7f 90       	pop	r7
    3c76:	6f 90       	pop	r6
    3c78:	5f 90       	pop	r5
    3c7a:	08 95       	ret

00003c7c <calloc>:
    3c7c:	0f 93       	push	r16
    3c7e:	1f 93       	push	r17
    3c80:	cf 93       	push	r28
    3c82:	df 93       	push	r29
    3c84:	86 9f       	mul	r24, r22
    3c86:	80 01       	movw	r16, r0
    3c88:	87 9f       	mul	r24, r23
    3c8a:	10 0d       	add	r17, r0
    3c8c:	96 9f       	mul	r25, r22
    3c8e:	10 0d       	add	r17, r0
    3c90:	11 24       	eor	r1, r1
    3c92:	c8 01       	movw	r24, r16
    3c94:	0d d0       	rcall	.+26     	; 0x3cb0 <malloc>
    3c96:	ec 01       	movw	r28, r24
    3c98:	00 97       	sbiw	r24, 0x00	; 0
    3c9a:	21 f0       	breq	.+8      	; 0x3ca4 <calloc+0x28>
    3c9c:	a8 01       	movw	r20, r16
    3c9e:	60 e0       	ldi	r22, 0x00	; 0
    3ca0:	70 e0       	ldi	r23, 0x00	; 0
    3ca2:	45 d1       	rcall	.+650    	; 0x3f2e <memset>
    3ca4:	ce 01       	movw	r24, r28
    3ca6:	df 91       	pop	r29
    3ca8:	cf 91       	pop	r28
    3caa:	1f 91       	pop	r17
    3cac:	0f 91       	pop	r16
    3cae:	08 95       	ret

00003cb0 <malloc>:
    3cb0:	0f 93       	push	r16
    3cb2:	1f 93       	push	r17
    3cb4:	cf 93       	push	r28
    3cb6:	df 93       	push	r29
    3cb8:	82 30       	cpi	r24, 0x02	; 2
    3cba:	91 05       	cpc	r25, r1
    3cbc:	10 f4       	brcc	.+4      	; 0x3cc2 <malloc+0x12>
    3cbe:	82 e0       	ldi	r24, 0x02	; 2
    3cc0:	90 e0       	ldi	r25, 0x00	; 0
    3cc2:	e0 91 78 21 	lds	r30, 0x2178	; 0x802178 <__flp>
    3cc6:	f0 91 79 21 	lds	r31, 0x2179	; 0x802179 <__flp+0x1>
    3cca:	20 e0       	ldi	r18, 0x00	; 0
    3ccc:	30 e0       	ldi	r19, 0x00	; 0
    3cce:	a0 e0       	ldi	r26, 0x00	; 0
    3cd0:	b0 e0       	ldi	r27, 0x00	; 0
    3cd2:	30 97       	sbiw	r30, 0x00	; 0
    3cd4:	19 f1       	breq	.+70     	; 0x3d1c <malloc+0x6c>
    3cd6:	40 81       	ld	r20, Z
    3cd8:	51 81       	ldd	r21, Z+1	; 0x01
    3cda:	02 81       	ldd	r16, Z+2	; 0x02
    3cdc:	13 81       	ldd	r17, Z+3	; 0x03
    3cde:	48 17       	cp	r20, r24
    3ce0:	59 07       	cpc	r21, r25
    3ce2:	c8 f0       	brcs	.+50     	; 0x3d16 <malloc+0x66>
    3ce4:	84 17       	cp	r24, r20
    3ce6:	95 07       	cpc	r25, r21
    3ce8:	69 f4       	brne	.+26     	; 0x3d04 <malloc+0x54>
    3cea:	10 97       	sbiw	r26, 0x00	; 0
    3cec:	31 f0       	breq	.+12     	; 0x3cfa <malloc+0x4a>
    3cee:	12 96       	adiw	r26, 0x02	; 2
    3cf0:	0c 93       	st	X, r16
    3cf2:	12 97       	sbiw	r26, 0x02	; 2
    3cf4:	13 96       	adiw	r26, 0x03	; 3
    3cf6:	1c 93       	st	X, r17
    3cf8:	27 c0       	rjmp	.+78     	; 0x3d48 <malloc+0x98>
    3cfa:	00 93 78 21 	sts	0x2178, r16	; 0x802178 <__flp>
    3cfe:	10 93 79 21 	sts	0x2179, r17	; 0x802179 <__flp+0x1>
    3d02:	22 c0       	rjmp	.+68     	; 0x3d48 <malloc+0x98>
    3d04:	21 15       	cp	r18, r1
    3d06:	31 05       	cpc	r19, r1
    3d08:	19 f0       	breq	.+6      	; 0x3d10 <malloc+0x60>
    3d0a:	42 17       	cp	r20, r18
    3d0c:	53 07       	cpc	r21, r19
    3d0e:	18 f4       	brcc	.+6      	; 0x3d16 <malloc+0x66>
    3d10:	9a 01       	movw	r18, r20
    3d12:	bd 01       	movw	r22, r26
    3d14:	ef 01       	movw	r28, r30
    3d16:	df 01       	movw	r26, r30
    3d18:	f8 01       	movw	r30, r16
    3d1a:	db cf       	rjmp	.-74     	; 0x3cd2 <malloc+0x22>
    3d1c:	21 15       	cp	r18, r1
    3d1e:	31 05       	cpc	r19, r1
    3d20:	f9 f0       	breq	.+62     	; 0x3d60 <malloc+0xb0>
    3d22:	28 1b       	sub	r18, r24
    3d24:	39 0b       	sbc	r19, r25
    3d26:	24 30       	cpi	r18, 0x04	; 4
    3d28:	31 05       	cpc	r19, r1
    3d2a:	80 f4       	brcc	.+32     	; 0x3d4c <malloc+0x9c>
    3d2c:	8a 81       	ldd	r24, Y+2	; 0x02
    3d2e:	9b 81       	ldd	r25, Y+3	; 0x03
    3d30:	61 15       	cp	r22, r1
    3d32:	71 05       	cpc	r23, r1
    3d34:	21 f0       	breq	.+8      	; 0x3d3e <malloc+0x8e>
    3d36:	fb 01       	movw	r30, r22
    3d38:	82 83       	std	Z+2, r24	; 0x02
    3d3a:	93 83       	std	Z+3, r25	; 0x03
    3d3c:	04 c0       	rjmp	.+8      	; 0x3d46 <malloc+0x96>
    3d3e:	80 93 78 21 	sts	0x2178, r24	; 0x802178 <__flp>
    3d42:	90 93 79 21 	sts	0x2179, r25	; 0x802179 <__flp+0x1>
    3d46:	fe 01       	movw	r30, r28
    3d48:	32 96       	adiw	r30, 0x02	; 2
    3d4a:	44 c0       	rjmp	.+136    	; 0x3dd4 <malloc+0x124>
    3d4c:	fe 01       	movw	r30, r28
    3d4e:	e2 0f       	add	r30, r18
    3d50:	f3 1f       	adc	r31, r19
    3d52:	81 93       	st	Z+, r24
    3d54:	91 93       	st	Z+, r25
    3d56:	22 50       	subi	r18, 0x02	; 2
    3d58:	31 09       	sbc	r19, r1
    3d5a:	28 83       	st	Y, r18
    3d5c:	39 83       	std	Y+1, r19	; 0x01
    3d5e:	3a c0       	rjmp	.+116    	; 0x3dd4 <malloc+0x124>
    3d60:	20 91 76 21 	lds	r18, 0x2176	; 0x802176 <__brkval>
    3d64:	30 91 77 21 	lds	r19, 0x2177	; 0x802177 <__brkval+0x1>
    3d68:	23 2b       	or	r18, r19
    3d6a:	41 f4       	brne	.+16     	; 0x3d7c <malloc+0xcc>
    3d6c:	20 91 02 20 	lds	r18, 0x2002	; 0x802002 <__malloc_heap_start>
    3d70:	30 91 03 20 	lds	r19, 0x2003	; 0x802003 <__malloc_heap_start+0x1>
    3d74:	20 93 76 21 	sts	0x2176, r18	; 0x802176 <__brkval>
    3d78:	30 93 77 21 	sts	0x2177, r19	; 0x802177 <__brkval+0x1>
    3d7c:	20 91 00 20 	lds	r18, 0x2000	; 0x802000 <__data_start>
    3d80:	30 91 01 20 	lds	r19, 0x2001	; 0x802001 <__data_start+0x1>
    3d84:	21 15       	cp	r18, r1
    3d86:	31 05       	cpc	r19, r1
    3d88:	41 f4       	brne	.+16     	; 0x3d9a <malloc+0xea>
    3d8a:	2d b7       	in	r18, 0x3d	; 61
    3d8c:	3e b7       	in	r19, 0x3e	; 62
    3d8e:	40 91 04 20 	lds	r20, 0x2004	; 0x802004 <__malloc_margin>
    3d92:	50 91 05 20 	lds	r21, 0x2005	; 0x802005 <__malloc_margin+0x1>
    3d96:	24 1b       	sub	r18, r20
    3d98:	35 0b       	sbc	r19, r21
    3d9a:	e0 91 76 21 	lds	r30, 0x2176	; 0x802176 <__brkval>
    3d9e:	f0 91 77 21 	lds	r31, 0x2177	; 0x802177 <__brkval+0x1>
    3da2:	e2 17       	cp	r30, r18
    3da4:	f3 07       	cpc	r31, r19
    3da6:	a0 f4       	brcc	.+40     	; 0x3dd0 <malloc+0x120>
    3da8:	2e 1b       	sub	r18, r30
    3daa:	3f 0b       	sbc	r19, r31
    3dac:	28 17       	cp	r18, r24
    3dae:	39 07       	cpc	r19, r25
    3db0:	78 f0       	brcs	.+30     	; 0x3dd0 <malloc+0x120>
    3db2:	ac 01       	movw	r20, r24
    3db4:	4e 5f       	subi	r20, 0xFE	; 254
    3db6:	5f 4f       	sbci	r21, 0xFF	; 255
    3db8:	24 17       	cp	r18, r20
    3dba:	35 07       	cpc	r19, r21
    3dbc:	48 f0       	brcs	.+18     	; 0x3dd0 <malloc+0x120>
    3dbe:	4e 0f       	add	r20, r30
    3dc0:	5f 1f       	adc	r21, r31
    3dc2:	40 93 76 21 	sts	0x2176, r20	; 0x802176 <__brkval>
    3dc6:	50 93 77 21 	sts	0x2177, r21	; 0x802177 <__brkval+0x1>
    3dca:	81 93       	st	Z+, r24
    3dcc:	91 93       	st	Z+, r25
    3dce:	02 c0       	rjmp	.+4      	; 0x3dd4 <malloc+0x124>
    3dd0:	e0 e0       	ldi	r30, 0x00	; 0
    3dd2:	f0 e0       	ldi	r31, 0x00	; 0
    3dd4:	cf 01       	movw	r24, r30
    3dd6:	df 91       	pop	r29
    3dd8:	cf 91       	pop	r28
    3dda:	1f 91       	pop	r17
    3ddc:	0f 91       	pop	r16
    3dde:	08 95       	ret

00003de0 <free>:
    3de0:	cf 93       	push	r28
    3de2:	df 93       	push	r29
    3de4:	00 97       	sbiw	r24, 0x00	; 0
    3de6:	09 f4       	brne	.+2      	; 0x3dea <free+0xa>
    3de8:	81 c0       	rjmp	.+258    	; 0x3eec <free+0x10c>
    3dea:	fc 01       	movw	r30, r24
    3dec:	32 97       	sbiw	r30, 0x02	; 2
    3dee:	12 82       	std	Z+2, r1	; 0x02
    3df0:	13 82       	std	Z+3, r1	; 0x03
    3df2:	a0 91 78 21 	lds	r26, 0x2178	; 0x802178 <__flp>
    3df6:	b0 91 79 21 	lds	r27, 0x2179	; 0x802179 <__flp+0x1>
    3dfa:	10 97       	sbiw	r26, 0x00	; 0
    3dfc:	81 f4       	brne	.+32     	; 0x3e1e <free+0x3e>
    3dfe:	20 81       	ld	r18, Z
    3e00:	31 81       	ldd	r19, Z+1	; 0x01
    3e02:	82 0f       	add	r24, r18
    3e04:	93 1f       	adc	r25, r19
    3e06:	20 91 76 21 	lds	r18, 0x2176	; 0x802176 <__brkval>
    3e0a:	30 91 77 21 	lds	r19, 0x2177	; 0x802177 <__brkval+0x1>
    3e0e:	28 17       	cp	r18, r24
    3e10:	39 07       	cpc	r19, r25
    3e12:	51 f5       	brne	.+84     	; 0x3e68 <free+0x88>
    3e14:	e0 93 76 21 	sts	0x2176, r30	; 0x802176 <__brkval>
    3e18:	f0 93 77 21 	sts	0x2177, r31	; 0x802177 <__brkval+0x1>
    3e1c:	67 c0       	rjmp	.+206    	; 0x3eec <free+0x10c>
    3e1e:	ed 01       	movw	r28, r26
    3e20:	20 e0       	ldi	r18, 0x00	; 0
    3e22:	30 e0       	ldi	r19, 0x00	; 0
    3e24:	ce 17       	cp	r28, r30
    3e26:	df 07       	cpc	r29, r31
    3e28:	40 f4       	brcc	.+16     	; 0x3e3a <free+0x5a>
    3e2a:	4a 81       	ldd	r20, Y+2	; 0x02
    3e2c:	5b 81       	ldd	r21, Y+3	; 0x03
    3e2e:	9e 01       	movw	r18, r28
    3e30:	41 15       	cp	r20, r1
    3e32:	51 05       	cpc	r21, r1
    3e34:	f1 f0       	breq	.+60     	; 0x3e72 <free+0x92>
    3e36:	ea 01       	movw	r28, r20
    3e38:	f5 cf       	rjmp	.-22     	; 0x3e24 <free+0x44>
    3e3a:	c2 83       	std	Z+2, r28	; 0x02
    3e3c:	d3 83       	std	Z+3, r29	; 0x03
    3e3e:	40 81       	ld	r20, Z
    3e40:	51 81       	ldd	r21, Z+1	; 0x01
    3e42:	84 0f       	add	r24, r20
    3e44:	95 1f       	adc	r25, r21
    3e46:	c8 17       	cp	r28, r24
    3e48:	d9 07       	cpc	r29, r25
    3e4a:	59 f4       	brne	.+22     	; 0x3e62 <free+0x82>
    3e4c:	88 81       	ld	r24, Y
    3e4e:	99 81       	ldd	r25, Y+1	; 0x01
    3e50:	84 0f       	add	r24, r20
    3e52:	95 1f       	adc	r25, r21
    3e54:	02 96       	adiw	r24, 0x02	; 2
    3e56:	80 83       	st	Z, r24
    3e58:	91 83       	std	Z+1, r25	; 0x01
    3e5a:	8a 81       	ldd	r24, Y+2	; 0x02
    3e5c:	9b 81       	ldd	r25, Y+3	; 0x03
    3e5e:	82 83       	std	Z+2, r24	; 0x02
    3e60:	93 83       	std	Z+3, r25	; 0x03
    3e62:	21 15       	cp	r18, r1
    3e64:	31 05       	cpc	r19, r1
    3e66:	29 f4       	brne	.+10     	; 0x3e72 <free+0x92>
    3e68:	e0 93 78 21 	sts	0x2178, r30	; 0x802178 <__flp>
    3e6c:	f0 93 79 21 	sts	0x2179, r31	; 0x802179 <__flp+0x1>
    3e70:	3d c0       	rjmp	.+122    	; 0x3eec <free+0x10c>
    3e72:	e9 01       	movw	r28, r18
    3e74:	ea 83       	std	Y+2, r30	; 0x02
    3e76:	fb 83       	std	Y+3, r31	; 0x03
    3e78:	49 91       	ld	r20, Y+
    3e7a:	59 91       	ld	r21, Y+
    3e7c:	c4 0f       	add	r28, r20
    3e7e:	d5 1f       	adc	r29, r21
    3e80:	ec 17       	cp	r30, r28
    3e82:	fd 07       	cpc	r31, r29
    3e84:	61 f4       	brne	.+24     	; 0x3e9e <free+0xbe>
    3e86:	80 81       	ld	r24, Z
    3e88:	91 81       	ldd	r25, Z+1	; 0x01
    3e8a:	84 0f       	add	r24, r20
    3e8c:	95 1f       	adc	r25, r21
    3e8e:	02 96       	adiw	r24, 0x02	; 2
    3e90:	e9 01       	movw	r28, r18
    3e92:	88 83       	st	Y, r24
    3e94:	99 83       	std	Y+1, r25	; 0x01
    3e96:	82 81       	ldd	r24, Z+2	; 0x02
    3e98:	93 81       	ldd	r25, Z+3	; 0x03
    3e9a:	8a 83       	std	Y+2, r24	; 0x02
    3e9c:	9b 83       	std	Y+3, r25	; 0x03
    3e9e:	e0 e0       	ldi	r30, 0x00	; 0
    3ea0:	f0 e0       	ldi	r31, 0x00	; 0
    3ea2:	12 96       	adiw	r26, 0x02	; 2
    3ea4:	8d 91       	ld	r24, X+
    3ea6:	9c 91       	ld	r25, X
    3ea8:	13 97       	sbiw	r26, 0x03	; 3
    3eaa:	00 97       	sbiw	r24, 0x00	; 0
    3eac:	19 f0       	breq	.+6      	; 0x3eb4 <free+0xd4>
    3eae:	fd 01       	movw	r30, r26
    3eb0:	dc 01       	movw	r26, r24
    3eb2:	f7 cf       	rjmp	.-18     	; 0x3ea2 <free+0xc2>
    3eb4:	8d 91       	ld	r24, X+
    3eb6:	9c 91       	ld	r25, X
    3eb8:	11 97       	sbiw	r26, 0x01	; 1
    3eba:	9d 01       	movw	r18, r26
    3ebc:	2e 5f       	subi	r18, 0xFE	; 254
    3ebe:	3f 4f       	sbci	r19, 0xFF	; 255
    3ec0:	82 0f       	add	r24, r18
    3ec2:	93 1f       	adc	r25, r19
    3ec4:	20 91 76 21 	lds	r18, 0x2176	; 0x802176 <__brkval>
    3ec8:	30 91 77 21 	lds	r19, 0x2177	; 0x802177 <__brkval+0x1>
    3ecc:	28 17       	cp	r18, r24
    3ece:	39 07       	cpc	r19, r25
    3ed0:	69 f4       	brne	.+26     	; 0x3eec <free+0x10c>
    3ed2:	30 97       	sbiw	r30, 0x00	; 0
    3ed4:	29 f4       	brne	.+10     	; 0x3ee0 <free+0x100>
    3ed6:	10 92 78 21 	sts	0x2178, r1	; 0x802178 <__flp>
    3eda:	10 92 79 21 	sts	0x2179, r1	; 0x802179 <__flp+0x1>
    3ede:	02 c0       	rjmp	.+4      	; 0x3ee4 <free+0x104>
    3ee0:	12 82       	std	Z+2, r1	; 0x02
    3ee2:	13 82       	std	Z+3, r1	; 0x03
    3ee4:	a0 93 76 21 	sts	0x2176, r26	; 0x802176 <__brkval>
    3ee8:	b0 93 77 21 	sts	0x2177, r27	; 0x802177 <__brkval+0x1>
    3eec:	df 91       	pop	r29
    3eee:	cf 91       	pop	r28
    3ef0:	08 95       	ret

00003ef2 <isspace>:
    3ef2:	91 11       	cpse	r25, r1
    3ef4:	1f c1       	rjmp	.+574    	; 0x4134 <__ctype_isfalse>
    3ef6:	80 32       	cpi	r24, 0x20	; 32
    3ef8:	19 f0       	breq	.+6      	; 0x3f00 <isspace+0xe>
    3efa:	89 50       	subi	r24, 0x09	; 9
    3efc:	85 50       	subi	r24, 0x05	; 5
    3efe:	d0 f7       	brcc	.-12     	; 0x3ef4 <isspace+0x2>
    3f00:	08 95       	ret

00003f02 <strchr_P>:
    3f02:	fc 01       	movw	r30, r24
    3f04:	05 90       	lpm	r0, Z+
    3f06:	06 16       	cp	r0, r22
    3f08:	21 f0       	breq	.+8      	; 0x3f12 <strchr_P+0x10>
    3f0a:	00 20       	and	r0, r0
    3f0c:	d9 f7       	brne	.-10     	; 0x3f04 <strchr_P+0x2>
    3f0e:	c0 01       	movw	r24, r0
    3f10:	08 95       	ret
    3f12:	31 97       	sbiw	r30, 0x01	; 1
    3f14:	cf 01       	movw	r24, r30
    3f16:	08 95       	ret

00003f18 <strnlen_P>:
    3f18:	fc 01       	movw	r30, r24
    3f1a:	05 90       	lpm	r0, Z+
    3f1c:	61 50       	subi	r22, 0x01	; 1
    3f1e:	70 40       	sbci	r23, 0x00	; 0
    3f20:	01 10       	cpse	r0, r1
    3f22:	d8 f7       	brcc	.-10     	; 0x3f1a <strnlen_P+0x2>
    3f24:	80 95       	com	r24
    3f26:	90 95       	com	r25
    3f28:	8e 0f       	add	r24, r30
    3f2a:	9f 1f       	adc	r25, r31
    3f2c:	08 95       	ret

00003f2e <memset>:
    3f2e:	dc 01       	movw	r26, r24
    3f30:	01 c0       	rjmp	.+2      	; 0x3f34 <memset+0x6>
    3f32:	6d 93       	st	X+, r22
    3f34:	41 50       	subi	r20, 0x01	; 1
    3f36:	50 40       	sbci	r21, 0x00	; 0
    3f38:	e0 f7       	brcc	.-8      	; 0x3f32 <memset+0x4>
    3f3a:	08 95       	ret

00003f3c <strnlen>:
    3f3c:	fc 01       	movw	r30, r24
    3f3e:	61 50       	subi	r22, 0x01	; 1
    3f40:	70 40       	sbci	r23, 0x00	; 0
    3f42:	01 90       	ld	r0, Z+
    3f44:	01 10       	cpse	r0, r1
    3f46:	d8 f7       	brcc	.-10     	; 0x3f3e <strnlen+0x2>
    3f48:	80 95       	com	r24
    3f4a:	90 95       	com	r25
    3f4c:	8e 0f       	add	r24, r30
    3f4e:	9f 1f       	adc	r25, r31
    3f50:	08 95       	ret

00003f52 <fgetc>:
    3f52:	cf 93       	push	r28
    3f54:	df 93       	push	r29
    3f56:	ec 01       	movw	r28, r24
    3f58:	2b 81       	ldd	r18, Y+3	; 0x03
    3f5a:	20 ff       	sbrs	r18, 0
    3f5c:	33 c0       	rjmp	.+102    	; 0x3fc4 <fgetc+0x72>
    3f5e:	26 ff       	sbrs	r18, 6
    3f60:	0a c0       	rjmp	.+20     	; 0x3f76 <fgetc+0x24>
    3f62:	2f 7b       	andi	r18, 0xBF	; 191
    3f64:	2b 83       	std	Y+3, r18	; 0x03
    3f66:	8e 81       	ldd	r24, Y+6	; 0x06
    3f68:	9f 81       	ldd	r25, Y+7	; 0x07
    3f6a:	01 96       	adiw	r24, 0x01	; 1
    3f6c:	8e 83       	std	Y+6, r24	; 0x06
    3f6e:	9f 83       	std	Y+7, r25	; 0x07
    3f70:	8a 81       	ldd	r24, Y+2	; 0x02
    3f72:	90 e0       	ldi	r25, 0x00	; 0
    3f74:	29 c0       	rjmp	.+82     	; 0x3fc8 <fgetc+0x76>
    3f76:	22 ff       	sbrs	r18, 2
    3f78:	0f c0       	rjmp	.+30     	; 0x3f98 <fgetc+0x46>
    3f7a:	e8 81       	ld	r30, Y
    3f7c:	f9 81       	ldd	r31, Y+1	; 0x01
    3f7e:	80 81       	ld	r24, Z
    3f80:	08 2e       	mov	r0, r24
    3f82:	00 0c       	add	r0, r0
    3f84:	99 0b       	sbc	r25, r25
    3f86:	00 97       	sbiw	r24, 0x00	; 0
    3f88:	19 f4       	brne	.+6      	; 0x3f90 <fgetc+0x3e>
    3f8a:	20 62       	ori	r18, 0x20	; 32
    3f8c:	2b 83       	std	Y+3, r18	; 0x03
    3f8e:	1a c0       	rjmp	.+52     	; 0x3fc4 <fgetc+0x72>
    3f90:	31 96       	adiw	r30, 0x01	; 1
    3f92:	e8 83       	st	Y, r30
    3f94:	f9 83       	std	Y+1, r31	; 0x01
    3f96:	0e c0       	rjmp	.+28     	; 0x3fb4 <fgetc+0x62>
    3f98:	ea 85       	ldd	r30, Y+10	; 0x0a
    3f9a:	fb 85       	ldd	r31, Y+11	; 0x0b
    3f9c:	19 95       	eicall
    3f9e:	97 ff       	sbrs	r25, 7
    3fa0:	09 c0       	rjmp	.+18     	; 0x3fb4 <fgetc+0x62>
    3fa2:	2b 81       	ldd	r18, Y+3	; 0x03
    3fa4:	01 96       	adiw	r24, 0x01	; 1
    3fa6:	11 f0       	breq	.+4      	; 0x3fac <fgetc+0x5a>
    3fa8:	80 e2       	ldi	r24, 0x20	; 32
    3faa:	01 c0       	rjmp	.+2      	; 0x3fae <fgetc+0x5c>
    3fac:	80 e1       	ldi	r24, 0x10	; 16
    3fae:	82 2b       	or	r24, r18
    3fb0:	8b 83       	std	Y+3, r24	; 0x03
    3fb2:	08 c0       	rjmp	.+16     	; 0x3fc4 <fgetc+0x72>
    3fb4:	2e 81       	ldd	r18, Y+6	; 0x06
    3fb6:	3f 81       	ldd	r19, Y+7	; 0x07
    3fb8:	2f 5f       	subi	r18, 0xFF	; 255
    3fba:	3f 4f       	sbci	r19, 0xFF	; 255
    3fbc:	2e 83       	std	Y+6, r18	; 0x06
    3fbe:	3f 83       	std	Y+7, r19	; 0x07
    3fc0:	99 27       	eor	r25, r25
    3fc2:	02 c0       	rjmp	.+4      	; 0x3fc8 <fgetc+0x76>
    3fc4:	8f ef       	ldi	r24, 0xFF	; 255
    3fc6:	9f ef       	ldi	r25, 0xFF	; 255
    3fc8:	df 91       	pop	r29
    3fca:	cf 91       	pop	r28
    3fcc:	08 95       	ret

00003fce <fputc>:
    3fce:	0f 93       	push	r16
    3fd0:	1f 93       	push	r17
    3fd2:	cf 93       	push	r28
    3fd4:	df 93       	push	r29
    3fd6:	fb 01       	movw	r30, r22
    3fd8:	23 81       	ldd	r18, Z+3	; 0x03
    3fda:	21 fd       	sbrc	r18, 1
    3fdc:	03 c0       	rjmp	.+6      	; 0x3fe4 <fputc+0x16>
    3fde:	8f ef       	ldi	r24, 0xFF	; 255
    3fe0:	9f ef       	ldi	r25, 0xFF	; 255
    3fe2:	2c c0       	rjmp	.+88     	; 0x403c <__stack+0x3d>
    3fe4:	22 ff       	sbrs	r18, 2
    3fe6:	16 c0       	rjmp	.+44     	; 0x4014 <__stack+0x15>
    3fe8:	46 81       	ldd	r20, Z+6	; 0x06
    3fea:	57 81       	ldd	r21, Z+7	; 0x07
    3fec:	24 81       	ldd	r18, Z+4	; 0x04
    3fee:	35 81       	ldd	r19, Z+5	; 0x05
    3ff0:	42 17       	cp	r20, r18
    3ff2:	53 07       	cpc	r21, r19
    3ff4:	44 f4       	brge	.+16     	; 0x4006 <__stack+0x7>
    3ff6:	a0 81       	ld	r26, Z
    3ff8:	b1 81       	ldd	r27, Z+1	; 0x01
    3ffa:	9d 01       	movw	r18, r26
    3ffc:	2f 5f       	subi	r18, 0xFF	; 255
    3ffe:	3f 4f       	sbci	r19, 0xFF	; 255
    4000:	20 83       	st	Z, r18
    4002:	31 83       	std	Z+1, r19	; 0x01
    4004:	8c 93       	st	X, r24
    4006:	26 81       	ldd	r18, Z+6	; 0x06
    4008:	37 81       	ldd	r19, Z+7	; 0x07
    400a:	2f 5f       	subi	r18, 0xFF	; 255
    400c:	3f 4f       	sbci	r19, 0xFF	; 255
    400e:	26 83       	std	Z+6, r18	; 0x06
    4010:	37 83       	std	Z+7, r19	; 0x07
    4012:	14 c0       	rjmp	.+40     	; 0x403c <__stack+0x3d>
    4014:	8b 01       	movw	r16, r22
    4016:	ec 01       	movw	r28, r24
    4018:	fb 01       	movw	r30, r22
    401a:	00 84       	ldd	r0, Z+8	; 0x08
    401c:	f1 85       	ldd	r31, Z+9	; 0x09
    401e:	e0 2d       	mov	r30, r0
    4020:	19 95       	eicall
    4022:	89 2b       	or	r24, r25
    4024:	e1 f6       	brne	.-72     	; 0x3fde <fputc+0x10>
    4026:	d8 01       	movw	r26, r16
    4028:	16 96       	adiw	r26, 0x06	; 6
    402a:	8d 91       	ld	r24, X+
    402c:	9c 91       	ld	r25, X
    402e:	17 97       	sbiw	r26, 0x07	; 7
    4030:	01 96       	adiw	r24, 0x01	; 1
    4032:	16 96       	adiw	r26, 0x06	; 6
    4034:	8d 93       	st	X+, r24
    4036:	9c 93       	st	X, r25
    4038:	17 97       	sbiw	r26, 0x07	; 7
    403a:	ce 01       	movw	r24, r28
    403c:	df 91       	pop	r29
    403e:	cf 91       	pop	r28
    4040:	1f 91       	pop	r17
    4042:	0f 91       	pop	r16
    4044:	08 95       	ret

00004046 <ungetc>:
    4046:	fb 01       	movw	r30, r22
    4048:	23 81       	ldd	r18, Z+3	; 0x03
    404a:	20 ff       	sbrs	r18, 0
    404c:	12 c0       	rjmp	.+36     	; 0x4072 <ungetc+0x2c>
    404e:	26 fd       	sbrc	r18, 6
    4050:	10 c0       	rjmp	.+32     	; 0x4072 <ungetc+0x2c>
    4052:	8f 3f       	cpi	r24, 0xFF	; 255
    4054:	3f ef       	ldi	r19, 0xFF	; 255
    4056:	93 07       	cpc	r25, r19
    4058:	61 f0       	breq	.+24     	; 0x4072 <ungetc+0x2c>
    405a:	82 83       	std	Z+2, r24	; 0x02
    405c:	2f 7d       	andi	r18, 0xDF	; 223
    405e:	20 64       	ori	r18, 0x40	; 64
    4060:	23 83       	std	Z+3, r18	; 0x03
    4062:	26 81       	ldd	r18, Z+6	; 0x06
    4064:	37 81       	ldd	r19, Z+7	; 0x07
    4066:	21 50       	subi	r18, 0x01	; 1
    4068:	31 09       	sbc	r19, r1
    406a:	26 83       	std	Z+6, r18	; 0x06
    406c:	37 83       	std	Z+7, r19	; 0x07
    406e:	99 27       	eor	r25, r25
    4070:	08 95       	ret
    4072:	8f ef       	ldi	r24, 0xFF	; 255
    4074:	9f ef       	ldi	r25, 0xFF	; 255
    4076:	08 95       	ret

00004078 <__ultoa_invert>:
    4078:	fa 01       	movw	r30, r20
    407a:	aa 27       	eor	r26, r26
    407c:	28 30       	cpi	r18, 0x08	; 8
    407e:	51 f1       	breq	.+84     	; 0x40d4 <__ultoa_invert+0x5c>
    4080:	20 31       	cpi	r18, 0x10	; 16
    4082:	81 f1       	breq	.+96     	; 0x40e4 <__ultoa_invert+0x6c>
    4084:	e8 94       	clt
    4086:	6f 93       	push	r22
    4088:	6e 7f       	andi	r22, 0xFE	; 254
    408a:	6e 5f       	subi	r22, 0xFE	; 254
    408c:	7f 4f       	sbci	r23, 0xFF	; 255
    408e:	8f 4f       	sbci	r24, 0xFF	; 255
    4090:	9f 4f       	sbci	r25, 0xFF	; 255
    4092:	af 4f       	sbci	r26, 0xFF	; 255
    4094:	b1 e0       	ldi	r27, 0x01	; 1
    4096:	3e d0       	rcall	.+124    	; 0x4114 <__ultoa_invert+0x9c>
    4098:	b4 e0       	ldi	r27, 0x04	; 4
    409a:	3c d0       	rcall	.+120    	; 0x4114 <__ultoa_invert+0x9c>
    409c:	67 0f       	add	r22, r23
    409e:	78 1f       	adc	r23, r24
    40a0:	89 1f       	adc	r24, r25
    40a2:	9a 1f       	adc	r25, r26
    40a4:	a1 1d       	adc	r26, r1
    40a6:	68 0f       	add	r22, r24
    40a8:	79 1f       	adc	r23, r25
    40aa:	8a 1f       	adc	r24, r26
    40ac:	91 1d       	adc	r25, r1
    40ae:	a1 1d       	adc	r26, r1
    40b0:	6a 0f       	add	r22, r26
    40b2:	71 1d       	adc	r23, r1
    40b4:	81 1d       	adc	r24, r1
    40b6:	91 1d       	adc	r25, r1
    40b8:	a1 1d       	adc	r26, r1
    40ba:	20 d0       	rcall	.+64     	; 0x40fc <__ultoa_invert+0x84>
    40bc:	09 f4       	brne	.+2      	; 0x40c0 <__ultoa_invert+0x48>
    40be:	68 94       	set
    40c0:	3f 91       	pop	r19
    40c2:	2a e0       	ldi	r18, 0x0A	; 10
    40c4:	26 9f       	mul	r18, r22
    40c6:	11 24       	eor	r1, r1
    40c8:	30 19       	sub	r19, r0
    40ca:	30 5d       	subi	r19, 0xD0	; 208
    40cc:	31 93       	st	Z+, r19
    40ce:	de f6       	brtc	.-74     	; 0x4086 <__ultoa_invert+0xe>
    40d0:	cf 01       	movw	r24, r30
    40d2:	08 95       	ret
    40d4:	46 2f       	mov	r20, r22
    40d6:	47 70       	andi	r20, 0x07	; 7
    40d8:	40 5d       	subi	r20, 0xD0	; 208
    40da:	41 93       	st	Z+, r20
    40dc:	b3 e0       	ldi	r27, 0x03	; 3
    40de:	0f d0       	rcall	.+30     	; 0x40fe <__ultoa_invert+0x86>
    40e0:	c9 f7       	brne	.-14     	; 0x40d4 <__ultoa_invert+0x5c>
    40e2:	f6 cf       	rjmp	.-20     	; 0x40d0 <__ultoa_invert+0x58>
    40e4:	46 2f       	mov	r20, r22
    40e6:	4f 70       	andi	r20, 0x0F	; 15
    40e8:	40 5d       	subi	r20, 0xD0	; 208
    40ea:	4a 33       	cpi	r20, 0x3A	; 58
    40ec:	18 f0       	brcs	.+6      	; 0x40f4 <__ultoa_invert+0x7c>
    40ee:	49 5d       	subi	r20, 0xD9	; 217
    40f0:	31 fd       	sbrc	r19, 1
    40f2:	40 52       	subi	r20, 0x20	; 32
    40f4:	41 93       	st	Z+, r20
    40f6:	02 d0       	rcall	.+4      	; 0x40fc <__ultoa_invert+0x84>
    40f8:	a9 f7       	brne	.-22     	; 0x40e4 <__ultoa_invert+0x6c>
    40fa:	ea cf       	rjmp	.-44     	; 0x40d0 <__ultoa_invert+0x58>
    40fc:	b4 e0       	ldi	r27, 0x04	; 4
    40fe:	a6 95       	lsr	r26
    4100:	97 95       	ror	r25
    4102:	87 95       	ror	r24
    4104:	77 95       	ror	r23
    4106:	67 95       	ror	r22
    4108:	ba 95       	dec	r27
    410a:	c9 f7       	brne	.-14     	; 0x40fe <__ultoa_invert+0x86>
    410c:	00 97       	sbiw	r24, 0x00	; 0
    410e:	61 05       	cpc	r22, r1
    4110:	71 05       	cpc	r23, r1
    4112:	08 95       	ret
    4114:	9b 01       	movw	r18, r22
    4116:	ac 01       	movw	r20, r24
    4118:	0a 2e       	mov	r0, r26
    411a:	06 94       	lsr	r0
    411c:	57 95       	ror	r21
    411e:	47 95       	ror	r20
    4120:	37 95       	ror	r19
    4122:	27 95       	ror	r18
    4124:	ba 95       	dec	r27
    4126:	c9 f7       	brne	.-14     	; 0x411a <__ultoa_invert+0xa2>
    4128:	62 0f       	add	r22, r18
    412a:	73 1f       	adc	r23, r19
    412c:	84 1f       	adc	r24, r20
    412e:	95 1f       	adc	r25, r21
    4130:	a0 1d       	adc	r26, r0
    4132:	08 95       	ret

00004134 <__ctype_isfalse>:
    4134:	99 27       	eor	r25, r25
    4136:	88 27       	eor	r24, r24

00004138 <__ctype_istrue>:
    4138:	08 95       	ret

0000413a <_exit>:
    413a:	f8 94       	cli

0000413c <__stop_program>:
    413c:	ff cf       	rjmp	.-2      	; 0x413c <__stop_program>
