
SkyFire.elf:     file format elf32-avr

Sections:
Idx Name          Size      VMA       LMA       File off  Algn
  0 .text         000028a8  00000000  00000000  00000094  2**1
                  CONTENTS, ALLOC, LOAD, READONLY, CODE
  1 .data         0000018c  00802000  000028a8  0000293c  2**0
                  CONTENTS, ALLOC, LOAD, DATA
  2 .bss          000000d3  0080218c  0080218c  00002ac8  2**0
                  ALLOC
  3 .comment      0000005c  00000000  00000000  00002ac8  2**0
                  CONTENTS, READONLY
  4 .note.gnu.avr.deviceinfo 00000040  00000000  00000000  00002b24  2**2
                  CONTENTS, READONLY
  5 .debug_aranges 000003a0  00000000  00000000  00002b68  2**3
                  CONTENTS, READONLY, DEBUGGING
  6 .debug_info   00011794  00000000  00000000  00002f08  2**0
                  CONTENTS, READONLY, DEBUGGING
  7 .debug_abbrev 0000561c  00000000  00000000  0001469c  2**0
                  CONTENTS, READONLY, DEBUGGING
  8 .debug_line   00005e79  00000000  00000000  00019cb8  2**0
                  CONTENTS, READONLY, DEBUGGING
  9 .debug_frame  00000e04  00000000  00000000  0001fb34  2**2
                  CONTENTS, READONLY, DEBUGGING
 10 .debug_str    00033256  00000000  00000000  00020938  2**0
                  CONTENTS, READONLY, DEBUGGING
 11 .debug_loc    00003c61  00000000  00000000  00053b8e  2**0
                  CONTENTS, READONLY, DEBUGGING
 12 .debug_ranges 00000318  00000000  00000000  000577ef  2**0
                  CONTENTS, READONLY, DEBUGGING
 13 .debug_macro  00002455  00000000  00000000  00057b07  2**0
                  CONTENTS, READONLY, DEBUGGING

Disassembly of section .text:

00000000 <__vectors>:
       0:	3e c1       	rjmp	.+636    	; 0x27e <__ctors_end>
       2:	00 00       	nop
       4:	62 c1       	rjmp	.+708    	; 0x2ca <__bad_interrupt>
       6:	00 00       	nop
       8:	60 c1       	rjmp	.+704    	; 0x2ca <__bad_interrupt>
       a:	00 00       	nop
       c:	5e c1       	rjmp	.+700    	; 0x2ca <__bad_interrupt>
       e:	00 00       	nop
      10:	5c c1       	rjmp	.+696    	; 0x2ca <__bad_interrupt>
      12:	00 00       	nop
      14:	5a c1       	rjmp	.+692    	; 0x2ca <__bad_interrupt>
      16:	00 00       	nop
      18:	58 c1       	rjmp	.+688    	; 0x2ca <__bad_interrupt>
      1a:	00 00       	nop
      1c:	56 c1       	rjmp	.+684    	; 0x2ca <__bad_interrupt>
      1e:	00 00       	nop
      20:	54 c1       	rjmp	.+680    	; 0x2ca <__bad_interrupt>
      22:	00 00       	nop
      24:	52 c1       	rjmp	.+676    	; 0x2ca <__bad_interrupt>
      26:	00 00       	nop
      28:	50 c1       	rjmp	.+672    	; 0x2ca <__bad_interrupt>
      2a:	00 00       	nop
      2c:	4e c1       	rjmp	.+668    	; 0x2ca <__bad_interrupt>
      2e:	00 00       	nop
      30:	4c c1       	rjmp	.+664    	; 0x2ca <__bad_interrupt>
      32:	00 00       	nop
      34:	4a c1       	rjmp	.+660    	; 0x2ca <__bad_interrupt>
      36:	00 00       	nop
      38:	48 c1       	rjmp	.+656    	; 0x2ca <__bad_interrupt>
      3a:	00 00       	nop
      3c:	46 c1       	rjmp	.+652    	; 0x2ca <__bad_interrupt>
      3e:	00 00       	nop
      40:	44 c1       	rjmp	.+648    	; 0x2ca <__bad_interrupt>
      42:	00 00       	nop
      44:	42 c1       	rjmp	.+644    	; 0x2ca <__bad_interrupt>
      46:	00 00       	nop
      48:	40 c1       	rjmp	.+640    	; 0x2ca <__bad_interrupt>
      4a:	00 00       	nop
      4c:	3e c1       	rjmp	.+636    	; 0x2ca <__bad_interrupt>
      4e:	00 00       	nop
      50:	3c c1       	rjmp	.+632    	; 0x2ca <__bad_interrupt>
      52:	00 00       	nop
      54:	3a c1       	rjmp	.+628    	; 0x2ca <__bad_interrupt>
      56:	00 00       	nop
      58:	38 c1       	rjmp	.+624    	; 0x2ca <__bad_interrupt>
      5a:	00 00       	nop
      5c:	36 c1       	rjmp	.+620    	; 0x2ca <__bad_interrupt>
      5e:	00 00       	nop
      60:	34 c1       	rjmp	.+616    	; 0x2ca <__bad_interrupt>
      62:	00 00       	nop
      64:	0c 94 71 0b 	jmp	0x16e2	; 0x16e2 <__vector_25>
      68:	30 c1       	rjmp	.+608    	; 0x2ca <__bad_interrupt>
      6a:	00 00       	nop
      6c:	2e c1       	rjmp	.+604    	; 0x2ca <__bad_interrupt>
      6e:	00 00       	nop
      70:	2c c1       	rjmp	.+600    	; 0x2ca <__bad_interrupt>
      72:	00 00       	nop
      74:	2a c1       	rjmp	.+596    	; 0x2ca <__bad_interrupt>
      76:	00 00       	nop
      78:	28 c1       	rjmp	.+592    	; 0x2ca <__bad_interrupt>
      7a:	00 00       	nop
      7c:	26 c1       	rjmp	.+588    	; 0x2ca <__bad_interrupt>
      7e:	00 00       	nop
      80:	24 c1       	rjmp	.+584    	; 0x2ca <__bad_interrupt>
      82:	00 00       	nop
      84:	22 c1       	rjmp	.+580    	; 0x2ca <__bad_interrupt>
      86:	00 00       	nop
      88:	20 c1       	rjmp	.+576    	; 0x2ca <__bad_interrupt>
      8a:	00 00       	nop
      8c:	1e c1       	rjmp	.+572    	; 0x2ca <__bad_interrupt>
      8e:	00 00       	nop
      90:	1c c1       	rjmp	.+568    	; 0x2ca <__bad_interrupt>
      92:	00 00       	nop
      94:	1a c1       	rjmp	.+564    	; 0x2ca <__bad_interrupt>
      96:	00 00       	nop
      98:	18 c1       	rjmp	.+560    	; 0x2ca <__bad_interrupt>
      9a:	00 00       	nop
      9c:	36 c2       	rjmp	.+1132   	; 0x50a <__vector_39>
      9e:	00 00       	nop
      a0:	71 c2       	rjmp	.+1250   	; 0x584 <__vector_40>
      a2:	00 00       	nop
      a4:	ac c2       	rjmp	.+1368   	; 0x5fe <__vector_41>
      a6:	00 00       	nop
      a8:	e7 c2       	rjmp	.+1486   	; 0x678 <__vector_42>
      aa:	00 00       	nop
      ac:	0e c1       	rjmp	.+540    	; 0x2ca <__bad_interrupt>
      ae:	00 00       	nop
      b0:	0c c1       	rjmp	.+536    	; 0x2ca <__bad_interrupt>
      b2:	00 00       	nop
      b4:	0a c1       	rjmp	.+532    	; 0x2ca <__bad_interrupt>
      b6:	00 00       	nop
      b8:	08 c1       	rjmp	.+528    	; 0x2ca <__bad_interrupt>
      ba:	00 00       	nop
      bc:	0c 94 55 0b 	jmp	0x16aa	; 0x16aa <__vector_47>
      c0:	04 c1       	rjmp	.+520    	; 0x2ca <__bad_interrupt>
      c2:	00 00       	nop
      c4:	02 c1       	rjmp	.+516    	; 0x2ca <__bad_interrupt>
      c6:	00 00       	nop
      c8:	00 c1       	rjmp	.+512    	; 0x2ca <__bad_interrupt>
      ca:	00 00       	nop
      cc:	fe c0       	rjmp	.+508    	; 0x2ca <__bad_interrupt>
      ce:	00 00       	nop
      d0:	fc c0       	rjmp	.+504    	; 0x2ca <__bad_interrupt>
      d2:	00 00       	nop
      d4:	fa c0       	rjmp	.+500    	; 0x2ca <__bad_interrupt>
      d6:	00 00       	nop
      d8:	f8 c0       	rjmp	.+496    	; 0x2ca <__bad_interrupt>
      da:	00 00       	nop
      dc:	f6 c0       	rjmp	.+492    	; 0x2ca <__bad_interrupt>
      de:	00 00       	nop
      e0:	f4 c0       	rjmp	.+488    	; 0x2ca <__bad_interrupt>
      e2:	00 00       	nop
      e4:	f2 c0       	rjmp	.+484    	; 0x2ca <__bad_interrupt>
      e6:	00 00       	nop
      e8:	f0 c0       	rjmp	.+480    	; 0x2ca <__bad_interrupt>
      ea:	00 00       	nop
      ec:	ee c0       	rjmp	.+476    	; 0x2ca <__bad_interrupt>
      ee:	00 00       	nop
      f0:	ec c0       	rjmp	.+472    	; 0x2ca <__bad_interrupt>
      f2:	00 00       	nop
      f4:	ea c0       	rjmp	.+468    	; 0x2ca <__bad_interrupt>
      f6:	00 00       	nop
      f8:	e8 c0       	rjmp	.+464    	; 0x2ca <__bad_interrupt>
      fa:	00 00       	nop
      fc:	e6 c0       	rjmp	.+460    	; 0x2ca <__bad_interrupt>
      fe:	00 00       	nop
     100:	e4 c0       	rjmp	.+456    	; 0x2ca <__bad_interrupt>
     102:	00 00       	nop
     104:	e2 c0       	rjmp	.+452    	; 0x2ca <__bad_interrupt>
     106:	00 00       	nop
     108:	e0 c0       	rjmp	.+448    	; 0x2ca <__bad_interrupt>
     10a:	00 00       	nop
     10c:	de c0       	rjmp	.+444    	; 0x2ca <__bad_interrupt>
     10e:	00 00       	nop
     110:	dc c0       	rjmp	.+440    	; 0x2ca <__bad_interrupt>
     112:	00 00       	nop
     114:	da c0       	rjmp	.+436    	; 0x2ca <__bad_interrupt>
     116:	00 00       	nop
     118:	d8 c0       	rjmp	.+432    	; 0x2ca <__bad_interrupt>
     11a:	00 00       	nop
     11c:	02 c1       	rjmp	.+516    	; 0x322 <__vector_71>
     11e:	00 00       	nop
     120:	3d c1       	rjmp	.+634    	; 0x39c <__vector_72>
     122:	00 00       	nop
     124:	78 c1       	rjmp	.+752    	; 0x416 <__vector_73>
     126:	00 00       	nop
     128:	b3 c1       	rjmp	.+870    	; 0x490 <__vector_74>
     12a:	00 00       	nop
     12c:	ce c0       	rjmp	.+412    	; 0x2ca <__bad_interrupt>
     12e:	00 00       	nop
     130:	cc c0       	rjmp	.+408    	; 0x2ca <__bad_interrupt>
     132:	00 00       	nop
     134:	ca c0       	rjmp	.+404    	; 0x2ca <__bad_interrupt>
     136:	00 00       	nop
     138:	c8 c0       	rjmp	.+400    	; 0x2ca <__bad_interrupt>
     13a:	00 00       	nop
     13c:	c6 c0       	rjmp	.+396    	; 0x2ca <__bad_interrupt>
     13e:	00 00       	nop
     140:	c4 c0       	rjmp	.+392    	; 0x2ca <__bad_interrupt>
     142:	00 00       	nop
     144:	c2 c0       	rjmp	.+388    	; 0x2ca <__bad_interrupt>
     146:	00 00       	nop
     148:	c0 c0       	rjmp	.+384    	; 0x2ca <__bad_interrupt>
     14a:	00 00       	nop
     14c:	be c0       	rjmp	.+380    	; 0x2ca <__bad_interrupt>
     14e:	00 00       	nop
     150:	bc c0       	rjmp	.+376    	; 0x2ca <__bad_interrupt>
     152:	00 00       	nop
     154:	ba c0       	rjmp	.+372    	; 0x2ca <__bad_interrupt>
     156:	00 00       	nop
     158:	b8 c0       	rjmp	.+368    	; 0x2ca <__bad_interrupt>
     15a:	00 00       	nop
     15c:	b6 c0       	rjmp	.+364    	; 0x2ca <__bad_interrupt>
     15e:	00 00       	nop
     160:	b4 c0       	rjmp	.+360    	; 0x2ca <__bad_interrupt>
     162:	00 00       	nop
     164:	b2 c0       	rjmp	.+356    	; 0x2ca <__bad_interrupt>
     166:	00 00       	nop
     168:	b0 c0       	rjmp	.+352    	; 0x2ca <__bad_interrupt>
     16a:	00 00       	nop
     16c:	ae c0       	rjmp	.+348    	; 0x2ca <__bad_interrupt>
     16e:	00 00       	nop
     170:	ac c0       	rjmp	.+344    	; 0x2ca <__bad_interrupt>
     172:	00 00       	nop
     174:	aa c0       	rjmp	.+340    	; 0x2ca <__bad_interrupt>
     176:	00 00       	nop
     178:	a8 c0       	rjmp	.+336    	; 0x2ca <__bad_interrupt>
     17a:	00 00       	nop
     17c:	a6 c0       	rjmp	.+332    	; 0x2ca <__bad_interrupt>
     17e:	00 00       	nop
     180:	a4 c0       	rjmp	.+328    	; 0x2ca <__bad_interrupt>
     182:	00 00       	nop
     184:	a2 c0       	rjmp	.+324    	; 0x2ca <__bad_interrupt>
     186:	00 00       	nop
     188:	a0 c0       	rjmp	.+320    	; 0x2ca <__bad_interrupt>
     18a:	00 00       	nop
     18c:	9e c0       	rjmp	.+316    	; 0x2ca <__bad_interrupt>
     18e:	00 00       	nop
     190:	9c c0       	rjmp	.+312    	; 0x2ca <__bad_interrupt>
     192:	00 00       	nop
     194:	9a c0       	rjmp	.+308    	; 0x2ca <__bad_interrupt>
     196:	00 00       	nop
     198:	98 c0       	rjmp	.+304    	; 0x2ca <__bad_interrupt>
     19a:	00 00       	nop
     19c:	96 c0       	rjmp	.+300    	; 0x2ca <__bad_interrupt>
     19e:	00 00       	nop
     1a0:	94 c0       	rjmp	.+296    	; 0x2ca <__bad_interrupt>
     1a2:	00 00       	nop
     1a4:	92 c0       	rjmp	.+292    	; 0x2ca <__bad_interrupt>
     1a6:	00 00       	nop
     1a8:	90 c0       	rjmp	.+288    	; 0x2ca <__bad_interrupt>
     1aa:	00 00       	nop
     1ac:	8e c0       	rjmp	.+284    	; 0x2ca <__bad_interrupt>
     1ae:	00 00       	nop
     1b0:	8c c0       	rjmp	.+280    	; 0x2ca <__bad_interrupt>
     1b2:	00 00       	nop
     1b4:	8a c0       	rjmp	.+276    	; 0x2ca <__bad_interrupt>
     1b6:	00 00       	nop
     1b8:	88 c0       	rjmp	.+272    	; 0x2ca <__bad_interrupt>
     1ba:	00 00       	nop
     1bc:	86 c0       	rjmp	.+268    	; 0x2ca <__bad_interrupt>
     1be:	00 00       	nop
     1c0:	84 c0       	rjmp	.+264    	; 0x2ca <__bad_interrupt>
     1c2:	00 00       	nop
     1c4:	82 c0       	rjmp	.+260    	; 0x2ca <__bad_interrupt>
     1c6:	00 00       	nop
     1c8:	80 c0       	rjmp	.+256    	; 0x2ca <__bad_interrupt>
     1ca:	00 00       	nop
     1cc:	7e c0       	rjmp	.+252    	; 0x2ca <__bad_interrupt>
     1ce:	00 00       	nop
     1d0:	7c c0       	rjmp	.+248    	; 0x2ca <__bad_interrupt>
     1d2:	00 00       	nop
     1d4:	7a c0       	rjmp	.+244    	; 0x2ca <__bad_interrupt>
     1d6:	00 00       	nop
     1d8:	78 c0       	rjmp	.+240    	; 0x2ca <__bad_interrupt>
     1da:	00 00       	nop
     1dc:	76 c0       	rjmp	.+236    	; 0x2ca <__bad_interrupt>
     1de:	00 00       	nop
     1e0:	74 c0       	rjmp	.+232    	; 0x2ca <__bad_interrupt>
     1e2:	00 00       	nop
     1e4:	72 c0       	rjmp	.+228    	; 0x2ca <__bad_interrupt>
     1e6:	00 00       	nop
     1e8:	70 c0       	rjmp	.+224    	; 0x2ca <__bad_interrupt>
     1ea:	00 00       	nop
     1ec:	6e c0       	rjmp	.+220    	; 0x2ca <__bad_interrupt>
     1ee:	00 00       	nop
     1f0:	6c c0       	rjmp	.+216    	; 0x2ca <__bad_interrupt>
     1f2:	00 00       	nop
     1f4:	6a c0       	rjmp	.+212    	; 0x2ca <__bad_interrupt>
     1f6:	00 00       	nop
     1f8:	68 c0       	rjmp	.+208    	; 0x2ca <__bad_interrupt>
     1fa:	00 00       	nop
     1fc:	07 63       	ori	r16, 0x37	; 55
     1fe:	42 36       	cpi	r20, 0x62	; 98
     200:	b7 9b       	sbis	0x16, 7	; 22
     202:	d8 a7       	std	Y+40, r29	; 0x28
     204:	1a 39       	cpi	r17, 0x9A	; 154
     206:	68 56       	subi	r22, 0x68	; 104
     208:	18 ae       	std	Y+56, r1	; 0x38
     20a:	ba ab       	std	Y+50, r27	; 0x32
     20c:	55 8c       	ldd	r5, Z+29	; 0x1d
     20e:	1d 3c       	cpi	r17, 0xCD	; 205
     210:	b7 cc       	rjmp	.-1682   	; 0xfffffb80 <__eeprom_end+0xff7efb80>
     212:	57 63       	ori	r21, 0x37	; 55
     214:	bd 6d       	ori	r27, 0xDD	; 221
     216:	ed fd       	.word	0xfded	; ????
     218:	75 3e       	cpi	r23, 0xE5	; 229
     21a:	f6 17       	cp	r31, r22
     21c:	72 31       	cpi	r23, 0x12	; 18
     21e:	bf 00       	.word	0x00bf	; ????
     220:	00 00       	nop
     222:	80 3f       	cpi	r24, 0xF0	; 240
     224:	08 00       	.word	0x0008	; ????
     226:	00 00       	nop
     228:	be 92       	st	-X, r11
     22a:	24 49       	sbci	r18, 0x94	; 148
     22c:	12 3e       	cpi	r17, 0xE2	; 226
     22e:	ab aa       	std	Y+51, r10	; 0x33
     230:	aa 2a       	or	r10, r26
     232:	be cd       	rjmp	.-1156   	; 0xfffffdb0 <__eeprom_end+0xff7efdb0>
     234:	cc cc       	rjmp	.-1640   	; 0xfffffbce <__eeprom_end+0xff7efbce>
     236:	4c 3e       	cpi	r20, 0xEC	; 236
     238:	00 00       	nop
     23a:	00 80       	ld	r0, Z
     23c:	be ab       	std	Y+54, r27	; 0x36
     23e:	aa aa       	std	Y+50, r10	; 0x32
     240:	aa 3e       	cpi	r26, 0xEA	; 234
     242:	00 00       	nop
     244:	00 00       	nop
     246:	bf 00       	.word	0x00bf	; ????
     248:	00 00       	nop
     24a:	80 3f       	cpi	r24, 0xF0	; 240
     24c:	00 00       	nop
     24e:	00 00       	nop
     250:	00 08       	sbc	r0, r0
     252:	41 78       	andi	r20, 0x81	; 129
     254:	d3 bb       	out	0x13, r29	; 19
     256:	43 87       	std	Z+11, r20	; 0x0b
     258:	d1 13       	cpse	r29, r17
     25a:	3d 19       	sub	r19, r13
     25c:	0e 3c       	cpi	r16, 0xCE	; 206
     25e:	c3 bd       	out	0x23, r28	; 35
     260:	42 82       	std	Z+2, r4	; 0x02
     262:	ad 2b       	or	r26, r29
     264:	3e 68       	ori	r19, 0x8E	; 142
     266:	ec 82       	std	Y+4, r14	; 0x04
     268:	76 be       	out	0x36, r7	; 54
     26a:	d9 8f       	std	Y+25, r29	; 0x19
     26c:	e1 a9       	ldd	r30, Z+49	; 0x31
     26e:	3e 4c       	sbci	r19, 0xCE	; 206
     270:	80 ef       	ldi	r24, 0xF0	; 240
     272:	ff be       	out	0x3f, r15	; 63
     274:	01 c4       	rjmp	.+2050   	; 0xa78 <usart_init_rs232+0x144>
     276:	ff 7f       	andi	r31, 0xFF	; 255
     278:	3f 00       	.word	0x003f	; ????
     27a:	00 00       	nop
	...

0000027e <__ctors_end>:
     27e:	11 24       	eor	r1, r1
     280:	1f be       	out	0x3f, r1	; 63
     282:	cf ef       	ldi	r28, 0xFF	; 255
     284:	cd bf       	out	0x3d, r28	; 61
     286:	df e3       	ldi	r29, 0x3F	; 63
     288:	de bf       	out	0x3e, r29	; 62
     28a:	00 e0       	ldi	r16, 0x00	; 0
     28c:	0c bf       	out	0x3c, r16	; 60
     28e:	18 be       	out	0x38, r1	; 56
     290:	19 be       	out	0x39, r1	; 57
     292:	1a be       	out	0x3a, r1	; 58
     294:	1b be       	out	0x3b, r1	; 59

00000296 <__do_copy_data>:
     296:	11 e2       	ldi	r17, 0x21	; 33
     298:	a0 e0       	ldi	r26, 0x00	; 0
     29a:	b0 e2       	ldi	r27, 0x20	; 32
     29c:	e8 ea       	ldi	r30, 0xA8	; 168
     29e:	f8 e2       	ldi	r31, 0x28	; 40
     2a0:	00 e0       	ldi	r16, 0x00	; 0
     2a2:	0b bf       	out	0x3b, r16	; 59
     2a4:	02 c0       	rjmp	.+4      	; 0x2aa <__do_copy_data+0x14>
     2a6:	07 90       	elpm	r0, Z+
     2a8:	0d 92       	st	X+, r0
     2aa:	ac 38       	cpi	r26, 0x8C	; 140
     2ac:	b1 07       	cpc	r27, r17
     2ae:	d9 f7       	brne	.-10     	; 0x2a6 <__do_copy_data+0x10>
     2b0:	1b be       	out	0x3b, r1	; 59

000002b2 <__do_clear_bss>:
     2b2:	22 e2       	ldi	r18, 0x22	; 34
     2b4:	ac e8       	ldi	r26, 0x8C	; 140
     2b6:	b1 e2       	ldi	r27, 0x21	; 33
     2b8:	01 c0       	rjmp	.+2      	; 0x2bc <.do_clear_bss_start>

000002ba <.do_clear_bss_loop>:
     2ba:	1d 92       	st	X+, r1

000002bc <.do_clear_bss_start>:
     2bc:	af 35       	cpi	r26, 0x5F	; 95
     2be:	b2 07       	cpc	r27, r18
     2c0:	e1 f7       	brne	.-8      	; 0x2ba <.do_clear_bss_loop>
     2c2:	0e 94 a8 0a 	call	0x1550	; 0x1550 <main>
     2c6:	0c 94 52 14 	jmp	0x28a4	; 0x28a4 <_exit>

000002ca <__bad_interrupt>:
     2ca:	9a ce       	rjmp	.-716    	; 0x0 <__vectors>

000002cc <_read>:
#elif (defined(__GNUC__) && (XMEGA || MEGA) )

int _read (int *f); // Remove GCC compiler warning

int _read (int *f)
{
     2cc:	cf 93       	push	r28
     2ce:	df 93       	push	r29
     2d0:	1f 92       	push	r1
     2d2:	cd b7       	in	r28, 0x3d	; 61
     2d4:	de b7       	in	r29, 0x3e	; 62
	char c;
	ptr_get(stdio_base,&c);
     2d6:	80 91 a5 21 	lds	r24, 0x21A5	; 0x8021a5 <stdio_base>
     2da:	90 91 a6 21 	lds	r25, 0x21A6	; 0x8021a6 <stdio_base+0x1>
     2de:	e0 91 a1 21 	lds	r30, 0x21A1	; 0x8021a1 <ptr_get>
     2e2:	f0 91 a2 21 	lds	r31, 0x21A2	; 0x8021a2 <ptr_get+0x1>
     2e6:	be 01       	movw	r22, r28
     2e8:	6f 5f       	subi	r22, 0xFF	; 255
     2ea:	7f 4f       	sbci	r23, 0xFF	; 255
     2ec:	19 95       	eicall
	return c;
     2ee:	89 81       	ldd	r24, Y+1	; 0x01
}
     2f0:	08 2e       	mov	r0, r24
     2f2:	00 0c       	add	r0, r0
     2f4:	99 0b       	sbc	r25, r25
     2f6:	0f 90       	pop	r0
     2f8:	df 91       	pop	r29
     2fa:	cf 91       	pop	r28
     2fc:	08 95       	ret

000002fe <_write>:
#elif (defined(__GNUC__) && (XMEGA || MEGA))

int _write (char c, int *f);

int _write (char c, int *f)
{
     2fe:	68 2f       	mov	r22, r24
	if (ptr_put(stdio_base, c) < 0) {
     300:	80 91 a5 21 	lds	r24, 0x21A5	; 0x8021a5 <stdio_base>
     304:	90 91 a6 21 	lds	r25, 0x21A6	; 0x8021a6 <stdio_base+0x1>
     308:	e0 91 a3 21 	lds	r30, 0x21A3	; 0x8021a3 <ptr_put>
     30c:	f0 91 a4 21 	lds	r31, 0x21A4	; 0x8021a4 <ptr_put+0x1>
     310:	19 95       	eicall
     312:	99 23       	and	r25, r25
     314:	1c f0       	brlt	.+6      	; 0x31c <_write+0x1e>
		return -1;
	}
	return 1;
     316:	81 e0       	ldi	r24, 0x01	; 1
     318:	90 e0       	ldi	r25, 0x00	; 0
     31a:	08 95       	ret
int _write (char c, int *f);

int _write (char c, int *f)
{
	if (ptr_put(stdio_base, c) < 0) {
		return -1;
     31c:	8f ef       	ldi	r24, 0xFF	; 255
     31e:	9f ef       	ldi	r25, 0xFF	; 255
	}
	return 1;
}
     320:	08 95       	ret

00000322 <__vector_71>:
 *
 * Calls the callback function that has been set for the ADC when the channel's
 * interrupt flag is set, if its interrupt has been enabled.
 */
ISR(ADCA_CH0_vect)
{
     322:	1f 92       	push	r1
     324:	0f 92       	push	r0
     326:	0f b6       	in	r0, 0x3f	; 63
     328:	0f 92       	push	r0
     32a:	11 24       	eor	r1, r1
     32c:	08 b6       	in	r0, 0x38	; 56
     32e:	0f 92       	push	r0
     330:	18 be       	out	0x38, r1	; 56
     332:	09 b6       	in	r0, 0x39	; 57
     334:	0f 92       	push	r0
     336:	19 be       	out	0x39, r1	; 57
     338:	0b b6       	in	r0, 0x3b	; 59
     33a:	0f 92       	push	r0
     33c:	1b be       	out	0x3b, r1	; 59
     33e:	2f 93       	push	r18
     340:	3f 93       	push	r19
     342:	4f 93       	push	r20
     344:	5f 93       	push	r21
     346:	6f 93       	push	r22
     348:	7f 93       	push	r23
     34a:	8f 93       	push	r24
     34c:	9f 93       	push	r25
     34e:	af 93       	push	r26
     350:	bf 93       	push	r27
     352:	ef 93       	push	r30
     354:	ff 93       	push	r31
	adca_callback(&ADCA, ADC_CH0, adc_get_result(&ADCA, ADC_CH0));
     356:	40 91 24 02 	lds	r20, 0x0224	; 0x800224 <__TEXT_REGION_LENGTH__+0x700224>
     35a:	50 91 25 02 	lds	r21, 0x0225	; 0x800225 <__TEXT_REGION_LENGTH__+0x700225>
     35e:	e0 91 a9 21 	lds	r30, 0x21A9	; 0x8021a9 <adca_callback>
     362:	f0 91 aa 21 	lds	r31, 0x21AA	; 0x8021aa <adca_callback+0x1>
     366:	61 e0       	ldi	r22, 0x01	; 1
     368:	80 e0       	ldi	r24, 0x00	; 0
     36a:	92 e0       	ldi	r25, 0x02	; 2
     36c:	19 95       	eicall
}
     36e:	ff 91       	pop	r31
     370:	ef 91       	pop	r30
     372:	bf 91       	pop	r27
     374:	af 91       	pop	r26
     376:	9f 91       	pop	r25
     378:	8f 91       	pop	r24
     37a:	7f 91       	pop	r23
     37c:	6f 91       	pop	r22
     37e:	5f 91       	pop	r21
     380:	4f 91       	pop	r20
     382:	3f 91       	pop	r19
     384:	2f 91       	pop	r18
     386:	0f 90       	pop	r0
     388:	0b be       	out	0x3b, r0	; 59
     38a:	0f 90       	pop	r0
     38c:	09 be       	out	0x39, r0	; 57
     38e:	0f 90       	pop	r0
     390:	08 be       	out	0x38, r0	; 56
     392:	0f 90       	pop	r0
     394:	0f be       	out	0x3f, r0	; 63
     396:	0f 90       	pop	r0
     398:	1f 90       	pop	r1
     39a:	18 95       	reti

0000039c <__vector_72>:
 *
 * Calls the callback function that has been set for the ADC when the channel's
 * interrupt flag is set, if its interrupt has been enabled.
 */
ISR(ADCA_CH1_vect)
{
     39c:	1f 92       	push	r1
     39e:	0f 92       	push	r0
     3a0:	0f b6       	in	r0, 0x3f	; 63
     3a2:	0f 92       	push	r0
     3a4:	11 24       	eor	r1, r1
     3a6:	08 b6       	in	r0, 0x38	; 56
     3a8:	0f 92       	push	r0
     3aa:	18 be       	out	0x38, r1	; 56
     3ac:	09 b6       	in	r0, 0x39	; 57
     3ae:	0f 92       	push	r0
     3b0:	19 be       	out	0x39, r1	; 57
     3b2:	0b b6       	in	r0, 0x3b	; 59
     3b4:	0f 92       	push	r0
     3b6:	1b be       	out	0x3b, r1	; 59
     3b8:	2f 93       	push	r18
     3ba:	3f 93       	push	r19
     3bc:	4f 93       	push	r20
     3be:	5f 93       	push	r21
     3c0:	6f 93       	push	r22
     3c2:	7f 93       	push	r23
     3c4:	8f 93       	push	r24
     3c6:	9f 93       	push	r25
     3c8:	af 93       	push	r26
     3ca:	bf 93       	push	r27
     3cc:	ef 93       	push	r30
     3ce:	ff 93       	push	r31
	adca_callback(&ADCA, ADC_CH1, adc_get_result(&ADCA, ADC_CH1));
     3d0:	40 91 2c 02 	lds	r20, 0x022C	; 0x80022c <__TEXT_REGION_LENGTH__+0x70022c>
     3d4:	50 91 2d 02 	lds	r21, 0x022D	; 0x80022d <__TEXT_REGION_LENGTH__+0x70022d>
     3d8:	e0 91 a9 21 	lds	r30, 0x21A9	; 0x8021a9 <adca_callback>
     3dc:	f0 91 aa 21 	lds	r31, 0x21AA	; 0x8021aa <adca_callback+0x1>
     3e0:	62 e0       	ldi	r22, 0x02	; 2
     3e2:	80 e0       	ldi	r24, 0x00	; 0
     3e4:	92 e0       	ldi	r25, 0x02	; 2
     3e6:	19 95       	eicall
}
     3e8:	ff 91       	pop	r31
     3ea:	ef 91       	pop	r30
     3ec:	bf 91       	pop	r27
     3ee:	af 91       	pop	r26
     3f0:	9f 91       	pop	r25
     3f2:	8f 91       	pop	r24
     3f4:	7f 91       	pop	r23
     3f6:	6f 91       	pop	r22
     3f8:	5f 91       	pop	r21
     3fa:	4f 91       	pop	r20
     3fc:	3f 91       	pop	r19
     3fe:	2f 91       	pop	r18
     400:	0f 90       	pop	r0
     402:	0b be       	out	0x3b, r0	; 59
     404:	0f 90       	pop	r0
     406:	09 be       	out	0x39, r0	; 57
     408:	0f 90       	pop	r0
     40a:	08 be       	out	0x38, r0	; 56
     40c:	0f 90       	pop	r0
     40e:	0f be       	out	0x3f, r0	; 63
     410:	0f 90       	pop	r0
     412:	1f 90       	pop	r1
     414:	18 95       	reti

00000416 <__vector_73>:
 *
 * Calls the callback function that has been set for the ADC when the channel's
 * interrupt flag is set, if its interrupt has been enabled.
 */
ISR(ADCA_CH2_vect)
{
     416:	1f 92       	push	r1
     418:	0f 92       	push	r0
     41a:	0f b6       	in	r0, 0x3f	; 63
     41c:	0f 92       	push	r0
     41e:	11 24       	eor	r1, r1
     420:	08 b6       	in	r0, 0x38	; 56
     422:	0f 92       	push	r0
     424:	18 be       	out	0x38, r1	; 56
     426:	09 b6       	in	r0, 0x39	; 57
     428:	0f 92       	push	r0
     42a:	19 be       	out	0x39, r1	; 57
     42c:	0b b6       	in	r0, 0x3b	; 59
     42e:	0f 92       	push	r0
     430:	1b be       	out	0x3b, r1	; 59
     432:	2f 93       	push	r18
     434:	3f 93       	push	r19
     436:	4f 93       	push	r20
     438:	5f 93       	push	r21
     43a:	6f 93       	push	r22
     43c:	7f 93       	push	r23
     43e:	8f 93       	push	r24
     440:	9f 93       	push	r25
     442:	af 93       	push	r26
     444:	bf 93       	push	r27
     446:	ef 93       	push	r30
     448:	ff 93       	push	r31
	adca_callback(&ADCA, ADC_CH2, adc_get_result(&ADCA, ADC_CH2));
     44a:	40 91 34 02 	lds	r20, 0x0234	; 0x800234 <__TEXT_REGION_LENGTH__+0x700234>
     44e:	50 91 35 02 	lds	r21, 0x0235	; 0x800235 <__TEXT_REGION_LENGTH__+0x700235>
     452:	e0 91 a9 21 	lds	r30, 0x21A9	; 0x8021a9 <adca_callback>
     456:	f0 91 aa 21 	lds	r31, 0x21AA	; 0x8021aa <adca_callback+0x1>
     45a:	64 e0       	ldi	r22, 0x04	; 4
     45c:	80 e0       	ldi	r24, 0x00	; 0
     45e:	92 e0       	ldi	r25, 0x02	; 2
     460:	19 95       	eicall
}
     462:	ff 91       	pop	r31
     464:	ef 91       	pop	r30
     466:	bf 91       	pop	r27
     468:	af 91       	pop	r26
     46a:	9f 91       	pop	r25
     46c:	8f 91       	pop	r24
     46e:	7f 91       	pop	r23
     470:	6f 91       	pop	r22
     472:	5f 91       	pop	r21
     474:	4f 91       	pop	r20
     476:	3f 91       	pop	r19
     478:	2f 91       	pop	r18
     47a:	0f 90       	pop	r0
     47c:	0b be       	out	0x3b, r0	; 59
     47e:	0f 90       	pop	r0
     480:	09 be       	out	0x39, r0	; 57
     482:	0f 90       	pop	r0
     484:	08 be       	out	0x38, r0	; 56
     486:	0f 90       	pop	r0
     488:	0f be       	out	0x3f, r0	; 63
     48a:	0f 90       	pop	r0
     48c:	1f 90       	pop	r1
     48e:	18 95       	reti

00000490 <__vector_74>:
 *
 * Calls the callback function that has been set for the ADC when the channel's
 * interrupt flag is set, if its interrupt has been enabled.
 */
ISR(ADCA_CH3_vect)
{
     490:	1f 92       	push	r1
     492:	0f 92       	push	r0
     494:	0f b6       	in	r0, 0x3f	; 63
     496:	0f 92       	push	r0
     498:	11 24       	eor	r1, r1
     49a:	08 b6       	in	r0, 0x38	; 56
     49c:	0f 92       	push	r0
     49e:	18 be       	out	0x38, r1	; 56
     4a0:	09 b6       	in	r0, 0x39	; 57
     4a2:	0f 92       	push	r0
     4a4:	19 be       	out	0x39, r1	; 57
     4a6:	0b b6       	in	r0, 0x3b	; 59
     4a8:	0f 92       	push	r0
     4aa:	1b be       	out	0x3b, r1	; 59
     4ac:	2f 93       	push	r18
     4ae:	3f 93       	push	r19
     4b0:	4f 93       	push	r20
     4b2:	5f 93       	push	r21
     4b4:	6f 93       	push	r22
     4b6:	7f 93       	push	r23
     4b8:	8f 93       	push	r24
     4ba:	9f 93       	push	r25
     4bc:	af 93       	push	r26
     4be:	bf 93       	push	r27
     4c0:	ef 93       	push	r30
     4c2:	ff 93       	push	r31
	adca_callback(&ADCA, ADC_CH3, adc_get_result(&ADCA, ADC_CH3));
     4c4:	40 91 3c 02 	lds	r20, 0x023C	; 0x80023c <__TEXT_REGION_LENGTH__+0x70023c>
     4c8:	50 91 3d 02 	lds	r21, 0x023D	; 0x80023d <__TEXT_REGION_LENGTH__+0x70023d>
     4cc:	e0 91 a9 21 	lds	r30, 0x21A9	; 0x8021a9 <adca_callback>
     4d0:	f0 91 aa 21 	lds	r31, 0x21AA	; 0x8021aa <adca_callback+0x1>
     4d4:	68 e0       	ldi	r22, 0x08	; 8
     4d6:	80 e0       	ldi	r24, 0x00	; 0
     4d8:	92 e0       	ldi	r25, 0x02	; 2
     4da:	19 95       	eicall
}
     4dc:	ff 91       	pop	r31
     4de:	ef 91       	pop	r30
     4e0:	bf 91       	pop	r27
     4e2:	af 91       	pop	r26
     4e4:	9f 91       	pop	r25
     4e6:	8f 91       	pop	r24
     4e8:	7f 91       	pop	r23
     4ea:	6f 91       	pop	r22
     4ec:	5f 91       	pop	r21
     4ee:	4f 91       	pop	r20
     4f0:	3f 91       	pop	r19
     4f2:	2f 91       	pop	r18
     4f4:	0f 90       	pop	r0
     4f6:	0b be       	out	0x3b, r0	; 59
     4f8:	0f 90       	pop	r0
     4fa:	09 be       	out	0x39, r0	; 57
     4fc:	0f 90       	pop	r0
     4fe:	08 be       	out	0x38, r0	; 56
     500:	0f 90       	pop	r0
     502:	0f be       	out	0x3f, r0	; 63
     504:	0f 90       	pop	r0
     506:	1f 90       	pop	r1
     508:	18 95       	reti

0000050a <__vector_39>:
 *
 * Calls the callback function that has been set for the ADC when the channel's
 * interrupt flag is set, if its interrupt has been enabled.
 */
ISR(ADCB_CH0_vect)
{
     50a:	1f 92       	push	r1
     50c:	0f 92       	push	r0
     50e:	0f b6       	in	r0, 0x3f	; 63
     510:	0f 92       	push	r0
     512:	11 24       	eor	r1, r1
     514:	08 b6       	in	r0, 0x38	; 56
     516:	0f 92       	push	r0
     518:	18 be       	out	0x38, r1	; 56
     51a:	09 b6       	in	r0, 0x39	; 57
     51c:	0f 92       	push	r0
     51e:	19 be       	out	0x39, r1	; 57
     520:	0b b6       	in	r0, 0x3b	; 59
     522:	0f 92       	push	r0
     524:	1b be       	out	0x3b, r1	; 59
     526:	2f 93       	push	r18
     528:	3f 93       	push	r19
     52a:	4f 93       	push	r20
     52c:	5f 93       	push	r21
     52e:	6f 93       	push	r22
     530:	7f 93       	push	r23
     532:	8f 93       	push	r24
     534:	9f 93       	push	r25
     536:	af 93       	push	r26
     538:	bf 93       	push	r27
     53a:	ef 93       	push	r30
     53c:	ff 93       	push	r31
	adcb_callback(&ADCB, ADC_CH0, adc_get_result(&ADCB, ADC_CH0));
     53e:	40 91 64 02 	lds	r20, 0x0264	; 0x800264 <__TEXT_REGION_LENGTH__+0x700264>
     542:	50 91 65 02 	lds	r21, 0x0265	; 0x800265 <__TEXT_REGION_LENGTH__+0x700265>
     546:	e0 91 a7 21 	lds	r30, 0x21A7	; 0x8021a7 <adcb_callback>
     54a:	f0 91 a8 21 	lds	r31, 0x21A8	; 0x8021a8 <adcb_callback+0x1>
     54e:	61 e0       	ldi	r22, 0x01	; 1
     550:	80 e4       	ldi	r24, 0x40	; 64
     552:	92 e0       	ldi	r25, 0x02	; 2
     554:	19 95       	eicall
}
     556:	ff 91       	pop	r31
     558:	ef 91       	pop	r30
     55a:	bf 91       	pop	r27
     55c:	af 91       	pop	r26
     55e:	9f 91       	pop	r25
     560:	8f 91       	pop	r24
     562:	7f 91       	pop	r23
     564:	6f 91       	pop	r22
     566:	5f 91       	pop	r21
     568:	4f 91       	pop	r20
     56a:	3f 91       	pop	r19
     56c:	2f 91       	pop	r18
     56e:	0f 90       	pop	r0
     570:	0b be       	out	0x3b, r0	; 59
     572:	0f 90       	pop	r0
     574:	09 be       	out	0x39, r0	; 57
     576:	0f 90       	pop	r0
     578:	08 be       	out	0x38, r0	; 56
     57a:	0f 90       	pop	r0
     57c:	0f be       	out	0x3f, r0	; 63
     57e:	0f 90       	pop	r0
     580:	1f 90       	pop	r1
     582:	18 95       	reti

00000584 <__vector_40>:
 *
 * Calls the callback function that has been set for the ADC when the channel's
 * interrupt flag is set, if its interrupt has been enabled.
 */
ISR(ADCB_CH1_vect)
{
     584:	1f 92       	push	r1
     586:	0f 92       	push	r0
     588:	0f b6       	in	r0, 0x3f	; 63
     58a:	0f 92       	push	r0
     58c:	11 24       	eor	r1, r1
     58e:	08 b6       	in	r0, 0x38	; 56
     590:	0f 92       	push	r0
     592:	18 be       	out	0x38, r1	; 56
     594:	09 b6       	in	r0, 0x39	; 57
     596:	0f 92       	push	r0
     598:	19 be       	out	0x39, r1	; 57
     59a:	0b b6       	in	r0, 0x3b	; 59
     59c:	0f 92       	push	r0
     59e:	1b be       	out	0x3b, r1	; 59
     5a0:	2f 93       	push	r18
     5a2:	3f 93       	push	r19
     5a4:	4f 93       	push	r20
     5a6:	5f 93       	push	r21
     5a8:	6f 93       	push	r22
     5aa:	7f 93       	push	r23
     5ac:	8f 93       	push	r24
     5ae:	9f 93       	push	r25
     5b0:	af 93       	push	r26
     5b2:	bf 93       	push	r27
     5b4:	ef 93       	push	r30
     5b6:	ff 93       	push	r31
	adcb_callback(&ADCB, ADC_CH1, adc_get_result(&ADCB, ADC_CH1));
     5b8:	40 91 6c 02 	lds	r20, 0x026C	; 0x80026c <__TEXT_REGION_LENGTH__+0x70026c>
     5bc:	50 91 6d 02 	lds	r21, 0x026D	; 0x80026d <__TEXT_REGION_LENGTH__+0x70026d>
     5c0:	e0 91 a7 21 	lds	r30, 0x21A7	; 0x8021a7 <adcb_callback>
     5c4:	f0 91 a8 21 	lds	r31, 0x21A8	; 0x8021a8 <adcb_callback+0x1>
     5c8:	62 e0       	ldi	r22, 0x02	; 2
     5ca:	80 e4       	ldi	r24, 0x40	; 64
     5cc:	92 e0       	ldi	r25, 0x02	; 2
     5ce:	19 95       	eicall
}
     5d0:	ff 91       	pop	r31
     5d2:	ef 91       	pop	r30
     5d4:	bf 91       	pop	r27
     5d6:	af 91       	pop	r26
     5d8:	9f 91       	pop	r25
     5da:	8f 91       	pop	r24
     5dc:	7f 91       	pop	r23
     5de:	6f 91       	pop	r22
     5e0:	5f 91       	pop	r21
     5e2:	4f 91       	pop	r20
     5e4:	3f 91       	pop	r19
     5e6:	2f 91       	pop	r18
     5e8:	0f 90       	pop	r0
     5ea:	0b be       	out	0x3b, r0	; 59
     5ec:	0f 90       	pop	r0
     5ee:	09 be       	out	0x39, r0	; 57
     5f0:	0f 90       	pop	r0
     5f2:	08 be       	out	0x38, r0	; 56
     5f4:	0f 90       	pop	r0
     5f6:	0f be       	out	0x3f, r0	; 63
     5f8:	0f 90       	pop	r0
     5fa:	1f 90       	pop	r1
     5fc:	18 95       	reti

000005fe <__vector_41>:
 *
 * Calls the callback function that has been set for the ADC when the channel's
 * interrupt flag is set, if its interrupt has been enabled.
 */
ISR(ADCB_CH2_vect)
{
     5fe:	1f 92       	push	r1
     600:	0f 92       	push	r0
     602:	0f b6       	in	r0, 0x3f	; 63
     604:	0f 92       	push	r0
     606:	11 24       	eor	r1, r1
     608:	08 b6       	in	r0, 0x38	; 56
     60a:	0f 92       	push	r0
     60c:	18 be       	out	0x38, r1	; 56
     60e:	09 b6       	in	r0, 0x39	; 57
     610:	0f 92       	push	r0
     612:	19 be       	out	0x39, r1	; 57
     614:	0b b6       	in	r0, 0x3b	; 59
     616:	0f 92       	push	r0
     618:	1b be       	out	0x3b, r1	; 59
     61a:	2f 93       	push	r18
     61c:	3f 93       	push	r19
     61e:	4f 93       	push	r20
     620:	5f 93       	push	r21
     622:	6f 93       	push	r22
     624:	7f 93       	push	r23
     626:	8f 93       	push	r24
     628:	9f 93       	push	r25
     62a:	af 93       	push	r26
     62c:	bf 93       	push	r27
     62e:	ef 93       	push	r30
     630:	ff 93       	push	r31
	adcb_callback(&ADCB, ADC_CH2, adc_get_result(&ADCB, ADC_CH2));
     632:	40 91 74 02 	lds	r20, 0x0274	; 0x800274 <__TEXT_REGION_LENGTH__+0x700274>
     636:	50 91 75 02 	lds	r21, 0x0275	; 0x800275 <__TEXT_REGION_LENGTH__+0x700275>
     63a:	e0 91 a7 21 	lds	r30, 0x21A7	; 0x8021a7 <adcb_callback>
     63e:	f0 91 a8 21 	lds	r31, 0x21A8	; 0x8021a8 <adcb_callback+0x1>
     642:	64 e0       	ldi	r22, 0x04	; 4
     644:	80 e4       	ldi	r24, 0x40	; 64
     646:	92 e0       	ldi	r25, 0x02	; 2
     648:	19 95       	eicall
}
     64a:	ff 91       	pop	r31
     64c:	ef 91       	pop	r30
     64e:	bf 91       	pop	r27
     650:	af 91       	pop	r26
     652:	9f 91       	pop	r25
     654:	8f 91       	pop	r24
     656:	7f 91       	pop	r23
     658:	6f 91       	pop	r22
     65a:	5f 91       	pop	r21
     65c:	4f 91       	pop	r20
     65e:	3f 91       	pop	r19
     660:	2f 91       	pop	r18
     662:	0f 90       	pop	r0
     664:	0b be       	out	0x3b, r0	; 59
     666:	0f 90       	pop	r0
     668:	09 be       	out	0x39, r0	; 57
     66a:	0f 90       	pop	r0
     66c:	08 be       	out	0x38, r0	; 56
     66e:	0f 90       	pop	r0
     670:	0f be       	out	0x3f, r0	; 63
     672:	0f 90       	pop	r0
     674:	1f 90       	pop	r1
     676:	18 95       	reti

00000678 <__vector_42>:
 *
 * Calls the callback function that has been set for the ADC when the channel's
 * interrupt flag is set, if its interrupt has been enabled.
 */
ISR(ADCB_CH3_vect)
{
     678:	1f 92       	push	r1
     67a:	0f 92       	push	r0
     67c:	0f b6       	in	r0, 0x3f	; 63
     67e:	0f 92       	push	r0
     680:	11 24       	eor	r1, r1
     682:	08 b6       	in	r0, 0x38	; 56
     684:	0f 92       	push	r0
     686:	18 be       	out	0x38, r1	; 56
     688:	09 b6       	in	r0, 0x39	; 57
     68a:	0f 92       	push	r0
     68c:	19 be       	out	0x39, r1	; 57
     68e:	0b b6       	in	r0, 0x3b	; 59
     690:	0f 92       	push	r0
     692:	1b be       	out	0x3b, r1	; 59
     694:	2f 93       	push	r18
     696:	3f 93       	push	r19
     698:	4f 93       	push	r20
     69a:	5f 93       	push	r21
     69c:	6f 93       	push	r22
     69e:	7f 93       	push	r23
     6a0:	8f 93       	push	r24
     6a2:	9f 93       	push	r25
     6a4:	af 93       	push	r26
     6a6:	bf 93       	push	r27
     6a8:	ef 93       	push	r30
     6aa:	ff 93       	push	r31
	adcb_callback(&ADCB, ADC_CH3, adc_get_result(&ADCB, ADC_CH3));
     6ac:	40 91 7c 02 	lds	r20, 0x027C	; 0x80027c <__TEXT_REGION_LENGTH__+0x70027c>
     6b0:	50 91 7d 02 	lds	r21, 0x027D	; 0x80027d <__TEXT_REGION_LENGTH__+0x70027d>
     6b4:	e0 91 a7 21 	lds	r30, 0x21A7	; 0x8021a7 <adcb_callback>
     6b8:	f0 91 a8 21 	lds	r31, 0x21A8	; 0x8021a8 <adcb_callback+0x1>
     6bc:	68 e0       	ldi	r22, 0x08	; 8
     6be:	80 e4       	ldi	r24, 0x40	; 64
     6c0:	92 e0       	ldi	r25, 0x02	; 2
     6c2:	19 95       	eicall
}
     6c4:	ff 91       	pop	r31
     6c6:	ef 91       	pop	r30
     6c8:	bf 91       	pop	r27
     6ca:	af 91       	pop	r26
     6cc:	9f 91       	pop	r25
     6ce:	8f 91       	pop	r24
     6d0:	7f 91       	pop	r23
     6d2:	6f 91       	pop	r22
     6d4:	5f 91       	pop	r21
     6d6:	4f 91       	pop	r20
     6d8:	3f 91       	pop	r19
     6da:	2f 91       	pop	r18
     6dc:	0f 90       	pop	r0
     6de:	0b be       	out	0x3b, r0	; 59
     6e0:	0f 90       	pop	r0
     6e2:	09 be       	out	0x39, r0	; 57
     6e4:	0f 90       	pop	r0
     6e6:	08 be       	out	0x38, r0	; 56
     6e8:	0f 90       	pop	r0
     6ea:	0f be       	out	0x3f, r0	; 63
     6ec:	0f 90       	pop	r0
     6ee:	1f 90       	pop	r1
     6f0:	18 95       	reti

000006f2 <usart_putchar>:

	if (baud_offset != USART_BAUD_UNDEFINED) {
		(usart)->BAUDCTRLB = (uint8_t)((uint16_t)baudctrl);
		(usart)->BAUDCTRLA = (uint8_t)((uint16_t)baudctrl >> 8);
	}
}
     6f2:	fc 01       	movw	r30, r24
     6f4:	91 81       	ldd	r25, Z+1	; 0x01
     6f6:	95 ff       	sbrs	r25, 5
     6f8:	fd cf       	rjmp	.-6      	; 0x6f4 <usart_putchar+0x2>
     6fa:	60 83       	st	Z, r22
     6fc:	80 e0       	ldi	r24, 0x00	; 0
     6fe:	90 e0       	ldi	r25, 0x00	; 0
     700:	08 95       	ret

00000702 <usart_getchar>:
     702:	fc 01       	movw	r30, r24
     704:	91 81       	ldd	r25, Z+1	; 0x01
     706:	99 23       	and	r25, r25
     708:	ec f7       	brge	.-6      	; 0x704 <usart_getchar+0x2>
     70a:	80 81       	ld	r24, Z
     70c:	08 95       	ret

0000070e <usart_set_baudrate>:
 * \retval true if the hardware supports the baud rate
 * \retval false if the hardware does not support the baud rate (i.e. it's
 *               either too high or too low.)
 */
bool usart_set_baudrate(USART_t *usart, uint32_t baud, uint32_t cpu_hz)
{
     70e:	4f 92       	push	r4
     710:	5f 92       	push	r5
     712:	6f 92       	push	r6
     714:	7f 92       	push	r7
     716:	8f 92       	push	r8
     718:	9f 92       	push	r9
     71a:	af 92       	push	r10
     71c:	bf 92       	push	r11
     71e:	ef 92       	push	r14
     720:	ff 92       	push	r15
     722:	0f 93       	push	r16
     724:	1f 93       	push	r17
     726:	cf 93       	push	r28
     728:	7c 01       	movw	r14, r24
     72a:	4a 01       	movw	r8, r20
     72c:	5b 01       	movw	r10, r22
     72e:	28 01       	movw	r4, r16
     730:	39 01       	movw	r6, r18
	/* 8 = (2^0) * 8 * (2^0) = (2^BSCALE_MIN) * 8 * (BSEL_MIN) */
	max_rate = cpu_hz / 8;
	/* 4194304 = (2^7) * 8 * (2^12) = (2^BSCALE_MAX) * 8 * (BSEL_MAX+1) */
	min_rate = cpu_hz / 4194304;

	if (!((usart)->CTRLB & USART_CLK2X_bm)) {
     732:	fc 01       	movw	r30, r24
     734:	84 81       	ldd	r24, Z+4	; 0x04
     736:	82 ff       	sbrs	r24, 2
     738:	16 c0       	rjmp	.+44     	; 0x766 <usart_set_baudrate+0x58>

	/*
	 * Check if the hardware supports the given baud rate
	 */
	/* 8 = (2^0) * 8 * (2^0) = (2^BSCALE_MIN) * 8 * (BSEL_MIN) */
	max_rate = cpu_hz / 8;
     73a:	d9 01       	movw	r26, r18
     73c:	c8 01       	movw	r24, r16
     73e:	68 94       	set
     740:	12 f8       	bld	r1, 2
     742:	b6 95       	lsr	r27
     744:	a7 95       	ror	r26
     746:	97 95       	ror	r25
     748:	87 95       	ror	r24
     74a:	16 94       	lsr	r1
     74c:	d1 f7       	brne	.-12     	; 0x742 <usart_set_baudrate+0x34>
	/* 4194304 = (2^7) * 8 * (2^12) = (2^BSCALE_MAX) * 8 * (BSEL_MAX+1) */
	min_rate = cpu_hz / 4194304;
     74e:	b9 01       	movw	r22, r18
     750:	a8 01       	movw	r20, r16
     752:	03 2e       	mov	r0, r19
     754:	36 e1       	ldi	r19, 0x16	; 22
     756:	76 95       	lsr	r23
     758:	67 95       	ror	r22
     75a:	57 95       	ror	r21
     75c:	47 95       	ror	r20
     75e:	3a 95       	dec	r19
     760:	d1 f7       	brne	.-12     	; 0x756 <usart_set_baudrate+0x48>
     762:	30 2d       	mov	r19, r0
     764:	15 c0       	rjmp	.+42     	; 0x790 <usart_set_baudrate+0x82>

	if (!((usart)->CTRLB & USART_CLK2X_bm)) {
		max_rate /= 2;
     766:	d9 01       	movw	r26, r18
     768:	c8 01       	movw	r24, r16
     76a:	68 94       	set
     76c:	13 f8       	bld	r1, 3
     76e:	b6 95       	lsr	r27
     770:	a7 95       	ror	r26
     772:	97 95       	ror	r25
     774:	87 95       	ror	r24
     776:	16 94       	lsr	r1
     778:	d1 f7       	brne	.-12     	; 0x76e <usart_set_baudrate+0x60>
		min_rate /= 2;
     77a:	b9 01       	movw	r22, r18
     77c:	a8 01       	movw	r20, r16
     77e:	03 2e       	mov	r0, r19
     780:	37 e1       	ldi	r19, 0x17	; 23
     782:	76 95       	lsr	r23
     784:	67 95       	ror	r22
     786:	57 95       	ror	r21
     788:	47 95       	ror	r20
     78a:	3a 95       	dec	r19
     78c:	d1 f7       	brne	.-12     	; 0x782 <usart_set_baudrate+0x74>
     78e:	30 2d       	mov	r19, r0
	}

	if ((baud > max_rate) || (baud < min_rate)) {
     790:	88 15       	cp	r24, r8
     792:	99 05       	cpc	r25, r9
     794:	aa 05       	cpc	r26, r10
     796:	bb 05       	cpc	r27, r11
     798:	08 f4       	brcc	.+2      	; 0x79c <usart_set_baudrate+0x8e>
     79a:	a6 c0       	rjmp	.+332    	; 0x8e8 <usart_set_baudrate+0x1da>
     79c:	84 16       	cp	r8, r20
     79e:	95 06       	cpc	r9, r21
     7a0:	a6 06       	cpc	r10, r22
     7a2:	b7 06       	cpc	r11, r23
     7a4:	08 f4       	brcc	.+2      	; 0x7a8 <usart_set_baudrate+0x9a>
     7a6:	a2 c0       	rjmp	.+324    	; 0x8ec <usart_set_baudrate+0x1de>
		return false;
	}

	/* Check if double speed is enabled. */
	if (!((usart)->CTRLB & USART_CLK2X_bm)) {
     7a8:	f7 01       	movw	r30, r14
     7aa:	84 81       	ldd	r24, Z+4	; 0x04
     7ac:	82 fd       	sbrc	r24, 2
     7ae:	04 c0       	rjmp	.+8      	; 0x7b8 <usart_set_baudrate+0xaa>
		baud *= 2;
     7b0:	88 0c       	add	r8, r8
     7b2:	99 1c       	adc	r9, r9
     7b4:	aa 1c       	adc	r10, r10
     7b6:	bb 1c       	adc	r11, r11
	}

	/* Find the lowest possible exponent. */
	limit = 0xfffU >> 4;
	ratio = cpu_hz / baud;
     7b8:	c3 01       	movw	r24, r6
     7ba:	b2 01       	movw	r22, r4
     7bc:	a5 01       	movw	r20, r10
     7be:	94 01       	movw	r18, r8
     7c0:	0e 94 74 0f 	call	0x1ee8	; 0x1ee8 <__udivmodsi4>

	for (exp = -7; exp < 7; exp++) {
		if (ratio < limit) {
     7c4:	2f 3f       	cpi	r18, 0xFF	; 255
     7c6:	31 05       	cpc	r19, r1
     7c8:	41 05       	cpc	r20, r1
     7ca:	51 05       	cpc	r21, r1
     7cc:	08 f4       	brcc	.+2      	; 0x7d0 <usart_set_baudrate+0xc2>
     7ce:	90 c0       	rjmp	.+288    	; 0x8f0 <usart_set_baudrate+0x1e2>
     7d0:	8f ef       	ldi	r24, 0xFF	; 255
     7d2:	90 e0       	ldi	r25, 0x00	; 0
     7d4:	a0 e0       	ldi	r26, 0x00	; 0
     7d6:	b0 e0       	ldi	r27, 0x00	; 0
     7d8:	c9 ef       	ldi	r28, 0xF9	; 249
     7da:	05 c0       	rjmp	.+10     	; 0x7e6 <usart_set_baudrate+0xd8>
     7dc:	28 17       	cp	r18, r24
     7de:	39 07       	cpc	r19, r25
     7e0:	4a 07       	cpc	r20, r26
     7e2:	5b 07       	cpc	r21, r27
     7e4:	58 f0       	brcs	.+22     	; 0x7fc <usart_set_baudrate+0xee>
			break;
		}

		limit <<= 1;
     7e6:	88 0f       	add	r24, r24
     7e8:	99 1f       	adc	r25, r25
     7ea:	aa 1f       	adc	r26, r26
     7ec:	bb 1f       	adc	r27, r27

		if (exp < -3) {
     7ee:	cd 3f       	cpi	r28, 0xFD	; 253
     7f0:	0c f4       	brge	.+2      	; 0x7f4 <usart_set_baudrate+0xe6>
			limit |= 1;
     7f2:	81 60       	ori	r24, 0x01	; 1
     7f4:	cf 5f       	subi	r28, 0xFF	; 255

	/* Find the lowest possible exponent. */
	limit = 0xfffU >> 4;
	ratio = cpu_hz / baud;

	for (exp = -7; exp < 7; exp++) {
     7f6:	c7 30       	cpi	r28, 0x07	; 7
     7f8:	89 f7       	brne	.-30     	; 0x7dc <usart_set_baudrate+0xce>
     7fa:	4f c0       	rjmp	.+158    	; 0x89a <usart_set_baudrate+0x18c>
	 * point.
	 *
	 * The formula for calculating BSEL is slightly different when exp is
	 * negative than it is when exp is positive.
	 */
	if (exp < 0) {
     7fc:	cc 23       	and	r28, r28
     7fe:	0c f0       	brlt	.+2      	; 0x802 <usart_set_baudrate+0xf4>
     800:	4c c0       	rjmp	.+152    	; 0x89a <usart_set_baudrate+0x18c>
		/* We are supposed to subtract 1, then apply BSCALE. We want to
		 * apply BSCALE first, so we need to turn everything inside the
		 * parenthesis into a single fractional expression.
		 */
		cpu_hz -= 8 * baud;
     802:	d5 01       	movw	r26, r10
     804:	c4 01       	movw	r24, r8
     806:	88 0f       	add	r24, r24
     808:	99 1f       	adc	r25, r25
     80a:	aa 1f       	adc	r26, r26
     80c:	bb 1f       	adc	r27, r27
     80e:	88 0f       	add	r24, r24
     810:	99 1f       	adc	r25, r25
     812:	aa 1f       	adc	r26, r26
     814:	bb 1f       	adc	r27, r27
     816:	88 0f       	add	r24, r24
     818:	99 1f       	adc	r25, r25
     81a:	aa 1f       	adc	r26, r26
     81c:	bb 1f       	adc	r27, r27
     81e:	48 1a       	sub	r4, r24
     820:	59 0a       	sbc	r5, r25
     822:	6a 0a       	sbc	r6, r26
     824:	7b 0a       	sbc	r7, r27
		/* If we end up with a left-shift after taking the final
		 * divide-by-8 into account, do the shift before the divide.
		 * Otherwise, left-shift the denominator instead (effectively
		 * resulting in an overall right shift.)
		 */
		if (exp <= -3) {
     826:	ce 3f       	cpi	r28, 0xFE	; 254
     828:	f4 f4       	brge	.+60     	; 0x866 <usart_set_baudrate+0x158>
			div = ((cpu_hz << (-exp - 3)) + baud / 2) / baud;
     82a:	8d ef       	ldi	r24, 0xFD	; 253
     82c:	9f ef       	ldi	r25, 0xFF	; 255
     82e:	8c 1b       	sub	r24, r28
     830:	91 09       	sbc	r25, r1
     832:	c7 fd       	sbrc	r28, 7
     834:	93 95       	inc	r25
     836:	04 c0       	rjmp	.+8      	; 0x840 <usart_set_baudrate+0x132>
     838:	44 0c       	add	r4, r4
     83a:	55 1c       	adc	r5, r5
     83c:	66 1c       	adc	r6, r6
     83e:	77 1c       	adc	r7, r7
     840:	8a 95       	dec	r24
     842:	d2 f7       	brpl	.-12     	; 0x838 <usart_set_baudrate+0x12a>
     844:	d5 01       	movw	r26, r10
     846:	c4 01       	movw	r24, r8
     848:	b6 95       	lsr	r27
     84a:	a7 95       	ror	r26
     84c:	97 95       	ror	r25
     84e:	87 95       	ror	r24
     850:	bc 01       	movw	r22, r24
     852:	cd 01       	movw	r24, r26
     854:	64 0d       	add	r22, r4
     856:	75 1d       	adc	r23, r5
     858:	86 1d       	adc	r24, r6
     85a:	97 1d       	adc	r25, r7
     85c:	a5 01       	movw	r20, r10
     85e:	94 01       	movw	r18, r8
     860:	0e 94 74 0f 	call	0x1ee8	; 0x1ee8 <__udivmodsi4>
     864:	37 c0       	rjmp	.+110    	; 0x8d4 <usart_set_baudrate+0x1c6>
		} else {
			baud <<= exp + 3;
     866:	83 e0       	ldi	r24, 0x03	; 3
     868:	8c 0f       	add	r24, r28
     86a:	a5 01       	movw	r20, r10
     86c:	94 01       	movw	r18, r8
     86e:	04 c0       	rjmp	.+8      	; 0x878 <usart_set_baudrate+0x16a>
     870:	22 0f       	add	r18, r18
     872:	33 1f       	adc	r19, r19
     874:	44 1f       	adc	r20, r20
     876:	55 1f       	adc	r21, r21
     878:	8a 95       	dec	r24
     87a:	d2 f7       	brpl	.-12     	; 0x870 <usart_set_baudrate+0x162>
			div = (cpu_hz + baud / 2) / baud;
     87c:	da 01       	movw	r26, r20
     87e:	c9 01       	movw	r24, r18
     880:	b6 95       	lsr	r27
     882:	a7 95       	ror	r26
     884:	97 95       	ror	r25
     886:	87 95       	ror	r24
     888:	bc 01       	movw	r22, r24
     88a:	cd 01       	movw	r24, r26
     88c:	64 0d       	add	r22, r4
     88e:	75 1d       	adc	r23, r5
     890:	86 1d       	adc	r24, r6
     892:	97 1d       	adc	r25, r7
     894:	0e 94 74 0f 	call	0x1ee8	; 0x1ee8 <__udivmodsi4>
     898:	1d c0       	rjmp	.+58     	; 0x8d4 <usart_set_baudrate+0x1c6>
		}
	} else {
		/* We will always do a right shift in this case, but we need to
		 * shift three extra positions because of the divide-by-8.
		 */
		baud <<= exp + 3;
     89a:	83 e0       	ldi	r24, 0x03	; 3
     89c:	8c 0f       	add	r24, r28
     89e:	a5 01       	movw	r20, r10
     8a0:	94 01       	movw	r18, r8
     8a2:	04 c0       	rjmp	.+8      	; 0x8ac <usart_set_baudrate+0x19e>
     8a4:	22 0f       	add	r18, r18
     8a6:	33 1f       	adc	r19, r19
     8a8:	44 1f       	adc	r20, r20
     8aa:	55 1f       	adc	r21, r21
     8ac:	8a 95       	dec	r24
     8ae:	d2 f7       	brpl	.-12     	; 0x8a4 <usart_set_baudrate+0x196>
		div = (cpu_hz + baud / 2) / baud - 1;
     8b0:	da 01       	movw	r26, r20
     8b2:	c9 01       	movw	r24, r18
     8b4:	b6 95       	lsr	r27
     8b6:	a7 95       	ror	r26
     8b8:	97 95       	ror	r25
     8ba:	87 95       	ror	r24
     8bc:	bc 01       	movw	r22, r24
     8be:	cd 01       	movw	r24, r26
     8c0:	64 0d       	add	r22, r4
     8c2:	75 1d       	adc	r23, r5
     8c4:	86 1d       	adc	r24, r6
     8c6:	97 1d       	adc	r25, r7
     8c8:	0e 94 74 0f 	call	0x1ee8	; 0x1ee8 <__udivmodsi4>
     8cc:	21 50       	subi	r18, 0x01	; 1
     8ce:	31 09       	sbc	r19, r1
     8d0:	41 09       	sbc	r20, r1
     8d2:	51 09       	sbc	r21, r1
	}

	(usart)->BAUDCTRLB = (uint8_t)(((div >> 8) & 0X0F) | (exp << 4));
     8d4:	83 2f       	mov	r24, r19
     8d6:	8f 70       	andi	r24, 0x0F	; 15
     8d8:	c2 95       	swap	r28
     8da:	c0 7f       	andi	r28, 0xF0	; 240
     8dc:	c8 2b       	or	r28, r24
     8de:	f7 01       	movw	r30, r14
     8e0:	c7 83       	std	Z+7, r28	; 0x07
	(usart)->BAUDCTRLA = (uint8_t)div;
     8e2:	26 83       	std	Z+6, r18	; 0x06

	return true;
     8e4:	81 e0       	ldi	r24, 0x01	; 1
     8e6:	18 c0       	rjmp	.+48     	; 0x918 <usart_set_baudrate+0x20a>
		max_rate /= 2;
		min_rate /= 2;
	}

	if ((baud > max_rate) || (baud < min_rate)) {
		return false;
     8e8:	80 e0       	ldi	r24, 0x00	; 0
     8ea:	16 c0       	rjmp	.+44     	; 0x918 <usart_set_baudrate+0x20a>
     8ec:	80 e0       	ldi	r24, 0x00	; 0
     8ee:	14 c0       	rjmp	.+40     	; 0x918 <usart_set_baudrate+0x20a>
	if (exp < 0) {
		/* We are supposed to subtract 1, then apply BSCALE. We want to
		 * apply BSCALE first, so we need to turn everything inside the
		 * parenthesis into a single fractional expression.
		 */
		cpu_hz -= 8 * baud;
     8f0:	d5 01       	movw	r26, r10
     8f2:	c4 01       	movw	r24, r8
     8f4:	88 0f       	add	r24, r24
     8f6:	99 1f       	adc	r25, r25
     8f8:	aa 1f       	adc	r26, r26
     8fa:	bb 1f       	adc	r27, r27
     8fc:	88 0f       	add	r24, r24
     8fe:	99 1f       	adc	r25, r25
     900:	aa 1f       	adc	r26, r26
     902:	bb 1f       	adc	r27, r27
     904:	88 0f       	add	r24, r24
     906:	99 1f       	adc	r25, r25
     908:	aa 1f       	adc	r26, r26
     90a:	bb 1f       	adc	r27, r27
     90c:	48 1a       	sub	r4, r24
     90e:	59 0a       	sbc	r5, r25
     910:	6a 0a       	sbc	r6, r26
     912:	7b 0a       	sbc	r7, r27

	/* Find the lowest possible exponent. */
	limit = 0xfffU >> 4;
	ratio = cpu_hz / baud;

	for (exp = -7; exp < 7; exp++) {
     914:	c9 ef       	ldi	r28, 0xF9	; 249
     916:	89 cf       	rjmp	.-238    	; 0x82a <usart_set_baudrate+0x11c>

	(usart)->BAUDCTRLB = (uint8_t)(((div >> 8) & 0X0F) | (exp << 4));
	(usart)->BAUDCTRLA = (uint8_t)div;

	return true;
}
     918:	cf 91       	pop	r28
     91a:	1f 91       	pop	r17
     91c:	0f 91       	pop	r16
     91e:	ff 90       	pop	r15
     920:	ef 90       	pop	r14
     922:	bf 90       	pop	r11
     924:	af 90       	pop	r10
     926:	9f 90       	pop	r9
     928:	8f 90       	pop	r8
     92a:	7f 90       	pop	r7
     92c:	6f 90       	pop	r6
     92e:	5f 90       	pop	r5
     930:	4f 90       	pop	r4
     932:	08 95       	ret

00000934 <usart_init_rs232>:
 *
 * \retval true if the initialization was successfull
 * \retval false if the initialization failed (error in baud rate calculation)
 */
bool usart_init_rs232(USART_t *usart, const usart_rs232_options_t *opt)
{
     934:	0f 93       	push	r16
     936:	1f 93       	push	r17
     938:	cf 93       	push	r28
     93a:	df 93       	push	r29
     93c:	ec 01       	movw	r28, r24
     93e:	8b 01       	movw	r16, r22
 *
 * \param module Pointer to the module's base address.
 */
static inline void sysclk_enable_peripheral_clock(const volatile void *module)
{
	if (module == NULL) {
     940:	00 97       	sbiw	r24, 0x00	; 0
     942:	09 f4       	brne	.+2      	; 0x946 <usart_init_rs232+0x12>
     944:	36 c1       	rjmp	.+620    	; 0xbb2 <usart_init_rs232+0x27e>
		Assert(false);
	}
#ifdef AES
	else if (module == &AES) {
     946:	80 3c       	cpi	r24, 0xC0	; 192
     948:	91 05       	cpc	r25, r1
     94a:	21 f4       	brne	.+8      	; 0x954 <usart_init_rs232+0x20>
		sysclk_enable_module(SYSCLK_PORT_GEN, SYSCLK_AES);
     94c:	60 e1       	ldi	r22, 0x10	; 16
     94e:	80 e0       	ldi	r24, 0x00	; 0
     950:	2d d3       	rcall	.+1626   	; 0xfac <sysclk_enable_module>
     952:	2f c1       	rjmp	.+606    	; 0xbb2 <usart_init_rs232+0x27e>
	}
#endif
#ifdef EBI
	else if (module == &EBI) {
     954:	c0 34       	cpi	r28, 0x40	; 64
     956:	84 e0       	ldi	r24, 0x04	; 4
     958:	d8 07       	cpc	r29, r24
     95a:	21 f4       	brne	.+8      	; 0x964 <usart_init_rs232+0x30>
		sysclk_enable_module(SYSCLK_PORT_GEN, SYSCLK_EBI);
     95c:	68 e0       	ldi	r22, 0x08	; 8
     95e:	80 e0       	ldi	r24, 0x00	; 0
     960:	25 d3       	rcall	.+1610   	; 0xfac <sysclk_enable_module>
     962:	27 c1       	rjmp	.+590    	; 0xbb2 <usart_init_rs232+0x27e>
	}
#endif
#ifdef RTC
	else if (module == &RTC) {
     964:	c1 15       	cp	r28, r1
     966:	e4 e0       	ldi	r30, 0x04	; 4
     968:	de 07       	cpc	r29, r30
     96a:	21 f4       	brne	.+8      	; 0x974 <usart_init_rs232+0x40>
		sysclk_enable_module(SYSCLK_PORT_GEN, SYSCLK_RTC);
     96c:	64 e0       	ldi	r22, 0x04	; 4
     96e:	80 e0       	ldi	r24, 0x00	; 0
     970:	1d d3       	rcall	.+1594   	; 0xfac <sysclk_enable_module>
     972:	1f c1       	rjmp	.+574    	; 0xbb2 <usart_init_rs232+0x27e>
	}
#endif
#ifdef EVSYS
	else if (module == &EVSYS) {
     974:	c0 38       	cpi	r28, 0x80	; 128
     976:	f1 e0       	ldi	r31, 0x01	; 1
     978:	df 07       	cpc	r29, r31
		sysclk_enable_module(SYSCLK_PORT_GEN, SYSCLK_EVSYS);
     97a:	21 f4       	brne	.+8      	; 0x984 <usart_init_rs232+0x50>
     97c:	62 e0       	ldi	r22, 0x02	; 2
     97e:	80 e0       	ldi	r24, 0x00	; 0
     980:	15 d3       	rcall	.+1578   	; 0xfac <sysclk_enable_module>
     982:	17 c1       	rjmp	.+558    	; 0xbb2 <usart_init_rs232+0x27e>
	}
#endif
#ifdef DMA
	else if (module == &DMA) {
     984:	c1 15       	cp	r28, r1
     986:	81 e0       	ldi	r24, 0x01	; 1
     988:	d8 07       	cpc	r29, r24
		sysclk_enable_module(SYSCLK_PORT_GEN, SYSCLK_DMA);
     98a:	21 f4       	brne	.+8      	; 0x994 <usart_init_rs232+0x60>
     98c:	61 e0       	ldi	r22, 0x01	; 1
     98e:	80 e0       	ldi	r24, 0x00	; 0
     990:	0d d3       	rcall	.+1562   	; 0xfac <sysclk_enable_module>
     992:	0f c1       	rjmp	.+542    	; 0xbb2 <usart_init_rs232+0x27e>
	else if (module == &EDMA) {
		sysclk_enable_module(SYSCLK_PORT_GEN, SYSCLK_EDMA);
	}
#endif
#ifdef ACA
	else if (module == &ACA) {
     994:	c0 38       	cpi	r28, 0x80	; 128
     996:	e3 e0       	ldi	r30, 0x03	; 3
     998:	de 07       	cpc	r29, r30
		sysclk_enable_module(SYSCLK_PORT_A, SYSCLK_AC);
     99a:	21 f4       	brne	.+8      	; 0x9a4 <usart_init_rs232+0x70>
     99c:	61 e0       	ldi	r22, 0x01	; 1
     99e:	81 e0       	ldi	r24, 0x01	; 1
     9a0:	05 d3       	rcall	.+1546   	; 0xfac <sysclk_enable_module>
     9a2:	07 c1       	rjmp	.+526    	; 0xbb2 <usart_init_rs232+0x27e>
	}
#endif
#ifdef ACB
	else if (module == &ACB) {
     9a4:	c0 39       	cpi	r28, 0x90	; 144
     9a6:	f3 e0       	ldi	r31, 0x03	; 3
     9a8:	df 07       	cpc	r29, r31
		sysclk_enable_module(SYSCLK_PORT_B, SYSCLK_AC);
     9aa:	21 f4       	brne	.+8      	; 0x9b4 <usart_init_rs232+0x80>
     9ac:	61 e0       	ldi	r22, 0x01	; 1
     9ae:	82 e0       	ldi	r24, 0x02	; 2
     9b0:	fd d2       	rcall	.+1530   	; 0xfac <sysclk_enable_module>
	}
#endif
#ifdef ADCA
	else if (module == &ADCA) {
     9b2:	ff c0       	rjmp	.+510    	; 0xbb2 <usart_init_rs232+0x27e>
     9b4:	c1 15       	cp	r28, r1
     9b6:	82 e0       	ldi	r24, 0x02	; 2
     9b8:	d8 07       	cpc	r29, r24
		sysclk_enable_module(SYSCLK_PORT_A, SYSCLK_ADC);
     9ba:	21 f4       	brne	.+8      	; 0x9c4 <usart_init_rs232+0x90>
     9bc:	62 e0       	ldi	r22, 0x02	; 2
     9be:	81 e0       	ldi	r24, 0x01	; 1
     9c0:	f5 d2       	rcall	.+1514   	; 0xfac <sysclk_enable_module>
	}
#endif
#ifdef ADCB
	else if (module == &ADCB) {
     9c2:	f7 c0       	rjmp	.+494    	; 0xbb2 <usart_init_rs232+0x27e>
     9c4:	c0 34       	cpi	r28, 0x40	; 64
     9c6:	e2 e0       	ldi	r30, 0x02	; 2
     9c8:	de 07       	cpc	r29, r30
		sysclk_enable_module(SYSCLK_PORT_B, SYSCLK_ADC);
     9ca:	21 f4       	brne	.+8      	; 0x9d4 <usart_init_rs232+0xa0>
     9cc:	62 e0       	ldi	r22, 0x02	; 2
     9ce:	82 e0       	ldi	r24, 0x02	; 2
     9d0:	ed d2       	rcall	.+1498   	; 0xfac <sysclk_enable_module>
	}
#endif
#ifdef DACA
	else if (module == &DACA) {
     9d2:	ef c0       	rjmp	.+478    	; 0xbb2 <usart_init_rs232+0x27e>
     9d4:	c1 15       	cp	r28, r1
     9d6:	f3 e0       	ldi	r31, 0x03	; 3
     9d8:	df 07       	cpc	r29, r31
		sysclk_enable_module(SYSCLK_PORT_A, SYSCLK_DAC);
     9da:	21 f4       	brne	.+8      	; 0x9e4 <usart_init_rs232+0xb0>
     9dc:	64 e0       	ldi	r22, 0x04	; 4
     9de:	81 e0       	ldi	r24, 0x01	; 1
     9e0:	e5 d2       	rcall	.+1482   	; 0xfac <sysclk_enable_module>
	}
#endif
// Workaround for bad XMEGA D header file
#if !XMEGA_D
#ifdef DACB
	else if (module == &DACB) {
     9e2:	e7 c0       	rjmp	.+462    	; 0xbb2 <usart_init_rs232+0x27e>
     9e4:	c0 32       	cpi	r28, 0x20	; 32
     9e6:	83 e0       	ldi	r24, 0x03	; 3
     9e8:	d8 07       	cpc	r29, r24
		sysclk_enable_module(SYSCLK_PORT_B, SYSCLK_DAC);
     9ea:	21 f4       	brne	.+8      	; 0x9f4 <usart_init_rs232+0xc0>
     9ec:	64 e0       	ldi	r22, 0x04	; 4
     9ee:	82 e0       	ldi	r24, 0x02	; 2
     9f0:	dd d2       	rcall	.+1466   	; 0xfac <sysclk_enable_module>
	}
#endif
#endif // Workaround end
#ifdef TCC0
	else if (module == &TCC0) {
     9f2:	df c0       	rjmp	.+446    	; 0xbb2 <usart_init_rs232+0x27e>
     9f4:	c1 15       	cp	r28, r1
     9f6:	e8 e0       	ldi	r30, 0x08	; 8
		sysclk_enable_module(SYSCLK_PORT_C, SYSCLK_TC0);
     9f8:	de 07       	cpc	r29, r30
     9fa:	21 f4       	brne	.+8      	; 0xa04 <usart_init_rs232+0xd0>
     9fc:	61 e0       	ldi	r22, 0x01	; 1
     9fe:	83 e0       	ldi	r24, 0x03	; 3
     a00:	d5 d2       	rcall	.+1450   	; 0xfac <sysclk_enable_module>
	}
#endif
#ifdef TCD0
	else if (module == &TCD0) {
     a02:	d7 c0       	rjmp	.+430    	; 0xbb2 <usart_init_rs232+0x27e>
     a04:	c1 15       	cp	r28, r1
     a06:	f9 e0       	ldi	r31, 0x09	; 9
		sysclk_enable_module(SYSCLK_PORT_D, SYSCLK_TC0);
     a08:	df 07       	cpc	r29, r31
     a0a:	21 f4       	brne	.+8      	; 0xa14 <usart_init_rs232+0xe0>
     a0c:	61 e0       	ldi	r22, 0x01	; 1
     a0e:	84 e0       	ldi	r24, 0x04	; 4
     a10:	cd d2       	rcall	.+1434   	; 0xfac <sysclk_enable_module>
	}
#endif
#ifdef TCE0
	else if (module == &TCE0) {
     a12:	cf c0       	rjmp	.+414    	; 0xbb2 <usart_init_rs232+0x27e>
     a14:	c1 15       	cp	r28, r1
     a16:	8a e0       	ldi	r24, 0x0A	; 10
		sysclk_enable_module(SYSCLK_PORT_E, SYSCLK_TC0);
     a18:	d8 07       	cpc	r29, r24
     a1a:	21 f4       	brne	.+8      	; 0xa24 <usart_init_rs232+0xf0>
     a1c:	61 e0       	ldi	r22, 0x01	; 1
     a1e:	85 e0       	ldi	r24, 0x05	; 5
     a20:	c5 d2       	rcall	.+1418   	; 0xfac <sysclk_enable_module>
	}
#endif
#ifdef TCF0
	else if (module == &TCF0) {
     a22:	c7 c0       	rjmp	.+398    	; 0xbb2 <usart_init_rs232+0x27e>
     a24:	c1 15       	cp	r28, r1
     a26:	eb e0       	ldi	r30, 0x0B	; 11
		sysclk_enable_module(SYSCLK_PORT_F, SYSCLK_TC0);
     a28:	de 07       	cpc	r29, r30
     a2a:	21 f4       	brne	.+8      	; 0xa34 <usart_init_rs232+0x100>
     a2c:	61 e0       	ldi	r22, 0x01	; 1
     a2e:	86 e0       	ldi	r24, 0x06	; 6
	}
#endif
#ifdef TCC1
	else if (module == &TCC1) {
     a30:	bd d2       	rcall	.+1402   	; 0xfac <sysclk_enable_module>
     a32:	bf c0       	rjmp	.+382    	; 0xbb2 <usart_init_rs232+0x27e>
     a34:	c0 34       	cpi	r28, 0x40	; 64
     a36:	f8 e0       	ldi	r31, 0x08	; 8
		sysclk_enable_module(SYSCLK_PORT_C, SYSCLK_TC1);
     a38:	df 07       	cpc	r29, r31
     a3a:	21 f4       	brne	.+8      	; 0xa44 <usart_init_rs232+0x110>
     a3c:	62 e0       	ldi	r22, 0x02	; 2
     a3e:	83 e0       	ldi	r24, 0x03	; 3
	}
#endif
#ifdef TCD1
	else if (module == &TCD1) {
     a40:	b5 d2       	rcall	.+1386   	; 0xfac <sysclk_enable_module>
     a42:	b7 c0       	rjmp	.+366    	; 0xbb2 <usart_init_rs232+0x27e>
     a44:	c0 34       	cpi	r28, 0x40	; 64
     a46:	89 e0       	ldi	r24, 0x09	; 9
		sysclk_enable_module(SYSCLK_PORT_D, SYSCLK_TC1);
     a48:	d8 07       	cpc	r29, r24
     a4a:	21 f4       	brne	.+8      	; 0xa54 <usart_init_rs232+0x120>
     a4c:	62 e0       	ldi	r22, 0x02	; 2
     a4e:	84 e0       	ldi	r24, 0x04	; 4
	}
#endif
#ifdef TCE1
	else if (module == &TCE1) {
     a50:	ad d2       	rcall	.+1370   	; 0xfac <sysclk_enable_module>
     a52:	af c0       	rjmp	.+350    	; 0xbb2 <usart_init_rs232+0x27e>
     a54:	c0 34       	cpi	r28, 0x40	; 64
     a56:	ea e0       	ldi	r30, 0x0A	; 10
		sysclk_enable_module(SYSCLK_PORT_E, SYSCLK_TC1);
     a58:	de 07       	cpc	r29, r30
     a5a:	21 f4       	brne	.+8      	; 0xa64 <usart_init_rs232+0x130>
     a5c:	62 e0       	ldi	r22, 0x02	; 2
     a5e:	85 e0       	ldi	r24, 0x05	; 5
	}
#endif
#ifdef TCF1
	else if (module == &TCF1) {
     a60:	a5 d2       	rcall	.+1354   	; 0xfac <sysclk_enable_module>
     a62:	a7 c0       	rjmp	.+334    	; 0xbb2 <usart_init_rs232+0x27e>
     a64:	c0 34       	cpi	r28, 0x40	; 64
     a66:	fb e0       	ldi	r31, 0x0B	; 11
		sysclk_enable_module(SYSCLK_PORT_F, SYSCLK_TC1);
     a68:	df 07       	cpc	r29, r31
     a6a:	21 f4       	brne	.+8      	; 0xa74 <usart_init_rs232+0x140>
     a6c:	62 e0       	ldi	r22, 0x02	; 2
     a6e:	86 e0       	ldi	r24, 0x06	; 6
	else if (module == &TCD5) {
		sysclk_enable_module(SYSCLK_PORT_D, SYSCLK_TC5);
	}
#endif
#ifdef HIRESC
	else if (module == &HIRESC) {
     a70:	9d d2       	rcall	.+1338   	; 0xfac <sysclk_enable_module>
     a72:	9f c0       	rjmp	.+318    	; 0xbb2 <usart_init_rs232+0x27e>
     a74:	c0 39       	cpi	r28, 0x90	; 144
			sysclk_enable_module(SYSCLK_PORT_C, SYSCLK_HIRES);
     a76:	88 e0       	ldi	r24, 0x08	; 8
     a78:	d8 07       	cpc	r29, r24
     a7a:	21 f4       	brne	.+8      	; 0xa84 <usart_init_rs232+0x150>
     a7c:	64 e0       	ldi	r22, 0x04	; 4
     a7e:	83 e0       	ldi	r24, 0x03	; 3
	}
#endif
#ifdef HIRESD
	else if (module == &HIRESD) {
     a80:	95 d2       	rcall	.+1322   	; 0xfac <sysclk_enable_module>
     a82:	97 c0       	rjmp	.+302    	; 0xbb2 <usart_init_rs232+0x27e>
     a84:	c0 39       	cpi	r28, 0x90	; 144
		sysclk_enable_module(SYSCLK_PORT_D, SYSCLK_HIRES);
     a86:	e9 e0       	ldi	r30, 0x09	; 9
     a88:	de 07       	cpc	r29, r30
     a8a:	21 f4       	brne	.+8      	; 0xa94 <usart_init_rs232+0x160>
     a8c:	64 e0       	ldi	r22, 0x04	; 4
     a8e:	84 e0       	ldi	r24, 0x04	; 4
	}
#endif
#ifdef HIRESE
	else if (module == &HIRESE) {
     a90:	8d d2       	rcall	.+1306   	; 0xfac <sysclk_enable_module>
     a92:	8f c0       	rjmp	.+286    	; 0xbb2 <usart_init_rs232+0x27e>
     a94:	c0 39       	cpi	r28, 0x90	; 144
		sysclk_enable_module(SYSCLK_PORT_E, SYSCLK_HIRES);
     a96:	fa e0       	ldi	r31, 0x0A	; 10
     a98:	df 07       	cpc	r29, r31
     a9a:	21 f4       	brne	.+8      	; 0xaa4 <usart_init_rs232+0x170>
     a9c:	64 e0       	ldi	r22, 0x04	; 4
     a9e:	85 e0       	ldi	r24, 0x05	; 5
	}
#endif
#ifdef HIRESF
	else if (module == &HIRESF) {
     aa0:	85 d2       	rcall	.+1290   	; 0xfac <sysclk_enable_module>
     aa2:	87 c0       	rjmp	.+270    	; 0xbb2 <usart_init_rs232+0x27e>
     aa4:	c0 39       	cpi	r28, 0x90	; 144
		sysclk_enable_module(SYSCLK_PORT_F, SYSCLK_HIRES);
     aa6:	8b e0       	ldi	r24, 0x0B	; 11
     aa8:	d8 07       	cpc	r29, r24
     aaa:	21 f4       	brne	.+8      	; 0xab4 <usart_init_rs232+0x180>
     aac:	64 e0       	ldi	r22, 0x04	; 4
	}
#endif
#ifdef SPIC
	else if (module == &SPIC) {
     aae:	86 e0       	ldi	r24, 0x06	; 6
     ab0:	7d d2       	rcall	.+1274   	; 0xfac <sysclk_enable_module>
     ab2:	7f c0       	rjmp	.+254    	; 0xbb2 <usart_init_rs232+0x27e>
     ab4:	c0 3c       	cpi	r28, 0xC0	; 192
		sysclk_enable_module(SYSCLK_PORT_C, SYSCLK_SPI);
     ab6:	e8 e0       	ldi	r30, 0x08	; 8
     ab8:	de 07       	cpc	r29, r30
     aba:	21 f4       	brne	.+8      	; 0xac4 <usart_init_rs232+0x190>
     abc:	68 e0       	ldi	r22, 0x08	; 8
	}
#endif
#ifdef SPID
	else if (module == &SPID) {
     abe:	83 e0       	ldi	r24, 0x03	; 3
     ac0:	75 d2       	rcall	.+1258   	; 0xfac <sysclk_enable_module>
     ac2:	77 c0       	rjmp	.+238    	; 0xbb2 <usart_init_rs232+0x27e>
     ac4:	c0 3c       	cpi	r28, 0xC0	; 192
		sysclk_enable_module(SYSCLK_PORT_D, SYSCLK_SPI);
     ac6:	f9 e0       	ldi	r31, 0x09	; 9
     ac8:	df 07       	cpc	r29, r31
     aca:	21 f4       	brne	.+8      	; 0xad4 <usart_init_rs232+0x1a0>
     acc:	68 e0       	ldi	r22, 0x08	; 8
	}
#endif
#ifdef SPIE
	else if (module == &SPIE) {
     ace:	84 e0       	ldi	r24, 0x04	; 4
     ad0:	6d d2       	rcall	.+1242   	; 0xfac <sysclk_enable_module>
     ad2:	6f c0       	rjmp	.+222    	; 0xbb2 <usart_init_rs232+0x27e>
     ad4:	c0 3c       	cpi	r28, 0xC0	; 192
		sysclk_enable_module(SYSCLK_PORT_E, SYSCLK_SPI);
     ad6:	8a e0       	ldi	r24, 0x0A	; 10
     ad8:	d8 07       	cpc	r29, r24
     ada:	21 f4       	brne	.+8      	; 0xae4 <usart_init_rs232+0x1b0>
     adc:	68 e0       	ldi	r22, 0x08	; 8
	}
#endif
#ifdef SPIF
	else if (module == &SPIF) {
     ade:	85 e0       	ldi	r24, 0x05	; 5
     ae0:	65 d2       	rcall	.+1226   	; 0xfac <sysclk_enable_module>
     ae2:	67 c0       	rjmp	.+206    	; 0xbb2 <usart_init_rs232+0x27e>
     ae4:	c0 3c       	cpi	r28, 0xC0	; 192
		sysclk_enable_module(SYSCLK_PORT_F, SYSCLK_SPI);
     ae6:	eb e0       	ldi	r30, 0x0B	; 11
     ae8:	de 07       	cpc	r29, r30
     aea:	21 f4       	brne	.+8      	; 0xaf4 <usart_init_rs232+0x1c0>
     aec:	68 e0       	ldi	r22, 0x08	; 8
	}
#endif
#ifdef USARTC0
	else if (module == &USARTC0) {
     aee:	86 e0       	ldi	r24, 0x06	; 6
     af0:	5d d2       	rcall	.+1210   	; 0xfac <sysclk_enable_module>
     af2:	5f c0       	rjmp	.+190    	; 0xbb2 <usart_init_rs232+0x27e>
		sysclk_enable_module(SYSCLK_PORT_C, SYSCLK_USART0);
     af4:	c0 3a       	cpi	r28, 0xA0	; 160
     af6:	f8 e0       	ldi	r31, 0x08	; 8
     af8:	df 07       	cpc	r29, r31
     afa:	21 f4       	brne	.+8      	; 0xb04 <usart_init_rs232+0x1d0>
     afc:	60 e1       	ldi	r22, 0x10	; 16
	}
#endif
#ifdef USARTD0
	else if (module == &USARTD0) {
     afe:	83 e0       	ldi	r24, 0x03	; 3
     b00:	55 d2       	rcall	.+1194   	; 0xfac <sysclk_enable_module>
     b02:	57 c0       	rjmp	.+174    	; 0xbb2 <usart_init_rs232+0x27e>
		sysclk_enable_module(SYSCLK_PORT_D, SYSCLK_USART0);
     b04:	c0 3a       	cpi	r28, 0xA0	; 160
     b06:	89 e0       	ldi	r24, 0x09	; 9
     b08:	d8 07       	cpc	r29, r24
     b0a:	21 f4       	brne	.+8      	; 0xb14 <usart_init_rs232+0x1e0>
     b0c:	60 e1       	ldi	r22, 0x10	; 16
	}
#endif
#ifdef USARTE0
	else if (module == &USARTE0) {
     b0e:	84 e0       	ldi	r24, 0x04	; 4
     b10:	4d d2       	rcall	.+1178   	; 0xfac <sysclk_enable_module>
     b12:	4f c0       	rjmp	.+158    	; 0xbb2 <usart_init_rs232+0x27e>
		sysclk_enable_module(SYSCLK_PORT_E, SYSCLK_USART0);
     b14:	c0 3a       	cpi	r28, 0xA0	; 160
     b16:	ea e0       	ldi	r30, 0x0A	; 10
     b18:	de 07       	cpc	r29, r30
     b1a:	21 f4       	brne	.+8      	; 0xb24 <usart_init_rs232+0x1f0>
     b1c:	60 e1       	ldi	r22, 0x10	; 16
	}
#endif
#ifdef USARTF0
	else if (module == &USARTF0) {
     b1e:	85 e0       	ldi	r24, 0x05	; 5
     b20:	45 d2       	rcall	.+1162   	; 0xfac <sysclk_enable_module>
     b22:	47 c0       	rjmp	.+142    	; 0xbb2 <usart_init_rs232+0x27e>
		sysclk_enable_module(SYSCLK_PORT_F, SYSCLK_USART0);
     b24:	c0 3a       	cpi	r28, 0xA0	; 160
     b26:	fb e0       	ldi	r31, 0x0B	; 11
     b28:	df 07       	cpc	r29, r31
     b2a:	21 f4       	brne	.+8      	; 0xb34 <usart_init_rs232+0x200>
	}
#endif
#ifdef USARTC1
	else if (module == &USARTC1) {
     b2c:	60 e1       	ldi	r22, 0x10	; 16
     b2e:	86 e0       	ldi	r24, 0x06	; 6
     b30:	3d d2       	rcall	.+1146   	; 0xfac <sysclk_enable_module>
     b32:	3f c0       	rjmp	.+126    	; 0xbb2 <usart_init_rs232+0x27e>
		sysclk_enable_module(SYSCLK_PORT_C, SYSCLK_USART1);
     b34:	c0 3b       	cpi	r28, 0xB0	; 176
     b36:	88 e0       	ldi	r24, 0x08	; 8
     b38:	d8 07       	cpc	r29, r24
     b3a:	21 f4       	brne	.+8      	; 0xb44 <usart_init_rs232+0x210>
	}
#endif
#ifdef USARTD1
	else if (module == &USARTD1) {
     b3c:	60 e2       	ldi	r22, 0x20	; 32
     b3e:	83 e0       	ldi	r24, 0x03	; 3
     b40:	35 d2       	rcall	.+1130   	; 0xfac <sysclk_enable_module>
     b42:	37 c0       	rjmp	.+110    	; 0xbb2 <usart_init_rs232+0x27e>
		sysclk_enable_module(SYSCLK_PORT_D, SYSCLK_USART1);
     b44:	c0 3b       	cpi	r28, 0xB0	; 176
     b46:	e9 e0       	ldi	r30, 0x09	; 9
     b48:	de 07       	cpc	r29, r30
     b4a:	21 f4       	brne	.+8      	; 0xb54 <usart_init_rs232+0x220>
	}
#endif
#ifdef USARTE1
	else if (module == &USARTE1) {
     b4c:	60 e2       	ldi	r22, 0x20	; 32
     b4e:	84 e0       	ldi	r24, 0x04	; 4
     b50:	2d d2       	rcall	.+1114   	; 0xfac <sysclk_enable_module>
     b52:	2f c0       	rjmp	.+94     	; 0xbb2 <usart_init_rs232+0x27e>
		sysclk_enable_module(SYSCLK_PORT_E, SYSCLK_USART1);
     b54:	c0 3b       	cpi	r28, 0xB0	; 176
     b56:	fa e0       	ldi	r31, 0x0A	; 10
     b58:	df 07       	cpc	r29, r31
     b5a:	21 f4       	brne	.+8      	; 0xb64 <usart_init_rs232+0x230>
	}
#endif
#ifdef USARTF1
	else if (module == &USARTF1) {
     b5c:	60 e2       	ldi	r22, 0x20	; 32
     b5e:	85 e0       	ldi	r24, 0x05	; 5
     b60:	25 d2       	rcall	.+1098   	; 0xfac <sysclk_enable_module>
     b62:	27 c0       	rjmp	.+78     	; 0xbb2 <usart_init_rs232+0x27e>
		sysclk_enable_module(SYSCLK_PORT_F, SYSCLK_USART1);
     b64:	c0 3b       	cpi	r28, 0xB0	; 176
     b66:	8b e0       	ldi	r24, 0x0B	; 11
     b68:	d8 07       	cpc	r29, r24
     b6a:	21 f4       	brne	.+8      	; 0xb74 <usart_init_rs232+0x240>
	}
#endif
#ifdef TWIC
	else if (module == &TWIC) {
     b6c:	60 e2       	ldi	r22, 0x20	; 32
     b6e:	86 e0       	ldi	r24, 0x06	; 6
     b70:	1d d2       	rcall	.+1082   	; 0xfac <sysclk_enable_module>
     b72:	1f c0       	rjmp	.+62     	; 0xbb2 <usart_init_rs232+0x27e>
		sysclk_enable_module(SYSCLK_PORT_C, SYSCLK_TWI);
     b74:	c0 38       	cpi	r28, 0x80	; 128
     b76:	e4 e0       	ldi	r30, 0x04	; 4
     b78:	de 07       	cpc	r29, r30
     b7a:	21 f4       	brne	.+8      	; 0xb84 <usart_init_rs232+0x250>
     b7c:	60 e4       	ldi	r22, 0x40	; 64
	}
#endif
#ifdef TWID
	else if (module == &TWID) {
     b7e:	83 e0       	ldi	r24, 0x03	; 3
     b80:	15 d2       	rcall	.+1066   	; 0xfac <sysclk_enable_module>
     b82:	17 c0       	rjmp	.+46     	; 0xbb2 <usart_init_rs232+0x27e>
     b84:	c0 39       	cpi	r28, 0x90	; 144
		sysclk_enable_module(SYSCLK_PORT_D, SYSCLK_TWI);
     b86:	f4 e0       	ldi	r31, 0x04	; 4
     b88:	df 07       	cpc	r29, r31
     b8a:	21 f4       	brne	.+8      	; 0xb94 <usart_init_rs232+0x260>
     b8c:	60 e4       	ldi	r22, 0x40	; 64
     b8e:	84 e0       	ldi	r24, 0x04	; 4
	}
#endif
#ifdef TWIE
	else if (module == &TWIE) {
     b90:	0d d2       	rcall	.+1050   	; 0xfac <sysclk_enable_module>
     b92:	0f c0       	rjmp	.+30     	; 0xbb2 <usart_init_rs232+0x27e>
     b94:	c0 3a       	cpi	r28, 0xA0	; 160
		sysclk_enable_module(SYSCLK_PORT_E, SYSCLK_TWI);
     b96:	84 e0       	ldi	r24, 0x04	; 4
     b98:	d8 07       	cpc	r29, r24
     b9a:	21 f4       	brne	.+8      	; 0xba4 <usart_init_rs232+0x270>
     b9c:	60 e4       	ldi	r22, 0x40	; 64
     b9e:	85 e0       	ldi	r24, 0x05	; 5
	}
#endif
#ifdef TWIF
	else if (module == &TWIF) {
     ba0:	05 d2       	rcall	.+1034   	; 0xfac <sysclk_enable_module>
     ba2:	07 c0       	rjmp	.+14     	; 0xbb2 <usart_init_rs232+0x27e>
     ba4:	c0 3b       	cpi	r28, 0xB0	; 176
     ba6:	e4 e0       	ldi	r30, 0x04	; 4
		sysclk_enable_module(SYSCLK_PORT_F, SYSCLK_TWI);
     ba8:	de 07       	cpc	r29, r30
     baa:	19 f4       	brne	.+6      	; 0xbb2 <usart_init_rs232+0x27e>
     bac:	60 e4       	ldi	r22, 0x40	; 64
     bae:	86 e0       	ldi	r24, 0x06	; 6
 * - 0x2        : IrDA mode.
 * - 0x3        : Master SPI mode.
 */
static inline void usart_set_mode(USART_t *usart, USART_CMODE_t usartmode)
{
	(usart)->CTRLC = ((usart)->CTRLC & (~USART_CMODE_gm)) | usartmode;
     bb0:	fd d1       	rcall	.+1018   	; 0xfac <sysclk_enable_module>
     bb2:	8d 81       	ldd	r24, Y+5	; 0x05
     bb4:	8f 73       	andi	r24, 0x3F	; 63
 *  \param twoStopBits Enable two stop bit mode. Use bool type.
 */
static inline void usart_format_set(USART_t *usart, USART_CHSIZE_t charSize,
		USART_PMODE_t parityMode, bool twoStopBits)
{
	(usart)->CTRLC = (uint8_t)charSize | parityMode
     bb6:	8d 83       	std	Y+5, r24	; 0x05
     bb8:	f8 01       	movw	r30, r16
     bba:	95 81       	ldd	r25, Z+5	; 0x05
     bbc:	84 81       	ldd	r24, Z+4	; 0x04
     bbe:	89 2b       	or	r24, r25
     bc0:	96 81       	ldd	r25, Z+6	; 0x06
     bc2:	91 11       	cpse	r25, r1
     bc4:	98 e0       	ldi	r25, 0x08	; 8
     bc6:	89 2b       	or	r24, r25
	bool result;
	sysclk_enable_peripheral_clock(usart);
	usart_set_mode(usart, USART_CMODE_ASYNCHRONOUS_gc);
	usart_format_set(usart, opt->charlength, opt->paritytype,
			opt->stopbits);
	result = usart_set_baudrate(usart, opt->baudrate, sysclk_get_per_hz());
     bc8:	8d 83       	std	Y+5, r24	; 0x05
     bca:	f8 01       	movw	r30, r16
     bcc:	40 81       	ld	r20, Z
     bce:	51 81       	ldd	r21, Z+1	; 0x01
     bd0:	62 81       	ldd	r22, Z+2	; 0x02
     bd2:	73 81       	ldd	r23, Z+3	; 0x03
     bd4:	00 e0       	ldi	r16, 0x00	; 0
     bd6:	18 e4       	ldi	r17, 0x48	; 72
     bd8:	28 ee       	ldi	r18, 0xE8	; 232
     bda:	31 e0       	ldi	r19, 0x01	; 1
     bdc:	ce 01       	movw	r24, r28
     bde:	97 dd       	rcall	.-1234   	; 0x70e <usart_set_baudrate>
 *
 * \param usart Pointer to the USART module.
 */
static inline void usart_tx_enable(USART_t *usart)
{
	(usart)->CTRLB |= USART_TXEN_bm;
     be0:	9c 81       	ldd	r25, Y+4	; 0x04
     be2:	98 60       	ori	r25, 0x08	; 8
     be4:	9c 83       	std	Y+4, r25	; 0x04
 *
 * \param usart Pointer to the USART module
 */
static inline void usart_rx_enable(USART_t *usart)
{
	(usart)->CTRLB |= USART_RXEN_bm;
     be6:	9c 81       	ldd	r25, Y+4	; 0x04
     be8:	90 61       	ori	r25, 0x10	; 16
     bea:	9c 83       	std	Y+4, r25	; 0x04
	usart_tx_enable(usart);
	usart_rx_enable(usart);
	
	return result;
}
     bec:	df 91       	pop	r29
     bee:	cf 91       	pop	r28
     bf0:	1f 91       	pop	r17
     bf2:	0f 91       	pop	r16
     bf4:	08 95       	ret

00000bf6 <usart_serial_getchar>:
 * \param usart   Base address of the USART instance.
 * \param data   Data to read
 *
 */
static inline void usart_serial_getchar(usart_if usart, uint8_t *data)
{
     bf6:	cf 93       	push	r28
     bf8:	df 93       	push	r29
     bfa:	eb 01       	movw	r28, r22
	*data = usart_getchar(usart);
     bfc:	82 dd       	rcall	.-1276   	; 0x702 <usart_getchar>
     bfe:	88 83       	st	Y, r24
}
     c00:	df 91       	pop	r29
     c02:	cf 91       	pop	r28
     c04:	08 95       	ret

00000c06 <usart_serial_putchar>:
 *
 * \return Status code
 */
static inline enum status_code usart_serial_putchar(usart_if usart, uint8_t c)
{
	return usart_putchar(usart, c);
     c06:	75 cd       	rjmp	.-1302   	; 0x6f2 <usart_putchar>
}
     c08:	08 95       	ret

00000c0a <data_terminal_init>:

#include <asf.h>
#include "uart.h"

void data_terminal_init()
{
     c0a:	cf 93       	push	r28
     c0c:	df 93       	push	r29
     c0e:	cd b7       	in	r28, 0x3d	; 61
     c10:	de b7       	in	r29, 0x3e	; 62
     c12:	27 97       	sbiw	r28, 0x07	; 7
     c14:	cd bf       	out	0x3d, r28	; 61
     c16:	de bf       	out	0x3e, r29	; 62
		sysclk_enable_module(SYSCLK_PORT_D, SYSCLK_USART0);
	}
#endif
#ifdef USARTE0
	else if (module == &USARTE0) {
		sysclk_enable_module(SYSCLK_PORT_E, SYSCLK_USART0);
     c18:	60 e1       	ldi	r22, 0x10	; 16
     c1a:	85 e0       	ldi	r24, 0x05	; 5
     c1c:	c7 d1       	rcall	.+910    	; 0xfac <sysclk_enable_module>
		.charlength =	UART_TERMINAL_SERIAL_CHAR_LEN,
		.paritytype =	UART_TERMINAL_SERIAL_PARITY,
		.stopbits	=	UART_TERMINAL_SERIAL_STOP_BIT
	};
	
	UART_TERMINAL_PORT.DIR |= UART_TERMINAL_TX_PIN;	// set the USART transmit pin to output
     c1e:	e0 e8       	ldi	r30, 0x80	; 128
     c20:	f6 e0       	ldi	r31, 0x06	; 6
     c22:	80 81       	ld	r24, Z
     c24:	88 60       	ori	r24, 0x08	; 8
     c26:	80 83       	st	Z, r24
 * \param opt         Options needed to set up RS232 communication (see \ref usart_options_t).
 *
 */
static inline void stdio_serial_init(volatile void *usart, const usart_serial_options_t *opt)
{
	stdio_base = (void *)usart;
     c28:	80 ea       	ldi	r24, 0xA0	; 160
     c2a:	9a e0       	ldi	r25, 0x0A	; 10
     c2c:	80 93 a5 21 	sts	0x21A5, r24	; 0x8021a5 <stdio_base>
     c30:	90 93 a6 21 	sts	0x21A6, r25	; 0x8021a6 <stdio_base+0x1>
	ptr_put = (int (*)(void volatile*,char))&usart_serial_putchar;
     c34:	83 e0       	ldi	r24, 0x03	; 3
     c36:	96 e0       	ldi	r25, 0x06	; 6
     c38:	80 93 a3 21 	sts	0x21A3, r24	; 0x8021a3 <ptr_put>
     c3c:	90 93 a4 21 	sts	0x21A4, r25	; 0x8021a4 <ptr_put+0x1>
	ptr_get = (void (*)(void volatile*,char*))&usart_serial_getchar;
     c40:	8b ef       	ldi	r24, 0xFB	; 251
     c42:	95 e0       	ldi	r25, 0x05	; 5
     c44:	80 93 a1 21 	sts	0x21A1, r24	; 0x8021a1 <ptr_get>
     c48:	90 93 a2 21 	sts	0x21A2, r25	; 0x8021a2 <ptr_get+0x1>
static inline bool usart_serial_init(usart_if usart, const
		usart_serial_options_t *options)
{
	// USART options.
	usart_rs232_options_t usart_rs232_options;
	usart_rs232_options.charlength   = options->charlength;
     c4c:	e6 e0       	ldi	r30, 0x06	; 6
     c4e:	f0 e2       	ldi	r31, 0x20	; 32
     c50:	84 81       	ldd	r24, Z+4	; 0x04
     c52:	8d 83       	std	Y+5, r24	; 0x05
	usart_rs232_options.paritytype   = options->paritytype;
     c54:	85 81       	ldd	r24, Z+5	; 0x05
     c56:	8e 83       	std	Y+6, r24	; 0x06
	usart_rs232_options.stopbits     = options->stopbits;
     c58:	86 81       	ldd	r24, Z+6	; 0x06
     c5a:	8f 83       	std	Y+7, r24	; 0x07
	usart_rs232_options.baudrate     = options->baudrate;
     c5c:	80 81       	ld	r24, Z
     c5e:	91 81       	ldd	r25, Z+1	; 0x01
     c60:	a2 81       	ldd	r26, Z+2	; 0x02
     c62:	b3 81       	ldd	r27, Z+3	; 0x03
     c64:	89 83       	std	Y+1, r24	; 0x01
     c66:	9a 83       	std	Y+2, r25	; 0x02
     c68:	ab 83       	std	Y+3, r26	; 0x03
     c6a:	bc 83       	std	Y+4, r27	; 0x04
		sysclk_enable_module(SYSCLK_PORT_D,PR_USART1_bm);
	}
#endif
#ifdef USARTE0
	if((uint16_t)usart == (uint16_t)&USARTE0) {
		sysclk_enable_module(SYSCLK_PORT_E,PR_USART0_bm);
     c6c:	60 e1       	ldi	r22, 0x10	; 16
     c6e:	85 e0       	ldi	r24, 0x05	; 5
     c70:	9d d1       	rcall	.+826    	; 0xfac <sysclk_enable_module>
#ifdef USARTF1
	if((uint16_t)usart == (uint16_t)&USARTF1) {
		sysclk_enable_module(SYSCLK_PORT_F,PR_USART1_bm);
	}
#endif
	if (usart_init_rs232(usart, &usart_rs232_options)) {
     c72:	be 01       	movw	r22, r28
     c74:	6f 5f       	subi	r22, 0xFF	; 255
     c76:	7f 4f       	sbci	r23, 0xFF	; 255
     c78:	80 ea       	ldi	r24, 0xA0	; 160
     c7a:	9a e0       	ldi	r25, 0x0A	; 10
     c7c:	5b de       	rcall	.-842    	; 0x934 <usart_init_rs232>
# endif

# if defined(__GNUC__)
#  if (XMEGA || MEGA_RF)
	// For AVR GCC libc print redirection uses fdevopen.
	fdevopen((int (*)(char, FILE*))(_write),(int (*)(FILE*))(_read));
     c7e:	66 e6       	ldi	r22, 0x66	; 102
     c80:	71 e0       	ldi	r23, 0x01	; 1
     c82:	8f e7       	ldi	r24, 0x7F	; 127
     c84:	91 e0       	ldi	r25, 0x01	; 1
     c86:	0e 94 af 0f 	call	0x1f5e	; 0x1f5e <fdevopen>
	
	stdio_serial_init(UART_TERMINAL_SERIAL, &usart_config); // function maps the serial output to printf, not necessary to know how it works
     c8a:	27 96       	adiw	r28, 0x07	; 7
     c8c:	cd bf       	out	0x3d, r28	; 61
     c8e:	de bf       	out	0x3e, r29	; 62
     c90:	df 91       	pop	r29
     c92:	cf 91       	pop	r28
     c94:	08 95       	ret

00000c96 <XBEE_uart_init>:

#include <asf.h>
#include <string.h>
#include "xbee.h"

void XBEE_uart_init(void){
     c96:	cf 93       	push	r28
     c98:	df 93       	push	r29
     c9a:	cd b7       	in	r28, 0x3d	; 61
     c9c:	de b7       	in	r29, 0x3e	; 62
     c9e:	27 97       	sbiw	r28, 0x07	; 7
     ca0:	cd bf       	out	0x3d, r28	; 61
     ca2:	de bf       	out	0x3e, r29	; 62
		sysclk_enable_module(SYSCLK_PORT_F, SYSCLK_SPI);
	}
#endif
#ifdef USARTC0
	else if (module == &USARTC0) {
		sysclk_enable_module(SYSCLK_PORT_C, SYSCLK_USART0);
     ca4:	60 e1       	ldi	r22, 0x10	; 16
     ca6:	83 e0       	ldi	r24, 0x03	; 3
     ca8:	81 d1       	rcall	.+770    	; 0xfac <sysclk_enable_module>
		.charlength =	XBEE_TERMINAL_SERIAL_CHAR_LEN,
		.paritytype =	XBEE_TERMINAL_SERIAL_PARITY,
		.stopbits	=	XBEE_TERMINAL_SERIAL_STOP_BIT
	};
	
	XBEE_TERMINAL_PORT.DIR |= XBEE_TERMINAL_TX_PIN; // Puts pin to output
     caa:	e0 e4       	ldi	r30, 0x40	; 64
     cac:	f6 e0       	ldi	r31, 0x06	; 6
     cae:	80 81       	ld	r24, Z
     cb0:	88 60       	ori	r24, 0x08	; 8
     cb2:	80 83       	st	Z, r24
static inline bool usart_serial_init(usart_if usart, const
		usart_serial_options_t *options)
{
	// USART options.
	usart_rs232_options_t usart_rs232_options;
	usart_rs232_options.charlength   = options->charlength;
     cb4:	ed e0       	ldi	r30, 0x0D	; 13
     cb6:	f0 e2       	ldi	r31, 0x20	; 32
     cb8:	84 81       	ldd	r24, Z+4	; 0x04
     cba:	8d 83       	std	Y+5, r24	; 0x05
	usart_rs232_options.paritytype   = options->paritytype;
     cbc:	85 81       	ldd	r24, Z+5	; 0x05
     cbe:	8e 83       	std	Y+6, r24	; 0x06
	usart_rs232_options.stopbits     = options->stopbits;
     cc0:	86 81       	ldd	r24, Z+6	; 0x06
     cc2:	8f 83       	std	Y+7, r24	; 0x07
	usart_rs232_options.baudrate     = options->baudrate;
     cc4:	80 81       	ld	r24, Z
     cc6:	91 81       	ldd	r25, Z+1	; 0x01
     cc8:	a2 81       	ldd	r26, Z+2	; 0x02
     cca:	b3 81       	ldd	r27, Z+3	; 0x03
     ccc:	89 83       	std	Y+1, r24	; 0x01
     cce:	9a 83       	std	Y+2, r25	; 0x02
     cd0:	ab 83       	std	Y+3, r26	; 0x03
     cd2:	bc 83       	std	Y+4, r27	; 0x04

#ifdef USARTC0
	if((uint16_t)usart == (uint16_t)&USARTC0) {
		sysclk_enable_module(SYSCLK_PORT_C,PR_USART0_bm);
     cd4:	60 e1       	ldi	r22, 0x10	; 16
     cd6:	83 e0       	ldi	r24, 0x03	; 3
     cd8:	69 d1       	rcall	.+722    	; 0xfac <sysclk_enable_module>
#ifdef USARTF1
	if((uint16_t)usart == (uint16_t)&USARTF1) {
		sysclk_enable_module(SYSCLK_PORT_F,PR_USART1_bm);
	}
#endif
	if (usart_init_rs232(usart, &usart_rs232_options)) {
     cda:	be 01       	movw	r22, r28
     cdc:	6f 5f       	subi	r22, 0xFF	; 255
     cde:	7f 4f       	sbci	r23, 0xFF	; 255
     ce0:	80 ea       	ldi	r24, 0xA0	; 160
     ce2:	98 e0       	ldi	r25, 0x08	; 8
     ce4:	27 de       	rcall	.-946    	; 0x934 <usart_init_rs232>
	
	usart_serial_init(XBEE_TERMINAL_SERIAL,&XBEE_config);
}
     ce6:	27 96       	adiw	r28, 0x07	; 7
     ce8:	cd bf       	out	0x3d, r28	; 61
     cea:	de bf       	out	0x3e, r29	; 62
     cec:	df 91       	pop	r29
     cee:	cf 91       	pop	r28
     cf0:	08 95       	ret

00000cf2 <XBEE_write>:

void XBEE_write(char* data){
     cf2:	1f 93       	push	r17
     cf4:	cf 93       	push	r28
     cf6:	df 93       	push	r29
     cf8:	ec 01       	movw	r28, r24
	for(uint8_t i = 0; i < strlen(data); i++){
     cfa:	10 e0       	ldi	r17, 0x00	; 0
     cfc:	08 c0       	rjmp	.+16     	; 0xd0e <XBEE_write+0x1c>
		usart_putchar(XBEE_TERMINAL_SERIAL, (uint8_t) data[i]);
     cfe:	fe 01       	movw	r30, r28
     d00:	e8 0f       	add	r30, r24
     d02:	f9 1f       	adc	r31, r25
     d04:	60 81       	ld	r22, Z
     d06:	80 ea       	ldi	r24, 0xA0	; 160
     d08:	98 e0       	ldi	r25, 0x08	; 8
     d0a:	f3 dc       	rcall	.-1562   	; 0x6f2 <usart_putchar>
	
	usart_serial_init(XBEE_TERMINAL_SERIAL,&XBEE_config);
}

void XBEE_write(char* data){
	for(uint8_t i = 0; i < strlen(data); i++){
     d0c:	1f 5f       	subi	r17, 0xFF	; 255
     d0e:	81 2f       	mov	r24, r17
     d10:	90 e0       	ldi	r25, 0x00	; 0
     d12:	fe 01       	movw	r30, r28
     d14:	01 90       	ld	r0, Z+
     d16:	00 20       	and	r0, r0
     d18:	e9 f7       	brne	.-6      	; 0xd14 <XBEE_write+0x22>
     d1a:	31 97       	sbiw	r30, 0x01	; 1
     d1c:	ec 1b       	sub	r30, r28
     d1e:	fd 0b       	sbc	r31, r29
     d20:	8e 17       	cp	r24, r30
     d22:	9f 07       	cpc	r25, r31
     d24:	60 f3       	brcs	.-40     	; 0xcfe <XBEE_write+0xc>
		usart_putchar(XBEE_TERMINAL_SERIAL, (uint8_t) data[i]);
	}
	usart_putchar(XBEE_TERMINAL_SERIAL, 10);
     d26:	6a e0       	ldi	r22, 0x0A	; 10
     d28:	80 ea       	ldi	r24, 0xA0	; 160
     d2a:	98 e0       	ldi	r25, 0x08	; 8
     d2c:	e2 dc       	rcall	.-1596   	; 0x6f2 <usart_putchar>
}
     d2e:	df 91       	pop	r29
     d30:	cf 91       	pop	r28
     d32:	1f 91       	pop	r17
     d34:	08 95       	ret

00000d36 <rb16_write>:
	}
	else
	{
		buffer->tail = (buffer->tail + move_distance) % buffer->array_length; //Modulus is so that we don't point to above the buffer's location
	}
}
     d36:	cf 93       	push	r28
     d38:	df 93       	push	r29
     d3a:	fc 01       	movw	r30, r24
     d3c:	41 15       	cp	r20, r1
     d3e:	51 05       	cpc	r21, r1
     d40:	b1 f1       	breq	.+108    	; 0xdae <rb16_write+0x78>
     d42:	80 e0       	ldi	r24, 0x00	; 0
     d44:	90 e0       	ldi	r25, 0x00	; 0
     d46:	20 e0       	ldi	r18, 0x00	; 0
     d48:	88 0f       	add	r24, r24
     d4a:	99 1f       	adc	r25, r25
     d4c:	db 01       	movw	r26, r22
     d4e:	a8 0f       	add	r26, r24
     d50:	b9 1f       	adc	r27, r25
     d52:	8d 91       	ld	r24, X+
     d54:	9c 91       	ld	r25, X
     d56:	a2 81       	ldd	r26, Z+2	; 0x02
     d58:	b3 81       	ldd	r27, Z+3	; 0x03
     d5a:	aa 0f       	add	r26, r26
     d5c:	bb 1f       	adc	r27, r27
     d5e:	c6 81       	ldd	r28, Z+6	; 0x06
     d60:	d7 81       	ldd	r29, Z+7	; 0x07
     d62:	ac 0f       	add	r26, r28
     d64:	bd 1f       	adc	r27, r29
     d66:	8d 93       	st	X+, r24
     d68:	9c 93       	st	X, r25
     d6a:	82 81       	ldd	r24, Z+2	; 0x02
     d6c:	93 81       	ldd	r25, Z+3	; 0x03
     d6e:	01 96       	adiw	r24, 0x01	; 1
     d70:	82 83       	std	Z+2, r24	; 0x02
     d72:	93 83       	std	Z+3, r25	; 0x03
     d74:	a0 81       	ld	r26, Z
     d76:	b1 81       	ldd	r27, Z+1	; 0x01
     d78:	8a 17       	cp	r24, r26
     d7a:	9b 07       	cpc	r25, r27
     d7c:	11 f4       	brne	.+4      	; 0xd82 <rb16_write+0x4c>
     d7e:	12 82       	std	Z+2, r1	; 0x02
     d80:	13 82       	std	Z+3, r1	; 0x03
     d82:	82 81       	ldd	r24, Z+2	; 0x02
     d84:	93 81       	ldd	r25, Z+3	; 0x03
     d86:	c4 81       	ldd	r28, Z+4	; 0x04
     d88:	d5 81       	ldd	r29, Z+5	; 0x05
     d8a:	8c 17       	cp	r24, r28
     d8c:	9d 07       	cpc	r25, r29
     d8e:	49 f4       	brne	.+18     	; 0xda2 <rb16_write+0x6c>
     d90:	01 96       	adiw	r24, 0x01	; 1
     d92:	a8 17       	cp	r26, r24
     d94:	b9 07       	cpc	r27, r25
     d96:	19 f0       	breq	.+6      	; 0xd9e <rb16_write+0x68>
     d98:	84 83       	std	Z+4, r24	; 0x04
     d9a:	95 83       	std	Z+5, r25	; 0x05
     d9c:	02 c0       	rjmp	.+4      	; 0xda2 <rb16_write+0x6c>
     d9e:	14 82       	std	Z+4, r1	; 0x04
     da0:	15 82       	std	Z+5, r1	; 0x05
     da2:	2f 5f       	subi	r18, 0xFF	; 255
     da4:	82 2f       	mov	r24, r18
     da6:	90 e0       	ldi	r25, 0x00	; 0
     da8:	84 17       	cp	r24, r20
     daa:	95 07       	cpc	r25, r21
     dac:	68 f2       	brcs	.-102    	; 0xd48 <rb16_write+0x12>
     dae:	df 91       	pop	r29
     db0:	cf 91       	pop	r28
     db2:	08 95       	ret

00000db4 <rb16_init>:
     db4:	fc 01       	movw	r30, r24
     db6:	12 82       	std	Z+2, r1	; 0x02
     db8:	13 82       	std	Z+3, r1	; 0x03
     dba:	14 82       	std	Z+4, r1	; 0x04
     dbc:	15 82       	std	Z+5, r1	; 0x05
     dbe:	66 83       	std	Z+6, r22	; 0x06
     dc0:	77 83       	std	Z+7, r23	; 0x07
     dc2:	40 83       	st	Z, r20
     dc4:	51 83       	std	Z+1, r21	; 0x01
     dc6:	08 95       	ret

00000dc8 <rb16_get_nth>:
     dc8:	dc 01       	movw	r26, r24
     dca:	12 96       	adiw	r26, 0x02	; 2
     dcc:	ed 91       	ld	r30, X+
     dce:	fc 91       	ld	r31, X
     dd0:	13 97       	sbiw	r26, 0x03	; 3
     dd2:	cb 01       	movw	r24, r22
     dd4:	01 96       	adiw	r24, 0x01	; 1
     dd6:	e8 17       	cp	r30, r24
     dd8:	f9 07       	cpc	r31, r25
     dda:	78 f0       	brcs	.+30     	; 0xdfa <rb16_get_nth+0x32>
     ddc:	e1 50       	subi	r30, 0x01	; 1
     dde:	f0 48       	sbci	r31, 0x80	; 128
     de0:	e6 1b       	sub	r30, r22
     de2:	f7 0b       	sbc	r31, r23
     de4:	ee 0f       	add	r30, r30
     de6:	ff 1f       	adc	r31, r31
     de8:	16 96       	adiw	r26, 0x06	; 6
     dea:	8d 91       	ld	r24, X+
     dec:	9c 91       	ld	r25, X
     dee:	17 97       	sbiw	r26, 0x07	; 7
     df0:	e8 0f       	add	r30, r24
     df2:	f9 1f       	adc	r31, r25
     df4:	80 81       	ld	r24, Z
     df6:	91 81       	ldd	r25, Z+1	; 0x01
     df8:	08 95       	ret
     dfa:	2d 91       	ld	r18, X+
     dfc:	3c 91       	ld	r19, X
     dfe:	11 97       	sbiw	r26, 0x01	; 1
     e00:	e2 0f       	add	r30, r18
     e02:	f3 1f       	adc	r31, r19
     e04:	e1 50       	subi	r30, 0x01	; 1
     e06:	f0 48       	sbci	r31, 0x80	; 128
     e08:	e6 1b       	sub	r30, r22
     e0a:	f7 0b       	sbc	r31, r23
     e0c:	ee 0f       	add	r30, r30
     e0e:	ff 1f       	adc	r31, r31
     e10:	16 96       	adiw	r26, 0x06	; 6
     e12:	8d 91       	ld	r24, X+
     e14:	9c 91       	ld	r25, X
     e16:	17 97       	sbiw	r26, 0x07	; 7
     e18:	e8 0f       	add	r30, r24
     e1a:	f9 1f       	adc	r31, r25
     e1c:	80 81       	ld	r24, Z
     e1e:	91 81       	ldd	r25, Z+1	; 0x01
     e20:	08 95       	ret

00000e22 <rb32_write>:
     e22:	cf 92       	push	r12
     e24:	df 92       	push	r13
     e26:	ef 92       	push	r14
     e28:	ff 92       	push	r15
     e2a:	cf 93       	push	r28
     e2c:	df 93       	push	r29
     e2e:	fc 01       	movw	r30, r24
     e30:	41 15       	cp	r20, r1
     e32:	51 05       	cpc	r21, r1
     e34:	09 f4       	brne	.+2      	; 0xe38 <rb32_write+0x16>
     e36:	3f c0       	rjmp	.+126    	; 0xeb6 <rb32_write+0x94>
     e38:	80 e0       	ldi	r24, 0x00	; 0
     e3a:	90 e0       	ldi	r25, 0x00	; 0
     e3c:	20 e0       	ldi	r18, 0x00	; 0
     e3e:	88 0f       	add	r24, r24
     e40:	99 1f       	adc	r25, r25
     e42:	88 0f       	add	r24, r24
     e44:	99 1f       	adc	r25, r25
     e46:	db 01       	movw	r26, r22
     e48:	a8 0f       	add	r26, r24
     e4a:	b9 1f       	adc	r27, r25
     e4c:	cd 90       	ld	r12, X+
     e4e:	dd 90       	ld	r13, X+
     e50:	ed 90       	ld	r14, X+
     e52:	fc 90       	ld	r15, X
     e54:	a2 81       	ldd	r26, Z+2	; 0x02
     e56:	b3 81       	ldd	r27, Z+3	; 0x03
     e58:	aa 0f       	add	r26, r26
     e5a:	bb 1f       	adc	r27, r27
     e5c:	aa 0f       	add	r26, r26
     e5e:	bb 1f       	adc	r27, r27
     e60:	86 81       	ldd	r24, Z+6	; 0x06
     e62:	97 81       	ldd	r25, Z+7	; 0x07
     e64:	a8 0f       	add	r26, r24
     e66:	b9 1f       	adc	r27, r25
     e68:	cd 92       	st	X+, r12
     e6a:	dd 92       	st	X+, r13
     e6c:	ed 92       	st	X+, r14
     e6e:	fc 92       	st	X, r15
     e70:	13 97       	sbiw	r26, 0x03	; 3
     e72:	82 81       	ldd	r24, Z+2	; 0x02
     e74:	93 81       	ldd	r25, Z+3	; 0x03
     e76:	01 96       	adiw	r24, 0x01	; 1
     e78:	82 83       	std	Z+2, r24	; 0x02
     e7a:	93 83       	std	Z+3, r25	; 0x03
     e7c:	a0 81       	ld	r26, Z
     e7e:	b1 81       	ldd	r27, Z+1	; 0x01
     e80:	8a 17       	cp	r24, r26
     e82:	9b 07       	cpc	r25, r27
     e84:	11 f4       	brne	.+4      	; 0xe8a <rb32_write+0x68>
     e86:	12 82       	std	Z+2, r1	; 0x02
     e88:	13 82       	std	Z+3, r1	; 0x03
     e8a:	82 81       	ldd	r24, Z+2	; 0x02
     e8c:	93 81       	ldd	r25, Z+3	; 0x03
     e8e:	c4 81       	ldd	r28, Z+4	; 0x04
     e90:	d5 81       	ldd	r29, Z+5	; 0x05
     e92:	8c 17       	cp	r24, r28
     e94:	9d 07       	cpc	r25, r29
     e96:	49 f4       	brne	.+18     	; 0xeaa <rb32_write+0x88>
     e98:	01 96       	adiw	r24, 0x01	; 1
     e9a:	a8 17       	cp	r26, r24
     e9c:	b9 07       	cpc	r27, r25
     e9e:	19 f0       	breq	.+6      	; 0xea6 <rb32_write+0x84>
     ea0:	84 83       	std	Z+4, r24	; 0x04
     ea2:	95 83       	std	Z+5, r25	; 0x05
     ea4:	02 c0       	rjmp	.+4      	; 0xeaa <rb32_write+0x88>
     ea6:	14 82       	std	Z+4, r1	; 0x04
     ea8:	15 82       	std	Z+5, r1	; 0x05
     eaa:	2f 5f       	subi	r18, 0xFF	; 255
     eac:	82 2f       	mov	r24, r18
     eae:	90 e0       	ldi	r25, 0x00	; 0
     eb0:	84 17       	cp	r24, r20
     eb2:	95 07       	cpc	r25, r21
     eb4:	20 f2       	brcs	.-120    	; 0xe3e <rb32_write+0x1c>
     eb6:	df 91       	pop	r29
     eb8:	cf 91       	pop	r28
     eba:	ff 90       	pop	r15
     ebc:	ef 90       	pop	r14
     ebe:	df 90       	pop	r13
     ec0:	cf 90       	pop	r12
     ec2:	08 95       	ret

00000ec4 <rb32_init>:
     ec4:	fc 01       	movw	r30, r24
     ec6:	12 82       	std	Z+2, r1	; 0x02
     ec8:	13 82       	std	Z+3, r1	; 0x03
     eca:	14 82       	std	Z+4, r1	; 0x04
     ecc:	15 82       	std	Z+5, r1	; 0x05
     ece:	66 83       	std	Z+6, r22	; 0x06
     ed0:	77 83       	std	Z+7, r23	; 0x07
     ed2:	40 83       	st	Z, r20
     ed4:	51 83       	std	Z+1, r21	; 0x01
     ed6:	08 95       	ret

00000ed8 <rb32_get_nth>:
	}
}

int32_t rb32_get_nth(RingBuffer32_t* buffer, uint16_t index)
//Returns the nth newest value in the RingBuffer
{
     ed8:	dc 01       	movw	r26, r24
	//Does not do bounds checking, so be careful in usage
	//	Verify index < rb16_length() to guard against requesting a value beyond what the buffer currently stores
	//	Verify index < buffer->array_length to guard against requesting a value from some random memory location
	
	//Most recent value is in head - 1
	if (index + 1 <= buffer->head) //Value is between zero and buffer->head
     eda:	12 96       	adiw	r26, 0x02	; 2
     edc:	ed 91       	ld	r30, X+
     ede:	fc 91       	ld	r31, X
     ee0:	13 97       	sbiw	r26, 0x03	; 3
     ee2:	cb 01       	movw	r24, r22
     ee4:	01 96       	adiw	r24, 0x01	; 1
     ee6:	e8 17       	cp	r30, r24
     ee8:	f9 07       	cpc	r31, r25
     eea:	98 f0       	brcs	.+38     	; 0xf12 <rb32_get_nth+0x3a>
		return buffer->buffer[buffer->head - index - 1];
     eec:	e1 50       	subi	r30, 0x01	; 1
     eee:	f0 4c       	sbci	r31, 0xC0	; 192
     ef0:	e6 1b       	sub	r30, r22
     ef2:	f7 0b       	sbc	r31, r23
     ef4:	ee 0f       	add	r30, r30
     ef6:	ff 1f       	adc	r31, r31
     ef8:	ee 0f       	add	r30, r30
     efa:	ff 1f       	adc	r31, r31
     efc:	16 96       	adiw	r26, 0x06	; 6
     efe:	8d 91       	ld	r24, X+
     f00:	9c 91       	ld	r25, X
     f02:	17 97       	sbiw	r26, 0x07	; 7
     f04:	e8 0f       	add	r30, r24
     f06:	f9 1f       	adc	r31, r25
     f08:	60 81       	ld	r22, Z
     f0a:	71 81       	ldd	r23, Z+1	; 0x01
     f0c:	82 81       	ldd	r24, Z+2	; 0x02
     f0e:	93 81       	ldd	r25, Z+3	; 0x03
     f10:	08 95       	ret
	else
		return buffer->buffer[buffer->array_length - 1 - index + buffer->head];
     f12:	2d 91       	ld	r18, X+
     f14:	3c 91       	ld	r19, X
     f16:	11 97       	sbiw	r26, 0x01	; 1
     f18:	e2 0f       	add	r30, r18
     f1a:	f3 1f       	adc	r31, r19
     f1c:	e1 50       	subi	r30, 0x01	; 1
     f1e:	f0 4c       	sbci	r31, 0xC0	; 192
     f20:	e6 1b       	sub	r30, r22
     f22:	f7 0b       	sbc	r31, r23
     f24:	ee 0f       	add	r30, r30
     f26:	ff 1f       	adc	r31, r31
     f28:	ee 0f       	add	r30, r30
     f2a:	ff 1f       	adc	r31, r31
     f2c:	16 96       	adiw	r26, 0x06	; 6
     f2e:	8d 91       	ld	r24, X+
     f30:	9c 91       	ld	r25, X
     f32:	17 97       	sbiw	r26, 0x07	; 7
     f34:	e8 0f       	add	r30, r24
     f36:	f9 1f       	adc	r31, r25
     f38:	60 81       	ld	r22, Z
     f3a:	71 81       	ldd	r23, Z+1	; 0x01
     f3c:	82 81       	ldd	r24, Z+2	; 0x02
     f3e:	93 81       	ldd	r25, Z+3	; 0x03
}
     f40:	08 95       	ret

00000f42 <sysclk_init>:
#  include <nvm.h>
#endif


void sysclk_init(void)
{
     f42:	cf 93       	push	r28
     f44:	df 93       	push	r29
     f46:	1f 92       	push	r1
     f48:	1f 92       	push	r1
     f4a:	cd b7       	in	r28, 0x3d	; 61
     f4c:	de b7       	in	r29, 0x3e	; 62
#endif
	bool need_rc2mhz = false;

	/* Turn off all peripheral clocks that can be turned off. */
	for (i = 0; i <= SYSCLK_PORT_F; i++) {
		*(reg++) = 0xff;
     f4e:	8f ef       	ldi	r24, 0xFF	; 255
     f50:	80 93 70 00 	sts	0x0070, r24	; 0x800070 <__TEXT_REGION_LENGTH__+0x700070>
     f54:	80 93 71 00 	sts	0x0071, r24	; 0x800071 <__TEXT_REGION_LENGTH__+0x700071>
     f58:	80 93 72 00 	sts	0x0072, r24	; 0x800072 <__TEXT_REGION_LENGTH__+0x700072>
     f5c:	80 93 73 00 	sts	0x0073, r24	; 0x800073 <__TEXT_REGION_LENGTH__+0x700073>
     f60:	80 93 74 00 	sts	0x0074, r24	; 0x800074 <__TEXT_REGION_LENGTH__+0x700074>
     f64:	80 93 75 00 	sts	0x0075, r24	; 0x800075 <__TEXT_REGION_LENGTH__+0x700075>
     f68:	80 93 76 00 	sts	0x0076, r24	; 0x800076 <__TEXT_REGION_LENGTH__+0x700076>

typedef uint8_t irqflags_t;

static inline irqflags_t cpu_irq_save(void)
{
	volatile irqflags_t flags = SREG;
     f6c:	8f b7       	in	r24, 0x3f	; 63
     f6e:	8a 83       	std	Y+2, r24	; 0x02
	cpu_irq_disable();
     f70:	f8 94       	cli
	return flags;
     f72:	9a 81       	ldd	r25, Y+2	; 0x02
	irqflags_t flags;

	Assert(id != OSC_ID_USBSOF);

	flags = cpu_irq_save();
	OSC.CTRL |= id;
     f74:	e0 e5       	ldi	r30, 0x50	; 80
     f76:	f0 e0       	ldi	r31, 0x00	; 0
     f78:	80 81       	ld	r24, Z
     f7a:	82 60       	ori	r24, 0x02	; 2
     f7c:	80 83       	st	Z, r24
}

static inline void cpu_irq_restore(irqflags_t flags)
{
	barrier();
	SREG = flags;
     f7e:	9f bf       	out	0x3f, r25	; 63

static inline bool osc_is_ready(uint8_t id)
{
	Assert(id != OSC_ID_USBSOF);

	return OSC.STATUS & id;
     f80:	81 81       	ldd	r24, Z+1	; 0x01
 *
 * \param id A number identifying the oscillator to wait for.
 */
static inline void osc_wait_ready(uint8_t id)
{
	while (!osc_is_ready(id)) {
     f82:	81 ff       	sbrs	r24, 1
     f84:	fd cf       	rjmp	.-6      	; 0xf80 <sysclk_init+0x3e>
		default:
			//unhandled_case(CONFIG_SYSCLK_SOURCE);
			return;
		}

		ccp_write_io((uint8_t *)&CLK.CTRL, CONFIG_SYSCLK_SOURCE);
     f86:	61 e0       	ldi	r22, 0x01	; 1
     f88:	80 e4       	ldi	r24, 0x40	; 64
     f8a:	90 e0       	ldi	r25, 0x00	; 0
     f8c:	25 d0       	rcall	.+74     	; 0xfd8 <ccp_write_io>

typedef uint8_t irqflags_t;

static inline irqflags_t cpu_irq_save(void)
{
	volatile irqflags_t flags = SREG;
     f8e:	8f b7       	in	r24, 0x3f	; 63
     f90:	89 83       	std	Y+1, r24	; 0x01
	cpu_irq_disable();
     f92:	f8 94       	cli
	return flags;
     f94:	99 81       	ldd	r25, Y+1	; 0x01
	irqflags_t flags;

	Assert(id != OSC_ID_USBSOF);

	flags = cpu_irq_save();
	OSC.CTRL &= ~id;
     f96:	e0 e5       	ldi	r30, 0x50	; 80
     f98:	f0 e0       	ldi	r31, 0x00	; 0
     f9a:	80 81       	ld	r24, Z
     f9c:	8e 7f       	andi	r24, 0xFE	; 254
     f9e:	80 83       	st	Z, r24
}

static inline void cpu_irq_restore(irqflags_t flags)
{
	barrier();
	SREG = flags;
     fa0:	9f bf       	out	0x3f, r25	; 63
	}

#ifdef CONFIG_RTC_SOURCE
	sysclk_rtcsrc_enable(CONFIG_RTC_SOURCE);
#endif
}
     fa2:	0f 90       	pop	r0
     fa4:	0f 90       	pop	r0
     fa6:	df 91       	pop	r29
     fa8:	cf 91       	pop	r28
     faa:	08 95       	ret

00000fac <sysclk_enable_module>:

void sysclk_enable_module(enum sysclk_port_id port, uint8_t id)
{
     fac:	cf 93       	push	r28
     fae:	df 93       	push	r29
     fb0:	1f 92       	push	r1
     fb2:	cd b7       	in	r28, 0x3d	; 61
     fb4:	de b7       	in	r29, 0x3e	; 62

typedef uint8_t irqflags_t;

static inline irqflags_t cpu_irq_save(void)
{
	volatile irqflags_t flags = SREG;
     fb6:	9f b7       	in	r25, 0x3f	; 63
     fb8:	99 83       	std	Y+1, r25	; 0x01
	cpu_irq_disable();
     fba:	f8 94       	cli
	return flags;
     fbc:	99 81       	ldd	r25, Y+1	; 0x01
	irqflags_t flags = cpu_irq_save();

	*((uint8_t *)&PR.PRGEN + port) &= ~id;
     fbe:	e8 2f       	mov	r30, r24
     fc0:	f0 e0       	ldi	r31, 0x00	; 0
     fc2:	e0 59       	subi	r30, 0x90	; 144
     fc4:	ff 4f       	sbci	r31, 0xFF	; 255
     fc6:	60 95       	com	r22
     fc8:	80 81       	ld	r24, Z
     fca:	68 23       	and	r22, r24
     fcc:	60 83       	st	Z, r22
}

static inline void cpu_irq_restore(irqflags_t flags)
{
	barrier();
	SREG = flags;
     fce:	9f bf       	out	0x3f, r25	; 63

	cpu_irq_restore(flags);
}
     fd0:	0f 90       	pop	r0
     fd2:	df 91       	pop	r29
     fd4:	cf 91       	pop	r28
     fd6:	08 95       	ret

00000fd8 <ccp_write_io>:

	PUBLIC_FUNCTION(ccp_write_io)

#if defined(__GNUC__)

	out     RAMPZ, r1               // Reset bits 23:16 of Z
     fd8:	1b be       	out	0x3b, r1	; 59
	movw    r30, r24                // Load addr into Z
     fda:	fc 01       	movw	r30, r24
	ldi     r18, CCP_IOREG          // Load magic CCP value
     fdc:	28 ed       	ldi	r18, 0xD8	; 216
	out     CCP, r18                // Start CCP handshake
     fde:	24 bf       	out	0x34, r18	; 52
	st      Z, r22                  // Write value to I/O register
     fe0:	60 83       	st	Z, r22
	ret                             // Return to caller
     fe2:	08 95       	ret

00000fe4 <__portable_avr_delay_cycles>:
	TCD1.CCA = (uint16_t) ((TCD1.PER) * (servo_on_time_us / 1000.0)); // makes the waveform be created for a duty cycle
}

void servo_timer_alt(void){
	TCD1.CCA = (uint16_t) ((TCD0.PER) * (servo_on_time_us / 1000.0)); // makes the waveform be created for a duty cycle
}
     fe4:	04 c0       	rjmp	.+8      	; 0xfee <__portable_avr_delay_cycles+0xa>
     fe6:	61 50       	subi	r22, 0x01	; 1
     fe8:	71 09       	sbc	r23, r1
     fea:	81 09       	sbc	r24, r1
     fec:	91 09       	sbc	r25, r1
     fee:	61 15       	cp	r22, r1
     ff0:	71 05       	cpc	r23, r1
     ff2:	81 05       	cpc	r24, r1
     ff4:	91 05       	cpc	r25, r1
     ff6:	b9 f7       	brne	.-18     	; 0xfe6 <__portable_avr_delay_cycles+0x2>
     ff8:	08 95       	ret

00000ffa <xbee_init>:
     ffa:	4d de       	rcall	.-870    	; 0xc96 <XBEE_uart_init>
     ffc:	6b ea       	ldi	r22, 0xAB	; 171
     ffe:	79 e2       	ldi	r23, 0x29	; 41
    1000:	80 e0       	ldi	r24, 0x00	; 0
    1002:	90 e0       	ldi	r25, 0x00	; 0
    1004:	ef df       	rcall	.-34     	; 0xfe4 <__portable_avr_delay_cycles>
    1006:	80 e1       	ldi	r24, 0x10	; 16
    1008:	80 93 a3 08 	sts	0x08A3, r24	; 0x8008a3 <__TEXT_REGION_LENGTH__+0x7008a3>
    100c:	08 95       	ret

0000100e <get_altitude>:
    100e:	4f 92       	push	r4
    1010:	5f 92       	push	r5
    1012:	6f 92       	push	r6
    1014:	7f 92       	push	r7
    1016:	8f 92       	push	r8
    1018:	9f 92       	push	r9
    101a:	af 92       	push	r10
    101c:	bf 92       	push	r11
    101e:	cf 92       	push	r12
    1020:	df 92       	push	r13
    1022:	ef 92       	push	r14
    1024:	ff 92       	push	r15
    1026:	2b 01       	movw	r4, r22
    1028:	3c 01       	movw	r6, r24
    102a:	c0 90 1b 20 	lds	r12, 0x201B	; 0x80201b <L>
    102e:	d0 90 1c 20 	lds	r13, 0x201C	; 0x80201c <L+0x1>
    1032:	e0 90 1d 20 	lds	r14, 0x201D	; 0x80201d <L+0x2>
    1036:	f0 90 1e 20 	lds	r15, 0x201E	; 0x80201e <L+0x3>
    103a:	20 91 1f 20 	lds	r18, 0x201F	; 0x80201f <R>
    103e:	30 91 20 20 	lds	r19, 0x2020	; 0x802020 <R+0x1>
    1042:	40 91 21 20 	lds	r20, 0x2021	; 0x802021 <R+0x2>
    1046:	50 91 22 20 	lds	r21, 0x2022	; 0x802022 <R+0x3>
    104a:	c7 01       	movw	r24, r14
    104c:	b6 01       	movw	r22, r12
    104e:	61 d5       	rcall	.+2754   	; 0x1b12 <__mulsf3>
    1050:	20 91 17 20 	lds	r18, 0x2017	; 0x802017 <g_0>
    1054:	30 91 18 20 	lds	r19, 0x2018	; 0x802018 <g_0+0x1>
    1058:	40 91 19 20 	lds	r20, 0x2019	; 0x802019 <g_0+0x2>
    105c:	50 91 1a 20 	lds	r21, 0x201A	; 0x80201a <g_0+0x3>
    1060:	09 d4       	rcall	.+2066   	; 0x1874 <__divsf3>
    1062:	4b 01       	movw	r8, r22
    1064:	5c 01       	movw	r10, r24
    1066:	a3 01       	movw	r20, r6
    1068:	92 01       	movw	r18, r4
    106a:	60 91 27 20 	lds	r22, 0x2027	; 0x802027 <ground_p>
    106e:	70 91 28 20 	lds	r23, 0x2028	; 0x802028 <ground_p+0x1>
    1072:	80 91 29 20 	lds	r24, 0x2029	; 0x802029 <ground_p+0x2>
    1076:	90 91 2a 20 	lds	r25, 0x202A	; 0x80202a <ground_p+0x3>
    107a:	fc d3       	rcall	.+2040   	; 0x1874 <__divsf3>
    107c:	a5 01       	movw	r20, r10
    107e:	94 01       	movw	r18, r8
    1080:	ab d5       	rcall	.+2902   	; 0x1bd8 <pow>
    1082:	20 e0       	ldi	r18, 0x00	; 0
    1084:	30 e0       	ldi	r19, 0x00	; 0
    1086:	40 e8       	ldi	r20, 0x80	; 128
    1088:	5f e3       	ldi	r21, 0x3F	; 63
    108a:	8b d3       	rcall	.+1814   	; 0x17a2 <__subsf3>
    108c:	20 91 23 20 	lds	r18, 0x2023	; 0x802023 <ground_t>
    1090:	30 91 24 20 	lds	r19, 0x2024	; 0x802024 <ground_t+0x1>
    1094:	40 91 25 20 	lds	r20, 0x2025	; 0x802025 <ground_t+0x2>
    1098:	50 91 26 20 	lds	r21, 0x2026	; 0x802026 <ground_t+0x3>
    109c:	3a d5       	rcall	.+2676   	; 0x1b12 <__mulsf3>
    109e:	a7 01       	movw	r20, r14
    10a0:	96 01       	movw	r18, r12
    10a2:	e8 d3       	rcall	.+2000   	; 0x1874 <__divsf3>
    10a4:	ff 90       	pop	r15
    10a6:	ef 90       	pop	r14
    10a8:	df 90       	pop	r13
    10aa:	cf 90       	pop	r12
    10ac:	bf 90       	pop	r11
    10ae:	af 90       	pop	r10
    10b0:	9f 90       	pop	r9
    10b2:	8f 90       	pop	r8
    10b4:	7f 90       	pop	r7
    10b6:	6f 90       	pop	r6
    10b8:	5f 90       	pop	r5
    10ba:	4f 90       	pop	r4
    10bc:	08 95       	ret

000010be <get_velocity>:
    10be:	2f 92       	push	r2
    10c0:	3f 92       	push	r3
    10c2:	4f 92       	push	r4
    10c4:	5f 92       	push	r5
    10c6:	6f 92       	push	r6
    10c8:	7f 92       	push	r7
    10ca:	8f 92       	push	r8
    10cc:	9f 92       	push	r9
    10ce:	af 92       	push	r10
    10d0:	bf 92       	push	r11
    10d2:	cf 92       	push	r12
    10d4:	df 92       	push	r13
    10d6:	ef 92       	push	r14
    10d8:	ff 92       	push	r15
    10da:	0f 93       	push	r16
    10dc:	1f 93       	push	r17
    10de:	cf 93       	push	r28
    10e0:	df 93       	push	r29
    10e2:	00 d0       	rcall	.+0      	; 0x10e4 <get_velocity+0x26>
    10e4:	00 d0       	rcall	.+0      	; 0x10e6 <get_velocity+0x28>
    10e6:	cd b7       	in	r28, 0x3d	; 61
    10e8:	de b7       	in	r29, 0x3e	; 62
    10ea:	6c 01       	movw	r12, r24
    10ec:	80 91 14 20 	lds	r24, 0x2014	; 0x802014 <data_samples>
    10f0:	88 23       	and	r24, r24
    10f2:	09 f4       	brne	.+2      	; 0x10f6 <get_velocity+0x38>
    10f4:	68 c0       	rjmp	.+208    	; 0x11c6 <get_velocity+0x108>
    10f6:	00 e0       	ldi	r16, 0x00	; 0
    10f8:	10 e0       	ldi	r17, 0x00	; 0
    10fa:	41 2c       	mov	r4, r1
    10fc:	51 2c       	mov	r5, r1
    10fe:	32 01       	movw	r6, r4
    1100:	86 2e       	mov	r8, r22
    1102:	91 2c       	mov	r9, r1
    1104:	a1 2c       	mov	r10, r1
    1106:	b1 2c       	mov	r11, r1
    1108:	89 82       	std	Y+1, r8	; 0x01
    110a:	9a 82       	std	Y+2, r9	; 0x02
    110c:	ab 82       	std	Y+3, r10	; 0x03
    110e:	bc 82       	std	Y+4, r11	; 0x04
    1110:	b8 01       	movw	r22, r16
    1112:	c6 01       	movw	r24, r12
    1114:	59 de       	rcall	.-846    	; 0xdc8 <rb16_get_nth>
    1116:	5c 01       	movw	r10, r24
    1118:	18 01       	movw	r2, r16
    111a:	2f ef       	ldi	r18, 0xFF	; 255
    111c:	22 1a       	sub	r2, r18
    111e:	32 0a       	sbc	r3, r18
    1120:	b1 01       	movw	r22, r2
    1122:	c6 01       	movw	r24, r12
    1124:	51 de       	rcall	.-862    	; 0xdc8 <rb16_get_nth>
    1126:	7c 01       	movw	r14, r24
    1128:	b8 01       	movw	r22, r16
    112a:	6e 5f       	subi	r22, 0xFE	; 254
    112c:	7f 4f       	sbci	r23, 0xFF	; 255
    112e:	c6 01       	movw	r24, r12
    1130:	4b de       	rcall	.-874    	; 0xdc8 <rb16_get_nth>
    1132:	a5 01       	movw	r20, r10
    1134:	bb 0c       	add	r11, r11
    1136:	66 0b       	sbc	r22, r22
    1138:	77 0b       	sbc	r23, r23
    113a:	8a 01       	movw	r16, r20
    113c:	9b 01       	movw	r18, r22
    113e:	00 0f       	add	r16, r16
    1140:	11 1f       	adc	r17, r17
    1142:	22 1f       	adc	r18, r18
    1144:	33 1f       	adc	r19, r19
    1146:	40 0f       	add	r20, r16
    1148:	51 1f       	adc	r21, r17
    114a:	62 1f       	adc	r22, r18
    114c:	73 1f       	adc	r23, r19
    114e:	87 01       	movw	r16, r14
    1150:	ff 0c       	add	r15, r15
    1152:	22 0b       	sbc	r18, r18
    1154:	33 0b       	sbc	r19, r19
    1156:	78 01       	movw	r14, r16
    1158:	89 01       	movw	r16, r18
    115a:	ee 0c       	add	r14, r14
    115c:	ff 1c       	adc	r15, r15
    115e:	00 1f       	adc	r16, r16
    1160:	11 1f       	adc	r17, r17
    1162:	ee 0c       	add	r14, r14
    1164:	ff 1c       	adc	r15, r15
    1166:	00 1f       	adc	r16, r16
    1168:	11 1f       	adc	r17, r17
    116a:	4a 01       	movw	r8, r20
    116c:	5b 01       	movw	r10, r22
    116e:	8e 18       	sub	r8, r14
    1170:	9f 08       	sbc	r9, r15
    1172:	a0 0a       	sbc	r10, r16
    1174:	b1 0a       	sbc	r11, r17
    1176:	ac 01       	movw	r20, r24
    1178:	99 0f       	add	r25, r25
    117a:	66 0b       	sbc	r22, r22
    117c:	77 0b       	sbc	r23, r23
    117e:	d5 01       	movw	r26, r10
    1180:	c4 01       	movw	r24, r8
    1182:	84 0f       	add	r24, r20
    1184:	95 1f       	adc	r25, r21
    1186:	a6 1f       	adc	r26, r22
    1188:	b7 1f       	adc	r27, r23
    118a:	9c 01       	movw	r18, r24
    118c:	ad 01       	movw	r20, r26
    118e:	69 81       	ldd	r22, Y+1	; 0x01
    1190:	7a 81       	ldd	r23, Y+2	; 0x02
    1192:	8b 81       	ldd	r24, Y+3	; 0x03
    1194:	9c 81       	ldd	r25, Y+4	; 0x04
    1196:	85 d6       	rcall	.+3338   	; 0x1ea2 <__mulsi3>
    1198:	08 d4       	rcall	.+2064   	; 0x19aa <__floatsisf>
    119a:	20 e0       	ldi	r18, 0x00	; 0
    119c:	30 e0       	ldi	r19, 0x00	; 0
    119e:	40 e0       	ldi	r20, 0x00	; 0
    11a0:	5f e3       	ldi	r21, 0x3F	; 63
    11a2:	b7 d4       	rcall	.+2414   	; 0x1b12 <__mulsf3>
    11a4:	9b 01       	movw	r18, r22
    11a6:	ac 01       	movw	r20, r24
    11a8:	c3 01       	movw	r24, r6
    11aa:	b2 01       	movw	r22, r4
    11ac:	fb d2       	rcall	.+1526   	; 0x17a4 <__addsf3>
    11ae:	2b 01       	movw	r4, r22
    11b0:	3c 01       	movw	r6, r24
    11b2:	80 91 14 20 	lds	r24, 0x2014	; 0x802014 <data_samples>
    11b6:	81 01       	movw	r16, r2
    11b8:	28 2f       	mov	r18, r24
    11ba:	30 e0       	ldi	r19, 0x00	; 0
    11bc:	22 16       	cp	r2, r18
    11be:	33 06       	cpc	r3, r19
    11c0:	08 f4       	brcc	.+2      	; 0x11c4 <get_velocity+0x106>
    11c2:	a6 cf       	rjmp	.-180    	; 0x1110 <get_velocity+0x52>
    11c4:	03 c0       	rjmp	.+6      	; 0x11cc <get_velocity+0x10e>
    11c6:	41 2c       	mov	r4, r1
    11c8:	51 2c       	mov	r5, r1
    11ca:	32 01       	movw	r6, r4
    11cc:	68 2f       	mov	r22, r24
    11ce:	70 e0       	ldi	r23, 0x00	; 0
    11d0:	80 e0       	ldi	r24, 0x00	; 0
    11d2:	90 e0       	ldi	r25, 0x00	; 0
    11d4:	ea d3       	rcall	.+2004   	; 0x19aa <__floatsisf>
    11d6:	9b 01       	movw	r18, r22
    11d8:	ac 01       	movw	r20, r24
    11da:	c3 01       	movw	r24, r6
    11dc:	b2 01       	movw	r22, r4
    11de:	4a d3       	rcall	.+1684   	; 0x1874 <__divsf3>
    11e0:	20 e0       	ldi	r18, 0x00	; 0
    11e2:	30 e0       	ldi	r19, 0x00	; 0
    11e4:	48 ec       	ldi	r20, 0xC8	; 200
    11e6:	52 e4       	ldi	r21, 0x42	; 66
    11e8:	45 d3       	rcall	.+1674   	; 0x1874 <__divsf3>
    11ea:	26 96       	adiw	r28, 0x06	; 6
    11ec:	cd bf       	out	0x3d, r28	; 61
    11ee:	de bf       	out	0x3e, r29	; 62
    11f0:	df 91       	pop	r29
    11f2:	cf 91       	pop	r28
    11f4:	1f 91       	pop	r17
    11f6:	0f 91       	pop	r16
    11f8:	ff 90       	pop	r15
    11fa:	ef 90       	pop	r14
    11fc:	df 90       	pop	r13
    11fe:	cf 90       	pop	r12
    1200:	bf 90       	pop	r11
    1202:	af 90       	pop	r10
    1204:	9f 90       	pop	r9
    1206:	8f 90       	pop	r8
    1208:	7f 90       	pop	r7
    120a:	6f 90       	pop	r6
    120c:	5f 90       	pop	r5
    120e:	4f 90       	pop	r4
    1210:	3f 90       	pop	r3
    1212:	2f 90       	pop	r2
    1214:	08 95       	ret

00001216 <data_check>:
    1216:	3f 92       	push	r3
    1218:	4f 92       	push	r4
    121a:	5f 92       	push	r5
    121c:	6f 92       	push	r6
    121e:	7f 92       	push	r7
    1220:	8f 92       	push	r8
    1222:	9f 92       	push	r9
    1224:	af 92       	push	r10
    1226:	bf 92       	push	r11
    1228:	cf 92       	push	r12
    122a:	df 92       	push	r13
    122c:	ef 92       	push	r14
    122e:	ff 92       	push	r15
    1230:	0f 93       	push	r16
    1232:	1f 93       	push	r17
    1234:	cf 93       	push	r28
    1236:	df 93       	push	r29
    1238:	00 d0       	rcall	.+0      	; 0x123a <data_check+0x24>
    123a:	00 d0       	rcall	.+0      	; 0x123c <data_check+0x26>
    123c:	cd b7       	in	r28, 0x3d	; 61
    123e:	de b7       	in	r29, 0x3e	; 62
    1240:	8c 01       	movw	r16, r24
    1242:	19 82       	std	Y+1, r1	; 0x01
    1244:	1a 82       	std	Y+2, r1	; 0x02
    1246:	c1 2c       	mov	r12, r1
    1248:	d1 2c       	mov	r13, r1
    124a:	76 01       	movw	r14, r12
    124c:	69 81       	ldd	r22, Y+1	; 0x01
    124e:	7a 81       	ldd	r23, Y+2	; 0x02
    1250:	c8 01       	movw	r24, r16
    1252:	42 de       	rcall	.-892    	; 0xed8 <rb32_get_nth>
    1254:	4b 01       	movw	r8, r22
    1256:	5c 01       	movw	r10, r24
    1258:	21 ea       	ldi	r18, 0xA1	; 161
    125a:	82 1a       	sub	r8, r18
    125c:	26 e8       	ldi	r18, 0x86	; 134
    125e:	92 0a       	sbc	r9, r18
    1260:	21 e0       	ldi	r18, 0x01	; 1
    1262:	a2 0a       	sbc	r10, r18
    1264:	b1 08       	sbc	r11, r1
    1266:	2f ed       	ldi	r18, 0xDF	; 223
    1268:	82 16       	cp	r8, r18
    126a:	2f e0       	ldi	r18, 0x0F	; 15
    126c:	92 06       	cpc	r9, r18
    126e:	27 e9       	ldi	r18, 0x97	; 151
    1270:	a2 06       	cpc	r10, r18
    1272:	b1 04       	cpc	r11, r1
    1274:	68 f4       	brcc	.+26     	; 0x1290 <data_check+0x7a>
    1276:	99 d3       	rcall	.+1842   	; 0x19aa <__floatsisf>
    1278:	20 e0       	ldi	r18, 0x00	; 0
    127a:	30 e0       	ldi	r19, 0x00	; 0
    127c:	40 ea       	ldi	r20, 0xA0	; 160
    127e:	50 e4       	ldi	r21, 0x40	; 64
    1280:	f9 d2       	rcall	.+1522   	; 0x1874 <__divsf3>
    1282:	9b 01       	movw	r18, r22
    1284:	ac 01       	movw	r20, r24
    1286:	c7 01       	movw	r24, r14
    1288:	b6 01       	movw	r22, r12
    128a:	8c d2       	rcall	.+1304   	; 0x17a4 <__addsf3>
    128c:	6b 01       	movw	r12, r22
    128e:	7c 01       	movw	r14, r24
    1290:	89 81       	ldd	r24, Y+1	; 0x01
    1292:	9a 81       	ldd	r25, Y+2	; 0x02
    1294:	01 96       	adiw	r24, 0x01	; 1
    1296:	89 83       	std	Y+1, r24	; 0x01
    1298:	9a 83       	std	Y+2, r25	; 0x02
    129a:	05 97       	sbiw	r24, 0x05	; 5
    129c:	b9 f6       	brne	.-82     	; 0x124c <data_check+0x36>
    129e:	19 82       	std	Y+1, r1	; 0x01
    12a0:	1a 82       	std	Y+2, r1	; 0x02
    12a2:	81 2c       	mov	r8, r1
    12a4:	91 2c       	mov	r9, r1
    12a6:	54 01       	movw	r10, r8
    12a8:	69 81       	ldd	r22, Y+1	; 0x01
    12aa:	7a 81       	ldd	r23, Y+2	; 0x02
    12ac:	c8 01       	movw	r24, r16
    12ae:	14 de       	rcall	.-984    	; 0xed8 <rb32_get_nth>
    12b0:	2b 01       	movw	r4, r22
    12b2:	3c 01       	movw	r6, r24
    12b4:	21 ea       	ldi	r18, 0xA1	; 161
    12b6:	42 1a       	sub	r4, r18
    12b8:	26 e8       	ldi	r18, 0x86	; 134
    12ba:	52 0a       	sbc	r5, r18
    12bc:	21 e0       	ldi	r18, 0x01	; 1
    12be:	62 0a       	sbc	r6, r18
    12c0:	71 08       	sbc	r7, r1
    12c2:	2f ed       	ldi	r18, 0xDF	; 223
    12c4:	42 16       	cp	r4, r18
    12c6:	2f e0       	ldi	r18, 0x0F	; 15
    12c8:	52 06       	cpc	r5, r18
    12ca:	27 e9       	ldi	r18, 0x97	; 151
    12cc:	62 06       	cpc	r6, r18
    12ce:	71 04       	cpc	r7, r1
    12d0:	70 f4       	brcc	.+28     	; 0x12ee <data_check+0xd8>
    12d2:	6b d3       	rcall	.+1750   	; 0x19aa <__floatsisf>
    12d4:	a7 01       	movw	r20, r14
    12d6:	96 01       	movw	r18, r12
    12d8:	64 d2       	rcall	.+1224   	; 0x17a2 <__subsf3>
    12da:	9b 01       	movw	r18, r22
    12dc:	ac 01       	movw	r20, r24
    12de:	19 d4       	rcall	.+2098   	; 0x1b12 <__mulsf3>
    12e0:	9b 01       	movw	r18, r22
    12e2:	ac 01       	movw	r20, r24
    12e4:	c5 01       	movw	r24, r10
    12e6:	b4 01       	movw	r22, r8
    12e8:	5d d2       	rcall	.+1210   	; 0x17a4 <__addsf3>
    12ea:	4b 01       	movw	r8, r22
    12ec:	5c 01       	movw	r10, r24
    12ee:	89 81       	ldd	r24, Y+1	; 0x01
    12f0:	9a 81       	ldd	r25, Y+2	; 0x02
    12f2:	01 96       	adiw	r24, 0x01	; 1
    12f4:	89 83       	std	Y+1, r24	; 0x01
    12f6:	9a 83       	std	Y+2, r25	; 0x02
    12f8:	05 97       	sbiw	r24, 0x05	; 5
    12fa:	b1 f6       	brne	.-84     	; 0x12a8 <data_check+0x92>
    12fc:	20 e0       	ldi	r18, 0x00	; 0
    12fe:	30 e0       	ldi	r19, 0x00	; 0
    1300:	40 e8       	ldi	r20, 0x80	; 128
    1302:	5e e3       	ldi	r21, 0x3E	; 62
    1304:	c5 01       	movw	r24, r10
    1306:	b4 01       	movw	r22, r8
    1308:	04 d4       	rcall	.+2056   	; 0x1b12 <__mulsf3>
    130a:	69 83       	std	Y+1, r22	; 0x01
    130c:	7a 83       	std	Y+2, r23	; 0x02
    130e:	8b 83       	std	Y+3, r24	; 0x03
    1310:	9c 83       	std	Y+4, r25	; 0x04
    1312:	1d 82       	std	Y+5, r1	; 0x05
    1314:	1e 82       	std	Y+6, r1	; 0x06
    1316:	31 2c       	mov	r3, r1
    1318:	41 2c       	mov	r4, r1
    131a:	51 2c       	mov	r5, r1
    131c:	32 01       	movw	r6, r4
    131e:	6d 81       	ldd	r22, Y+5	; 0x05
    1320:	7e 81       	ldd	r23, Y+6	; 0x06
    1322:	c8 01       	movw	r24, r16
    1324:	d9 dd       	rcall	.-1102   	; 0xed8 <rb32_get_nth>
    1326:	4b 01       	movw	r8, r22
    1328:	5c 01       	movw	r10, r24
    132a:	21 ea       	ldi	r18, 0xA1	; 161
    132c:	82 1a       	sub	r8, r18
    132e:	26 e8       	ldi	r18, 0x86	; 134
    1330:	92 0a       	sbc	r9, r18
    1332:	21 e0       	ldi	r18, 0x01	; 1
    1334:	a2 0a       	sbc	r10, r18
    1336:	b1 08       	sbc	r11, r1
    1338:	2f ed       	ldi	r18, 0xDF	; 223
    133a:	82 16       	cp	r8, r18
    133c:	2f e0       	ldi	r18, 0x0F	; 15
    133e:	92 06       	cpc	r9, r18
    1340:	27 e9       	ldi	r18, 0x97	; 151
    1342:	a2 06       	cpc	r10, r18
    1344:	b1 04       	cpc	r11, r1
    1346:	20 f5       	brcc	.+72     	; 0x1390 <data_check+0x17a>
    1348:	30 d3       	rcall	.+1632   	; 0x19aa <__floatsisf>
    134a:	4b 01       	movw	r8, r22
    134c:	5c 01       	movw	r10, r24
    134e:	a7 01       	movw	r20, r14
    1350:	96 01       	movw	r18, r12
    1352:	27 d2       	rcall	.+1102   	; 0x17a2 <__subsf3>
    1354:	f7 d2       	rcall	.+1518   	; 0x1944 <__fixsfsi>
    1356:	9b 01       	movw	r18, r22
    1358:	77 23       	and	r23, r23
    135a:	24 f4       	brge	.+8      	; 0x1364 <data_check+0x14e>
    135c:	22 27       	eor	r18, r18
    135e:	33 27       	eor	r19, r19
    1360:	26 1b       	sub	r18, r22
    1362:	37 0b       	sbc	r19, r23
    1364:	b9 01       	movw	r22, r18
    1366:	33 0f       	add	r19, r19
    1368:	88 0b       	sbc	r24, r24
    136a:	99 0b       	sbc	r25, r25
    136c:	1e d3       	rcall	.+1596   	; 0x19aa <__floatsisf>
    136e:	9b 01       	movw	r18, r22
    1370:	ac 01       	movw	r20, r24
    1372:	69 81       	ldd	r22, Y+1	; 0x01
    1374:	7a 81       	ldd	r23, Y+2	; 0x02
    1376:	8b 81       	ldd	r24, Y+3	; 0x03
    1378:	9c 81       	ldd	r25, Y+4	; 0x04
    137a:	c7 d3       	rcall	.+1934   	; 0x1b0a <__gesf2>
    137c:	88 23       	and	r24, r24
    137e:	44 f0       	brlt	.+16     	; 0x1390 <data_check+0x17a>
    1380:	a5 01       	movw	r20, r10
    1382:	94 01       	movw	r18, r8
    1384:	c3 01       	movw	r24, r6
    1386:	b2 01       	movw	r22, r4
    1388:	0d d2       	rcall	.+1050   	; 0x17a4 <__addsf3>
    138a:	2b 01       	movw	r4, r22
    138c:	3c 01       	movw	r6, r24
    138e:	33 94       	inc	r3
    1390:	8d 81       	ldd	r24, Y+5	; 0x05
    1392:	9e 81       	ldd	r25, Y+6	; 0x06
    1394:	01 96       	adiw	r24, 0x01	; 1
    1396:	8d 83       	std	Y+5, r24	; 0x05
    1398:	9e 83       	std	Y+6, r25	; 0x06
    139a:	05 97       	sbiw	r24, 0x05	; 5
    139c:	09 f0       	breq	.+2      	; 0x13a0 <data_check+0x18a>
    139e:	bf cf       	rjmp	.-130    	; 0x131e <data_check+0x108>
    13a0:	33 20       	and	r3, r3
    13a2:	59 f0       	breq	.+22     	; 0x13ba <data_check+0x1a4>
    13a4:	63 2d       	mov	r22, r3
    13a6:	70 e0       	ldi	r23, 0x00	; 0
    13a8:	80 e0       	ldi	r24, 0x00	; 0
    13aa:	90 e0       	ldi	r25, 0x00	; 0
    13ac:	fc d2       	rcall	.+1528   	; 0x19a6 <__floatunsisf>
    13ae:	9b 01       	movw	r18, r22
    13b0:	ac 01       	movw	r20, r24
    13b2:	c3 01       	movw	r24, r6
    13b4:	b2 01       	movw	r22, r4
    13b6:	5e d2       	rcall	.+1212   	; 0x1874 <__divsf3>
    13b8:	04 c0       	rjmp	.+8      	; 0x13c2 <data_check+0x1ac>
    13ba:	60 e0       	ldi	r22, 0x00	; 0
    13bc:	70 e0       	ldi	r23, 0x00	; 0
    13be:	80 e8       	ldi	r24, 0x80	; 128
    13c0:	9f eb       	ldi	r25, 0xBF	; 191
    13c2:	26 96       	adiw	r28, 0x06	; 6
    13c4:	cd bf       	out	0x3d, r28	; 61
    13c6:	de bf       	out	0x3e, r29	; 62
    13c8:	df 91       	pop	r29
    13ca:	cf 91       	pop	r28
    13cc:	1f 91       	pop	r17
    13ce:	0f 91       	pop	r16
    13d0:	ff 90       	pop	r15
    13d2:	ef 90       	pop	r14
    13d4:	df 90       	pop	r13
    13d6:	cf 90       	pop	r12
    13d8:	bf 90       	pop	r11
    13da:	af 90       	pop	r10
    13dc:	9f 90       	pop	r9
    13de:	8f 90       	pop	r8
    13e0:	7f 90       	pop	r7
    13e2:	6f 90       	pop	r6
    13e4:	5f 90       	pop	r5
    13e6:	4f 90       	pop	r4
    13e8:	3f 90       	pop	r3
    13ea:	08 95       	ret

000013ec <data_collect>:
    13ec:	af 92       	push	r10
    13ee:	bf 92       	push	r11
    13f0:	cf 92       	push	r12
    13f2:	df 92       	push	r13
    13f4:	ef 92       	push	r14
    13f6:	ff 92       	push	r15
    13f8:	0f 93       	push	r16
    13fa:	1f 93       	push	r17
    13fc:	cf 93       	push	r28
    13fe:	df 93       	push	r29
    1400:	00 d0       	rcall	.+0      	; 0x1402 <data_collect+0x16>
    1402:	00 d0       	rcall	.+0      	; 0x1404 <data_collect+0x18>
    1404:	cd b7       	in	r28, 0x3d	; 61
    1406:	de b7       	in	r29, 0x3e	; 62
    1408:	5c 01       	movw	r10, r24
    140a:	8b 01       	movw	r16, r22
    140c:	82 e0       	ldi	r24, 0x02	; 2
    140e:	96 e7       	ldi	r25, 0x76	; 118
    1410:	af e0       	ldi	r26, 0x0F	; 15
    1412:	b0 e0       	ldi	r27, 0x00	; 0
    1414:	89 83       	std	Y+1, r24	; 0x01
    1416:	9a 83       	std	Y+2, r25	; 0x02
    1418:	ab 83       	std	Y+3, r26	; 0x03
    141a:	bc 83       	std	Y+4, r27	; 0x04
    141c:	41 e0       	ldi	r20, 0x01	; 1
    141e:	50 e0       	ldi	r21, 0x00	; 0
    1420:	be 01       	movw	r22, r28
    1422:	6f 5f       	subi	r22, 0xFF	; 255
    1424:	7f 4f       	sbci	r23, 0xFF	; 255
    1426:	c8 01       	movw	r24, r16
    1428:	fc dc       	rcall	.-1544   	; 0xe22 <rb32_write>
    142a:	c8 01       	movw	r24, r16
    142c:	f4 de       	rcall	.-536    	; 0x1216 <data_check>
    142e:	20 e0       	ldi	r18, 0x00	; 0
    1430:	30 e0       	ldi	r19, 0x00	; 0
    1432:	40 e2       	ldi	r20, 0x20	; 32
    1434:	51 e4       	ldi	r21, 0x41	; 65
    1436:	1e d2       	rcall	.+1084   	; 0x1874 <__divsf3>
    1438:	6b 01       	movw	r12, r22
    143a:	7c 01       	movw	r14, r24
    143c:	20 e0       	ldi	r18, 0x00	; 0
    143e:	30 e0       	ldi	r19, 0x00	; 0
    1440:	40 e8       	ldi	r20, 0x80	; 128
    1442:	5f eb       	ldi	r21, 0xBF	; 191
    1444:	13 d2       	rcall	.+1062   	; 0x186c <__cmpsf2>
    1446:	88 23       	and	r24, r24
    1448:	71 f1       	breq	.+92     	; 0x14a6 <data_collect+0xba>
    144a:	c0 92 98 21 	sts	0x2198, r12	; 0x802198 <press>
    144e:	d0 92 99 21 	sts	0x2199, r13	; 0x802199 <press+0x1>
    1452:	e0 92 9a 21 	sts	0x219A, r14	; 0x80219a <press+0x2>
    1456:	f0 92 9b 21 	sts	0x219B, r15	; 0x80219b <press+0x3>
    145a:	c7 01       	movw	r24, r14
    145c:	b6 01       	movw	r22, r12
    145e:	d7 dd       	rcall	.-1106   	; 0x100e <get_altitude>
    1460:	60 93 90 21 	sts	0x2190, r22	; 0x802190 <alt>
    1464:	70 93 91 21 	sts	0x2191, r23	; 0x802191 <alt+0x1>
    1468:	80 93 92 21 	sts	0x2192, r24	; 0x802192 <alt+0x2>
    146c:	90 93 93 21 	sts	0x2193, r25	; 0x802193 <alt+0x3>
    1470:	20 e0       	ldi	r18, 0x00	; 0
    1472:	30 e0       	ldi	r19, 0x00	; 0
    1474:	48 ec       	ldi	r20, 0xC8	; 200
    1476:	52 e4       	ldi	r21, 0x42	; 66
    1478:	4c d3       	rcall	.+1688   	; 0x1b12 <__mulsf3>
    147a:	64 d2       	rcall	.+1224   	; 0x1944 <__fixsfsi>
    147c:	6d 83       	std	Y+5, r22	; 0x05
    147e:	7e 83       	std	Y+6, r23	; 0x06
    1480:	41 e0       	ldi	r20, 0x01	; 1
    1482:	50 e0       	ldi	r21, 0x00	; 0
    1484:	be 01       	movw	r22, r28
    1486:	6b 5f       	subi	r22, 0xFB	; 251
    1488:	7f 4f       	sbci	r23, 0xFF	; 255
    148a:	c5 01       	movw	r24, r10
    148c:	54 dc       	rcall	.-1880   	; 0xd36 <rb16_write>
    148e:	60 91 15 20 	lds	r22, 0x2015	; 0x802015 <rate>
    1492:	c5 01       	movw	r24, r10
    1494:	14 de       	rcall	.-984    	; 0x10be <get_velocity>
    1496:	60 93 8c 21 	sts	0x218C, r22	; 0x80218c <__data_end>
    149a:	70 93 8d 21 	sts	0x218D, r23	; 0x80218d <__data_end+0x1>
    149e:	80 93 8e 21 	sts	0x218E, r24	; 0x80218e <__data_end+0x2>
    14a2:	90 93 8f 21 	sts	0x218F, r25	; 0x80218f <__data_end+0x3>
    14a6:	83 e3       	ldi	r24, 0x33	; 51
    14a8:	93 e1       	ldi	r25, 0x13	; 19
    14aa:	a0 e9       	ldi	r26, 0x90	; 144
    14ac:	b3 e4       	ldi	r27, 0x43	; 67
    14ae:	80 93 94 21 	sts	0x2194, r24	; 0x802194 <temp>
    14b2:	90 93 95 21 	sts	0x2195, r25	; 0x802195 <temp+0x1>
    14b6:	a0 93 96 21 	sts	0x2196, r26	; 0x802196 <temp+0x2>
    14ba:	b0 93 97 21 	sts	0x2197, r27	; 0x802197 <temp+0x3>
    14be:	26 96       	adiw	r28, 0x06	; 6
    14c0:	cd bf       	out	0x3d, r28	; 61
    14c2:	de bf       	out	0x3e, r29	; 62
    14c4:	df 91       	pop	r29
    14c6:	cf 91       	pop	r28
    14c8:	1f 91       	pop	r17
    14ca:	0f 91       	pop	r16
    14cc:	ff 90       	pop	r15
    14ce:	ef 90       	pop	r14
    14d0:	df 90       	pop	r13
    14d2:	cf 90       	pop	r12
    14d4:	bf 90       	pop	r11
    14d6:	af 90       	pop	r10
    14d8:	08 95       	ret

000014da <clock_init>:
		sysclk_enable_module(SYSCLK_PORT_D, SYSCLK_TC0);
	}
#endif
#ifdef TCE0
	else if (module == &TCE0) {
		sysclk_enable_module(SYSCLK_PORT_E, SYSCLK_TC0);
    14da:	61 e0       	ldi	r22, 0x01	; 1
    14dc:	85 e0       	ldi	r24, 0x05	; 5
    14de:	66 dd       	rcall	.-1332   	; 0xfac <sysclk_enable_module>

void clock_init(void){
	sysclk_enable_peripheral_clock(&TCE0); // starts peripheral clock

	TCE0.CTRLA = 0x07; // divisor set to 1024
    14e0:	e0 e0       	ldi	r30, 0x00	; 0
    14e2:	fa e0       	ldi	r31, 0x0A	; 10
    14e4:	87 e0       	ldi	r24, 0x07	; 7
    14e6:	80 83       	st	Z, r24
	TCE0.PER = 31249; // 1 Hz
    14e8:	81 e1       	ldi	r24, 0x11	; 17
    14ea:	9a e7       	ldi	r25, 0x7A	; 122
    14ec:	86 a3       	std	Z+38, r24	; 0x26
    14ee:	97 a3       	std	Z+39, r25	; 0x27
	TCE0.INTCTRLA = TC_OVFINTLVL_LO_gc; // CCA int flag Lo level
    14f0:	81 e0       	ldi	r24, 0x01	; 1
    14f2:	86 83       	std	Z+6, r24	; 0x06
    14f4:	08 95       	ret

000014f6 <system_init>:


// Sensor functions
void system_init(void){
	// Initialization of systems
	sysclk_init(); // initializes the system clock
    14f6:	25 dd       	rcall	.-1462   	; 0xf42 <sysclk_init>
	delay_ms(2); // delays the rest of the processes to ensure a started clock
    14f8:	6b ea       	ldi	r22, 0xAB	; 171
    14fa:	79 e2       	ldi	r23, 0x29	; 41
    14fc:	80 e0       	ldi	r24, 0x00	; 0
    14fe:	90 e0       	ldi	r25, 0x00	; 0
    1500:	71 dd       	rcall	.-1310   	; 0xfe4 <__portable_avr_delay_cycles>
	sei();
    1502:	78 94       	sei
	
	// Initialization of pins
	PORTC.DIR = 0xBB; // makes Port C have pins, 7, 5, 4, 3, 1, 0 be output (0b10111011)
    1504:	e0 e4       	ldi	r30, 0x40	; 64
    1506:	f6 e0       	ldi	r31, 0x06	; 6
    1508:	8b eb       	ldi	r24, 0xBB	; 187
    150a:	80 83       	st	Z, r24
	PORTC.OUT = 0x10; // makes the 4th pin on Port C be set on high (0b00010000)
    150c:	80 e1       	ldi	r24, 0x10	; 16
    150e:	84 83       	std	Z+4, r24	; 0x04
	PMIC.CTRL = PMIC_LOLVLEN_bm; // enables lo level interrupts
    1510:	81 e0       	ldi	r24, 0x01	; 1
    1512:	80 93 a2 00 	sts	0x00A2, r24	; 0x8000a2 <__TEXT_REGION_LENGTH__+0x7000a2>
	
	// Driver Initialization
	data_terminal_init();
    1516:	79 db       	rcall	.-2318   	; 0xc0a <data_terminal_init>
	delay_ms(2);
    1518:	6b ea       	ldi	r22, 0xAB	; 171
    151a:	79 e2       	ldi	r23, 0x29	; 41
    151c:	80 e0       	ldi	r24, 0x00	; 0
    151e:	90 e0       	ldi	r25, 0x00	; 0
    1520:	61 dd       	rcall	.-1342   	; 0xfe4 <__portable_avr_delay_cycles>
	
//	thermistor_init();
	delay_ms(2);
    1522:	6b ea       	ldi	r22, 0xAB	; 171
    1524:	79 e2       	ldi	r23, 0x29	; 41
    1526:	80 e0       	ldi	r24, 0x00	; 0
    1528:	90 e0       	ldi	r25, 0x00	; 0
    152a:	5c dd       	rcall	.-1352   	; 0xfe4 <__portable_avr_delay_cycles>
	
//	spi_init();
	delay_ms(2);
    152c:	6b ea       	ldi	r22, 0xAB	; 171
    152e:	79 e2       	ldi	r23, 0x29	; 41
    1530:	80 e0       	ldi	r24, 0x00	; 0
    1532:	90 e0       	ldi	r25, 0x00	; 0
    1534:	57 dd       	rcall	.-1362   	; 0xfe4 <__portable_avr_delay_cycles>
	
//	pressure_init();
	delay_ms(2);
    1536:	6b ea       	ldi	r22, 0xAB	; 171
    1538:	79 e2       	ldi	r23, 0x29	; 41
    153a:	80 e0       	ldi	r24, 0x00	; 0
    153c:	90 e0       	ldi	r25, 0x00	; 0
    153e:	52 dd       	rcall	.-1372   	; 0xfe4 <__portable_avr_delay_cycles>
	
	xbee_init();
    1540:	5c dd       	rcall	.-1352   	; 0xffa <xbee_init>
    1542:	cb df       	rcall	.-106    	; 0x14da <clock_init>
	//gps_init();
	
	clock_init();
    1544:	66 e5       	ldi	r22, 0x56	; 86
    1546:	70 ed       	ldi	r23, 0xD0	; 208
//	servo_timer_init();
	
	delay_ms(10);
    1548:	80 e0       	ldi	r24, 0x00	; 0
    154a:	90 e0       	ldi	r25, 0x00	; 0
    154c:	4b cd       	rjmp	.-1386   	; 0xfe4 <__portable_avr_delay_cycles>
    154e:	08 95       	ret

00001550 <main>:
    1550:	cf 93       	push	r28
    1552:	df 93       	push	r29
    1554:	cd b7       	in	r28, 0x3d	; 61
double angle = 0;			// Angle of Bonus Direction	


////////////////////////////// Functions ///////////////////////////////
int main (void)
{
    1556:	de b7       	in	r29, 0x3e	; 62
    1558:	cc 54       	subi	r28, 0x4C	; 76
    155a:	d1 09       	sbc	r29, r1
    155c:	cd bf       	out	0x3d, r28	; 61
    155e:	de bf       	out	0x3e, r29	; 62
	system_init();
    1560:	ca df       	rcall	.-108    	; 0x14f6 <system_init>
	
	printf("time, packets, rate, pressure, temp, altitude, velocity, state\n");
    1562:	86 ef       	ldi	r24, 0xF6	; 246
    1564:	90 e2       	ldi	r25, 0x20	; 32
    1566:	5d d5       	rcall	.+2746   	; 0x2022 <puts>
	
	int16_t alt_array[] = {0,0,0,0,0,0,0,0,0,0};
    1568:	be 01       	movw	r22, r28
    156a:	6f 5f       	subi	r22, 0xFF	; 255
    156c:	7f 4f       	sbci	r23, 0xFF	; 255
    156e:	84 e1       	ldi	r24, 0x14	; 20
    1570:	fb 01       	movw	r30, r22
    1572:	11 92       	st	Z+, r1
    1574:	8a 95       	dec	r24
    1576:	e9 f7       	brne	.-6      	; 0x1572 <main+0x22>
	RingBuffer16_t altitudes;	// in centimeters
	rb16_init(&altitudes, alt_array, (uint16_t) 10);
    1578:	4a e0       	ldi	r20, 0x0A	; 10
    157a:	50 e0       	ldi	r21, 0x00	; 0
    157c:	ce 01       	movw	r24, r28
    157e:	45 96       	adiw	r24, 0x15	; 21
    1580:	19 dc       	rcall	.-1998   	; 0xdb4 <rb16_init>
	
	int32_t press_array[] = {0,0,0,0,0,0,0,0,0,0};
    1582:	be 01       	movw	r22, r28
    1584:	63 5e       	subi	r22, 0xE3	; 227
    1586:	7f 4f       	sbci	r23, 0xFF	; 255
    1588:	88 e2       	ldi	r24, 0x28	; 40
    158a:	fb 01       	movw	r30, r22
    158c:	11 92       	st	Z+, r1
    158e:	8a 95       	dec	r24
    1590:	e9 f7       	brne	.-6      	; 0x158c <main+0x3c>
	RingBuffer32_t pressures;	// in Pascals / 10
	rb32_init(&pressures, press_array, (uint16_t) 10);
    1592:	4a e0       	ldi	r20, 0x0A	; 10
    1594:	50 e0       	ldi	r21, 0x00	; 0
    1596:	ce 01       	movw	r24, r28
    1598:	8b 5b       	subi	r24, 0xBB	; 187
    159a:	9f 4f       	sbci	r25, 0xFF	; 255
    159c:	93 dc       	rcall	.-1754   	; 0xec4 <rb32_init>
		if(timer != 0){
			rate = packets / timer;
		}
		// Prints information
		//printf("5343,%i,%i,%i,%li,%i,%i,%li,%li,%li,%i,%i,%i,%i,%i,%i,%i",time,packets,(int16_t)alt*10,(int32_t) press,(int16_t) temp*10,volt,gps_t,gps_lat,gps_long,gps_alt,gps_sats,pitch,roll,rpm,state,angle)
		sprintf(str,format, timer, packets, rate, (int32_t) press, (int16_t) ((temp-273.15)), (int16_t) (alt), (int16_t) (velocity), state); // Data Logging Test
    159e:	0f 2e       	mov	r0, r31
    15a0:	fb eb       	ldi	r31, 0xBB	; 187
    15a2:	af 2e       	mov	r10, r31
    15a4:	f0 e2       	ldi	r31, 0x20	; 32
    15a6:	bf 2e       	mov	r11, r31
    15a8:	f0 2d       	mov	r31, r0
    15aa:	0f 2e       	mov	r0, r31
    15ac:	f1 ef       	ldi	r31, 0xF1	; 241
    15ae:	ef 2e       	mov	r14, r31
    15b0:	f1 e2       	ldi	r31, 0x21	; 33
    15b2:	ff 2e       	mov	r15, r31
    15b4:	f0 2d       	mov	r31, r0
	
	char* format = "%i,%i,%i,%li,%i,%i,%i,%i\n\0";
	
	while(1){
		// Check Sensors
		data_collect(&altitudes,&pressures);
    15b6:	be 01       	movw	r22, r28
    15b8:	6b 5b       	subi	r22, 0xBB	; 187
    15ba:	7f 4f       	sbci	r23, 0xFF	; 255
    15bc:	ce 01       	movw	r24, r28
    15be:	45 96       	adiw	r24, 0x15	; 21
    15c0:	15 df       	rcall	.-470    	; 0x13ec <data_collect>
		
		// Checks State
		//state_check();
		
		//Gives each flight state their unique tasks
		switch(state){
    15c2:	80 91 a0 21 	lds	r24, 0x21A0	; 0x8021a0 <state>
    15c6:	84 30       	cpi	r24, 0x04	; 4
    15c8:	10 f0       	brcs	.+4      	; 0x15ce <main+0x7e>
			case 2:
				break;
			case 3:
				break;
			default:
				state = 0;
    15ca:	10 92 a0 21 	sts	0x21A0, r1	; 0x8021a0 <state>
				break;
		}	
		
		packets++;
    15ce:	00 91 9c 21 	lds	r16, 0x219C	; 0x80219c <packets>
    15d2:	10 91 9d 21 	lds	r17, 0x219D	; 0x80219d <packets+0x1>
    15d6:	0f 5f       	subi	r16, 0xFF	; 255
    15d8:	1f 4f       	sbci	r17, 0xFF	; 255
    15da:	00 93 9c 21 	sts	0x219C, r16	; 0x80219c <packets>
    15de:	10 93 9d 21 	sts	0x219D, r17	; 0x80219d <packets+0x1>
		if(timer != 0){
    15e2:	c0 90 9e 21 	lds	r12, 0x219E	; 0x80219e <timer>
    15e6:	d0 90 9f 21 	lds	r13, 0x219F	; 0x80219f <timer+0x1>
    15ea:	c1 14       	cp	r12, r1
    15ec:	d1 04       	cpc	r13, r1
			rate = packets / timer;
    15ee:	39 f0       	breq	.+14     	; 0x15fe <main+0xae>
    15f0:	c8 01       	movw	r24, r16
    15f2:	b6 01       	movw	r22, r12
    15f4:	65 d4       	rcall	.+2250   	; 0x1ec0 <__udivmodhi4>
    15f6:	60 93 15 20 	sts	0x2015, r22	; 0x802015 <rate>
    15fa:	70 93 16 20 	sts	0x2016, r23	; 0x802016 <rate+0x1>
		}
		// Prints information
		//printf("5343,%i,%i,%i,%li,%i,%i,%li,%li,%li,%i,%i,%i,%i,%i,%i,%i",time,packets,(int16_t)alt*10,(int32_t) press,(int16_t) temp*10,volt,gps_t,gps_lat,gps_long,gps_alt,gps_sats,pitch,roll,rpm,state,angle)
		sprintf(str,format, timer, packets, rate, (int32_t) press, (int16_t) ((temp-273.15)), (int16_t) (alt), (int16_t) (velocity), state); // Data Logging Test
    15fe:	80 91 a0 21 	lds	r24, 0x21A0	; 0x8021a0 <state>
    1602:	1f 92       	push	r1
    1604:	8f 93       	push	r24
    1606:	60 91 8c 21 	lds	r22, 0x218C	; 0x80218c <__data_end>
    160a:	70 91 8d 21 	lds	r23, 0x218D	; 0x80218d <__data_end+0x1>
    160e:	80 91 8e 21 	lds	r24, 0x218E	; 0x80218e <__data_end+0x2>
    1612:	90 91 8f 21 	lds	r25, 0x218F	; 0x80218f <__data_end+0x3>
    1616:	96 d1       	rcall	.+812    	; 0x1944 <__fixsfsi>
    1618:	7f 93       	push	r23
    161a:	6f 93       	push	r22
    161c:	60 91 90 21 	lds	r22, 0x2190	; 0x802190 <alt>
    1620:	70 91 91 21 	lds	r23, 0x2191	; 0x802191 <alt+0x1>
    1624:	80 91 92 21 	lds	r24, 0x2192	; 0x802192 <alt+0x2>
    1628:	90 91 93 21 	lds	r25, 0x2193	; 0x802193 <alt+0x3>
    162c:	8b d1       	rcall	.+790    	; 0x1944 <__fixsfsi>
    162e:	7f 93       	push	r23
    1630:	6f 93       	push	r22
    1632:	23 e3       	ldi	r18, 0x33	; 51
    1634:	33 e9       	ldi	r19, 0x93	; 147
    1636:	48 e8       	ldi	r20, 0x88	; 136
    1638:	53 e4       	ldi	r21, 0x43	; 67
    163a:	60 91 94 21 	lds	r22, 0x2194	; 0x802194 <temp>
    163e:	70 91 95 21 	lds	r23, 0x2195	; 0x802195 <temp+0x1>
    1642:	80 91 96 21 	lds	r24, 0x2196	; 0x802196 <temp+0x2>
    1646:	90 91 97 21 	lds	r25, 0x2197	; 0x802197 <temp+0x3>
    164a:	ab d0       	rcall	.+342    	; 0x17a2 <__subsf3>
    164c:	7b d1       	rcall	.+758    	; 0x1944 <__fixsfsi>
    164e:	7f 93       	push	r23
    1650:	6f 93       	push	r22
    1652:	60 91 98 21 	lds	r22, 0x2198	; 0x802198 <press>
    1656:	70 91 99 21 	lds	r23, 0x2199	; 0x802199 <press+0x1>
    165a:	80 91 9a 21 	lds	r24, 0x219A	; 0x80219a <press+0x2>
    165e:	90 91 9b 21 	lds	r25, 0x219B	; 0x80219b <press+0x3>
    1662:	70 d1       	rcall	.+736    	; 0x1944 <__fixsfsi>
    1664:	9f 93       	push	r25
    1666:	8f 93       	push	r24
    1668:	7f 93       	push	r23
    166a:	6f 93       	push	r22
    166c:	80 91 16 20 	lds	r24, 0x2016	; 0x802016 <rate+0x1>
    1670:	8f 93       	push	r24
    1672:	80 91 15 20 	lds	r24, 0x2015	; 0x802015 <rate>
    1676:	8f 93       	push	r24
    1678:	1f 93       	push	r17
    167a:	0f 93       	push	r16
    167c:	df 92       	push	r13
    167e:	cf 92       	push	r12
    1680:	bf 92       	push	r11
    1682:	af 92       	push	r10
    1684:	ff 92       	push	r15
		printf(str);
    1686:	ef 92       	push	r14
    1688:	fc d4       	rcall	.+2552   	; 0x2082 <sprintf>
    168a:	ff 92       	push	r15
		XBEE_write(str);
    168c:	ef 92       	push	r14
    168e:	b1 d4       	rcall	.+2402   	; 0x1ff2 <printf>
    1690:	c7 01       	movw	r24, r14
		
		
		char* mess = "5343,26,20,100,97065,15\0";
		//printf("Sending...\n%s\n", mess);
		XBEE_write(mess);
    1692:	2f db       	rcall	.-2466   	; 0xcf2 <XBEE_write>
    1694:	86 ed       	ldi	r24, 0xD6	; 214
    1696:	90 e2       	ldi	r25, 0x20	; 32
    1698:	2c db       	rcall	.-2472   	; 0xcf2 <XBEE_write>
		
		
		delay_ms(500);
    169a:	6b ea       	ldi	r22, 0xAB	; 171
    169c:	70 eb       	ldi	r23, 0xB0	; 176
    169e:	88 e2       	ldi	r24, 0x28	; 40
    16a0:	90 e0       	ldi	r25, 0x00	; 0
    16a2:	a0 dc       	rcall	.-1728   	; 0xfe4 <__portable_avr_delay_cycles>
    16a4:	cd bf       	out	0x3d, r28	; 61
	}
    16a6:	de bf       	out	0x3e, r29	; 62
    16a8:	86 cf       	rjmp	.-244    	; 0x15b6 <main+0x66>

000016aa <__vector_47>:
    16aa:	1f 92       	push	r1
	TCE0.CTRLA = 0x07; // divisor set to 1024
	TCE0.PER = 31249; // 1 Hz
	TCE0.INTCTRLA = TC_OVFINTLVL_LO_gc; // CCA int flag Lo level
}

ISR(TCE0_OVF_vect){
    16ac:	0f 92       	push	r0
    16ae:	0f b6       	in	r0, 0x3f	; 63
    16b0:	0f 92       	push	r0
    16b2:	11 24       	eor	r1, r1
    16b4:	08 b6       	in	r0, 0x38	; 56
    16b6:	0f 92       	push	r0
    16b8:	18 be       	out	0x38, r1	; 56
    16ba:	8f 93       	push	r24
    16bc:	9f 93       	push	r25
	timer++;
    16be:	80 91 9e 21 	lds	r24, 0x219E	; 0x80219e <timer>
    16c2:	90 91 9f 21 	lds	r25, 0x219F	; 0x80219f <timer+0x1>
    16c6:	01 96       	adiw	r24, 0x01	; 1
    16c8:	80 93 9e 21 	sts	0x219E, r24	; 0x80219e <timer>
    16cc:	90 93 9f 21 	sts	0x219F, r25	; 0x80219f <timer+0x1>
}
    16d0:	9f 91       	pop	r25
    16d2:	8f 91       	pop	r24
    16d4:	0f 90       	pop	r0
    16d6:	08 be       	out	0x38, r0	; 56
    16d8:	0f 90       	pop	r0
    16da:	0f be       	out	0x3f, r0	; 63
    16dc:	0f 90       	pop	r0
    16de:	1f 90       	pop	r1
    16e0:	18 95       	reti

000016e2 <__vector_25>:

ISR(USARTC0_RXC_vect){
    16e2:	1f 92       	push	r1
    16e4:	0f 92       	push	r0
    16e6:	0f b6       	in	r0, 0x3f	; 63
    16e8:	0f 92       	push	r0
    16ea:	11 24       	eor	r1, r1
    16ec:	08 b6       	in	r0, 0x38	; 56
    16ee:	0f 92       	push	r0
    16f0:	18 be       	out	0x38, r1	; 56
    16f2:	09 b6       	in	r0, 0x39	; 57
    16f4:	0f 92       	push	r0
    16f6:	19 be       	out	0x39, r1	; 57
    16f8:	0b b6       	in	r0, 0x3b	; 59
    16fa:	0f 92       	push	r0
    16fc:	1b be       	out	0x3b, r1	; 59
    16fe:	2f 93       	push	r18
    1700:	3f 93       	push	r19
    1702:	4f 93       	push	r20
    1704:	5f 93       	push	r21
    1706:	6f 93       	push	r22
    1708:	7f 93       	push	r23
    170a:	8f 93       	push	r24
    170c:	9f 93       	push	r25
    170e:	af 93       	push	r26
    1710:	bf 93       	push	r27
    1712:	cf 93       	push	r28
    1714:	ef 93       	push	r30
    1716:	ff 93       	push	r31
	uint8_t c = usart_getchar(GPS_TERMINAL_SERIAL);
    1718:	80 ea       	ldi	r24, 0xA0	; 160
    171a:	98 e0       	ldi	r25, 0x08	; 8
    171c:	0e 94 81 03 	call	0x702	; 0x702 <usart_getchar>
    1720:	c8 2f       	mov	r28, r24
	printf("%c", c);
    1722:	90 e0       	ldi	r25, 0x00	; 0
    1724:	79 d4       	rcall	.+2290   	; 0x2018 <putchar>
	
	switch(c){
    1726:	cc 3c       	cpi	r28, 0xCC	; 204
    1728:	c9 f0       	breq	.+50     	; 0x175c <__vector_25+0x7a>
    172a:	28 f4       	brcc	.+10     	; 0x1736 <__vector_25+0x54>
    172c:	ca 3a       	cpi	r28, 0xAA	; 170
    172e:	f1 f0       	breq	.+60     	; 0x176c <__vector_25+0x8a>
    1730:	cb 3b       	cpi	r28, 0xBB	; 187
    1732:	c1 f0       	breq	.+48     	; 0x1764 <__vector_25+0x82>
    1734:	1e c0       	rjmp	.+60     	; 0x1772 <__vector_25+0x90>
    1736:	ce 3e       	cpi	r28, 0xEE	; 238
    1738:	49 f0       	breq	.+18     	; 0x174c <__vector_25+0x6a>
    173a:	cf 3f       	cpi	r28, 0xFF	; 255
    173c:	19 f0       	breq	.+6      	; 0x1744 <__vector_25+0x62>
    173e:	cd 3d       	cpi	r28, 0xDD	; 221
    1740:	c1 f4       	brne	.+48     	; 0x1772 <__vector_25+0x90>
    1742:	08 c0       	rjmp	.+16     	; 0x1754 <__vector_25+0x72>
		case RESET:
			printf("RESET\n");
    1744:	85 e3       	ldi	r24, 0x35	; 53
    1746:	91 e2       	ldi	r25, 0x21	; 33
    1748:	6c d4       	rcall	.+2264   	; 0x2022 <puts>
			break;
    174a:	13 c0       	rjmp	.+38     	; 0x1772 <__vector_25+0x90>
		case CALIBRATE:
			printf("CALIBRATE\n");
    174c:	8b e3       	ldi	r24, 0x3B	; 59
    174e:	91 e2       	ldi	r25, 0x21	; 33
    1750:	68 d4       	rcall	.+2256   	; 0x2022 <puts>
			break;
		case CALIBRATE_CAMERA:
			printf("CALIBRATE_CAMERA\n");
    1752:	0f c0       	rjmp	.+30     	; 0x1772 <__vector_25+0x90>
    1754:	85 e4       	ldi	r24, 0x45	; 69
    1756:	91 e2       	ldi	r25, 0x21	; 33
			break;
    1758:	64 d4       	rcall	.+2248   	; 0x2022 <puts>
		case CALIBRATE_ALTITUDE:
			printf("CALIBRATE_ALTITUDE\n");
    175a:	0b c0       	rjmp	.+22     	; 0x1772 <__vector_25+0x90>
    175c:	86 e5       	ldi	r24, 0x56	; 86
    175e:	91 e2       	ldi	r25, 0x21	; 33
			break;
    1760:	60 d4       	rcall	.+2240   	; 0x2022 <puts>
		case CALIBRATE_ANGLE:
			printf("CALIBRATE_ANGLE\n");
    1762:	07 c0       	rjmp	.+14     	; 0x1772 <__vector_25+0x90>
    1764:	89 e6       	ldi	r24, 0x69	; 105
    1766:	91 e2       	ldi	r25, 0x21	; 33
			break;
    1768:	5c d4       	rcall	.+2232   	; 0x2022 <puts>
		case SEND_GPS_LOCATION:
			printf("SEND_GPS_LOCATION\n");
    176a:	03 c0       	rjmp	.+6      	; 0x1772 <__vector_25+0x90>
    176c:	89 e7       	ldi	r24, 0x79	; 121
    176e:	91 e2       	ldi	r25, 0x21	; 33
    1770:	58 d4       	rcall	.+2224   	; 0x2022 <puts>
			break;
	}
}
    1772:	ff 91       	pop	r31
    1774:	ef 91       	pop	r30
    1776:	cf 91       	pop	r28
    1778:	bf 91       	pop	r27
    177a:	af 91       	pop	r26
    177c:	9f 91       	pop	r25
    177e:	8f 91       	pop	r24
    1780:	7f 91       	pop	r23
    1782:	6f 91       	pop	r22
    1784:	5f 91       	pop	r21
    1786:	4f 91       	pop	r20
    1788:	3f 91       	pop	r19
    178a:	2f 91       	pop	r18
    178c:	0f 90       	pop	r0
    178e:	0b be       	out	0x3b, r0	; 59
    1790:	0f 90       	pop	r0
    1792:	09 be       	out	0x39, r0	; 57
    1794:	0f 90       	pop	r0
    1796:	08 be       	out	0x38, r0	; 56
    1798:	0f 90       	pop	r0
    179a:	0f be       	out	0x3f, r0	; 63
    179c:	0f 90       	pop	r0
    179e:	1f 90       	pop	r1
    17a0:	18 95       	reti

000017a2 <__subsf3>:
    17a2:	50 58       	subi	r21, 0x80	; 128

000017a4 <__addsf3>:
    17a4:	bb 27       	eor	r27, r27
    17a6:	aa 27       	eor	r26, r26
    17a8:	0e d0       	rcall	.+28     	; 0x17c6 <__addsf3x>
    17aa:	75 c1       	rjmp	.+746    	; 0x1a96 <__fp_round>
    17ac:	66 d1       	rcall	.+716    	; 0x1a7a <__fp_pscA>
    17ae:	30 f0       	brcs	.+12     	; 0x17bc <__addsf3+0x18>
    17b0:	6b d1       	rcall	.+726    	; 0x1a88 <__fp_pscB>
    17b2:	20 f0       	brcs	.+8      	; 0x17bc <__addsf3+0x18>
    17b4:	31 f4       	brne	.+12     	; 0x17c2 <__addsf3+0x1e>
    17b6:	9f 3f       	cpi	r25, 0xFF	; 255
    17b8:	11 f4       	brne	.+4      	; 0x17be <__addsf3+0x1a>
    17ba:	1e f4       	brtc	.+6      	; 0x17c2 <__addsf3+0x1e>
    17bc:	5b c1       	rjmp	.+694    	; 0x1a74 <__fp_nan>
    17be:	0e f4       	brtc	.+2      	; 0x17c2 <__addsf3+0x1e>
    17c0:	e0 95       	com	r30
    17c2:	e7 fb       	bst	r30, 7
    17c4:	51 c1       	rjmp	.+674    	; 0x1a68 <__fp_inf>

000017c6 <__addsf3x>:
    17c6:	e9 2f       	mov	r30, r25
    17c8:	77 d1       	rcall	.+750    	; 0x1ab8 <__fp_split3>
    17ca:	80 f3       	brcs	.-32     	; 0x17ac <__addsf3+0x8>
    17cc:	ba 17       	cp	r27, r26
    17ce:	62 07       	cpc	r22, r18
    17d0:	73 07       	cpc	r23, r19
    17d2:	84 07       	cpc	r24, r20
    17d4:	95 07       	cpc	r25, r21
    17d6:	18 f0       	brcs	.+6      	; 0x17de <__addsf3x+0x18>
    17d8:	71 f4       	brne	.+28     	; 0x17f6 <__addsf3x+0x30>
    17da:	9e f5       	brtc	.+102    	; 0x1842 <__addsf3x+0x7c>
    17dc:	8f c1       	rjmp	.+798    	; 0x1afc <__fp_zero>
    17de:	0e f4       	brtc	.+2      	; 0x17e2 <__addsf3x+0x1c>
    17e0:	e0 95       	com	r30
    17e2:	0b 2e       	mov	r0, r27
    17e4:	ba 2f       	mov	r27, r26
    17e6:	a0 2d       	mov	r26, r0
    17e8:	0b 01       	movw	r0, r22
    17ea:	b9 01       	movw	r22, r18
    17ec:	90 01       	movw	r18, r0
    17ee:	0c 01       	movw	r0, r24
    17f0:	ca 01       	movw	r24, r20
    17f2:	a0 01       	movw	r20, r0
    17f4:	11 24       	eor	r1, r1
    17f6:	ff 27       	eor	r31, r31
    17f8:	59 1b       	sub	r21, r25
    17fa:	99 f0       	breq	.+38     	; 0x1822 <__addsf3x+0x5c>
    17fc:	59 3f       	cpi	r21, 0xF9	; 249
    17fe:	50 f4       	brcc	.+20     	; 0x1814 <__addsf3x+0x4e>
    1800:	50 3e       	cpi	r21, 0xE0	; 224
    1802:	68 f1       	brcs	.+90     	; 0x185e <__addsf3x+0x98>
    1804:	1a 16       	cp	r1, r26
    1806:	f0 40       	sbci	r31, 0x00	; 0
    1808:	a2 2f       	mov	r26, r18
    180a:	23 2f       	mov	r18, r19
    180c:	34 2f       	mov	r19, r20
    180e:	44 27       	eor	r20, r20
    1810:	58 5f       	subi	r21, 0xF8	; 248
    1812:	f3 cf       	rjmp	.-26     	; 0x17fa <__addsf3x+0x34>
    1814:	46 95       	lsr	r20
    1816:	37 95       	ror	r19
    1818:	27 95       	ror	r18
    181a:	a7 95       	ror	r26
    181c:	f0 40       	sbci	r31, 0x00	; 0
    181e:	53 95       	inc	r21
    1820:	c9 f7       	brne	.-14     	; 0x1814 <__addsf3x+0x4e>
    1822:	7e f4       	brtc	.+30     	; 0x1842 <__addsf3x+0x7c>
    1824:	1f 16       	cp	r1, r31
    1826:	ba 0b       	sbc	r27, r26
    1828:	62 0b       	sbc	r22, r18
    182a:	73 0b       	sbc	r23, r19
    182c:	84 0b       	sbc	r24, r20
    182e:	ba f0       	brmi	.+46     	; 0x185e <__addsf3x+0x98>
    1830:	91 50       	subi	r25, 0x01	; 1
    1832:	a1 f0       	breq	.+40     	; 0x185c <__addsf3x+0x96>
    1834:	ff 0f       	add	r31, r31
    1836:	bb 1f       	adc	r27, r27
    1838:	66 1f       	adc	r22, r22
    183a:	77 1f       	adc	r23, r23
    183c:	88 1f       	adc	r24, r24
    183e:	c2 f7       	brpl	.-16     	; 0x1830 <__addsf3x+0x6a>
    1840:	0e c0       	rjmp	.+28     	; 0x185e <__addsf3x+0x98>
    1842:	ba 0f       	add	r27, r26
    1844:	62 1f       	adc	r22, r18
    1846:	73 1f       	adc	r23, r19
    1848:	84 1f       	adc	r24, r20
    184a:	48 f4       	brcc	.+18     	; 0x185e <__addsf3x+0x98>
    184c:	87 95       	ror	r24
    184e:	77 95       	ror	r23
    1850:	67 95       	ror	r22
    1852:	b7 95       	ror	r27
    1854:	f7 95       	ror	r31
    1856:	9e 3f       	cpi	r25, 0xFE	; 254
    1858:	08 f0       	brcs	.+2      	; 0x185c <__addsf3x+0x96>
    185a:	b3 cf       	rjmp	.-154    	; 0x17c2 <__addsf3+0x1e>
    185c:	93 95       	inc	r25
    185e:	88 0f       	add	r24, r24
    1860:	08 f0       	brcs	.+2      	; 0x1864 <__addsf3x+0x9e>
    1862:	99 27       	eor	r25, r25
    1864:	ee 0f       	add	r30, r30
    1866:	97 95       	ror	r25
    1868:	87 95       	ror	r24
    186a:	08 95       	ret

0000186c <__cmpsf2>:
    186c:	d9 d0       	rcall	.+434    	; 0x1a20 <__fp_cmp>
    186e:	08 f4       	brcc	.+2      	; 0x1872 <__cmpsf2+0x6>
    1870:	81 e0       	ldi	r24, 0x01	; 1
    1872:	08 95       	ret

00001874 <__divsf3>:
    1874:	0c d0       	rcall	.+24     	; 0x188e <__divsf3x>
    1876:	0f c1       	rjmp	.+542    	; 0x1a96 <__fp_round>
    1878:	07 d1       	rcall	.+526    	; 0x1a88 <__fp_pscB>
    187a:	40 f0       	brcs	.+16     	; 0x188c <__divsf3+0x18>
    187c:	fe d0       	rcall	.+508    	; 0x1a7a <__fp_pscA>
    187e:	30 f0       	brcs	.+12     	; 0x188c <__divsf3+0x18>
    1880:	21 f4       	brne	.+8      	; 0x188a <__divsf3+0x16>
    1882:	5f 3f       	cpi	r21, 0xFF	; 255
    1884:	19 f0       	breq	.+6      	; 0x188c <__divsf3+0x18>
    1886:	f0 c0       	rjmp	.+480    	; 0x1a68 <__fp_inf>
    1888:	51 11       	cpse	r21, r1
    188a:	39 c1       	rjmp	.+626    	; 0x1afe <__fp_szero>
    188c:	f3 c0       	rjmp	.+486    	; 0x1a74 <__fp_nan>

0000188e <__divsf3x>:
    188e:	14 d1       	rcall	.+552    	; 0x1ab8 <__fp_split3>
    1890:	98 f3       	brcs	.-26     	; 0x1878 <__divsf3+0x4>

00001892 <__divsf3_pse>:
    1892:	99 23       	and	r25, r25
    1894:	c9 f3       	breq	.-14     	; 0x1888 <__divsf3+0x14>
    1896:	55 23       	and	r21, r21
    1898:	b1 f3       	breq	.-20     	; 0x1886 <__divsf3+0x12>
    189a:	95 1b       	sub	r25, r21
    189c:	55 0b       	sbc	r21, r21
    189e:	bb 27       	eor	r27, r27
    18a0:	aa 27       	eor	r26, r26
    18a2:	62 17       	cp	r22, r18
    18a4:	73 07       	cpc	r23, r19
    18a6:	84 07       	cpc	r24, r20
    18a8:	38 f0       	brcs	.+14     	; 0x18b8 <__divsf3_pse+0x26>
    18aa:	9f 5f       	subi	r25, 0xFF	; 255
    18ac:	5f 4f       	sbci	r21, 0xFF	; 255
    18ae:	22 0f       	add	r18, r18
    18b0:	33 1f       	adc	r19, r19
    18b2:	44 1f       	adc	r20, r20
    18b4:	aa 1f       	adc	r26, r26
    18b6:	a9 f3       	breq	.-22     	; 0x18a2 <__divsf3_pse+0x10>
    18b8:	33 d0       	rcall	.+102    	; 0x1920 <__divsf3_pse+0x8e>
    18ba:	0e 2e       	mov	r0, r30
    18bc:	3a f0       	brmi	.+14     	; 0x18cc <__divsf3_pse+0x3a>
    18be:	e0 e8       	ldi	r30, 0x80	; 128
    18c0:	30 d0       	rcall	.+96     	; 0x1922 <__divsf3_pse+0x90>
    18c2:	91 50       	subi	r25, 0x01	; 1
    18c4:	50 40       	sbci	r21, 0x00	; 0
    18c6:	e6 95       	lsr	r30
    18c8:	00 1c       	adc	r0, r0
    18ca:	ca f7       	brpl	.-14     	; 0x18be <__divsf3_pse+0x2c>
    18cc:	29 d0       	rcall	.+82     	; 0x1920 <__divsf3_pse+0x8e>
    18ce:	fe 2f       	mov	r31, r30
    18d0:	27 d0       	rcall	.+78     	; 0x1920 <__divsf3_pse+0x8e>
    18d2:	66 0f       	add	r22, r22
    18d4:	77 1f       	adc	r23, r23
    18d6:	88 1f       	adc	r24, r24
    18d8:	bb 1f       	adc	r27, r27
    18da:	26 17       	cp	r18, r22
    18dc:	37 07       	cpc	r19, r23
    18de:	48 07       	cpc	r20, r24
    18e0:	ab 07       	cpc	r26, r27
    18e2:	b0 e8       	ldi	r27, 0x80	; 128
    18e4:	09 f0       	breq	.+2      	; 0x18e8 <__divsf3_pse+0x56>
    18e6:	bb 0b       	sbc	r27, r27
    18e8:	80 2d       	mov	r24, r0
    18ea:	bf 01       	movw	r22, r30
    18ec:	ff 27       	eor	r31, r31
    18ee:	93 58       	subi	r25, 0x83	; 131
    18f0:	5f 4f       	sbci	r21, 0xFF	; 255
    18f2:	2a f0       	brmi	.+10     	; 0x18fe <__divsf3_pse+0x6c>
    18f4:	9e 3f       	cpi	r25, 0xFE	; 254
    18f6:	51 05       	cpc	r21, r1
    18f8:	68 f0       	brcs	.+26     	; 0x1914 <__divsf3_pse+0x82>
    18fa:	b6 c0       	rjmp	.+364    	; 0x1a68 <__fp_inf>
    18fc:	00 c1       	rjmp	.+512    	; 0x1afe <__fp_szero>
    18fe:	5f 3f       	cpi	r21, 0xFF	; 255
    1900:	ec f3       	brlt	.-6      	; 0x18fc <__divsf3_pse+0x6a>
    1902:	98 3e       	cpi	r25, 0xE8	; 232
    1904:	dc f3       	brlt	.-10     	; 0x18fc <__divsf3_pse+0x6a>
    1906:	86 95       	lsr	r24
    1908:	77 95       	ror	r23
    190a:	67 95       	ror	r22
    190c:	b7 95       	ror	r27
    190e:	f7 95       	ror	r31
    1910:	9f 5f       	subi	r25, 0xFF	; 255
    1912:	c9 f7       	brne	.-14     	; 0x1906 <__divsf3_pse+0x74>
    1914:	88 0f       	add	r24, r24
    1916:	91 1d       	adc	r25, r1
    1918:	96 95       	lsr	r25
    191a:	87 95       	ror	r24
    191c:	97 f9       	bld	r25, 7
    191e:	08 95       	ret
    1920:	e1 e0       	ldi	r30, 0x01	; 1
    1922:	66 0f       	add	r22, r22
    1924:	77 1f       	adc	r23, r23
    1926:	88 1f       	adc	r24, r24
    1928:	bb 1f       	adc	r27, r27
    192a:	62 17       	cp	r22, r18
    192c:	73 07       	cpc	r23, r19
    192e:	84 07       	cpc	r24, r20
    1930:	ba 07       	cpc	r27, r26
    1932:	20 f0       	brcs	.+8      	; 0x193c <__divsf3_pse+0xaa>
    1934:	62 1b       	sub	r22, r18
    1936:	73 0b       	sbc	r23, r19
    1938:	84 0b       	sbc	r24, r20
    193a:	ba 0b       	sbc	r27, r26
    193c:	ee 1f       	adc	r30, r30
    193e:	88 f7       	brcc	.-30     	; 0x1922 <__divsf3_pse+0x90>
    1940:	e0 95       	com	r30
    1942:	08 95       	ret

00001944 <__fixsfsi>:
    1944:	04 d0       	rcall	.+8      	; 0x194e <__fixunssfsi>
    1946:	68 94       	set
    1948:	b1 11       	cpse	r27, r1
    194a:	d9 c0       	rjmp	.+434    	; 0x1afe <__fp_szero>
    194c:	08 95       	ret

0000194e <__fixunssfsi>:
    194e:	bc d0       	rcall	.+376    	; 0x1ac8 <__fp_splitA>
    1950:	88 f0       	brcs	.+34     	; 0x1974 <__fixunssfsi+0x26>
    1952:	9f 57       	subi	r25, 0x7F	; 127
    1954:	90 f0       	brcs	.+36     	; 0x197a <__fixunssfsi+0x2c>
    1956:	b9 2f       	mov	r27, r25
    1958:	99 27       	eor	r25, r25
    195a:	b7 51       	subi	r27, 0x17	; 23
    195c:	a0 f0       	brcs	.+40     	; 0x1986 <__fixunssfsi+0x38>
    195e:	d1 f0       	breq	.+52     	; 0x1994 <__fixunssfsi+0x46>
    1960:	66 0f       	add	r22, r22
    1962:	77 1f       	adc	r23, r23
    1964:	88 1f       	adc	r24, r24
    1966:	99 1f       	adc	r25, r25
    1968:	1a f0       	brmi	.+6      	; 0x1970 <__fixunssfsi+0x22>
    196a:	ba 95       	dec	r27
    196c:	c9 f7       	brne	.-14     	; 0x1960 <__fixunssfsi+0x12>
    196e:	12 c0       	rjmp	.+36     	; 0x1994 <__fixunssfsi+0x46>
    1970:	b1 30       	cpi	r27, 0x01	; 1
    1972:	81 f0       	breq	.+32     	; 0x1994 <__fixunssfsi+0x46>
    1974:	c3 d0       	rcall	.+390    	; 0x1afc <__fp_zero>
    1976:	b1 e0       	ldi	r27, 0x01	; 1
    1978:	08 95       	ret
    197a:	c0 c0       	rjmp	.+384    	; 0x1afc <__fp_zero>
    197c:	67 2f       	mov	r22, r23
    197e:	78 2f       	mov	r23, r24
    1980:	88 27       	eor	r24, r24
    1982:	b8 5f       	subi	r27, 0xF8	; 248
    1984:	39 f0       	breq	.+14     	; 0x1994 <__fixunssfsi+0x46>
    1986:	b9 3f       	cpi	r27, 0xF9	; 249
    1988:	cc f3       	brlt	.-14     	; 0x197c <__fixunssfsi+0x2e>
    198a:	86 95       	lsr	r24
    198c:	77 95       	ror	r23
    198e:	67 95       	ror	r22
    1990:	b3 95       	inc	r27
    1992:	d9 f7       	brne	.-10     	; 0x198a <__fixunssfsi+0x3c>
    1994:	3e f4       	brtc	.+14     	; 0x19a4 <__fixunssfsi+0x56>
    1996:	90 95       	com	r25
    1998:	80 95       	com	r24
    199a:	70 95       	com	r23
    199c:	61 95       	neg	r22
    199e:	7f 4f       	sbci	r23, 0xFF	; 255
    19a0:	8f 4f       	sbci	r24, 0xFF	; 255
    19a2:	9f 4f       	sbci	r25, 0xFF	; 255
    19a4:	08 95       	ret

000019a6 <__floatunsisf>:
    19a6:	e8 94       	clt
    19a8:	09 c0       	rjmp	.+18     	; 0x19bc <__floatsisf+0x12>

000019aa <__floatsisf>:
    19aa:	97 fb       	bst	r25, 7
    19ac:	3e f4       	brtc	.+14     	; 0x19bc <__floatsisf+0x12>
    19ae:	90 95       	com	r25
    19b0:	80 95       	com	r24
    19b2:	70 95       	com	r23
    19b4:	61 95       	neg	r22
    19b6:	7f 4f       	sbci	r23, 0xFF	; 255
    19b8:	8f 4f       	sbci	r24, 0xFF	; 255
    19ba:	9f 4f       	sbci	r25, 0xFF	; 255
    19bc:	99 23       	and	r25, r25
    19be:	a9 f0       	breq	.+42     	; 0x19ea <__floatsisf+0x40>
    19c0:	f9 2f       	mov	r31, r25
    19c2:	96 e9       	ldi	r25, 0x96	; 150
    19c4:	bb 27       	eor	r27, r27
    19c6:	93 95       	inc	r25
    19c8:	f6 95       	lsr	r31
    19ca:	87 95       	ror	r24
    19cc:	77 95       	ror	r23
    19ce:	67 95       	ror	r22
    19d0:	b7 95       	ror	r27
    19d2:	f1 11       	cpse	r31, r1
    19d4:	f8 cf       	rjmp	.-16     	; 0x19c6 <__floatsisf+0x1c>
    19d6:	fa f4       	brpl	.+62     	; 0x1a16 <__floatsisf+0x6c>
    19d8:	bb 0f       	add	r27, r27
    19da:	11 f4       	brne	.+4      	; 0x19e0 <__floatsisf+0x36>
    19dc:	60 ff       	sbrs	r22, 0
    19de:	1b c0       	rjmp	.+54     	; 0x1a16 <__floatsisf+0x6c>
    19e0:	6f 5f       	subi	r22, 0xFF	; 255
    19e2:	7f 4f       	sbci	r23, 0xFF	; 255
    19e4:	8f 4f       	sbci	r24, 0xFF	; 255
    19e6:	9f 4f       	sbci	r25, 0xFF	; 255
    19e8:	16 c0       	rjmp	.+44     	; 0x1a16 <__floatsisf+0x6c>
    19ea:	88 23       	and	r24, r24
    19ec:	11 f0       	breq	.+4      	; 0x19f2 <__floatsisf+0x48>
    19ee:	96 e9       	ldi	r25, 0x96	; 150
    19f0:	11 c0       	rjmp	.+34     	; 0x1a14 <__floatsisf+0x6a>
    19f2:	77 23       	and	r23, r23
    19f4:	21 f0       	breq	.+8      	; 0x19fe <__floatsisf+0x54>
    19f6:	9e e8       	ldi	r25, 0x8E	; 142
    19f8:	87 2f       	mov	r24, r23
    19fa:	76 2f       	mov	r23, r22
    19fc:	05 c0       	rjmp	.+10     	; 0x1a08 <__floatsisf+0x5e>
    19fe:	66 23       	and	r22, r22
    1a00:	71 f0       	breq	.+28     	; 0x1a1e <__floatsisf+0x74>
    1a02:	96 e8       	ldi	r25, 0x86	; 134
    1a04:	86 2f       	mov	r24, r22
    1a06:	70 e0       	ldi	r23, 0x00	; 0
    1a08:	60 e0       	ldi	r22, 0x00	; 0
    1a0a:	2a f0       	brmi	.+10     	; 0x1a16 <__floatsisf+0x6c>
    1a0c:	9a 95       	dec	r25
    1a0e:	66 0f       	add	r22, r22
    1a10:	77 1f       	adc	r23, r23
    1a12:	88 1f       	adc	r24, r24
    1a14:	da f7       	brpl	.-10     	; 0x1a0c <__floatsisf+0x62>
    1a16:	88 0f       	add	r24, r24
    1a18:	96 95       	lsr	r25
    1a1a:	87 95       	ror	r24
    1a1c:	97 f9       	bld	r25, 7
    1a1e:	08 95       	ret

00001a20 <__fp_cmp>:
    1a20:	99 0f       	add	r25, r25
    1a22:	00 08       	sbc	r0, r0
    1a24:	55 0f       	add	r21, r21
    1a26:	aa 0b       	sbc	r26, r26
    1a28:	e0 e8       	ldi	r30, 0x80	; 128
    1a2a:	fe ef       	ldi	r31, 0xFE	; 254
    1a2c:	16 16       	cp	r1, r22
    1a2e:	17 06       	cpc	r1, r23
    1a30:	e8 07       	cpc	r30, r24
    1a32:	f9 07       	cpc	r31, r25
    1a34:	c0 f0       	brcs	.+48     	; 0x1a66 <__fp_cmp+0x46>
    1a36:	12 16       	cp	r1, r18
    1a38:	13 06       	cpc	r1, r19
    1a3a:	e4 07       	cpc	r30, r20
    1a3c:	f5 07       	cpc	r31, r21
    1a3e:	98 f0       	brcs	.+38     	; 0x1a66 <__fp_cmp+0x46>
    1a40:	62 1b       	sub	r22, r18
    1a42:	73 0b       	sbc	r23, r19
    1a44:	84 0b       	sbc	r24, r20
    1a46:	95 0b       	sbc	r25, r21
    1a48:	39 f4       	brne	.+14     	; 0x1a58 <__fp_cmp+0x38>
    1a4a:	0a 26       	eor	r0, r26
    1a4c:	61 f0       	breq	.+24     	; 0x1a66 <__fp_cmp+0x46>
    1a4e:	23 2b       	or	r18, r19
    1a50:	24 2b       	or	r18, r20
    1a52:	25 2b       	or	r18, r21
    1a54:	21 f4       	brne	.+8      	; 0x1a5e <__fp_cmp+0x3e>
    1a56:	08 95       	ret
    1a58:	0a 26       	eor	r0, r26
    1a5a:	09 f4       	brne	.+2      	; 0x1a5e <__fp_cmp+0x3e>
    1a5c:	a1 40       	sbci	r26, 0x01	; 1
    1a5e:	a6 95       	lsr	r26
    1a60:	8f ef       	ldi	r24, 0xFF	; 255
    1a62:	81 1d       	adc	r24, r1
    1a64:	81 1d       	adc	r24, r1
    1a66:	08 95       	ret

00001a68 <__fp_inf>:
    1a68:	97 f9       	bld	r25, 7
    1a6a:	9f 67       	ori	r25, 0x7F	; 127
    1a6c:	80 e8       	ldi	r24, 0x80	; 128
    1a6e:	70 e0       	ldi	r23, 0x00	; 0
    1a70:	60 e0       	ldi	r22, 0x00	; 0
    1a72:	08 95       	ret

00001a74 <__fp_nan>:
    1a74:	9f ef       	ldi	r25, 0xFF	; 255
    1a76:	80 ec       	ldi	r24, 0xC0	; 192
    1a78:	08 95       	ret

00001a7a <__fp_pscA>:
    1a7a:	00 24       	eor	r0, r0
    1a7c:	0a 94       	dec	r0
    1a7e:	16 16       	cp	r1, r22
    1a80:	17 06       	cpc	r1, r23
    1a82:	18 06       	cpc	r1, r24
    1a84:	09 06       	cpc	r0, r25
    1a86:	08 95       	ret

00001a88 <__fp_pscB>:
    1a88:	00 24       	eor	r0, r0
    1a8a:	0a 94       	dec	r0
    1a8c:	12 16       	cp	r1, r18
    1a8e:	13 06       	cpc	r1, r19
    1a90:	14 06       	cpc	r1, r20
    1a92:	05 06       	cpc	r0, r21
    1a94:	08 95       	ret

00001a96 <__fp_round>:
    1a96:	09 2e       	mov	r0, r25
    1a98:	03 94       	inc	r0
    1a9a:	00 0c       	add	r0, r0
    1a9c:	11 f4       	brne	.+4      	; 0x1aa2 <__fp_round+0xc>
    1a9e:	88 23       	and	r24, r24
    1aa0:	52 f0       	brmi	.+20     	; 0x1ab6 <__fp_round+0x20>
    1aa2:	bb 0f       	add	r27, r27
    1aa4:	40 f4       	brcc	.+16     	; 0x1ab6 <__fp_round+0x20>
    1aa6:	bf 2b       	or	r27, r31
    1aa8:	11 f4       	brne	.+4      	; 0x1aae <__fp_round+0x18>
    1aaa:	60 ff       	sbrs	r22, 0
    1aac:	04 c0       	rjmp	.+8      	; 0x1ab6 <__fp_round+0x20>
    1aae:	6f 5f       	subi	r22, 0xFF	; 255
    1ab0:	7f 4f       	sbci	r23, 0xFF	; 255
    1ab2:	8f 4f       	sbci	r24, 0xFF	; 255
    1ab4:	9f 4f       	sbci	r25, 0xFF	; 255
    1ab6:	08 95       	ret

00001ab8 <__fp_split3>:
    1ab8:	57 fd       	sbrc	r21, 7
    1aba:	90 58       	subi	r25, 0x80	; 128
    1abc:	44 0f       	add	r20, r20
    1abe:	55 1f       	adc	r21, r21
    1ac0:	59 f0       	breq	.+22     	; 0x1ad8 <__fp_splitA+0x10>
    1ac2:	5f 3f       	cpi	r21, 0xFF	; 255
    1ac4:	71 f0       	breq	.+28     	; 0x1ae2 <__fp_splitA+0x1a>
    1ac6:	47 95       	ror	r20

00001ac8 <__fp_splitA>:
    1ac8:	88 0f       	add	r24, r24
    1aca:	97 fb       	bst	r25, 7
    1acc:	99 1f       	adc	r25, r25
    1ace:	61 f0       	breq	.+24     	; 0x1ae8 <__fp_splitA+0x20>
    1ad0:	9f 3f       	cpi	r25, 0xFF	; 255
    1ad2:	79 f0       	breq	.+30     	; 0x1af2 <__fp_splitA+0x2a>
    1ad4:	87 95       	ror	r24
    1ad6:	08 95       	ret
    1ad8:	12 16       	cp	r1, r18
    1ada:	13 06       	cpc	r1, r19
    1adc:	14 06       	cpc	r1, r20
    1ade:	55 1f       	adc	r21, r21
    1ae0:	f2 cf       	rjmp	.-28     	; 0x1ac6 <__fp_split3+0xe>
    1ae2:	46 95       	lsr	r20
    1ae4:	f1 df       	rcall	.-30     	; 0x1ac8 <__fp_splitA>
    1ae6:	08 c0       	rjmp	.+16     	; 0x1af8 <__fp_splitA+0x30>
    1ae8:	16 16       	cp	r1, r22
    1aea:	17 06       	cpc	r1, r23
    1aec:	18 06       	cpc	r1, r24
    1aee:	99 1f       	adc	r25, r25
    1af0:	f1 cf       	rjmp	.-30     	; 0x1ad4 <__fp_splitA+0xc>
    1af2:	86 95       	lsr	r24
    1af4:	71 05       	cpc	r23, r1
    1af6:	61 05       	cpc	r22, r1
    1af8:	08 94       	sec
    1afa:	08 95       	ret

00001afc <__fp_zero>:
    1afc:	e8 94       	clt

00001afe <__fp_szero>:
    1afe:	bb 27       	eor	r27, r27
    1b00:	66 27       	eor	r22, r22
    1b02:	77 27       	eor	r23, r23
    1b04:	cb 01       	movw	r24, r22
    1b06:	97 f9       	bld	r25, 7
    1b08:	08 95       	ret

00001b0a <__gesf2>:
    1b0a:	8a df       	rcall	.-236    	; 0x1a20 <__fp_cmp>
    1b0c:	08 f4       	brcc	.+2      	; 0x1b10 <__gesf2+0x6>
    1b0e:	8f ef       	ldi	r24, 0xFF	; 255
    1b10:	08 95       	ret

00001b12 <__mulsf3>:
    1b12:	0b d0       	rcall	.+22     	; 0x1b2a <__mulsf3x>
    1b14:	c0 cf       	rjmp	.-128    	; 0x1a96 <__fp_round>
    1b16:	b1 df       	rcall	.-158    	; 0x1a7a <__fp_pscA>
    1b18:	28 f0       	brcs	.+10     	; 0x1b24 <__mulsf3+0x12>
    1b1a:	b6 df       	rcall	.-148    	; 0x1a88 <__fp_pscB>
    1b1c:	18 f0       	brcs	.+6      	; 0x1b24 <__mulsf3+0x12>
    1b1e:	95 23       	and	r25, r21
    1b20:	09 f0       	breq	.+2      	; 0x1b24 <__mulsf3+0x12>
    1b22:	a2 cf       	rjmp	.-188    	; 0x1a68 <__fp_inf>
    1b24:	a7 cf       	rjmp	.-178    	; 0x1a74 <__fp_nan>
    1b26:	11 24       	eor	r1, r1
    1b28:	ea cf       	rjmp	.-44     	; 0x1afe <__fp_szero>

00001b2a <__mulsf3x>:
    1b2a:	c6 df       	rcall	.-116    	; 0x1ab8 <__fp_split3>
    1b2c:	a0 f3       	brcs	.-24     	; 0x1b16 <__mulsf3+0x4>

00001b2e <__mulsf3_pse>:
    1b2e:	95 9f       	mul	r25, r21
    1b30:	d1 f3       	breq	.-12     	; 0x1b26 <__mulsf3+0x14>
    1b32:	95 0f       	add	r25, r21
    1b34:	50 e0       	ldi	r21, 0x00	; 0
    1b36:	55 1f       	adc	r21, r21
    1b38:	62 9f       	mul	r22, r18
    1b3a:	f0 01       	movw	r30, r0
    1b3c:	72 9f       	mul	r23, r18
    1b3e:	bb 27       	eor	r27, r27
    1b40:	f0 0d       	add	r31, r0
    1b42:	b1 1d       	adc	r27, r1
    1b44:	63 9f       	mul	r22, r19
    1b46:	aa 27       	eor	r26, r26
    1b48:	f0 0d       	add	r31, r0
    1b4a:	b1 1d       	adc	r27, r1
    1b4c:	aa 1f       	adc	r26, r26
    1b4e:	64 9f       	mul	r22, r20
    1b50:	66 27       	eor	r22, r22
    1b52:	b0 0d       	add	r27, r0
    1b54:	a1 1d       	adc	r26, r1
    1b56:	66 1f       	adc	r22, r22
    1b58:	82 9f       	mul	r24, r18
    1b5a:	22 27       	eor	r18, r18
    1b5c:	b0 0d       	add	r27, r0
    1b5e:	a1 1d       	adc	r26, r1
    1b60:	62 1f       	adc	r22, r18
    1b62:	73 9f       	mul	r23, r19
    1b64:	b0 0d       	add	r27, r0
    1b66:	a1 1d       	adc	r26, r1
    1b68:	62 1f       	adc	r22, r18
    1b6a:	83 9f       	mul	r24, r19
    1b6c:	a0 0d       	add	r26, r0
    1b6e:	61 1d       	adc	r22, r1
    1b70:	22 1f       	adc	r18, r18
    1b72:	74 9f       	mul	r23, r20
    1b74:	33 27       	eor	r19, r19
    1b76:	a0 0d       	add	r26, r0
    1b78:	61 1d       	adc	r22, r1
    1b7a:	23 1f       	adc	r18, r19
    1b7c:	84 9f       	mul	r24, r20
    1b7e:	60 0d       	add	r22, r0
    1b80:	21 1d       	adc	r18, r1
    1b82:	82 2f       	mov	r24, r18
    1b84:	76 2f       	mov	r23, r22
    1b86:	6a 2f       	mov	r22, r26
    1b88:	11 24       	eor	r1, r1
    1b8a:	9f 57       	subi	r25, 0x7F	; 127
    1b8c:	50 40       	sbci	r21, 0x00	; 0
    1b8e:	8a f0       	brmi	.+34     	; 0x1bb2 <__mulsf3_pse+0x84>
    1b90:	e1 f0       	breq	.+56     	; 0x1bca <__mulsf3_pse+0x9c>
    1b92:	88 23       	and	r24, r24
    1b94:	4a f0       	brmi	.+18     	; 0x1ba8 <__mulsf3_pse+0x7a>
    1b96:	ee 0f       	add	r30, r30
    1b98:	ff 1f       	adc	r31, r31
    1b9a:	bb 1f       	adc	r27, r27
    1b9c:	66 1f       	adc	r22, r22
    1b9e:	77 1f       	adc	r23, r23
    1ba0:	88 1f       	adc	r24, r24
    1ba2:	91 50       	subi	r25, 0x01	; 1
    1ba4:	50 40       	sbci	r21, 0x00	; 0
    1ba6:	a9 f7       	brne	.-22     	; 0x1b92 <__mulsf3_pse+0x64>
    1ba8:	9e 3f       	cpi	r25, 0xFE	; 254
    1baa:	51 05       	cpc	r21, r1
    1bac:	70 f0       	brcs	.+28     	; 0x1bca <__mulsf3_pse+0x9c>
    1bae:	5c cf       	rjmp	.-328    	; 0x1a68 <__fp_inf>
    1bb0:	a6 cf       	rjmp	.-180    	; 0x1afe <__fp_szero>
    1bb2:	5f 3f       	cpi	r21, 0xFF	; 255
    1bb4:	ec f3       	brlt	.-6      	; 0x1bb0 <__mulsf3_pse+0x82>
    1bb6:	98 3e       	cpi	r25, 0xE8	; 232
    1bb8:	dc f3       	brlt	.-10     	; 0x1bb0 <__mulsf3_pse+0x82>
    1bba:	86 95       	lsr	r24
    1bbc:	77 95       	ror	r23
    1bbe:	67 95       	ror	r22
    1bc0:	b7 95       	ror	r27
    1bc2:	f7 95       	ror	r31
    1bc4:	e7 95       	ror	r30
    1bc6:	9f 5f       	subi	r25, 0xFF	; 255
    1bc8:	c1 f7       	brne	.-16     	; 0x1bba <__mulsf3_pse+0x8c>
    1bca:	fe 2b       	or	r31, r30
    1bcc:	88 0f       	add	r24, r24
    1bce:	91 1d       	adc	r25, r1
    1bd0:	96 95       	lsr	r25
    1bd2:	87 95       	ror	r24
    1bd4:	97 f9       	bld	r25, 7
    1bd6:	08 95       	ret

00001bd8 <pow>:
    1bd8:	fa 01       	movw	r30, r20
    1bda:	ee 0f       	add	r30, r30
    1bdc:	ff 1f       	adc	r31, r31
    1bde:	30 96       	adiw	r30, 0x00	; 0
    1be0:	21 05       	cpc	r18, r1
    1be2:	31 05       	cpc	r19, r1
    1be4:	99 f1       	breq	.+102    	; 0x1c4c <pow+0x74>
    1be6:	61 15       	cp	r22, r1
    1be8:	71 05       	cpc	r23, r1
    1bea:	61 f4       	brne	.+24     	; 0x1c04 <pow+0x2c>
    1bec:	80 38       	cpi	r24, 0x80	; 128
    1bee:	bf e3       	ldi	r27, 0x3F	; 63
    1bf0:	9b 07       	cpc	r25, r27
    1bf2:	49 f1       	breq	.+82     	; 0x1c46 <pow+0x6e>
    1bf4:	68 94       	set
    1bf6:	90 38       	cpi	r25, 0x80	; 128
    1bf8:	81 05       	cpc	r24, r1
    1bfa:	61 f0       	breq	.+24     	; 0x1c14 <pow+0x3c>
    1bfc:	80 38       	cpi	r24, 0x80	; 128
    1bfe:	bf ef       	ldi	r27, 0xFF	; 255
    1c00:	9b 07       	cpc	r25, r27
    1c02:	41 f0       	breq	.+16     	; 0x1c14 <pow+0x3c>
    1c04:	99 23       	and	r25, r25
    1c06:	42 f5       	brpl	.+80     	; 0x1c58 <pow+0x80>
    1c08:	ff 3f       	cpi	r31, 0xFF	; 255
    1c0a:	e1 05       	cpc	r30, r1
    1c0c:	31 05       	cpc	r19, r1
    1c0e:	21 05       	cpc	r18, r1
    1c10:	11 f1       	breq	.+68     	; 0x1c56 <pow+0x7e>
    1c12:	e8 94       	clt
    1c14:	08 94       	sec
    1c16:	e7 95       	ror	r30
    1c18:	d9 01       	movw	r26, r18
    1c1a:	aa 23       	and	r26, r26
    1c1c:	29 f4       	brne	.+10     	; 0x1c28 <pow+0x50>
    1c1e:	ab 2f       	mov	r26, r27
    1c20:	be 2f       	mov	r27, r30
    1c22:	f8 5f       	subi	r31, 0xF8	; 248
    1c24:	d0 f3       	brcs	.-12     	; 0x1c1a <pow+0x42>
    1c26:	10 c0       	rjmp	.+32     	; 0x1c48 <pow+0x70>
    1c28:	ff 5f       	subi	r31, 0xFF	; 255
    1c2a:	70 f4       	brcc	.+28     	; 0x1c48 <pow+0x70>
    1c2c:	a6 95       	lsr	r26
    1c2e:	e0 f7       	brcc	.-8      	; 0x1c28 <pow+0x50>
    1c30:	f7 39       	cpi	r31, 0x97	; 151
    1c32:	50 f0       	brcs	.+20     	; 0x1c48 <pow+0x70>
    1c34:	19 f0       	breq	.+6      	; 0x1c3c <pow+0x64>
    1c36:	ff 3a       	cpi	r31, 0xAF	; 175
    1c38:	38 f4       	brcc	.+14     	; 0x1c48 <pow+0x70>
    1c3a:	9f 77       	andi	r25, 0x7F	; 127
    1c3c:	9f 93       	push	r25
    1c3e:	0c d0       	rcall	.+24     	; 0x1c58 <pow+0x80>
    1c40:	0f 90       	pop	r0
    1c42:	07 fc       	sbrc	r0, 7
    1c44:	90 58       	subi	r25, 0x80	; 128
    1c46:	08 95       	ret
    1c48:	3e f0       	brts	.+14     	; 0x1c58 <pow+0x80>
    1c4a:	14 cf       	rjmp	.-472    	; 0x1a74 <__fp_nan>
    1c4c:	60 e0       	ldi	r22, 0x00	; 0
    1c4e:	70 e0       	ldi	r23, 0x00	; 0
    1c50:	80 e8       	ldi	r24, 0x80	; 128
    1c52:	9f e3       	ldi	r25, 0x3F	; 63
    1c54:	08 95       	ret
    1c56:	4f e7       	ldi	r20, 0x7F	; 127
    1c58:	9f 77       	andi	r25, 0x7F	; 127
    1c5a:	5f 93       	push	r21
    1c5c:	4f 93       	push	r20
    1c5e:	3f 93       	push	r19
    1c60:	2f 93       	push	r18
    1c62:	9e d0       	rcall	.+316    	; 0x1da0 <log>
    1c64:	2f 91       	pop	r18
    1c66:	3f 91       	pop	r19
    1c68:	4f 91       	pop	r20
    1c6a:	5f 91       	pop	r21
    1c6c:	52 df       	rcall	.-348    	; 0x1b12 <__mulsf3>
    1c6e:	05 c0       	rjmp	.+10     	; 0x1c7a <exp>
    1c70:	19 f4       	brne	.+6      	; 0x1c78 <pow+0xa0>
    1c72:	0e f0       	brts	.+2      	; 0x1c76 <pow+0x9e>
    1c74:	f9 ce       	rjmp	.-526    	; 0x1a68 <__fp_inf>
    1c76:	42 cf       	rjmp	.-380    	; 0x1afc <__fp_zero>
    1c78:	fd ce       	rjmp	.-518    	; 0x1a74 <__fp_nan>

00001c7a <exp>:
    1c7a:	26 df       	rcall	.-436    	; 0x1ac8 <__fp_splitA>
    1c7c:	c8 f3       	brcs	.-14     	; 0x1c70 <pow+0x98>
    1c7e:	96 38       	cpi	r25, 0x86	; 134
    1c80:	c0 f7       	brcc	.-16     	; 0x1c72 <pow+0x9a>
    1c82:	07 f8       	bld	r0, 7
    1c84:	0f 92       	push	r0
    1c86:	e8 94       	clt
    1c88:	2b e3       	ldi	r18, 0x3B	; 59
    1c8a:	3a ea       	ldi	r19, 0xAA	; 170
    1c8c:	48 eb       	ldi	r20, 0xB8	; 184
    1c8e:	5f e7       	ldi	r21, 0x7F	; 127
    1c90:	4e df       	rcall	.-356    	; 0x1b2e <__mulsf3_pse>
    1c92:	0f 92       	push	r0
    1c94:	0f 92       	push	r0
    1c96:	0f 92       	push	r0
    1c98:	4d b7       	in	r20, 0x3d	; 61
    1c9a:	5e b7       	in	r21, 0x3e	; 62
    1c9c:	0f 92       	push	r0
    1c9e:	c0 d0       	rcall	.+384    	; 0x1e20 <modf>
    1ca0:	ec ef       	ldi	r30, 0xFC	; 252
    1ca2:	f1 e0       	ldi	r31, 0x01	; 1
    1ca4:	16 d0       	rcall	.+44     	; 0x1cd2 <__fp_powser>
    1ca6:	4f 91       	pop	r20
    1ca8:	5f 91       	pop	r21
    1caa:	ef 91       	pop	r30
    1cac:	ff 91       	pop	r31
    1cae:	e5 95       	asr	r30
    1cb0:	ee 1f       	adc	r30, r30
    1cb2:	ff 1f       	adc	r31, r31
    1cb4:	49 f0       	breq	.+18     	; 0x1cc8 <exp+0x4e>
    1cb6:	fe 57       	subi	r31, 0x7E	; 126
    1cb8:	e0 68       	ori	r30, 0x80	; 128
    1cba:	44 27       	eor	r20, r20
    1cbc:	ee 0f       	add	r30, r30
    1cbe:	44 1f       	adc	r20, r20
    1cc0:	fa 95       	dec	r31
    1cc2:	e1 f7       	brne	.-8      	; 0x1cbc <exp+0x42>
    1cc4:	41 95       	neg	r20
    1cc6:	55 0b       	sbc	r21, r21
    1cc8:	32 d0       	rcall	.+100    	; 0x1d2e <ldexp>
    1cca:	0f 90       	pop	r0
    1ccc:	07 fe       	sbrs	r0, 7
    1cce:	26 c0       	rjmp	.+76     	; 0x1d1c <inverse>
    1cd0:	08 95       	ret

00001cd2 <__fp_powser>:
    1cd2:	df 93       	push	r29
    1cd4:	cf 93       	push	r28
    1cd6:	1f 93       	push	r17
    1cd8:	0f 93       	push	r16
    1cda:	ff 92       	push	r15
    1cdc:	ef 92       	push	r14
    1cde:	df 92       	push	r13
    1ce0:	7b 01       	movw	r14, r22
    1ce2:	8c 01       	movw	r16, r24
    1ce4:	68 94       	set
    1ce6:	05 c0       	rjmp	.+10     	; 0x1cf2 <__fp_powser+0x20>
    1ce8:	da 2e       	mov	r13, r26
    1cea:	ef 01       	movw	r28, r30
    1cec:	1e df       	rcall	.-452    	; 0x1b2a <__mulsf3x>
    1cee:	fe 01       	movw	r30, r28
    1cf0:	e8 94       	clt
    1cf2:	a5 91       	lpm	r26, Z+
    1cf4:	25 91       	lpm	r18, Z+
    1cf6:	35 91       	lpm	r19, Z+
    1cf8:	45 91       	lpm	r20, Z+
    1cfa:	55 91       	lpm	r21, Z+
    1cfc:	ae f3       	brts	.-22     	; 0x1ce8 <__fp_powser+0x16>
    1cfe:	ef 01       	movw	r28, r30
    1d00:	62 dd       	rcall	.-1340   	; 0x17c6 <__addsf3x>
    1d02:	fe 01       	movw	r30, r28
    1d04:	97 01       	movw	r18, r14
    1d06:	a8 01       	movw	r20, r16
    1d08:	da 94       	dec	r13
    1d0a:	79 f7       	brne	.-34     	; 0x1cea <__fp_powser+0x18>
    1d0c:	df 90       	pop	r13
    1d0e:	ef 90       	pop	r14
    1d10:	ff 90       	pop	r15
    1d12:	0f 91       	pop	r16
    1d14:	1f 91       	pop	r17
    1d16:	cf 91       	pop	r28
    1d18:	df 91       	pop	r29
    1d1a:	08 95       	ret

00001d1c <inverse>:
    1d1c:	9b 01       	movw	r18, r22
    1d1e:	ac 01       	movw	r20, r24
    1d20:	60 e0       	ldi	r22, 0x00	; 0
    1d22:	70 e0       	ldi	r23, 0x00	; 0
    1d24:	80 e8       	ldi	r24, 0x80	; 128
    1d26:	9f e3       	ldi	r25, 0x3F	; 63
    1d28:	a5 cd       	rjmp	.-1206   	; 0x1874 <__divsf3>
    1d2a:	9e ce       	rjmp	.-708    	; 0x1a68 <__fp_inf>
    1d2c:	ac c0       	rjmp	.+344    	; 0x1e86 <__fp_mpack>

00001d2e <ldexp>:
    1d2e:	cc de       	rcall	.-616    	; 0x1ac8 <__fp_splitA>
    1d30:	e8 f3       	brcs	.-6      	; 0x1d2c <inverse+0x10>
    1d32:	99 23       	and	r25, r25
    1d34:	d9 f3       	breq	.-10     	; 0x1d2c <inverse+0x10>
    1d36:	94 0f       	add	r25, r20
    1d38:	51 1d       	adc	r21, r1
    1d3a:	bb f3       	brvs	.-18     	; 0x1d2a <inverse+0xe>
    1d3c:	91 50       	subi	r25, 0x01	; 1
    1d3e:	50 40       	sbci	r21, 0x00	; 0
    1d40:	94 f0       	brlt	.+36     	; 0x1d66 <ldexp+0x38>
    1d42:	59 f0       	breq	.+22     	; 0x1d5a <ldexp+0x2c>
    1d44:	88 23       	and	r24, r24
    1d46:	32 f0       	brmi	.+12     	; 0x1d54 <ldexp+0x26>
    1d48:	66 0f       	add	r22, r22
    1d4a:	77 1f       	adc	r23, r23
    1d4c:	88 1f       	adc	r24, r24
    1d4e:	91 50       	subi	r25, 0x01	; 1
    1d50:	50 40       	sbci	r21, 0x00	; 0
    1d52:	c1 f7       	brne	.-16     	; 0x1d44 <ldexp+0x16>
    1d54:	9e 3f       	cpi	r25, 0xFE	; 254
    1d56:	51 05       	cpc	r21, r1
    1d58:	44 f7       	brge	.-48     	; 0x1d2a <inverse+0xe>
    1d5a:	88 0f       	add	r24, r24
    1d5c:	91 1d       	adc	r25, r1
    1d5e:	96 95       	lsr	r25
    1d60:	87 95       	ror	r24
    1d62:	97 f9       	bld	r25, 7
    1d64:	08 95       	ret
    1d66:	5f 3f       	cpi	r21, 0xFF	; 255
    1d68:	ac f0       	brlt	.+42     	; 0x1d94 <ldexp+0x66>
    1d6a:	98 3e       	cpi	r25, 0xE8	; 232
    1d6c:	9c f0       	brlt	.+38     	; 0x1d94 <ldexp+0x66>
    1d6e:	bb 27       	eor	r27, r27
    1d70:	86 95       	lsr	r24
    1d72:	77 95       	ror	r23
    1d74:	67 95       	ror	r22
    1d76:	b7 95       	ror	r27
    1d78:	08 f4       	brcc	.+2      	; 0x1d7c <ldexp+0x4e>
    1d7a:	b1 60       	ori	r27, 0x01	; 1
    1d7c:	93 95       	inc	r25
    1d7e:	c1 f7       	brne	.-16     	; 0x1d70 <ldexp+0x42>
    1d80:	bb 0f       	add	r27, r27
    1d82:	58 f7       	brcc	.-42     	; 0x1d5a <ldexp+0x2c>
    1d84:	11 f4       	brne	.+4      	; 0x1d8a <ldexp+0x5c>
    1d86:	60 ff       	sbrs	r22, 0
    1d88:	e8 cf       	rjmp	.-48     	; 0x1d5a <ldexp+0x2c>
    1d8a:	6f 5f       	subi	r22, 0xFF	; 255
    1d8c:	7f 4f       	sbci	r23, 0xFF	; 255
    1d8e:	8f 4f       	sbci	r24, 0xFF	; 255
    1d90:	9f 4f       	sbci	r25, 0xFF	; 255
    1d92:	e3 cf       	rjmp	.-58     	; 0x1d5a <ldexp+0x2c>
    1d94:	b4 ce       	rjmp	.-664    	; 0x1afe <__fp_szero>
    1d96:	0e f0       	brts	.+2      	; 0x1d9a <ldexp+0x6c>
    1d98:	76 c0       	rjmp	.+236    	; 0x1e86 <__fp_mpack>
    1d9a:	6c ce       	rjmp	.-808    	; 0x1a74 <__fp_nan>
    1d9c:	68 94       	set
    1d9e:	64 ce       	rjmp	.-824    	; 0x1a68 <__fp_inf>

00001da0 <log>:
    1da0:	93 de       	rcall	.-730    	; 0x1ac8 <__fp_splitA>
    1da2:	c8 f3       	brcs	.-14     	; 0x1d96 <ldexp+0x68>
    1da4:	99 23       	and	r25, r25
    1da6:	d1 f3       	breq	.-12     	; 0x1d9c <ldexp+0x6e>
    1da8:	c6 f3       	brts	.-16     	; 0x1d9a <ldexp+0x6c>
    1daa:	df 93       	push	r29
    1dac:	cf 93       	push	r28
    1dae:	1f 93       	push	r17
    1db0:	0f 93       	push	r16
    1db2:	ff 92       	push	r15
    1db4:	c9 2f       	mov	r28, r25
    1db6:	dd 27       	eor	r29, r29
    1db8:	88 23       	and	r24, r24
    1dba:	2a f0       	brmi	.+10     	; 0x1dc6 <log+0x26>
    1dbc:	21 97       	sbiw	r28, 0x01	; 1
    1dbe:	66 0f       	add	r22, r22
    1dc0:	77 1f       	adc	r23, r23
    1dc2:	88 1f       	adc	r24, r24
    1dc4:	da f7       	brpl	.-10     	; 0x1dbc <log+0x1c>
    1dc6:	20 e0       	ldi	r18, 0x00	; 0
    1dc8:	30 e0       	ldi	r19, 0x00	; 0
    1dca:	40 e8       	ldi	r20, 0x80	; 128
    1dcc:	5f eb       	ldi	r21, 0xBF	; 191
    1dce:	9f e3       	ldi	r25, 0x3F	; 63
    1dd0:	88 39       	cpi	r24, 0x98	; 152
    1dd2:	20 f0       	brcs	.+8      	; 0x1ddc <log+0x3c>
    1dd4:	80 3e       	cpi	r24, 0xE0	; 224
    1dd6:	30 f0       	brcs	.+12     	; 0x1de4 <log+0x44>
    1dd8:	21 96       	adiw	r28, 0x01	; 1
    1dda:	8f 77       	andi	r24, 0x7F	; 127
    1ddc:	e3 dc       	rcall	.-1594   	; 0x17a4 <__addsf3>
    1dde:	e4 e2       	ldi	r30, 0x24	; 36
    1de0:	f2 e0       	ldi	r31, 0x02	; 2
    1de2:	03 c0       	rjmp	.+6      	; 0x1dea <log+0x4a>
    1de4:	df dc       	rcall	.-1602   	; 0x17a4 <__addsf3>
    1de6:	e1 e5       	ldi	r30, 0x51	; 81
    1de8:	f2 e0       	ldi	r31, 0x02	; 2
    1dea:	73 df       	rcall	.-282    	; 0x1cd2 <__fp_powser>
    1dec:	8b 01       	movw	r16, r22
    1dee:	be 01       	movw	r22, r28
    1df0:	ec 01       	movw	r28, r24
    1df2:	fb 2e       	mov	r15, r27
    1df4:	6f 57       	subi	r22, 0x7F	; 127
    1df6:	71 09       	sbc	r23, r1
    1df8:	75 95       	asr	r23
    1dfa:	77 1f       	adc	r23, r23
    1dfc:	88 0b       	sbc	r24, r24
    1dfe:	99 0b       	sbc	r25, r25
    1e00:	d4 dd       	rcall	.-1112   	; 0x19aa <__floatsisf>
    1e02:	28 e1       	ldi	r18, 0x18	; 24
    1e04:	32 e7       	ldi	r19, 0x72	; 114
    1e06:	41 e3       	ldi	r20, 0x31	; 49
    1e08:	5f e3       	ldi	r21, 0x3F	; 63
    1e0a:	8f de       	rcall	.-738    	; 0x1b2a <__mulsf3x>
    1e0c:	af 2d       	mov	r26, r15
    1e0e:	98 01       	movw	r18, r16
    1e10:	ae 01       	movw	r20, r28
    1e12:	ff 90       	pop	r15
    1e14:	0f 91       	pop	r16
    1e16:	1f 91       	pop	r17
    1e18:	cf 91       	pop	r28
    1e1a:	df 91       	pop	r29
    1e1c:	d4 dc       	rcall	.-1624   	; 0x17c6 <__addsf3x>
    1e1e:	3b ce       	rjmp	.-906    	; 0x1a96 <__fp_round>

00001e20 <modf>:
    1e20:	fa 01       	movw	r30, r20
    1e22:	dc 01       	movw	r26, r24
    1e24:	aa 0f       	add	r26, r26
    1e26:	bb 1f       	adc	r27, r27
    1e28:	9b 01       	movw	r18, r22
    1e2a:	ac 01       	movw	r20, r24
    1e2c:	bf 57       	subi	r27, 0x7F	; 127
    1e2e:	28 f4       	brcc	.+10     	; 0x1e3a <modf+0x1a>
    1e30:	22 27       	eor	r18, r18
    1e32:	33 27       	eor	r19, r19
    1e34:	44 27       	eor	r20, r20
    1e36:	50 78       	andi	r21, 0x80	; 128
    1e38:	1f c0       	rjmp	.+62     	; 0x1e78 <modf+0x58>
    1e3a:	b7 51       	subi	r27, 0x17	; 23
    1e3c:	88 f4       	brcc	.+34     	; 0x1e60 <modf+0x40>
    1e3e:	ab 2f       	mov	r26, r27
    1e40:	00 24       	eor	r0, r0
    1e42:	46 95       	lsr	r20
    1e44:	37 95       	ror	r19
    1e46:	27 95       	ror	r18
    1e48:	01 1c       	adc	r0, r1
    1e4a:	a3 95       	inc	r26
    1e4c:	d2 f3       	brmi	.-12     	; 0x1e42 <modf+0x22>
    1e4e:	00 20       	and	r0, r0
    1e50:	69 f0       	breq	.+26     	; 0x1e6c <modf+0x4c>
    1e52:	22 0f       	add	r18, r18
    1e54:	33 1f       	adc	r19, r19
    1e56:	44 1f       	adc	r20, r20
    1e58:	b3 95       	inc	r27
    1e5a:	da f3       	brmi	.-10     	; 0x1e52 <modf+0x32>
    1e5c:	0d d0       	rcall	.+26     	; 0x1e78 <modf+0x58>
    1e5e:	a1 cc       	rjmp	.-1726   	; 0x17a2 <__subsf3>
    1e60:	61 30       	cpi	r22, 0x01	; 1
    1e62:	71 05       	cpc	r23, r1
    1e64:	a0 e8       	ldi	r26, 0x80	; 128
    1e66:	8a 07       	cpc	r24, r26
    1e68:	b9 46       	sbci	r27, 0x69	; 105
    1e6a:	30 f4       	brcc	.+12     	; 0x1e78 <modf+0x58>
    1e6c:	9b 01       	movw	r18, r22
    1e6e:	ac 01       	movw	r20, r24
    1e70:	66 27       	eor	r22, r22
    1e72:	77 27       	eor	r23, r23
    1e74:	88 27       	eor	r24, r24
    1e76:	90 78       	andi	r25, 0x80	; 128
    1e78:	30 96       	adiw	r30, 0x00	; 0
    1e7a:	21 f0       	breq	.+8      	; 0x1e84 <modf+0x64>
    1e7c:	20 83       	st	Z, r18
    1e7e:	31 83       	std	Z+1, r19	; 0x01
    1e80:	42 83       	std	Z+2, r20	; 0x02
    1e82:	53 83       	std	Z+3, r21	; 0x03
    1e84:	08 95       	ret

00001e86 <__fp_mpack>:
    1e86:	9f 3f       	cpi	r25, 0xFF	; 255
    1e88:	31 f0       	breq	.+12     	; 0x1e96 <__fp_mpack_finite+0xc>

00001e8a <__fp_mpack_finite>:
    1e8a:	91 50       	subi	r25, 0x01	; 1
    1e8c:	20 f4       	brcc	.+8      	; 0x1e96 <__fp_mpack_finite+0xc>
    1e8e:	87 95       	ror	r24
    1e90:	77 95       	ror	r23
    1e92:	67 95       	ror	r22
    1e94:	b7 95       	ror	r27
    1e96:	88 0f       	add	r24, r24
    1e98:	91 1d       	adc	r25, r1
    1e9a:	96 95       	lsr	r25
    1e9c:	87 95       	ror	r24
    1e9e:	97 f9       	bld	r25, 7
    1ea0:	08 95       	ret

00001ea2 <__mulsi3>:
    1ea2:	db 01       	movw	r26, r22
    1ea4:	8f 93       	push	r24
    1ea6:	9f 93       	push	r25
    1ea8:	41 d0       	rcall	.+130    	; 0x1f2c <__muluhisi3>
    1eaa:	bf 91       	pop	r27
    1eac:	af 91       	pop	r26
    1eae:	a2 9f       	mul	r26, r18
    1eb0:	80 0d       	add	r24, r0
    1eb2:	91 1d       	adc	r25, r1
    1eb4:	a3 9f       	mul	r26, r19
    1eb6:	90 0d       	add	r25, r0
    1eb8:	b2 9f       	mul	r27, r18
    1eba:	90 0d       	add	r25, r0
    1ebc:	11 24       	eor	r1, r1
    1ebe:	08 95       	ret

00001ec0 <__udivmodhi4>:
    1ec0:	aa 1b       	sub	r26, r26
    1ec2:	bb 1b       	sub	r27, r27
    1ec4:	51 e1       	ldi	r21, 0x11	; 17
    1ec6:	07 c0       	rjmp	.+14     	; 0x1ed6 <__udivmodhi4_ep>

00001ec8 <__udivmodhi4_loop>:
    1ec8:	aa 1f       	adc	r26, r26
    1eca:	bb 1f       	adc	r27, r27
    1ecc:	a6 17       	cp	r26, r22
    1ece:	b7 07       	cpc	r27, r23
    1ed0:	10 f0       	brcs	.+4      	; 0x1ed6 <__udivmodhi4_ep>
    1ed2:	a6 1b       	sub	r26, r22
    1ed4:	b7 0b       	sbc	r27, r23

00001ed6 <__udivmodhi4_ep>:
    1ed6:	88 1f       	adc	r24, r24
    1ed8:	99 1f       	adc	r25, r25
    1eda:	5a 95       	dec	r21
    1edc:	a9 f7       	brne	.-22     	; 0x1ec8 <__udivmodhi4_loop>
    1ede:	80 95       	com	r24
    1ee0:	90 95       	com	r25
    1ee2:	bc 01       	movw	r22, r24
    1ee4:	cd 01       	movw	r24, r26
    1ee6:	08 95       	ret

00001ee8 <__udivmodsi4>:
    1ee8:	a1 e2       	ldi	r26, 0x21	; 33
    1eea:	1a 2e       	mov	r1, r26
    1eec:	aa 1b       	sub	r26, r26
    1eee:	bb 1b       	sub	r27, r27
    1ef0:	fd 01       	movw	r30, r26
    1ef2:	0d c0       	rjmp	.+26     	; 0x1f0e <__udivmodsi4_ep>

00001ef4 <__udivmodsi4_loop>:
    1ef4:	aa 1f       	adc	r26, r26
    1ef6:	bb 1f       	adc	r27, r27
    1ef8:	ee 1f       	adc	r30, r30
    1efa:	ff 1f       	adc	r31, r31
    1efc:	a2 17       	cp	r26, r18
    1efe:	b3 07       	cpc	r27, r19
    1f00:	e4 07       	cpc	r30, r20
    1f02:	f5 07       	cpc	r31, r21
    1f04:	20 f0       	brcs	.+8      	; 0x1f0e <__udivmodsi4_ep>
    1f06:	a2 1b       	sub	r26, r18
    1f08:	b3 0b       	sbc	r27, r19
    1f0a:	e4 0b       	sbc	r30, r20
    1f0c:	f5 0b       	sbc	r31, r21

00001f0e <__udivmodsi4_ep>:
    1f0e:	66 1f       	adc	r22, r22
    1f10:	77 1f       	adc	r23, r23
    1f12:	88 1f       	adc	r24, r24
    1f14:	99 1f       	adc	r25, r25
    1f16:	1a 94       	dec	r1
    1f18:	69 f7       	brne	.-38     	; 0x1ef4 <__udivmodsi4_loop>
    1f1a:	60 95       	com	r22
    1f1c:	70 95       	com	r23
    1f1e:	80 95       	com	r24
    1f20:	90 95       	com	r25
    1f22:	9b 01       	movw	r18, r22
    1f24:	ac 01       	movw	r20, r24
    1f26:	bd 01       	movw	r22, r26
    1f28:	cf 01       	movw	r24, r30
    1f2a:	08 95       	ret

00001f2c <__muluhisi3>:
    1f2c:	09 d0       	rcall	.+18     	; 0x1f40 <__umulhisi3>
    1f2e:	a5 9f       	mul	r26, r21
    1f30:	90 0d       	add	r25, r0
    1f32:	b4 9f       	mul	r27, r20
    1f34:	90 0d       	add	r25, r0
    1f36:	a4 9f       	mul	r26, r20
    1f38:	80 0d       	add	r24, r0
    1f3a:	91 1d       	adc	r25, r1
    1f3c:	11 24       	eor	r1, r1
    1f3e:	08 95       	ret

00001f40 <__umulhisi3>:
    1f40:	a2 9f       	mul	r26, r18
    1f42:	b0 01       	movw	r22, r0
    1f44:	b3 9f       	mul	r27, r19
    1f46:	c0 01       	movw	r24, r0
    1f48:	a3 9f       	mul	r26, r19
    1f4a:	70 0d       	add	r23, r0
    1f4c:	81 1d       	adc	r24, r1
    1f4e:	11 24       	eor	r1, r1
    1f50:	91 1d       	adc	r25, r1
    1f52:	b2 9f       	mul	r27, r18
    1f54:	70 0d       	add	r23, r0
    1f56:	81 1d       	adc	r24, r1
    1f58:	11 24       	eor	r1, r1
    1f5a:	91 1d       	adc	r25, r1
    1f5c:	08 95       	ret

00001f5e <fdevopen>:
    1f5e:	0f 93       	push	r16
    1f60:	1f 93       	push	r17
    1f62:	cf 93       	push	r28
    1f64:	df 93       	push	r29
    1f66:	00 97       	sbiw	r24, 0x00	; 0
    1f68:	31 f4       	brne	.+12     	; 0x1f76 <fdevopen+0x18>
    1f6a:	61 15       	cp	r22, r1
    1f6c:	71 05       	cpc	r23, r1
    1f6e:	19 f4       	brne	.+6      	; 0x1f76 <fdevopen+0x18>
    1f70:	80 e0       	ldi	r24, 0x00	; 0
    1f72:	90 e0       	ldi	r25, 0x00	; 0
    1f74:	39 c0       	rjmp	.+114    	; 0x1fe8 <fdevopen+0x8a>
    1f76:	8b 01       	movw	r16, r22
    1f78:	ec 01       	movw	r28, r24
    1f7a:	6e e0       	ldi	r22, 0x0E	; 14
    1f7c:	70 e0       	ldi	r23, 0x00	; 0
    1f7e:	81 e0       	ldi	r24, 0x01	; 1
    1f80:	90 e0       	ldi	r25, 0x00	; 0
    1f82:	9e d2       	rcall	.+1340   	; 0x24c0 <calloc>
    1f84:	fc 01       	movw	r30, r24
    1f86:	89 2b       	or	r24, r25
    1f88:	99 f3       	breq	.-26     	; 0x1f70 <fdevopen+0x12>
    1f8a:	80 e8       	ldi	r24, 0x80	; 128
    1f8c:	83 83       	std	Z+3, r24	; 0x03
    1f8e:	01 15       	cp	r16, r1
    1f90:	11 05       	cpc	r17, r1
    1f92:	71 f0       	breq	.+28     	; 0x1fb0 <fdevopen+0x52>
    1f94:	02 87       	std	Z+10, r16	; 0x0a
    1f96:	13 87       	std	Z+11, r17	; 0x0b
    1f98:	81 e8       	ldi	r24, 0x81	; 129
    1f9a:	83 83       	std	Z+3, r24	; 0x03
    1f9c:	80 91 55 22 	lds	r24, 0x2255	; 0x802255 <__iob>
    1fa0:	90 91 56 22 	lds	r25, 0x2256	; 0x802256 <__iob+0x1>
    1fa4:	89 2b       	or	r24, r25
    1fa6:	21 f4       	brne	.+8      	; 0x1fb0 <fdevopen+0x52>
    1fa8:	e0 93 55 22 	sts	0x2255, r30	; 0x802255 <__iob>
    1fac:	f0 93 56 22 	sts	0x2256, r31	; 0x802256 <__iob+0x1>
    1fb0:	20 97       	sbiw	r28, 0x00	; 0
    1fb2:	c9 f0       	breq	.+50     	; 0x1fe6 <fdevopen+0x88>
    1fb4:	c0 87       	std	Z+8, r28	; 0x08
    1fb6:	d1 87       	std	Z+9, r29	; 0x09
    1fb8:	83 81       	ldd	r24, Z+3	; 0x03
    1fba:	82 60       	ori	r24, 0x02	; 2
    1fbc:	83 83       	std	Z+3, r24	; 0x03
    1fbe:	80 91 57 22 	lds	r24, 0x2257	; 0x802257 <__iob+0x2>
    1fc2:	90 91 58 22 	lds	r25, 0x2258	; 0x802258 <__iob+0x3>
    1fc6:	89 2b       	or	r24, r25
    1fc8:	71 f4       	brne	.+28     	; 0x1fe6 <fdevopen+0x88>
    1fca:	e0 93 57 22 	sts	0x2257, r30	; 0x802257 <__iob+0x2>
    1fce:	f0 93 58 22 	sts	0x2258, r31	; 0x802258 <__iob+0x3>
    1fd2:	80 91 59 22 	lds	r24, 0x2259	; 0x802259 <__iob+0x4>
    1fd6:	90 91 5a 22 	lds	r25, 0x225A	; 0x80225a <__iob+0x5>
    1fda:	89 2b       	or	r24, r25
    1fdc:	21 f4       	brne	.+8      	; 0x1fe6 <fdevopen+0x88>
    1fde:	e0 93 59 22 	sts	0x2259, r30	; 0x802259 <__iob+0x4>
    1fe2:	f0 93 5a 22 	sts	0x225A, r31	; 0x80225a <__iob+0x5>
    1fe6:	cf 01       	movw	r24, r30
    1fe8:	df 91       	pop	r29
    1fea:	cf 91       	pop	r28
    1fec:	1f 91       	pop	r17
    1fee:	0f 91       	pop	r16
    1ff0:	08 95       	ret

00001ff2 <printf>:
    1ff2:	cf 93       	push	r28
    1ff4:	df 93       	push	r29
    1ff6:	cd b7       	in	r28, 0x3d	; 61
    1ff8:	de b7       	in	r29, 0x3e	; 62
    1ffa:	ae 01       	movw	r20, r28
    1ffc:	4a 5f       	subi	r20, 0xFA	; 250
    1ffe:	5f 4f       	sbci	r21, 0xFF	; 255
    2000:	fa 01       	movw	r30, r20
    2002:	61 91       	ld	r22, Z+
    2004:	71 91       	ld	r23, Z+
    2006:	af 01       	movw	r20, r30
    2008:	80 91 57 22 	lds	r24, 0x2257	; 0x802257 <__iob+0x2>
    200c:	90 91 58 22 	lds	r25, 0x2258	; 0x802258 <__iob+0x3>
    2010:	60 d0       	rcall	.+192    	; 0x20d2 <vfprintf>
    2012:	df 91       	pop	r29
    2014:	cf 91       	pop	r28
    2016:	08 95       	ret

00002018 <putchar>:
    2018:	60 91 57 22 	lds	r22, 0x2257	; 0x802257 <__iob+0x2>
    201c:	70 91 58 22 	lds	r23, 0x2258	; 0x802258 <__iob+0x3>
    2020:	a7 c3       	rjmp	.+1870   	; 0x2770 <fputc>

00002022 <puts>:
    2022:	0f 93       	push	r16
    2024:	1f 93       	push	r17
    2026:	cf 93       	push	r28
    2028:	df 93       	push	r29
    202a:	e0 91 57 22 	lds	r30, 0x2257	; 0x802257 <__iob+0x2>
    202e:	f0 91 58 22 	lds	r31, 0x2258	; 0x802258 <__iob+0x3>
    2032:	23 81       	ldd	r18, Z+3	; 0x03
    2034:	21 ff       	sbrs	r18, 1
    2036:	1b c0       	rjmp	.+54     	; 0x206e <puts+0x4c>
    2038:	8c 01       	movw	r16, r24
    203a:	d0 e0       	ldi	r29, 0x00	; 0
    203c:	c0 e0       	ldi	r28, 0x00	; 0
    203e:	f8 01       	movw	r30, r16
    2040:	81 91       	ld	r24, Z+
    2042:	8f 01       	movw	r16, r30
    2044:	60 91 57 22 	lds	r22, 0x2257	; 0x802257 <__iob+0x2>
    2048:	70 91 58 22 	lds	r23, 0x2258	; 0x802258 <__iob+0x3>
    204c:	db 01       	movw	r26, r22
    204e:	18 96       	adiw	r26, 0x08	; 8
    2050:	ed 91       	ld	r30, X+
    2052:	fc 91       	ld	r31, X
    2054:	19 97       	sbiw	r26, 0x09	; 9
    2056:	88 23       	and	r24, r24
    2058:	31 f0       	breq	.+12     	; 0x2066 <puts+0x44>
    205a:	19 95       	eicall
    205c:	89 2b       	or	r24, r25
    205e:	79 f3       	breq	.-34     	; 0x203e <puts+0x1c>
    2060:	df ef       	ldi	r29, 0xFF	; 255
    2062:	cf ef       	ldi	r28, 0xFF	; 255
    2064:	ec cf       	rjmp	.-40     	; 0x203e <puts+0x1c>
    2066:	8a e0       	ldi	r24, 0x0A	; 10
    2068:	19 95       	eicall
    206a:	89 2b       	or	r24, r25
    206c:	19 f0       	breq	.+6      	; 0x2074 <puts+0x52>
    206e:	8f ef       	ldi	r24, 0xFF	; 255
    2070:	9f ef       	ldi	r25, 0xFF	; 255
    2072:	02 c0       	rjmp	.+4      	; 0x2078 <puts+0x56>
    2074:	8d 2f       	mov	r24, r29
    2076:	9c 2f       	mov	r25, r28
    2078:	df 91       	pop	r29
    207a:	cf 91       	pop	r28
    207c:	1f 91       	pop	r17
    207e:	0f 91       	pop	r16
    2080:	08 95       	ret

00002082 <sprintf>:
    2082:	0f 93       	push	r16
    2084:	1f 93       	push	r17
    2086:	cf 93       	push	r28
    2088:	df 93       	push	r29
    208a:	cd b7       	in	r28, 0x3d	; 61
    208c:	de b7       	in	r29, 0x3e	; 62
    208e:	2e 97       	sbiw	r28, 0x0e	; 14
    2090:	cd bf       	out	0x3d, r28	; 61
    2092:	de bf       	out	0x3e, r29	; 62
    2094:	0e 89       	ldd	r16, Y+22	; 0x16
    2096:	1f 89       	ldd	r17, Y+23	; 0x17
    2098:	86 e0       	ldi	r24, 0x06	; 6
    209a:	8c 83       	std	Y+4, r24	; 0x04
    209c:	09 83       	std	Y+1, r16	; 0x01
    209e:	1a 83       	std	Y+2, r17	; 0x02
    20a0:	8f ef       	ldi	r24, 0xFF	; 255
    20a2:	9f e7       	ldi	r25, 0x7F	; 127
    20a4:	8d 83       	std	Y+5, r24	; 0x05
    20a6:	9e 83       	std	Y+6, r25	; 0x06
    20a8:	ae 01       	movw	r20, r28
    20aa:	46 5e       	subi	r20, 0xE6	; 230
    20ac:	5f 4f       	sbci	r21, 0xFF	; 255
    20ae:	68 8d       	ldd	r22, Y+24	; 0x18
    20b0:	79 8d       	ldd	r23, Y+25	; 0x19
    20b2:	ce 01       	movw	r24, r28
    20b4:	01 96       	adiw	r24, 0x01	; 1
    20b6:	0d d0       	rcall	.+26     	; 0x20d2 <vfprintf>
    20b8:	ef 81       	ldd	r30, Y+7	; 0x07
    20ba:	f8 85       	ldd	r31, Y+8	; 0x08
    20bc:	e0 0f       	add	r30, r16
    20be:	f1 1f       	adc	r31, r17
    20c0:	10 82       	st	Z, r1
    20c2:	2e 96       	adiw	r28, 0x0e	; 14
    20c4:	cd bf       	out	0x3d, r28	; 61
    20c6:	de bf       	out	0x3e, r29	; 62
    20c8:	df 91       	pop	r29
    20ca:	cf 91       	pop	r28
    20cc:	1f 91       	pop	r17
    20ce:	0f 91       	pop	r16
    20d0:	08 95       	ret

000020d2 <vfprintf>:
    20d2:	2f 92       	push	r2
    20d4:	3f 92       	push	r3
    20d6:	4f 92       	push	r4
    20d8:	5f 92       	push	r5
    20da:	6f 92       	push	r6
    20dc:	7f 92       	push	r7
    20de:	8f 92       	push	r8
    20e0:	9f 92       	push	r9
    20e2:	af 92       	push	r10
    20e4:	bf 92       	push	r11
    20e6:	cf 92       	push	r12
    20e8:	df 92       	push	r13
    20ea:	ef 92       	push	r14
    20ec:	ff 92       	push	r15
    20ee:	0f 93       	push	r16
    20f0:	1f 93       	push	r17
    20f2:	cf 93       	push	r28
    20f4:	df 93       	push	r29
    20f6:	cd b7       	in	r28, 0x3d	; 61
    20f8:	de b7       	in	r29, 0x3e	; 62
    20fa:	2b 97       	sbiw	r28, 0x0b	; 11
    20fc:	cd bf       	out	0x3d, r28	; 61
    20fe:	de bf       	out	0x3e, r29	; 62
    2100:	6c 01       	movw	r12, r24
    2102:	7b 01       	movw	r14, r22
    2104:	8a 01       	movw	r16, r20
    2106:	fc 01       	movw	r30, r24
    2108:	16 82       	std	Z+6, r1	; 0x06
    210a:	17 82       	std	Z+7, r1	; 0x07
    210c:	83 81       	ldd	r24, Z+3	; 0x03
    210e:	81 ff       	sbrs	r24, 1
    2110:	bf c1       	rjmp	.+894    	; 0x2490 <vfprintf+0x3be>
    2112:	ce 01       	movw	r24, r28
    2114:	01 96       	adiw	r24, 0x01	; 1
    2116:	3c 01       	movw	r6, r24
    2118:	f6 01       	movw	r30, r12
    211a:	93 81       	ldd	r25, Z+3	; 0x03
    211c:	f7 01       	movw	r30, r14
    211e:	93 fd       	sbrc	r25, 3
    2120:	85 91       	lpm	r24, Z+
    2122:	93 ff       	sbrs	r25, 3
    2124:	81 91       	ld	r24, Z+
    2126:	7f 01       	movw	r14, r30
    2128:	88 23       	and	r24, r24
    212a:	09 f4       	brne	.+2      	; 0x212e <vfprintf+0x5c>
    212c:	ad c1       	rjmp	.+858    	; 0x2488 <vfprintf+0x3b6>
    212e:	85 32       	cpi	r24, 0x25	; 37
    2130:	39 f4       	brne	.+14     	; 0x2140 <vfprintf+0x6e>
    2132:	93 fd       	sbrc	r25, 3
    2134:	85 91       	lpm	r24, Z+
    2136:	93 ff       	sbrs	r25, 3
    2138:	81 91       	ld	r24, Z+
    213a:	7f 01       	movw	r14, r30
    213c:	85 32       	cpi	r24, 0x25	; 37
    213e:	21 f4       	brne	.+8      	; 0x2148 <vfprintf+0x76>
    2140:	b6 01       	movw	r22, r12
    2142:	90 e0       	ldi	r25, 0x00	; 0
    2144:	15 d3       	rcall	.+1578   	; 0x2770 <fputc>
    2146:	e8 cf       	rjmp	.-48     	; 0x2118 <vfprintf+0x46>
    2148:	91 2c       	mov	r9, r1
    214a:	21 2c       	mov	r2, r1
    214c:	31 2c       	mov	r3, r1
    214e:	ff e1       	ldi	r31, 0x1F	; 31
    2150:	f3 15       	cp	r31, r3
    2152:	d8 f0       	brcs	.+54     	; 0x218a <vfprintf+0xb8>
    2154:	8b 32       	cpi	r24, 0x2B	; 43
    2156:	79 f0       	breq	.+30     	; 0x2176 <vfprintf+0xa4>
    2158:	38 f4       	brcc	.+14     	; 0x2168 <vfprintf+0x96>
    215a:	80 32       	cpi	r24, 0x20	; 32
    215c:	79 f0       	breq	.+30     	; 0x217c <vfprintf+0xaa>
    215e:	83 32       	cpi	r24, 0x23	; 35
    2160:	a1 f4       	brne	.+40     	; 0x218a <vfprintf+0xb8>
    2162:	23 2d       	mov	r18, r3
    2164:	20 61       	ori	r18, 0x10	; 16
    2166:	1d c0       	rjmp	.+58     	; 0x21a2 <vfprintf+0xd0>
    2168:	8d 32       	cpi	r24, 0x2D	; 45
    216a:	61 f0       	breq	.+24     	; 0x2184 <vfprintf+0xb2>
    216c:	80 33       	cpi	r24, 0x30	; 48
    216e:	69 f4       	brne	.+26     	; 0x218a <vfprintf+0xb8>
    2170:	23 2d       	mov	r18, r3
    2172:	21 60       	ori	r18, 0x01	; 1
    2174:	16 c0       	rjmp	.+44     	; 0x21a2 <vfprintf+0xd0>
    2176:	83 2d       	mov	r24, r3
    2178:	82 60       	ori	r24, 0x02	; 2
    217a:	38 2e       	mov	r3, r24
    217c:	e3 2d       	mov	r30, r3
    217e:	e4 60       	ori	r30, 0x04	; 4
    2180:	3e 2e       	mov	r3, r30
    2182:	2a c0       	rjmp	.+84     	; 0x21d8 <vfprintf+0x106>
    2184:	f3 2d       	mov	r31, r3
    2186:	f8 60       	ori	r31, 0x08	; 8
    2188:	1d c0       	rjmp	.+58     	; 0x21c4 <vfprintf+0xf2>
    218a:	37 fc       	sbrc	r3, 7
    218c:	2d c0       	rjmp	.+90     	; 0x21e8 <vfprintf+0x116>
    218e:	20 ed       	ldi	r18, 0xD0	; 208
    2190:	28 0f       	add	r18, r24
    2192:	2a 30       	cpi	r18, 0x0A	; 10
    2194:	40 f0       	brcs	.+16     	; 0x21a6 <vfprintf+0xd4>
    2196:	8e 32       	cpi	r24, 0x2E	; 46
    2198:	b9 f4       	brne	.+46     	; 0x21c8 <vfprintf+0xf6>
    219a:	36 fc       	sbrc	r3, 6
    219c:	75 c1       	rjmp	.+746    	; 0x2488 <vfprintf+0x3b6>
    219e:	23 2d       	mov	r18, r3
    21a0:	20 64       	ori	r18, 0x40	; 64
    21a2:	32 2e       	mov	r3, r18
    21a4:	19 c0       	rjmp	.+50     	; 0x21d8 <vfprintf+0x106>
    21a6:	36 fe       	sbrs	r3, 6
    21a8:	06 c0       	rjmp	.+12     	; 0x21b6 <vfprintf+0xe4>
    21aa:	8a e0       	ldi	r24, 0x0A	; 10
    21ac:	98 9e       	mul	r9, r24
    21ae:	20 0d       	add	r18, r0
    21b0:	11 24       	eor	r1, r1
    21b2:	92 2e       	mov	r9, r18
    21b4:	11 c0       	rjmp	.+34     	; 0x21d8 <vfprintf+0x106>
    21b6:	ea e0       	ldi	r30, 0x0A	; 10
    21b8:	2e 9e       	mul	r2, r30
    21ba:	20 0d       	add	r18, r0
    21bc:	11 24       	eor	r1, r1
    21be:	22 2e       	mov	r2, r18
    21c0:	f3 2d       	mov	r31, r3
    21c2:	f0 62       	ori	r31, 0x20	; 32
    21c4:	3f 2e       	mov	r3, r31
    21c6:	08 c0       	rjmp	.+16     	; 0x21d8 <vfprintf+0x106>
    21c8:	8c 36       	cpi	r24, 0x6C	; 108
    21ca:	21 f4       	brne	.+8      	; 0x21d4 <vfprintf+0x102>
    21cc:	83 2d       	mov	r24, r3
    21ce:	80 68       	ori	r24, 0x80	; 128
    21d0:	38 2e       	mov	r3, r24
    21d2:	02 c0       	rjmp	.+4      	; 0x21d8 <vfprintf+0x106>
    21d4:	88 36       	cpi	r24, 0x68	; 104
    21d6:	41 f4       	brne	.+16     	; 0x21e8 <vfprintf+0x116>
    21d8:	f7 01       	movw	r30, r14
    21da:	93 fd       	sbrc	r25, 3
    21dc:	85 91       	lpm	r24, Z+
    21de:	93 ff       	sbrs	r25, 3
    21e0:	81 91       	ld	r24, Z+
    21e2:	7f 01       	movw	r14, r30
    21e4:	81 11       	cpse	r24, r1
    21e6:	b3 cf       	rjmp	.-154    	; 0x214e <vfprintf+0x7c>
    21e8:	98 2f       	mov	r25, r24
    21ea:	9f 7d       	andi	r25, 0xDF	; 223
    21ec:	95 54       	subi	r25, 0x45	; 69
    21ee:	93 30       	cpi	r25, 0x03	; 3
    21f0:	28 f4       	brcc	.+10     	; 0x21fc <vfprintf+0x12a>
    21f2:	0c 5f       	subi	r16, 0xFC	; 252
    21f4:	1f 4f       	sbci	r17, 0xFF	; 255
    21f6:	9f e3       	ldi	r25, 0x3F	; 63
    21f8:	99 83       	std	Y+1, r25	; 0x01
    21fa:	0d c0       	rjmp	.+26     	; 0x2216 <vfprintf+0x144>
    21fc:	83 36       	cpi	r24, 0x63	; 99
    21fe:	31 f0       	breq	.+12     	; 0x220c <vfprintf+0x13a>
    2200:	83 37       	cpi	r24, 0x73	; 115
    2202:	71 f0       	breq	.+28     	; 0x2220 <vfprintf+0x14e>
    2204:	83 35       	cpi	r24, 0x53	; 83
    2206:	09 f0       	breq	.+2      	; 0x220a <vfprintf+0x138>
    2208:	55 c0       	rjmp	.+170    	; 0x22b4 <vfprintf+0x1e2>
    220a:	20 c0       	rjmp	.+64     	; 0x224c <vfprintf+0x17a>
    220c:	f8 01       	movw	r30, r16
    220e:	80 81       	ld	r24, Z
    2210:	89 83       	std	Y+1, r24	; 0x01
    2212:	0e 5f       	subi	r16, 0xFE	; 254
    2214:	1f 4f       	sbci	r17, 0xFF	; 255
    2216:	88 24       	eor	r8, r8
    2218:	83 94       	inc	r8
    221a:	91 2c       	mov	r9, r1
    221c:	53 01       	movw	r10, r6
    221e:	12 c0       	rjmp	.+36     	; 0x2244 <vfprintf+0x172>
    2220:	28 01       	movw	r4, r16
    2222:	f2 e0       	ldi	r31, 0x02	; 2
    2224:	4f 0e       	add	r4, r31
    2226:	51 1c       	adc	r5, r1
    2228:	f8 01       	movw	r30, r16
    222a:	a0 80       	ld	r10, Z
    222c:	b1 80       	ldd	r11, Z+1	; 0x01
    222e:	36 fe       	sbrs	r3, 6
    2230:	03 c0       	rjmp	.+6      	; 0x2238 <vfprintf+0x166>
    2232:	69 2d       	mov	r22, r9
    2234:	70 e0       	ldi	r23, 0x00	; 0
    2236:	02 c0       	rjmp	.+4      	; 0x223c <vfprintf+0x16a>
    2238:	6f ef       	ldi	r22, 0xFF	; 255
    223a:	7f ef       	ldi	r23, 0xFF	; 255
    223c:	c5 01       	movw	r24, r10
    223e:	8d d2       	rcall	.+1306   	; 0x275a <strnlen>
    2240:	4c 01       	movw	r8, r24
    2242:	82 01       	movw	r16, r4
    2244:	f3 2d       	mov	r31, r3
    2246:	ff 77       	andi	r31, 0x7F	; 127
    2248:	3f 2e       	mov	r3, r31
    224a:	15 c0       	rjmp	.+42     	; 0x2276 <vfprintf+0x1a4>
    224c:	28 01       	movw	r4, r16
    224e:	22 e0       	ldi	r18, 0x02	; 2
    2250:	42 0e       	add	r4, r18
    2252:	51 1c       	adc	r5, r1
    2254:	f8 01       	movw	r30, r16
    2256:	a0 80       	ld	r10, Z
    2258:	b1 80       	ldd	r11, Z+1	; 0x01
    225a:	36 fe       	sbrs	r3, 6
    225c:	03 c0       	rjmp	.+6      	; 0x2264 <vfprintf+0x192>
    225e:	69 2d       	mov	r22, r9
    2260:	70 e0       	ldi	r23, 0x00	; 0
    2262:	02 c0       	rjmp	.+4      	; 0x2268 <vfprintf+0x196>
    2264:	6f ef       	ldi	r22, 0xFF	; 255
    2266:	7f ef       	ldi	r23, 0xFF	; 255
    2268:	c5 01       	movw	r24, r10
    226a:	65 d2       	rcall	.+1226   	; 0x2736 <strnlen_P>
    226c:	4c 01       	movw	r8, r24
    226e:	f3 2d       	mov	r31, r3
    2270:	f0 68       	ori	r31, 0x80	; 128
    2272:	3f 2e       	mov	r3, r31
    2274:	82 01       	movw	r16, r4
    2276:	33 fc       	sbrc	r3, 3
    2278:	19 c0       	rjmp	.+50     	; 0x22ac <vfprintf+0x1da>
    227a:	82 2d       	mov	r24, r2
    227c:	90 e0       	ldi	r25, 0x00	; 0
    227e:	88 16       	cp	r8, r24
    2280:	99 06       	cpc	r9, r25
    2282:	a0 f4       	brcc	.+40     	; 0x22ac <vfprintf+0x1da>
    2284:	b6 01       	movw	r22, r12
    2286:	80 e2       	ldi	r24, 0x20	; 32
    2288:	90 e0       	ldi	r25, 0x00	; 0
    228a:	72 d2       	rcall	.+1252   	; 0x2770 <fputc>
    228c:	2a 94       	dec	r2
    228e:	f5 cf       	rjmp	.-22     	; 0x227a <vfprintf+0x1a8>
    2290:	f5 01       	movw	r30, r10
    2292:	37 fc       	sbrc	r3, 7
    2294:	85 91       	lpm	r24, Z+
    2296:	37 fe       	sbrs	r3, 7
    2298:	81 91       	ld	r24, Z+
    229a:	5f 01       	movw	r10, r30
    229c:	b6 01       	movw	r22, r12
    229e:	90 e0       	ldi	r25, 0x00	; 0
    22a0:	67 d2       	rcall	.+1230   	; 0x2770 <fputc>
    22a2:	21 10       	cpse	r2, r1
    22a4:	2a 94       	dec	r2
    22a6:	21 e0       	ldi	r18, 0x01	; 1
    22a8:	82 1a       	sub	r8, r18
    22aa:	91 08       	sbc	r9, r1
    22ac:	81 14       	cp	r8, r1
    22ae:	91 04       	cpc	r9, r1
    22b0:	79 f7       	brne	.-34     	; 0x2290 <vfprintf+0x1be>
    22b2:	e1 c0       	rjmp	.+450    	; 0x2476 <vfprintf+0x3a4>
    22b4:	84 36       	cpi	r24, 0x64	; 100
    22b6:	11 f0       	breq	.+4      	; 0x22bc <vfprintf+0x1ea>
    22b8:	89 36       	cpi	r24, 0x69	; 105
    22ba:	39 f5       	brne	.+78     	; 0x230a <vfprintf+0x238>
    22bc:	f8 01       	movw	r30, r16
    22be:	37 fe       	sbrs	r3, 7
    22c0:	07 c0       	rjmp	.+14     	; 0x22d0 <vfprintf+0x1fe>
    22c2:	60 81       	ld	r22, Z
    22c4:	71 81       	ldd	r23, Z+1	; 0x01
    22c6:	82 81       	ldd	r24, Z+2	; 0x02
    22c8:	93 81       	ldd	r25, Z+3	; 0x03
    22ca:	0c 5f       	subi	r16, 0xFC	; 252
    22cc:	1f 4f       	sbci	r17, 0xFF	; 255
    22ce:	08 c0       	rjmp	.+16     	; 0x22e0 <vfprintf+0x20e>
    22d0:	60 81       	ld	r22, Z
    22d2:	71 81       	ldd	r23, Z+1	; 0x01
    22d4:	07 2e       	mov	r0, r23
    22d6:	00 0c       	add	r0, r0
    22d8:	88 0b       	sbc	r24, r24
    22da:	99 0b       	sbc	r25, r25
    22dc:	0e 5f       	subi	r16, 0xFE	; 254
    22de:	1f 4f       	sbci	r17, 0xFF	; 255
    22e0:	f3 2d       	mov	r31, r3
    22e2:	ff 76       	andi	r31, 0x6F	; 111
    22e4:	3f 2e       	mov	r3, r31
    22e6:	97 ff       	sbrs	r25, 7
    22e8:	09 c0       	rjmp	.+18     	; 0x22fc <vfprintf+0x22a>
    22ea:	90 95       	com	r25
    22ec:	80 95       	com	r24
    22ee:	70 95       	com	r23
    22f0:	61 95       	neg	r22
    22f2:	7f 4f       	sbci	r23, 0xFF	; 255
    22f4:	8f 4f       	sbci	r24, 0xFF	; 255
    22f6:	9f 4f       	sbci	r25, 0xFF	; 255
    22f8:	f0 68       	ori	r31, 0x80	; 128
    22fa:	3f 2e       	mov	r3, r31
    22fc:	2a e0       	ldi	r18, 0x0A	; 10
    22fe:	30 e0       	ldi	r19, 0x00	; 0
    2300:	a3 01       	movw	r20, r6
    2302:	72 d2       	rcall	.+1252   	; 0x27e8 <__ultoa_invert>
    2304:	88 2e       	mov	r8, r24
    2306:	86 18       	sub	r8, r6
    2308:	44 c0       	rjmp	.+136    	; 0x2392 <vfprintf+0x2c0>
    230a:	85 37       	cpi	r24, 0x75	; 117
    230c:	31 f4       	brne	.+12     	; 0x231a <vfprintf+0x248>
    230e:	23 2d       	mov	r18, r3
    2310:	2f 7e       	andi	r18, 0xEF	; 239
    2312:	b2 2e       	mov	r11, r18
    2314:	2a e0       	ldi	r18, 0x0A	; 10
    2316:	30 e0       	ldi	r19, 0x00	; 0
    2318:	25 c0       	rjmp	.+74     	; 0x2364 <vfprintf+0x292>
    231a:	93 2d       	mov	r25, r3
    231c:	99 7f       	andi	r25, 0xF9	; 249
    231e:	b9 2e       	mov	r11, r25
    2320:	8f 36       	cpi	r24, 0x6F	; 111
    2322:	c1 f0       	breq	.+48     	; 0x2354 <vfprintf+0x282>
    2324:	18 f4       	brcc	.+6      	; 0x232c <vfprintf+0x25a>
    2326:	88 35       	cpi	r24, 0x58	; 88
    2328:	79 f0       	breq	.+30     	; 0x2348 <vfprintf+0x276>
    232a:	ae c0       	rjmp	.+348    	; 0x2488 <vfprintf+0x3b6>
    232c:	80 37       	cpi	r24, 0x70	; 112
    232e:	19 f0       	breq	.+6      	; 0x2336 <vfprintf+0x264>
    2330:	88 37       	cpi	r24, 0x78	; 120
    2332:	21 f0       	breq	.+8      	; 0x233c <vfprintf+0x26a>
    2334:	a9 c0       	rjmp	.+338    	; 0x2488 <vfprintf+0x3b6>
    2336:	e9 2f       	mov	r30, r25
    2338:	e0 61       	ori	r30, 0x10	; 16
    233a:	be 2e       	mov	r11, r30
    233c:	b4 fe       	sbrs	r11, 4
    233e:	0d c0       	rjmp	.+26     	; 0x235a <vfprintf+0x288>
    2340:	fb 2d       	mov	r31, r11
    2342:	f4 60       	ori	r31, 0x04	; 4
    2344:	bf 2e       	mov	r11, r31
    2346:	09 c0       	rjmp	.+18     	; 0x235a <vfprintf+0x288>
    2348:	34 fe       	sbrs	r3, 4
    234a:	0a c0       	rjmp	.+20     	; 0x2360 <vfprintf+0x28e>
    234c:	29 2f       	mov	r18, r25
    234e:	26 60       	ori	r18, 0x06	; 6
    2350:	b2 2e       	mov	r11, r18
    2352:	06 c0       	rjmp	.+12     	; 0x2360 <vfprintf+0x28e>
    2354:	28 e0       	ldi	r18, 0x08	; 8
    2356:	30 e0       	ldi	r19, 0x00	; 0
    2358:	05 c0       	rjmp	.+10     	; 0x2364 <vfprintf+0x292>
    235a:	20 e1       	ldi	r18, 0x10	; 16
    235c:	30 e0       	ldi	r19, 0x00	; 0
    235e:	02 c0       	rjmp	.+4      	; 0x2364 <vfprintf+0x292>
    2360:	20 e1       	ldi	r18, 0x10	; 16
    2362:	32 e0       	ldi	r19, 0x02	; 2
    2364:	f8 01       	movw	r30, r16
    2366:	b7 fe       	sbrs	r11, 7
    2368:	07 c0       	rjmp	.+14     	; 0x2378 <vfprintf+0x2a6>
    236a:	60 81       	ld	r22, Z
    236c:	71 81       	ldd	r23, Z+1	; 0x01
    236e:	82 81       	ldd	r24, Z+2	; 0x02
    2370:	93 81       	ldd	r25, Z+3	; 0x03
    2372:	0c 5f       	subi	r16, 0xFC	; 252
    2374:	1f 4f       	sbci	r17, 0xFF	; 255
    2376:	06 c0       	rjmp	.+12     	; 0x2384 <vfprintf+0x2b2>
    2378:	60 81       	ld	r22, Z
    237a:	71 81       	ldd	r23, Z+1	; 0x01
    237c:	80 e0       	ldi	r24, 0x00	; 0
    237e:	90 e0       	ldi	r25, 0x00	; 0
    2380:	0e 5f       	subi	r16, 0xFE	; 254
    2382:	1f 4f       	sbci	r17, 0xFF	; 255
    2384:	a3 01       	movw	r20, r6
    2386:	30 d2       	rcall	.+1120   	; 0x27e8 <__ultoa_invert>
    2388:	88 2e       	mov	r8, r24
    238a:	86 18       	sub	r8, r6
    238c:	fb 2d       	mov	r31, r11
    238e:	ff 77       	andi	r31, 0x7F	; 127
    2390:	3f 2e       	mov	r3, r31
    2392:	36 fe       	sbrs	r3, 6
    2394:	0d c0       	rjmp	.+26     	; 0x23b0 <vfprintf+0x2de>
    2396:	23 2d       	mov	r18, r3
    2398:	2e 7f       	andi	r18, 0xFE	; 254
    239a:	a2 2e       	mov	r10, r18
    239c:	89 14       	cp	r8, r9
    239e:	58 f4       	brcc	.+22     	; 0x23b6 <vfprintf+0x2e4>
    23a0:	34 fe       	sbrs	r3, 4
    23a2:	0b c0       	rjmp	.+22     	; 0x23ba <vfprintf+0x2e8>
    23a4:	32 fc       	sbrc	r3, 2
    23a6:	09 c0       	rjmp	.+18     	; 0x23ba <vfprintf+0x2e8>
    23a8:	83 2d       	mov	r24, r3
    23aa:	8e 7e       	andi	r24, 0xEE	; 238
    23ac:	a8 2e       	mov	r10, r24
    23ae:	05 c0       	rjmp	.+10     	; 0x23ba <vfprintf+0x2e8>
    23b0:	b8 2c       	mov	r11, r8
    23b2:	a3 2c       	mov	r10, r3
    23b4:	03 c0       	rjmp	.+6      	; 0x23bc <vfprintf+0x2ea>
    23b6:	b8 2c       	mov	r11, r8
    23b8:	01 c0       	rjmp	.+2      	; 0x23bc <vfprintf+0x2ea>
    23ba:	b9 2c       	mov	r11, r9
    23bc:	a4 fe       	sbrs	r10, 4
    23be:	0f c0       	rjmp	.+30     	; 0x23de <vfprintf+0x30c>
    23c0:	fe 01       	movw	r30, r28
    23c2:	e8 0d       	add	r30, r8
    23c4:	f1 1d       	adc	r31, r1
    23c6:	80 81       	ld	r24, Z
    23c8:	80 33       	cpi	r24, 0x30	; 48
    23ca:	21 f4       	brne	.+8      	; 0x23d4 <vfprintf+0x302>
    23cc:	9a 2d       	mov	r25, r10
    23ce:	99 7e       	andi	r25, 0xE9	; 233
    23d0:	a9 2e       	mov	r10, r25
    23d2:	09 c0       	rjmp	.+18     	; 0x23e6 <vfprintf+0x314>
    23d4:	a2 fe       	sbrs	r10, 2
    23d6:	06 c0       	rjmp	.+12     	; 0x23e4 <vfprintf+0x312>
    23d8:	b3 94       	inc	r11
    23da:	b3 94       	inc	r11
    23dc:	04 c0       	rjmp	.+8      	; 0x23e6 <vfprintf+0x314>
    23de:	8a 2d       	mov	r24, r10
    23e0:	86 78       	andi	r24, 0x86	; 134
    23e2:	09 f0       	breq	.+2      	; 0x23e6 <vfprintf+0x314>
    23e4:	b3 94       	inc	r11
    23e6:	a3 fc       	sbrc	r10, 3
    23e8:	10 c0       	rjmp	.+32     	; 0x240a <vfprintf+0x338>
    23ea:	a0 fe       	sbrs	r10, 0
    23ec:	06 c0       	rjmp	.+12     	; 0x23fa <vfprintf+0x328>
    23ee:	b2 14       	cp	r11, r2
    23f0:	80 f4       	brcc	.+32     	; 0x2412 <vfprintf+0x340>
    23f2:	28 0c       	add	r2, r8
    23f4:	92 2c       	mov	r9, r2
    23f6:	9b 18       	sub	r9, r11
    23f8:	0d c0       	rjmp	.+26     	; 0x2414 <vfprintf+0x342>
    23fa:	b2 14       	cp	r11, r2
    23fc:	58 f4       	brcc	.+22     	; 0x2414 <vfprintf+0x342>
    23fe:	b6 01       	movw	r22, r12
    2400:	80 e2       	ldi	r24, 0x20	; 32
    2402:	90 e0       	ldi	r25, 0x00	; 0
    2404:	b5 d1       	rcall	.+874    	; 0x2770 <fputc>
    2406:	b3 94       	inc	r11
    2408:	f8 cf       	rjmp	.-16     	; 0x23fa <vfprintf+0x328>
    240a:	b2 14       	cp	r11, r2
    240c:	18 f4       	brcc	.+6      	; 0x2414 <vfprintf+0x342>
    240e:	2b 18       	sub	r2, r11
    2410:	02 c0       	rjmp	.+4      	; 0x2416 <vfprintf+0x344>
    2412:	98 2c       	mov	r9, r8
    2414:	21 2c       	mov	r2, r1
    2416:	a4 fe       	sbrs	r10, 4
    2418:	0f c0       	rjmp	.+30     	; 0x2438 <vfprintf+0x366>
    241a:	b6 01       	movw	r22, r12
    241c:	80 e3       	ldi	r24, 0x30	; 48
    241e:	90 e0       	ldi	r25, 0x00	; 0
    2420:	a7 d1       	rcall	.+846    	; 0x2770 <fputc>
    2422:	a2 fe       	sbrs	r10, 2
    2424:	16 c0       	rjmp	.+44     	; 0x2452 <vfprintf+0x380>
    2426:	a1 fc       	sbrc	r10, 1
    2428:	03 c0       	rjmp	.+6      	; 0x2430 <vfprintf+0x35e>
    242a:	88 e7       	ldi	r24, 0x78	; 120
    242c:	90 e0       	ldi	r25, 0x00	; 0
    242e:	02 c0       	rjmp	.+4      	; 0x2434 <vfprintf+0x362>
    2430:	88 e5       	ldi	r24, 0x58	; 88
    2432:	90 e0       	ldi	r25, 0x00	; 0
    2434:	b6 01       	movw	r22, r12
    2436:	0c c0       	rjmp	.+24     	; 0x2450 <vfprintf+0x37e>
    2438:	8a 2d       	mov	r24, r10
    243a:	86 78       	andi	r24, 0x86	; 134
    243c:	51 f0       	breq	.+20     	; 0x2452 <vfprintf+0x380>
    243e:	a1 fe       	sbrs	r10, 1
    2440:	02 c0       	rjmp	.+4      	; 0x2446 <vfprintf+0x374>
    2442:	8b e2       	ldi	r24, 0x2B	; 43
    2444:	01 c0       	rjmp	.+2      	; 0x2448 <vfprintf+0x376>
    2446:	80 e2       	ldi	r24, 0x20	; 32
    2448:	a7 fc       	sbrc	r10, 7
    244a:	8d e2       	ldi	r24, 0x2D	; 45
    244c:	b6 01       	movw	r22, r12
    244e:	90 e0       	ldi	r25, 0x00	; 0
    2450:	8f d1       	rcall	.+798    	; 0x2770 <fputc>
    2452:	89 14       	cp	r8, r9
    2454:	30 f4       	brcc	.+12     	; 0x2462 <vfprintf+0x390>
    2456:	b6 01       	movw	r22, r12
    2458:	80 e3       	ldi	r24, 0x30	; 48
    245a:	90 e0       	ldi	r25, 0x00	; 0
    245c:	89 d1       	rcall	.+786    	; 0x2770 <fputc>
    245e:	9a 94       	dec	r9
    2460:	f8 cf       	rjmp	.-16     	; 0x2452 <vfprintf+0x380>
    2462:	8a 94       	dec	r8
    2464:	f3 01       	movw	r30, r6
    2466:	e8 0d       	add	r30, r8
    2468:	f1 1d       	adc	r31, r1
    246a:	80 81       	ld	r24, Z
    246c:	b6 01       	movw	r22, r12
    246e:	90 e0       	ldi	r25, 0x00	; 0
    2470:	7f d1       	rcall	.+766    	; 0x2770 <fputc>
    2472:	81 10       	cpse	r8, r1
    2474:	f6 cf       	rjmp	.-20     	; 0x2462 <vfprintf+0x390>
    2476:	22 20       	and	r2, r2
    2478:	09 f4       	brne	.+2      	; 0x247c <vfprintf+0x3aa>
    247a:	4e ce       	rjmp	.-868    	; 0x2118 <vfprintf+0x46>
    247c:	b6 01       	movw	r22, r12
    247e:	80 e2       	ldi	r24, 0x20	; 32
    2480:	90 e0       	ldi	r25, 0x00	; 0
    2482:	76 d1       	rcall	.+748    	; 0x2770 <fputc>
    2484:	2a 94       	dec	r2
    2486:	f7 cf       	rjmp	.-18     	; 0x2476 <vfprintf+0x3a4>
    2488:	f6 01       	movw	r30, r12
    248a:	86 81       	ldd	r24, Z+6	; 0x06
    248c:	97 81       	ldd	r25, Z+7	; 0x07
    248e:	02 c0       	rjmp	.+4      	; 0x2494 <vfprintf+0x3c2>
    2490:	8f ef       	ldi	r24, 0xFF	; 255
    2492:	9f ef       	ldi	r25, 0xFF	; 255
    2494:	2b 96       	adiw	r28, 0x0b	; 11
    2496:	cd bf       	out	0x3d, r28	; 61
    2498:	de bf       	out	0x3e, r29	; 62
    249a:	df 91       	pop	r29
    249c:	cf 91       	pop	r28
    249e:	1f 91       	pop	r17
    24a0:	0f 91       	pop	r16
    24a2:	ff 90       	pop	r15
    24a4:	ef 90       	pop	r14
    24a6:	df 90       	pop	r13
    24a8:	cf 90       	pop	r12
    24aa:	bf 90       	pop	r11
    24ac:	af 90       	pop	r10
    24ae:	9f 90       	pop	r9
    24b0:	8f 90       	pop	r8
    24b2:	7f 90       	pop	r7
    24b4:	6f 90       	pop	r6
    24b6:	5f 90       	pop	r5
    24b8:	4f 90       	pop	r4
    24ba:	3f 90       	pop	r3
    24bc:	2f 90       	pop	r2
    24be:	08 95       	ret

000024c0 <calloc>:
    24c0:	0f 93       	push	r16
    24c2:	1f 93       	push	r17
    24c4:	cf 93       	push	r28
    24c6:	df 93       	push	r29
    24c8:	86 9f       	mul	r24, r22
    24ca:	80 01       	movw	r16, r0
    24cc:	87 9f       	mul	r24, r23
    24ce:	10 0d       	add	r17, r0
    24d0:	96 9f       	mul	r25, r22
    24d2:	10 0d       	add	r17, r0
    24d4:	11 24       	eor	r1, r1
    24d6:	c8 01       	movw	r24, r16
    24d8:	0d d0       	rcall	.+26     	; 0x24f4 <malloc>
    24da:	ec 01       	movw	r28, r24
    24dc:	00 97       	sbiw	r24, 0x00	; 0
    24de:	21 f0       	breq	.+8      	; 0x24e8 <calloc+0x28>
    24e0:	a8 01       	movw	r20, r16
    24e2:	60 e0       	ldi	r22, 0x00	; 0
    24e4:	70 e0       	ldi	r23, 0x00	; 0
    24e6:	32 d1       	rcall	.+612    	; 0x274c <memset>
    24e8:	ce 01       	movw	r24, r28
    24ea:	df 91       	pop	r29
    24ec:	cf 91       	pop	r28
    24ee:	1f 91       	pop	r17
    24f0:	0f 91       	pop	r16
    24f2:	08 95       	ret

000024f4 <malloc>:
    24f4:	0f 93       	push	r16
    24f6:	1f 93       	push	r17
    24f8:	cf 93       	push	r28
    24fa:	df 93       	push	r29
    24fc:	82 30       	cpi	r24, 0x02	; 2
    24fe:	91 05       	cpc	r25, r1
    2500:	10 f4       	brcc	.+4      	; 0x2506 <malloc+0x12>
    2502:	82 e0       	ldi	r24, 0x02	; 2
    2504:	90 e0       	ldi	r25, 0x00	; 0
    2506:	e0 91 5d 22 	lds	r30, 0x225D	; 0x80225d <__flp>
    250a:	f0 91 5e 22 	lds	r31, 0x225E	; 0x80225e <__flp+0x1>
    250e:	20 e0       	ldi	r18, 0x00	; 0
    2510:	30 e0       	ldi	r19, 0x00	; 0
    2512:	a0 e0       	ldi	r26, 0x00	; 0
    2514:	b0 e0       	ldi	r27, 0x00	; 0
    2516:	30 97       	sbiw	r30, 0x00	; 0
    2518:	19 f1       	breq	.+70     	; 0x2560 <malloc+0x6c>
    251a:	40 81       	ld	r20, Z
    251c:	51 81       	ldd	r21, Z+1	; 0x01
    251e:	02 81       	ldd	r16, Z+2	; 0x02
    2520:	13 81       	ldd	r17, Z+3	; 0x03
    2522:	48 17       	cp	r20, r24
    2524:	59 07       	cpc	r21, r25
    2526:	c8 f0       	brcs	.+50     	; 0x255a <malloc+0x66>
    2528:	84 17       	cp	r24, r20
    252a:	95 07       	cpc	r25, r21
    252c:	69 f4       	brne	.+26     	; 0x2548 <malloc+0x54>
    252e:	10 97       	sbiw	r26, 0x00	; 0
    2530:	31 f0       	breq	.+12     	; 0x253e <malloc+0x4a>
    2532:	12 96       	adiw	r26, 0x02	; 2
    2534:	0c 93       	st	X, r16
    2536:	12 97       	sbiw	r26, 0x02	; 2
    2538:	13 96       	adiw	r26, 0x03	; 3
    253a:	1c 93       	st	X, r17
    253c:	27 c0       	rjmp	.+78     	; 0x258c <malloc+0x98>
    253e:	00 93 5d 22 	sts	0x225D, r16	; 0x80225d <__flp>
    2542:	10 93 5e 22 	sts	0x225E, r17	; 0x80225e <__flp+0x1>
    2546:	22 c0       	rjmp	.+68     	; 0x258c <malloc+0x98>
    2548:	21 15       	cp	r18, r1
    254a:	31 05       	cpc	r19, r1
    254c:	19 f0       	breq	.+6      	; 0x2554 <malloc+0x60>
    254e:	42 17       	cp	r20, r18
    2550:	53 07       	cpc	r21, r19
    2552:	18 f4       	brcc	.+6      	; 0x255a <malloc+0x66>
    2554:	9a 01       	movw	r18, r20
    2556:	bd 01       	movw	r22, r26
    2558:	ef 01       	movw	r28, r30
    255a:	df 01       	movw	r26, r30
    255c:	f8 01       	movw	r30, r16
    255e:	db cf       	rjmp	.-74     	; 0x2516 <malloc+0x22>
    2560:	21 15       	cp	r18, r1
    2562:	31 05       	cpc	r19, r1
    2564:	f9 f0       	breq	.+62     	; 0x25a4 <malloc+0xb0>
    2566:	28 1b       	sub	r18, r24
    2568:	39 0b       	sbc	r19, r25
    256a:	24 30       	cpi	r18, 0x04	; 4
    256c:	31 05       	cpc	r19, r1
    256e:	80 f4       	brcc	.+32     	; 0x2590 <malloc+0x9c>
    2570:	8a 81       	ldd	r24, Y+2	; 0x02
    2572:	9b 81       	ldd	r25, Y+3	; 0x03
    2574:	61 15       	cp	r22, r1
    2576:	71 05       	cpc	r23, r1
    2578:	21 f0       	breq	.+8      	; 0x2582 <malloc+0x8e>
    257a:	fb 01       	movw	r30, r22
    257c:	82 83       	std	Z+2, r24	; 0x02
    257e:	93 83       	std	Z+3, r25	; 0x03
    2580:	04 c0       	rjmp	.+8      	; 0x258a <malloc+0x96>
    2582:	80 93 5d 22 	sts	0x225D, r24	; 0x80225d <__flp>
    2586:	90 93 5e 22 	sts	0x225E, r25	; 0x80225e <__flp+0x1>
    258a:	fe 01       	movw	r30, r28
    258c:	32 96       	adiw	r30, 0x02	; 2
    258e:	44 c0       	rjmp	.+136    	; 0x2618 <malloc+0x124>
    2590:	fe 01       	movw	r30, r28
    2592:	e2 0f       	add	r30, r18
    2594:	f3 1f       	adc	r31, r19
    2596:	81 93       	st	Z+, r24
    2598:	91 93       	st	Z+, r25
    259a:	22 50       	subi	r18, 0x02	; 2
    259c:	31 09       	sbc	r19, r1
    259e:	28 83       	st	Y, r18
    25a0:	39 83       	std	Y+1, r19	; 0x01
    25a2:	3a c0       	rjmp	.+116    	; 0x2618 <malloc+0x124>
    25a4:	20 91 5b 22 	lds	r18, 0x225B	; 0x80225b <__brkval>
    25a8:	30 91 5c 22 	lds	r19, 0x225C	; 0x80225c <__brkval+0x1>
    25ac:	23 2b       	or	r18, r19
    25ae:	41 f4       	brne	.+16     	; 0x25c0 <malloc+0xcc>
    25b0:	20 91 02 20 	lds	r18, 0x2002	; 0x802002 <__malloc_heap_start>
    25b4:	30 91 03 20 	lds	r19, 0x2003	; 0x802003 <__malloc_heap_start+0x1>
    25b8:	20 93 5b 22 	sts	0x225B, r18	; 0x80225b <__brkval>
    25bc:	30 93 5c 22 	sts	0x225C, r19	; 0x80225c <__brkval+0x1>
    25c0:	20 91 00 20 	lds	r18, 0x2000	; 0x802000 <__data_start>
    25c4:	30 91 01 20 	lds	r19, 0x2001	; 0x802001 <__data_start+0x1>
    25c8:	21 15       	cp	r18, r1
    25ca:	31 05       	cpc	r19, r1
    25cc:	41 f4       	brne	.+16     	; 0x25de <malloc+0xea>
    25ce:	2d b7       	in	r18, 0x3d	; 61
    25d0:	3e b7       	in	r19, 0x3e	; 62
    25d2:	40 91 04 20 	lds	r20, 0x2004	; 0x802004 <__malloc_margin>
    25d6:	50 91 05 20 	lds	r21, 0x2005	; 0x802005 <__malloc_margin+0x1>
    25da:	24 1b       	sub	r18, r20
    25dc:	35 0b       	sbc	r19, r21
    25de:	e0 91 5b 22 	lds	r30, 0x225B	; 0x80225b <__brkval>
    25e2:	f0 91 5c 22 	lds	r31, 0x225C	; 0x80225c <__brkval+0x1>
    25e6:	e2 17       	cp	r30, r18
    25e8:	f3 07       	cpc	r31, r19
    25ea:	a0 f4       	brcc	.+40     	; 0x2614 <malloc+0x120>
    25ec:	2e 1b       	sub	r18, r30
    25ee:	3f 0b       	sbc	r19, r31
    25f0:	28 17       	cp	r18, r24
    25f2:	39 07       	cpc	r19, r25
    25f4:	78 f0       	brcs	.+30     	; 0x2614 <malloc+0x120>
    25f6:	ac 01       	movw	r20, r24
    25f8:	4e 5f       	subi	r20, 0xFE	; 254
    25fa:	5f 4f       	sbci	r21, 0xFF	; 255
    25fc:	24 17       	cp	r18, r20
    25fe:	35 07       	cpc	r19, r21
    2600:	48 f0       	brcs	.+18     	; 0x2614 <malloc+0x120>
    2602:	4e 0f       	add	r20, r30
    2604:	5f 1f       	adc	r21, r31
    2606:	40 93 5b 22 	sts	0x225B, r20	; 0x80225b <__brkval>
    260a:	50 93 5c 22 	sts	0x225C, r21	; 0x80225c <__brkval+0x1>
    260e:	81 93       	st	Z+, r24
    2610:	91 93       	st	Z+, r25
    2612:	02 c0       	rjmp	.+4      	; 0x2618 <malloc+0x124>
    2614:	e0 e0       	ldi	r30, 0x00	; 0
    2616:	f0 e0       	ldi	r31, 0x00	; 0
    2618:	cf 01       	movw	r24, r30
    261a:	df 91       	pop	r29
    261c:	cf 91       	pop	r28
    261e:	1f 91       	pop	r17
    2620:	0f 91       	pop	r16
    2622:	08 95       	ret

00002624 <free>:
    2624:	cf 93       	push	r28
    2626:	df 93       	push	r29
    2628:	00 97       	sbiw	r24, 0x00	; 0
    262a:	09 f4       	brne	.+2      	; 0x262e <free+0xa>
    262c:	81 c0       	rjmp	.+258    	; 0x2730 <free+0x10c>
    262e:	fc 01       	movw	r30, r24
    2630:	32 97       	sbiw	r30, 0x02	; 2
    2632:	12 82       	std	Z+2, r1	; 0x02
    2634:	13 82       	std	Z+3, r1	; 0x03
    2636:	a0 91 5d 22 	lds	r26, 0x225D	; 0x80225d <__flp>
    263a:	b0 91 5e 22 	lds	r27, 0x225E	; 0x80225e <__flp+0x1>
    263e:	10 97       	sbiw	r26, 0x00	; 0
    2640:	81 f4       	brne	.+32     	; 0x2662 <free+0x3e>
    2642:	20 81       	ld	r18, Z
    2644:	31 81       	ldd	r19, Z+1	; 0x01
    2646:	82 0f       	add	r24, r18
    2648:	93 1f       	adc	r25, r19
    264a:	20 91 5b 22 	lds	r18, 0x225B	; 0x80225b <__brkval>
    264e:	30 91 5c 22 	lds	r19, 0x225C	; 0x80225c <__brkval+0x1>
    2652:	28 17       	cp	r18, r24
    2654:	39 07       	cpc	r19, r25
    2656:	51 f5       	brne	.+84     	; 0x26ac <free+0x88>
    2658:	e0 93 5b 22 	sts	0x225B, r30	; 0x80225b <__brkval>
    265c:	f0 93 5c 22 	sts	0x225C, r31	; 0x80225c <__brkval+0x1>
    2660:	67 c0       	rjmp	.+206    	; 0x2730 <free+0x10c>
    2662:	ed 01       	movw	r28, r26
    2664:	20 e0       	ldi	r18, 0x00	; 0
    2666:	30 e0       	ldi	r19, 0x00	; 0
    2668:	ce 17       	cp	r28, r30
    266a:	df 07       	cpc	r29, r31
    266c:	40 f4       	brcc	.+16     	; 0x267e <free+0x5a>
    266e:	4a 81       	ldd	r20, Y+2	; 0x02
    2670:	5b 81       	ldd	r21, Y+3	; 0x03
    2672:	9e 01       	movw	r18, r28
    2674:	41 15       	cp	r20, r1
    2676:	51 05       	cpc	r21, r1
    2678:	f1 f0       	breq	.+60     	; 0x26b6 <free+0x92>
    267a:	ea 01       	movw	r28, r20
    267c:	f5 cf       	rjmp	.-22     	; 0x2668 <free+0x44>
    267e:	c2 83       	std	Z+2, r28	; 0x02
    2680:	d3 83       	std	Z+3, r29	; 0x03
    2682:	40 81       	ld	r20, Z
    2684:	51 81       	ldd	r21, Z+1	; 0x01
    2686:	84 0f       	add	r24, r20
    2688:	95 1f       	adc	r25, r21
    268a:	c8 17       	cp	r28, r24
    268c:	d9 07       	cpc	r29, r25
    268e:	59 f4       	brne	.+22     	; 0x26a6 <free+0x82>
    2690:	88 81       	ld	r24, Y
    2692:	99 81       	ldd	r25, Y+1	; 0x01
    2694:	84 0f       	add	r24, r20
    2696:	95 1f       	adc	r25, r21
    2698:	02 96       	adiw	r24, 0x02	; 2
    269a:	80 83       	st	Z, r24
    269c:	91 83       	std	Z+1, r25	; 0x01
    269e:	8a 81       	ldd	r24, Y+2	; 0x02
    26a0:	9b 81       	ldd	r25, Y+3	; 0x03
    26a2:	82 83       	std	Z+2, r24	; 0x02
    26a4:	93 83       	std	Z+3, r25	; 0x03
    26a6:	21 15       	cp	r18, r1
    26a8:	31 05       	cpc	r19, r1
    26aa:	29 f4       	brne	.+10     	; 0x26b6 <free+0x92>
    26ac:	e0 93 5d 22 	sts	0x225D, r30	; 0x80225d <__flp>
    26b0:	f0 93 5e 22 	sts	0x225E, r31	; 0x80225e <__flp+0x1>
    26b4:	3d c0       	rjmp	.+122    	; 0x2730 <free+0x10c>
    26b6:	e9 01       	movw	r28, r18
    26b8:	ea 83       	std	Y+2, r30	; 0x02
    26ba:	fb 83       	std	Y+3, r31	; 0x03
    26bc:	49 91       	ld	r20, Y+
    26be:	59 91       	ld	r21, Y+
    26c0:	c4 0f       	add	r28, r20
    26c2:	d5 1f       	adc	r29, r21
    26c4:	ec 17       	cp	r30, r28
    26c6:	fd 07       	cpc	r31, r29
    26c8:	61 f4       	brne	.+24     	; 0x26e2 <free+0xbe>
    26ca:	80 81       	ld	r24, Z
    26cc:	91 81       	ldd	r25, Z+1	; 0x01
    26ce:	84 0f       	add	r24, r20
    26d0:	95 1f       	adc	r25, r21
    26d2:	02 96       	adiw	r24, 0x02	; 2
    26d4:	e9 01       	movw	r28, r18
    26d6:	88 83       	st	Y, r24
    26d8:	99 83       	std	Y+1, r25	; 0x01
    26da:	82 81       	ldd	r24, Z+2	; 0x02
    26dc:	93 81       	ldd	r25, Z+3	; 0x03
    26de:	8a 83       	std	Y+2, r24	; 0x02
    26e0:	9b 83       	std	Y+3, r25	; 0x03
    26e2:	e0 e0       	ldi	r30, 0x00	; 0
    26e4:	f0 e0       	ldi	r31, 0x00	; 0
    26e6:	12 96       	adiw	r26, 0x02	; 2
    26e8:	8d 91       	ld	r24, X+
    26ea:	9c 91       	ld	r25, X
    26ec:	13 97       	sbiw	r26, 0x03	; 3
    26ee:	00 97       	sbiw	r24, 0x00	; 0
    26f0:	19 f0       	breq	.+6      	; 0x26f8 <free+0xd4>
    26f2:	fd 01       	movw	r30, r26
    26f4:	dc 01       	movw	r26, r24
    26f6:	f7 cf       	rjmp	.-18     	; 0x26e6 <free+0xc2>
    26f8:	8d 91       	ld	r24, X+
    26fa:	9c 91       	ld	r25, X
    26fc:	11 97       	sbiw	r26, 0x01	; 1
    26fe:	9d 01       	movw	r18, r26
    2700:	2e 5f       	subi	r18, 0xFE	; 254
    2702:	3f 4f       	sbci	r19, 0xFF	; 255
    2704:	82 0f       	add	r24, r18
    2706:	93 1f       	adc	r25, r19
    2708:	20 91 5b 22 	lds	r18, 0x225B	; 0x80225b <__brkval>
    270c:	30 91 5c 22 	lds	r19, 0x225C	; 0x80225c <__brkval+0x1>
    2710:	28 17       	cp	r18, r24
    2712:	39 07       	cpc	r19, r25
    2714:	69 f4       	brne	.+26     	; 0x2730 <free+0x10c>
    2716:	30 97       	sbiw	r30, 0x00	; 0
    2718:	29 f4       	brne	.+10     	; 0x2724 <free+0x100>
    271a:	10 92 5d 22 	sts	0x225D, r1	; 0x80225d <__flp>
    271e:	10 92 5e 22 	sts	0x225E, r1	; 0x80225e <__flp+0x1>
    2722:	02 c0       	rjmp	.+4      	; 0x2728 <free+0x104>
    2724:	12 82       	std	Z+2, r1	; 0x02
    2726:	13 82       	std	Z+3, r1	; 0x03
    2728:	a0 93 5b 22 	sts	0x225B, r26	; 0x80225b <__brkval>
    272c:	b0 93 5c 22 	sts	0x225C, r27	; 0x80225c <__brkval+0x1>
    2730:	df 91       	pop	r29
    2732:	cf 91       	pop	r28
    2734:	08 95       	ret

00002736 <strnlen_P>:
    2736:	fc 01       	movw	r30, r24
    2738:	05 90       	lpm	r0, Z+
    273a:	61 50       	subi	r22, 0x01	; 1
    273c:	70 40       	sbci	r23, 0x00	; 0
    273e:	01 10       	cpse	r0, r1
    2740:	d8 f7       	brcc	.-10     	; 0x2738 <strnlen_P+0x2>
    2742:	80 95       	com	r24
    2744:	90 95       	com	r25
    2746:	8e 0f       	add	r24, r30
    2748:	9f 1f       	adc	r25, r31
    274a:	08 95       	ret

0000274c <memset>:
    274c:	dc 01       	movw	r26, r24
    274e:	01 c0       	rjmp	.+2      	; 0x2752 <memset+0x6>
    2750:	6d 93       	st	X+, r22
    2752:	41 50       	subi	r20, 0x01	; 1
    2754:	50 40       	sbci	r21, 0x00	; 0
    2756:	e0 f7       	brcc	.-8      	; 0x2750 <memset+0x4>
    2758:	08 95       	ret

0000275a <strnlen>:
    275a:	fc 01       	movw	r30, r24
    275c:	61 50       	subi	r22, 0x01	; 1
    275e:	70 40       	sbci	r23, 0x00	; 0
    2760:	01 90       	ld	r0, Z+
    2762:	01 10       	cpse	r0, r1
    2764:	d8 f7       	brcc	.-10     	; 0x275c <strnlen+0x2>
    2766:	80 95       	com	r24
    2768:	90 95       	com	r25
    276a:	8e 0f       	add	r24, r30
    276c:	9f 1f       	adc	r25, r31
    276e:	08 95       	ret

00002770 <fputc>:
    2770:	0f 93       	push	r16
    2772:	1f 93       	push	r17
    2774:	cf 93       	push	r28
    2776:	df 93       	push	r29
    2778:	fb 01       	movw	r30, r22
    277a:	23 81       	ldd	r18, Z+3	; 0x03
    277c:	21 fd       	sbrc	r18, 1
    277e:	03 c0       	rjmp	.+6      	; 0x2786 <fputc+0x16>
    2780:	8f ef       	ldi	r24, 0xFF	; 255
    2782:	9f ef       	ldi	r25, 0xFF	; 255
    2784:	2c c0       	rjmp	.+88     	; 0x27de <fputc+0x6e>
    2786:	22 ff       	sbrs	r18, 2
    2788:	16 c0       	rjmp	.+44     	; 0x27b6 <fputc+0x46>
    278a:	46 81       	ldd	r20, Z+6	; 0x06
    278c:	57 81       	ldd	r21, Z+7	; 0x07
    278e:	24 81       	ldd	r18, Z+4	; 0x04
    2790:	35 81       	ldd	r19, Z+5	; 0x05
    2792:	42 17       	cp	r20, r18
    2794:	53 07       	cpc	r21, r19
    2796:	44 f4       	brge	.+16     	; 0x27a8 <fputc+0x38>
    2798:	a0 81       	ld	r26, Z
    279a:	b1 81       	ldd	r27, Z+1	; 0x01
    279c:	9d 01       	movw	r18, r26
    279e:	2f 5f       	subi	r18, 0xFF	; 255
    27a0:	3f 4f       	sbci	r19, 0xFF	; 255
    27a2:	20 83       	st	Z, r18
    27a4:	31 83       	std	Z+1, r19	; 0x01
    27a6:	8c 93       	st	X, r24
    27a8:	26 81       	ldd	r18, Z+6	; 0x06
    27aa:	37 81       	ldd	r19, Z+7	; 0x07
    27ac:	2f 5f       	subi	r18, 0xFF	; 255
    27ae:	3f 4f       	sbci	r19, 0xFF	; 255
    27b0:	26 83       	std	Z+6, r18	; 0x06
    27b2:	37 83       	std	Z+7, r19	; 0x07
    27b4:	14 c0       	rjmp	.+40     	; 0x27de <fputc+0x6e>
    27b6:	8b 01       	movw	r16, r22
    27b8:	ec 01       	movw	r28, r24
    27ba:	fb 01       	movw	r30, r22
    27bc:	00 84       	ldd	r0, Z+8	; 0x08
    27be:	f1 85       	ldd	r31, Z+9	; 0x09
    27c0:	e0 2d       	mov	r30, r0
    27c2:	19 95       	eicall
    27c4:	89 2b       	or	r24, r25
    27c6:	e1 f6       	brne	.-72     	; 0x2780 <fputc+0x10>
    27c8:	d8 01       	movw	r26, r16
    27ca:	16 96       	adiw	r26, 0x06	; 6
    27cc:	8d 91       	ld	r24, X+
    27ce:	9c 91       	ld	r25, X
    27d0:	17 97       	sbiw	r26, 0x07	; 7
    27d2:	01 96       	adiw	r24, 0x01	; 1
    27d4:	16 96       	adiw	r26, 0x06	; 6
    27d6:	8d 93       	st	X+, r24
    27d8:	9c 93       	st	X, r25
    27da:	17 97       	sbiw	r26, 0x07	; 7
    27dc:	ce 01       	movw	r24, r28
    27de:	df 91       	pop	r29
    27e0:	cf 91       	pop	r28
    27e2:	1f 91       	pop	r17
    27e4:	0f 91       	pop	r16
    27e6:	08 95       	ret

000027e8 <__ultoa_invert>:
    27e8:	fa 01       	movw	r30, r20
    27ea:	aa 27       	eor	r26, r26
    27ec:	28 30       	cpi	r18, 0x08	; 8
    27ee:	51 f1       	breq	.+84     	; 0x2844 <__ultoa_invert+0x5c>
    27f0:	20 31       	cpi	r18, 0x10	; 16
    27f2:	81 f1       	breq	.+96     	; 0x2854 <__ultoa_invert+0x6c>
    27f4:	e8 94       	clt
    27f6:	6f 93       	push	r22
    27f8:	6e 7f       	andi	r22, 0xFE	; 254
    27fa:	6e 5f       	subi	r22, 0xFE	; 254
    27fc:	7f 4f       	sbci	r23, 0xFF	; 255
    27fe:	8f 4f       	sbci	r24, 0xFF	; 255
    2800:	9f 4f       	sbci	r25, 0xFF	; 255
    2802:	af 4f       	sbci	r26, 0xFF	; 255
    2804:	b1 e0       	ldi	r27, 0x01	; 1
    2806:	3e d0       	rcall	.+124    	; 0x2884 <__ultoa_invert+0x9c>
    2808:	b4 e0       	ldi	r27, 0x04	; 4
    280a:	3c d0       	rcall	.+120    	; 0x2884 <__ultoa_invert+0x9c>
    280c:	67 0f       	add	r22, r23
    280e:	78 1f       	adc	r23, r24
    2810:	89 1f       	adc	r24, r25
    2812:	9a 1f       	adc	r25, r26
    2814:	a1 1d       	adc	r26, r1
    2816:	68 0f       	add	r22, r24
    2818:	79 1f       	adc	r23, r25
    281a:	8a 1f       	adc	r24, r26
    281c:	91 1d       	adc	r25, r1
    281e:	a1 1d       	adc	r26, r1
    2820:	6a 0f       	add	r22, r26
    2822:	71 1d       	adc	r23, r1
    2824:	81 1d       	adc	r24, r1
    2826:	91 1d       	adc	r25, r1
    2828:	a1 1d       	adc	r26, r1
    282a:	20 d0       	rcall	.+64     	; 0x286c <__ultoa_invert+0x84>
    282c:	09 f4       	brne	.+2      	; 0x2830 <__ultoa_invert+0x48>
    282e:	68 94       	set
    2830:	3f 91       	pop	r19
    2832:	2a e0       	ldi	r18, 0x0A	; 10
    2834:	26 9f       	mul	r18, r22
    2836:	11 24       	eor	r1, r1
    2838:	30 19       	sub	r19, r0
    283a:	30 5d       	subi	r19, 0xD0	; 208
    283c:	31 93       	st	Z+, r19
    283e:	de f6       	brtc	.-74     	; 0x27f6 <__ultoa_invert+0xe>
    2840:	cf 01       	movw	r24, r30
    2842:	08 95       	ret
    2844:	46 2f       	mov	r20, r22
    2846:	47 70       	andi	r20, 0x07	; 7
    2848:	40 5d       	subi	r20, 0xD0	; 208
    284a:	41 93       	st	Z+, r20
    284c:	b3 e0       	ldi	r27, 0x03	; 3
    284e:	0f d0       	rcall	.+30     	; 0x286e <__ultoa_invert+0x86>
    2850:	c9 f7       	brne	.-14     	; 0x2844 <__ultoa_invert+0x5c>
    2852:	f6 cf       	rjmp	.-20     	; 0x2840 <__ultoa_invert+0x58>
    2854:	46 2f       	mov	r20, r22
    2856:	4f 70       	andi	r20, 0x0F	; 15
    2858:	40 5d       	subi	r20, 0xD0	; 208
    285a:	4a 33       	cpi	r20, 0x3A	; 58
    285c:	18 f0       	brcs	.+6      	; 0x2864 <__ultoa_invert+0x7c>
    285e:	49 5d       	subi	r20, 0xD9	; 217
    2860:	31 fd       	sbrc	r19, 1
    2862:	40 52       	subi	r20, 0x20	; 32
    2864:	41 93       	st	Z+, r20
    2866:	02 d0       	rcall	.+4      	; 0x286c <__ultoa_invert+0x84>
    2868:	a9 f7       	brne	.-22     	; 0x2854 <__ultoa_invert+0x6c>
    286a:	ea cf       	rjmp	.-44     	; 0x2840 <__ultoa_invert+0x58>
    286c:	b4 e0       	ldi	r27, 0x04	; 4
    286e:	a6 95       	lsr	r26
    2870:	97 95       	ror	r25
    2872:	87 95       	ror	r24
    2874:	77 95       	ror	r23
    2876:	67 95       	ror	r22
    2878:	ba 95       	dec	r27
    287a:	c9 f7       	brne	.-14     	; 0x286e <__ultoa_invert+0x86>
    287c:	00 97       	sbiw	r24, 0x00	; 0
    287e:	61 05       	cpc	r22, r1
    2880:	71 05       	cpc	r23, r1
    2882:	08 95       	ret
    2884:	9b 01       	movw	r18, r22
    2886:	ac 01       	movw	r20, r24
    2888:	0a 2e       	mov	r0, r26
    288a:	06 94       	lsr	r0
    288c:	57 95       	ror	r21
    288e:	47 95       	ror	r20
    2890:	37 95       	ror	r19
    2892:	27 95       	ror	r18
    2894:	ba 95       	dec	r27
    2896:	c9 f7       	brne	.-14     	; 0x288a <__ultoa_invert+0xa2>
    2898:	62 0f       	add	r22, r18
    289a:	73 1f       	adc	r23, r19
    289c:	84 1f       	adc	r24, r20
    289e:	95 1f       	adc	r25, r21
    28a0:	a0 1d       	adc	r26, r0
    28a2:	08 95       	ret

000028a4 <_exit>:
    28a4:	f8 94       	cli

000028a6 <__stop_program>:
    28a6:	ff cf       	rjmp	.-2      	; 0x28a6 <__stop_program>
