
SkyFire.elf:     file format elf32-avr

Sections:
Idx Name          Size      VMA       LMA       File off  Algn
  0 .text         000044c0  00000000  00000000  00000094  2**1
                  CONTENTS, ALLOC, LOAD, READONLY, CODE
  1 .data         0000009e  00802000  000044c0  00004554  2**0
                  CONTENTS, ALLOC, LOAD, DATA
  2 .bss          000000de  0080209e  0080209e  000045f2  2**0
                  ALLOC
  3 .comment      0000005c  00000000  00000000  000045f2  2**0
                  CONTENTS, READONLY
  4 .note.gnu.avr.deviceinfo 00000040  00000000  00000000  00004650  2**2
                  CONTENTS, READONLY
  5 .debug_aranges 000004c0  00000000  00000000  00004690  2**3
                  CONTENTS, READONLY, DEBUGGING
  6 .debug_info   00014aa4  00000000  00000000  00004b50  2**0
                  CONTENTS, READONLY, DEBUGGING
  7 .debug_abbrev 00005cb4  00000000  00000000  000195f4  2**0
                  CONTENTS, READONLY, DEBUGGING
  8 .debug_line   00008846  00000000  00000000  0001f2a8  2**0
                  CONTENTS, READONLY, DEBUGGING
  9 .debug_frame  00001348  00000000  00000000  00027af0  2**2
                  CONTENTS, READONLY, DEBUGGING
 10 .debug_str    000335c5  00000000  00000000  00028e38  2**0
                  CONTENTS, READONLY, DEBUGGING
 11 .debug_loc    00005019  00000000  00000000  0005c3fd  2**0
                  CONTENTS, READONLY, DEBUGGING
 12 .debug_ranges 00000470  00000000  00000000  00061416  2**0
                  CONTENTS, READONLY, DEBUGGING
 13 .debug_macro  0000320d  00000000  00000000  00061886  2**0
                  CONTENTS, READONLY, DEBUGGING

Disassembly of section .text:

00000000 <__vectors>:
       0:	44 c1       	rjmp	.+648    	; 0x28a <__ctors_end>
       2:	00 00       	nop
       4:	68 c1       	rjmp	.+720    	; 0x2d6 <__bad_interrupt>
       6:	00 00       	nop
       8:	66 c1       	rjmp	.+716    	; 0x2d6 <__bad_interrupt>
       a:	00 00       	nop
       c:	64 c1       	rjmp	.+712    	; 0x2d6 <__bad_interrupt>
       e:	00 00       	nop
      10:	62 c1       	rjmp	.+708    	; 0x2d6 <__bad_interrupt>
      12:	00 00       	nop
      14:	60 c1       	rjmp	.+704    	; 0x2d6 <__bad_interrupt>
      16:	00 00       	nop
      18:	5e c1       	rjmp	.+700    	; 0x2d6 <__bad_interrupt>
      1a:	00 00       	nop
      1c:	5c c1       	rjmp	.+696    	; 0x2d6 <__bad_interrupt>
      1e:	00 00       	nop
      20:	5a c1       	rjmp	.+692    	; 0x2d6 <__bad_interrupt>
      22:	00 00       	nop
      24:	58 c1       	rjmp	.+688    	; 0x2d6 <__bad_interrupt>
      26:	00 00       	nop
      28:	56 c1       	rjmp	.+684    	; 0x2d6 <__bad_interrupt>
      2a:	00 00       	nop
      2c:	54 c1       	rjmp	.+680    	; 0x2d6 <__bad_interrupt>
      2e:	00 00       	nop
      30:	52 c1       	rjmp	.+676    	; 0x2d6 <__bad_interrupt>
      32:	00 00       	nop
      34:	50 c1       	rjmp	.+672    	; 0x2d6 <__bad_interrupt>
      36:	00 00       	nop
      38:	4e c1       	rjmp	.+668    	; 0x2d6 <__bad_interrupt>
      3a:	00 00       	nop
      3c:	4c c1       	rjmp	.+664    	; 0x2d6 <__bad_interrupt>
      3e:	00 00       	nop
      40:	4a c1       	rjmp	.+660    	; 0x2d6 <__bad_interrupt>
      42:	00 00       	nop
      44:	48 c1       	rjmp	.+656    	; 0x2d6 <__bad_interrupt>
      46:	00 00       	nop
      48:	46 c1       	rjmp	.+652    	; 0x2d6 <__bad_interrupt>
      4a:	00 00       	nop
      4c:	44 c1       	rjmp	.+648    	; 0x2d6 <__bad_interrupt>
      4e:	00 00       	nop
      50:	42 c1       	rjmp	.+644    	; 0x2d6 <__bad_interrupt>
      52:	00 00       	nop
      54:	40 c1       	rjmp	.+640    	; 0x2d6 <__bad_interrupt>
      56:	00 00       	nop
      58:	3e c1       	rjmp	.+636    	; 0x2d6 <__bad_interrupt>
      5a:	00 00       	nop
      5c:	3c c1       	rjmp	.+632    	; 0x2d6 <__bad_interrupt>
      5e:	00 00       	nop
      60:	3a c1       	rjmp	.+628    	; 0x2d6 <__bad_interrupt>
      62:	00 00       	nop
      64:	38 c1       	rjmp	.+624    	; 0x2d6 <__bad_interrupt>
      66:	00 00       	nop
      68:	36 c1       	rjmp	.+620    	; 0x2d6 <__bad_interrupt>
      6a:	00 00       	nop
      6c:	34 c1       	rjmp	.+616    	; 0x2d6 <__bad_interrupt>
      6e:	00 00       	nop
      70:	32 c1       	rjmp	.+612    	; 0x2d6 <__bad_interrupt>
      72:	00 00       	nop
      74:	30 c1       	rjmp	.+608    	; 0x2d6 <__bad_interrupt>
      76:	00 00       	nop
      78:	2e c1       	rjmp	.+604    	; 0x2d6 <__bad_interrupt>
      7a:	00 00       	nop
      7c:	2c c1       	rjmp	.+600    	; 0x2d6 <__bad_interrupt>
      7e:	00 00       	nop
      80:	2a c1       	rjmp	.+596    	; 0x2d6 <__bad_interrupt>
      82:	00 00       	nop
      84:	28 c1       	rjmp	.+592    	; 0x2d6 <__bad_interrupt>
      86:	00 00       	nop
      88:	26 c1       	rjmp	.+588    	; 0x2d6 <__bad_interrupt>
      8a:	00 00       	nop
      8c:	24 c1       	rjmp	.+584    	; 0x2d6 <__bad_interrupt>
      8e:	00 00       	nop
      90:	22 c1       	rjmp	.+580    	; 0x2d6 <__bad_interrupt>
      92:	00 00       	nop
      94:	20 c1       	rjmp	.+576    	; 0x2d6 <__bad_interrupt>
      96:	00 00       	nop
      98:	1e c1       	rjmp	.+572    	; 0x2d6 <__bad_interrupt>
      9a:	00 00       	nop
      9c:	3c c2       	rjmp	.+1144   	; 0x516 <__vector_39>
      9e:	00 00       	nop
      a0:	77 c2       	rjmp	.+1262   	; 0x590 <__vector_40>
      a2:	00 00       	nop
      a4:	b2 c2       	rjmp	.+1380   	; 0x60a <__vector_41>
      a6:	00 00       	nop
      a8:	ed c2       	rjmp	.+1498   	; 0x684 <__vector_42>
      aa:	00 00       	nop
      ac:	14 c1       	rjmp	.+552    	; 0x2d6 <__bad_interrupt>
      ae:	00 00       	nop
      b0:	12 c1       	rjmp	.+548    	; 0x2d6 <__bad_interrupt>
      b2:	00 00       	nop
      b4:	10 c1       	rjmp	.+544    	; 0x2d6 <__bad_interrupt>
      b6:	00 00       	nop
      b8:	0e c1       	rjmp	.+540    	; 0x2d6 <__bad_interrupt>
      ba:	00 00       	nop
      bc:	0c 94 ee 11 	jmp	0x23dc	; 0x23dc <__vector_47>
      c0:	0a c1       	rjmp	.+532    	; 0x2d6 <__bad_interrupt>
      c2:	00 00       	nop
      c4:	08 c1       	rjmp	.+528    	; 0x2d6 <__bad_interrupt>
      c6:	00 00       	nop
      c8:	06 c1       	rjmp	.+524    	; 0x2d6 <__bad_interrupt>
      ca:	00 00       	nop
      cc:	04 c1       	rjmp	.+520    	; 0x2d6 <__bad_interrupt>
      ce:	00 00       	nop
      d0:	02 c1       	rjmp	.+516    	; 0x2d6 <__bad_interrupt>
      d2:	00 00       	nop
      d4:	00 c1       	rjmp	.+512    	; 0x2d6 <__bad_interrupt>
      d6:	00 00       	nop
      d8:	fe c0       	rjmp	.+508    	; 0x2d6 <__bad_interrupt>
      da:	00 00       	nop
      dc:	fc c0       	rjmp	.+504    	; 0x2d6 <__bad_interrupt>
      de:	00 00       	nop
      e0:	fa c0       	rjmp	.+500    	; 0x2d6 <__bad_interrupt>
      e2:	00 00       	nop
      e4:	f8 c0       	rjmp	.+496    	; 0x2d6 <__bad_interrupt>
      e6:	00 00       	nop
      e8:	0c 94 61 13 	jmp	0x26c2	; 0x26c2 <__vector_58>
      ec:	f4 c0       	rjmp	.+488    	; 0x2d6 <__bad_interrupt>
      ee:	00 00       	nop
      f0:	f2 c0       	rjmp	.+484    	; 0x2d6 <__bad_interrupt>
      f2:	00 00       	nop
      f4:	f0 c0       	rjmp	.+480    	; 0x2d6 <__bad_interrupt>
      f6:	00 00       	nop
      f8:	ee c0       	rjmp	.+476    	; 0x2d6 <__bad_interrupt>
      fa:	00 00       	nop
      fc:	ec c0       	rjmp	.+472    	; 0x2d6 <__bad_interrupt>
      fe:	00 00       	nop
     100:	ea c0       	rjmp	.+468    	; 0x2d6 <__bad_interrupt>
     102:	00 00       	nop
     104:	e8 c0       	rjmp	.+464    	; 0x2d6 <__bad_interrupt>
     106:	00 00       	nop
     108:	e6 c0       	rjmp	.+460    	; 0x2d6 <__bad_interrupt>
     10a:	00 00       	nop
     10c:	e4 c0       	rjmp	.+456    	; 0x2d6 <__bad_interrupt>
     10e:	00 00       	nop
     110:	e2 c0       	rjmp	.+452    	; 0x2d6 <__bad_interrupt>
     112:	00 00       	nop
     114:	e0 c0       	rjmp	.+448    	; 0x2d6 <__bad_interrupt>
     116:	00 00       	nop
     118:	de c0       	rjmp	.+444    	; 0x2d6 <__bad_interrupt>
     11a:	00 00       	nop
     11c:	08 c1       	rjmp	.+528    	; 0x32e <__vector_71>
     11e:	00 00       	nop
     120:	43 c1       	rjmp	.+646    	; 0x3a8 <__vector_72>
     122:	00 00       	nop
     124:	7e c1       	rjmp	.+764    	; 0x422 <__vector_73>
     126:	00 00       	nop
     128:	b9 c1       	rjmp	.+882    	; 0x49c <__vector_74>
     12a:	00 00       	nop
     12c:	d4 c0       	rjmp	.+424    	; 0x2d6 <__bad_interrupt>
     12e:	00 00       	nop
     130:	d2 c0       	rjmp	.+420    	; 0x2d6 <__bad_interrupt>
     132:	00 00       	nop
     134:	d0 c0       	rjmp	.+416    	; 0x2d6 <__bad_interrupt>
     136:	00 00       	nop
     138:	ce c0       	rjmp	.+412    	; 0x2d6 <__bad_interrupt>
     13a:	00 00       	nop
     13c:	cc c0       	rjmp	.+408    	; 0x2d6 <__bad_interrupt>
     13e:	00 00       	nop
     140:	ca c0       	rjmp	.+404    	; 0x2d6 <__bad_interrupt>
     142:	00 00       	nop
     144:	c8 c0       	rjmp	.+400    	; 0x2d6 <__bad_interrupt>
     146:	00 00       	nop
     148:	c6 c0       	rjmp	.+396    	; 0x2d6 <__bad_interrupt>
     14a:	00 00       	nop
     14c:	c4 c0       	rjmp	.+392    	; 0x2d6 <__bad_interrupt>
     14e:	00 00       	nop
     150:	c2 c0       	rjmp	.+388    	; 0x2d6 <__bad_interrupt>
     152:	00 00       	nop
     154:	c0 c0       	rjmp	.+384    	; 0x2d6 <__bad_interrupt>
     156:	00 00       	nop
     158:	be c0       	rjmp	.+380    	; 0x2d6 <__bad_interrupt>
     15a:	00 00       	nop
     15c:	bc c0       	rjmp	.+376    	; 0x2d6 <__bad_interrupt>
     15e:	00 00       	nop
     160:	ba c0       	rjmp	.+372    	; 0x2d6 <__bad_interrupt>
     162:	00 00       	nop
     164:	b8 c0       	rjmp	.+368    	; 0x2d6 <__bad_interrupt>
     166:	00 00       	nop
     168:	b6 c0       	rjmp	.+364    	; 0x2d6 <__bad_interrupt>
     16a:	00 00       	nop
     16c:	0c 94 97 13 	jmp	0x272e	; 0x272e <__vector_91>
     170:	b2 c0       	rjmp	.+356    	; 0x2d6 <__bad_interrupt>
     172:	00 00       	nop
     174:	b0 c0       	rjmp	.+352    	; 0x2d6 <__bad_interrupt>
     176:	00 00       	nop
     178:	ae c0       	rjmp	.+348    	; 0x2d6 <__bad_interrupt>
     17a:	00 00       	nop
     17c:	ac c0       	rjmp	.+344    	; 0x2d6 <__bad_interrupt>
     17e:	00 00       	nop
     180:	aa c0       	rjmp	.+340    	; 0x2d6 <__bad_interrupt>
     182:	00 00       	nop
     184:	a8 c0       	rjmp	.+336    	; 0x2d6 <__bad_interrupt>
     186:	00 00       	nop
     188:	a6 c0       	rjmp	.+332    	; 0x2d6 <__bad_interrupt>
     18a:	00 00       	nop
     18c:	a4 c0       	rjmp	.+328    	; 0x2d6 <__bad_interrupt>
     18e:	00 00       	nop
     190:	a2 c0       	rjmp	.+324    	; 0x2d6 <__bad_interrupt>
     192:	00 00       	nop
     194:	a0 c0       	rjmp	.+320    	; 0x2d6 <__bad_interrupt>
     196:	00 00       	nop
     198:	9e c0       	rjmp	.+316    	; 0x2d6 <__bad_interrupt>
     19a:	00 00       	nop
     19c:	9c c0       	rjmp	.+312    	; 0x2d6 <__bad_interrupt>
     19e:	00 00       	nop
     1a0:	9a c0       	rjmp	.+308    	; 0x2d6 <__bad_interrupt>
     1a2:	00 00       	nop
     1a4:	98 c0       	rjmp	.+304    	; 0x2d6 <__bad_interrupt>
     1a6:	00 00       	nop
     1a8:	96 c0       	rjmp	.+300    	; 0x2d6 <__bad_interrupt>
     1aa:	00 00       	nop
     1ac:	94 c0       	rjmp	.+296    	; 0x2d6 <__bad_interrupt>
     1ae:	00 00       	nop
     1b0:	92 c0       	rjmp	.+292    	; 0x2d6 <__bad_interrupt>
     1b2:	00 00       	nop
     1b4:	90 c0       	rjmp	.+288    	; 0x2d6 <__bad_interrupt>
     1b6:	00 00       	nop
     1b8:	8e c0       	rjmp	.+284    	; 0x2d6 <__bad_interrupt>
     1ba:	00 00       	nop
     1bc:	8c c0       	rjmp	.+280    	; 0x2d6 <__bad_interrupt>
     1be:	00 00       	nop
     1c0:	8a c0       	rjmp	.+276    	; 0x2d6 <__bad_interrupt>
     1c2:	00 00       	nop
     1c4:	88 c0       	rjmp	.+272    	; 0x2d6 <__bad_interrupt>
     1c6:	00 00       	nop
     1c8:	86 c0       	rjmp	.+268    	; 0x2d6 <__bad_interrupt>
     1ca:	00 00       	nop
     1cc:	84 c0       	rjmp	.+264    	; 0x2d6 <__bad_interrupt>
     1ce:	00 00       	nop
     1d0:	82 c0       	rjmp	.+260    	; 0x2d6 <__bad_interrupt>
     1d2:	00 00       	nop
     1d4:	80 c0       	rjmp	.+256    	; 0x2d6 <__bad_interrupt>
     1d6:	00 00       	nop
     1d8:	7e c0       	rjmp	.+252    	; 0x2d6 <__bad_interrupt>
     1da:	00 00       	nop
     1dc:	7c c0       	rjmp	.+248    	; 0x2d6 <__bad_interrupt>
     1de:	00 00       	nop
     1e0:	7a c0       	rjmp	.+244    	; 0x2d6 <__bad_interrupt>
     1e2:	00 00       	nop
     1e4:	78 c0       	rjmp	.+240    	; 0x2d6 <__bad_interrupt>
     1e6:	00 00       	nop
     1e8:	76 c0       	rjmp	.+236    	; 0x2d6 <__bad_interrupt>
     1ea:	00 00       	nop
     1ec:	74 c0       	rjmp	.+232    	; 0x2d6 <__bad_interrupt>
     1ee:	00 00       	nop
     1f0:	72 c0       	rjmp	.+228    	; 0x2d6 <__bad_interrupt>
     1f2:	00 00       	nop
     1f4:	70 c0       	rjmp	.+224    	; 0x2d6 <__bad_interrupt>
     1f6:	00 00       	nop
     1f8:	6e c0       	rjmp	.+220    	; 0x2d6 <__bad_interrupt>
     1fa:	00 00       	nop
     1fc:	07 63       	ori	r16, 0x37	; 55
     1fe:	42 36       	cpi	r20, 0x62	; 98
     200:	b7 9b       	sbis	0x16, 7	; 22
     202:	d8 a7       	std	Y+40, r29	; 0x28
     204:	1a 39       	cpi	r17, 0x9A	; 154
     206:	68 56       	subi	r22, 0x68	; 104
     208:	18 ae       	std	Y+56, r1	; 0x38
     20a:	ba ab       	std	Y+50, r27	; 0x32
     20c:	55 8c       	ldd	r5, Z+29	; 0x1d
     20e:	1d 3c       	cpi	r17, 0xCD	; 205
     210:	b7 cc       	rjmp	.-1682   	; 0xfffffb80 <__eeprom_end+0xff7efb80>
     212:	57 63       	ori	r21, 0x37	; 55
     214:	bd 6d       	ori	r27, 0xDD	; 221
     216:	ed fd       	.word	0xfded	; ????
     218:	75 3e       	cpi	r23, 0xE5	; 229
     21a:	f6 17       	cp	r31, r22
     21c:	72 31       	cpi	r23, 0x12	; 18
     21e:	bf 00       	.word	0x00bf	; ????
     220:	00 00       	nop
     222:	80 3f       	cpi	r24, 0xF0	; 240
     224:	08 00       	.word	0x0008	; ????
     226:	00 00       	nop
     228:	be 92       	st	-X, r11
     22a:	24 49       	sbci	r18, 0x94	; 148
     22c:	12 3e       	cpi	r17, 0xE2	; 226
     22e:	ab aa       	std	Y+51, r10	; 0x33
     230:	aa 2a       	or	r10, r26
     232:	be cd       	rjmp	.-1156   	; 0xfffffdb0 <__eeprom_end+0xff7efdb0>
     234:	cc cc       	rjmp	.-1640   	; 0xfffffbce <__eeprom_end+0xff7efbce>
     236:	4c 3e       	cpi	r20, 0xEC	; 236
     238:	00 00       	nop
     23a:	00 80       	ld	r0, Z
     23c:	be ab       	std	Y+54, r27	; 0x36
     23e:	aa aa       	std	Y+50, r10	; 0x32
     240:	aa 3e       	cpi	r26, 0xEA	; 234
     242:	00 00       	nop
     244:	00 00       	nop
     246:	bf 00       	.word	0x00bf	; ????
     248:	00 00       	nop
     24a:	80 3f       	cpi	r24, 0xF0	; 240
     24c:	00 00       	nop
     24e:	00 00       	nop
     250:	00 08       	sbc	r0, r0
     252:	41 78       	andi	r20, 0x81	; 129
     254:	d3 bb       	out	0x13, r29	; 19
     256:	43 87       	std	Z+11, r20	; 0x0b
     258:	d1 13       	cpse	r29, r17
     25a:	3d 19       	sub	r19, r13
     25c:	0e 3c       	cpi	r16, 0xCE	; 206
     25e:	c3 bd       	out	0x23, r28	; 35
     260:	42 82       	std	Z+2, r4	; 0x02
     262:	ad 2b       	or	r26, r29
     264:	3e 68       	ori	r19, 0x8E	; 142
     266:	ec 82       	std	Y+4, r14	; 0x04
     268:	76 be       	out	0x36, r7	; 54
     26a:	d9 8f       	std	Y+25, r29	; 0x19
     26c:	e1 a9       	ldd	r30, Z+49	; 0x31
     26e:	3e 4c       	sbci	r19, 0xCE	; 206
     270:	80 ef       	ldi	r24, 0xF0	; 240
     272:	ff be       	out	0x3f, r15	; 63
     274:	01 c4       	rjmp	.+2050   	; 0xa78 <usart_init_rs232+0x138>
     276:	ff 7f       	andi	r31, 0xFF	; 255
     278:	3f 00       	.word	0x003f	; ????
     27a:	00 00       	nop
	...

0000027e <__trampolines_end>:
     27e:	63 64       	ori	r22, 0x43	; 67
     280:	69 6e       	ori	r22, 0xE9	; 233
     282:	6f 70       	andi	r22, 0x0F	; 15
     284:	73 75       	andi	r23, 0x53	; 83
     286:	78 58       	subi	r23, 0x88	; 136
     288:	5b 00       	.word	0x005b	; ????

0000028a <__ctors_end>:
     28a:	11 24       	eor	r1, r1
     28c:	1f be       	out	0x3f, r1	; 63
     28e:	cf ef       	ldi	r28, 0xFF	; 255
     290:	cd bf       	out	0x3d, r28	; 61
     292:	df e3       	ldi	r29, 0x3F	; 63
     294:	de bf       	out	0x3e, r29	; 62
     296:	00 e0       	ldi	r16, 0x00	; 0
     298:	0c bf       	out	0x3c, r16	; 60
     29a:	18 be       	out	0x38, r1	; 56
     29c:	19 be       	out	0x39, r1	; 57
     29e:	1a be       	out	0x3a, r1	; 58
     2a0:	1b be       	out	0x3b, r1	; 59

000002a2 <__do_copy_data>:
     2a2:	10 e2       	ldi	r17, 0x20	; 32
     2a4:	a0 e0       	ldi	r26, 0x00	; 0
     2a6:	b0 e2       	ldi	r27, 0x20	; 32
     2a8:	e0 ec       	ldi	r30, 0xC0	; 192
     2aa:	f4 e4       	ldi	r31, 0x44	; 68
     2ac:	00 e0       	ldi	r16, 0x00	; 0
     2ae:	0b bf       	out	0x3b, r16	; 59
     2b0:	02 c0       	rjmp	.+4      	; 0x2b6 <__do_copy_data+0x14>
     2b2:	07 90       	elpm	r0, Z+
     2b4:	0d 92       	st	X+, r0
     2b6:	ae 39       	cpi	r26, 0x9E	; 158
     2b8:	b1 07       	cpc	r27, r17
     2ba:	d9 f7       	brne	.-10     	; 0x2b2 <__do_copy_data+0x10>
     2bc:	1b be       	out	0x3b, r1	; 59

000002be <__do_clear_bss>:
     2be:	21 e2       	ldi	r18, 0x21	; 33
     2c0:	ae e9       	ldi	r26, 0x9E	; 158
     2c2:	b0 e2       	ldi	r27, 0x20	; 32
     2c4:	01 c0       	rjmp	.+2      	; 0x2c8 <.do_clear_bss_start>

000002c6 <.do_clear_bss_loop>:
     2c6:	1d 92       	st	X+, r1

000002c8 <.do_clear_bss_start>:
     2c8:	ac 37       	cpi	r26, 0x7C	; 124
     2ca:	b2 07       	cpc	r27, r18
     2cc:	e1 f7       	brne	.-8      	; 0x2c6 <.do_clear_bss_loop>
     2ce:	0e 94 40 0d 	call	0x1a80	; 0x1a80 <main>
     2d2:	0c 94 5e 22 	jmp	0x44bc	; 0x44bc <_exit>

000002d6 <__bad_interrupt>:
     2d6:	94 ce       	rjmp	.-728    	; 0x0 <__vectors>

000002d8 <_read>:
#elif (defined(__GNUC__) && (XMEGA || MEGA) )

int _read (int *f); // Remove GCC compiler warning

int _read (int *f)
{
     2d8:	cf 93       	push	r28
     2da:	df 93       	push	r29
     2dc:	1f 92       	push	r1
     2de:	cd b7       	in	r28, 0x3d	; 61
     2e0:	de b7       	in	r29, 0x3e	; 62
	char c;
	ptr_get(stdio_base,&c);
     2e2:	80 91 f4 20 	lds	r24, 0x20F4	; 0x8020f4 <stdio_base>
     2e6:	90 91 f5 20 	lds	r25, 0x20F5	; 0x8020f5 <stdio_base+0x1>
     2ea:	e0 91 f0 20 	lds	r30, 0x20F0	; 0x8020f0 <ptr_get>
     2ee:	f0 91 f1 20 	lds	r31, 0x20F1	; 0x8020f1 <ptr_get+0x1>
     2f2:	be 01       	movw	r22, r28
     2f4:	6f 5f       	subi	r22, 0xFF	; 255
     2f6:	7f 4f       	sbci	r23, 0xFF	; 255
     2f8:	19 95       	eicall
	return c;
     2fa:	89 81       	ldd	r24, Y+1	; 0x01
}
     2fc:	08 2e       	mov	r0, r24
     2fe:	00 0c       	add	r0, r0
     300:	99 0b       	sbc	r25, r25
     302:	0f 90       	pop	r0
     304:	df 91       	pop	r29
     306:	cf 91       	pop	r28
     308:	08 95       	ret

0000030a <_write>:
#elif (defined(__GNUC__) && (XMEGA || MEGA))

int _write (char c, int *f);

int _write (char c, int *f)
{
     30a:	68 2f       	mov	r22, r24
	if (ptr_put(stdio_base, c) < 0) {
     30c:	80 91 f4 20 	lds	r24, 0x20F4	; 0x8020f4 <stdio_base>
     310:	90 91 f5 20 	lds	r25, 0x20F5	; 0x8020f5 <stdio_base+0x1>
     314:	e0 91 f2 20 	lds	r30, 0x20F2	; 0x8020f2 <ptr_put>
     318:	f0 91 f3 20 	lds	r31, 0x20F3	; 0x8020f3 <ptr_put+0x1>
     31c:	19 95       	eicall
     31e:	99 23       	and	r25, r25
     320:	1c f0       	brlt	.+6      	; 0x328 <_write+0x1e>
		return -1;
	}
	return 1;
     322:	81 e0       	ldi	r24, 0x01	; 1
     324:	90 e0       	ldi	r25, 0x00	; 0
     326:	08 95       	ret
int _write (char c, int *f);

int _write (char c, int *f)
{
	if (ptr_put(stdio_base, c) < 0) {
		return -1;
     328:	8f ef       	ldi	r24, 0xFF	; 255
     32a:	9f ef       	ldi	r25, 0xFF	; 255
	}
	return 1;
}
     32c:	08 95       	ret

0000032e <__vector_71>:
 *
 * Calls the callback function that has been set for the ADC when the channel's
 * interrupt flag is set, if its interrupt has been enabled.
 */
ISR(ADCA_CH0_vect)
{
     32e:	1f 92       	push	r1
     330:	0f 92       	push	r0
     332:	0f b6       	in	r0, 0x3f	; 63
     334:	0f 92       	push	r0
     336:	11 24       	eor	r1, r1
     338:	08 b6       	in	r0, 0x38	; 56
     33a:	0f 92       	push	r0
     33c:	18 be       	out	0x38, r1	; 56
     33e:	09 b6       	in	r0, 0x39	; 57
     340:	0f 92       	push	r0
     342:	19 be       	out	0x39, r1	; 57
     344:	0b b6       	in	r0, 0x3b	; 59
     346:	0f 92       	push	r0
     348:	1b be       	out	0x3b, r1	; 59
     34a:	2f 93       	push	r18
     34c:	3f 93       	push	r19
     34e:	4f 93       	push	r20
     350:	5f 93       	push	r21
     352:	6f 93       	push	r22
     354:	7f 93       	push	r23
     356:	8f 93       	push	r24
     358:	9f 93       	push	r25
     35a:	af 93       	push	r26
     35c:	bf 93       	push	r27
     35e:	ef 93       	push	r30
     360:	ff 93       	push	r31
	adca_callback(&ADCA, ADC_CH0, adc_get_result(&ADCA, ADC_CH0));
     362:	40 91 24 02 	lds	r20, 0x0224	; 0x800224 <__TEXT_REGION_LENGTH__+0x700224>
     366:	50 91 25 02 	lds	r21, 0x0225	; 0x800225 <__TEXT_REGION_LENGTH__+0x700225>
     36a:	e0 91 f8 20 	lds	r30, 0x20F8	; 0x8020f8 <adca_callback>
     36e:	f0 91 f9 20 	lds	r31, 0x20F9	; 0x8020f9 <adca_callback+0x1>
     372:	61 e0       	ldi	r22, 0x01	; 1
     374:	80 e0       	ldi	r24, 0x00	; 0
     376:	92 e0       	ldi	r25, 0x02	; 2
     378:	19 95       	eicall
}
     37a:	ff 91       	pop	r31
     37c:	ef 91       	pop	r30
     37e:	bf 91       	pop	r27
     380:	af 91       	pop	r26
     382:	9f 91       	pop	r25
     384:	8f 91       	pop	r24
     386:	7f 91       	pop	r23
     388:	6f 91       	pop	r22
     38a:	5f 91       	pop	r21
     38c:	4f 91       	pop	r20
     38e:	3f 91       	pop	r19
     390:	2f 91       	pop	r18
     392:	0f 90       	pop	r0
     394:	0b be       	out	0x3b, r0	; 59
     396:	0f 90       	pop	r0
     398:	09 be       	out	0x39, r0	; 57
     39a:	0f 90       	pop	r0
     39c:	08 be       	out	0x38, r0	; 56
     39e:	0f 90       	pop	r0
     3a0:	0f be       	out	0x3f, r0	; 63
     3a2:	0f 90       	pop	r0
     3a4:	1f 90       	pop	r1
     3a6:	18 95       	reti

000003a8 <__vector_72>:
 *
 * Calls the callback function that has been set for the ADC when the channel's
 * interrupt flag is set, if its interrupt has been enabled.
 */
ISR(ADCA_CH1_vect)
{
     3a8:	1f 92       	push	r1
     3aa:	0f 92       	push	r0
     3ac:	0f b6       	in	r0, 0x3f	; 63
     3ae:	0f 92       	push	r0
     3b0:	11 24       	eor	r1, r1
     3b2:	08 b6       	in	r0, 0x38	; 56
     3b4:	0f 92       	push	r0
     3b6:	18 be       	out	0x38, r1	; 56
     3b8:	09 b6       	in	r0, 0x39	; 57
     3ba:	0f 92       	push	r0
     3bc:	19 be       	out	0x39, r1	; 57
     3be:	0b b6       	in	r0, 0x3b	; 59
     3c0:	0f 92       	push	r0
     3c2:	1b be       	out	0x3b, r1	; 59
     3c4:	2f 93       	push	r18
     3c6:	3f 93       	push	r19
     3c8:	4f 93       	push	r20
     3ca:	5f 93       	push	r21
     3cc:	6f 93       	push	r22
     3ce:	7f 93       	push	r23
     3d0:	8f 93       	push	r24
     3d2:	9f 93       	push	r25
     3d4:	af 93       	push	r26
     3d6:	bf 93       	push	r27
     3d8:	ef 93       	push	r30
     3da:	ff 93       	push	r31
	adca_callback(&ADCA, ADC_CH1, adc_get_result(&ADCA, ADC_CH1));
     3dc:	40 91 2c 02 	lds	r20, 0x022C	; 0x80022c <__TEXT_REGION_LENGTH__+0x70022c>
     3e0:	50 91 2d 02 	lds	r21, 0x022D	; 0x80022d <__TEXT_REGION_LENGTH__+0x70022d>
     3e4:	e0 91 f8 20 	lds	r30, 0x20F8	; 0x8020f8 <adca_callback>
     3e8:	f0 91 f9 20 	lds	r31, 0x20F9	; 0x8020f9 <adca_callback+0x1>
     3ec:	62 e0       	ldi	r22, 0x02	; 2
     3ee:	80 e0       	ldi	r24, 0x00	; 0
     3f0:	92 e0       	ldi	r25, 0x02	; 2
     3f2:	19 95       	eicall
}
     3f4:	ff 91       	pop	r31
     3f6:	ef 91       	pop	r30
     3f8:	bf 91       	pop	r27
     3fa:	af 91       	pop	r26
     3fc:	9f 91       	pop	r25
     3fe:	8f 91       	pop	r24
     400:	7f 91       	pop	r23
     402:	6f 91       	pop	r22
     404:	5f 91       	pop	r21
     406:	4f 91       	pop	r20
     408:	3f 91       	pop	r19
     40a:	2f 91       	pop	r18
     40c:	0f 90       	pop	r0
     40e:	0b be       	out	0x3b, r0	; 59
     410:	0f 90       	pop	r0
     412:	09 be       	out	0x39, r0	; 57
     414:	0f 90       	pop	r0
     416:	08 be       	out	0x38, r0	; 56
     418:	0f 90       	pop	r0
     41a:	0f be       	out	0x3f, r0	; 63
     41c:	0f 90       	pop	r0
     41e:	1f 90       	pop	r1
     420:	18 95       	reti

00000422 <__vector_73>:
 *
 * Calls the callback function that has been set for the ADC when the channel's
 * interrupt flag is set, if its interrupt has been enabled.
 */
ISR(ADCA_CH2_vect)
{
     422:	1f 92       	push	r1
     424:	0f 92       	push	r0
     426:	0f b6       	in	r0, 0x3f	; 63
     428:	0f 92       	push	r0
     42a:	11 24       	eor	r1, r1
     42c:	08 b6       	in	r0, 0x38	; 56
     42e:	0f 92       	push	r0
     430:	18 be       	out	0x38, r1	; 56
     432:	09 b6       	in	r0, 0x39	; 57
     434:	0f 92       	push	r0
     436:	19 be       	out	0x39, r1	; 57
     438:	0b b6       	in	r0, 0x3b	; 59
     43a:	0f 92       	push	r0
     43c:	1b be       	out	0x3b, r1	; 59
     43e:	2f 93       	push	r18
     440:	3f 93       	push	r19
     442:	4f 93       	push	r20
     444:	5f 93       	push	r21
     446:	6f 93       	push	r22
     448:	7f 93       	push	r23
     44a:	8f 93       	push	r24
     44c:	9f 93       	push	r25
     44e:	af 93       	push	r26
     450:	bf 93       	push	r27
     452:	ef 93       	push	r30
     454:	ff 93       	push	r31
	adca_callback(&ADCA, ADC_CH2, adc_get_result(&ADCA, ADC_CH2));
     456:	40 91 34 02 	lds	r20, 0x0234	; 0x800234 <__TEXT_REGION_LENGTH__+0x700234>
     45a:	50 91 35 02 	lds	r21, 0x0235	; 0x800235 <__TEXT_REGION_LENGTH__+0x700235>
     45e:	e0 91 f8 20 	lds	r30, 0x20F8	; 0x8020f8 <adca_callback>
     462:	f0 91 f9 20 	lds	r31, 0x20F9	; 0x8020f9 <adca_callback+0x1>
     466:	64 e0       	ldi	r22, 0x04	; 4
     468:	80 e0       	ldi	r24, 0x00	; 0
     46a:	92 e0       	ldi	r25, 0x02	; 2
     46c:	19 95       	eicall
}
     46e:	ff 91       	pop	r31
     470:	ef 91       	pop	r30
     472:	bf 91       	pop	r27
     474:	af 91       	pop	r26
     476:	9f 91       	pop	r25
     478:	8f 91       	pop	r24
     47a:	7f 91       	pop	r23
     47c:	6f 91       	pop	r22
     47e:	5f 91       	pop	r21
     480:	4f 91       	pop	r20
     482:	3f 91       	pop	r19
     484:	2f 91       	pop	r18
     486:	0f 90       	pop	r0
     488:	0b be       	out	0x3b, r0	; 59
     48a:	0f 90       	pop	r0
     48c:	09 be       	out	0x39, r0	; 57
     48e:	0f 90       	pop	r0
     490:	08 be       	out	0x38, r0	; 56
     492:	0f 90       	pop	r0
     494:	0f be       	out	0x3f, r0	; 63
     496:	0f 90       	pop	r0
     498:	1f 90       	pop	r1
     49a:	18 95       	reti

0000049c <__vector_74>:
 *
 * Calls the callback function that has been set for the ADC when the channel's
 * interrupt flag is set, if its interrupt has been enabled.
 */
ISR(ADCA_CH3_vect)
{
     49c:	1f 92       	push	r1
     49e:	0f 92       	push	r0
     4a0:	0f b6       	in	r0, 0x3f	; 63
     4a2:	0f 92       	push	r0
     4a4:	11 24       	eor	r1, r1
     4a6:	08 b6       	in	r0, 0x38	; 56
     4a8:	0f 92       	push	r0
     4aa:	18 be       	out	0x38, r1	; 56
     4ac:	09 b6       	in	r0, 0x39	; 57
     4ae:	0f 92       	push	r0
     4b0:	19 be       	out	0x39, r1	; 57
     4b2:	0b b6       	in	r0, 0x3b	; 59
     4b4:	0f 92       	push	r0
     4b6:	1b be       	out	0x3b, r1	; 59
     4b8:	2f 93       	push	r18
     4ba:	3f 93       	push	r19
     4bc:	4f 93       	push	r20
     4be:	5f 93       	push	r21
     4c0:	6f 93       	push	r22
     4c2:	7f 93       	push	r23
     4c4:	8f 93       	push	r24
     4c6:	9f 93       	push	r25
     4c8:	af 93       	push	r26
     4ca:	bf 93       	push	r27
     4cc:	ef 93       	push	r30
     4ce:	ff 93       	push	r31
	adca_callback(&ADCA, ADC_CH3, adc_get_result(&ADCA, ADC_CH3));
     4d0:	40 91 3c 02 	lds	r20, 0x023C	; 0x80023c <__TEXT_REGION_LENGTH__+0x70023c>
     4d4:	50 91 3d 02 	lds	r21, 0x023D	; 0x80023d <__TEXT_REGION_LENGTH__+0x70023d>
     4d8:	e0 91 f8 20 	lds	r30, 0x20F8	; 0x8020f8 <adca_callback>
     4dc:	f0 91 f9 20 	lds	r31, 0x20F9	; 0x8020f9 <adca_callback+0x1>
     4e0:	68 e0       	ldi	r22, 0x08	; 8
     4e2:	80 e0       	ldi	r24, 0x00	; 0
     4e4:	92 e0       	ldi	r25, 0x02	; 2
     4e6:	19 95       	eicall
}
     4e8:	ff 91       	pop	r31
     4ea:	ef 91       	pop	r30
     4ec:	bf 91       	pop	r27
     4ee:	af 91       	pop	r26
     4f0:	9f 91       	pop	r25
     4f2:	8f 91       	pop	r24
     4f4:	7f 91       	pop	r23
     4f6:	6f 91       	pop	r22
     4f8:	5f 91       	pop	r21
     4fa:	4f 91       	pop	r20
     4fc:	3f 91       	pop	r19
     4fe:	2f 91       	pop	r18
     500:	0f 90       	pop	r0
     502:	0b be       	out	0x3b, r0	; 59
     504:	0f 90       	pop	r0
     506:	09 be       	out	0x39, r0	; 57
     508:	0f 90       	pop	r0
     50a:	08 be       	out	0x38, r0	; 56
     50c:	0f 90       	pop	r0
     50e:	0f be       	out	0x3f, r0	; 63
     510:	0f 90       	pop	r0
     512:	1f 90       	pop	r1
     514:	18 95       	reti

00000516 <__vector_39>:
 *
 * Calls the callback function that has been set for the ADC when the channel's
 * interrupt flag is set, if its interrupt has been enabled.
 */
ISR(ADCB_CH0_vect)
{
     516:	1f 92       	push	r1
     518:	0f 92       	push	r0
     51a:	0f b6       	in	r0, 0x3f	; 63
     51c:	0f 92       	push	r0
     51e:	11 24       	eor	r1, r1
     520:	08 b6       	in	r0, 0x38	; 56
     522:	0f 92       	push	r0
     524:	18 be       	out	0x38, r1	; 56
     526:	09 b6       	in	r0, 0x39	; 57
     528:	0f 92       	push	r0
     52a:	19 be       	out	0x39, r1	; 57
     52c:	0b b6       	in	r0, 0x3b	; 59
     52e:	0f 92       	push	r0
     530:	1b be       	out	0x3b, r1	; 59
     532:	2f 93       	push	r18
     534:	3f 93       	push	r19
     536:	4f 93       	push	r20
     538:	5f 93       	push	r21
     53a:	6f 93       	push	r22
     53c:	7f 93       	push	r23
     53e:	8f 93       	push	r24
     540:	9f 93       	push	r25
     542:	af 93       	push	r26
     544:	bf 93       	push	r27
     546:	ef 93       	push	r30
     548:	ff 93       	push	r31
	adcb_callback(&ADCB, ADC_CH0, adc_get_result(&ADCB, ADC_CH0));
     54a:	40 91 64 02 	lds	r20, 0x0264	; 0x800264 <__TEXT_REGION_LENGTH__+0x700264>
     54e:	50 91 65 02 	lds	r21, 0x0265	; 0x800265 <__TEXT_REGION_LENGTH__+0x700265>
     552:	e0 91 f6 20 	lds	r30, 0x20F6	; 0x8020f6 <adcb_callback>
     556:	f0 91 f7 20 	lds	r31, 0x20F7	; 0x8020f7 <adcb_callback+0x1>
     55a:	61 e0       	ldi	r22, 0x01	; 1
     55c:	80 e4       	ldi	r24, 0x40	; 64
     55e:	92 e0       	ldi	r25, 0x02	; 2
     560:	19 95       	eicall
}
     562:	ff 91       	pop	r31
     564:	ef 91       	pop	r30
     566:	bf 91       	pop	r27
     568:	af 91       	pop	r26
     56a:	9f 91       	pop	r25
     56c:	8f 91       	pop	r24
     56e:	7f 91       	pop	r23
     570:	6f 91       	pop	r22
     572:	5f 91       	pop	r21
     574:	4f 91       	pop	r20
     576:	3f 91       	pop	r19
     578:	2f 91       	pop	r18
     57a:	0f 90       	pop	r0
     57c:	0b be       	out	0x3b, r0	; 59
     57e:	0f 90       	pop	r0
     580:	09 be       	out	0x39, r0	; 57
     582:	0f 90       	pop	r0
     584:	08 be       	out	0x38, r0	; 56
     586:	0f 90       	pop	r0
     588:	0f be       	out	0x3f, r0	; 63
     58a:	0f 90       	pop	r0
     58c:	1f 90       	pop	r1
     58e:	18 95       	reti

00000590 <__vector_40>:
 *
 * Calls the callback function that has been set for the ADC when the channel's
 * interrupt flag is set, if its interrupt has been enabled.
 */
ISR(ADCB_CH1_vect)
{
     590:	1f 92       	push	r1
     592:	0f 92       	push	r0
     594:	0f b6       	in	r0, 0x3f	; 63
     596:	0f 92       	push	r0
     598:	11 24       	eor	r1, r1
     59a:	08 b6       	in	r0, 0x38	; 56
     59c:	0f 92       	push	r0
     59e:	18 be       	out	0x38, r1	; 56
     5a0:	09 b6       	in	r0, 0x39	; 57
     5a2:	0f 92       	push	r0
     5a4:	19 be       	out	0x39, r1	; 57
     5a6:	0b b6       	in	r0, 0x3b	; 59
     5a8:	0f 92       	push	r0
     5aa:	1b be       	out	0x3b, r1	; 59
     5ac:	2f 93       	push	r18
     5ae:	3f 93       	push	r19
     5b0:	4f 93       	push	r20
     5b2:	5f 93       	push	r21
     5b4:	6f 93       	push	r22
     5b6:	7f 93       	push	r23
     5b8:	8f 93       	push	r24
     5ba:	9f 93       	push	r25
     5bc:	af 93       	push	r26
     5be:	bf 93       	push	r27
     5c0:	ef 93       	push	r30
     5c2:	ff 93       	push	r31
	adcb_callback(&ADCB, ADC_CH1, adc_get_result(&ADCB, ADC_CH1));
     5c4:	40 91 6c 02 	lds	r20, 0x026C	; 0x80026c <__TEXT_REGION_LENGTH__+0x70026c>
     5c8:	50 91 6d 02 	lds	r21, 0x026D	; 0x80026d <__TEXT_REGION_LENGTH__+0x70026d>
     5cc:	e0 91 f6 20 	lds	r30, 0x20F6	; 0x8020f6 <adcb_callback>
     5d0:	f0 91 f7 20 	lds	r31, 0x20F7	; 0x8020f7 <adcb_callback+0x1>
     5d4:	62 e0       	ldi	r22, 0x02	; 2
     5d6:	80 e4       	ldi	r24, 0x40	; 64
     5d8:	92 e0       	ldi	r25, 0x02	; 2
     5da:	19 95       	eicall
}
     5dc:	ff 91       	pop	r31
     5de:	ef 91       	pop	r30
     5e0:	bf 91       	pop	r27
     5e2:	af 91       	pop	r26
     5e4:	9f 91       	pop	r25
     5e6:	8f 91       	pop	r24
     5e8:	7f 91       	pop	r23
     5ea:	6f 91       	pop	r22
     5ec:	5f 91       	pop	r21
     5ee:	4f 91       	pop	r20
     5f0:	3f 91       	pop	r19
     5f2:	2f 91       	pop	r18
     5f4:	0f 90       	pop	r0
     5f6:	0b be       	out	0x3b, r0	; 59
     5f8:	0f 90       	pop	r0
     5fa:	09 be       	out	0x39, r0	; 57
     5fc:	0f 90       	pop	r0
     5fe:	08 be       	out	0x38, r0	; 56
     600:	0f 90       	pop	r0
     602:	0f be       	out	0x3f, r0	; 63
     604:	0f 90       	pop	r0
     606:	1f 90       	pop	r1
     608:	18 95       	reti

0000060a <__vector_41>:
 *
 * Calls the callback function that has been set for the ADC when the channel's
 * interrupt flag is set, if its interrupt has been enabled.
 */
ISR(ADCB_CH2_vect)
{
     60a:	1f 92       	push	r1
     60c:	0f 92       	push	r0
     60e:	0f b6       	in	r0, 0x3f	; 63
     610:	0f 92       	push	r0
     612:	11 24       	eor	r1, r1
     614:	08 b6       	in	r0, 0x38	; 56
     616:	0f 92       	push	r0
     618:	18 be       	out	0x38, r1	; 56
     61a:	09 b6       	in	r0, 0x39	; 57
     61c:	0f 92       	push	r0
     61e:	19 be       	out	0x39, r1	; 57
     620:	0b b6       	in	r0, 0x3b	; 59
     622:	0f 92       	push	r0
     624:	1b be       	out	0x3b, r1	; 59
     626:	2f 93       	push	r18
     628:	3f 93       	push	r19
     62a:	4f 93       	push	r20
     62c:	5f 93       	push	r21
     62e:	6f 93       	push	r22
     630:	7f 93       	push	r23
     632:	8f 93       	push	r24
     634:	9f 93       	push	r25
     636:	af 93       	push	r26
     638:	bf 93       	push	r27
     63a:	ef 93       	push	r30
     63c:	ff 93       	push	r31
	adcb_callback(&ADCB, ADC_CH2, adc_get_result(&ADCB, ADC_CH2));
     63e:	40 91 74 02 	lds	r20, 0x0274	; 0x800274 <__TEXT_REGION_LENGTH__+0x700274>
     642:	50 91 75 02 	lds	r21, 0x0275	; 0x800275 <__TEXT_REGION_LENGTH__+0x700275>
     646:	e0 91 f6 20 	lds	r30, 0x20F6	; 0x8020f6 <adcb_callback>
     64a:	f0 91 f7 20 	lds	r31, 0x20F7	; 0x8020f7 <adcb_callback+0x1>
     64e:	64 e0       	ldi	r22, 0x04	; 4
     650:	80 e4       	ldi	r24, 0x40	; 64
     652:	92 e0       	ldi	r25, 0x02	; 2
     654:	19 95       	eicall
}
     656:	ff 91       	pop	r31
     658:	ef 91       	pop	r30
     65a:	bf 91       	pop	r27
     65c:	af 91       	pop	r26
     65e:	9f 91       	pop	r25
     660:	8f 91       	pop	r24
     662:	7f 91       	pop	r23
     664:	6f 91       	pop	r22
     666:	5f 91       	pop	r21
     668:	4f 91       	pop	r20
     66a:	3f 91       	pop	r19
     66c:	2f 91       	pop	r18
     66e:	0f 90       	pop	r0
     670:	0b be       	out	0x3b, r0	; 59
     672:	0f 90       	pop	r0
     674:	09 be       	out	0x39, r0	; 57
     676:	0f 90       	pop	r0
     678:	08 be       	out	0x38, r0	; 56
     67a:	0f 90       	pop	r0
     67c:	0f be       	out	0x3f, r0	; 63
     67e:	0f 90       	pop	r0
     680:	1f 90       	pop	r1
     682:	18 95       	reti

00000684 <__vector_42>:
 *
 * Calls the callback function that has been set for the ADC when the channel's
 * interrupt flag is set, if its interrupt has been enabled.
 */
ISR(ADCB_CH3_vect)
{
     684:	1f 92       	push	r1
     686:	0f 92       	push	r0
     688:	0f b6       	in	r0, 0x3f	; 63
     68a:	0f 92       	push	r0
     68c:	11 24       	eor	r1, r1
     68e:	08 b6       	in	r0, 0x38	; 56
     690:	0f 92       	push	r0
     692:	18 be       	out	0x38, r1	; 56
     694:	09 b6       	in	r0, 0x39	; 57
     696:	0f 92       	push	r0
     698:	19 be       	out	0x39, r1	; 57
     69a:	0b b6       	in	r0, 0x3b	; 59
     69c:	0f 92       	push	r0
     69e:	1b be       	out	0x3b, r1	; 59
     6a0:	2f 93       	push	r18
     6a2:	3f 93       	push	r19
     6a4:	4f 93       	push	r20
     6a6:	5f 93       	push	r21
     6a8:	6f 93       	push	r22
     6aa:	7f 93       	push	r23
     6ac:	8f 93       	push	r24
     6ae:	9f 93       	push	r25
     6b0:	af 93       	push	r26
     6b2:	bf 93       	push	r27
     6b4:	ef 93       	push	r30
     6b6:	ff 93       	push	r31
	adcb_callback(&ADCB, ADC_CH3, adc_get_result(&ADCB, ADC_CH3));
     6b8:	40 91 7c 02 	lds	r20, 0x027C	; 0x80027c <__TEXT_REGION_LENGTH__+0x70027c>
     6bc:	50 91 7d 02 	lds	r21, 0x027D	; 0x80027d <__TEXT_REGION_LENGTH__+0x70027d>
     6c0:	e0 91 f6 20 	lds	r30, 0x20F6	; 0x8020f6 <adcb_callback>
     6c4:	f0 91 f7 20 	lds	r31, 0x20F7	; 0x8020f7 <adcb_callback+0x1>
     6c8:	68 e0       	ldi	r22, 0x08	; 8
     6ca:	80 e4       	ldi	r24, 0x40	; 64
     6cc:	92 e0       	ldi	r25, 0x02	; 2
     6ce:	19 95       	eicall
}
     6d0:	ff 91       	pop	r31
     6d2:	ef 91       	pop	r30
     6d4:	bf 91       	pop	r27
     6d6:	af 91       	pop	r26
     6d8:	9f 91       	pop	r25
     6da:	8f 91       	pop	r24
     6dc:	7f 91       	pop	r23
     6de:	6f 91       	pop	r22
     6e0:	5f 91       	pop	r21
     6e2:	4f 91       	pop	r20
     6e4:	3f 91       	pop	r19
     6e6:	2f 91       	pop	r18
     6e8:	0f 90       	pop	r0
     6ea:	0b be       	out	0x3b, r0	; 59
     6ec:	0f 90       	pop	r0
     6ee:	09 be       	out	0x39, r0	; 57
     6f0:	0f 90       	pop	r0
     6f2:	08 be       	out	0x38, r0	; 56
     6f4:	0f 90       	pop	r0
     6f6:	0f be       	out	0x3f, r0	; 63
     6f8:	0f 90       	pop	r0
     6fa:	1f 90       	pop	r1
     6fc:	18 95       	reti

000006fe <usart_putchar>:

	if (baud_offset != USART_BAUD_UNDEFINED) {
		(usart)->BAUDCTRLB = (uint8_t)((uint16_t)baudctrl);
		(usart)->BAUDCTRLA = (uint8_t)((uint16_t)baudctrl >> 8);
	}
}
     6fe:	fc 01       	movw	r30, r24
     700:	91 81       	ldd	r25, Z+1	; 0x01
     702:	95 ff       	sbrs	r25, 5
     704:	fd cf       	rjmp	.-6      	; 0x700 <usart_putchar+0x2>
     706:	60 83       	st	Z, r22
     708:	80 e0       	ldi	r24, 0x00	; 0
     70a:	90 e0       	ldi	r25, 0x00	; 0
     70c:	08 95       	ret

0000070e <usart_getchar>:
     70e:	fc 01       	movw	r30, r24
     710:	91 81       	ldd	r25, Z+1	; 0x01
     712:	99 23       	and	r25, r25
     714:	ec f7       	brge	.-6      	; 0x710 <usart_getchar+0x2>
     716:	80 81       	ld	r24, Z
     718:	08 95       	ret

0000071a <usart_set_baudrate>:
 * \retval true if the hardware supports the baud rate
 * \retval false if the hardware does not support the baud rate (i.e. it's
 *               either too high or too low.)
 */
bool usart_set_baudrate(USART_t *usart, uint32_t baud, uint32_t cpu_hz)
{
     71a:	4f 92       	push	r4
     71c:	5f 92       	push	r5
     71e:	6f 92       	push	r6
     720:	7f 92       	push	r7
     722:	8f 92       	push	r8
     724:	9f 92       	push	r9
     726:	af 92       	push	r10
     728:	bf 92       	push	r11
     72a:	ef 92       	push	r14
     72c:	ff 92       	push	r15
     72e:	0f 93       	push	r16
     730:	1f 93       	push	r17
     732:	cf 93       	push	r28
     734:	7c 01       	movw	r14, r24
     736:	4a 01       	movw	r8, r20
     738:	5b 01       	movw	r10, r22
     73a:	28 01       	movw	r4, r16
     73c:	39 01       	movw	r6, r18
	/* 8 = (2^0) * 8 * (2^0) = (2^BSCALE_MIN) * 8 * (BSEL_MIN) */
	max_rate = cpu_hz / 8;
	/* 4194304 = (2^7) * 8 * (2^12) = (2^BSCALE_MAX) * 8 * (BSEL_MAX+1) */
	min_rate = cpu_hz / 4194304;

	if (!((usart)->CTRLB & USART_CLK2X_bm)) {
     73e:	fc 01       	movw	r30, r24
     740:	84 81       	ldd	r24, Z+4	; 0x04
     742:	82 ff       	sbrs	r24, 2
     744:	16 c0       	rjmp	.+44     	; 0x772 <usart_set_baudrate+0x58>

	/*
	 * Check if the hardware supports the given baud rate
	 */
	/* 8 = (2^0) * 8 * (2^0) = (2^BSCALE_MIN) * 8 * (BSEL_MIN) */
	max_rate = cpu_hz / 8;
     746:	d9 01       	movw	r26, r18
     748:	c8 01       	movw	r24, r16
     74a:	68 94       	set
     74c:	12 f8       	bld	r1, 2
     74e:	b6 95       	lsr	r27
     750:	a7 95       	ror	r26
     752:	97 95       	ror	r25
     754:	87 95       	ror	r24
     756:	16 94       	lsr	r1
     758:	d1 f7       	brne	.-12     	; 0x74e <usart_set_baudrate+0x34>
	/* 4194304 = (2^7) * 8 * (2^12) = (2^BSCALE_MAX) * 8 * (BSEL_MAX+1) */
	min_rate = cpu_hz / 4194304;
     75a:	b9 01       	movw	r22, r18
     75c:	a8 01       	movw	r20, r16
     75e:	03 2e       	mov	r0, r19
     760:	36 e1       	ldi	r19, 0x16	; 22
     762:	76 95       	lsr	r23
     764:	67 95       	ror	r22
     766:	57 95       	ror	r21
     768:	47 95       	ror	r20
     76a:	3a 95       	dec	r19
     76c:	d1 f7       	brne	.-12     	; 0x762 <usart_set_baudrate+0x48>
     76e:	30 2d       	mov	r19, r0
     770:	15 c0       	rjmp	.+42     	; 0x79c <usart_set_baudrate+0x82>

	if (!((usart)->CTRLB & USART_CLK2X_bm)) {
		max_rate /= 2;
     772:	d9 01       	movw	r26, r18
     774:	c8 01       	movw	r24, r16
     776:	68 94       	set
     778:	13 f8       	bld	r1, 3
     77a:	b6 95       	lsr	r27
     77c:	a7 95       	ror	r26
     77e:	97 95       	ror	r25
     780:	87 95       	ror	r24
     782:	16 94       	lsr	r1
     784:	d1 f7       	brne	.-12     	; 0x77a <usart_set_baudrate+0x60>
		min_rate /= 2;
     786:	b9 01       	movw	r22, r18
     788:	a8 01       	movw	r20, r16
     78a:	03 2e       	mov	r0, r19
     78c:	37 e1       	ldi	r19, 0x17	; 23
     78e:	76 95       	lsr	r23
     790:	67 95       	ror	r22
     792:	57 95       	ror	r21
     794:	47 95       	ror	r20
     796:	3a 95       	dec	r19
     798:	d1 f7       	brne	.-12     	; 0x78e <usart_set_baudrate+0x74>
     79a:	30 2d       	mov	r19, r0
	}

	if ((baud > max_rate) || (baud < min_rate)) {
     79c:	88 15       	cp	r24, r8
     79e:	99 05       	cpc	r25, r9
     7a0:	aa 05       	cpc	r26, r10
     7a2:	bb 05       	cpc	r27, r11
     7a4:	08 f4       	brcc	.+2      	; 0x7a8 <usart_set_baudrate+0x8e>
     7a6:	a6 c0       	rjmp	.+332    	; 0x8f4 <usart_set_baudrate+0x1da>
     7a8:	84 16       	cp	r8, r20
     7aa:	95 06       	cpc	r9, r21
     7ac:	a6 06       	cpc	r10, r22
     7ae:	b7 06       	cpc	r11, r23
     7b0:	08 f4       	brcc	.+2      	; 0x7b4 <usart_set_baudrate+0x9a>
     7b2:	a2 c0       	rjmp	.+324    	; 0x8f8 <usart_set_baudrate+0x1de>
		return false;
	}

	/* Check if double speed is enabled. */
	if (!((usart)->CTRLB & USART_CLK2X_bm)) {
     7b4:	f7 01       	movw	r30, r14
     7b6:	84 81       	ldd	r24, Z+4	; 0x04
     7b8:	82 fd       	sbrc	r24, 2
     7ba:	04 c0       	rjmp	.+8      	; 0x7c4 <usart_set_baudrate+0xaa>
		baud *= 2;
     7bc:	88 0c       	add	r8, r8
     7be:	99 1c       	adc	r9, r9
     7c0:	aa 1c       	adc	r10, r10
     7c2:	bb 1c       	adc	r11, r11
	}

	/* Find the lowest possible exponent. */
	limit = 0xfffU >> 4;
	ratio = cpu_hz / baud;
     7c4:	c3 01       	movw	r24, r6
     7c6:	b2 01       	movw	r22, r4
     7c8:	a5 01       	movw	r20, r10
     7ca:	94 01       	movw	r18, r8
     7cc:	0e 94 48 1a 	call	0x3490	; 0x3490 <__udivmodsi4>

	for (exp = -7; exp < 7; exp++) {
		if (ratio < limit) {
     7d0:	2f 3f       	cpi	r18, 0xFF	; 255
     7d2:	31 05       	cpc	r19, r1
     7d4:	41 05       	cpc	r20, r1
     7d6:	51 05       	cpc	r21, r1
     7d8:	08 f4       	brcc	.+2      	; 0x7dc <usart_set_baudrate+0xc2>
     7da:	90 c0       	rjmp	.+288    	; 0x8fc <usart_set_baudrate+0x1e2>
     7dc:	8f ef       	ldi	r24, 0xFF	; 255
     7de:	90 e0       	ldi	r25, 0x00	; 0
     7e0:	a0 e0       	ldi	r26, 0x00	; 0
     7e2:	b0 e0       	ldi	r27, 0x00	; 0
     7e4:	c9 ef       	ldi	r28, 0xF9	; 249
     7e6:	05 c0       	rjmp	.+10     	; 0x7f2 <usart_set_baudrate+0xd8>
     7e8:	28 17       	cp	r18, r24
     7ea:	39 07       	cpc	r19, r25
     7ec:	4a 07       	cpc	r20, r26
     7ee:	5b 07       	cpc	r21, r27
     7f0:	58 f0       	brcs	.+22     	; 0x808 <usart_set_baudrate+0xee>
			break;
		}

		limit <<= 1;
     7f2:	88 0f       	add	r24, r24
     7f4:	99 1f       	adc	r25, r25
     7f6:	aa 1f       	adc	r26, r26
     7f8:	bb 1f       	adc	r27, r27

		if (exp < -3) {
     7fa:	cd 3f       	cpi	r28, 0xFD	; 253
     7fc:	0c f4       	brge	.+2      	; 0x800 <usart_set_baudrate+0xe6>
			limit |= 1;
     7fe:	81 60       	ori	r24, 0x01	; 1
     800:	cf 5f       	subi	r28, 0xFF	; 255

	/* Find the lowest possible exponent. */
	limit = 0xfffU >> 4;
	ratio = cpu_hz / baud;

	for (exp = -7; exp < 7; exp++) {
     802:	c7 30       	cpi	r28, 0x07	; 7
     804:	89 f7       	brne	.-30     	; 0x7e8 <usart_set_baudrate+0xce>
     806:	4f c0       	rjmp	.+158    	; 0x8a6 <usart_set_baudrate+0x18c>
	 * point.
	 *
	 * The formula for calculating BSEL is slightly different when exp is
	 * negative than it is when exp is positive.
	 */
	if (exp < 0) {
     808:	cc 23       	and	r28, r28
     80a:	0c f0       	brlt	.+2      	; 0x80e <usart_set_baudrate+0xf4>
     80c:	4c c0       	rjmp	.+152    	; 0x8a6 <usart_set_baudrate+0x18c>
		/* We are supposed to subtract 1, then apply BSCALE. We want to
		 * apply BSCALE first, so we need to turn everything inside the
		 * parenthesis into a single fractional expression.
		 */
		cpu_hz -= 8 * baud;
     80e:	d5 01       	movw	r26, r10
     810:	c4 01       	movw	r24, r8
     812:	88 0f       	add	r24, r24
     814:	99 1f       	adc	r25, r25
     816:	aa 1f       	adc	r26, r26
     818:	bb 1f       	adc	r27, r27
     81a:	88 0f       	add	r24, r24
     81c:	99 1f       	adc	r25, r25
     81e:	aa 1f       	adc	r26, r26
     820:	bb 1f       	adc	r27, r27
     822:	88 0f       	add	r24, r24
     824:	99 1f       	adc	r25, r25
     826:	aa 1f       	adc	r26, r26
     828:	bb 1f       	adc	r27, r27
     82a:	48 1a       	sub	r4, r24
     82c:	59 0a       	sbc	r5, r25
     82e:	6a 0a       	sbc	r6, r26
     830:	7b 0a       	sbc	r7, r27
		/* If we end up with a left-shift after taking the final
		 * divide-by-8 into account, do the shift before the divide.
		 * Otherwise, left-shift the denominator instead (effectively
		 * resulting in an overall right shift.)
		 */
		if (exp <= -3) {
     832:	ce 3f       	cpi	r28, 0xFE	; 254
     834:	f4 f4       	brge	.+60     	; 0x872 <usart_set_baudrate+0x158>
			div = ((cpu_hz << (-exp - 3)) + baud / 2) / baud;
     836:	8d ef       	ldi	r24, 0xFD	; 253
     838:	9f ef       	ldi	r25, 0xFF	; 255
     83a:	8c 1b       	sub	r24, r28
     83c:	91 09       	sbc	r25, r1
     83e:	c7 fd       	sbrc	r28, 7
     840:	93 95       	inc	r25
     842:	04 c0       	rjmp	.+8      	; 0x84c <usart_set_baudrate+0x132>
     844:	44 0c       	add	r4, r4
     846:	55 1c       	adc	r5, r5
     848:	66 1c       	adc	r6, r6
     84a:	77 1c       	adc	r7, r7
     84c:	8a 95       	dec	r24
     84e:	d2 f7       	brpl	.-12     	; 0x844 <usart_set_baudrate+0x12a>
     850:	d5 01       	movw	r26, r10
     852:	c4 01       	movw	r24, r8
     854:	b6 95       	lsr	r27
     856:	a7 95       	ror	r26
     858:	97 95       	ror	r25
     85a:	87 95       	ror	r24
     85c:	bc 01       	movw	r22, r24
     85e:	cd 01       	movw	r24, r26
     860:	64 0d       	add	r22, r4
     862:	75 1d       	adc	r23, r5
     864:	86 1d       	adc	r24, r6
     866:	97 1d       	adc	r25, r7
     868:	a5 01       	movw	r20, r10
     86a:	94 01       	movw	r18, r8
     86c:	0e 94 48 1a 	call	0x3490	; 0x3490 <__udivmodsi4>
     870:	37 c0       	rjmp	.+110    	; 0x8e0 <usart_set_baudrate+0x1c6>
		} else {
			baud <<= exp + 3;
     872:	83 e0       	ldi	r24, 0x03	; 3
     874:	8c 0f       	add	r24, r28
     876:	a5 01       	movw	r20, r10
     878:	94 01       	movw	r18, r8
     87a:	04 c0       	rjmp	.+8      	; 0x884 <usart_set_baudrate+0x16a>
     87c:	22 0f       	add	r18, r18
     87e:	33 1f       	adc	r19, r19
     880:	44 1f       	adc	r20, r20
     882:	55 1f       	adc	r21, r21
     884:	8a 95       	dec	r24
     886:	d2 f7       	brpl	.-12     	; 0x87c <usart_set_baudrate+0x162>
			div = (cpu_hz + baud / 2) / baud;
     888:	da 01       	movw	r26, r20
     88a:	c9 01       	movw	r24, r18
     88c:	b6 95       	lsr	r27
     88e:	a7 95       	ror	r26
     890:	97 95       	ror	r25
     892:	87 95       	ror	r24
     894:	bc 01       	movw	r22, r24
     896:	cd 01       	movw	r24, r26
     898:	64 0d       	add	r22, r4
     89a:	75 1d       	adc	r23, r5
     89c:	86 1d       	adc	r24, r6
     89e:	97 1d       	adc	r25, r7
     8a0:	0e 94 48 1a 	call	0x3490	; 0x3490 <__udivmodsi4>
     8a4:	1d c0       	rjmp	.+58     	; 0x8e0 <usart_set_baudrate+0x1c6>
		}
	} else {
		/* We will always do a right shift in this case, but we need to
		 * shift three extra positions because of the divide-by-8.
		 */
		baud <<= exp + 3;
     8a6:	83 e0       	ldi	r24, 0x03	; 3
     8a8:	8c 0f       	add	r24, r28
     8aa:	a5 01       	movw	r20, r10
     8ac:	94 01       	movw	r18, r8
     8ae:	04 c0       	rjmp	.+8      	; 0x8b8 <usart_set_baudrate+0x19e>
     8b0:	22 0f       	add	r18, r18
     8b2:	33 1f       	adc	r19, r19
     8b4:	44 1f       	adc	r20, r20
     8b6:	55 1f       	adc	r21, r21
     8b8:	8a 95       	dec	r24
     8ba:	d2 f7       	brpl	.-12     	; 0x8b0 <usart_set_baudrate+0x196>
		div = (cpu_hz + baud / 2) / baud - 1;
     8bc:	da 01       	movw	r26, r20
     8be:	c9 01       	movw	r24, r18
     8c0:	b6 95       	lsr	r27
     8c2:	a7 95       	ror	r26
     8c4:	97 95       	ror	r25
     8c6:	87 95       	ror	r24
     8c8:	bc 01       	movw	r22, r24
     8ca:	cd 01       	movw	r24, r26
     8cc:	64 0d       	add	r22, r4
     8ce:	75 1d       	adc	r23, r5
     8d0:	86 1d       	adc	r24, r6
     8d2:	97 1d       	adc	r25, r7
     8d4:	0e 94 48 1a 	call	0x3490	; 0x3490 <__udivmodsi4>
     8d8:	21 50       	subi	r18, 0x01	; 1
     8da:	31 09       	sbc	r19, r1
     8dc:	41 09       	sbc	r20, r1
     8de:	51 09       	sbc	r21, r1
	}

	(usart)->BAUDCTRLB = (uint8_t)(((div >> 8) & 0X0F) | (exp << 4));
     8e0:	83 2f       	mov	r24, r19
     8e2:	8f 70       	andi	r24, 0x0F	; 15
     8e4:	c2 95       	swap	r28
     8e6:	c0 7f       	andi	r28, 0xF0	; 240
     8e8:	c8 2b       	or	r28, r24
     8ea:	f7 01       	movw	r30, r14
     8ec:	c7 83       	std	Z+7, r28	; 0x07
	(usart)->BAUDCTRLA = (uint8_t)div;
     8ee:	26 83       	std	Z+6, r18	; 0x06

	return true;
     8f0:	81 e0       	ldi	r24, 0x01	; 1
     8f2:	18 c0       	rjmp	.+48     	; 0x924 <usart_set_baudrate+0x20a>
		max_rate /= 2;
		min_rate /= 2;
	}

	if ((baud > max_rate) || (baud < min_rate)) {
		return false;
     8f4:	80 e0       	ldi	r24, 0x00	; 0
     8f6:	16 c0       	rjmp	.+44     	; 0x924 <usart_set_baudrate+0x20a>
     8f8:	80 e0       	ldi	r24, 0x00	; 0
     8fa:	14 c0       	rjmp	.+40     	; 0x924 <usart_set_baudrate+0x20a>
	if (exp < 0) {
		/* We are supposed to subtract 1, then apply BSCALE. We want to
		 * apply BSCALE first, so we need to turn everything inside the
		 * parenthesis into a single fractional expression.
		 */
		cpu_hz -= 8 * baud;
     8fc:	d5 01       	movw	r26, r10
     8fe:	c4 01       	movw	r24, r8
     900:	88 0f       	add	r24, r24
     902:	99 1f       	adc	r25, r25
     904:	aa 1f       	adc	r26, r26
     906:	bb 1f       	adc	r27, r27
     908:	88 0f       	add	r24, r24
     90a:	99 1f       	adc	r25, r25
     90c:	aa 1f       	adc	r26, r26
     90e:	bb 1f       	adc	r27, r27
     910:	88 0f       	add	r24, r24
     912:	99 1f       	adc	r25, r25
     914:	aa 1f       	adc	r26, r26
     916:	bb 1f       	adc	r27, r27
     918:	48 1a       	sub	r4, r24
     91a:	59 0a       	sbc	r5, r25
     91c:	6a 0a       	sbc	r6, r26
     91e:	7b 0a       	sbc	r7, r27

	/* Find the lowest possible exponent. */
	limit = 0xfffU >> 4;
	ratio = cpu_hz / baud;

	for (exp = -7; exp < 7; exp++) {
     920:	c9 ef       	ldi	r28, 0xF9	; 249
     922:	89 cf       	rjmp	.-238    	; 0x836 <usart_set_baudrate+0x11c>

	(usart)->BAUDCTRLB = (uint8_t)(((div >> 8) & 0X0F) | (exp << 4));
	(usart)->BAUDCTRLA = (uint8_t)div;

	return true;
}
     924:	cf 91       	pop	r28
     926:	1f 91       	pop	r17
     928:	0f 91       	pop	r16
     92a:	ff 90       	pop	r15
     92c:	ef 90       	pop	r14
     92e:	bf 90       	pop	r11
     930:	af 90       	pop	r10
     932:	9f 90       	pop	r9
     934:	8f 90       	pop	r8
     936:	7f 90       	pop	r7
     938:	6f 90       	pop	r6
     93a:	5f 90       	pop	r5
     93c:	4f 90       	pop	r4
     93e:	08 95       	ret

00000940 <usart_init_rs232>:
 *
 * \retval true if the initialization was successfull
 * \retval false if the initialization failed (error in baud rate calculation)
 */
bool usart_init_rs232(USART_t *usart, const usart_rs232_options_t *opt)
{
     940:	0f 93       	push	r16
     942:	1f 93       	push	r17
     944:	cf 93       	push	r28
     946:	df 93       	push	r29
     948:	ec 01       	movw	r28, r24
     94a:	8b 01       	movw	r16, r22
 *
 * \param module Pointer to the module's base address.
 */
static inline void sysclk_enable_peripheral_clock(const volatile void *module)
{
	if (module == NULL) {
     94c:	00 97       	sbiw	r24, 0x00	; 0
     94e:	09 f4       	brne	.+2      	; 0x952 <usart_init_rs232+0x12>
     950:	36 c1       	rjmp	.+620    	; 0xbbe <usart_init_rs232+0x27e>
		Assert(false);
	}
#ifdef AES
	else if (module == &AES) {
     952:	80 3c       	cpi	r24, 0xC0	; 192
     954:	91 05       	cpc	r25, r1
     956:	21 f4       	brne	.+8      	; 0x960 <usart_init_rs232+0x20>
		sysclk_enable_module(SYSCLK_PORT_GEN, SYSCLK_AES);
     958:	60 e1       	ldi	r22, 0x10	; 16
     95a:	80 e0       	ldi	r24, 0x00	; 0
     95c:	c2 d3       	rcall	.+1924   	; 0x10e2 <sysclk_enable_module>
     95e:	2f c1       	rjmp	.+606    	; 0xbbe <usart_init_rs232+0x27e>
	}
#endif
#ifdef EBI
	else if (module == &EBI) {
     960:	c0 34       	cpi	r28, 0x40	; 64
     962:	84 e0       	ldi	r24, 0x04	; 4
     964:	d8 07       	cpc	r29, r24
     966:	21 f4       	brne	.+8      	; 0x970 <usart_init_rs232+0x30>
		sysclk_enable_module(SYSCLK_PORT_GEN, SYSCLK_EBI);
     968:	68 e0       	ldi	r22, 0x08	; 8
     96a:	80 e0       	ldi	r24, 0x00	; 0
     96c:	ba d3       	rcall	.+1908   	; 0x10e2 <sysclk_enable_module>
     96e:	27 c1       	rjmp	.+590    	; 0xbbe <usart_init_rs232+0x27e>
	}
#endif
#ifdef RTC
	else if (module == &RTC) {
     970:	c1 15       	cp	r28, r1
     972:	e4 e0       	ldi	r30, 0x04	; 4
     974:	de 07       	cpc	r29, r30
     976:	21 f4       	brne	.+8      	; 0x980 <usart_init_rs232+0x40>
		sysclk_enable_module(SYSCLK_PORT_GEN, SYSCLK_RTC);
     978:	64 e0       	ldi	r22, 0x04	; 4
     97a:	80 e0       	ldi	r24, 0x00	; 0
     97c:	b2 d3       	rcall	.+1892   	; 0x10e2 <sysclk_enable_module>
     97e:	1f c1       	rjmp	.+574    	; 0xbbe <usart_init_rs232+0x27e>
	}
#endif
#ifdef EVSYS
	else if (module == &EVSYS) {
     980:	c0 38       	cpi	r28, 0x80	; 128
     982:	f1 e0       	ldi	r31, 0x01	; 1
     984:	df 07       	cpc	r29, r31
		sysclk_enable_module(SYSCLK_PORT_GEN, SYSCLK_EVSYS);
     986:	21 f4       	brne	.+8      	; 0x990 <usart_init_rs232+0x50>
     988:	62 e0       	ldi	r22, 0x02	; 2
     98a:	80 e0       	ldi	r24, 0x00	; 0
     98c:	aa d3       	rcall	.+1876   	; 0x10e2 <sysclk_enable_module>
     98e:	17 c1       	rjmp	.+558    	; 0xbbe <usart_init_rs232+0x27e>
	}
#endif
#ifdef DMA
	else if (module == &DMA) {
     990:	c1 15       	cp	r28, r1
     992:	81 e0       	ldi	r24, 0x01	; 1
     994:	d8 07       	cpc	r29, r24
		sysclk_enable_module(SYSCLK_PORT_GEN, SYSCLK_DMA);
     996:	21 f4       	brne	.+8      	; 0x9a0 <usart_init_rs232+0x60>
     998:	61 e0       	ldi	r22, 0x01	; 1
     99a:	80 e0       	ldi	r24, 0x00	; 0
     99c:	a2 d3       	rcall	.+1860   	; 0x10e2 <sysclk_enable_module>
     99e:	0f c1       	rjmp	.+542    	; 0xbbe <usart_init_rs232+0x27e>
	else if (module == &EDMA) {
		sysclk_enable_module(SYSCLK_PORT_GEN, SYSCLK_EDMA);
	}
#endif
#ifdef ACA
	else if (module == &ACA) {
     9a0:	c0 38       	cpi	r28, 0x80	; 128
     9a2:	e3 e0       	ldi	r30, 0x03	; 3
     9a4:	de 07       	cpc	r29, r30
		sysclk_enable_module(SYSCLK_PORT_A, SYSCLK_AC);
     9a6:	21 f4       	brne	.+8      	; 0x9b0 <usart_init_rs232+0x70>
     9a8:	61 e0       	ldi	r22, 0x01	; 1
     9aa:	81 e0       	ldi	r24, 0x01	; 1
     9ac:	9a d3       	rcall	.+1844   	; 0x10e2 <sysclk_enable_module>
     9ae:	07 c1       	rjmp	.+526    	; 0xbbe <usart_init_rs232+0x27e>
	}
#endif
#ifdef ACB
	else if (module == &ACB) {
     9b0:	c0 39       	cpi	r28, 0x90	; 144
     9b2:	f3 e0       	ldi	r31, 0x03	; 3
     9b4:	df 07       	cpc	r29, r31
		sysclk_enable_module(SYSCLK_PORT_B, SYSCLK_AC);
     9b6:	21 f4       	brne	.+8      	; 0x9c0 <usart_init_rs232+0x80>
     9b8:	61 e0       	ldi	r22, 0x01	; 1
     9ba:	82 e0       	ldi	r24, 0x02	; 2
     9bc:	92 d3       	rcall	.+1828   	; 0x10e2 <sysclk_enable_module>
	}
#endif
#ifdef ADCA
	else if (module == &ADCA) {
     9be:	ff c0       	rjmp	.+510    	; 0xbbe <usart_init_rs232+0x27e>
     9c0:	c1 15       	cp	r28, r1
     9c2:	82 e0       	ldi	r24, 0x02	; 2
     9c4:	d8 07       	cpc	r29, r24
		sysclk_enable_module(SYSCLK_PORT_A, SYSCLK_ADC);
     9c6:	21 f4       	brne	.+8      	; 0x9d0 <usart_init_rs232+0x90>
     9c8:	62 e0       	ldi	r22, 0x02	; 2
     9ca:	81 e0       	ldi	r24, 0x01	; 1
     9cc:	8a d3       	rcall	.+1812   	; 0x10e2 <sysclk_enable_module>
	}
#endif
#ifdef ADCB
	else if (module == &ADCB) {
     9ce:	f7 c0       	rjmp	.+494    	; 0xbbe <usart_init_rs232+0x27e>
     9d0:	c0 34       	cpi	r28, 0x40	; 64
     9d2:	e2 e0       	ldi	r30, 0x02	; 2
     9d4:	de 07       	cpc	r29, r30
		sysclk_enable_module(SYSCLK_PORT_B, SYSCLK_ADC);
     9d6:	21 f4       	brne	.+8      	; 0x9e0 <usart_init_rs232+0xa0>
     9d8:	62 e0       	ldi	r22, 0x02	; 2
     9da:	82 e0       	ldi	r24, 0x02	; 2
     9dc:	82 d3       	rcall	.+1796   	; 0x10e2 <sysclk_enable_module>
	}
#endif
#ifdef DACA
	else if (module == &DACA) {
     9de:	ef c0       	rjmp	.+478    	; 0xbbe <usart_init_rs232+0x27e>
     9e0:	c1 15       	cp	r28, r1
     9e2:	f3 e0       	ldi	r31, 0x03	; 3
     9e4:	df 07       	cpc	r29, r31
		sysclk_enable_module(SYSCLK_PORT_A, SYSCLK_DAC);
     9e6:	21 f4       	brne	.+8      	; 0x9f0 <usart_init_rs232+0xb0>
     9e8:	64 e0       	ldi	r22, 0x04	; 4
     9ea:	81 e0       	ldi	r24, 0x01	; 1
     9ec:	7a d3       	rcall	.+1780   	; 0x10e2 <sysclk_enable_module>
	}
#endif
// Workaround for bad XMEGA D header file
#if !XMEGA_D
#ifdef DACB
	else if (module == &DACB) {
     9ee:	e7 c0       	rjmp	.+462    	; 0xbbe <usart_init_rs232+0x27e>
     9f0:	c0 32       	cpi	r28, 0x20	; 32
     9f2:	83 e0       	ldi	r24, 0x03	; 3
     9f4:	d8 07       	cpc	r29, r24
		sysclk_enable_module(SYSCLK_PORT_B, SYSCLK_DAC);
     9f6:	21 f4       	brne	.+8      	; 0xa00 <usart_init_rs232+0xc0>
     9f8:	64 e0       	ldi	r22, 0x04	; 4
     9fa:	82 e0       	ldi	r24, 0x02	; 2
     9fc:	72 d3       	rcall	.+1764   	; 0x10e2 <sysclk_enable_module>
	}
#endif
#endif // Workaround end
#ifdef TCC0
	else if (module == &TCC0) {
     9fe:	df c0       	rjmp	.+446    	; 0xbbe <usart_init_rs232+0x27e>
     a00:	c1 15       	cp	r28, r1
     a02:	e8 e0       	ldi	r30, 0x08	; 8
		sysclk_enable_module(SYSCLK_PORT_C, SYSCLK_TC0);
     a04:	de 07       	cpc	r29, r30
     a06:	21 f4       	brne	.+8      	; 0xa10 <usart_init_rs232+0xd0>
     a08:	61 e0       	ldi	r22, 0x01	; 1
     a0a:	83 e0       	ldi	r24, 0x03	; 3
     a0c:	6a d3       	rcall	.+1748   	; 0x10e2 <sysclk_enable_module>
	}
#endif
#ifdef TCD0
	else if (module == &TCD0) {
     a0e:	d7 c0       	rjmp	.+430    	; 0xbbe <usart_init_rs232+0x27e>
     a10:	c1 15       	cp	r28, r1
     a12:	f9 e0       	ldi	r31, 0x09	; 9
		sysclk_enable_module(SYSCLK_PORT_D, SYSCLK_TC0);
     a14:	df 07       	cpc	r29, r31
     a16:	21 f4       	brne	.+8      	; 0xa20 <usart_init_rs232+0xe0>
     a18:	61 e0       	ldi	r22, 0x01	; 1
     a1a:	84 e0       	ldi	r24, 0x04	; 4
     a1c:	62 d3       	rcall	.+1732   	; 0x10e2 <sysclk_enable_module>
	}
#endif
#ifdef TCE0
	else if (module == &TCE0) {
     a1e:	cf c0       	rjmp	.+414    	; 0xbbe <usart_init_rs232+0x27e>
     a20:	c1 15       	cp	r28, r1
     a22:	8a e0       	ldi	r24, 0x0A	; 10
		sysclk_enable_module(SYSCLK_PORT_E, SYSCLK_TC0);
     a24:	d8 07       	cpc	r29, r24
     a26:	21 f4       	brne	.+8      	; 0xa30 <usart_init_rs232+0xf0>
     a28:	61 e0       	ldi	r22, 0x01	; 1
     a2a:	85 e0       	ldi	r24, 0x05	; 5
     a2c:	5a d3       	rcall	.+1716   	; 0x10e2 <sysclk_enable_module>
	}
#endif
#ifdef TCF0
	else if (module == &TCF0) {
     a2e:	c7 c0       	rjmp	.+398    	; 0xbbe <usart_init_rs232+0x27e>
     a30:	c1 15       	cp	r28, r1
     a32:	eb e0       	ldi	r30, 0x0B	; 11
		sysclk_enable_module(SYSCLK_PORT_F, SYSCLK_TC0);
     a34:	de 07       	cpc	r29, r30
     a36:	21 f4       	brne	.+8      	; 0xa40 <usart_init_rs232+0x100>
     a38:	61 e0       	ldi	r22, 0x01	; 1
     a3a:	86 e0       	ldi	r24, 0x06	; 6
	}
#endif
#ifdef TCC1
	else if (module == &TCC1) {
     a3c:	52 d3       	rcall	.+1700   	; 0x10e2 <sysclk_enable_module>
     a3e:	bf c0       	rjmp	.+382    	; 0xbbe <usart_init_rs232+0x27e>
     a40:	c0 34       	cpi	r28, 0x40	; 64
     a42:	f8 e0       	ldi	r31, 0x08	; 8
		sysclk_enable_module(SYSCLK_PORT_C, SYSCLK_TC1);
     a44:	df 07       	cpc	r29, r31
     a46:	21 f4       	brne	.+8      	; 0xa50 <usart_init_rs232+0x110>
     a48:	62 e0       	ldi	r22, 0x02	; 2
     a4a:	83 e0       	ldi	r24, 0x03	; 3
	}
#endif
#ifdef TCD1
	else if (module == &TCD1) {
     a4c:	4a d3       	rcall	.+1684   	; 0x10e2 <sysclk_enable_module>
     a4e:	b7 c0       	rjmp	.+366    	; 0xbbe <usart_init_rs232+0x27e>
     a50:	c0 34       	cpi	r28, 0x40	; 64
     a52:	89 e0       	ldi	r24, 0x09	; 9
		sysclk_enable_module(SYSCLK_PORT_D, SYSCLK_TC1);
     a54:	d8 07       	cpc	r29, r24
     a56:	21 f4       	brne	.+8      	; 0xa60 <usart_init_rs232+0x120>
     a58:	62 e0       	ldi	r22, 0x02	; 2
     a5a:	84 e0       	ldi	r24, 0x04	; 4
	}
#endif
#ifdef TCE1
	else if (module == &TCE1) {
     a5c:	42 d3       	rcall	.+1668   	; 0x10e2 <sysclk_enable_module>
     a5e:	af c0       	rjmp	.+350    	; 0xbbe <usart_init_rs232+0x27e>
     a60:	c0 34       	cpi	r28, 0x40	; 64
     a62:	ea e0       	ldi	r30, 0x0A	; 10
		sysclk_enable_module(SYSCLK_PORT_E, SYSCLK_TC1);
     a64:	de 07       	cpc	r29, r30
     a66:	21 f4       	brne	.+8      	; 0xa70 <usart_init_rs232+0x130>
     a68:	62 e0       	ldi	r22, 0x02	; 2
     a6a:	85 e0       	ldi	r24, 0x05	; 5
	}
#endif
#ifdef TCF1
	else if (module == &TCF1) {
     a6c:	3a d3       	rcall	.+1652   	; 0x10e2 <sysclk_enable_module>
     a6e:	a7 c0       	rjmp	.+334    	; 0xbbe <usart_init_rs232+0x27e>
     a70:	c0 34       	cpi	r28, 0x40	; 64
     a72:	fb e0       	ldi	r31, 0x0B	; 11
		sysclk_enable_module(SYSCLK_PORT_F, SYSCLK_TC1);
     a74:	df 07       	cpc	r29, r31
     a76:	21 f4       	brne	.+8      	; 0xa80 <usart_init_rs232+0x140>
     a78:	62 e0       	ldi	r22, 0x02	; 2
     a7a:	86 e0       	ldi	r24, 0x06	; 6
	else if (module == &TCD5) {
		sysclk_enable_module(SYSCLK_PORT_D, SYSCLK_TC5);
	}
#endif
#ifdef HIRESC
	else if (module == &HIRESC) {
     a7c:	32 d3       	rcall	.+1636   	; 0x10e2 <sysclk_enable_module>
     a7e:	9f c0       	rjmp	.+318    	; 0xbbe <usart_init_rs232+0x27e>
     a80:	c0 39       	cpi	r28, 0x90	; 144
			sysclk_enable_module(SYSCLK_PORT_C, SYSCLK_HIRES);
     a82:	88 e0       	ldi	r24, 0x08	; 8
     a84:	d8 07       	cpc	r29, r24
     a86:	21 f4       	brne	.+8      	; 0xa90 <usart_init_rs232+0x150>
     a88:	64 e0       	ldi	r22, 0x04	; 4
     a8a:	83 e0       	ldi	r24, 0x03	; 3
	}
#endif
#ifdef HIRESD
	else if (module == &HIRESD) {
     a8c:	2a d3       	rcall	.+1620   	; 0x10e2 <sysclk_enable_module>
     a8e:	97 c0       	rjmp	.+302    	; 0xbbe <usart_init_rs232+0x27e>
     a90:	c0 39       	cpi	r28, 0x90	; 144
		sysclk_enable_module(SYSCLK_PORT_D, SYSCLK_HIRES);
     a92:	e9 e0       	ldi	r30, 0x09	; 9
     a94:	de 07       	cpc	r29, r30
     a96:	21 f4       	brne	.+8      	; 0xaa0 <usart_init_rs232+0x160>
     a98:	64 e0       	ldi	r22, 0x04	; 4
     a9a:	84 e0       	ldi	r24, 0x04	; 4
	}
#endif
#ifdef HIRESE
	else if (module == &HIRESE) {
     a9c:	22 d3       	rcall	.+1604   	; 0x10e2 <sysclk_enable_module>
     a9e:	8f c0       	rjmp	.+286    	; 0xbbe <usart_init_rs232+0x27e>
     aa0:	c0 39       	cpi	r28, 0x90	; 144
		sysclk_enable_module(SYSCLK_PORT_E, SYSCLK_HIRES);
     aa2:	fa e0       	ldi	r31, 0x0A	; 10
     aa4:	df 07       	cpc	r29, r31
     aa6:	21 f4       	brne	.+8      	; 0xab0 <usart_init_rs232+0x170>
     aa8:	64 e0       	ldi	r22, 0x04	; 4
     aaa:	85 e0       	ldi	r24, 0x05	; 5
	}
#endif
#ifdef HIRESF
	else if (module == &HIRESF) {
     aac:	1a d3       	rcall	.+1588   	; 0x10e2 <sysclk_enable_module>
     aae:	87 c0       	rjmp	.+270    	; 0xbbe <usart_init_rs232+0x27e>
     ab0:	c0 39       	cpi	r28, 0x90	; 144
		sysclk_enable_module(SYSCLK_PORT_F, SYSCLK_HIRES);
     ab2:	8b e0       	ldi	r24, 0x0B	; 11
     ab4:	d8 07       	cpc	r29, r24
     ab6:	21 f4       	brne	.+8      	; 0xac0 <usart_init_rs232+0x180>
     ab8:	64 e0       	ldi	r22, 0x04	; 4
	}
#endif
#ifdef SPIC
	else if (module == &SPIC) {
     aba:	86 e0       	ldi	r24, 0x06	; 6
     abc:	12 d3       	rcall	.+1572   	; 0x10e2 <sysclk_enable_module>
     abe:	7f c0       	rjmp	.+254    	; 0xbbe <usart_init_rs232+0x27e>
     ac0:	c0 3c       	cpi	r28, 0xC0	; 192
		sysclk_enable_module(SYSCLK_PORT_C, SYSCLK_SPI);
     ac2:	e8 e0       	ldi	r30, 0x08	; 8
     ac4:	de 07       	cpc	r29, r30
     ac6:	21 f4       	brne	.+8      	; 0xad0 <usart_init_rs232+0x190>
     ac8:	68 e0       	ldi	r22, 0x08	; 8
	}
#endif
#ifdef SPID
	else if (module == &SPID) {
     aca:	83 e0       	ldi	r24, 0x03	; 3
     acc:	0a d3       	rcall	.+1556   	; 0x10e2 <sysclk_enable_module>
     ace:	77 c0       	rjmp	.+238    	; 0xbbe <usart_init_rs232+0x27e>
     ad0:	c0 3c       	cpi	r28, 0xC0	; 192
		sysclk_enable_module(SYSCLK_PORT_D, SYSCLK_SPI);
     ad2:	f9 e0       	ldi	r31, 0x09	; 9
     ad4:	df 07       	cpc	r29, r31
     ad6:	21 f4       	brne	.+8      	; 0xae0 <usart_init_rs232+0x1a0>
     ad8:	68 e0       	ldi	r22, 0x08	; 8
	}
#endif
#ifdef SPIE
	else if (module == &SPIE) {
     ada:	84 e0       	ldi	r24, 0x04	; 4
     adc:	02 d3       	rcall	.+1540   	; 0x10e2 <sysclk_enable_module>
     ade:	6f c0       	rjmp	.+222    	; 0xbbe <usart_init_rs232+0x27e>
     ae0:	c0 3c       	cpi	r28, 0xC0	; 192
		sysclk_enable_module(SYSCLK_PORT_E, SYSCLK_SPI);
     ae2:	8a e0       	ldi	r24, 0x0A	; 10
     ae4:	d8 07       	cpc	r29, r24
     ae6:	21 f4       	brne	.+8      	; 0xaf0 <usart_init_rs232+0x1b0>
     ae8:	68 e0       	ldi	r22, 0x08	; 8
	}
#endif
#ifdef SPIF
	else if (module == &SPIF) {
     aea:	85 e0       	ldi	r24, 0x05	; 5
     aec:	fa d2       	rcall	.+1524   	; 0x10e2 <sysclk_enable_module>
     aee:	67 c0       	rjmp	.+206    	; 0xbbe <usart_init_rs232+0x27e>
     af0:	c0 3c       	cpi	r28, 0xC0	; 192
		sysclk_enable_module(SYSCLK_PORT_F, SYSCLK_SPI);
     af2:	eb e0       	ldi	r30, 0x0B	; 11
     af4:	de 07       	cpc	r29, r30
     af6:	21 f4       	brne	.+8      	; 0xb00 <usart_init_rs232+0x1c0>
     af8:	68 e0       	ldi	r22, 0x08	; 8
	}
#endif
#ifdef USARTC0
	else if (module == &USARTC0) {
     afa:	86 e0       	ldi	r24, 0x06	; 6
     afc:	f2 d2       	rcall	.+1508   	; 0x10e2 <sysclk_enable_module>
     afe:	5f c0       	rjmp	.+190    	; 0xbbe <usart_init_rs232+0x27e>
		sysclk_enable_module(SYSCLK_PORT_C, SYSCLK_USART0);
     b00:	c0 3a       	cpi	r28, 0xA0	; 160
     b02:	f8 e0       	ldi	r31, 0x08	; 8
     b04:	df 07       	cpc	r29, r31
     b06:	21 f4       	brne	.+8      	; 0xb10 <usart_init_rs232+0x1d0>
     b08:	60 e1       	ldi	r22, 0x10	; 16
	}
#endif
#ifdef USARTD0
	else if (module == &USARTD0) {
     b0a:	83 e0       	ldi	r24, 0x03	; 3
     b0c:	ea d2       	rcall	.+1492   	; 0x10e2 <sysclk_enable_module>
     b0e:	57 c0       	rjmp	.+174    	; 0xbbe <usart_init_rs232+0x27e>
		sysclk_enable_module(SYSCLK_PORT_D, SYSCLK_USART0);
     b10:	c0 3a       	cpi	r28, 0xA0	; 160
     b12:	89 e0       	ldi	r24, 0x09	; 9
     b14:	d8 07       	cpc	r29, r24
     b16:	21 f4       	brne	.+8      	; 0xb20 <usart_init_rs232+0x1e0>
     b18:	60 e1       	ldi	r22, 0x10	; 16
	}
#endif
#ifdef USARTE0
	else if (module == &USARTE0) {
     b1a:	84 e0       	ldi	r24, 0x04	; 4
     b1c:	e2 d2       	rcall	.+1476   	; 0x10e2 <sysclk_enable_module>
     b1e:	4f c0       	rjmp	.+158    	; 0xbbe <usart_init_rs232+0x27e>
		sysclk_enable_module(SYSCLK_PORT_E, SYSCLK_USART0);
     b20:	c0 3a       	cpi	r28, 0xA0	; 160
     b22:	ea e0       	ldi	r30, 0x0A	; 10
     b24:	de 07       	cpc	r29, r30
     b26:	21 f4       	brne	.+8      	; 0xb30 <usart_init_rs232+0x1f0>
     b28:	60 e1       	ldi	r22, 0x10	; 16
	}
#endif
#ifdef USARTF0
	else if (module == &USARTF0) {
     b2a:	85 e0       	ldi	r24, 0x05	; 5
     b2c:	da d2       	rcall	.+1460   	; 0x10e2 <sysclk_enable_module>
     b2e:	47 c0       	rjmp	.+142    	; 0xbbe <usart_init_rs232+0x27e>
		sysclk_enable_module(SYSCLK_PORT_F, SYSCLK_USART0);
     b30:	c0 3a       	cpi	r28, 0xA0	; 160
     b32:	fb e0       	ldi	r31, 0x0B	; 11
     b34:	df 07       	cpc	r29, r31
     b36:	21 f4       	brne	.+8      	; 0xb40 <usart_init_rs232+0x200>
	}
#endif
#ifdef USARTC1
	else if (module == &USARTC1) {
     b38:	60 e1       	ldi	r22, 0x10	; 16
     b3a:	86 e0       	ldi	r24, 0x06	; 6
     b3c:	d2 d2       	rcall	.+1444   	; 0x10e2 <sysclk_enable_module>
     b3e:	3f c0       	rjmp	.+126    	; 0xbbe <usart_init_rs232+0x27e>
		sysclk_enable_module(SYSCLK_PORT_C, SYSCLK_USART1);
     b40:	c0 3b       	cpi	r28, 0xB0	; 176
     b42:	88 e0       	ldi	r24, 0x08	; 8
     b44:	d8 07       	cpc	r29, r24
     b46:	21 f4       	brne	.+8      	; 0xb50 <usart_init_rs232+0x210>
	}
#endif
#ifdef USARTD1
	else if (module == &USARTD1) {
     b48:	60 e2       	ldi	r22, 0x20	; 32
     b4a:	83 e0       	ldi	r24, 0x03	; 3
     b4c:	ca d2       	rcall	.+1428   	; 0x10e2 <sysclk_enable_module>
     b4e:	37 c0       	rjmp	.+110    	; 0xbbe <usart_init_rs232+0x27e>
		sysclk_enable_module(SYSCLK_PORT_D, SYSCLK_USART1);
     b50:	c0 3b       	cpi	r28, 0xB0	; 176
     b52:	e9 e0       	ldi	r30, 0x09	; 9
     b54:	de 07       	cpc	r29, r30
     b56:	21 f4       	brne	.+8      	; 0xb60 <usart_init_rs232+0x220>
	}
#endif
#ifdef USARTE1
	else if (module == &USARTE1) {
     b58:	60 e2       	ldi	r22, 0x20	; 32
     b5a:	84 e0       	ldi	r24, 0x04	; 4
     b5c:	c2 d2       	rcall	.+1412   	; 0x10e2 <sysclk_enable_module>
     b5e:	2f c0       	rjmp	.+94     	; 0xbbe <usart_init_rs232+0x27e>
		sysclk_enable_module(SYSCLK_PORT_E, SYSCLK_USART1);
     b60:	c0 3b       	cpi	r28, 0xB0	; 176
     b62:	fa e0       	ldi	r31, 0x0A	; 10
     b64:	df 07       	cpc	r29, r31
     b66:	21 f4       	brne	.+8      	; 0xb70 <usart_init_rs232+0x230>
	}
#endif
#ifdef USARTF1
	else if (module == &USARTF1) {
     b68:	60 e2       	ldi	r22, 0x20	; 32
     b6a:	85 e0       	ldi	r24, 0x05	; 5
     b6c:	ba d2       	rcall	.+1396   	; 0x10e2 <sysclk_enable_module>
     b6e:	27 c0       	rjmp	.+78     	; 0xbbe <usart_init_rs232+0x27e>
		sysclk_enable_module(SYSCLK_PORT_F, SYSCLK_USART1);
     b70:	c0 3b       	cpi	r28, 0xB0	; 176
     b72:	8b e0       	ldi	r24, 0x0B	; 11
     b74:	d8 07       	cpc	r29, r24
     b76:	21 f4       	brne	.+8      	; 0xb80 <usart_init_rs232+0x240>
	}
#endif
#ifdef TWIC
	else if (module == &TWIC) {
     b78:	60 e2       	ldi	r22, 0x20	; 32
     b7a:	86 e0       	ldi	r24, 0x06	; 6
     b7c:	b2 d2       	rcall	.+1380   	; 0x10e2 <sysclk_enable_module>
     b7e:	1f c0       	rjmp	.+62     	; 0xbbe <usart_init_rs232+0x27e>
		sysclk_enable_module(SYSCLK_PORT_C, SYSCLK_TWI);
     b80:	c0 38       	cpi	r28, 0x80	; 128
     b82:	e4 e0       	ldi	r30, 0x04	; 4
     b84:	de 07       	cpc	r29, r30
     b86:	21 f4       	brne	.+8      	; 0xb90 <usart_init_rs232+0x250>
     b88:	60 e4       	ldi	r22, 0x40	; 64
	}
#endif
#ifdef TWID
	else if (module == &TWID) {
     b8a:	83 e0       	ldi	r24, 0x03	; 3
     b8c:	aa d2       	rcall	.+1364   	; 0x10e2 <sysclk_enable_module>
     b8e:	17 c0       	rjmp	.+46     	; 0xbbe <usart_init_rs232+0x27e>
     b90:	c0 39       	cpi	r28, 0x90	; 144
		sysclk_enable_module(SYSCLK_PORT_D, SYSCLK_TWI);
     b92:	f4 e0       	ldi	r31, 0x04	; 4
     b94:	df 07       	cpc	r29, r31
     b96:	21 f4       	brne	.+8      	; 0xba0 <usart_init_rs232+0x260>
     b98:	60 e4       	ldi	r22, 0x40	; 64
     b9a:	84 e0       	ldi	r24, 0x04	; 4
	}
#endif
#ifdef TWIE
	else if (module == &TWIE) {
     b9c:	a2 d2       	rcall	.+1348   	; 0x10e2 <sysclk_enable_module>
     b9e:	0f c0       	rjmp	.+30     	; 0xbbe <usart_init_rs232+0x27e>
     ba0:	c0 3a       	cpi	r28, 0xA0	; 160
		sysclk_enable_module(SYSCLK_PORT_E, SYSCLK_TWI);
     ba2:	84 e0       	ldi	r24, 0x04	; 4
     ba4:	d8 07       	cpc	r29, r24
     ba6:	21 f4       	brne	.+8      	; 0xbb0 <usart_init_rs232+0x270>
     ba8:	60 e4       	ldi	r22, 0x40	; 64
     baa:	85 e0       	ldi	r24, 0x05	; 5
	}
#endif
#ifdef TWIF
	else if (module == &TWIF) {
     bac:	9a d2       	rcall	.+1332   	; 0x10e2 <sysclk_enable_module>
     bae:	07 c0       	rjmp	.+14     	; 0xbbe <usart_init_rs232+0x27e>
     bb0:	c0 3b       	cpi	r28, 0xB0	; 176
     bb2:	e4 e0       	ldi	r30, 0x04	; 4
		sysclk_enable_module(SYSCLK_PORT_F, SYSCLK_TWI);
     bb4:	de 07       	cpc	r29, r30
     bb6:	19 f4       	brne	.+6      	; 0xbbe <usart_init_rs232+0x27e>
     bb8:	60 e4       	ldi	r22, 0x40	; 64
     bba:	86 e0       	ldi	r24, 0x06	; 6
 * - 0x2        : IrDA mode.
 * - 0x3        : Master SPI mode.
 */
static inline void usart_set_mode(USART_t *usart, USART_CMODE_t usartmode)
{
	(usart)->CTRLC = ((usart)->CTRLC & (~USART_CMODE_gm)) | usartmode;
     bbc:	92 d2       	rcall	.+1316   	; 0x10e2 <sysclk_enable_module>
     bbe:	8d 81       	ldd	r24, Y+5	; 0x05
     bc0:	8f 73       	andi	r24, 0x3F	; 63
 *  \param twoStopBits Enable two stop bit mode. Use bool type.
 */
static inline void usart_format_set(USART_t *usart, USART_CHSIZE_t charSize,
		USART_PMODE_t parityMode, bool twoStopBits)
{
	(usart)->CTRLC = (uint8_t)charSize | parityMode
     bc2:	8d 83       	std	Y+5, r24	; 0x05
     bc4:	f8 01       	movw	r30, r16
     bc6:	95 81       	ldd	r25, Z+5	; 0x05
     bc8:	84 81       	ldd	r24, Z+4	; 0x04
     bca:	89 2b       	or	r24, r25
     bcc:	96 81       	ldd	r25, Z+6	; 0x06
     bce:	91 11       	cpse	r25, r1
     bd0:	98 e0       	ldi	r25, 0x08	; 8
     bd2:	89 2b       	or	r24, r25
	bool result;
	sysclk_enable_peripheral_clock(usart);
	usart_set_mode(usart, USART_CMODE_ASYNCHRONOUS_gc);
	usart_format_set(usart, opt->charlength, opt->paritytype,
			opt->stopbits);
	result = usart_set_baudrate(usart, opt->baudrate, sysclk_get_per_hz());
     bd4:	8d 83       	std	Y+5, r24	; 0x05
     bd6:	f8 01       	movw	r30, r16
     bd8:	40 81       	ld	r20, Z
     bda:	51 81       	ldd	r21, Z+1	; 0x01
     bdc:	62 81       	ldd	r22, Z+2	; 0x02
     bde:	73 81       	ldd	r23, Z+3	; 0x03
     be0:	00 e0       	ldi	r16, 0x00	; 0
     be2:	18 e4       	ldi	r17, 0x48	; 72
     be4:	28 ee       	ldi	r18, 0xE8	; 232
     be6:	31 e0       	ldi	r19, 0x01	; 1
     be8:	ce 01       	movw	r24, r28
     bea:	97 dd       	rcall	.-1234   	; 0x71a <usart_set_baudrate>
 *
 * \param usart Pointer to the USART module.
 */
static inline void usart_tx_enable(USART_t *usart)
{
	(usart)->CTRLB |= USART_TXEN_bm;
     bec:	9c 81       	ldd	r25, Y+4	; 0x04
     bee:	98 60       	ori	r25, 0x08	; 8
     bf0:	9c 83       	std	Y+4, r25	; 0x04
 *
 * \param usart Pointer to the USART module
 */
static inline void usart_rx_enable(USART_t *usart)
{
	(usart)->CTRLB |= USART_RXEN_bm;
     bf2:	9c 81       	ldd	r25, Y+4	; 0x04
     bf4:	90 61       	ori	r25, 0x10	; 16
     bf6:	9c 83       	std	Y+4, r25	; 0x04
	usart_tx_enable(usart);
	usart_rx_enable(usart);
	
	return result;
}
     bf8:	df 91       	pop	r29
     bfa:	cf 91       	pop	r28
     bfc:	1f 91       	pop	r17
     bfe:	0f 91       	pop	r16
     c00:	08 95       	ret

00000c02 <hall_sensor_init>:
 */ 

#include <asf.h>
#include "hall.h"

void hall_sensor_init(void){
     c02:	08 95       	ret

00000c04 <cam_init>:

#include "spy_cam.h"
#include <asf.h>

void cam_init(void){
	PORTA.DIR |= 0x08; // Sets A3 to output
     c04:	e0 e0       	ldi	r30, 0x00	; 0
     c06:	f6 e0       	ldi	r31, 0x06	; 6
     c08:	80 81       	ld	r24, Z
     c0a:	88 60       	ori	r24, 0x08	; 8
     c0c:	80 83       	st	Z, r24
     c0e:	08 95       	ret

00000c10 <cam_switch>:
}

void cam_switch(void){
	PORTA.OUT ^= 0x08; // Changes A3 from high to low or vice-versa
     c10:	e0 e0       	ldi	r30, 0x00	; 0
     c12:	f6 e0       	ldi	r31, 0x06	; 6
     c14:	94 81       	ldd	r25, Z+4	; 0x04
     c16:	88 e0       	ldi	r24, 0x08	; 8
     c18:	89 27       	eor	r24, r25
     c1a:	84 83       	std	Z+4, r24	; 0x04
     c1c:	08 95       	ret

00000c1e <gps_uart_init>:

#include <asf.h>
#include <string.h>
#include "mt3339.h"

void gps_uart_init(void){
     c1e:	cf 93       	push	r28
     c20:	df 93       	push	r29
     c22:	cd b7       	in	r28, 0x3d	; 61
     c24:	de b7       	in	r29, 0x3e	; 62
     c26:	27 97       	sbiw	r28, 0x07	; 7
     c28:	cd bf       	out	0x3d, r28	; 61
     c2a:	de bf       	out	0x3e, r29	; 62
		sysclk_enable_module(SYSCLK_PORT_C, SYSCLK_USART1);
	}
#endif
#ifdef USARTD1
	else if (module == &USARTD1) {
		sysclk_enable_module(SYSCLK_PORT_D, SYSCLK_USART1);
     c2c:	60 e2       	ldi	r22, 0x20	; 32
     c2e:	84 e0       	ldi	r24, 0x04	; 4
     c30:	58 d2       	rcall	.+1200   	; 0x10e2 <sysclk_enable_module>
		.charlength =	GPS_TERMINAL_SERIAL_CHAR_LEN,
		.paritytype =	GPS_TERMINAL_SERIAL_PARITY,
		.stopbits	=	GPS_TERMINAL_SERIAL_STOP_BIT
	};
	
	GPS_TERMINAL_PORT.DIR |= GPS_TERMINAL_TX_PIN; // Puts pin to output
     c32:	e0 e6       	ldi	r30, 0x60	; 96
     c34:	f6 e0       	ldi	r31, 0x06	; 6
     c36:	80 81       	ld	r24, Z
     c38:	80 68       	ori	r24, 0x80	; 128
     c3a:	80 83       	st	Z, r24
static inline bool usart_serial_init(usart_if usart, const
		usart_serial_options_t *options)
{
	// USART options.
	usart_rs232_options_t usart_rs232_options;
	usart_rs232_options.charlength   = options->charlength;
     c3c:	e6 e0       	ldi	r30, 0x06	; 6
     c3e:	f0 e2       	ldi	r31, 0x20	; 32
     c40:	84 81       	ldd	r24, Z+4	; 0x04
     c42:	8d 83       	std	Y+5, r24	; 0x05
	usart_rs232_options.paritytype   = options->paritytype;
     c44:	85 81       	ldd	r24, Z+5	; 0x05
     c46:	8e 83       	std	Y+6, r24	; 0x06
	usart_rs232_options.stopbits     = options->stopbits;
     c48:	86 81       	ldd	r24, Z+6	; 0x06
     c4a:	8f 83       	std	Y+7, r24	; 0x07
	usart_rs232_options.baudrate     = options->baudrate;
     c4c:	80 81       	ld	r24, Z
     c4e:	91 81       	ldd	r25, Z+1	; 0x01
     c50:	a2 81       	ldd	r26, Z+2	; 0x02
     c52:	b3 81       	ldd	r27, Z+3	; 0x03
     c54:	89 83       	std	Y+1, r24	; 0x01
     c56:	9a 83       	std	Y+2, r25	; 0x02
     c58:	ab 83       	std	Y+3, r26	; 0x03
     c5a:	bc 83       	std	Y+4, r27	; 0x04
		sysclk_enable_module(SYSCLK_PORT_D,PR_USART0_bm);
	}
#endif
#ifdef USARTD1
	if((uint16_t)usart == (uint16_t)&USARTD1) {
		sysclk_enable_module(SYSCLK_PORT_D,PR_USART1_bm);
     c5c:	60 e2       	ldi	r22, 0x20	; 32
     c5e:	84 e0       	ldi	r24, 0x04	; 4
     c60:	40 d2       	rcall	.+1152   	; 0x10e2 <sysclk_enable_module>
#ifdef USARTF1
	if((uint16_t)usart == (uint16_t)&USARTF1) {
		sysclk_enable_module(SYSCLK_PORT_F,PR_USART1_bm);
	}
#endif
	if (usart_init_rs232(usart, &usart_rs232_options)) {
     c62:	be 01       	movw	r22, r28
     c64:	6f 5f       	subi	r22, 0xFF	; 255
     c66:	7f 4f       	sbci	r23, 0xFF	; 255
     c68:	80 eb       	ldi	r24, 0xB0	; 176
     c6a:	99 e0       	ldi	r25, 0x09	; 9
     c6c:	69 de       	rcall	.-814    	; 0x940 <usart_init_rs232>
	
	usart_serial_init(GPS_TERMINAL_SERIAL,&gps_config);
}
     c6e:	27 96       	adiw	r28, 0x07	; 7
     c70:	cd bf       	out	0x3d, r28	; 61
     c72:	de bf       	out	0x3e, r29	; 62
     c74:	df 91       	pop	r29
     c76:	cf 91       	pop	r28
     c78:	08 95       	ret

00000c7a <__portable_avr_delay_cycles>:
 *
 * @{
 */
__always_optimize
static inline void __portable_avr_delay_cycles(unsigned long n)
{
     c7a:	04 c0       	rjmp	.+8      	; 0xc84 <__portable_avr_delay_cycles+0xa>
	while (n) {
		barrier();
		n--;
     c7c:	61 50       	subi	r22, 0x01	; 1
     c7e:	71 09       	sbc	r23, r1
     c80:	81 09       	sbc	r24, r1
     c82:	91 09       	sbc	r25, r1
 * @{
 */
__always_optimize
static inline void __portable_avr_delay_cycles(unsigned long n)
{
	while (n) {
     c84:	61 15       	cp	r22, r1
     c86:	71 05       	cpc	r23, r1
     c88:	81 05       	cpc	r24, r1
     c8a:	91 05       	cpc	r25, r1
     c8c:	b9 f7       	brne	.-18     	; 0xc7c <__portable_avr_delay_cycles+0x2>
     c8e:	08 95       	ret

00000c90 <flip_ms5607>:
	
	return rx_data;
}

void flip_ms5607(void){
	MS5607_PORT.OUT ^= MS5607_PIN;
     c90:	e0 e4       	ldi	r30, 0x40	; 64
     c92:	f6 e0       	ldi	r31, 0x06	; 6
     c94:	94 81       	ldd	r25, Z+4	; 0x04
     c96:	80 e1       	ldi	r24, 0x10	; 16
     c98:	89 27       	eor	r24, r25
     c9a:	84 83       	std	Z+4, r24	; 0x04
     c9c:	08 95       	ret

00000c9e <ms5607_init>:
#include <asf.h>
#include "ms5607.h"
#include "spi_controller.h"

void ms5607_init(void){
	PORTC.OUT |= 0x10; // makes the 4th pin on Port C be set on high (0b00010000)
     c9e:	e0 e4       	ldi	r30, 0x40	; 64
     ca0:	f6 e0       	ldi	r31, 0x06	; 6
     ca2:	84 81       	ldd	r24, Z+4	; 0x04
     ca4:	80 61       	ori	r24, 0x10	; 16
     ca6:	84 83       	std	Z+4, r24	; 0x04
	delay_ms(5);
     ca8:	6b e2       	ldi	r22, 0x2B	; 43
     caa:	78 e6       	ldi	r23, 0x68	; 104
     cac:	80 e0       	ldi	r24, 0x00	; 0
     cae:	90 e0       	ldi	r25, 0x00	; 0
     cb0:	e4 df       	rcall	.-56     	; 0xc7a <__portable_avr_delay_cycles>
	
	// Resets the ms5607
	flip_ms5607();
     cb2:	ee df       	rcall	.-36     	; 0xc90 <flip_ms5607>
	spi_write(CMD_MS5607_RESET);
     cb4:	8e e1       	ldi	r24, 0x1E	; 30
     cb6:	82 d0       	rcall	.+260    	; 0xdbc <spi_write>
     cb8:	60 e8       	ldi	r22, 0x80	; 128
	delay_ms(3);
     cba:	7e e3       	ldi	r23, 0x3E	; 62
     cbc:	80 e0       	ldi	r24, 0x00	; 0
     cbe:	90 e0       	ldi	r25, 0x00	; 0
     cc0:	dc df       	rcall	.-72     	; 0xc7a <__portable_avr_delay_cycles>
	flip_ms5607();
     cc2:	e6 df       	rcall	.-52     	; 0xc90 <flip_ms5607>
	delay_ms(2);
     cc4:	6b ea       	ldi	r22, 0xAB	; 171
     cc6:	79 e2       	ldi	r23, 0x29	; 41
     cc8:	80 e0       	ldi	r24, 0x00	; 0
     cca:	90 e0       	ldi	r25, 0x00	; 0
     ccc:	d6 cf       	rjmp	.-84     	; 0xc7a <__portable_avr_delay_cycles>
     cce:	08 95       	ret

00000cd0 <ms5607_read>:
     cd0:	cf 93       	push	r28
}

uint16_t ms5607_read(uint16_t comm)
{
     cd2:	df 93       	push	r29
     cd4:	c8 2f       	mov	r28, r24
	uint16_t rx_data = 0; // temporary 16-bit value
	flip_ms5607(); // select our spi device
     cd6:	dc df       	rcall	.-72     	; 0xc90 <flip_ms5607>
	spi_write(comm); // write a specified command to ask for data
     cd8:	8c 2f       	mov	r24, r28
	
	/*typecast this expression from an 8-bit to a 16-bit and shift it 8 bits to the left
	  meaning the returned value is now in the upper 8 bits rx_data*/
	rx_data = (uint16_t)spi_read()<<8; 
     cda:	70 d0       	rcall	.+224    	; 0xdbc <spi_write>
     cdc:	5f d0       	rcall	.+190    	; 0xd9c <spi_read>
     cde:	c8 2f       	mov	r28, r24
     ce0:	d0 e0       	ldi	r29, 0x00	; 0
     ce2:	dc 2f       	mov	r29, r28
	
	// OR the second byte with the 16-bit variable, the returned value is now in the lower 8 bits of 'rx_data'
	rx_data |= spi_read(); 
     ce4:	cc 27       	eor	r28, r28
     ce6:	5a d0       	rcall	.+180    	; 0xd9c <spi_read>
     ce8:	c8 2b       	or	r28, r24
	
	flip_ms5607(); // end spi exchange
     cea:	d2 df       	rcall	.-92     	; 0xc90 <flip_ms5607>
     cec:	ce 01       	movw	r24, r28
	
	return rx_data; // return the 16-bit value
}
     cee:	df 91       	pop	r29
     cf0:	cf 91       	pop	r28
     cf2:	08 95       	ret

00000cf4 <ms5607_convert_d1>:
     cf4:	cf 92       	push	r12

uint32_t ms5607_convert_d1(void)
{
     cf6:	df 92       	push	r13
     cf8:	ef 92       	push	r14
     cfa:	ff 92       	push	r15
	uint32_t rx_data = 0; // temporary 16-bit value
	// CONVERT D1
	flip_ms5607(); // select our spi device
     cfc:	c9 df       	rcall	.-110    	; 0xc90 <flip_ms5607>
	spi_write(CMD_MS5607_D1_4096); // write a specified command to ask for data
     cfe:	88 e4       	ldi	r24, 0x48	; 72
     d00:	5d d0       	rcall	.+186    	; 0xdbc <spi_write>
	delay_ms(10);
     d02:	66 e5       	ldi	r22, 0x56	; 86
     d04:	70 ed       	ldi	r23, 0xD0	; 208
     d06:	80 e0       	ldi	r24, 0x00	; 0
     d08:	90 e0       	ldi	r25, 0x00	; 0
	flip_ms5607();
     d0a:	b7 df       	rcall	.-146    	; 0xc7a <__portable_avr_delay_cycles>
	
	flip_ms5607();
     d0c:	c1 df       	rcall	.-126    	; 0xc90 <flip_ms5607>
     d0e:	c0 df       	rcall	.-128    	; 0xc90 <flip_ms5607>
	spi_write(CMD_MS5607_READ_ADC);
     d10:	80 e0       	ldi	r24, 0x00	; 0
     d12:	54 d0       	rcall	.+168    	; 0xdbc <spi_write>
     d14:	43 d0       	rcall	.+134    	; 0xd9c <spi_read>
	rx_data  = (uint32_t) spi_read()<<16;
     d16:	c8 2e       	mov	r12, r24
     d18:	d1 2c       	mov	r13, r1
     d1a:	e1 2c       	mov	r14, r1
     d1c:	f1 2c       	mov	r15, r1
     d1e:	76 01       	movw	r14, r12
     d20:	dd 24       	eor	r13, r13
	rx_data |= (uint32_t) spi_read()<<8;
     d22:	cc 24       	eor	r12, r12
     d24:	3b d0       	rcall	.+118    	; 0xd9c <spi_read>
     d26:	d8 2a       	or	r13, r24
	rx_data |= spi_read();
     d28:	39 d0       	rcall	.+114    	; 0xd9c <spi_read>
     d2a:	c8 2a       	or	r12, r24
     d2c:	b1 df       	rcall	.-158    	; 0xc90 <flip_ms5607>
	flip_ms5607();
     d2e:	c7 01       	movw	r24, r14
     d30:	b6 01       	movw	r22, r12
	
	return rx_data;
}
     d32:	ff 90       	pop	r15
     d34:	ef 90       	pop	r14
     d36:	df 90       	pop	r13
     d38:	cf 90       	pop	r12
     d3a:	08 95       	ret

00000d3c <ms5607_convert_d2>:
     d3c:	cf 92       	push	r12
     d3e:	df 92       	push	r13

uint32_t ms5607_convert_d2(void)
{
     d40:	ef 92       	push	r14
     d42:	ff 92       	push	r15
	uint32_t rx_data = 0; // temporary 16-bit value
	// CONVERT D2
	flip_ms5607(); // select our spi device
     d44:	a5 df       	rcall	.-182    	; 0xc90 <flip_ms5607>
	spi_write(CMD_MS5607_D2_4096); // write a specified command to ask for data
     d46:	88 e5       	ldi	r24, 0x58	; 88
     d48:	39 d0       	rcall	.+114    	; 0xdbc <spi_write>
	delay_ms(10);
     d4a:	66 e5       	ldi	r22, 0x56	; 86
     d4c:	70 ed       	ldi	r23, 0xD0	; 208
     d4e:	80 e0       	ldi	r24, 0x00	; 0
     d50:	90 e0       	ldi	r25, 0x00	; 0
	flip_ms5607();
     d52:	93 df       	rcall	.-218    	; 0xc7a <__portable_avr_delay_cycles>
	
	flip_ms5607();
     d54:	9d df       	rcall	.-198    	; 0xc90 <flip_ms5607>
     d56:	9c df       	rcall	.-200    	; 0xc90 <flip_ms5607>
	spi_write(CMD_MS5607_READ_ADC);
     d58:	80 e0       	ldi	r24, 0x00	; 0
     d5a:	30 d0       	rcall	.+96     	; 0xdbc <spi_write>
     d5c:	1f d0       	rcall	.+62     	; 0xd9c <spi_read>
	rx_data  = (uint32_t) spi_read()<<16;
     d5e:	c8 2e       	mov	r12, r24
     d60:	d1 2c       	mov	r13, r1
     d62:	e1 2c       	mov	r14, r1
     d64:	f1 2c       	mov	r15, r1
     d66:	76 01       	movw	r14, r12
     d68:	dd 24       	eor	r13, r13
	rx_data |= (uint32_t) spi_read()<<8;
     d6a:	cc 24       	eor	r12, r12
     d6c:	17 d0       	rcall	.+46     	; 0xd9c <spi_read>
     d6e:	d8 2a       	or	r13, r24
	rx_data |= spi_read();
     d70:	15 d0       	rcall	.+42     	; 0xd9c <spi_read>
     d72:	c8 2a       	or	r12, r24
     d74:	8d df       	rcall	.-230    	; 0xc90 <flip_ms5607>
	flip_ms5607();
     d76:	c7 01       	movw	r24, r14
     d78:	b6 01       	movw	r22, r12
	
	return rx_data;
}
     d7a:	ff 90       	pop	r15
     d7c:	ef 90       	pop	r14
     d7e:	df 90       	pop	r13
     d80:	cf 90       	pop	r12
     d82:	08 95       	ret

00000d84 <spi_init>:
     d84:	68 e0       	ldi	r22, 0x08	; 8
     d86:	83 e0       	ldi	r24, 0x03	; 3
	PORTC.DIR |= 0b10110000; 
}

void spi_select(uint8_t port)
{
	PORTC.OUT ^= port; //switches SS
     d88:	ac d1       	rcall	.+856    	; 0x10e2 <sysclk_enable_module>
     d8a:	81 e5       	ldi	r24, 0x51	; 81
     d8c:	80 93 c0 08 	sts	0x08C0, r24	; 0x8008c0 <__TEXT_REGION_LENGTH__+0x7008c0>
     d90:	e0 e4       	ldi	r30, 0x40	; 64
     d92:	f6 e0       	ldi	r31, 0x06	; 6
     d94:	80 81       	ld	r24, Z
     d96:	80 6b       	ori	r24, 0xB0	; 176
     d98:	80 83       	st	Z, r24
     d9a:	08 95       	ret

00000d9c <spi_read>:

uint8_t spi_read(void)
{
	uint8_t iter_max = 100;
	uint8_t count = 0;
	SPIC.DATA = 0xFF; // make the DATA register something we know
     d9c:	e0 ec       	ldi	r30, 0xC0	; 192
     d9e:	f8 e0       	ldi	r31, 0x08	; 8
     da0:	8f ef       	ldi	r24, 0xFF	; 255
     da2:	83 83       	std	Z+3, r24	; 0x03
	while(!(SPIC.STATUS>>7) && count < iter_max){ // wait for the SPI interrupt flag to let us know the transfer is complete
     da4:	82 81       	ldd	r24, Z+2	; 0x02
     da6:	88 23       	and	r24, r24
     da8:	34 f0       	brlt	.+12     	; 0xdb6 <spi_read+0x1a>
     daa:	84 e6       	ldi	r24, 0x64	; 100
     dac:	92 81       	ldd	r25, Z+2	; 0x02
     dae:	99 23       	and	r25, r25
     db0:	14 f0       	brlt	.+4      	; 0xdb6 <spi_read+0x1a>
     db2:	81 50       	subi	r24, 0x01	; 1
     db4:	d9 f7       	brne	.-10     	; 0xdac <spi_read+0x10>
		count++;	
	}
	
	return SPIC.DATA; // return the data from this function
     db6:	80 91 c3 08 	lds	r24, 0x08C3	; 0x8008c3 <__TEXT_REGION_LENGTH__+0x7008c3>
}
     dba:	08 95       	ret

00000dbc <spi_write>:

void spi_write(uint8_t data)
{
	SPIC.DATA = data; // write the data we want to send to the data register
     dbc:	80 93 c3 08 	sts	0x08C3, r24	; 0x8008c3 <__TEXT_REGION_LENGTH__+0x7008c3>
	while(!(SPIC.STATUS>>7)); // wait to ensure the data is sent before we do anything else
     dc0:	e0 ec       	ldi	r30, 0xC0	; 192
     dc2:	f8 e0       	ldi	r31, 0x08	; 8
     dc4:	82 81       	ldd	r24, Z+2	; 0x02
     dc6:	88 23       	and	r24, r24
     dc8:	ec f7       	brge	.-6      	; 0xdc4 <spi_write+0x8>
     dca:	08 95       	ret

00000dcc <usart_serial_getchar>:
 * \param usart   Base address of the USART instance.
 * \param data   Data to read
 *
 */
static inline void usart_serial_getchar(usart_if usart, uint8_t *data)
{
     dcc:	cf 93       	push	r28
     dce:	df 93       	push	r29
     dd0:	eb 01       	movw	r28, r22
	*data = usart_getchar(usart);
     dd2:	9d dc       	rcall	.-1734   	; 0x70e <usart_getchar>
     dd4:	88 83       	st	Y, r24
}
     dd6:	df 91       	pop	r29
     dd8:	cf 91       	pop	r28
     dda:	08 95       	ret

00000ddc <usart_serial_putchar>:
 *
 * \return Status code
 */
static inline enum status_code usart_serial_putchar(usart_if usart, uint8_t c)
{
	return usart_putchar(usart, c);
     ddc:	90 cc       	rjmp	.-1760   	; 0x6fe <usart_putchar>
}
     dde:	08 95       	ret

00000de0 <data_terminal_init>:

#include <asf.h>
#include "data_logger.h"

void data_terminal_init()
{
     de0:	cf 93       	push	r28
     de2:	df 93       	push	r29
     de4:	cd b7       	in	r28, 0x3d	; 61
     de6:	de b7       	in	r29, 0x3e	; 62
     de8:	27 97       	sbiw	r28, 0x07	; 7
     dea:	cd bf       	out	0x3d, r28	; 61
     dec:	de bf       	out	0x3e, r29	; 62
		sysclk_enable_module(SYSCLK_PORT_D, SYSCLK_USART0);
	}
#endif
#ifdef USARTE0
	else if (module == &USARTE0) {
		sysclk_enable_module(SYSCLK_PORT_E, SYSCLK_USART0);
     dee:	60 e1       	ldi	r22, 0x10	; 16
     df0:	85 e0       	ldi	r24, 0x05	; 5
     df2:	77 d1       	rcall	.+750    	; 0x10e2 <sysclk_enable_module>
		.charlength =	UART_TERMINAL_SERIAL_CHAR_LEN,
		.paritytype =	UART_TERMINAL_SERIAL_PARITY,
		.stopbits	=	UART_TERMINAL_SERIAL_STOP_BIT
	};
	
	UART_TERMINAL_PORT.DIR |= UART_TERMINAL_TX_PIN;	// set the USART transmit pin to output
     df4:	e0 e8       	ldi	r30, 0x80	; 128
     df6:	f6 e0       	ldi	r31, 0x06	; 6
     df8:	80 81       	ld	r24, Z
     dfa:	88 60       	ori	r24, 0x08	; 8
     dfc:	80 83       	st	Z, r24
 * \param opt         Options needed to set up RS232 communication (see \ref usart_options_t).
 *
 */
static inline void stdio_serial_init(volatile void *usart, const usart_serial_options_t *opt)
{
	stdio_base = (void *)usart;
     dfe:	80 ea       	ldi	r24, 0xA0	; 160
     e00:	9a e0       	ldi	r25, 0x0A	; 10
     e02:	80 93 f4 20 	sts	0x20F4, r24	; 0x8020f4 <stdio_base>
     e06:	90 93 f5 20 	sts	0x20F5, r25	; 0x8020f5 <stdio_base+0x1>
	ptr_put = (int (*)(void volatile*,char))&usart_serial_putchar;
     e0a:	8e ee       	ldi	r24, 0xEE	; 238
     e0c:	96 e0       	ldi	r25, 0x06	; 6
     e0e:	80 93 f2 20 	sts	0x20F2, r24	; 0x8020f2 <ptr_put>
     e12:	90 93 f3 20 	sts	0x20F3, r25	; 0x8020f3 <ptr_put+0x1>
	ptr_get = (void (*)(void volatile*,char*))&usart_serial_getchar;
     e16:	86 ee       	ldi	r24, 0xE6	; 230
     e18:	96 e0       	ldi	r25, 0x06	; 6
     e1a:	80 93 f0 20 	sts	0x20F0, r24	; 0x8020f0 <ptr_get>
     e1e:	90 93 f1 20 	sts	0x20F1, r25	; 0x8020f1 <ptr_get+0x1>
static inline bool usart_serial_init(usart_if usart, const
		usart_serial_options_t *options)
{
	// USART options.
	usart_rs232_options_t usart_rs232_options;
	usart_rs232_options.charlength   = options->charlength;
     e22:	ed e0       	ldi	r30, 0x0D	; 13
     e24:	f0 e2       	ldi	r31, 0x20	; 32
     e26:	84 81       	ldd	r24, Z+4	; 0x04
     e28:	8d 83       	std	Y+5, r24	; 0x05
	usart_rs232_options.paritytype   = options->paritytype;
     e2a:	85 81       	ldd	r24, Z+5	; 0x05
     e2c:	8e 83       	std	Y+6, r24	; 0x06
	usart_rs232_options.stopbits     = options->stopbits;
     e2e:	86 81       	ldd	r24, Z+6	; 0x06
     e30:	8f 83       	std	Y+7, r24	; 0x07
	usart_rs232_options.baudrate     = options->baudrate;
     e32:	80 81       	ld	r24, Z
     e34:	91 81       	ldd	r25, Z+1	; 0x01
     e36:	a2 81       	ldd	r26, Z+2	; 0x02
     e38:	b3 81       	ldd	r27, Z+3	; 0x03
     e3a:	89 83       	std	Y+1, r24	; 0x01
     e3c:	9a 83       	std	Y+2, r25	; 0x02
     e3e:	ab 83       	std	Y+3, r26	; 0x03
     e40:	bc 83       	std	Y+4, r27	; 0x04
		sysclk_enable_module(SYSCLK_PORT_D,PR_USART1_bm);
	}
#endif
#ifdef USARTE0
	if((uint16_t)usart == (uint16_t)&USARTE0) {
		sysclk_enable_module(SYSCLK_PORT_E,PR_USART0_bm);
     e42:	60 e1       	ldi	r22, 0x10	; 16
     e44:	85 e0       	ldi	r24, 0x05	; 5
     e46:	4d d1       	rcall	.+666    	; 0x10e2 <sysclk_enable_module>
#ifdef USARTF1
	if((uint16_t)usart == (uint16_t)&USARTF1) {
		sysclk_enable_module(SYSCLK_PORT_F,PR_USART1_bm);
	}
#endif
	if (usart_init_rs232(usart, &usart_rs232_options)) {
     e48:	be 01       	movw	r22, r28
     e4a:	6f 5f       	subi	r22, 0xFF	; 255
     e4c:	7f 4f       	sbci	r23, 0xFF	; 255
     e4e:	80 ea       	ldi	r24, 0xA0	; 160
     e50:	9a e0       	ldi	r25, 0x0A	; 10
     e52:	76 dd       	rcall	.-1300   	; 0x940 <usart_init_rs232>
# endif

# if defined(__GNUC__)
#  if (XMEGA || MEGA_RF)
	// For AVR GCC libc print redirection uses fdevopen.
	fdevopen((int (*)(char, FILE*))(_write),(int (*)(FILE*))(_read));
     e54:	6c e6       	ldi	r22, 0x6C	; 108
     e56:	71 e0       	ldi	r23, 0x01	; 1
     e58:	85 e8       	ldi	r24, 0x85	; 133
     e5a:	91 e0       	ldi	r25, 0x01	; 1
     e5c:	0e 94 a5 1a 	call	0x354a	; 0x354a <fdevopen>
	
	stdio_serial_init(UART_TERMINAL_SERIAL, &usart_config); // function maps the serial output to printf, not necessary to know how it works
     e60:	27 96       	adiw	r28, 0x07	; 7
     e62:	cd bf       	out	0x3d, r28	; 61
     e64:	de bf       	out	0x3e, r29	; 62
     e66:	df 91       	pop	r29
     e68:	cf 91       	pop	r28
     e6a:	08 95       	ret

00000e6c <rb16_write>:
	}
	else
	{
		buffer->tail = (buffer->tail + move_distance) % buffer->array_length; //Modulus is so that we don't point to above the buffer's location
	}
}
     e6c:	cf 93       	push	r28
     e6e:	df 93       	push	r29
     e70:	fc 01       	movw	r30, r24
     e72:	41 15       	cp	r20, r1
     e74:	51 05       	cpc	r21, r1
     e76:	b1 f1       	breq	.+108    	; 0xee4 <rb16_write+0x78>
     e78:	80 e0       	ldi	r24, 0x00	; 0
     e7a:	90 e0       	ldi	r25, 0x00	; 0
     e7c:	20 e0       	ldi	r18, 0x00	; 0
     e7e:	88 0f       	add	r24, r24
     e80:	99 1f       	adc	r25, r25
     e82:	db 01       	movw	r26, r22
     e84:	a8 0f       	add	r26, r24
     e86:	b9 1f       	adc	r27, r25
     e88:	8d 91       	ld	r24, X+
     e8a:	9c 91       	ld	r25, X
     e8c:	a2 81       	ldd	r26, Z+2	; 0x02
     e8e:	b3 81       	ldd	r27, Z+3	; 0x03
     e90:	aa 0f       	add	r26, r26
     e92:	bb 1f       	adc	r27, r27
     e94:	c6 81       	ldd	r28, Z+6	; 0x06
     e96:	d7 81       	ldd	r29, Z+7	; 0x07
     e98:	ac 0f       	add	r26, r28
     e9a:	bd 1f       	adc	r27, r29
     e9c:	8d 93       	st	X+, r24
     e9e:	9c 93       	st	X, r25
     ea0:	82 81       	ldd	r24, Z+2	; 0x02
     ea2:	93 81       	ldd	r25, Z+3	; 0x03
     ea4:	01 96       	adiw	r24, 0x01	; 1
     ea6:	82 83       	std	Z+2, r24	; 0x02
     ea8:	93 83       	std	Z+3, r25	; 0x03
     eaa:	a0 81       	ld	r26, Z
     eac:	b1 81       	ldd	r27, Z+1	; 0x01
     eae:	8a 17       	cp	r24, r26
     eb0:	9b 07       	cpc	r25, r27
     eb2:	11 f4       	brne	.+4      	; 0xeb8 <rb16_write+0x4c>
     eb4:	12 82       	std	Z+2, r1	; 0x02
     eb6:	13 82       	std	Z+3, r1	; 0x03
     eb8:	82 81       	ldd	r24, Z+2	; 0x02
     eba:	93 81       	ldd	r25, Z+3	; 0x03
     ebc:	c4 81       	ldd	r28, Z+4	; 0x04
     ebe:	d5 81       	ldd	r29, Z+5	; 0x05
     ec0:	8c 17       	cp	r24, r28
     ec2:	9d 07       	cpc	r25, r29
     ec4:	49 f4       	brne	.+18     	; 0xed8 <rb16_write+0x6c>
     ec6:	01 96       	adiw	r24, 0x01	; 1
     ec8:	a8 17       	cp	r26, r24
     eca:	b9 07       	cpc	r27, r25
     ecc:	19 f0       	breq	.+6      	; 0xed4 <rb16_write+0x68>
     ece:	84 83       	std	Z+4, r24	; 0x04
     ed0:	95 83       	std	Z+5, r25	; 0x05
     ed2:	02 c0       	rjmp	.+4      	; 0xed8 <rb16_write+0x6c>
     ed4:	14 82       	std	Z+4, r1	; 0x04
     ed6:	15 82       	std	Z+5, r1	; 0x05
     ed8:	2f 5f       	subi	r18, 0xFF	; 255
     eda:	82 2f       	mov	r24, r18
     edc:	90 e0       	ldi	r25, 0x00	; 0
     ede:	84 17       	cp	r24, r20
     ee0:	95 07       	cpc	r25, r21
     ee2:	68 f2       	brcs	.-102    	; 0xe7e <rb16_write+0x12>
     ee4:	df 91       	pop	r29
     ee6:	cf 91       	pop	r28
     ee8:	08 95       	ret

00000eea <rb16_init>:
     eea:	fc 01       	movw	r30, r24
     eec:	12 82       	std	Z+2, r1	; 0x02
     eee:	13 82       	std	Z+3, r1	; 0x03
     ef0:	14 82       	std	Z+4, r1	; 0x04
     ef2:	15 82       	std	Z+5, r1	; 0x05
     ef4:	66 83       	std	Z+6, r22	; 0x06
     ef6:	77 83       	std	Z+7, r23	; 0x07
     ef8:	40 83       	st	Z, r20
     efa:	51 83       	std	Z+1, r21	; 0x01
     efc:	08 95       	ret

00000efe <rb16_get_nth>:
     efe:	dc 01       	movw	r26, r24
     f00:	12 96       	adiw	r26, 0x02	; 2
     f02:	ed 91       	ld	r30, X+
     f04:	fc 91       	ld	r31, X
     f06:	13 97       	sbiw	r26, 0x03	; 3
     f08:	cb 01       	movw	r24, r22
     f0a:	01 96       	adiw	r24, 0x01	; 1
     f0c:	e8 17       	cp	r30, r24
     f0e:	f9 07       	cpc	r31, r25
     f10:	78 f0       	brcs	.+30     	; 0xf30 <rb16_get_nth+0x32>
     f12:	e1 50       	subi	r30, 0x01	; 1
     f14:	f0 48       	sbci	r31, 0x80	; 128
     f16:	e6 1b       	sub	r30, r22
     f18:	f7 0b       	sbc	r31, r23
     f1a:	ee 0f       	add	r30, r30
     f1c:	ff 1f       	adc	r31, r31
     f1e:	16 96       	adiw	r26, 0x06	; 6
     f20:	8d 91       	ld	r24, X+
     f22:	9c 91       	ld	r25, X
     f24:	17 97       	sbiw	r26, 0x07	; 7
     f26:	e8 0f       	add	r30, r24
     f28:	f9 1f       	adc	r31, r25
     f2a:	80 81       	ld	r24, Z
     f2c:	91 81       	ldd	r25, Z+1	; 0x01
     f2e:	08 95       	ret
     f30:	2d 91       	ld	r18, X+
     f32:	3c 91       	ld	r19, X
     f34:	11 97       	sbiw	r26, 0x01	; 1
     f36:	e2 0f       	add	r30, r18
     f38:	f3 1f       	adc	r31, r19
     f3a:	e1 50       	subi	r30, 0x01	; 1
     f3c:	f0 48       	sbci	r31, 0x80	; 128
     f3e:	e6 1b       	sub	r30, r22
     f40:	f7 0b       	sbc	r31, r23
     f42:	ee 0f       	add	r30, r30
     f44:	ff 1f       	adc	r31, r31
     f46:	16 96       	adiw	r26, 0x06	; 6
     f48:	8d 91       	ld	r24, X+
     f4a:	9c 91       	ld	r25, X
     f4c:	17 97       	sbiw	r26, 0x07	; 7
     f4e:	e8 0f       	add	r30, r24
     f50:	f9 1f       	adc	r31, r25
     f52:	80 81       	ld	r24, Z
     f54:	91 81       	ldd	r25, Z+1	; 0x01
     f56:	08 95       	ret

00000f58 <rb32_write>:
     f58:	cf 92       	push	r12
     f5a:	df 92       	push	r13
     f5c:	ef 92       	push	r14
     f5e:	ff 92       	push	r15
     f60:	cf 93       	push	r28
     f62:	df 93       	push	r29
     f64:	fc 01       	movw	r30, r24
     f66:	41 15       	cp	r20, r1
     f68:	51 05       	cpc	r21, r1
     f6a:	09 f4       	brne	.+2      	; 0xf6e <rb32_write+0x16>
     f6c:	3f c0       	rjmp	.+126    	; 0xfec <rb32_write+0x94>
     f6e:	80 e0       	ldi	r24, 0x00	; 0
     f70:	90 e0       	ldi	r25, 0x00	; 0
     f72:	20 e0       	ldi	r18, 0x00	; 0
     f74:	88 0f       	add	r24, r24
     f76:	99 1f       	adc	r25, r25
     f78:	88 0f       	add	r24, r24
     f7a:	99 1f       	adc	r25, r25
     f7c:	db 01       	movw	r26, r22
     f7e:	a8 0f       	add	r26, r24
     f80:	b9 1f       	adc	r27, r25
     f82:	cd 90       	ld	r12, X+
     f84:	dd 90       	ld	r13, X+
     f86:	ed 90       	ld	r14, X+
     f88:	fc 90       	ld	r15, X
     f8a:	a2 81       	ldd	r26, Z+2	; 0x02
     f8c:	b3 81       	ldd	r27, Z+3	; 0x03
     f8e:	aa 0f       	add	r26, r26
     f90:	bb 1f       	adc	r27, r27
     f92:	aa 0f       	add	r26, r26
     f94:	bb 1f       	adc	r27, r27
     f96:	86 81       	ldd	r24, Z+6	; 0x06
     f98:	97 81       	ldd	r25, Z+7	; 0x07
     f9a:	a8 0f       	add	r26, r24
     f9c:	b9 1f       	adc	r27, r25
     f9e:	cd 92       	st	X+, r12
     fa0:	dd 92       	st	X+, r13
     fa2:	ed 92       	st	X+, r14
     fa4:	fc 92       	st	X, r15
     fa6:	13 97       	sbiw	r26, 0x03	; 3
     fa8:	82 81       	ldd	r24, Z+2	; 0x02
     faa:	93 81       	ldd	r25, Z+3	; 0x03
     fac:	01 96       	adiw	r24, 0x01	; 1
     fae:	82 83       	std	Z+2, r24	; 0x02
     fb0:	93 83       	std	Z+3, r25	; 0x03
     fb2:	a0 81       	ld	r26, Z
     fb4:	b1 81       	ldd	r27, Z+1	; 0x01
     fb6:	8a 17       	cp	r24, r26
     fb8:	9b 07       	cpc	r25, r27
     fba:	11 f4       	brne	.+4      	; 0xfc0 <rb32_write+0x68>
     fbc:	12 82       	std	Z+2, r1	; 0x02
     fbe:	13 82       	std	Z+3, r1	; 0x03
     fc0:	82 81       	ldd	r24, Z+2	; 0x02
     fc2:	93 81       	ldd	r25, Z+3	; 0x03
     fc4:	c4 81       	ldd	r28, Z+4	; 0x04
     fc6:	d5 81       	ldd	r29, Z+5	; 0x05
     fc8:	8c 17       	cp	r24, r28
     fca:	9d 07       	cpc	r25, r29
     fcc:	49 f4       	brne	.+18     	; 0xfe0 <rb32_write+0x88>
     fce:	01 96       	adiw	r24, 0x01	; 1
     fd0:	a8 17       	cp	r26, r24
     fd2:	b9 07       	cpc	r27, r25
     fd4:	19 f0       	breq	.+6      	; 0xfdc <rb32_write+0x84>
     fd6:	84 83       	std	Z+4, r24	; 0x04
     fd8:	95 83       	std	Z+5, r25	; 0x05
     fda:	02 c0       	rjmp	.+4      	; 0xfe0 <rb32_write+0x88>
     fdc:	14 82       	std	Z+4, r1	; 0x04
     fde:	15 82       	std	Z+5, r1	; 0x05
     fe0:	2f 5f       	subi	r18, 0xFF	; 255
     fe2:	82 2f       	mov	r24, r18
     fe4:	90 e0       	ldi	r25, 0x00	; 0
     fe6:	84 17       	cp	r24, r20
     fe8:	95 07       	cpc	r25, r21
     fea:	20 f2       	brcs	.-120    	; 0xf74 <rb32_write+0x1c>
     fec:	df 91       	pop	r29
     fee:	cf 91       	pop	r28
     ff0:	ff 90       	pop	r15
     ff2:	ef 90       	pop	r14
     ff4:	df 90       	pop	r13
     ff6:	cf 90       	pop	r12
     ff8:	08 95       	ret

00000ffa <rb32_init>:
     ffa:	fc 01       	movw	r30, r24
     ffc:	12 82       	std	Z+2, r1	; 0x02
     ffe:	13 82       	std	Z+3, r1	; 0x03
    1000:	14 82       	std	Z+4, r1	; 0x04
    1002:	15 82       	std	Z+5, r1	; 0x05
    1004:	66 83       	std	Z+6, r22	; 0x06
    1006:	77 83       	std	Z+7, r23	; 0x07
    1008:	40 83       	st	Z, r20
    100a:	51 83       	std	Z+1, r21	; 0x01
    100c:	08 95       	ret

0000100e <rb32_get_nth>:
	}
}

int32_t rb32_get_nth(RingBuffer32_t* buffer, uint16_t index)
//Returns the nth newest value in the RingBuffer
{
    100e:	dc 01       	movw	r26, r24
	//Does not do bounds checking, so be careful in usage
	//	Verify index < rb16_length() to guard against requesting a value beyond what the buffer currently stores
	//	Verify index < buffer->array_length to guard against requesting a value from some random memory location
	
	//Most recent value is in head - 1
	if (index + 1 <= buffer->head) //Value is between zero and buffer->head
    1010:	12 96       	adiw	r26, 0x02	; 2
    1012:	ed 91       	ld	r30, X+
    1014:	fc 91       	ld	r31, X
    1016:	13 97       	sbiw	r26, 0x03	; 3
    1018:	cb 01       	movw	r24, r22
    101a:	01 96       	adiw	r24, 0x01	; 1
    101c:	e8 17       	cp	r30, r24
    101e:	f9 07       	cpc	r31, r25
    1020:	98 f0       	brcs	.+38     	; 0x1048 <rb32_get_nth+0x3a>
		return buffer->buffer[buffer->head - index - 1];
    1022:	e1 50       	subi	r30, 0x01	; 1
    1024:	f0 4c       	sbci	r31, 0xC0	; 192
    1026:	e6 1b       	sub	r30, r22
    1028:	f7 0b       	sbc	r31, r23
    102a:	ee 0f       	add	r30, r30
    102c:	ff 1f       	adc	r31, r31
    102e:	ee 0f       	add	r30, r30
    1030:	ff 1f       	adc	r31, r31
    1032:	16 96       	adiw	r26, 0x06	; 6
    1034:	8d 91       	ld	r24, X+
    1036:	9c 91       	ld	r25, X
    1038:	17 97       	sbiw	r26, 0x07	; 7
    103a:	e8 0f       	add	r30, r24
    103c:	f9 1f       	adc	r31, r25
    103e:	60 81       	ld	r22, Z
    1040:	71 81       	ldd	r23, Z+1	; 0x01
    1042:	82 81       	ldd	r24, Z+2	; 0x02
    1044:	93 81       	ldd	r25, Z+3	; 0x03
    1046:	08 95       	ret
	else
		return buffer->buffer[buffer->array_length - 1 - index + buffer->head];
    1048:	2d 91       	ld	r18, X+
    104a:	3c 91       	ld	r19, X
    104c:	11 97       	sbiw	r26, 0x01	; 1
    104e:	e2 0f       	add	r30, r18
    1050:	f3 1f       	adc	r31, r19
    1052:	e1 50       	subi	r30, 0x01	; 1
    1054:	f0 4c       	sbci	r31, 0xC0	; 192
    1056:	e6 1b       	sub	r30, r22
    1058:	f7 0b       	sbc	r31, r23
    105a:	ee 0f       	add	r30, r30
    105c:	ff 1f       	adc	r31, r31
    105e:	ee 0f       	add	r30, r30
    1060:	ff 1f       	adc	r31, r31
    1062:	16 96       	adiw	r26, 0x06	; 6
    1064:	8d 91       	ld	r24, X+
    1066:	9c 91       	ld	r25, X
    1068:	17 97       	sbiw	r26, 0x07	; 7
    106a:	e8 0f       	add	r30, r24
    106c:	f9 1f       	adc	r31, r25
    106e:	60 81       	ld	r22, Z
    1070:	71 81       	ldd	r23, Z+1	; 0x01
    1072:	82 81       	ldd	r24, Z+2	; 0x02
    1074:	93 81       	ldd	r25, Z+3	; 0x03
}
    1076:	08 95       	ret

00001078 <sysclk_init>:
#  include <nvm.h>
#endif


void sysclk_init(void)
{
    1078:	cf 93       	push	r28
    107a:	df 93       	push	r29
    107c:	1f 92       	push	r1
    107e:	1f 92       	push	r1
    1080:	cd b7       	in	r28, 0x3d	; 61
    1082:	de b7       	in	r29, 0x3e	; 62
#endif
	bool need_rc2mhz = false;

	/* Turn off all peripheral clocks that can be turned off. */
	for (i = 0; i <= SYSCLK_PORT_F; i++) {
		*(reg++) = 0xff;
    1084:	8f ef       	ldi	r24, 0xFF	; 255
    1086:	80 93 70 00 	sts	0x0070, r24	; 0x800070 <__TEXT_REGION_LENGTH__+0x700070>
    108a:	80 93 71 00 	sts	0x0071, r24	; 0x800071 <__TEXT_REGION_LENGTH__+0x700071>
    108e:	80 93 72 00 	sts	0x0072, r24	; 0x800072 <__TEXT_REGION_LENGTH__+0x700072>
    1092:	80 93 73 00 	sts	0x0073, r24	; 0x800073 <__TEXT_REGION_LENGTH__+0x700073>
    1096:	80 93 74 00 	sts	0x0074, r24	; 0x800074 <__TEXT_REGION_LENGTH__+0x700074>
    109a:	80 93 75 00 	sts	0x0075, r24	; 0x800075 <__TEXT_REGION_LENGTH__+0x700075>
    109e:	80 93 76 00 	sts	0x0076, r24	; 0x800076 <__TEXT_REGION_LENGTH__+0x700076>

typedef uint8_t irqflags_t;

static inline irqflags_t cpu_irq_save(void)
{
	volatile irqflags_t flags = SREG;
    10a2:	8f b7       	in	r24, 0x3f	; 63
    10a4:	8a 83       	std	Y+2, r24	; 0x02
	cpu_irq_disable();
    10a6:	f8 94       	cli
	return flags;
    10a8:	9a 81       	ldd	r25, Y+2	; 0x02
	irqflags_t flags;

	Assert(id != OSC_ID_USBSOF);

	flags = cpu_irq_save();
	OSC.CTRL |= id;
    10aa:	e0 e5       	ldi	r30, 0x50	; 80
    10ac:	f0 e0       	ldi	r31, 0x00	; 0
    10ae:	80 81       	ld	r24, Z
    10b0:	82 60       	ori	r24, 0x02	; 2
    10b2:	80 83       	st	Z, r24
}

static inline void cpu_irq_restore(irqflags_t flags)
{
	barrier();
	SREG = flags;
    10b4:	9f bf       	out	0x3f, r25	; 63

static inline bool osc_is_ready(uint8_t id)
{
	Assert(id != OSC_ID_USBSOF);

	return OSC.STATUS & id;
    10b6:	81 81       	ldd	r24, Z+1	; 0x01
 *
 * \param id A number identifying the oscillator to wait for.
 */
static inline void osc_wait_ready(uint8_t id)
{
	while (!osc_is_ready(id)) {
    10b8:	81 ff       	sbrs	r24, 1
    10ba:	fd cf       	rjmp	.-6      	; 0x10b6 <sysclk_init+0x3e>
		default:
			//unhandled_case(CONFIG_SYSCLK_SOURCE);
			return;
		}

		ccp_write_io((uint8_t *)&CLK.CTRL, CONFIG_SYSCLK_SOURCE);
    10bc:	61 e0       	ldi	r22, 0x01	; 1
    10be:	80 e4       	ldi	r24, 0x40	; 64
    10c0:	90 e0       	ldi	r25, 0x00	; 0
    10c2:	25 d0       	rcall	.+74     	; 0x110e <ccp_write_io>

typedef uint8_t irqflags_t;

static inline irqflags_t cpu_irq_save(void)
{
	volatile irqflags_t flags = SREG;
    10c4:	8f b7       	in	r24, 0x3f	; 63
    10c6:	89 83       	std	Y+1, r24	; 0x01
	cpu_irq_disable();
    10c8:	f8 94       	cli
	return flags;
    10ca:	99 81       	ldd	r25, Y+1	; 0x01
	irqflags_t flags;

	Assert(id != OSC_ID_USBSOF);

	flags = cpu_irq_save();
	OSC.CTRL &= ~id;
    10cc:	e0 e5       	ldi	r30, 0x50	; 80
    10ce:	f0 e0       	ldi	r31, 0x00	; 0
    10d0:	80 81       	ld	r24, Z
    10d2:	8e 7f       	andi	r24, 0xFE	; 254
    10d4:	80 83       	st	Z, r24
}

static inline void cpu_irq_restore(irqflags_t flags)
{
	barrier();
	SREG = flags;
    10d6:	9f bf       	out	0x3f, r25	; 63
	}

#ifdef CONFIG_RTC_SOURCE
	sysclk_rtcsrc_enable(CONFIG_RTC_SOURCE);
#endif
}
    10d8:	0f 90       	pop	r0
    10da:	0f 90       	pop	r0
    10dc:	df 91       	pop	r29
    10de:	cf 91       	pop	r28
    10e0:	08 95       	ret

000010e2 <sysclk_enable_module>:

void sysclk_enable_module(enum sysclk_port_id port, uint8_t id)
{
    10e2:	cf 93       	push	r28
    10e4:	df 93       	push	r29
    10e6:	1f 92       	push	r1
    10e8:	cd b7       	in	r28, 0x3d	; 61
    10ea:	de b7       	in	r29, 0x3e	; 62

typedef uint8_t irqflags_t;

static inline irqflags_t cpu_irq_save(void)
{
	volatile irqflags_t flags = SREG;
    10ec:	9f b7       	in	r25, 0x3f	; 63
    10ee:	99 83       	std	Y+1, r25	; 0x01
	cpu_irq_disable();
    10f0:	f8 94       	cli
	return flags;
    10f2:	99 81       	ldd	r25, Y+1	; 0x01
	irqflags_t flags = cpu_irq_save();

	*((uint8_t *)&PR.PRGEN + port) &= ~id;
    10f4:	e8 2f       	mov	r30, r24
    10f6:	f0 e0       	ldi	r31, 0x00	; 0
    10f8:	e0 59       	subi	r30, 0x90	; 144
    10fa:	ff 4f       	sbci	r31, 0xFF	; 255
    10fc:	60 95       	com	r22
    10fe:	80 81       	ld	r24, Z
    1100:	68 23       	and	r22, r24
    1102:	60 83       	st	Z, r22
}

static inline void cpu_irq_restore(irqflags_t flags)
{
	barrier();
	SREG = flags;
    1104:	9f bf       	out	0x3f, r25	; 63

	cpu_irq_restore(flags);
}
    1106:	0f 90       	pop	r0
    1108:	df 91       	pop	r29
    110a:	cf 91       	pop	r28
    110c:	08 95       	ret

0000110e <ccp_write_io>:

	PUBLIC_FUNCTION(ccp_write_io)

#if defined(__GNUC__)

	out     RAMPZ, r1               // Reset bits 23:16 of Z
    110e:	1b be       	out	0x3b, r1	; 59
	movw    r30, r24                // Load addr into Z
    1110:	fc 01       	movw	r30, r24
	ldi     r18, CCP_IOREG          // Load magic CCP value
    1112:	28 ed       	ldi	r18, 0xD8	; 216
	out     CCP, r18                // Start CCP handshake
    1114:	24 bf       	out	0x34, r18	; 52
	st      Z, r22                  // Write value to I/O register
    1116:	60 83       	st	Z, r22
	ret                             // Return to caller
    1118:	08 95       	ret

0000111a <__portable_avr_delay_cycles>:
	
	NVM.CMD = ERASE_EEPROM;
	CCP = CCP_IOREG_MODE;
	NVM.CTRLA = CTRLA_CMDEX_BYTE;
	while(NVM.STATUS>>7);
}
    111a:	04 c0       	rjmp	.+8      	; 0x1124 <__portable_avr_delay_cycles+0xa>
    111c:	61 50       	subi	r22, 0x01	; 1
    111e:	71 09       	sbc	r23, r1
    1120:	81 09       	sbc	r24, r1
    1122:	91 09       	sbc	r25, r1
    1124:	61 15       	cp	r22, r1
    1126:	71 05       	cpc	r23, r1
    1128:	81 05       	cpc	r24, r1
    112a:	91 05       	cpc	r25, r1
    112c:	b9 f7       	brne	.-18     	; 0x111c <__portable_avr_delay_cycles+0x2>
    112e:	08 95       	ret

00001130 <pressure_init>:
    1130:	cf 93       	push	r28
    1132:	df 93       	push	r29
    1134:	b4 dd       	rcall	.-1176   	; 0xc9e <ms5607_init>
    1136:	82 ea       	ldi	r24, 0xA2	; 162
    1138:	90 e0       	ldi	r25, 0x00	; 0
    113a:	ca dd       	rcall	.-1132   	; 0xcd0 <ms5607_read>
    113c:	cd ed       	ldi	r28, 0xDD	; 221
    113e:	d0 e2       	ldi	r29, 0x20	; 32
    1140:	88 83       	st	Y, r24
    1142:	99 83       	std	Y+1, r25	; 0x01
    1144:	84 ea       	ldi	r24, 0xA4	; 164
    1146:	90 e0       	ldi	r25, 0x00	; 0
    1148:	c3 dd       	rcall	.-1146   	; 0xcd0 <ms5607_read>
    114a:	8a 83       	std	Y+2, r24	; 0x02
    114c:	9b 83       	std	Y+3, r25	; 0x03
    114e:	86 ea       	ldi	r24, 0xA6	; 166
    1150:	90 e0       	ldi	r25, 0x00	; 0
    1152:	be dd       	rcall	.-1156   	; 0xcd0 <ms5607_read>
    1154:	8c 83       	std	Y+4, r24	; 0x04
    1156:	9d 83       	std	Y+5, r25	; 0x05
    1158:	88 ea       	ldi	r24, 0xA8	; 168
    115a:	90 e0       	ldi	r25, 0x00	; 0
    115c:	b9 dd       	rcall	.-1166   	; 0xcd0 <ms5607_read>
    115e:	8e 83       	std	Y+6, r24	; 0x06
    1160:	9f 83       	std	Y+7, r25	; 0x07
    1162:	8a ea       	ldi	r24, 0xAA	; 170
    1164:	90 e0       	ldi	r25, 0x00	; 0
    1166:	b4 dd       	rcall	.-1176   	; 0xcd0 <ms5607_read>
    1168:	88 87       	std	Y+8, r24	; 0x08
    116a:	99 87       	std	Y+9, r25	; 0x09
    116c:	8c ea       	ldi	r24, 0xAC	; 172
    116e:	90 e0       	ldi	r25, 0x00	; 0
    1170:	af dd       	rcall	.-1186   	; 0xcd0 <ms5607_read>
    1172:	8a 87       	std	Y+10, r24	; 0x0a
    1174:	9b 87       	std	Y+11, r25	; 0x0b
    1176:	df 91       	pop	r29
    1178:	cf 91       	pop	r28
    117a:	08 95       	ret

0000117c <gps_init>:
    117c:	50 dd       	rcall	.-1376   	; 0xc1e <gps_uart_init>
    117e:	6b ea       	ldi	r22, 0xAB	; 171
    1180:	79 e2       	ldi	r23, 0x29	; 41
    1182:	80 e0       	ldi	r24, 0x00	; 0
    1184:	90 e0       	ldi	r25, 0x00	; 0
    1186:	c9 df       	rcall	.-110    	; 0x111a <__portable_avr_delay_cycles>
    1188:	80 e3       	ldi	r24, 0x30	; 48
    118a:	80 93 b3 09 	sts	0x09B3, r24	; 0x8009b3 <__TEXT_REGION_LENGTH__+0x7009b3>
    118e:	08 95       	ret

00001190 <get_pressure>:
    1190:	4f 92       	push	r4
    1192:	5f 92       	push	r5
    1194:	6f 92       	push	r6
    1196:	7f 92       	push	r7
    1198:	8f 92       	push	r8
    119a:	9f 92       	push	r9
    119c:	af 92       	push	r10
    119e:	bf 92       	push	r11
    11a0:	cf 92       	push	r12
    11a2:	df 92       	push	r13
    11a4:	ef 92       	push	r14
    11a6:	ff 92       	push	r15
    11a8:	cf 93       	push	r28
    11aa:	df 93       	push	r29
    11ac:	a3 dd       	rcall	.-1210   	; 0xcf4 <ms5607_convert_d1>
    11ae:	6b 01       	movw	r12, r22
    11b0:	7c 01       	movw	r14, r24
    11b2:	c4 dd       	rcall	.-1144   	; 0xd3c <ms5607_convert_d2>
    11b4:	0e 94 94 17 	call	0x2f28	; 0x2f28 <__floatunsisf>
    11b8:	4b 01       	movw	r8, r22
    11ba:	5c 01       	movw	r10, r24
    11bc:	cd ed       	ldi	r28, 0xDD	; 221
    11be:	d0 e2       	ldi	r29, 0x20	; 32
    11c0:	68 85       	ldd	r22, Y+8	; 0x08
    11c2:	79 85       	ldd	r23, Y+9	; 0x09
    11c4:	80 e0       	ldi	r24, 0x00	; 0
    11c6:	90 e0       	ldi	r25, 0x00	; 0
    11c8:	0e 94 94 17 	call	0x2f28	; 0x2f28 <__floatunsisf>
    11cc:	20 e0       	ldi	r18, 0x00	; 0
    11ce:	30 e0       	ldi	r19, 0x00	; 0
    11d0:	40 e8       	ldi	r20, 0x80	; 128
    11d2:	53 e4       	ldi	r21, 0x43	; 67
    11d4:	0e 94 76 18 	call	0x30ec	; 0x30ec <__mulsf3>
    11d8:	9b 01       	movw	r18, r22
    11da:	ac 01       	movw	r20, r24
    11dc:	c5 01       	movw	r24, r10
    11de:	b4 01       	movw	r22, r8
    11e0:	0e 94 92 16 	call	0x2d24	; 0x2d24 <__subsf3>
    11e4:	4b 01       	movw	r8, r22
    11e6:	5c 01       	movw	r10, r24
    11e8:	6c 81       	ldd	r22, Y+4	; 0x04
    11ea:	7d 81       	ldd	r23, Y+5	; 0x05
    11ec:	80 e0       	ldi	r24, 0x00	; 0
    11ee:	90 e0       	ldi	r25, 0x00	; 0
    11f0:	0e 94 94 17 	call	0x2f28	; 0x2f28 <__floatunsisf>
    11f4:	a5 01       	movw	r20, r10
    11f6:	94 01       	movw	r18, r8
    11f8:	0e 94 76 18 	call	0x30ec	; 0x30ec <__mulsf3>
    11fc:	20 e0       	ldi	r18, 0x00	; 0
    11fe:	30 e0       	ldi	r19, 0x00	; 0
    1200:	40 e0       	ldi	r20, 0x00	; 0
    1202:	5c e3       	ldi	r21, 0x3C	; 60
    1204:	0e 94 76 18 	call	0x30ec	; 0x30ec <__mulsf3>
    1208:	2b 01       	movw	r4, r22
    120a:	3c 01       	movw	r6, r24
    120c:	68 81       	ld	r22, Y
    120e:	79 81       	ldd	r23, Y+1	; 0x01
    1210:	80 e0       	ldi	r24, 0x00	; 0
    1212:	90 e0       	ldi	r25, 0x00	; 0
    1214:	0e 94 94 17 	call	0x2f28	; 0x2f28 <__floatunsisf>
    1218:	20 e0       	ldi	r18, 0x00	; 0
    121a:	30 e0       	ldi	r19, 0x00	; 0
    121c:	40 e8       	ldi	r20, 0x80	; 128
    121e:	57 e4       	ldi	r21, 0x47	; 71
    1220:	0e 94 76 18 	call	0x30ec	; 0x30ec <__mulsf3>
    1224:	9b 01       	movw	r18, r22
    1226:	ac 01       	movw	r20, r24
    1228:	c3 01       	movw	r24, r6
    122a:	b2 01       	movw	r22, r4
    122c:	0e 94 93 16 	call	0x2d26	; 0x2d26 <__addsf3>
    1230:	2b 01       	movw	r4, r22
    1232:	3c 01       	movw	r6, r24
    1234:	c7 01       	movw	r24, r14
    1236:	b6 01       	movw	r22, r12
    1238:	0e 94 94 17 	call	0x2f28	; 0x2f28 <__floatunsisf>
    123c:	9b 01       	movw	r18, r22
    123e:	ac 01       	movw	r20, r24
    1240:	c3 01       	movw	r24, r6
    1242:	b2 01       	movw	r22, r4
    1244:	0e 94 76 18 	call	0x30ec	; 0x30ec <__mulsf3>
    1248:	20 e0       	ldi	r18, 0x00	; 0
    124a:	30 e0       	ldi	r19, 0x00	; 0
    124c:	40 e0       	ldi	r20, 0x00	; 0
    124e:	55 e3       	ldi	r21, 0x35	; 53
    1250:	0e 94 76 18 	call	0x30ec	; 0x30ec <__mulsf3>
    1254:	6b 01       	movw	r12, r22
    1256:	7c 01       	movw	r14, r24
    1258:	6e 81       	ldd	r22, Y+6	; 0x06
    125a:	7f 81       	ldd	r23, Y+7	; 0x07
    125c:	80 e0       	ldi	r24, 0x00	; 0
    125e:	90 e0       	ldi	r25, 0x00	; 0
    1260:	0e 94 94 17 	call	0x2f28	; 0x2f28 <__floatunsisf>
    1264:	a5 01       	movw	r20, r10
    1266:	94 01       	movw	r18, r8
    1268:	0e 94 76 18 	call	0x30ec	; 0x30ec <__mulsf3>
    126c:	20 e0       	ldi	r18, 0x00	; 0
    126e:	30 e0       	ldi	r19, 0x00	; 0
    1270:	40 e8       	ldi	r20, 0x80	; 128
    1272:	5c e3       	ldi	r21, 0x3C	; 60
    1274:	0e 94 76 18 	call	0x30ec	; 0x30ec <__mulsf3>
    1278:	4b 01       	movw	r8, r22
    127a:	5c 01       	movw	r10, r24
    127c:	6a 81       	ldd	r22, Y+2	; 0x02
    127e:	7b 81       	ldd	r23, Y+3	; 0x03
    1280:	80 e0       	ldi	r24, 0x00	; 0
    1282:	90 e0       	ldi	r25, 0x00	; 0
    1284:	0e 94 94 17 	call	0x2f28	; 0x2f28 <__floatunsisf>
    1288:	20 e0       	ldi	r18, 0x00	; 0
    128a:	30 e0       	ldi	r19, 0x00	; 0
    128c:	40 e0       	ldi	r20, 0x00	; 0
    128e:	58 e4       	ldi	r21, 0x48	; 72
    1290:	0e 94 76 18 	call	0x30ec	; 0x30ec <__mulsf3>
    1294:	9b 01       	movw	r18, r22
    1296:	ac 01       	movw	r20, r24
    1298:	c5 01       	movw	r24, r10
    129a:	b4 01       	movw	r22, r8
    129c:	0e 94 93 16 	call	0x2d26	; 0x2d26 <__addsf3>
    12a0:	9b 01       	movw	r18, r22
    12a2:	ac 01       	movw	r20, r24
    12a4:	c7 01       	movw	r24, r14
    12a6:	b6 01       	movw	r22, r12
    12a8:	0e 94 92 16 	call	0x2d24	; 0x2d24 <__subsf3>
    12ac:	20 e0       	ldi	r18, 0x00	; 0
    12ae:	30 e0       	ldi	r19, 0x00	; 0
    12b0:	40 e0       	ldi	r20, 0x00	; 0
    12b2:	58 e3       	ldi	r21, 0x38	; 56
    12b4:	0e 94 76 18 	call	0x30ec	; 0x30ec <__mulsf3>
    12b8:	df 91       	pop	r29
    12ba:	cf 91       	pop	r28
    12bc:	ff 90       	pop	r15
    12be:	ef 90       	pop	r14
    12c0:	df 90       	pop	r13
    12c2:	cf 90       	pop	r12
    12c4:	bf 90       	pop	r11
    12c6:	af 90       	pop	r10
    12c8:	9f 90       	pop	r9
    12ca:	8f 90       	pop	r8
    12cc:	7f 90       	pop	r7
    12ce:	6f 90       	pop	r6
    12d0:	5f 90       	pop	r5
    12d2:	4f 90       	pop	r4
    12d4:	08 95       	ret

000012d6 <get_altitude>:
    12d6:	4f 92       	push	r4
    12d8:	5f 92       	push	r5
    12da:	6f 92       	push	r6
    12dc:	7f 92       	push	r7
    12de:	8f 92       	push	r8
    12e0:	9f 92       	push	r9
    12e2:	af 92       	push	r10
    12e4:	bf 92       	push	r11
    12e6:	cf 92       	push	r12
    12e8:	df 92       	push	r13
    12ea:	ef 92       	push	r14
    12ec:	ff 92       	push	r15
    12ee:	2b 01       	movw	r4, r22
    12f0:	3c 01       	movw	r6, r24
    12f2:	c0 90 21 20 	lds	r12, 0x2021	; 0x802021 <L>
    12f6:	d0 90 22 20 	lds	r13, 0x2022	; 0x802022 <L+0x1>
    12fa:	e0 90 23 20 	lds	r14, 0x2023	; 0x802023 <L+0x2>
    12fe:	f0 90 24 20 	lds	r15, 0x2024	; 0x802024 <L+0x3>
    1302:	20 91 25 20 	lds	r18, 0x2025	; 0x802025 <R>
    1306:	30 91 26 20 	lds	r19, 0x2026	; 0x802026 <R+0x1>
    130a:	40 91 27 20 	lds	r20, 0x2027	; 0x802027 <R+0x2>
    130e:	50 91 28 20 	lds	r21, 0x2028	; 0x802028 <R+0x3>
    1312:	c7 01       	movw	r24, r14
    1314:	b6 01       	movw	r22, r12
    1316:	0e 94 76 18 	call	0x30ec	; 0x30ec <__mulsf3>
    131a:	20 91 1d 20 	lds	r18, 0x201D	; 0x80201d <g_0>
    131e:	30 91 1e 20 	lds	r19, 0x201E	; 0x80201e <g_0+0x1>
    1322:	40 91 1f 20 	lds	r20, 0x201F	; 0x80201f <g_0+0x2>
    1326:	50 91 20 20 	lds	r21, 0x2020	; 0x802020 <g_0+0x3>
    132a:	0e 94 fb 16 	call	0x2df6	; 0x2df6 <__divsf3>
    132e:	4b 01       	movw	r8, r22
    1330:	5c 01       	movw	r10, r24
    1332:	a3 01       	movw	r20, r6
    1334:	92 01       	movw	r18, r4
    1336:	60 91 2d 20 	lds	r22, 0x202D	; 0x80202d <ground_p>
    133a:	70 91 2e 20 	lds	r23, 0x202E	; 0x80202e <ground_p+0x1>
    133e:	80 91 2f 20 	lds	r24, 0x202F	; 0x80202f <ground_p+0x2>
    1342:	90 91 30 20 	lds	r25, 0x2030	; 0x802030 <ground_p+0x3>
    1346:	0e 94 fb 16 	call	0x2df6	; 0x2df6 <__divsf3>
    134a:	a5 01       	movw	r20, r10
    134c:	94 01       	movw	r18, r8
    134e:	0e 94 d9 18 	call	0x31b2	; 0x31b2 <pow>
    1352:	20 e0       	ldi	r18, 0x00	; 0
    1354:	30 e0       	ldi	r19, 0x00	; 0
    1356:	40 e8       	ldi	r20, 0x80	; 128
    1358:	5f e3       	ldi	r21, 0x3F	; 63
    135a:	0e 94 92 16 	call	0x2d24	; 0x2d24 <__subsf3>
    135e:	20 91 29 20 	lds	r18, 0x2029	; 0x802029 <ground_t>
    1362:	30 91 2a 20 	lds	r19, 0x202A	; 0x80202a <ground_t+0x1>
    1366:	40 91 2b 20 	lds	r20, 0x202B	; 0x80202b <ground_t+0x2>
    136a:	50 91 2c 20 	lds	r21, 0x202C	; 0x80202c <ground_t+0x3>
    136e:	0e 94 76 18 	call	0x30ec	; 0x30ec <__mulsf3>
    1372:	a7 01       	movw	r20, r14
    1374:	96 01       	movw	r18, r12
    1376:	0e 94 fb 16 	call	0x2df6	; 0x2df6 <__divsf3>
    137a:	20 91 e9 20 	lds	r18, 0x20E9	; 0x8020e9 <ground_a>
    137e:	30 91 ea 20 	lds	r19, 0x20EA	; 0x8020ea <ground_a+0x1>
    1382:	40 91 eb 20 	lds	r20, 0x20EB	; 0x8020eb <ground_a+0x2>
    1386:	50 91 ec 20 	lds	r21, 0x20EC	; 0x8020ec <ground_a+0x3>
    138a:	0e 94 92 16 	call	0x2d24	; 0x2d24 <__subsf3>
    138e:	ff 90       	pop	r15
    1390:	ef 90       	pop	r14
    1392:	df 90       	pop	r13
    1394:	cf 90       	pop	r12
    1396:	bf 90       	pop	r11
    1398:	af 90       	pop	r10
    139a:	9f 90       	pop	r9
    139c:	8f 90       	pop	r8
    139e:	7f 90       	pop	r7
    13a0:	6f 90       	pop	r6
    13a2:	5f 90       	pop	r5
    13a4:	4f 90       	pop	r4
    13a6:	08 95       	ret

000013a8 <diff>:
    13a8:	2f 92       	push	r2
    13aa:	3f 92       	push	r3
    13ac:	4f 92       	push	r4
    13ae:	5f 92       	push	r5
    13b0:	6f 92       	push	r6
    13b2:	7f 92       	push	r7
    13b4:	8f 92       	push	r8
    13b6:	9f 92       	push	r9
    13b8:	af 92       	push	r10
    13ba:	bf 92       	push	r11
    13bc:	cf 92       	push	r12
    13be:	df 92       	push	r13
    13c0:	ef 92       	push	r14
    13c2:	ff 92       	push	r15
    13c4:	0f 93       	push	r16
    13c6:	1f 93       	push	r17
    13c8:	cf 93       	push	r28
    13ca:	df 93       	push	r29
    13cc:	00 d0       	rcall	.+0      	; 0x13ce <diff+0x26>
    13ce:	00 d0       	rcall	.+0      	; 0x13d0 <diff+0x28>
    13d0:	cd b7       	in	r28, 0x3d	; 61
    13d2:	de b7       	in	r29, 0x3e	; 62
    13d4:	6c 01       	movw	r12, r24
    13d6:	80 91 16 20 	lds	r24, 0x2016	; 0x802016 <data_samples>
    13da:	88 23       	and	r24, r24
    13dc:	09 f4       	brne	.+2      	; 0x13e0 <diff+0x38>
    13de:	6c c0       	rjmp	.+216    	; 0x14b8 <diff+0x110>
    13e0:	00 e0       	ldi	r16, 0x00	; 0
    13e2:	10 e0       	ldi	r17, 0x00	; 0
    13e4:	41 2c       	mov	r4, r1
    13e6:	51 2c       	mov	r5, r1
    13e8:	32 01       	movw	r6, r4
    13ea:	86 2e       	mov	r8, r22
    13ec:	91 2c       	mov	r9, r1
    13ee:	a1 2c       	mov	r10, r1
    13f0:	b1 2c       	mov	r11, r1
    13f2:	89 82       	std	Y+1, r8	; 0x01
    13f4:	9a 82       	std	Y+2, r9	; 0x02
    13f6:	ab 82       	std	Y+3, r10	; 0x03
    13f8:	bc 82       	std	Y+4, r11	; 0x04
    13fa:	b8 01       	movw	r22, r16
    13fc:	c6 01       	movw	r24, r12
    13fe:	7f dd       	rcall	.-1282   	; 0xefe <rb16_get_nth>
    1400:	5c 01       	movw	r10, r24
    1402:	18 01       	movw	r2, r16
    1404:	2f ef       	ldi	r18, 0xFF	; 255
    1406:	22 1a       	sub	r2, r18
    1408:	32 0a       	sbc	r3, r18
    140a:	b1 01       	movw	r22, r2
    140c:	c6 01       	movw	r24, r12
    140e:	77 dd       	rcall	.-1298   	; 0xefe <rb16_get_nth>
    1410:	7c 01       	movw	r14, r24
    1412:	b8 01       	movw	r22, r16
    1414:	6e 5f       	subi	r22, 0xFE	; 254
    1416:	7f 4f       	sbci	r23, 0xFF	; 255
    1418:	c6 01       	movw	r24, r12
    141a:	71 dd       	rcall	.-1310   	; 0xefe <rb16_get_nth>
    141c:	a5 01       	movw	r20, r10
    141e:	bb 0c       	add	r11, r11
    1420:	66 0b       	sbc	r22, r22
    1422:	77 0b       	sbc	r23, r23
    1424:	8a 01       	movw	r16, r20
    1426:	9b 01       	movw	r18, r22
    1428:	00 0f       	add	r16, r16
    142a:	11 1f       	adc	r17, r17
    142c:	22 1f       	adc	r18, r18
    142e:	33 1f       	adc	r19, r19
    1430:	40 0f       	add	r20, r16
    1432:	51 1f       	adc	r21, r17
    1434:	62 1f       	adc	r22, r18
    1436:	73 1f       	adc	r23, r19
    1438:	87 01       	movw	r16, r14
    143a:	ff 0c       	add	r15, r15
    143c:	22 0b       	sbc	r18, r18
    143e:	33 0b       	sbc	r19, r19
    1440:	78 01       	movw	r14, r16
    1442:	89 01       	movw	r16, r18
    1444:	ee 0c       	add	r14, r14
    1446:	ff 1c       	adc	r15, r15
    1448:	00 1f       	adc	r16, r16
    144a:	11 1f       	adc	r17, r17
    144c:	ee 0c       	add	r14, r14
    144e:	ff 1c       	adc	r15, r15
    1450:	00 1f       	adc	r16, r16
    1452:	11 1f       	adc	r17, r17
    1454:	4a 01       	movw	r8, r20
    1456:	5b 01       	movw	r10, r22
    1458:	8e 18       	sub	r8, r14
    145a:	9f 08       	sbc	r9, r15
    145c:	a0 0a       	sbc	r10, r16
    145e:	b1 0a       	sbc	r11, r17
    1460:	ac 01       	movw	r20, r24
    1462:	99 0f       	add	r25, r25
    1464:	66 0b       	sbc	r22, r22
    1466:	77 0b       	sbc	r23, r23
    1468:	d5 01       	movw	r26, r10
    146a:	c4 01       	movw	r24, r8
    146c:	84 0f       	add	r24, r20
    146e:	95 1f       	adc	r25, r21
    1470:	a6 1f       	adc	r26, r22
    1472:	b7 1f       	adc	r27, r23
    1474:	9c 01       	movw	r18, r24
    1476:	ad 01       	movw	r20, r26
    1478:	69 81       	ldd	r22, Y+1	; 0x01
    147a:	7a 81       	ldd	r23, Y+2	; 0x02
    147c:	8b 81       	ldd	r24, Y+3	; 0x03
    147e:	9c 81       	ldd	r25, Y+4	; 0x04
    1480:	0e 94 12 1a 	call	0x3424	; 0x3424 <__mulsi3>
    1484:	0e 94 96 17 	call	0x2f2c	; 0x2f2c <__floatsisf>
    1488:	20 e0       	ldi	r18, 0x00	; 0
    148a:	30 e0       	ldi	r19, 0x00	; 0
    148c:	40 e0       	ldi	r20, 0x00	; 0
    148e:	5f e3       	ldi	r21, 0x3F	; 63
    1490:	0e 94 76 18 	call	0x30ec	; 0x30ec <__mulsf3>
    1494:	9b 01       	movw	r18, r22
    1496:	ac 01       	movw	r20, r24
    1498:	c3 01       	movw	r24, r6
    149a:	b2 01       	movw	r22, r4
    149c:	0e 94 93 16 	call	0x2d26	; 0x2d26 <__addsf3>
    14a0:	2b 01       	movw	r4, r22
    14a2:	3c 01       	movw	r6, r24
    14a4:	80 91 16 20 	lds	r24, 0x2016	; 0x802016 <data_samples>
    14a8:	81 01       	movw	r16, r2
    14aa:	28 2f       	mov	r18, r24
    14ac:	30 e0       	ldi	r19, 0x00	; 0
    14ae:	22 16       	cp	r2, r18
    14b0:	33 06       	cpc	r3, r19
    14b2:	08 f4       	brcc	.+2      	; 0x14b6 <diff+0x10e>
    14b4:	a2 cf       	rjmp	.-188    	; 0x13fa <diff+0x52>
    14b6:	03 c0       	rjmp	.+6      	; 0x14be <diff+0x116>
    14b8:	41 2c       	mov	r4, r1
    14ba:	51 2c       	mov	r5, r1
    14bc:	32 01       	movw	r6, r4
    14be:	68 2f       	mov	r22, r24
    14c0:	70 e0       	ldi	r23, 0x00	; 0
    14c2:	80 e0       	ldi	r24, 0x00	; 0
    14c4:	90 e0       	ldi	r25, 0x00	; 0
    14c6:	0e 94 96 17 	call	0x2f2c	; 0x2f2c <__floatsisf>
    14ca:	9b 01       	movw	r18, r22
    14cc:	ac 01       	movw	r20, r24
    14ce:	c3 01       	movw	r24, r6
    14d0:	b2 01       	movw	r22, r4
    14d2:	0e 94 fb 16 	call	0x2df6	; 0x2df6 <__divsf3>
    14d6:	20 e0       	ldi	r18, 0x00	; 0
    14d8:	30 e0       	ldi	r19, 0x00	; 0
    14da:	48 ec       	ldi	r20, 0xC8	; 200
    14dc:	52 e4       	ldi	r21, 0x42	; 66
    14de:	0e 94 fb 16 	call	0x2df6	; 0x2df6 <__divsf3>
    14e2:	26 96       	adiw	r28, 0x06	; 6
    14e4:	cd bf       	out	0x3d, r28	; 61
    14e6:	de bf       	out	0x3e, r29	; 62
    14e8:	df 91       	pop	r29
    14ea:	cf 91       	pop	r28
    14ec:	1f 91       	pop	r17
    14ee:	0f 91       	pop	r16
    14f0:	ff 90       	pop	r15
    14f2:	ef 90       	pop	r14
    14f4:	df 90       	pop	r13
    14f6:	cf 90       	pop	r12
    14f8:	bf 90       	pop	r11
    14fa:	af 90       	pop	r10
    14fc:	9f 90       	pop	r9
    14fe:	8f 90       	pop	r8
    1500:	7f 90       	pop	r7
    1502:	6f 90       	pop	r6
    1504:	5f 90       	pop	r5
    1506:	4f 90       	pop	r4
    1508:	3f 90       	pop	r3
    150a:	2f 90       	pop	r2
    150c:	08 95       	ret

0000150e <data_check>:
    150e:	3f 92       	push	r3
    1510:	4f 92       	push	r4
    1512:	5f 92       	push	r5
    1514:	6f 92       	push	r6
    1516:	7f 92       	push	r7
    1518:	8f 92       	push	r8
    151a:	9f 92       	push	r9
    151c:	af 92       	push	r10
    151e:	bf 92       	push	r11
    1520:	cf 92       	push	r12
    1522:	df 92       	push	r13
    1524:	ef 92       	push	r14
    1526:	ff 92       	push	r15
    1528:	0f 93       	push	r16
    152a:	1f 93       	push	r17
    152c:	cf 93       	push	r28
    152e:	df 93       	push	r29
    1530:	00 d0       	rcall	.+0      	; 0x1532 <data_check+0x24>
    1532:	00 d0       	rcall	.+0      	; 0x1534 <data_check+0x26>
    1534:	cd b7       	in	r28, 0x3d	; 61
    1536:	de b7       	in	r29, 0x3e	; 62
    1538:	8c 01       	movw	r16, r24
    153a:	19 82       	std	Y+1, r1	; 0x01
    153c:	1a 82       	std	Y+2, r1	; 0x02
    153e:	c1 2c       	mov	r12, r1
    1540:	d1 2c       	mov	r13, r1
    1542:	76 01       	movw	r14, r12
    1544:	69 81       	ldd	r22, Y+1	; 0x01
    1546:	7a 81       	ldd	r23, Y+2	; 0x02
    1548:	c8 01       	movw	r24, r16
    154a:	61 dd       	rcall	.-1342   	; 0x100e <rb32_get_nth>
    154c:	4b 01       	movw	r8, r22
    154e:	5c 01       	movw	r10, r24
    1550:	21 ea       	ldi	r18, 0xA1	; 161
    1552:	82 1a       	sub	r8, r18
    1554:	26 e8       	ldi	r18, 0x86	; 134
    1556:	92 0a       	sbc	r9, r18
    1558:	21 e0       	ldi	r18, 0x01	; 1
    155a:	a2 0a       	sbc	r10, r18
    155c:	b1 08       	sbc	r11, r1
    155e:	2f ed       	ldi	r18, 0xDF	; 223
    1560:	82 16       	cp	r8, r18
    1562:	2f e0       	ldi	r18, 0x0F	; 15
    1564:	92 06       	cpc	r9, r18
    1566:	27 e9       	ldi	r18, 0x97	; 151
    1568:	a2 06       	cpc	r10, r18
    156a:	b1 04       	cpc	r11, r1
    156c:	80 f4       	brcc	.+32     	; 0x158e <data_check+0x80>
    156e:	0e 94 96 17 	call	0x2f2c	; 0x2f2c <__floatsisf>
    1572:	20 e0       	ldi	r18, 0x00	; 0
    1574:	30 e0       	ldi	r19, 0x00	; 0
    1576:	40 ea       	ldi	r20, 0xA0	; 160
    1578:	50 e4       	ldi	r21, 0x40	; 64
    157a:	0e 94 fb 16 	call	0x2df6	; 0x2df6 <__divsf3>
    157e:	9b 01       	movw	r18, r22
    1580:	ac 01       	movw	r20, r24
    1582:	c7 01       	movw	r24, r14
    1584:	b6 01       	movw	r22, r12
    1586:	0e 94 93 16 	call	0x2d26	; 0x2d26 <__addsf3>
    158a:	6b 01       	movw	r12, r22
    158c:	7c 01       	movw	r14, r24
    158e:	89 81       	ldd	r24, Y+1	; 0x01
    1590:	9a 81       	ldd	r25, Y+2	; 0x02
    1592:	01 96       	adiw	r24, 0x01	; 1
    1594:	89 83       	std	Y+1, r24	; 0x01
    1596:	9a 83       	std	Y+2, r25	; 0x02
    1598:	05 97       	sbiw	r24, 0x05	; 5
    159a:	a1 f6       	brne	.-88     	; 0x1544 <data_check+0x36>
    159c:	19 82       	std	Y+1, r1	; 0x01
    159e:	1a 82       	std	Y+2, r1	; 0x02
    15a0:	81 2c       	mov	r8, r1
    15a2:	91 2c       	mov	r9, r1
    15a4:	54 01       	movw	r10, r8
    15a6:	69 81       	ldd	r22, Y+1	; 0x01
    15a8:	7a 81       	ldd	r23, Y+2	; 0x02
    15aa:	c8 01       	movw	r24, r16
    15ac:	30 dd       	rcall	.-1440   	; 0x100e <rb32_get_nth>
    15ae:	2b 01       	movw	r4, r22
    15b0:	3c 01       	movw	r6, r24
    15b2:	21 ea       	ldi	r18, 0xA1	; 161
    15b4:	42 1a       	sub	r4, r18
    15b6:	26 e8       	ldi	r18, 0x86	; 134
    15b8:	52 0a       	sbc	r5, r18
    15ba:	21 e0       	ldi	r18, 0x01	; 1
    15bc:	62 0a       	sbc	r6, r18
    15be:	71 08       	sbc	r7, r1
    15c0:	2f ed       	ldi	r18, 0xDF	; 223
    15c2:	42 16       	cp	r4, r18
    15c4:	2f e0       	ldi	r18, 0x0F	; 15
    15c6:	52 06       	cpc	r5, r18
    15c8:	27 e9       	ldi	r18, 0x97	; 151
    15ca:	62 06       	cpc	r6, r18
    15cc:	71 04       	cpc	r7, r1
    15ce:	90 f4       	brcc	.+36     	; 0x15f4 <data_check+0xe6>
    15d0:	0e 94 96 17 	call	0x2f2c	; 0x2f2c <__floatsisf>
    15d4:	a7 01       	movw	r20, r14
    15d6:	96 01       	movw	r18, r12
    15d8:	0e 94 92 16 	call	0x2d24	; 0x2d24 <__subsf3>
    15dc:	9b 01       	movw	r18, r22
    15de:	ac 01       	movw	r20, r24
    15e0:	0e 94 76 18 	call	0x30ec	; 0x30ec <__mulsf3>
    15e4:	9b 01       	movw	r18, r22
    15e6:	ac 01       	movw	r20, r24
    15e8:	c5 01       	movw	r24, r10
    15ea:	b4 01       	movw	r22, r8
    15ec:	0e 94 93 16 	call	0x2d26	; 0x2d26 <__addsf3>
    15f0:	4b 01       	movw	r8, r22
    15f2:	5c 01       	movw	r10, r24
    15f4:	89 81       	ldd	r24, Y+1	; 0x01
    15f6:	9a 81       	ldd	r25, Y+2	; 0x02
    15f8:	01 96       	adiw	r24, 0x01	; 1
    15fa:	89 83       	std	Y+1, r24	; 0x01
    15fc:	9a 83       	std	Y+2, r25	; 0x02
    15fe:	05 97       	sbiw	r24, 0x05	; 5
    1600:	91 f6       	brne	.-92     	; 0x15a6 <data_check+0x98>
    1602:	20 e0       	ldi	r18, 0x00	; 0
    1604:	30 e0       	ldi	r19, 0x00	; 0
    1606:	40 e8       	ldi	r20, 0x80	; 128
    1608:	5e e3       	ldi	r21, 0x3E	; 62
    160a:	c5 01       	movw	r24, r10
    160c:	b4 01       	movw	r22, r8
    160e:	0e 94 76 18 	call	0x30ec	; 0x30ec <__mulsf3>
    1612:	69 83       	std	Y+1, r22	; 0x01
    1614:	7a 83       	std	Y+2, r23	; 0x02
    1616:	8b 83       	std	Y+3, r24	; 0x03
    1618:	9c 83       	std	Y+4, r25	; 0x04
    161a:	1d 82       	std	Y+5, r1	; 0x05
    161c:	1e 82       	std	Y+6, r1	; 0x06
    161e:	31 2c       	mov	r3, r1
    1620:	41 2c       	mov	r4, r1
    1622:	51 2c       	mov	r5, r1
    1624:	32 01       	movw	r6, r4
    1626:	6d 81       	ldd	r22, Y+5	; 0x05
    1628:	7e 81       	ldd	r23, Y+6	; 0x06
    162a:	c8 01       	movw	r24, r16
    162c:	f0 dc       	rcall	.-1568   	; 0x100e <rb32_get_nth>
    162e:	4b 01       	movw	r8, r22
    1630:	5c 01       	movw	r10, r24
    1632:	21 ea       	ldi	r18, 0xA1	; 161
    1634:	82 1a       	sub	r8, r18
    1636:	26 e8       	ldi	r18, 0x86	; 134
    1638:	92 0a       	sbc	r9, r18
    163a:	21 e0       	ldi	r18, 0x01	; 1
    163c:	a2 0a       	sbc	r10, r18
    163e:	b1 08       	sbc	r11, r1
    1640:	2f ed       	ldi	r18, 0xDF	; 223
    1642:	82 16       	cp	r8, r18
    1644:	2f e0       	ldi	r18, 0x0F	; 15
    1646:	92 06       	cpc	r9, r18
    1648:	27 e9       	ldi	r18, 0x97	; 151
    164a:	a2 06       	cpc	r10, r18
    164c:	b1 04       	cpc	r11, r1
    164e:	50 f5       	brcc	.+84     	; 0x16a4 <data_check+0x196>
    1650:	0e 94 96 17 	call	0x2f2c	; 0x2f2c <__floatsisf>
    1654:	4b 01       	movw	r8, r22
    1656:	5c 01       	movw	r10, r24
    1658:	a7 01       	movw	r20, r14
    165a:	96 01       	movw	r18, r12
    165c:	0e 94 92 16 	call	0x2d24	; 0x2d24 <__subsf3>
    1660:	0e 94 63 17 	call	0x2ec6	; 0x2ec6 <__fixsfsi>
    1664:	9b 01       	movw	r18, r22
    1666:	77 23       	and	r23, r23
    1668:	24 f4       	brge	.+8      	; 0x1672 <data_check+0x164>
    166a:	22 27       	eor	r18, r18
    166c:	33 27       	eor	r19, r19
    166e:	26 1b       	sub	r18, r22
    1670:	37 0b       	sbc	r19, r23
    1672:	b9 01       	movw	r22, r18
    1674:	33 0f       	add	r19, r19
    1676:	88 0b       	sbc	r24, r24
    1678:	99 0b       	sbc	r25, r25
    167a:	0e 94 96 17 	call	0x2f2c	; 0x2f2c <__floatsisf>
    167e:	9b 01       	movw	r18, r22
    1680:	ac 01       	movw	r20, r24
    1682:	69 81       	ldd	r22, Y+1	; 0x01
    1684:	7a 81       	ldd	r23, Y+2	; 0x02
    1686:	8b 81       	ldd	r24, Y+3	; 0x03
    1688:	9c 81       	ldd	r25, Y+4	; 0x04
    168a:	0e 94 6b 18 	call	0x30d6	; 0x30d6 <__gesf2>
    168e:	88 23       	and	r24, r24
    1690:	4c f0       	brlt	.+18     	; 0x16a4 <data_check+0x196>
    1692:	a5 01       	movw	r20, r10
    1694:	94 01       	movw	r18, r8
    1696:	c3 01       	movw	r24, r6
    1698:	b2 01       	movw	r22, r4
    169a:	0e 94 93 16 	call	0x2d26	; 0x2d26 <__addsf3>
    169e:	2b 01       	movw	r4, r22
    16a0:	3c 01       	movw	r6, r24
    16a2:	33 94       	inc	r3
    16a4:	8d 81       	ldd	r24, Y+5	; 0x05
    16a6:	9e 81       	ldd	r25, Y+6	; 0x06
    16a8:	01 96       	adiw	r24, 0x01	; 1
    16aa:	8d 83       	std	Y+5, r24	; 0x05
    16ac:	9e 83       	std	Y+6, r25	; 0x06
    16ae:	05 97       	sbiw	r24, 0x05	; 5
    16b0:	09 f0       	breq	.+2      	; 0x16b4 <data_check+0x1a6>
    16b2:	b9 cf       	rjmp	.-142    	; 0x1626 <data_check+0x118>
    16b4:	33 20       	and	r3, r3
    16b6:	69 f0       	breq	.+26     	; 0x16d2 <data_check+0x1c4>
    16b8:	63 2d       	mov	r22, r3
    16ba:	70 e0       	ldi	r23, 0x00	; 0
    16bc:	80 e0       	ldi	r24, 0x00	; 0
    16be:	90 e0       	ldi	r25, 0x00	; 0
    16c0:	0e 94 94 17 	call	0x2f28	; 0x2f28 <__floatunsisf>
    16c4:	9b 01       	movw	r18, r22
    16c6:	ac 01       	movw	r20, r24
    16c8:	c3 01       	movw	r24, r6
    16ca:	b2 01       	movw	r22, r4
    16cc:	0e 94 fb 16 	call	0x2df6	; 0x2df6 <__divsf3>
    16d0:	04 c0       	rjmp	.+8      	; 0x16da <data_check+0x1cc>
    16d2:	60 e0       	ldi	r22, 0x00	; 0
    16d4:	70 e0       	ldi	r23, 0x00	; 0
    16d6:	80 e8       	ldi	r24, 0x80	; 128
    16d8:	9f eb       	ldi	r25, 0xBF	; 191
    16da:	26 96       	adiw	r28, 0x06	; 6
    16dc:	cd bf       	out	0x3d, r28	; 61
    16de:	de bf       	out	0x3e, r29	; 62
    16e0:	df 91       	pop	r29
    16e2:	cf 91       	pop	r28
    16e4:	1f 91       	pop	r17
    16e6:	0f 91       	pop	r16
    16e8:	ff 90       	pop	r15
    16ea:	ef 90       	pop	r14
    16ec:	df 90       	pop	r13
    16ee:	cf 90       	pop	r12
    16f0:	bf 90       	pop	r11
    16f2:	af 90       	pop	r10
    16f4:	9f 90       	pop	r9
    16f6:	8f 90       	pop	r8
    16f8:	7f 90       	pop	r7
    16fa:	6f 90       	pop	r6
    16fc:	5f 90       	pop	r5
    16fe:	4f 90       	pop	r4
    1700:	3f 90       	pop	r3
    1702:	08 95       	ret

00001704 <data_collect>:
    1704:	af 92       	push	r10
    1706:	bf 92       	push	r11
    1708:	cf 92       	push	r12
    170a:	df 92       	push	r13
    170c:	ef 92       	push	r14
    170e:	ff 92       	push	r15
    1710:	0f 93       	push	r16
    1712:	1f 93       	push	r17
    1714:	cf 93       	push	r28
    1716:	df 93       	push	r29
    1718:	00 d0       	rcall	.+0      	; 0x171a <data_collect+0x16>
    171a:	00 d0       	rcall	.+0      	; 0x171c <data_collect+0x18>
    171c:	cd b7       	in	r28, 0x3d	; 61
    171e:	de b7       	in	r29, 0x3e	; 62
    1720:	5c 01       	movw	r10, r24
    1722:	8b 01       	movw	r16, r22
    1724:	35 dd       	rcall	.-1430   	; 0x1190 <get_pressure>
    1726:	20 e0       	ldi	r18, 0x00	; 0
    1728:	30 e0       	ldi	r19, 0x00	; 0
    172a:	40 e2       	ldi	r20, 0x20	; 32
    172c:	51 e4       	ldi	r21, 0x41	; 65
    172e:	0e 94 76 18 	call	0x30ec	; 0x30ec <__mulsf3>
    1732:	0e 94 63 17 	call	0x2ec6	; 0x2ec6 <__fixsfsi>
    1736:	69 83       	std	Y+1, r22	; 0x01
    1738:	7a 83       	std	Y+2, r23	; 0x02
    173a:	8b 83       	std	Y+3, r24	; 0x03
    173c:	9c 83       	std	Y+4, r25	; 0x04
    173e:	41 e0       	ldi	r20, 0x01	; 1
    1740:	50 e0       	ldi	r21, 0x00	; 0
    1742:	be 01       	movw	r22, r28
    1744:	6f 5f       	subi	r22, 0xFF	; 255
    1746:	7f 4f       	sbci	r23, 0xFF	; 255
    1748:	c8 01       	movw	r24, r16
    174a:	06 dc       	rcall	.-2036   	; 0xf58 <rb32_write>
    174c:	c8 01       	movw	r24, r16
    174e:	df de       	rcall	.-578    	; 0x150e <data_check>
    1750:	20 e0       	ldi	r18, 0x00	; 0
    1752:	30 e0       	ldi	r19, 0x00	; 0
    1754:	40 e2       	ldi	r20, 0x20	; 32
    1756:	51 e4       	ldi	r21, 0x41	; 65
    1758:	0e 94 fb 16 	call	0x2df6	; 0x2df6 <__divsf3>
    175c:	6b 01       	movw	r12, r22
    175e:	7c 01       	movw	r14, r24
    1760:	20 e0       	ldi	r18, 0x00	; 0
    1762:	30 e0       	ldi	r19, 0x00	; 0
    1764:	40 e8       	ldi	r20, 0x80	; 128
    1766:	5f eb       	ldi	r21, 0xBF	; 191
    1768:	0e 94 f7 16 	call	0x2dee	; 0x2dee <__cmpsf2>
    176c:	88 23       	and	r24, r24
    176e:	81 f1       	breq	.+96     	; 0x17d0 <data_collect+0xcc>
    1770:	c0 92 d0 20 	sts	0x20D0, r12	; 0x8020d0 <press>
    1774:	d0 92 d1 20 	sts	0x20D1, r13	; 0x8020d1 <press+0x1>
    1778:	e0 92 d2 20 	sts	0x20D2, r14	; 0x8020d2 <press+0x2>
    177c:	f0 92 d3 20 	sts	0x20D3, r15	; 0x8020d3 <press+0x3>
    1780:	c7 01       	movw	r24, r14
    1782:	b6 01       	movw	r22, r12
    1784:	a8 dd       	rcall	.-1200   	; 0x12d6 <get_altitude>
    1786:	60 93 c8 20 	sts	0x20C8, r22	; 0x8020c8 <alt>
    178a:	70 93 c9 20 	sts	0x20C9, r23	; 0x8020c9 <alt+0x1>
    178e:	80 93 ca 20 	sts	0x20CA, r24	; 0x8020ca <alt+0x2>
    1792:	90 93 cb 20 	sts	0x20CB, r25	; 0x8020cb <alt+0x3>
    1796:	20 e0       	ldi	r18, 0x00	; 0
    1798:	30 e0       	ldi	r19, 0x00	; 0
    179a:	48 ec       	ldi	r20, 0xC8	; 200
    179c:	52 e4       	ldi	r21, 0x42	; 66
    179e:	0e 94 76 18 	call	0x30ec	; 0x30ec <__mulsf3>
    17a2:	0e 94 63 17 	call	0x2ec6	; 0x2ec6 <__fixsfsi>
    17a6:	6d 83       	std	Y+5, r22	; 0x05
    17a8:	7e 83       	std	Y+6, r23	; 0x06
    17aa:	41 e0       	ldi	r20, 0x01	; 1
    17ac:	50 e0       	ldi	r21, 0x00	; 0
    17ae:	be 01       	movw	r22, r28
    17b0:	6b 5f       	subi	r22, 0xFB	; 251
    17b2:	7f 4f       	sbci	r23, 0xFF	; 255
    17b4:	c5 01       	movw	r24, r10
    17b6:	5a db       	rcall	.-2380   	; 0xe6c <rb16_write>
    17b8:	60 91 19 20 	lds	r22, 0x2019	; 0x802019 <rate>
    17bc:	c5 01       	movw	r24, r10
    17be:	f4 dd       	rcall	.-1048   	; 0x13a8 <diff>
    17c0:	60 93 c0 20 	sts	0x20C0, r22	; 0x8020c0 <velocity>
    17c4:	70 93 c1 20 	sts	0x20C1, r23	; 0x8020c1 <velocity+0x1>
    17c8:	80 93 c2 20 	sts	0x20C2, r24	; 0x8020c2 <velocity+0x2>
    17cc:	90 93 c3 20 	sts	0x20C3, r25	; 0x8020c3 <velocity+0x3>
    17d0:	83 e3       	ldi	r24, 0x33	; 51
    17d2:	93 e1       	ldi	r25, 0x13	; 19
    17d4:	a0 e9       	ldi	r26, 0x90	; 144
    17d6:	b3 e4       	ldi	r27, 0x43	; 67
    17d8:	80 93 cc 20 	sts	0x20CC, r24	; 0x8020cc <temp>
    17dc:	90 93 cd 20 	sts	0x20CD, r25	; 0x8020cd <temp+0x1>
    17e0:	a0 93 ce 20 	sts	0x20CE, r26	; 0x8020ce <temp+0x2>
    17e4:	b0 93 cf 20 	sts	0x20CF, r27	; 0x8020cf <temp+0x3>
    17e8:	26 96       	adiw	r28, 0x06	; 6
    17ea:	cd bf       	out	0x3d, r28	; 61
    17ec:	de bf       	out	0x3e, r29	; 62
    17ee:	df 91       	pop	r29
    17f0:	cf 91       	pop	r28
    17f2:	1f 91       	pop	r17
    17f4:	0f 91       	pop	r16
    17f6:	ff 90       	pop	r15
    17f8:	ef 90       	pop	r14
    17fa:	df 90       	pop	r13
    17fc:	cf 90       	pop	r12
    17fe:	bf 90       	pop	r11
    1800:	af 90       	pop	r10
    1802:	08 95       	ret

00001804 <state_check>:
    1804:	cf 92       	push	r12
    1806:	df 92       	push	r13
    1808:	ef 92       	push	r14
    180a:	ff 92       	push	r15
    180c:	c0 90 c0 20 	lds	r12, 0x20C0	; 0x8020c0 <velocity>
    1810:	d0 90 c1 20 	lds	r13, 0x20C1	; 0x8020c1 <velocity+0x1>
    1814:	e0 90 c2 20 	lds	r14, 0x20C2	; 0x8020c2 <velocity+0x2>
    1818:	f0 90 c3 20 	lds	r15, 0x20C3	; 0x8020c3 <velocity+0x3>
    181c:	c7 01       	movw	r24, r14
    181e:	b6 01       	movw	r22, r12
    1820:	0e 94 63 17 	call	0x2ec6	; 0x2ec6 <__fixsfsi>
    1824:	9b 01       	movw	r18, r22
    1826:	77 23       	and	r23, r23
    1828:	24 f4       	brge	.+8      	; 0x1832 <state_check+0x2e>
    182a:	22 27       	eor	r18, r18
    182c:	33 27       	eor	r19, r19
    182e:	26 1b       	sub	r18, r22
    1830:	37 0b       	sbc	r19, r23
    1832:	26 30       	cpi	r18, 0x06	; 6
    1834:	31 05       	cpc	r19, r1
    1836:	8c f0       	brlt	.+34     	; 0x185a <state_check+0x56>
    1838:	20 e0       	ldi	r18, 0x00	; 0
    183a:	30 e0       	ldi	r19, 0x00	; 0
    183c:	a9 01       	movw	r20, r18
    183e:	c7 01       	movw	r24, r14
    1840:	b6 01       	movw	r22, r12
    1842:	0e 94 f7 16 	call	0x2dee	; 0x2dee <__cmpsf2>
    1846:	88 23       	and	r24, r24
    1848:	24 f0       	brlt	.+8      	; 0x1852 <state_check+0x4e>
    184a:	81 e0       	ldi	r24, 0x01	; 1
    184c:	80 93 ef 20 	sts	0x20EF, r24	; 0x8020ef <state>
    1850:	24 c0       	rjmp	.+72     	; 0x189a <state_check+0x96>
    1852:	82 e0       	ldi	r24, 0x02	; 2
    1854:	80 93 ef 20 	sts	0x20EF, r24	; 0x8020ef <state>
    1858:	20 c0       	rjmp	.+64     	; 0x189a <state_check+0x96>
    185a:	10 92 ef 20 	sts	0x20EF, r1	; 0x8020ef <state>
    185e:	20 e0       	ldi	r18, 0x00	; 0
    1860:	30 e0       	ldi	r19, 0x00	; 0
    1862:	48 e4       	ldi	r20, 0x48	; 72
    1864:	52 e4       	ldi	r21, 0x42	; 66
    1866:	60 91 c8 20 	lds	r22, 0x20C8	; 0x8020c8 <alt>
    186a:	70 91 c9 20 	lds	r23, 0x20C9	; 0x8020c9 <alt+0x1>
    186e:	80 91 ca 20 	lds	r24, 0x20CA	; 0x8020ca <alt+0x2>
    1872:	90 91 cb 20 	lds	r25, 0x20CB	; 0x8020cb <alt+0x3>
    1876:	0e 94 6b 18 	call	0x30d6	; 0x30d6 <__gesf2>
    187a:	18 16       	cp	r1, r24
    187c:	24 f0       	brlt	.+8      	; 0x1886 <state_check+0x82>
    187e:	80 91 ed 20 	lds	r24, 0x20ED	; 0x8020ed <reset_received>
    1882:	88 23       	and	r24, r24
    1884:	19 f0       	breq	.+6      	; 0x188c <state_check+0x88>
    1886:	81 e0       	ldi	r24, 0x01	; 1
    1888:	80 93 ef 20 	sts	0x20EF, r24	; 0x8020ef <state>
    188c:	80 91 ee 20 	lds	r24, 0x20EE	; 0x8020ee <released>
    1890:	88 23       	and	r24, r24
    1892:	19 f0       	breq	.+6      	; 0x189a <state_check+0x96>
    1894:	83 e0       	ldi	r24, 0x03	; 3
    1896:	80 93 ef 20 	sts	0x20EF, r24	; 0x8020ef <state>
    189a:	ff 90       	pop	r15
    189c:	ef 90       	pop	r14
    189e:	df 90       	pop	r13
    18a0:	cf 90       	pop	r12
    18a2:	08 95       	ret

000018a4 <servo_pid>:
    18a4:	8f 92       	push	r8
    18a6:	9f 92       	push	r9
    18a8:	af 92       	push	r10
    18aa:	bf 92       	push	r11
    18ac:	cf 92       	push	r12
    18ae:	df 92       	push	r13
    18b0:	ef 92       	push	r14
    18b2:	ff 92       	push	r15
    18b4:	0f 93       	push	r16
    18b6:	1f 93       	push	r17
    18b8:	cf 93       	push	r28
    18ba:	df 93       	push	r29
    18bc:	7c 01       	movw	r14, r24
    18be:	c0 e0       	ldi	r28, 0x00	; 0
    18c0:	d0 e0       	ldi	r29, 0x00	; 0
    18c2:	00 e0       	ldi	r16, 0x00	; 0
    18c4:	10 e0       	ldi	r17, 0x00	; 0
    18c6:	be 01       	movw	r22, r28
    18c8:	c7 01       	movw	r24, r14
    18ca:	19 db       	rcall	.-2510   	; 0xefe <rb16_get_nth>
    18cc:	08 0f       	add	r16, r24
    18ce:	19 1f       	adc	r17, r25
    18d0:	21 96       	adiw	r28, 0x01	; 1
    18d2:	ca 30       	cpi	r28, 0x0A	; 10
    18d4:	d1 05       	cpc	r29, r1
    18d6:	b9 f7       	brne	.-18     	; 0x18c6 <servo_pid+0x22>
    18d8:	60 e0       	ldi	r22, 0x00	; 0
    18da:	70 e0       	ldi	r23, 0x00	; 0
    18dc:	c7 01       	movw	r24, r14
    18de:	0f db       	rcall	.-2530   	; 0xefe <rb16_get_nth>
    18e0:	ec 01       	movw	r28, r24
    18e2:	60 91 19 20 	lds	r22, 0x2019	; 0x802019 <rate>
    18e6:	c7 01       	movw	r24, r14
    18e8:	5f dd       	rcall	.-1346   	; 0x13a8 <diff>
    18ea:	6b 01       	movw	r12, r22
    18ec:	7c 01       	movw	r14, r24
    18ee:	be 01       	movw	r22, r28
    18f0:	dd 0f       	add	r29, r29
    18f2:	88 0b       	sbc	r24, r24
    18f4:	99 0b       	sbc	r25, r25
    18f6:	0e 94 96 17 	call	0x2f2c	; 0x2f2c <__floatsisf>
    18fa:	20 e0       	ldi	r18, 0x00	; 0
    18fc:	30 e0       	ldi	r19, 0x00	; 0
    18fe:	a9 01       	movw	r20, r18
    1900:	0e 94 76 18 	call	0x30ec	; 0x30ec <__mulsf3>
    1904:	20 e0       	ldi	r18, 0x00	; 0
    1906:	30 e0       	ldi	r19, 0x00	; 0
    1908:	48 ec       	ldi	r20, 0xC8	; 200
    190a:	52 e4       	ldi	r21, 0x42	; 66
    190c:	0e 94 fb 16 	call	0x2df6	; 0x2df6 <__divsf3>
    1910:	4b 01       	movw	r8, r22
    1912:	5c 01       	movw	r10, r24
    1914:	b8 01       	movw	r22, r16
    1916:	11 0f       	add	r17, r17
    1918:	88 0b       	sbc	r24, r24
    191a:	99 0b       	sbc	r25, r25
    191c:	0e 94 96 17 	call	0x2f2c	; 0x2f2c <__floatsisf>
    1920:	20 e0       	ldi	r18, 0x00	; 0
    1922:	30 e0       	ldi	r19, 0x00	; 0
    1924:	a9 01       	movw	r20, r18
    1926:	0e 94 76 18 	call	0x30ec	; 0x30ec <__mulsf3>
    192a:	20 e0       	ldi	r18, 0x00	; 0
    192c:	30 e0       	ldi	r19, 0x00	; 0
    192e:	48 ec       	ldi	r20, 0xC8	; 200
    1930:	52 e4       	ldi	r21, 0x42	; 66
    1932:	0e 94 fb 16 	call	0x2df6	; 0x2df6 <__divsf3>
    1936:	9b 01       	movw	r18, r22
    1938:	ac 01       	movw	r20, r24
    193a:	c5 01       	movw	r24, r10
    193c:	b4 01       	movw	r22, r8
    193e:	0e 94 93 16 	call	0x2d26	; 0x2d26 <__addsf3>
    1942:	4b 01       	movw	r8, r22
    1944:	5c 01       	movw	r10, r24
    1946:	20 e0       	ldi	r18, 0x00	; 0
    1948:	30 e0       	ldi	r19, 0x00	; 0
    194a:	a9 01       	movw	r20, r18
    194c:	c7 01       	movw	r24, r14
    194e:	b6 01       	movw	r22, r12
    1950:	0e 94 76 18 	call	0x30ec	; 0x30ec <__mulsf3>
    1954:	9b 01       	movw	r18, r22
    1956:	ac 01       	movw	r20, r24
    1958:	c5 01       	movw	r24, r10
    195a:	b4 01       	movw	r22, r8
    195c:	0e 94 93 16 	call	0x2d26	; 0x2d26 <__addsf3>
    1960:	20 e0       	ldi	r18, 0x00	; 0
    1962:	30 e8       	ldi	r19, 0x80	; 128
    1964:	4b eb       	ldi	r20, 0xBB	; 187
    1966:	54 e4       	ldi	r21, 0x44	; 68
    1968:	0e 94 93 16 	call	0x2d26	; 0x2d26 <__addsf3>
    196c:	0e 94 68 17 	call	0x2ed0	; 0x2ed0 <__fixunssfsi>
    1970:	60 93 1b 20 	sts	0x201B, r22	; 0x80201b <servo_pulse>
    1974:	70 93 1c 20 	sts	0x201C, r23	; 0x80201c <servo_pulse+0x1>
    1978:	80 e0       	ldi	r24, 0x00	; 0
    197a:	90 e0       	ldi	r25, 0x00	; 0
    197c:	0e 94 94 17 	call	0x2f28	; 0x2f28 <__floatunsisf>
    1980:	20 e0       	ldi	r18, 0x00	; 0
    1982:	30 e0       	ldi	r19, 0x00	; 0
    1984:	4a e7       	ldi	r20, 0x7A	; 122
    1986:	54 e4       	ldi	r21, 0x44	; 68
    1988:	0e 94 fb 16 	call	0x2df6	; 0x2df6 <__divsf3>
    198c:	20 e0       	ldi	r18, 0x00	; 0
    198e:	30 e0       	ldi	r19, 0x00	; 0
    1990:	4a ef       	ldi	r20, 0xFA	; 250
    1992:	53 e4       	ldi	r21, 0x43	; 67
    1994:	0e 94 76 18 	call	0x30ec	; 0x30ec <__mulsf3>
    1998:	0e 94 68 17 	call	0x2ed0	; 0x2ed0 <__fixunssfsi>
    199c:	60 93 68 09 	sts	0x0968, r22	; 0x800968 <__TEXT_REGION_LENGTH__+0x700968>
    19a0:	70 93 69 09 	sts	0x0969, r23	; 0x800969 <__TEXT_REGION_LENGTH__+0x700969>
    19a4:	df 91       	pop	r29
    19a6:	cf 91       	pop	r28
    19a8:	1f 91       	pop	r17
    19aa:	0f 91       	pop	r16
    19ac:	ff 90       	pop	r15
    19ae:	ef 90       	pop	r14
    19b0:	df 90       	pop	r13
    19b2:	cf 90       	pop	r12
    19b4:	bf 90       	pop	r11
    19b6:	af 90       	pop	r10
    19b8:	9f 90       	pop	r9
    19ba:	8f 90       	pop	r8
    19bc:	08 95       	ret

000019be <clock_init>:
    19be:	61 e0       	ldi	r22, 0x01	; 1
    19c0:	85 e0       	ldi	r24, 0x05	; 5
    19c2:	8f db       	rcall	.-2274   	; 0x10e2 <sysclk_enable_module>
    19c4:	e0 e0       	ldi	r30, 0x00	; 0
    19c6:	fa e0       	ldi	r31, 0x0A	; 10
    19c8:	87 e0       	ldi	r24, 0x07	; 7
    19ca:	80 83       	st	Z, r24
    19cc:	81 e1       	ldi	r24, 0x11	; 17
    19ce:	9a e7       	ldi	r25, 0x7A	; 122
    19d0:	86 a3       	std	Z+38, r24	; 0x26
    19d2:	97 a3       	std	Z+39, r25	; 0x27
    19d4:	81 e0       	ldi	r24, 0x01	; 1
    19d6:	86 83       	std	Z+6, r24	; 0x06
    19d8:	08 95       	ret

000019da <system_init>:
    19da:	0f 93       	push	r16
    19dc:	1f 93       	push	r17
    19de:	4c db       	rcall	.-2408   	; 0x1078 <sysclk_init>
    19e0:	6b ea       	ldi	r22, 0xAB	; 171
    19e2:	79 e2       	ldi	r23, 0x29	; 41
    19e4:	80 e0       	ldi	r24, 0x00	; 0
    19e6:	90 e0       	ldi	r25, 0x00	; 0
    19e8:	98 db       	rcall	.-2256   	; 0x111a <__portable_avr_delay_cycles>
    19ea:	78 94       	sei
    19ec:	8c eb       	ldi	r24, 0xBC	; 188
    19ee:	80 93 40 06 	sts	0x0640, r24	; 0x800640 <__TEXT_REGION_LENGTH__+0x700640>
    19f2:	87 e0       	ldi	r24, 0x07	; 7
    19f4:	80 93 a2 00 	sts	0x00A2, r24	; 0x8000a2 <__TEXT_REGION_LENGTH__+0x7000a2>
    19f8:	f3 d9       	rcall	.-3098   	; 0xde0 <data_terminal_init>
    19fa:	c0 db       	rcall	.-2176   	; 0x117c <gps_init>
    19fc:	6b ea       	ldi	r22, 0xAB	; 171
    19fe:	70 eb       	ldi	r23, 0xB0	; 176
    1a00:	88 e2       	ldi	r24, 0x28	; 40
    1a02:	90 e0       	ldi	r25, 0x00	; 0
    1a04:	8a db       	rcall	.-2284   	; 0x111a <__portable_avr_delay_cycles>
    1a06:	6b ea       	ldi	r22, 0xAB	; 171
    1a08:	79 e2       	ldi	r23, 0x29	; 41
    1a0a:	80 e0       	ldi	r24, 0x00	; 0
    1a0c:	90 e0       	ldi	r25, 0x00	; 0
    1a0e:	85 db       	rcall	.-2294   	; 0x111a <__portable_avr_delay_cycles>
    1a10:	b9 d9       	rcall	.-3214   	; 0xd84 <spi_init>
    1a12:	6b ea       	ldi	r22, 0xAB	; 171
    1a14:	79 e2       	ldi	r23, 0x29	; 41
    1a16:	80 e0       	ldi	r24, 0x00	; 0
    1a18:	90 e0       	ldi	r25, 0x00	; 0
    1a1a:	7f db       	rcall	.-2306   	; 0x111a <__portable_avr_delay_cycles>
    1a1c:	89 db       	rcall	.-2286   	; 0x1130 <pressure_init>
    1a1e:	6b ea       	ldi	r22, 0xAB	; 171
    1a20:	79 e2       	ldi	r23, 0x29	; 41
    1a22:	80 e0       	ldi	r24, 0x00	; 0
    1a24:	90 e0       	ldi	r25, 0x00	; 0
    1a26:	79 db       	rcall	.-2318   	; 0x111a <__portable_avr_delay_cycles>
    1a28:	80 e2       	ldi	r24, 0x20	; 32
    1a2a:	80 93 a3 0a 	sts	0x0AA3, r24	; 0x800aa3 <__TEXT_REGION_LENGTH__+0x700aa3>
    1a2e:	c7 df       	rcall	.-114    	; 0x19be <clock_init>
    1a30:	e9 d8       	rcall	.-3630   	; 0xc04 <cam_init>
    1a32:	66 e5       	ldi	r22, 0x56	; 86
    1a34:	70 ed       	ldi	r23, 0xD0	; 208
    1a36:	80 e0       	ldi	r24, 0x00	; 0
    1a38:	90 e0       	ldi	r25, 0x00	; 0
    1a3a:	6f db       	rcall	.-2338   	; 0x111a <__portable_avr_delay_cycles>
    1a3c:	e3 de       	rcall	.-570    	; 0x1804 <state_check>
    1a3e:	a8 db       	rcall	.-2224   	; 0x1190 <get_pressure>
    1a40:	60 93 2d 20 	sts	0x202D, r22	; 0x80202d <ground_p>
    1a44:	70 93 2e 20 	sts	0x202E, r23	; 0x80202e <ground_p+0x1>
    1a48:	80 93 2f 20 	sts	0x202F, r24	; 0x80202f <ground_p+0x2>
    1a4c:	90 93 30 20 	sts	0x2030, r25	; 0x802030 <ground_p+0x3>
    1a50:	03 e3       	ldi	r16, 0x33	; 51
    1a52:	13 e1       	ldi	r17, 0x13	; 19
    1a54:	20 e9       	ldi	r18, 0x90	; 144
    1a56:	33 e4       	ldi	r19, 0x43	; 67
    1a58:	00 93 29 20 	sts	0x2029, r16	; 0x802029 <ground_t>
    1a5c:	10 93 2a 20 	sts	0x202A, r17	; 0x80202a <ground_t+0x1>
    1a60:	20 93 2b 20 	sts	0x202B, r18	; 0x80202b <ground_t+0x2>
    1a64:	30 93 2c 20 	sts	0x202C, r19	; 0x80202c <ground_t+0x3>
    1a68:	36 dc       	rcall	.-1940   	; 0x12d6 <get_altitude>
    1a6a:	60 93 e9 20 	sts	0x20E9, r22	; 0x8020e9 <ground_a>
    1a6e:	70 93 ea 20 	sts	0x20EA, r23	; 0x8020ea <ground_a+0x1>
    1a72:	80 93 eb 20 	sts	0x20EB, r24	; 0x8020eb <ground_a+0x2>
    1a76:	90 93 ec 20 	sts	0x20EC, r25	; 0x8020ec <ground_a+0x3>
    1a7a:	1f 91       	pop	r17
    1a7c:	0f 91       	pop	r16
    1a7e:	08 95       	ret

00001a80 <main>:
    1a80:	cf 93       	push	r28
    1a82:	df 93       	push	r29
    1a84:	cd b7       	in	r28, 0x3d	; 61
    1a86:	de b7       	in	r29, 0x3e	; 62
    1a88:	ce 56       	subi	r28, 0x6E	; 110
    1a8a:	d1 09       	sbc	r29, r1
    1a8c:	cd bf       	out	0x3d, r28	; 61
    1a8e:	de bf       	out	0x3e, r29	; 62
    1a90:	a4 df       	rcall	.-184    	; 0x19da <system_init>
    1a92:	66 e5       	ldi	r22, 0x56	; 86
    1a94:	73 e2       	ldi	r23, 0x23	; 35
    1a96:	88 e0       	ldi	r24, 0x08	; 8
    1a98:	90 e0       	ldi	r25, 0x00	; 0
    1a9a:	3f db       	rcall	.-2434   	; 0x111a <__portable_avr_delay_cycles>
    1a9c:	14 e1       	ldi	r17, 0x14	; 20
    1a9e:	be 01       	movw	r22, r28
    1aa0:	6f 5f       	subi	r22, 0xFF	; 255
    1aa2:	7f 4f       	sbci	r23, 0xFF	; 255
    1aa4:	fb 01       	movw	r30, r22
    1aa6:	81 2f       	mov	r24, r17
    1aa8:	11 92       	st	Z+, r1
    1aaa:	8a 95       	dec	r24
    1aac:	e9 f7       	brne	.-6      	; 0x1aa8 <main+0x28>
    1aae:	4a e0       	ldi	r20, 0x0A	; 10
    1ab0:	50 e0       	ldi	r21, 0x00	; 0
    1ab2:	ce 01       	movw	r24, r28
    1ab4:	45 96       	adiw	r24, 0x15	; 21
    1ab6:	19 da       	rcall	.-3022   	; 0xeea <rb16_init>
    1ab8:	be 01       	movw	r22, r28
    1aba:	63 5e       	subi	r22, 0xE3	; 227
    1abc:	7f 4f       	sbci	r23, 0xFF	; 255
    1abe:	88 e2       	ldi	r24, 0x28	; 40
    1ac0:	fb 01       	movw	r30, r22
    1ac2:	11 92       	st	Z+, r1
    1ac4:	8a 95       	dec	r24
    1ac6:	e9 f7       	brne	.-6      	; 0x1ac2 <main+0x42>
    1ac8:	4a e0       	ldi	r20, 0x0A	; 10
    1aca:	50 e0       	ldi	r21, 0x00	; 0
    1acc:	ce 01       	movw	r24, r28
    1ace:	8b 5b       	subi	r24, 0xBB	; 187
    1ad0:	9f 4f       	sbci	r25, 0xFF	; 255
    1ad2:	93 da       	rcall	.-2778   	; 0xffa <rb32_init>
    1ad4:	be 01       	movw	r22, r28
    1ad6:	63 5b       	subi	r22, 0xB3	; 179
    1ad8:	7f 4f       	sbci	r23, 0xFF	; 255
    1ada:	fb 01       	movw	r30, r22
    1adc:	11 92       	st	Z+, r1
    1ade:	1a 95       	dec	r17
    1ae0:	e9 f7       	brne	.-6      	; 0x1adc <main+0x5c>
    1ae2:	4a e0       	ldi	r20, 0x0A	; 10
    1ae4:	50 e0       	ldi	r21, 0x00	; 0
    1ae6:	ce 01       	movw	r24, r28
    1ae8:	8f 59       	subi	r24, 0x9F	; 159
    1aea:	9f 4f       	sbci	r25, 0xFF	; 255
    1aec:	fe d9       	rcall	.-3076   	; 0xeea <rb16_init>
    1aee:	af 96       	adiw	r28, 0x2f	; 47
    1af0:	1f ae       	std	Y+63, r1	; 0x3f
    1af2:	af 97       	sbiw	r28, 0x2f	; 47
    1af4:	ae 96       	adiw	r28, 0x2e	; 46
    1af6:	1f ae       	std	Y+63, r1	; 0x3f
    1af8:	ae 97       	sbiw	r28, 0x2e	; 46
    1afa:	0f 2e       	mov	r0, r31
    1afc:	fe e0       	ldi	r31, 0x0E	; 14
    1afe:	cf 2e       	mov	r12, r31
    1b00:	f1 e2       	ldi	r31, 0x21	; 33
    1b02:	df 2e       	mov	r13, r31
    1b04:	f0 2d       	mov	r31, r0
    1b06:	be 01       	movw	r22, r28
    1b08:	6b 5b       	subi	r22, 0xBB	; 187
    1b0a:	7f 4f       	sbci	r23, 0xFF	; 255
    1b0c:	ce 01       	movw	r24, r28
    1b0e:	45 96       	adiw	r24, 0x15	; 21
    1b10:	f9 dd       	rcall	.-1038   	; 0x1704 <data_collect>
    1b12:	78 de       	rcall	.-784    	; 0x1804 <state_check>
    1b14:	80 91 ef 20 	lds	r24, 0x20EF	; 0x8020ef <state>
    1b18:	81 30       	cpi	r24, 0x01	; 1
    1b1a:	41 f0       	breq	.+16     	; 0x1b2c <main+0xac>
    1b1c:	08 f4       	brcc	.+2      	; 0x1b20 <main+0xa0>
    1b1e:	5a c0       	rjmp	.+180    	; 0x1bd4 <main+0x154>
    1b20:	82 30       	cpi	r24, 0x02	; 2
    1b22:	01 f1       	breq	.+64     	; 0x1b64 <main+0xe4>
    1b24:	83 30       	cpi	r24, 0x03	; 3
    1b26:	09 f4       	brne	.+2      	; 0x1b2a <main+0xaa>
    1b28:	49 c0       	rjmp	.+146    	; 0x1bbc <main+0x13c>
    1b2a:	52 c0       	rjmp	.+164    	; 0x1bd0 <main+0x150>
    1b2c:	20 e0       	ldi	r18, 0x00	; 0
    1b2e:	30 e0       	ldi	r19, 0x00	; 0
    1b30:	46 e1       	ldi	r20, 0x16	; 22
    1b32:	54 e4       	ldi	r21, 0x44	; 68
    1b34:	60 91 c8 20 	lds	r22, 0x20C8	; 0x8020c8 <alt>
    1b38:	70 91 c9 20 	lds	r23, 0x20C9	; 0x8020c9 <alt+0x1>
    1b3c:	80 91 ca 20 	lds	r24, 0x20CA	; 0x8020ca <alt+0x2>
    1b40:	90 91 cb 20 	lds	r25, 0x20CB	; 0x8020cb <alt+0x3>
    1b44:	0e 94 6b 18 	call	0x30d6	; 0x30d6 <__gesf2>
    1b48:	18 16       	cp	r1, r24
    1b4a:	0c f0       	brlt	.+2      	; 0x1b4e <main+0xce>
    1b4c:	43 c0       	rjmp	.+134    	; 0x1bd4 <main+0x154>
    1b4e:	ae 96       	adiw	r28, 0x2e	; 46
    1b50:	ff ad       	ldd	r31, Y+63	; 0x3f
    1b52:	ae 97       	sbiw	r28, 0x2e	; 46
    1b54:	f1 11       	cpse	r31, r1
    1b56:	3e c0       	rjmp	.+124    	; 0x1bd4 <main+0x154>
    1b58:	5b d8       	rcall	.-3914   	; 0xc10 <cam_switch>
    1b5a:	81 e0       	ldi	r24, 0x01	; 1
    1b5c:	ae 96       	adiw	r28, 0x2e	; 46
    1b5e:	8f af       	std	Y+63, r24	; 0x3f
    1b60:	ae 97       	sbiw	r28, 0x2e	; 46
    1b62:	38 c0       	rjmp	.+112    	; 0x1bd4 <main+0x154>
    1b64:	ae 96       	adiw	r28, 0x2e	; 46
    1b66:	9f ad       	ldd	r25, Y+63	; 0x3f
    1b68:	ae 97       	sbiw	r28, 0x2e	; 46
    1b6a:	91 11       	cpse	r25, r1
    1b6c:	05 c0       	rjmp	.+10     	; 0x1b78 <main+0xf8>
    1b6e:	50 d8       	rcall	.-3936   	; 0xc10 <cam_switch>
    1b70:	e1 e0       	ldi	r30, 0x01	; 1
    1b72:	ae 96       	adiw	r28, 0x2e	; 46
    1b74:	ef af       	std	Y+63, r30	; 0x3f
    1b76:	ae 97       	sbiw	r28, 0x2e	; 46
    1b78:	20 e0       	ldi	r18, 0x00	; 0
    1b7a:	30 e0       	ldi	r19, 0x00	; 0
    1b7c:	41 ee       	ldi	r20, 0xE1	; 225
    1b7e:	53 e4       	ldi	r21, 0x43	; 67
    1b80:	60 91 c8 20 	lds	r22, 0x20C8	; 0x8020c8 <alt>
    1b84:	70 91 c9 20 	lds	r23, 0x20C9	; 0x8020c9 <alt+0x1>
    1b88:	80 91 ca 20 	lds	r24, 0x20CA	; 0x8020ca <alt+0x2>
    1b8c:	90 91 cb 20 	lds	r25, 0x20CB	; 0x8020cb <alt+0x3>
    1b90:	0e 94 92 16 	call	0x2d24	; 0x2d24 <__subsf3>
    1b94:	0e 94 63 17 	call	0x2ec6	; 0x2ec6 <__fixsfsi>
    1b98:	67 5f       	subi	r22, 0xF7	; 247
    1b9a:	7f 4f       	sbci	r23, 0xFF	; 255
    1b9c:	63 31       	cpi	r22, 0x13	; 19
    1b9e:	71 05       	cpc	r23, r1
    1ba0:	20 f4       	brcc	.+8      	; 0x1baa <main+0x12a>
    1ba2:	81 e0       	ldi	r24, 0x01	; 1
    1ba4:	80 93 ee 20 	sts	0x20EE, r24	; 0x8020ee <released>
    1ba8:	2c d8       	rcall	.-4008   	; 0xc02 <hall_sensor_init>
    1baa:	80 91 ee 20 	lds	r24, 0x20EE	; 0x8020ee <released>
    1bae:	88 23       	and	r24, r24
    1bb0:	89 f0       	breq	.+34     	; 0x1bd4 <main+0x154>
    1bb2:	ce 01       	movw	r24, r28
    1bb4:	8f 59       	subi	r24, 0x9F	; 159
    1bb6:	9f 4f       	sbci	r25, 0xFF	; 255
    1bb8:	75 de       	rcall	.-790    	; 0x18a4 <servo_pid>
    1bba:	0c c0       	rjmp	.+24     	; 0x1bd4 <main+0x154>
    1bbc:	af 96       	adiw	r28, 0x2f	; 47
    1bbe:	ff ad       	ldd	r31, Y+63	; 0x3f
    1bc0:	af 97       	sbiw	r28, 0x2f	; 47
    1bc2:	f1 11       	cpse	r31, r1
    1bc4:	07 c0       	rjmp	.+14     	; 0x1bd4 <main+0x154>
    1bc6:	81 e0       	ldi	r24, 0x01	; 1
    1bc8:	af 96       	adiw	r28, 0x2f	; 47
    1bca:	8f af       	std	Y+63, r24	; 0x3f
    1bcc:	af 97       	sbiw	r28, 0x2f	; 47
    1bce:	02 c0       	rjmp	.+4      	; 0x1bd4 <main+0x154>
    1bd0:	10 92 ef 20 	sts	0x20EF, r1	; 0x8020ef <state>
    1bd4:	e0 90 d4 20 	lds	r14, 0x20D4	; 0x8020d4 <packets>
    1bd8:	f0 90 d5 20 	lds	r15, 0x20D5	; 0x8020d5 <packets+0x1>
    1bdc:	9f ef       	ldi	r25, 0xFF	; 255
    1bde:	e9 1a       	sub	r14, r25
    1be0:	f9 0a       	sbc	r15, r25
    1be2:	e0 92 d4 20 	sts	0x20D4, r14	; 0x8020d4 <packets>
    1be6:	f0 92 d5 20 	sts	0x20D5, r15	; 0x8020d5 <packets+0x1>
    1bea:	20 90 d6 20 	lds	r2, 0x20D6	; 0x8020d6 <timer>
    1bee:	30 90 d7 20 	lds	r3, 0x20D7	; 0x8020d7 <timer+0x1>
    1bf2:	21 14       	cp	r2, r1
    1bf4:	31 04       	cpc	r3, r1
    1bf6:	41 f0       	breq	.+16     	; 0x1c08 <main+0x188>
    1bf8:	c7 01       	movw	r24, r14
    1bfa:	b1 01       	movw	r22, r2
    1bfc:	0e 94 21 1a 	call	0x3442	; 0x3442 <__udivmodhi4>
    1c00:	60 93 19 20 	sts	0x2019, r22	; 0x802019 <rate>
    1c04:	70 93 1a 20 	sts	0x201A, r23	; 0x80201a <rate+0x1>
    1c08:	60 91 b0 20 	lds	r22, 0x20B0	; 0x8020b0 <gps_alt>
    1c0c:	70 91 b1 20 	lds	r23, 0x20B1	; 0x8020b1 <gps_alt+0x1>
    1c10:	80 91 b2 20 	lds	r24, 0x20B2	; 0x8020b2 <gps_alt+0x2>
    1c14:	90 91 b3 20 	lds	r25, 0x20B3	; 0x8020b3 <gps_alt+0x3>
    1c18:	0e 94 63 17 	call	0x2ec6	; 0x2ec6 <__fixsfsi>
    1c1c:	16 2f       	mov	r17, r22
    1c1e:	07 2f       	mov	r16, r23
    1c20:	80 90 b4 20 	lds	r8, 0x20B4	; 0x8020b4 <gps_long>
    1c24:	90 90 b5 20 	lds	r9, 0x20B5	; 0x8020b5 <gps_long+0x1>
    1c28:	a0 90 b6 20 	lds	r10, 0x20B6	; 0x8020b6 <gps_long+0x2>
    1c2c:	b0 90 b7 20 	lds	r11, 0x20B7	; 0x8020b7 <gps_long+0x3>
    1c30:	40 90 b8 20 	lds	r4, 0x20B8	; 0x8020b8 <gps_lat>
    1c34:	50 90 b9 20 	lds	r5, 0x20B9	; 0x8020b9 <gps_lat+0x1>
    1c38:	60 90 ba 20 	lds	r6, 0x20BA	; 0x8020ba <gps_lat+0x2>
    1c3c:	70 90 bb 20 	lds	r7, 0x20BB	; 0x8020bb <gps_lat+0x3>
    1c40:	60 91 bc 20 	lds	r22, 0x20BC	; 0x8020bc <gps_t>
    1c44:	70 91 bd 20 	lds	r23, 0x20BD	; 0x8020bd <gps_t+0x1>
    1c48:	80 91 be 20 	lds	r24, 0x20BE	; 0x8020be <gps_t+0x2>
    1c4c:	90 91 bf 20 	lds	r25, 0x20BF	; 0x8020bf <gps_t+0x3>
    1c50:	0e 94 63 17 	call	0x2ec6	; 0x2ec6 <__fixsfsi>
    1c54:	ad 96       	adiw	r28, 0x2d	; 45
    1c56:	6c af       	std	Y+60, r22	; 0x3c
    1c58:	7d af       	std	Y+61, r23	; 0x3d
    1c5a:	8e af       	std	Y+62, r24	; 0x3e
    1c5c:	9f af       	std	Y+63, r25	; 0x3f
    1c5e:	ad 97       	sbiw	r28, 0x2d	; 45
    1c60:	60 91 9e 20 	lds	r22, 0x209E	; 0x80209e <__data_end>
    1c64:	70 91 9f 20 	lds	r23, 0x209F	; 0x80209f <__data_end+0x1>
    1c68:	80 91 a0 20 	lds	r24, 0x20A0	; 0x8020a0 <__data_end+0x2>
    1c6c:	90 91 a1 20 	lds	r25, 0x20A1	; 0x8020a1 <__data_end+0x3>
    1c70:	0e 94 63 17 	call	0x2ec6	; 0x2ec6 <__fixsfsi>
    1c74:	7f 93       	push	r23
    1c76:	6f 93       	push	r22
    1c78:	80 91 ef 20 	lds	r24, 0x20EF	; 0x8020ef <state>
    1c7c:	1f 92       	push	r1
    1c7e:	8f 93       	push	r24
    1c80:	60 91 a2 20 	lds	r22, 0x20A2	; 0x8020a2 <rpm>
    1c84:	70 91 a3 20 	lds	r23, 0x20A3	; 0x8020a3 <rpm+0x1>
    1c88:	80 91 a4 20 	lds	r24, 0x20A4	; 0x8020a4 <rpm+0x2>
    1c8c:	90 91 a5 20 	lds	r25, 0x20A5	; 0x8020a5 <rpm+0x3>
    1c90:	0e 94 63 17 	call	0x2ec6	; 0x2ec6 <__fixsfsi>
    1c94:	7f 93       	push	r23
    1c96:	6f 93       	push	r22
    1c98:	60 91 a6 20 	lds	r22, 0x20A6	; 0x8020a6 <roll>
    1c9c:	70 91 a7 20 	lds	r23, 0x20A7	; 0x8020a7 <roll+0x1>
    1ca0:	80 91 a8 20 	lds	r24, 0x20A8	; 0x8020a8 <roll+0x2>
    1ca4:	90 91 a9 20 	lds	r25, 0x20A9	; 0x8020a9 <roll+0x3>
    1ca8:	0e 94 63 17 	call	0x2ec6	; 0x2ec6 <__fixsfsi>
    1cac:	7f 93       	push	r23
    1cae:	6f 93       	push	r22
    1cb0:	60 91 aa 20 	lds	r22, 0x20AA	; 0x8020aa <pitch>
    1cb4:	70 91 ab 20 	lds	r23, 0x20AB	; 0x8020ab <pitch+0x1>
    1cb8:	80 91 ac 20 	lds	r24, 0x20AC	; 0x8020ac <pitch+0x2>
    1cbc:	90 91 ad 20 	lds	r25, 0x20AD	; 0x8020ad <pitch+0x3>
    1cc0:	0e 94 63 17 	call	0x2ec6	; 0x2ec6 <__fixsfsi>
    1cc4:	7f 93       	push	r23
    1cc6:	6f 93       	push	r22
    1cc8:	80 91 af 20 	lds	r24, 0x20AF	; 0x8020af <gps_sats+0x1>
    1ccc:	8f 93       	push	r24
    1cce:	80 91 ae 20 	lds	r24, 0x20AE	; 0x8020ae <gps_sats>
    1cd2:	8f 93       	push	r24
    1cd4:	81 2f       	mov	r24, r17
    1cd6:	90 2f       	mov	r25, r16
    1cd8:	88 0f       	add	r24, r24
    1cda:	99 1f       	adc	r25, r25
    1cdc:	9c 01       	movw	r18, r24
    1cde:	22 0f       	add	r18, r18
    1ce0:	33 1f       	adc	r19, r19
    1ce2:	22 0f       	add	r18, r18
    1ce4:	33 1f       	adc	r19, r19
    1ce6:	82 0f       	add	r24, r18
    1ce8:	93 1f       	adc	r25, r19
    1cea:	6a e0       	ldi	r22, 0x0A	; 10
    1cec:	70 e0       	ldi	r23, 0x00	; 0
    1cee:	0e 94 35 1a 	call	0x346a	; 0x346a <__divmodhi4>
    1cf2:	9f 93       	push	r25
    1cf4:	8f 93       	push	r24
    1cf6:	0f 93       	push	r16
    1cf8:	1f 93       	push	r17
    1cfa:	20 e0       	ldi	r18, 0x00	; 0
    1cfc:	34 e2       	ldi	r19, 0x24	; 36
    1cfe:	44 e7       	ldi	r20, 0x74	; 116
    1d00:	59 e4       	ldi	r21, 0x49	; 73
    1d02:	c5 01       	movw	r24, r10
    1d04:	b4 01       	movw	r22, r8
    1d06:	0e 94 76 18 	call	0x30ec	; 0x30ec <__mulsf3>
    1d0a:	0e 94 63 17 	call	0x2ec6	; 0x2ec6 <__fixsfsi>
    1d0e:	20 e4       	ldi	r18, 0x40	; 64
    1d10:	32 e4       	ldi	r19, 0x42	; 66
    1d12:	4f e0       	ldi	r20, 0x0F	; 15
    1d14:	50 e0       	ldi	r21, 0x00	; 0
    1d16:	0e 94 6a 1a 	call	0x34d4	; 0x34d4 <__divmodsi4>
    1d1a:	9b 01       	movw	r18, r22
    1d1c:	77 23       	and	r23, r23
    1d1e:	24 f4       	brge	.+8      	; 0x1d28 <main+0x2a8>
    1d20:	22 27       	eor	r18, r18
    1d22:	33 27       	eor	r19, r19
    1d24:	26 1b       	sub	r18, r22
    1d26:	37 0b       	sbc	r19, r23
    1d28:	c9 01       	movw	r24, r18
    1d2a:	33 0f       	add	r19, r19
    1d2c:	aa 0b       	sbc	r26, r26
    1d2e:	bb 0b       	sbc	r27, r27
    1d30:	bf 93       	push	r27
    1d32:	af 93       	push	r26
    1d34:	9f 93       	push	r25
    1d36:	8f 93       	push	r24
    1d38:	c5 01       	movw	r24, r10
    1d3a:	b4 01       	movw	r22, r8
    1d3c:	0e 94 63 17 	call	0x2ec6	; 0x2ec6 <__fixsfsi>
    1d40:	7f 93       	push	r23
    1d42:	6f 93       	push	r22
    1d44:	20 e0       	ldi	r18, 0x00	; 0
    1d46:	34 e2       	ldi	r19, 0x24	; 36
    1d48:	44 e7       	ldi	r20, 0x74	; 116
    1d4a:	59 e4       	ldi	r21, 0x49	; 73
    1d4c:	c3 01       	movw	r24, r6
    1d4e:	b2 01       	movw	r22, r4
    1d50:	0e 94 76 18 	call	0x30ec	; 0x30ec <__mulsf3>
    1d54:	0e 94 63 17 	call	0x2ec6	; 0x2ec6 <__fixsfsi>
    1d58:	20 e4       	ldi	r18, 0x40	; 64
    1d5a:	32 e4       	ldi	r19, 0x42	; 66
    1d5c:	4f e0       	ldi	r20, 0x0F	; 15
    1d5e:	50 e0       	ldi	r21, 0x00	; 0
    1d60:	0e 94 6a 1a 	call	0x34d4	; 0x34d4 <__divmodsi4>
    1d64:	9f 93       	push	r25
    1d66:	8f 93       	push	r24
    1d68:	7f 93       	push	r23
    1d6a:	6f 93       	push	r22
    1d6c:	c3 01       	movw	r24, r6
    1d6e:	b2 01       	movw	r22, r4
    1d70:	0e 94 63 17 	call	0x2ec6	; 0x2ec6 <__fixsfsi>
    1d74:	7f 93       	push	r23
    1d76:	6f 93       	push	r22
    1d78:	ad 96       	adiw	r28, 0x2d	; 45
    1d7a:	6c ad       	ldd	r22, Y+60	; 0x3c
    1d7c:	7d ad       	ldd	r23, Y+61	; 0x3d
    1d7e:	8e ad       	ldd	r24, Y+62	; 0x3e
    1d80:	9f ad       	ldd	r25, Y+63	; 0x3f
    1d82:	ad 97       	sbiw	r28, 0x2d	; 45
    1d84:	24 e6       	ldi	r18, 0x64	; 100
    1d86:	30 e0       	ldi	r19, 0x00	; 0
    1d88:	40 e0       	ldi	r20, 0x00	; 0
    1d8a:	50 e0       	ldi	r21, 0x00	; 0
    1d8c:	0e 94 6a 1a 	call	0x34d4	; 0x34d4 <__divmodsi4>
    1d90:	7f 93       	push	r23
    1d92:	6f 93       	push	r22
    1d94:	ad 96       	adiw	r28, 0x2d	; 45
    1d96:	6c ad       	ldd	r22, Y+60	; 0x3c
    1d98:	7d ad       	ldd	r23, Y+61	; 0x3d
    1d9a:	8e ad       	ldd	r24, Y+62	; 0x3e
    1d9c:	9f ad       	ldd	r25, Y+63	; 0x3f
    1d9e:	ad 97       	sbiw	r28, 0x2d	; 45
    1da0:	20 e1       	ldi	r18, 0x10	; 16
    1da2:	37 e2       	ldi	r19, 0x27	; 39
    1da4:	40 e0       	ldi	r20, 0x00	; 0
    1da6:	50 e0       	ldi	r21, 0x00	; 0
    1da8:	0e 94 6a 1a 	call	0x34d4	; 0x34d4 <__divmodsi4>
    1dac:	12 2f       	mov	r17, r18
    1dae:	03 2f       	mov	r16, r19
    1db0:	24 e6       	ldi	r18, 0x64	; 100
    1db2:	30 e0       	ldi	r19, 0x00	; 0
    1db4:	40 e0       	ldi	r20, 0x00	; 0
    1db6:	50 e0       	ldi	r21, 0x00	; 0
    1db8:	0e 94 6a 1a 	call	0x34d4	; 0x34d4 <__divmodsi4>
    1dbc:	3f 93       	push	r19
    1dbe:	2f 93       	push	r18
    1dc0:	0f 93       	push	r16
    1dc2:	1f 93       	push	r17
    1dc4:	60 91 c4 20 	lds	r22, 0x20C4	; 0x8020c4 <volt>
    1dc8:	70 91 c5 20 	lds	r23, 0x20C5	; 0x8020c5 <volt+0x1>
    1dcc:	80 91 c6 20 	lds	r24, 0x20C6	; 0x8020c6 <volt+0x2>
    1dd0:	90 91 c7 20 	lds	r25, 0x20C7	; 0x8020c7 <volt+0x3>
    1dd4:	0e 94 63 17 	call	0x2ec6	; 0x2ec6 <__fixsfsi>
    1dd8:	7f 93       	push	r23
    1dda:	6f 93       	push	r22
    1ddc:	23 e3       	ldi	r18, 0x33	; 51
    1dde:	33 e9       	ldi	r19, 0x93	; 147
    1de0:	48 e8       	ldi	r20, 0x88	; 136
    1de2:	53 e4       	ldi	r21, 0x43	; 67
    1de4:	60 91 cc 20 	lds	r22, 0x20CC	; 0x8020cc <temp>
    1de8:	70 91 cd 20 	lds	r23, 0x20CD	; 0x8020cd <temp+0x1>
    1dec:	80 91 ce 20 	lds	r24, 0x20CE	; 0x8020ce <temp+0x2>
    1df0:	90 91 cf 20 	lds	r25, 0x20CF	; 0x8020cf <temp+0x3>
    1df4:	97 d7       	rcall	.+3886   	; 0x2d24 <__subsf3>
    1df6:	0e 94 63 17 	call	0x2ec6	; 0x2ec6 <__fixsfsi>
    1dfa:	7f 93       	push	r23
    1dfc:	6f 93       	push	r22
    1dfe:	60 91 d0 20 	lds	r22, 0x20D0	; 0x8020d0 <press>
    1e02:	70 91 d1 20 	lds	r23, 0x20D1	; 0x8020d1 <press+0x1>
    1e06:	80 91 d2 20 	lds	r24, 0x20D2	; 0x8020d2 <press+0x2>
    1e0a:	90 91 d3 20 	lds	r25, 0x20D3	; 0x8020d3 <press+0x3>
    1e0e:	0e 94 63 17 	call	0x2ec6	; 0x2ec6 <__fixsfsi>
    1e12:	9f 93       	push	r25
    1e14:	8f 93       	push	r24
    1e16:	7f 93       	push	r23
    1e18:	6f 93       	push	r22
    1e1a:	60 91 c8 20 	lds	r22, 0x20C8	; 0x8020c8 <alt>
    1e1e:	70 91 c9 20 	lds	r23, 0x20C9	; 0x8020c9 <alt+0x1>
    1e22:	80 91 ca 20 	lds	r24, 0x20CA	; 0x8020ca <alt+0x2>
    1e26:	90 91 cb 20 	lds	r25, 0x20CB	; 0x8020cb <alt+0x3>
    1e2a:	0e 94 63 17 	call	0x2ec6	; 0x2ec6 <__fixsfsi>
    1e2e:	7f 93       	push	r23
    1e30:	6f 93       	push	r22
    1e32:	ff 92       	push	r15
    1e34:	ef 92       	push	r14
    1e36:	3f 92       	push	r3
    1e38:	2f 92       	push	r2
    1e3a:	80 91 18 20 	lds	r24, 0x2018	; 0x802018 <format+0x1>
    1e3e:	8f 93       	push	r24
    1e40:	80 91 17 20 	lds	r24, 0x2017	; 0x802017 <format>
    1e44:	8f 93       	push	r24
    1e46:	df 92       	push	r13
    1e48:	cf 92       	push	r12
    1e4a:	0e 94 02 1b 	call	0x3604	; 0x3604 <sprintf>
    1e4e:	cd bf       	out	0x3d, r28	; 61
    1e50:	de bf       	out	0x3e, r29	; 62
    1e52:	59 ce       	rjmp	.-846    	; 0x1b06 <main+0x86>

00001e54 <reset>:
    1e54:	10 92 d0 20 	sts	0x20D0, r1	; 0x8020d0 <press>
    1e58:	10 92 d1 20 	sts	0x20D1, r1	; 0x8020d1 <press+0x1>
    1e5c:	10 92 d2 20 	sts	0x20D2, r1	; 0x8020d2 <press+0x2>
    1e60:	10 92 d3 20 	sts	0x20D3, r1	; 0x8020d3 <press+0x3>
    1e64:	10 92 cc 20 	sts	0x20CC, r1	; 0x8020cc <temp>
    1e68:	10 92 cd 20 	sts	0x20CD, r1	; 0x8020cd <temp+0x1>
    1e6c:	10 92 ce 20 	sts	0x20CE, r1	; 0x8020ce <temp+0x2>
    1e70:	10 92 cf 20 	sts	0x20CF, r1	; 0x8020cf <temp+0x3>
    1e74:	10 92 c8 20 	sts	0x20C8, r1	; 0x8020c8 <alt>
    1e78:	10 92 c9 20 	sts	0x20C9, r1	; 0x8020c9 <alt+0x1>
    1e7c:	10 92 ca 20 	sts	0x20CA, r1	; 0x8020ca <alt+0x2>
    1e80:	10 92 cb 20 	sts	0x20CB, r1	; 0x8020cb <alt+0x3>
    1e84:	10 92 c4 20 	sts	0x20C4, r1	; 0x8020c4 <volt>
    1e88:	10 92 c5 20 	sts	0x20C5, r1	; 0x8020c5 <volt+0x1>
    1e8c:	10 92 c6 20 	sts	0x20C6, r1	; 0x8020c6 <volt+0x2>
    1e90:	10 92 c7 20 	sts	0x20C7, r1	; 0x8020c7 <volt+0x3>
    1e94:	10 92 c0 20 	sts	0x20C0, r1	; 0x8020c0 <velocity>
    1e98:	10 92 c1 20 	sts	0x20C1, r1	; 0x8020c1 <velocity+0x1>
    1e9c:	10 92 c2 20 	sts	0x20C2, r1	; 0x8020c2 <velocity+0x2>
    1ea0:	10 92 c3 20 	sts	0x20C3, r1	; 0x8020c3 <velocity+0x3>
    1ea4:	10 92 bc 20 	sts	0x20BC, r1	; 0x8020bc <gps_t>
    1ea8:	10 92 bd 20 	sts	0x20BD, r1	; 0x8020bd <gps_t+0x1>
    1eac:	10 92 be 20 	sts	0x20BE, r1	; 0x8020be <gps_t+0x2>
    1eb0:	10 92 bf 20 	sts	0x20BF, r1	; 0x8020bf <gps_t+0x3>
    1eb4:	10 92 b8 20 	sts	0x20B8, r1	; 0x8020b8 <gps_lat>
    1eb8:	10 92 b9 20 	sts	0x20B9, r1	; 0x8020b9 <gps_lat+0x1>
    1ebc:	10 92 ba 20 	sts	0x20BA, r1	; 0x8020ba <gps_lat+0x2>
    1ec0:	10 92 bb 20 	sts	0x20BB, r1	; 0x8020bb <gps_lat+0x3>
    1ec4:	10 92 b4 20 	sts	0x20B4, r1	; 0x8020b4 <gps_long>
    1ec8:	10 92 b5 20 	sts	0x20B5, r1	; 0x8020b5 <gps_long+0x1>
    1ecc:	10 92 b6 20 	sts	0x20B6, r1	; 0x8020b6 <gps_long+0x2>
    1ed0:	10 92 b7 20 	sts	0x20B7, r1	; 0x8020b7 <gps_long+0x3>
    1ed4:	10 92 b0 20 	sts	0x20B0, r1	; 0x8020b0 <gps_alt>
    1ed8:	10 92 b1 20 	sts	0x20B1, r1	; 0x8020b1 <gps_alt+0x1>
    1edc:	10 92 b2 20 	sts	0x20B2, r1	; 0x8020b2 <gps_alt+0x2>
    1ee0:	10 92 b3 20 	sts	0x20B3, r1	; 0x8020b3 <gps_alt+0x3>
    1ee4:	10 92 ae 20 	sts	0x20AE, r1	; 0x8020ae <gps_sats>
    1ee8:	10 92 af 20 	sts	0x20AF, r1	; 0x8020af <gps_sats+0x1>
    1eec:	10 92 aa 20 	sts	0x20AA, r1	; 0x8020aa <pitch>
    1ef0:	10 92 ab 20 	sts	0x20AB, r1	; 0x8020ab <pitch+0x1>
    1ef4:	10 92 ac 20 	sts	0x20AC, r1	; 0x8020ac <pitch+0x2>
    1ef8:	10 92 ad 20 	sts	0x20AD, r1	; 0x8020ad <pitch+0x3>
    1efc:	10 92 a6 20 	sts	0x20A6, r1	; 0x8020a6 <roll>
    1f00:	10 92 a7 20 	sts	0x20A7, r1	; 0x8020a7 <roll+0x1>
    1f04:	10 92 a8 20 	sts	0x20A8, r1	; 0x8020a8 <roll+0x2>
    1f08:	10 92 a9 20 	sts	0x20A9, r1	; 0x8020a9 <roll+0x3>
    1f0c:	10 92 a2 20 	sts	0x20A2, r1	; 0x8020a2 <rpm>
    1f10:	10 92 a3 20 	sts	0x20A3, r1	; 0x8020a3 <rpm+0x1>
    1f14:	10 92 a4 20 	sts	0x20A4, r1	; 0x8020a4 <rpm+0x2>
    1f18:	10 92 a5 20 	sts	0x20A5, r1	; 0x8020a5 <rpm+0x3>
    1f1c:	10 92 9e 20 	sts	0x209E, r1	; 0x80209e <__data_end>
    1f20:	10 92 9f 20 	sts	0x209F, r1	; 0x80209f <__data_end+0x1>
    1f24:	10 92 a0 20 	sts	0x20A0, r1	; 0x8020a0 <__data_end+0x2>
    1f28:	10 92 a1 20 	sts	0x20A1, r1	; 0x8020a1 <__data_end+0x3>
    1f2c:	10 92 ef 20 	sts	0x20EF, r1	; 0x8020ef <state>
    1f30:	10 92 ee 20 	sts	0x20EE, r1	; 0x8020ee <released>
    1f34:	52 dd       	rcall	.-1372   	; 0x19da <system_init>
    1f36:	81 e0       	ldi	r24, 0x01	; 1
    1f38:	80 93 ed 20 	sts	0x20ED, r24	; 0x8020ed <reset_received>
    1f3c:	08 95       	ret

00001f3e <cali_alt>:
    1f3e:	80 91 d0 20 	lds	r24, 0x20D0	; 0x8020d0 <press>
    1f42:	90 91 d1 20 	lds	r25, 0x20D1	; 0x8020d1 <press+0x1>
    1f46:	a0 91 d2 20 	lds	r26, 0x20D2	; 0x8020d2 <press+0x2>
    1f4a:	b0 91 d3 20 	lds	r27, 0x20D3	; 0x8020d3 <press+0x3>
    1f4e:	80 93 2d 20 	sts	0x202D, r24	; 0x80202d <ground_p>
    1f52:	90 93 2e 20 	sts	0x202E, r25	; 0x80202e <ground_p+0x1>
    1f56:	a0 93 2f 20 	sts	0x202F, r26	; 0x80202f <ground_p+0x2>
    1f5a:	b0 93 30 20 	sts	0x2030, r27	; 0x802030 <ground_p+0x3>
    1f5e:	80 91 c8 20 	lds	r24, 0x20C8	; 0x8020c8 <alt>
    1f62:	90 91 c9 20 	lds	r25, 0x20C9	; 0x8020c9 <alt+0x1>
    1f66:	a0 91 ca 20 	lds	r26, 0x20CA	; 0x8020ca <alt+0x2>
    1f6a:	b0 91 cb 20 	lds	r27, 0x20CB	; 0x8020cb <alt+0x3>
    1f6e:	80 93 e9 20 	sts	0x20E9, r24	; 0x8020e9 <ground_a>
    1f72:	90 93 ea 20 	sts	0x20EA, r25	; 0x8020ea <ground_a+0x1>
    1f76:	a0 93 eb 20 	sts	0x20EB, r26	; 0x8020eb <ground_a+0x2>
    1f7a:	b0 93 ec 20 	sts	0x20EC, r27	; 0x8020ec <ground_a+0x3>
    1f7e:	83 e3       	ldi	r24, 0x33	; 51
    1f80:	93 e1       	ldi	r25, 0x13	; 19
    1f82:	a0 e9       	ldi	r26, 0x90	; 144
    1f84:	b3 e4       	ldi	r27, 0x43	; 67
    1f86:	80 93 29 20 	sts	0x2029, r24	; 0x802029 <ground_t>
    1f8a:	90 93 2a 20 	sts	0x202A, r25	; 0x80202a <ground_t+0x1>
    1f8e:	a0 93 2b 20 	sts	0x202B, r26	; 0x80202b <ground_t+0x2>
    1f92:	b0 93 2c 20 	sts	0x202C, r27	; 0x80202c <ground_t+0x3>
    1f96:	08 95       	ret

00001f98 <send_gps>:
    1f98:	8f 92       	push	r8
    1f9a:	9f 92       	push	r9
    1f9c:	af 92       	push	r10
    1f9e:	bf 92       	push	r11
    1fa0:	cf 92       	push	r12
    1fa2:	df 92       	push	r13
    1fa4:	ef 92       	push	r14
    1fa6:	ff 92       	push	r15
    1fa8:	0f 93       	push	r16
    1faa:	1f 93       	push	r17
    1fac:	cf 93       	push	r28
    1fae:	df 93       	push	r29
    1fb0:	cd b7       	in	r28, 0x3d	; 61
    1fb2:	de b7       	in	r29, 0x3e	; 62
    1fb4:	c6 54       	subi	r28, 0x46	; 70
    1fb6:	d1 09       	sbc	r29, r1
    1fb8:	cd bf       	out	0x3d, r28	; 61
    1fba:	de bf       	out	0x3e, r29	; 62
    1fbc:	60 91 b4 20 	lds	r22, 0x20B4	; 0x8020b4 <gps_long>
    1fc0:	70 91 b5 20 	lds	r23, 0x20B5	; 0x8020b5 <gps_long+0x1>
    1fc4:	80 91 b6 20 	lds	r24, 0x20B6	; 0x8020b6 <gps_long+0x2>
    1fc8:	90 91 b7 20 	lds	r25, 0x20B7	; 0x8020b7 <gps_long+0x3>
    1fcc:	7c d7       	rcall	.+3832   	; 0x2ec6 <__fixsfsi>
    1fce:	16 2f       	mov	r17, r22
    1fd0:	07 2f       	mov	r16, r23
    1fd2:	c0 90 b8 20 	lds	r12, 0x20B8	; 0x8020b8 <gps_lat>
    1fd6:	d0 90 b9 20 	lds	r13, 0x20B9	; 0x8020b9 <gps_lat+0x1>
    1fda:	e0 90 ba 20 	lds	r14, 0x20BA	; 0x8020ba <gps_lat+0x2>
    1fde:	f0 90 bb 20 	lds	r15, 0x20BB	; 0x8020bb <gps_lat+0x3>
    1fe2:	a6 2f       	mov	r26, r22
    1fe4:	b7 2f       	mov	r27, r23
    1fe6:	bb 23       	and	r27, r27
    1fe8:	1c f4       	brge	.+6      	; 0x1ff0 <send_gps+0x58>
    1fea:	b1 95       	neg	r27
    1fec:	a1 95       	neg	r26
    1fee:	b1 09       	sbc	r27, r1
    1ff0:	20 e4       	ldi	r18, 0x40	; 64
    1ff2:	32 e4       	ldi	r19, 0x42	; 66
    1ff4:	4f e0       	ldi	r20, 0x0F	; 15
    1ff6:	50 e0       	ldi	r21, 0x00	; 0
    1ff8:	0e 94 90 1a 	call	0x3520	; 0x3520 <__mulshisi3>
    1ffc:	0f 2e       	mov	r0, r31
    1ffe:	f0 e4       	ldi	r31, 0x40	; 64
    2000:	8f 2e       	mov	r8, r31
    2002:	f2 e4       	ldi	r31, 0x42	; 66
    2004:	9f 2e       	mov	r9, r31
    2006:	ff e0       	ldi	r31, 0x0F	; 15
    2008:	af 2e       	mov	r10, r31
    200a:	b1 2c       	mov	r11, r1
    200c:	f0 2d       	mov	r31, r0
    200e:	0e 94 6a 1a 	call	0x34d4	; 0x34d4 <__divmodsi4>
    2012:	9f 93       	push	r25
    2014:	8f 93       	push	r24
    2016:	7f 93       	push	r23
    2018:	6f 93       	push	r22
    201a:	0f 93       	push	r16
    201c:	1f 93       	push	r17
    201e:	20 e0       	ldi	r18, 0x00	; 0
    2020:	34 e2       	ldi	r19, 0x24	; 36
    2022:	44 e7       	ldi	r20, 0x74	; 116
    2024:	59 e4       	ldi	r21, 0x49	; 73
    2026:	c7 01       	movw	r24, r14
    2028:	b6 01       	movw	r22, r12
    202a:	0e 94 76 18 	call	0x30ec	; 0x30ec <__mulsf3>
    202e:	4b d7       	rcall	.+3734   	; 0x2ec6 <__fixsfsi>
    2030:	a5 01       	movw	r20, r10
    2032:	94 01       	movw	r18, r8
    2034:	0e 94 6a 1a 	call	0x34d4	; 0x34d4 <__divmodsi4>
    2038:	9f 93       	push	r25
    203a:	8f 93       	push	r24
    203c:	7f 93       	push	r23
    203e:	6f 93       	push	r22
    2040:	c7 01       	movw	r24, r14
    2042:	b6 01       	movw	r22, r12
    2044:	40 d7       	rcall	.+3712   	; 0x2ec6 <__fixsfsi>
    2046:	7f 93       	push	r23
    2048:	6f 93       	push	r22
    204a:	80 91 15 20 	lds	r24, 0x2015	; 0x802015 <gps_msg+0x1>
    204e:	8f 93       	push	r24
    2050:	80 91 14 20 	lds	r24, 0x2014	; 0x802014 <gps_msg>
    2054:	8f 93       	push	r24
    2056:	8e 01       	movw	r16, r28
    2058:	0f 5f       	subi	r16, 0xFF	; 255
    205a:	1f 4f       	sbci	r17, 0xFF	; 255
    205c:	1f 93       	push	r17
    205e:	0f 93       	push	r16
    2060:	0e 94 02 1b 	call	0x3604	; 0x3604 <sprintf>
    2064:	1f 93       	push	r17
    2066:	0f 93       	push	r16
    2068:	0e 94 ef 1a 	call	0x35de	; 0x35de <printf>
    206c:	cd bf       	out	0x3d, r28	; 61
    206e:	de bf       	out	0x3e, r29	; 62
    2070:	ca 5b       	subi	r28, 0xBA	; 186
    2072:	df 4f       	sbci	r29, 0xFF	; 255
    2074:	cd bf       	out	0x3d, r28	; 61
    2076:	de bf       	out	0x3e, r29	; 62
    2078:	df 91       	pop	r29
    207a:	cf 91       	pop	r28
    207c:	1f 91       	pop	r17
    207e:	0f 91       	pop	r16
    2080:	ff 90       	pop	r15
    2082:	ef 90       	pop	r14
    2084:	df 90       	pop	r13
    2086:	cf 90       	pop	r12
    2088:	bf 90       	pop	r11
    208a:	af 90       	pop	r10
    208c:	9f 90       	pop	r9
    208e:	8f 90       	pop	r8
    2090:	08 95       	ret

00002092 <packet>:
    2092:	4f 92       	push	r4
    2094:	5f 92       	push	r5
    2096:	6f 92       	push	r6
    2098:	7f 92       	push	r7
    209a:	8f 92       	push	r8
    209c:	9f 92       	push	r9
    209e:	af 92       	push	r10
    20a0:	bf 92       	push	r11
    20a2:	cf 92       	push	r12
    20a4:	df 92       	push	r13
    20a6:	ef 92       	push	r14
    20a8:	ff 92       	push	r15
    20aa:	cf 93       	push	r28
    20ac:	df 93       	push	r29
    20ae:	60 91 b0 20 	lds	r22, 0x20B0	; 0x8020b0 <gps_alt>
    20b2:	70 91 b1 20 	lds	r23, 0x20B1	; 0x8020b1 <gps_alt+0x1>
    20b6:	80 91 b2 20 	lds	r24, 0x20B2	; 0x8020b2 <gps_alt+0x2>
    20ba:	90 91 b3 20 	lds	r25, 0x20B3	; 0x8020b3 <gps_alt+0x3>
    20be:	03 d7       	rcall	.+3590   	; 0x2ec6 <__fixsfsi>
    20c0:	c6 2f       	mov	r28, r22
    20c2:	d7 2f       	mov	r29, r23
    20c4:	40 90 b4 20 	lds	r4, 0x20B4	; 0x8020b4 <gps_long>
    20c8:	50 90 b5 20 	lds	r5, 0x20B5	; 0x8020b5 <gps_long+0x1>
    20cc:	60 90 b6 20 	lds	r6, 0x20B6	; 0x8020b6 <gps_long+0x2>
    20d0:	70 90 b7 20 	lds	r7, 0x20B7	; 0x8020b7 <gps_long+0x3>
    20d4:	80 90 b8 20 	lds	r8, 0x20B8	; 0x8020b8 <gps_lat>
    20d8:	90 90 b9 20 	lds	r9, 0x20B9	; 0x8020b9 <gps_lat+0x1>
    20dc:	a0 90 ba 20 	lds	r10, 0x20BA	; 0x8020ba <gps_lat+0x2>
    20e0:	b0 90 bb 20 	lds	r11, 0x20BB	; 0x8020bb <gps_lat+0x3>
    20e4:	60 91 bc 20 	lds	r22, 0x20BC	; 0x8020bc <gps_t>
    20e8:	70 91 bd 20 	lds	r23, 0x20BD	; 0x8020bd <gps_t+0x1>
    20ec:	80 91 be 20 	lds	r24, 0x20BE	; 0x8020be <gps_t+0x2>
    20f0:	90 91 bf 20 	lds	r25, 0x20BF	; 0x8020bf <gps_t+0x3>
    20f4:	e8 d6       	rcall	.+3536   	; 0x2ec6 <__fixsfsi>
    20f6:	6b 01       	movw	r12, r22
    20f8:	7c 01       	movw	r14, r24
    20fa:	60 91 9e 20 	lds	r22, 0x209E	; 0x80209e <__data_end>
    20fe:	70 91 9f 20 	lds	r23, 0x209F	; 0x80209f <__data_end+0x1>
    2102:	80 91 a0 20 	lds	r24, 0x20A0	; 0x8020a0 <__data_end+0x2>
    2106:	90 91 a1 20 	lds	r25, 0x20A1	; 0x8020a1 <__data_end+0x3>
    210a:	dd d6       	rcall	.+3514   	; 0x2ec6 <__fixsfsi>
    210c:	7f 93       	push	r23
    210e:	6f 93       	push	r22
    2110:	80 91 ef 20 	lds	r24, 0x20EF	; 0x8020ef <state>
    2114:	1f 92       	push	r1
    2116:	8f 93       	push	r24
    2118:	60 91 a2 20 	lds	r22, 0x20A2	; 0x8020a2 <rpm>
    211c:	70 91 a3 20 	lds	r23, 0x20A3	; 0x8020a3 <rpm+0x1>
    2120:	80 91 a4 20 	lds	r24, 0x20A4	; 0x8020a4 <rpm+0x2>
    2124:	90 91 a5 20 	lds	r25, 0x20A5	; 0x8020a5 <rpm+0x3>
    2128:	ce d6       	rcall	.+3484   	; 0x2ec6 <__fixsfsi>
    212a:	7f 93       	push	r23
    212c:	6f 93       	push	r22
    212e:	60 91 a6 20 	lds	r22, 0x20A6	; 0x8020a6 <roll>
    2132:	70 91 a7 20 	lds	r23, 0x20A7	; 0x8020a7 <roll+0x1>
    2136:	80 91 a8 20 	lds	r24, 0x20A8	; 0x8020a8 <roll+0x2>
    213a:	90 91 a9 20 	lds	r25, 0x20A9	; 0x8020a9 <roll+0x3>
    213e:	c3 d6       	rcall	.+3462   	; 0x2ec6 <__fixsfsi>
    2140:	7f 93       	push	r23
    2142:	6f 93       	push	r22
    2144:	60 91 aa 20 	lds	r22, 0x20AA	; 0x8020aa <pitch>
    2148:	70 91 ab 20 	lds	r23, 0x20AB	; 0x8020ab <pitch+0x1>
    214c:	80 91 ac 20 	lds	r24, 0x20AC	; 0x8020ac <pitch+0x2>
    2150:	90 91 ad 20 	lds	r25, 0x20AD	; 0x8020ad <pitch+0x3>
    2154:	b8 d6       	rcall	.+3440   	; 0x2ec6 <__fixsfsi>
    2156:	7f 93       	push	r23
    2158:	6f 93       	push	r22
    215a:	80 91 af 20 	lds	r24, 0x20AF	; 0x8020af <gps_sats+0x1>
    215e:	8f 93       	push	r24
    2160:	80 91 ae 20 	lds	r24, 0x20AE	; 0x8020ae <gps_sats>
    2164:	8f 93       	push	r24
    2166:	8c 2f       	mov	r24, r28
    2168:	9d 2f       	mov	r25, r29
    216a:	88 0f       	add	r24, r24
    216c:	99 1f       	adc	r25, r25
    216e:	9c 01       	movw	r18, r24
    2170:	22 0f       	add	r18, r18
    2172:	33 1f       	adc	r19, r19
    2174:	22 0f       	add	r18, r18
    2176:	33 1f       	adc	r19, r19
    2178:	82 0f       	add	r24, r18
    217a:	93 1f       	adc	r25, r19
    217c:	6a e0       	ldi	r22, 0x0A	; 10
    217e:	70 e0       	ldi	r23, 0x00	; 0
    2180:	0e 94 35 1a 	call	0x346a	; 0x346a <__divmodhi4>
    2184:	9f 93       	push	r25
    2186:	8f 93       	push	r24
    2188:	df 93       	push	r29
    218a:	cf 93       	push	r28
    218c:	20 e0       	ldi	r18, 0x00	; 0
    218e:	34 e2       	ldi	r19, 0x24	; 36
    2190:	44 e7       	ldi	r20, 0x74	; 116
    2192:	59 e4       	ldi	r21, 0x49	; 73
    2194:	c3 01       	movw	r24, r6
    2196:	b2 01       	movw	r22, r4
    2198:	a9 d7       	rcall	.+3922   	; 0x30ec <__mulsf3>
    219a:	95 d6       	rcall	.+3370   	; 0x2ec6 <__fixsfsi>
    219c:	20 e4       	ldi	r18, 0x40	; 64
    219e:	32 e4       	ldi	r19, 0x42	; 66
    21a0:	4f e0       	ldi	r20, 0x0F	; 15
    21a2:	50 e0       	ldi	r21, 0x00	; 0
    21a4:	0e 94 6a 1a 	call	0x34d4	; 0x34d4 <__divmodsi4>
    21a8:	9b 01       	movw	r18, r22
    21aa:	77 23       	and	r23, r23
    21ac:	24 f4       	brge	.+8      	; 0x21b6 <packet+0x124>
    21ae:	22 27       	eor	r18, r18
    21b0:	33 27       	eor	r19, r19
    21b2:	26 1b       	sub	r18, r22
    21b4:	37 0b       	sbc	r19, r23
    21b6:	c9 01       	movw	r24, r18
    21b8:	33 0f       	add	r19, r19
    21ba:	aa 0b       	sbc	r26, r26
    21bc:	bb 0b       	sbc	r27, r27
    21be:	bf 93       	push	r27
    21c0:	af 93       	push	r26
    21c2:	9f 93       	push	r25
    21c4:	8f 93       	push	r24
    21c6:	c3 01       	movw	r24, r6
    21c8:	b2 01       	movw	r22, r4
    21ca:	7d d6       	rcall	.+3322   	; 0x2ec6 <__fixsfsi>
    21cc:	7f 93       	push	r23
    21ce:	6f 93       	push	r22
    21d0:	20 e0       	ldi	r18, 0x00	; 0
    21d2:	34 e2       	ldi	r19, 0x24	; 36
    21d4:	44 e7       	ldi	r20, 0x74	; 116
    21d6:	59 e4       	ldi	r21, 0x49	; 73
    21d8:	c5 01       	movw	r24, r10
    21da:	b4 01       	movw	r22, r8
    21dc:	87 d7       	rcall	.+3854   	; 0x30ec <__mulsf3>
    21de:	73 d6       	rcall	.+3302   	; 0x2ec6 <__fixsfsi>
    21e0:	20 e4       	ldi	r18, 0x40	; 64
    21e2:	32 e4       	ldi	r19, 0x42	; 66
    21e4:	4f e0       	ldi	r20, 0x0F	; 15
    21e6:	50 e0       	ldi	r21, 0x00	; 0
    21e8:	0e 94 6a 1a 	call	0x34d4	; 0x34d4 <__divmodsi4>
    21ec:	9f 93       	push	r25
    21ee:	8f 93       	push	r24
    21f0:	7f 93       	push	r23
    21f2:	6f 93       	push	r22
    21f4:	c5 01       	movw	r24, r10
    21f6:	b4 01       	movw	r22, r8
    21f8:	66 d6       	rcall	.+3276   	; 0x2ec6 <__fixsfsi>
    21fa:	7f 93       	push	r23
    21fc:	6f 93       	push	r22
    21fe:	0f 2e       	mov	r0, r31
    2200:	f4 e6       	ldi	r31, 0x64	; 100
    2202:	8f 2e       	mov	r8, r31
    2204:	91 2c       	mov	r9, r1
    2206:	a1 2c       	mov	r10, r1
    2208:	b1 2c       	mov	r11, r1
    220a:	f0 2d       	mov	r31, r0
    220c:	c7 01       	movw	r24, r14
    220e:	b6 01       	movw	r22, r12
    2210:	a5 01       	movw	r20, r10
    2212:	94 01       	movw	r18, r8
    2214:	0e 94 6a 1a 	call	0x34d4	; 0x34d4 <__divmodsi4>
    2218:	7f 93       	push	r23
    221a:	6f 93       	push	r22
    221c:	c7 01       	movw	r24, r14
    221e:	b6 01       	movw	r22, r12
    2220:	20 e1       	ldi	r18, 0x10	; 16
    2222:	37 e2       	ldi	r19, 0x27	; 39
    2224:	40 e0       	ldi	r20, 0x00	; 0
    2226:	50 e0       	ldi	r21, 0x00	; 0
    2228:	0e 94 6a 1a 	call	0x34d4	; 0x34d4 <__divmodsi4>
    222c:	c2 2f       	mov	r28, r18
    222e:	d3 2f       	mov	r29, r19
    2230:	a5 01       	movw	r20, r10
    2232:	94 01       	movw	r18, r8
    2234:	0e 94 6a 1a 	call	0x34d4	; 0x34d4 <__divmodsi4>
    2238:	3f 93       	push	r19
    223a:	2f 93       	push	r18
    223c:	df 93       	push	r29
    223e:	cf 93       	push	r28
    2240:	60 91 c4 20 	lds	r22, 0x20C4	; 0x8020c4 <volt>
    2244:	70 91 c5 20 	lds	r23, 0x20C5	; 0x8020c5 <volt+0x1>
    2248:	80 91 c6 20 	lds	r24, 0x20C6	; 0x8020c6 <volt+0x2>
    224c:	90 91 c7 20 	lds	r25, 0x20C7	; 0x8020c7 <volt+0x3>
    2250:	3a d6       	rcall	.+3188   	; 0x2ec6 <__fixsfsi>
    2252:	7f 93       	push	r23
    2254:	6f 93       	push	r22
    2256:	23 e3       	ldi	r18, 0x33	; 51
    2258:	33 e9       	ldi	r19, 0x93	; 147
    225a:	48 e8       	ldi	r20, 0x88	; 136
    225c:	53 e4       	ldi	r21, 0x43	; 67
    225e:	60 91 cc 20 	lds	r22, 0x20CC	; 0x8020cc <temp>
    2262:	70 91 cd 20 	lds	r23, 0x20CD	; 0x8020cd <temp+0x1>
    2266:	80 91 ce 20 	lds	r24, 0x20CE	; 0x8020ce <temp+0x2>
    226a:	90 91 cf 20 	lds	r25, 0x20CF	; 0x8020cf <temp+0x3>
    226e:	5a d5       	rcall	.+2740   	; 0x2d24 <__subsf3>
    2270:	2a d6       	rcall	.+3156   	; 0x2ec6 <__fixsfsi>
    2272:	7f 93       	push	r23
    2274:	6f 93       	push	r22
    2276:	60 91 d0 20 	lds	r22, 0x20D0	; 0x8020d0 <press>
    227a:	70 91 d1 20 	lds	r23, 0x20D1	; 0x8020d1 <press+0x1>
    227e:	80 91 d2 20 	lds	r24, 0x20D2	; 0x8020d2 <press+0x2>
    2282:	90 91 d3 20 	lds	r25, 0x20D3	; 0x8020d3 <press+0x3>
    2286:	1f d6       	rcall	.+3134   	; 0x2ec6 <__fixsfsi>
    2288:	9f 93       	push	r25
    228a:	8f 93       	push	r24
    228c:	7f 93       	push	r23
    228e:	6f 93       	push	r22
    2290:	60 91 c8 20 	lds	r22, 0x20C8	; 0x8020c8 <alt>
    2294:	70 91 c9 20 	lds	r23, 0x20C9	; 0x8020c9 <alt+0x1>
    2298:	80 91 ca 20 	lds	r24, 0x20CA	; 0x8020ca <alt+0x2>
    229c:	90 91 cb 20 	lds	r25, 0x20CB	; 0x8020cb <alt+0x3>
    22a0:	12 d6       	rcall	.+3108   	; 0x2ec6 <__fixsfsi>
    22a2:	7f 93       	push	r23
    22a4:	6f 93       	push	r22
    22a6:	80 91 d5 20 	lds	r24, 0x20D5	; 0x8020d5 <packets+0x1>
    22aa:	8f 93       	push	r24
    22ac:	80 91 d4 20 	lds	r24, 0x20D4	; 0x8020d4 <packets>
    22b0:	8f 93       	push	r24
    22b2:	80 91 d7 20 	lds	r24, 0x20D7	; 0x8020d7 <timer+0x1>
    22b6:	8f 93       	push	r24
    22b8:	80 91 d6 20 	lds	r24, 0x20D6	; 0x8020d6 <timer>
    22bc:	8f 93       	push	r24
    22be:	80 91 18 20 	lds	r24, 0x2018	; 0x802018 <format+0x1>
    22c2:	8f 93       	push	r24
    22c4:	80 91 17 20 	lds	r24, 0x2017	; 0x802017 <format>
    22c8:	8f 93       	push	r24
    22ca:	ce e0       	ldi	r28, 0x0E	; 14
    22cc:	d1 e2       	ldi	r29, 0x21	; 33
    22ce:	df 93       	push	r29
    22d0:	cf 93       	push	r28
    22d2:	0e 94 02 1b 	call	0x3604	; 0x3604 <sprintf>
    22d6:	8d b7       	in	r24, 0x3d	; 61
    22d8:	9e b7       	in	r25, 0x3e	; 62
    22da:	c4 96       	adiw	r24, 0x34	; 52
    22dc:	8d bf       	out	0x3d, r24	; 61
    22de:	9e bf       	out	0x3e, r25	; 62
    22e0:	df 93       	push	r29
    22e2:	cf 93       	push	r28
    22e4:	0e 94 ef 1a 	call	0x35de	; 0x35de <printf>
    22e8:	0f 90       	pop	r0
    22ea:	0f 90       	pop	r0
    22ec:	df 91       	pop	r29
    22ee:	cf 91       	pop	r28
    22f0:	ff 90       	pop	r15
    22f2:	ef 90       	pop	r14
    22f4:	df 90       	pop	r13
    22f6:	cf 90       	pop	r12
    22f8:	bf 90       	pop	r11
    22fa:	af 90       	pop	r10
    22fc:	9f 90       	pop	r9
    22fe:	8f 90       	pop	r8
    2300:	7f 90       	pop	r7
    2302:	6f 90       	pop	r6
    2304:	5f 90       	pop	r5
    2306:	4f 90       	pop	r4
    2308:	08 95       	ret

0000230a <xbee_command>:
    230a:	84 36       	cpi	r24, 0x64	; 100
    230c:	91 f0       	breq	.+36     	; 0x2332 <xbee_command+0x28>
    230e:	28 f4       	brcc	.+10     	; 0x231a <xbee_command+0x10>
    2310:	81 36       	cpi	r24, 0x61	; 97
    2312:	69 f0       	breq	.+26     	; 0x232e <xbee_command+0x24>
    2314:	83 36       	cpi	r24, 0x63	; 99
    2316:	49 f0       	breq	.+18     	; 0x232a <xbee_command+0x20>
    2318:	08 95       	ret
    231a:	85 36       	cpi	r24, 0x65	; 101
    231c:	21 f0       	breq	.+8      	; 0x2326 <xbee_command+0x1c>
    231e:	86 36       	cpi	r24, 0x66	; 102
    2320:	49 f4       	brne	.+18     	; 0x2334 <xbee_command+0x2a>
    2322:	98 cd       	rjmp	.-1232   	; 0x1e54 <reset>
    2324:	08 95       	ret
    2326:	0b ce       	rjmp	.-1002   	; 0x1f3e <cali_alt>
    2328:	08 95       	ret
    232a:	09 ce       	rjmp	.-1006   	; 0x1f3e <cali_alt>
    232c:	08 95       	ret
    232e:	34 ce       	rjmp	.-920    	; 0x1f98 <send_gps>
    2330:	08 95       	ret
    2332:	af ce       	rjmp	.-674    	; 0x2092 <packet>
    2334:	08 95       	ret

00002336 <eeprom_write>:
    2336:	cf 93       	push	r28
    2338:	df 93       	push	r29
    233a:	cd b7       	in	r28, 0x3d	; 61
    233c:	de b7       	in	r29, 0x3e	; 62
    233e:	2c 97       	sbiw	r28, 0x0c	; 12
    2340:	cd bf       	out	0x3d, r28	; 61
    2342:	de bf       	out	0x3e, r29	; 62
    2344:	60 91 c8 20 	lds	r22, 0x20C8	; 0x8020c8 <alt>
    2348:	70 91 c9 20 	lds	r23, 0x20C9	; 0x8020c9 <alt+0x1>
    234c:	80 91 ca 20 	lds	r24, 0x20CA	; 0x8020ca <alt+0x2>
    2350:	90 91 cb 20 	lds	r25, 0x20CB	; 0x8020cb <alt+0x3>
    2354:	b8 d5       	rcall	.+2928   	; 0x2ec6 <__fixsfsi>
    2356:	79 83       	std	Y+1, r23	; 0x01
    2358:	6a 83       	std	Y+2, r22	; 0x02
    235a:	80 91 d4 20 	lds	r24, 0x20D4	; 0x8020d4 <packets>
    235e:	90 91 d5 20 	lds	r25, 0x20D5	; 0x8020d5 <packets+0x1>
    2362:	9b 83       	std	Y+3, r25	; 0x03
    2364:	8c 83       	std	Y+4, r24	; 0x04
    2366:	80 91 d6 20 	lds	r24, 0x20D6	; 0x8020d6 <timer>
    236a:	90 91 d7 20 	lds	r25, 0x20D7	; 0x8020d7 <timer+0x1>
    236e:	9d 83       	std	Y+5, r25	; 0x05
    2370:	8e 83       	std	Y+6, r24	; 0x06
    2372:	86 e0       	ldi	r24, 0x06	; 6
    2374:	e1 e3       	ldi	r30, 0x31	; 49
    2376:	f0 e2       	ldi	r31, 0x20	; 32
    2378:	de 01       	movw	r26, r28
    237a:	17 96       	adiw	r26, 0x07	; 7
    237c:	01 90       	ld	r0, Z+
    237e:	0d 92       	st	X+, r0
    2380:	8a 95       	dec	r24
    2382:	e1 f7       	brne	.-8      	; 0x237c <eeprom_write+0x46>
    2384:	83 e3       	ldi	r24, 0x33	; 51
    2386:	80 93 ca 01 	sts	0x01CA, r24	; 0x8001ca <__TEXT_REGION_LENGTH__+0x7001ca>
    238a:	fe 01       	movw	r30, r28
    238c:	37 96       	adiw	r30, 0x07	; 7
    238e:	ce 01       	movw	r24, r28
    2390:	01 96       	adiw	r24, 0x01	; 1
    2392:	ae 01       	movw	r20, r28
    2394:	43 5f       	subi	r20, 0xF3	; 243
    2396:	5f 4f       	sbci	r21, 0xFF	; 255
    2398:	60 ec       	ldi	r22, 0xC0	; 192
    239a:	71 e0       	ldi	r23, 0x01	; 1
    239c:	21 91       	ld	r18, Z+
    239e:	db 01       	movw	r26, r22
    23a0:	2c 93       	st	X, r18
    23a2:	dc 01       	movw	r26, r24
    23a4:	2d 91       	ld	r18, X+
    23a6:	cd 01       	movw	r24, r26
    23a8:	db 01       	movw	r26, r22
    23aa:	14 96       	adiw	r26, 0x04	; 4
    23ac:	2c 93       	st	X, r18
    23ae:	e4 17       	cp	r30, r20
    23b0:	f5 07       	cpc	r31, r21
    23b2:	a1 f7       	brne	.-24     	; 0x239c <eeprom_write+0x66>
    23b4:	e0 ec       	ldi	r30, 0xC0	; 192
    23b6:	f1 e0       	ldi	r31, 0x01	; 1
    23b8:	85 e3       	ldi	r24, 0x35	; 53
    23ba:	82 87       	std	Z+10, r24	; 0x0a
    23bc:	10 82       	st	Z, r1
    23be:	80 e1       	ldi	r24, 0x10	; 16
    23c0:	81 83       	std	Z+1, r24	; 0x01
    23c2:	88 ed       	ldi	r24, 0xD8	; 216
    23c4:	84 bf       	out	0x34, r24	; 52
    23c6:	81 e0       	ldi	r24, 0x01	; 1
    23c8:	83 87       	std	Z+11, r24	; 0x0b
    23ca:	87 85       	ldd	r24, Z+15	; 0x0f
    23cc:	88 23       	and	r24, r24
    23ce:	ec f3       	brlt	.-6      	; 0x23ca <eeprom_write+0x94>
    23d0:	2c 96       	adiw	r28, 0x0c	; 12
    23d2:	cd bf       	out	0x3d, r28	; 61
    23d4:	de bf       	out	0x3e, r29	; 62
    23d6:	df 91       	pop	r29
    23d8:	cf 91       	pop	r28
    23da:	08 95       	ret

000023dc <__vector_47>:

ISR(TCE0_OVF_vect){
    23dc:	1f 92       	push	r1
    23de:	0f 92       	push	r0
    23e0:	0f b6       	in	r0, 0x3f	; 63
    23e2:	0f 92       	push	r0
    23e4:	11 24       	eor	r1, r1
    23e6:	08 b6       	in	r0, 0x38	; 56
    23e8:	0f 92       	push	r0
    23ea:	18 be       	out	0x38, r1	; 56
    23ec:	09 b6       	in	r0, 0x39	; 57
    23ee:	0f 92       	push	r0
    23f0:	19 be       	out	0x39, r1	; 57
    23f2:	0a b6       	in	r0, 0x3a	; 58
    23f4:	0f 92       	push	r0
    23f6:	1a be       	out	0x3a, r1	; 58
    23f8:	0b b6       	in	r0, 0x3b	; 59
    23fa:	0f 92       	push	r0
    23fc:	1b be       	out	0x3b, r1	; 59
    23fe:	4f 92       	push	r4
    2400:	5f 92       	push	r5
    2402:	6f 92       	push	r6
    2404:	7f 92       	push	r7
    2406:	8f 92       	push	r8
    2408:	9f 92       	push	r9
    240a:	af 92       	push	r10
    240c:	bf 92       	push	r11
    240e:	cf 92       	push	r12
    2410:	df 92       	push	r13
    2412:	ef 92       	push	r14
    2414:	ff 92       	push	r15
    2416:	0f 93       	push	r16
    2418:	1f 93       	push	r17
    241a:	2f 93       	push	r18
    241c:	3f 93       	push	r19
    241e:	4f 93       	push	r20
    2420:	5f 93       	push	r21
    2422:	6f 93       	push	r22
    2424:	7f 93       	push	r23
    2426:	8f 93       	push	r24
    2428:	9f 93       	push	r25
    242a:	af 93       	push	r26
    242c:	bf 93       	push	r27
    242e:	cf 93       	push	r28
    2430:	df 93       	push	r29
    2432:	ef 93       	push	r30
    2434:	ff 93       	push	r31
	timer++;
    2436:	c0 91 d6 20 	lds	r28, 0x20D6	; 0x8020d6 <timer>
    243a:	d0 91 d7 20 	lds	r29, 0x20D7	; 0x8020d7 <timer+0x1>
    243e:	21 96       	adiw	r28, 0x01	; 1
    2440:	c0 93 d6 20 	sts	0x20D6, r28	; 0x8020d6 <timer>
    2444:	d0 93 d7 20 	sts	0x20D7, r29	; 0x8020d7 <timer+0x1>
	sprintf(str,format,timer,packets,
	(int16_t) (alt),						(int32_t) press,							(int16_t) (temp-273.15),				(int16_t)volt,
	(int16_t) (((int32_t)gps_t)/10000),		(int16_t) ((((int32_t)gps_t)%10000)/100),	(int16_t) (((int32_t)gps_t)%100),
	(int16_t) gps_lat,						((int32_t) (gps_lat*1000000))%1000000,		(int16_t) gps_long,						(int32_t)(abs(((int32_t)(gps_long*1000000))%1000000)),
	(int16_t) gps_alt,						((int16_t) (gps_alt)*10)%10,				gps_sats,
    2448:	60 91 b0 20 	lds	r22, 0x20B0	; 0x8020b0 <gps_alt>
    244c:	70 91 b1 20 	lds	r23, 0x20B1	; 0x8020b1 <gps_alt+0x1>
    2450:	80 91 b2 20 	lds	r24, 0x20B2	; 0x8020b2 <gps_alt+0x2>
    2454:	90 91 b3 20 	lds	r25, 0x20B3	; 0x8020b3 <gps_alt+0x3>
    2458:	36 d5       	rcall	.+2668   	; 0x2ec6 <__fixsfsi>
    245a:	16 2f       	mov	r17, r22
    245c:	07 2f       	mov	r16, r23
ISR(TCE0_OVF_vect){
	timer++;
	sprintf(str,format,timer,packets,
	(int16_t) (alt),						(int32_t) press,							(int16_t) (temp-273.15),				(int16_t)volt,
	(int16_t) (((int32_t)gps_t)/10000),		(int16_t) ((((int32_t)gps_t)%10000)/100),	(int16_t) (((int32_t)gps_t)%100),
	(int16_t) gps_lat,						((int32_t) (gps_lat*1000000))%1000000,		(int16_t) gps_long,						(int32_t)(abs(((int32_t)(gps_long*1000000))%1000000)),
    245e:	40 90 b4 20 	lds	r4, 0x20B4	; 0x8020b4 <gps_long>
    2462:	50 90 b5 20 	lds	r5, 0x20B5	; 0x8020b5 <gps_long+0x1>
    2466:	60 90 b6 20 	lds	r6, 0x20B6	; 0x8020b6 <gps_long+0x2>
    246a:	70 90 b7 20 	lds	r7, 0x20B7	; 0x8020b7 <gps_long+0x3>
    246e:	80 90 b8 20 	lds	r8, 0x20B8	; 0x8020b8 <gps_lat>
    2472:	90 90 b9 20 	lds	r9, 0x20B9	; 0x8020b9 <gps_lat+0x1>
    2476:	a0 90 ba 20 	lds	r10, 0x20BA	; 0x8020ba <gps_lat+0x2>
    247a:	b0 90 bb 20 	lds	r11, 0x20BB	; 0x8020bb <gps_lat+0x3>

ISR(TCE0_OVF_vect){
	timer++;
	sprintf(str,format,timer,packets,
	(int16_t) (alt),						(int32_t) press,							(int16_t) (temp-273.15),				(int16_t)volt,
	(int16_t) (((int32_t)gps_t)/10000),		(int16_t) ((((int32_t)gps_t)%10000)/100),	(int16_t) (((int32_t)gps_t)%100),
    247e:	60 91 bc 20 	lds	r22, 0x20BC	; 0x8020bc <gps_t>
    2482:	70 91 bd 20 	lds	r23, 0x20BD	; 0x8020bd <gps_t+0x1>
    2486:	80 91 be 20 	lds	r24, 0x20BE	; 0x8020be <gps_t+0x2>
    248a:	90 91 bf 20 	lds	r25, 0x20BF	; 0x8020bf <gps_t+0x3>
    248e:	1b d5       	rcall	.+2614   	; 0x2ec6 <__fixsfsi>
    2490:	6b 01       	movw	r12, r22
    2492:	7c 01       	movw	r14, r24
	while(NVM.STATUS>>7);
}

ISR(TCE0_OVF_vect){
	timer++;
	sprintf(str,format,timer,packets,
    2494:	60 91 9e 20 	lds	r22, 0x209E	; 0x80209e <__data_end>
    2498:	70 91 9f 20 	lds	r23, 0x209F	; 0x80209f <__data_end+0x1>
    249c:	80 91 a0 20 	lds	r24, 0x20A0	; 0x8020a0 <__data_end+0x2>
    24a0:	90 91 a1 20 	lds	r25, 0x20A1	; 0x8020a1 <__data_end+0x3>
    24a4:	10 d5       	rcall	.+2592   	; 0x2ec6 <__fixsfsi>
    24a6:	7f 93       	push	r23
    24a8:	6f 93       	push	r22
    24aa:	80 91 ef 20 	lds	r24, 0x20EF	; 0x8020ef <state>
    24ae:	1f 92       	push	r1
    24b0:	8f 93       	push	r24
    24b2:	60 91 a2 20 	lds	r22, 0x20A2	; 0x8020a2 <rpm>
    24b6:	70 91 a3 20 	lds	r23, 0x20A3	; 0x8020a3 <rpm+0x1>
    24ba:	80 91 a4 20 	lds	r24, 0x20A4	; 0x8020a4 <rpm+0x2>
    24be:	90 91 a5 20 	lds	r25, 0x20A5	; 0x8020a5 <rpm+0x3>
    24c2:	01 d5       	rcall	.+2562   	; 0x2ec6 <__fixsfsi>
    24c4:	7f 93       	push	r23
    24c6:	6f 93       	push	r22
    24c8:	60 91 a6 20 	lds	r22, 0x20A6	; 0x8020a6 <roll>
    24cc:	70 91 a7 20 	lds	r23, 0x20A7	; 0x8020a7 <roll+0x1>
    24d0:	80 91 a8 20 	lds	r24, 0x20A8	; 0x8020a8 <roll+0x2>
    24d4:	90 91 a9 20 	lds	r25, 0x20A9	; 0x8020a9 <roll+0x3>
    24d8:	f6 d4       	rcall	.+2540   	; 0x2ec6 <__fixsfsi>
    24da:	7f 93       	push	r23
    24dc:	6f 93       	push	r22
    24de:	60 91 aa 20 	lds	r22, 0x20AA	; 0x8020aa <pitch>
    24e2:	70 91 ab 20 	lds	r23, 0x20AB	; 0x8020ab <pitch+0x1>
    24e6:	80 91 ac 20 	lds	r24, 0x20AC	; 0x8020ac <pitch+0x2>
    24ea:	90 91 ad 20 	lds	r25, 0x20AD	; 0x8020ad <pitch+0x3>
    24ee:	eb d4       	rcall	.+2518   	; 0x2ec6 <__fixsfsi>
    24f0:	7f 93       	push	r23
    24f2:	6f 93       	push	r22
    24f4:	80 91 af 20 	lds	r24, 0x20AF	; 0x8020af <gps_sats+0x1>
    24f8:	8f 93       	push	r24
    24fa:	80 91 ae 20 	lds	r24, 0x20AE	; 0x8020ae <gps_sats>
    24fe:	8f 93       	push	r24
    2500:	81 2f       	mov	r24, r17
    2502:	90 2f       	mov	r25, r16
    2504:	88 0f       	add	r24, r24
    2506:	99 1f       	adc	r25, r25
    2508:	9c 01       	movw	r18, r24
    250a:	22 0f       	add	r18, r18
    250c:	33 1f       	adc	r19, r19
    250e:	22 0f       	add	r18, r18
    2510:	33 1f       	adc	r19, r19
    2512:	82 0f       	add	r24, r18
    2514:	93 1f       	adc	r25, r19
    2516:	6a e0       	ldi	r22, 0x0A	; 10
    2518:	70 e0       	ldi	r23, 0x00	; 0
    251a:	a7 d7       	rcall	.+3918   	; 0x346a <__divmodhi4>
    251c:	9f 93       	push	r25
    251e:	8f 93       	push	r24
    2520:	0f 93       	push	r16
    2522:	1f 93       	push	r17
    2524:	20 e0       	ldi	r18, 0x00	; 0
    2526:	34 e2       	ldi	r19, 0x24	; 36
    2528:	44 e7       	ldi	r20, 0x74	; 116
    252a:	59 e4       	ldi	r21, 0x49	; 73
    252c:	c3 01       	movw	r24, r6
    252e:	b2 01       	movw	r22, r4
    2530:	dd d5       	rcall	.+3002   	; 0x30ec <__mulsf3>
    2532:	c9 d4       	rcall	.+2450   	; 0x2ec6 <__fixsfsi>
    2534:	20 e4       	ldi	r18, 0x40	; 64
    2536:	32 e4       	ldi	r19, 0x42	; 66
    2538:	4f e0       	ldi	r20, 0x0F	; 15
    253a:	50 e0       	ldi	r21, 0x00	; 0
    253c:	cb d7       	rcall	.+3990   	; 0x34d4 <__divmodsi4>
    253e:	9b 01       	movw	r18, r22
    2540:	77 23       	and	r23, r23
    2542:	24 f4       	brge	.+8      	; 0x254c <__vector_47+0x170>
    2544:	22 27       	eor	r18, r18
    2546:	33 27       	eor	r19, r19
    2548:	26 1b       	sub	r18, r22
    254a:	37 0b       	sbc	r19, r23
    254c:	c9 01       	movw	r24, r18
    254e:	33 0f       	add	r19, r19
    2550:	aa 0b       	sbc	r26, r26
    2552:	bb 0b       	sbc	r27, r27
    2554:	bf 93       	push	r27
    2556:	af 93       	push	r26
    2558:	9f 93       	push	r25
    255a:	8f 93       	push	r24
    255c:	c3 01       	movw	r24, r6
    255e:	b2 01       	movw	r22, r4
    2560:	b2 d4       	rcall	.+2404   	; 0x2ec6 <__fixsfsi>
    2562:	7f 93       	push	r23
    2564:	6f 93       	push	r22
    2566:	20 e0       	ldi	r18, 0x00	; 0
    2568:	34 e2       	ldi	r19, 0x24	; 36
    256a:	44 e7       	ldi	r20, 0x74	; 116
    256c:	59 e4       	ldi	r21, 0x49	; 73
    256e:	c5 01       	movw	r24, r10
    2570:	b4 01       	movw	r22, r8
    2572:	bc d5       	rcall	.+2936   	; 0x30ec <__mulsf3>
    2574:	a8 d4       	rcall	.+2384   	; 0x2ec6 <__fixsfsi>
    2576:	20 e4       	ldi	r18, 0x40	; 64
    2578:	32 e4       	ldi	r19, 0x42	; 66
    257a:	4f e0       	ldi	r20, 0x0F	; 15
    257c:	50 e0       	ldi	r21, 0x00	; 0
    257e:	aa d7       	rcall	.+3924   	; 0x34d4 <__divmodsi4>
    2580:	9f 93       	push	r25
    2582:	8f 93       	push	r24
    2584:	7f 93       	push	r23
    2586:	6f 93       	push	r22
    2588:	c5 01       	movw	r24, r10
    258a:	b4 01       	movw	r22, r8
    258c:	9c d4       	rcall	.+2360   	; 0x2ec6 <__fixsfsi>
    258e:	7f 93       	push	r23
    2590:	6f 93       	push	r22
    2592:	0f 2e       	mov	r0, r31
    2594:	f4 e6       	ldi	r31, 0x64	; 100
    2596:	8f 2e       	mov	r8, r31
    2598:	91 2c       	mov	r9, r1
    259a:	a1 2c       	mov	r10, r1
    259c:	b1 2c       	mov	r11, r1
    259e:	f0 2d       	mov	r31, r0
    25a0:	c7 01       	movw	r24, r14
    25a2:	b6 01       	movw	r22, r12
    25a4:	a5 01       	movw	r20, r10
    25a6:	94 01       	movw	r18, r8
    25a8:	95 d7       	rcall	.+3882   	; 0x34d4 <__divmodsi4>
    25aa:	7f 93       	push	r23
    25ac:	6f 93       	push	r22
    25ae:	c7 01       	movw	r24, r14
    25b0:	b6 01       	movw	r22, r12
    25b2:	20 e1       	ldi	r18, 0x10	; 16
    25b4:	37 e2       	ldi	r19, 0x27	; 39
    25b6:	40 e0       	ldi	r20, 0x00	; 0
    25b8:	50 e0       	ldi	r21, 0x00	; 0
    25ba:	8c d7       	rcall	.+3864   	; 0x34d4 <__divmodsi4>
    25bc:	12 2f       	mov	r17, r18
    25be:	03 2f       	mov	r16, r19
    25c0:	a5 01       	movw	r20, r10
    25c2:	94 01       	movw	r18, r8
    25c4:	87 d7       	rcall	.+3854   	; 0x34d4 <__divmodsi4>
    25c6:	3f 93       	push	r19
    25c8:	2f 93       	push	r18
    25ca:	0f 93       	push	r16
    25cc:	1f 93       	push	r17
    25ce:	60 91 c4 20 	lds	r22, 0x20C4	; 0x8020c4 <volt>
    25d2:	70 91 c5 20 	lds	r23, 0x20C5	; 0x8020c5 <volt+0x1>
    25d6:	80 91 c6 20 	lds	r24, 0x20C6	; 0x8020c6 <volt+0x2>
    25da:	90 91 c7 20 	lds	r25, 0x20C7	; 0x8020c7 <volt+0x3>
    25de:	73 d4       	rcall	.+2278   	; 0x2ec6 <__fixsfsi>
    25e0:	7f 93       	push	r23
    25e2:	6f 93       	push	r22
    25e4:	23 e3       	ldi	r18, 0x33	; 51
    25e6:	33 e9       	ldi	r19, 0x93	; 147
    25e8:	48 e8       	ldi	r20, 0x88	; 136
    25ea:	53 e4       	ldi	r21, 0x43	; 67
    25ec:	60 91 cc 20 	lds	r22, 0x20CC	; 0x8020cc <temp>
    25f0:	70 91 cd 20 	lds	r23, 0x20CD	; 0x8020cd <temp+0x1>
    25f4:	80 91 ce 20 	lds	r24, 0x20CE	; 0x8020ce <temp+0x2>
    25f8:	90 91 cf 20 	lds	r25, 0x20CF	; 0x8020cf <temp+0x3>
    25fc:	93 d3       	rcall	.+1830   	; 0x2d24 <__subsf3>
    25fe:	63 d4       	rcall	.+2246   	; 0x2ec6 <__fixsfsi>
    2600:	7f 93       	push	r23
    2602:	6f 93       	push	r22
    2604:	60 91 d0 20 	lds	r22, 0x20D0	; 0x8020d0 <press>
    2608:	70 91 d1 20 	lds	r23, 0x20D1	; 0x8020d1 <press+0x1>
    260c:	80 91 d2 20 	lds	r24, 0x20D2	; 0x8020d2 <press+0x2>
    2610:	90 91 d3 20 	lds	r25, 0x20D3	; 0x8020d3 <press+0x3>
    2614:	58 d4       	rcall	.+2224   	; 0x2ec6 <__fixsfsi>
    2616:	9f 93       	push	r25
    2618:	8f 93       	push	r24
    261a:	7f 93       	push	r23
    261c:	6f 93       	push	r22
    261e:	60 91 c8 20 	lds	r22, 0x20C8	; 0x8020c8 <alt>
    2622:	70 91 c9 20 	lds	r23, 0x20C9	; 0x8020c9 <alt+0x1>
    2626:	80 91 ca 20 	lds	r24, 0x20CA	; 0x8020ca <alt+0x2>
    262a:	90 91 cb 20 	lds	r25, 0x20CB	; 0x8020cb <alt+0x3>
    262e:	4b d4       	rcall	.+2198   	; 0x2ec6 <__fixsfsi>
    2630:	7f 93       	push	r23
    2632:	6f 93       	push	r22
    2634:	80 91 d5 20 	lds	r24, 0x20D5	; 0x8020d5 <packets+0x1>
    2638:	8f 93       	push	r24
    263a:	80 91 d4 20 	lds	r24, 0x20D4	; 0x8020d4 <packets>
    263e:	8f 93       	push	r24
    2640:	df 93       	push	r29
    2642:	cf 93       	push	r28
    2644:	80 91 18 20 	lds	r24, 0x2018	; 0x802018 <format+0x1>
    2648:	8f 93       	push	r24
    264a:	80 91 17 20 	lds	r24, 0x2017	; 0x802017 <format>
    264e:	8f 93       	push	r24
    2650:	ce e0       	ldi	r28, 0x0E	; 14
    2652:	d1 e2       	ldi	r29, 0x21	; 33
    2654:	df 93       	push	r29
    2656:	cf 93       	push	r28
    2658:	d5 d7       	rcall	.+4010   	; 0x3604 <sprintf>
	(int16_t) (((int32_t)gps_t)/10000),		(int16_t) ((((int32_t)gps_t)%10000)/100),	(int16_t) (((int32_t)gps_t)%100),
	(int16_t) gps_lat,						((int32_t) (gps_lat*1000000))%1000000,		(int16_t) gps_long,						(int32_t)(abs(((int32_t)(gps_long*1000000))%1000000)),
	(int16_t) gps_alt,						((int16_t) (gps_alt)*10)%10,				gps_sats,
	(int16_t) pitch,						(int16_t) roll,								(int16_t) rpm,
	state,									(int16_t)angle); // Data Logging Test
	printf(str);
    265a:	8d b7       	in	r24, 0x3d	; 61
    265c:	9e b7       	in	r25, 0x3e	; 62
    265e:	c4 96       	adiw	r24, 0x34	; 52
    2660:	8d bf       	out	0x3d, r24	; 61
    2662:	9e bf       	out	0x3e, r25	; 62
    2664:	df 93       	push	r29
    2666:	cf 93       	push	r28
    2668:	ba d7       	rcall	.+3956   	; 0x35de <printf>
    266a:	65 de       	rcall	.-822    	; 0x2336 <eeprom_write>
	
	// Updates EEPROM
	eeprom_write();
    266c:	0f 90       	pop	r0
    266e:	0f 90       	pop	r0
	uint8_t byte0 = eeprom_read(EEPROM_PAGE | PACKET_ADDR_BYTE0);
	uint8_t byte1 = eeprom_read(EEPROM_PAGE | PACKET_ADDR_BYTE1);
	uint16_t a = (uint16_t) ((byte1<<8) | byte0);
	printf("%u\n", a);
	*/
}
    2670:	ff 91       	pop	r31
    2672:	ef 91       	pop	r30
    2674:	df 91       	pop	r29
    2676:	cf 91       	pop	r28
    2678:	bf 91       	pop	r27
    267a:	af 91       	pop	r26
    267c:	9f 91       	pop	r25
    267e:	8f 91       	pop	r24
    2680:	7f 91       	pop	r23
    2682:	6f 91       	pop	r22
    2684:	5f 91       	pop	r21
    2686:	4f 91       	pop	r20
    2688:	3f 91       	pop	r19
    268a:	2f 91       	pop	r18
    268c:	1f 91       	pop	r17
    268e:	0f 91       	pop	r16
    2690:	ff 90       	pop	r15
    2692:	ef 90       	pop	r14
    2694:	df 90       	pop	r13
    2696:	cf 90       	pop	r12
    2698:	bf 90       	pop	r11
    269a:	af 90       	pop	r10
    269c:	9f 90       	pop	r9
    269e:	8f 90       	pop	r8
    26a0:	7f 90       	pop	r7
    26a2:	6f 90       	pop	r6
    26a4:	5f 90       	pop	r5
    26a6:	4f 90       	pop	r4
    26a8:	0f 90       	pop	r0
    26aa:	0b be       	out	0x3b, r0	; 59
    26ac:	0f 90       	pop	r0
    26ae:	0a be       	out	0x3a, r0	; 58
    26b0:	0f 90       	pop	r0
    26b2:	09 be       	out	0x39, r0	; 57
    26b4:	0f 90       	pop	r0
    26b6:	08 be       	out	0x38, r0	; 56
    26b8:	0f 90       	pop	r0
    26ba:	0f be       	out	0x3f, r0	; 63
    26bc:	0f 90       	pop	r0
    26be:	1f 90       	pop	r1
    26c0:	18 95       	reti

000026c2 <__vector_58>:
    26c2:	1f 92       	push	r1
    26c4:	0f 92       	push	r0

ISR(USARTE0_RXC_vect){
    26c6:	0f b6       	in	r0, 0x3f	; 63
    26c8:	0f 92       	push	r0
    26ca:	11 24       	eor	r1, r1
    26cc:	08 b6       	in	r0, 0x38	; 56
    26ce:	0f 92       	push	r0
    26d0:	18 be       	out	0x38, r1	; 56
    26d2:	09 b6       	in	r0, 0x39	; 57
    26d4:	0f 92       	push	r0
    26d6:	19 be       	out	0x39, r1	; 57
    26d8:	0b b6       	in	r0, 0x3b	; 59
    26da:	0f 92       	push	r0
    26dc:	1b be       	out	0x3b, r1	; 59
    26de:	2f 93       	push	r18
    26e0:	3f 93       	push	r19
    26e2:	4f 93       	push	r20
    26e4:	5f 93       	push	r21
    26e6:	6f 93       	push	r22
    26e8:	7f 93       	push	r23
    26ea:	8f 93       	push	r24
    26ec:	9f 93       	push	r25
    26ee:	af 93       	push	r26
    26f0:	bf 93       	push	r27
    26f2:	ef 93       	push	r30
    26f4:	ff 93       	push	r31
	uint8_t c = usart_getchar(UART_TERMINAL_SERIAL);
    26f6:	80 ea       	ldi	r24, 0xA0	; 160
    26f8:	9a e0       	ldi	r25, 0x0A	; 10
    26fa:	0e 94 87 03 	call	0x70e	; 0x70e <usart_getchar>
	//printf("%c\n", c);
	xbee_command(c);
    26fe:	05 de       	rcall	.-1014   	; 0x230a <xbee_command>
}
    2700:	ff 91       	pop	r31
    2702:	ef 91       	pop	r30
    2704:	bf 91       	pop	r27
    2706:	af 91       	pop	r26
    2708:	9f 91       	pop	r25
    270a:	8f 91       	pop	r24
    270c:	7f 91       	pop	r23
    270e:	6f 91       	pop	r22
    2710:	5f 91       	pop	r21
    2712:	4f 91       	pop	r20
    2714:	3f 91       	pop	r19
    2716:	2f 91       	pop	r18
    2718:	0f 90       	pop	r0
    271a:	0b be       	out	0x3b, r0	; 59
    271c:	0f 90       	pop	r0
    271e:	09 be       	out	0x39, r0	; 57
    2720:	0f 90       	pop	r0
    2722:	08 be       	out	0x38, r0	; 56
    2724:	0f 90       	pop	r0
    2726:	0f be       	out	0x3f, r0	; 63
    2728:	0f 90       	pop	r0
    272a:	1f 90       	pop	r1
    272c:	18 95       	reti

0000272e <__vector_91>:


// GPS recording
ISR(USARTD1_RXC_vect){
    272e:	1f 92       	push	r1
    2730:	0f 92       	push	r0
    2732:	0f b6       	in	r0, 0x3f	; 63
    2734:	0f 92       	push	r0
    2736:	11 24       	eor	r1, r1
    2738:	08 b6       	in	r0, 0x38	; 56
    273a:	0f 92       	push	r0
    273c:	18 be       	out	0x38, r1	; 56
    273e:	09 b6       	in	r0, 0x39	; 57
    2740:	0f 92       	push	r0
    2742:	19 be       	out	0x39, r1	; 57
    2744:	0a b6       	in	r0, 0x3a	; 58
    2746:	0f 92       	push	r0
    2748:	1a be       	out	0x3a, r1	; 58
    274a:	0b b6       	in	r0, 0x3b	; 59
    274c:	0f 92       	push	r0
    274e:	1b be       	out	0x3b, r1	; 59
    2750:	8f 92       	push	r8
    2752:	9f 92       	push	r9
    2754:	af 92       	push	r10
    2756:	bf 92       	push	r11
    2758:	cf 92       	push	r12
    275a:	df 92       	push	r13
    275c:	ef 92       	push	r14
    275e:	ff 92       	push	r15
    2760:	1f 93       	push	r17
    2762:	2f 93       	push	r18
    2764:	3f 93       	push	r19
    2766:	4f 93       	push	r20
    2768:	5f 93       	push	r21
    276a:	6f 93       	push	r22
    276c:	7f 93       	push	r23
    276e:	8f 93       	push	r24
    2770:	9f 93       	push	r25
    2772:	af 93       	push	r26
    2774:	bf 93       	push	r27
    2776:	ef 93       	push	r30
    2778:	ff 93       	push	r31
    277a:	cf 93       	push	r28
    277c:	df 93       	push	r29
    277e:	00 d0       	rcall	.+0      	; 0x2780 <__vector_91+0x52>
    2780:	00 d0       	rcall	.+0      	; 0x2782 <__vector_91+0x54>
    2782:	cd b7       	in	r28, 0x3d	; 61
    2784:	de b7       	in	r29, 0x3e	; 62
	uint8_t c = usart_getchar(GPS_TERMINAL_SERIAL);
    2786:	80 eb       	ldi	r24, 0xB0	; 176
    2788:	99 e0       	ldi	r25, 0x09	; 9
    278a:	0e 94 87 03 	call	0x70e	; 0x70e <usart_getchar>
    278e:	18 2f       	mov	r17, r24
	//printf("%c",c);
	
	if(c == (uint8_t) '$'){
    2790:	84 32       	cpi	r24, 0x24	; 36
    2792:	49 f4       	brne	.+18     	; 0x27a6 <__vector_91+0x78>
		writing = 1;
    2794:	81 e0       	ldi	r24, 0x01	; 1
    2796:	80 93 dc 20 	sts	0x20DC, r24	; 0x8020dc <writing>
		pos = 0;
		word_pos = 0;
    279a:	10 92 da 20 	sts	0x20DA, r1	; 0x8020da <word_pos>
		commas = 0;
    279e:	10 92 d9 20 	sts	0x20D9, r1	; 0x8020d9 <commas>
			}
		}
	}
		
	if(writing){
		switch(pos){
    27a2:	90 e0       	ldi	r25, 0x00	; 0
    27a4:	68 c2       	rjmp	.+1232   	; 0x2c76 <__vector_91+0x548>
		writing = 1;
		pos = 0;
		word_pos = 0;
		commas = 0;
	}
	else if(c == (uint8_t) '*'){
    27a6:	8a 32       	cpi	r24, 0x2A	; 42
    27a8:	29 f4       	brne	.+10     	; 0x27b4 <__vector_91+0x86>
		commas = 0;
    27aa:	10 92 d9 20 	sts	0x20D9, r1	; 0x8020d9 <commas>
		writing = 0;
    27ae:	10 92 dc 20 	sts	0x20DC, r1	; 0x8020dc <writing>
    27b2:	91 c2       	rjmp	.+1314   	; 0x2cd6 <__vector_91+0x5a8>
	}
	else if(c == (uint8_t) ','){
    27b4:	8c 32       	cpi	r24, 0x2C	; 44
    27b6:	09 f0       	breq	.+2      	; 0x27ba <__vector_91+0x8c>
    27b8:	49 c2       	rjmp	.+1170   	; 0x2c4c <__vector_91+0x51e>
		gps[0] = 32;
    27ba:	ea ef       	ldi	r30, 0xFA	; 250
    27bc:	f0 e2       	ldi	r31, 0x20	; 32
    27be:	80 e2       	ldi	r24, 0x20	; 32
    27c0:	80 83       	st	Z, r24
		if(gps[1] == 32){
    27c2:	81 81       	ldd	r24, Z+1	; 0x01
    27c4:	80 32       	cpi	r24, 0x20	; 32
    27c6:	09 f0       	breq	.+2      	; 0x27ca <__vector_91+0x9c>
    27c8:	6d c2       	rjmp	.+1242   	; 0x2ca4 <__vector_91+0x576>
			gps[0] = '0';
    27ca:	80 e3       	ldi	r24, 0x30	; 48
    27cc:	80 93 fa 20 	sts	0x20FA, r24	; 0x8020fa <gps>
    27d0:	69 c2       	rjmp	.+1234   	; 0x2ca4 <__vector_91+0x576>
			case 7:			//Sats
				sscanf(gps,"%d",&gps_sats);
				break;
			case 9:			//Altitude
				for(uint8_t i = 0; i < 15; i++){
					if(gps[i] == (uint8_t) '.'){
    27d2:	80 91 fa 20 	lds	r24, 0x20FA	; 0x8020fa <gps>
    27d6:	8e 32       	cpi	r24, 0x2E	; 46
    27d8:	09 f0       	breq	.+2      	; 0x27dc <__vector_91+0xae>
    27da:	9e c1       	rjmp	.+828    	; 0x2b18 <__vector_91+0x3ea>
    27dc:	a4 c1       	rjmp	.+840    	; 0x2b26 <__vector_91+0x3f8>
				sscanf(dec,"%d",&val2);
				gps_lat = val/100 + ((double)(val%100) + ((double)(val2))/10000) / 60.0;
				break;
			case 4:			//Longitude
				for(uint8_t i = 0; i < 15; i++){
					if(gps[i] == (uint8_t) '.'){
    27de:	80 91 fa 20 	lds	r24, 0x20FA	; 0x8020fa <gps>
    27e2:	8e 32       	cpi	r24, 0x2E	; 46
    27e4:	09 f0       	breq	.+2      	; 0x27e8 <__vector_91+0xba>
    27e6:	ec c0       	rjmp	.+472    	; 0x29c0 <__vector_91+0x292>
    27e8:	f2 c0       	rjmp	.+484    	; 0x29ce <__vector_91+0x2a0>
				sscanf(gps,"%ld",&val);
				gps_t = (double) val;
				break;
			case 2:			//Latitude
				for(uint8_t i = 0; i < 15; i++){
					if(gps[i] == (uint8_t) '.'){
    27ea:	80 91 fa 20 	lds	r24, 0x20FA	; 0x8020fa <gps>
    27ee:	8e 32       	cpi	r24, 0x2E	; 46
    27f0:	09 f0       	breq	.+2      	; 0x27f4 <__vector_91+0xc6>
    27f2:	51 c0       	rjmp	.+162    	; 0x2896 <__vector_91+0x168>
    27f4:	57 c0       	rjmp	.+174    	; 0x28a4 <__vector_91+0x176>
		int32_t val = 0;
		int16_t val2 = 0;
		switch(commas){
			case 1:			//Time
				for(uint8_t i = 0; i < 15; i++){
					if(gps[i] == (uint8_t) '.'){
    27f6:	91 91       	ld	r25, Z+
    27f8:	9e 32       	cpi	r25, 0x2E	; 46
    27fa:	29 f4       	brne	.+10     	; 0x2806 <__vector_91+0xd8>
    27fc:	01 c0       	rjmp	.+2      	; 0x2800 <__vector_91+0xd2>
    27fe:	80 e0       	ldi	r24, 0x00	; 0
						idx = i;
    2800:	80 93 d8 20 	sts	0x20D8, r24	; 0x8020d8 <idx>
						break;
    2804:	03 c0       	rjmp	.+6      	; 0x280c <__vector_91+0xde>
		}
		int32_t val = 0;
		int16_t val2 = 0;
		switch(commas){
			case 1:			//Time
				for(uint8_t i = 0; i < 15; i++){
    2806:	8f 5f       	subi	r24, 0xFF	; 255
    2808:	8f 30       	cpi	r24, 0x0F	; 15
    280a:	a9 f7       	brne	.-22     	; 0x27f6 <__vector_91+0xc8>
					if(gps[i] == (uint8_t) '.'){
						idx = i;
						break;
					}
				}
				gps[idx] = 32;
    280c:	20 91 d8 20 	lds	r18, 0x20D8	; 0x8020d8 <idx>
    2810:	e2 2f       	mov	r30, r18
    2812:	f0 e0       	ldi	r31, 0x00	; 0
    2814:	e6 50       	subi	r30, 0x06	; 6
    2816:	ff 4d       	sbci	r31, 0xDF	; 223
    2818:	80 e2       	ldi	r24, 0x20	; 32
    281a:	80 83       	st	Z, r24
				for(uint8_t i = idx+1; i < 15; i++){
    281c:	2f 5f       	subi	r18, 0xFF	; 255
    281e:	2f 30       	cpi	r18, 0x0F	; 15
    2820:	c8 f4       	brcc	.+50     	; 0x2854 <__vector_91+0x126>
					if(gps[i] == 32){
    2822:	82 2f       	mov	r24, r18
    2824:	90 e0       	ldi	r25, 0x00	; 0
    2826:	fc 01       	movw	r30, r24
    2828:	e6 50       	subi	r30, 0x06	; 6
    282a:	ff 4d       	sbci	r31, 0xDF	; 223
    282c:	30 81       	ld	r19, Z
    282e:	30 32       	cpi	r19, 0x20	; 32
    2830:	89 f0       	breq	.+34     	; 0x2854 <__vector_91+0x126>
						break;
					}
					gps[i] = 32;
    2832:	40 e2       	ldi	r20, 0x20	; 32
    2834:	08 c0       	rjmp	.+16     	; 0x2846 <__vector_91+0x118>
						break;
					}
				}
				gps[idx] = 32;
				for(uint8_t i = idx+1; i < 15; i++){
					if(gps[i] == 32){
    2836:	82 2f       	mov	r24, r18
    2838:	90 e0       	ldi	r25, 0x00	; 0
    283a:	fc 01       	movw	r30, r24
    283c:	e6 50       	subi	r30, 0x06	; 6
    283e:	ff 4d       	sbci	r31, 0xDF	; 223
    2840:	30 81       	ld	r19, Z
    2842:	30 32       	cpi	r19, 0x20	; 32
    2844:	39 f0       	breq	.+14     	; 0x2854 <__vector_91+0x126>
						break;
					}
					gps[i] = 32;
    2846:	fc 01       	movw	r30, r24
    2848:	e6 50       	subi	r30, 0x06	; 6
    284a:	ff 4d       	sbci	r31, 0xDF	; 223
    284c:	40 83       	st	Z, r20
						idx = i;
						break;
					}
				}
				gps[idx] = 32;
				for(uint8_t i = idx+1; i < 15; i++){
    284e:	2f 5f       	subi	r18, 0xFF	; 255
    2850:	2f 30       	cpi	r18, 0x0F	; 15
    2852:	89 f7       	brne	.-30     	; 0x2836 <__vector_91+0x108>
					if(gps[i] == 32){
						break;
					}
					gps[i] = 32;
				}
				sscanf(gps,"%ld",&val);
    2854:	ce 01       	movw	r24, r28
    2856:	01 96       	adiw	r24, 0x01	; 1
    2858:	9f 93       	push	r25
    285a:	8f 93       	push	r24
    285c:	86 e9       	ldi	r24, 0x96	; 150
    285e:	90 e2       	ldi	r25, 0x20	; 32
    2860:	9f 93       	push	r25
    2862:	8f 93       	push	r24
    2864:	8a ef       	ldi	r24, 0xFA	; 250
    2866:	90 e2       	ldi	r25, 0x20	; 32
    2868:	9f 93       	push	r25
    286a:	8f 93       	push	r24
    286c:	f3 d6       	rcall	.+3558   	; 0x3654 <sscanf>
				gps_t = (double) val;
    286e:	69 81       	ldd	r22, Y+1	; 0x01
    2870:	7a 81       	ldd	r23, Y+2	; 0x02
    2872:	8b 81       	ldd	r24, Y+3	; 0x03
    2874:	9c 81       	ldd	r25, Y+4	; 0x04
    2876:	5a d3       	rcall	.+1716   	; 0x2f2c <__floatsisf>
    2878:	60 93 bc 20 	sts	0x20BC, r22	; 0x8020bc <gps_t>
    287c:	70 93 bd 20 	sts	0x20BD, r23	; 0x8020bd <gps_t+0x1>
    2880:	80 93 be 20 	sts	0x20BE, r24	; 0x8020be <gps_t+0x2>
    2884:	90 93 bf 20 	sts	0x20BF, r25	; 0x8020bf <gps_t+0x3>
				break;
    2888:	0f 90       	pop	r0
    288a:	0f 90       	pop	r0
    288c:	0f 90       	pop	r0
    288e:	0f 90       	pop	r0
    2890:	0f 90       	pop	r0
    2892:	0f 90       	pop	r0
    2894:	bd c1       	rjmp	.+890    	; 0x2c10 <__vector_91+0x4e2>
    2896:	eb ef       	ldi	r30, 0xFB	; 251
    2898:	f0 e2       	ldi	r31, 0x20	; 32
			case 2:			//Latitude
				for(uint8_t i = 0; i < 15; i++){
    289a:	81 e0       	ldi	r24, 0x01	; 1
					if(gps[i] == (uint8_t) '.'){
    289c:	91 91       	ld	r25, Z+
    289e:	9e 32       	cpi	r25, 0x2E	; 46
    28a0:	29 f4       	brne	.+10     	; 0x28ac <__vector_91+0x17e>
    28a2:	01 c0       	rjmp	.+2      	; 0x28a6 <__vector_91+0x178>
    28a4:	80 e0       	ldi	r24, 0x00	; 0
						idx = i;
    28a6:	80 93 d8 20 	sts	0x20D8, r24	; 0x8020d8 <idx>
						break;
    28aa:	03 c0       	rjmp	.+6      	; 0x28b2 <__vector_91+0x184>
				}
				sscanf(gps,"%ld",&val);
				gps_t = (double) val;
				break;
			case 2:			//Latitude
				for(uint8_t i = 0; i < 15; i++){
    28ac:	8f 5f       	subi	r24, 0xFF	; 255
    28ae:	8f 30       	cpi	r24, 0x0F	; 15
    28b0:	a9 f7       	brne	.-22     	; 0x289c <__vector_91+0x16e>
					if(gps[i] == (uint8_t) '.'){
						idx = i;
						break;
					}
				}
				gps[idx] = 32;
    28b2:	20 91 d8 20 	lds	r18, 0x20D8	; 0x8020d8 <idx>
    28b6:	42 2f       	mov	r20, r18
    28b8:	50 e0       	ldi	r21, 0x00	; 0
    28ba:	fa 01       	movw	r30, r20
    28bc:	e6 50       	subi	r30, 0x06	; 6
    28be:	ff 4d       	sbci	r31, 0xDF	; 223
    28c0:	80 e2       	ldi	r24, 0x20	; 32
    28c2:	80 83       	st	Z, r24
				for(uint8_t i = idx+1; i < 15; i++){
    28c4:	2f 5f       	subi	r18, 0xFF	; 255
    28c6:	2f 30       	cpi	r18, 0x0F	; 15
    28c8:	f8 f4       	brcc	.+62     	; 0x2908 <__vector_91+0x1da>
					if(gps[i] == 32){
    28ca:	82 2f       	mov	r24, r18
    28cc:	90 e0       	ldi	r25, 0x00	; 0
    28ce:	fc 01       	movw	r30, r24
    28d0:	e6 50       	subi	r30, 0x06	; 6
    28d2:	ff 4d       	sbci	r31, 0xDF	; 223
    28d4:	30 81       	ld	r19, Z
    28d6:	30 32       	cpi	r19, 0x20	; 32
    28d8:	b9 f0       	breq	.+46     	; 0x2908 <__vector_91+0x1da>
						break;
					}
					dec[i-idx-1] = gps[i];
					gps[i] = 32;
    28da:	60 e2       	ldi	r22, 0x20	; 32
    28dc:	08 c0       	rjmp	.+16     	; 0x28ee <__vector_91+0x1c0>
						break;
					}
				}
				gps[idx] = 32;
				for(uint8_t i = idx+1; i < 15; i++){
					if(gps[i] == 32){
    28de:	82 2f       	mov	r24, r18
    28e0:	90 e0       	ldi	r25, 0x00	; 0
    28e2:	fc 01       	movw	r30, r24
    28e4:	e6 50       	subi	r30, 0x06	; 6
    28e6:	ff 4d       	sbci	r31, 0xDF	; 223
    28e8:	30 81       	ld	r19, Z
    28ea:	30 32       	cpi	r19, 0x20	; 32
    28ec:	69 f0       	breq	.+26     	; 0x2908 <__vector_91+0x1da>
						break;
					}
					dec[i-idx-1] = gps[i];
    28ee:	fc 01       	movw	r30, r24
    28f0:	e4 1b       	sub	r30, r20
    28f2:	f5 0b       	sbc	r31, r21
    28f4:	e8 5f       	subi	r30, 0xF8	; 248
    28f6:	fe 4d       	sbci	r31, 0xDE	; 222
    28f8:	30 83       	st	Z, r19
					gps[i] = 32;
    28fa:	fc 01       	movw	r30, r24
    28fc:	e6 50       	subi	r30, 0x06	; 6
    28fe:	ff 4d       	sbci	r31, 0xDF	; 223
    2900:	60 83       	st	Z, r22
						idx = i;
						break;
					}
				}
				gps[idx] = 32;
				for(uint8_t i = idx+1; i < 15; i++){
    2902:	2f 5f       	subi	r18, 0xFF	; 255
    2904:	2f 30       	cpi	r18, 0x0F	; 15
    2906:	59 f7       	brne	.-42     	; 0x28de <__vector_91+0x1b0>
						break;
					}
					dec[i-idx-1] = gps[i];
					gps[i] = 32;
				}
				if(dec[0] == 32){
    2908:	80 91 09 21 	lds	r24, 0x2109	; 0x802109 <dec>
    290c:	80 32       	cpi	r24, 0x20	; 32
    290e:	19 f4       	brne	.+6      	; 0x2916 <__vector_91+0x1e8>
					dec[0] = '0';
    2910:	80 e3       	ldi	r24, 0x30	; 48
    2912:	80 93 09 21 	sts	0x2109, r24	; 0x802109 <dec>
				}
				sscanf(gps,"%ld",&val);
    2916:	ce 01       	movw	r24, r28
    2918:	01 96       	adiw	r24, 0x01	; 1
    291a:	9f 93       	push	r25
    291c:	8f 93       	push	r24
    291e:	86 e9       	ldi	r24, 0x96	; 150
    2920:	90 e2       	ldi	r25, 0x20	; 32
    2922:	9f 93       	push	r25
    2924:	8f 93       	push	r24
    2926:	8a ef       	ldi	r24, 0xFA	; 250
    2928:	90 e2       	ldi	r25, 0x20	; 32
    292a:	9f 93       	push	r25
    292c:	8f 93       	push	r24
    292e:	92 d6       	rcall	.+3364   	; 0x3654 <sscanf>
				sscanf(dec,"%d",&val2);
    2930:	ce 01       	movw	r24, r28
    2932:	05 96       	adiw	r24, 0x05	; 5
    2934:	9f 93       	push	r25
    2936:	8f 93       	push	r24
    2938:	8a e9       	ldi	r24, 0x9A	; 154
    293a:	90 e2       	ldi	r25, 0x20	; 32
    293c:	9f 93       	push	r25
    293e:	8f 93       	push	r24
    2940:	89 e0       	ldi	r24, 0x09	; 9
    2942:	91 e2       	ldi	r25, 0x21	; 33
    2944:	9f 93       	push	r25
    2946:	8f 93       	push	r24
    2948:	85 d6       	rcall	.+3338   	; 0x3654 <sscanf>
				gps_lat = val/100 + ((double)(val%100) + ((double)(val2))/10000) / 60.0;
    294a:	89 80       	ldd	r8, Y+1	; 0x01
    294c:	9a 80       	ldd	r9, Y+2	; 0x02
    294e:	ab 80       	ldd	r10, Y+3	; 0x03
    2950:	bc 80       	ldd	r11, Y+4	; 0x04
    2952:	6d 81       	ldd	r22, Y+5	; 0x05
    2954:	7e 81       	ldd	r23, Y+6	; 0x06
    2956:	07 2e       	mov	r0, r23
    2958:	00 0c       	add	r0, r0
    295a:	88 0b       	sbc	r24, r24
    295c:	99 0b       	sbc	r25, r25
    295e:	e6 d2       	rcall	.+1484   	; 0x2f2c <__floatsisf>
    2960:	20 e0       	ldi	r18, 0x00	; 0
    2962:	30 e4       	ldi	r19, 0x40	; 64
    2964:	4c e1       	ldi	r20, 0x1C	; 28
    2966:	56 e4       	ldi	r21, 0x46	; 70
    2968:	46 d2       	rcall	.+1164   	; 0x2df6 <__divsf3>
    296a:	6b 01       	movw	r12, r22
    296c:	7c 01       	movw	r14, r24
    296e:	c5 01       	movw	r24, r10
    2970:	b4 01       	movw	r22, r8
    2972:	24 e6       	ldi	r18, 0x64	; 100
    2974:	30 e0       	ldi	r19, 0x00	; 0
    2976:	40 e0       	ldi	r20, 0x00	; 0
    2978:	50 e0       	ldi	r21, 0x00	; 0
    297a:	ac d5       	rcall	.+2904   	; 0x34d4 <__divmodsi4>
    297c:	49 01       	movw	r8, r18
    297e:	5a 01       	movw	r10, r20
    2980:	d5 d2       	rcall	.+1450   	; 0x2f2c <__floatsisf>
    2982:	9b 01       	movw	r18, r22
    2984:	ac 01       	movw	r20, r24
    2986:	c7 01       	movw	r24, r14
    2988:	b6 01       	movw	r22, r12
    298a:	cd d1       	rcall	.+922    	; 0x2d26 <__addsf3>
    298c:	20 e0       	ldi	r18, 0x00	; 0
    298e:	30 e0       	ldi	r19, 0x00	; 0
    2990:	40 e7       	ldi	r20, 0x70	; 112
    2992:	52 e4       	ldi	r21, 0x42	; 66
    2994:	30 d2       	rcall	.+1120   	; 0x2df6 <__divsf3>
    2996:	6b 01       	movw	r12, r22
    2998:	7c 01       	movw	r14, r24
    299a:	c5 01       	movw	r24, r10
    299c:	b4 01       	movw	r22, r8
    299e:	c6 d2       	rcall	.+1420   	; 0x2f2c <__floatsisf>
    29a0:	9b 01       	movw	r18, r22
    29a2:	ac 01       	movw	r20, r24
    29a4:	c7 01       	movw	r24, r14
    29a6:	b6 01       	movw	r22, r12
    29a8:	be d1       	rcall	.+892    	; 0x2d26 <__addsf3>
    29aa:	60 93 b8 20 	sts	0x20B8, r22	; 0x8020b8 <gps_lat>
    29ae:	70 93 b9 20 	sts	0x20B9, r23	; 0x8020b9 <gps_lat+0x1>
    29b2:	80 93 ba 20 	sts	0x20BA, r24	; 0x8020ba <gps_lat+0x2>
    29b6:	90 93 bb 20 	sts	0x20BB, r25	; 0x8020bb <gps_lat+0x3>
				break;
    29ba:	cd bf       	out	0x3d, r28	; 61
    29bc:	de bf       	out	0x3e, r29	; 62
    29be:	28 c1       	rjmp	.+592    	; 0x2c10 <__vector_91+0x4e2>
    29c0:	eb ef       	ldi	r30, 0xFB	; 251
    29c2:	f0 e2       	ldi	r31, 0x20	; 32
			case 4:			//Longitude
				for(uint8_t i = 0; i < 15; i++){
    29c4:	81 e0       	ldi	r24, 0x01	; 1
					if(gps[i] == (uint8_t) '.'){
    29c6:	91 91       	ld	r25, Z+
    29c8:	9e 32       	cpi	r25, 0x2E	; 46
    29ca:	29 f4       	brne	.+10     	; 0x29d6 <__vector_91+0x2a8>
    29cc:	01 c0       	rjmp	.+2      	; 0x29d0 <__vector_91+0x2a2>
    29ce:	80 e0       	ldi	r24, 0x00	; 0
						idx = i;
    29d0:	80 93 d8 20 	sts	0x20D8, r24	; 0x8020d8 <idx>
						break;
    29d4:	03 c0       	rjmp	.+6      	; 0x29dc <__vector_91+0x2ae>
				sscanf(gps,"%ld",&val);
				sscanf(dec,"%d",&val2);
				gps_lat = val/100 + ((double)(val%100) + ((double)(val2))/10000) / 60.0;
				break;
			case 4:			//Longitude
				for(uint8_t i = 0; i < 15; i++){
    29d6:	8f 5f       	subi	r24, 0xFF	; 255
    29d8:	8f 30       	cpi	r24, 0x0F	; 15
    29da:	a9 f7       	brne	.-22     	; 0x29c6 <__vector_91+0x298>
					if(gps[i] == (uint8_t) '.'){
						idx = i;
						break;
					}
				}
				gps[idx] = 32;
    29dc:	20 91 d8 20 	lds	r18, 0x20D8	; 0x8020d8 <idx>
    29e0:	42 2f       	mov	r20, r18
    29e2:	50 e0       	ldi	r21, 0x00	; 0
    29e4:	fa 01       	movw	r30, r20
    29e6:	e6 50       	subi	r30, 0x06	; 6
    29e8:	ff 4d       	sbci	r31, 0xDF	; 223
    29ea:	80 e2       	ldi	r24, 0x20	; 32
    29ec:	80 83       	st	Z, r24
				for(uint8_t i = idx+1; i < 15; i++){
    29ee:	2f 5f       	subi	r18, 0xFF	; 255
    29f0:	2f 30       	cpi	r18, 0x0F	; 15
    29f2:	f8 f4       	brcc	.+62     	; 0x2a32 <__vector_91+0x304>
					if(gps[i] == 32){
    29f4:	82 2f       	mov	r24, r18
    29f6:	90 e0       	ldi	r25, 0x00	; 0
    29f8:	fc 01       	movw	r30, r24
    29fa:	e6 50       	subi	r30, 0x06	; 6
    29fc:	ff 4d       	sbci	r31, 0xDF	; 223
    29fe:	30 81       	ld	r19, Z
    2a00:	30 32       	cpi	r19, 0x20	; 32
    2a02:	b9 f0       	breq	.+46     	; 0x2a32 <__vector_91+0x304>
						break;
					}
					dec[i-idx-1] = gps[i];
					gps[i] = 32;
    2a04:	60 e2       	ldi	r22, 0x20	; 32
    2a06:	08 c0       	rjmp	.+16     	; 0x2a18 <__vector_91+0x2ea>
						break;
					}
				}
				gps[idx] = 32;
				for(uint8_t i = idx+1; i < 15; i++){
					if(gps[i] == 32){
    2a08:	82 2f       	mov	r24, r18
    2a0a:	90 e0       	ldi	r25, 0x00	; 0
    2a0c:	fc 01       	movw	r30, r24
    2a0e:	e6 50       	subi	r30, 0x06	; 6
    2a10:	ff 4d       	sbci	r31, 0xDF	; 223
    2a12:	30 81       	ld	r19, Z
    2a14:	30 32       	cpi	r19, 0x20	; 32
    2a16:	69 f0       	breq	.+26     	; 0x2a32 <__vector_91+0x304>
						break;
					}
					dec[i-idx-1] = gps[i];
    2a18:	fc 01       	movw	r30, r24
    2a1a:	e4 1b       	sub	r30, r20
    2a1c:	f5 0b       	sbc	r31, r21
    2a1e:	e8 5f       	subi	r30, 0xF8	; 248
    2a20:	fe 4d       	sbci	r31, 0xDE	; 222
    2a22:	30 83       	st	Z, r19
					gps[i] = 32;
    2a24:	fc 01       	movw	r30, r24
    2a26:	e6 50       	subi	r30, 0x06	; 6
    2a28:	ff 4d       	sbci	r31, 0xDF	; 223
    2a2a:	60 83       	st	Z, r22
						idx = i;
						break;
					}
				}
				gps[idx] = 32;
				for(uint8_t i = idx+1; i < 15; i++){
    2a2c:	2f 5f       	subi	r18, 0xFF	; 255
    2a2e:	2f 30       	cpi	r18, 0x0F	; 15
    2a30:	59 f7       	brne	.-42     	; 0x2a08 <__vector_91+0x2da>
						break;
					}
					dec[i-idx-1] = gps[i];
					gps[i] = 32;
				}
				if(dec[0] == 32){
    2a32:	80 91 09 21 	lds	r24, 0x2109	; 0x802109 <dec>
    2a36:	80 32       	cpi	r24, 0x20	; 32
    2a38:	19 f4       	brne	.+6      	; 0x2a40 <__vector_91+0x312>
					dec[0] = '0';
    2a3a:	80 e3       	ldi	r24, 0x30	; 48
    2a3c:	80 93 09 21 	sts	0x2109, r24	; 0x802109 <dec>
				}
				sscanf(gps,"%ld",&val);
    2a40:	ce 01       	movw	r24, r28
    2a42:	01 96       	adiw	r24, 0x01	; 1
    2a44:	9f 93       	push	r25
    2a46:	8f 93       	push	r24
    2a48:	86 e9       	ldi	r24, 0x96	; 150
    2a4a:	90 e2       	ldi	r25, 0x20	; 32
    2a4c:	9f 93       	push	r25
    2a4e:	8f 93       	push	r24
    2a50:	8a ef       	ldi	r24, 0xFA	; 250
    2a52:	90 e2       	ldi	r25, 0x20	; 32
    2a54:	9f 93       	push	r25
    2a56:	8f 93       	push	r24
    2a58:	fd d5       	rcall	.+3066   	; 0x3654 <sscanf>
				sscanf(dec,"%d",&val2);
    2a5a:	ce 01       	movw	r24, r28
    2a5c:	05 96       	adiw	r24, 0x05	; 5
    2a5e:	9f 93       	push	r25
    2a60:	8f 93       	push	r24
    2a62:	8a e9       	ldi	r24, 0x9A	; 154
    2a64:	90 e2       	ldi	r25, 0x20	; 32
    2a66:	9f 93       	push	r25
    2a68:	8f 93       	push	r24
    2a6a:	89 e0       	ldi	r24, 0x09	; 9
    2a6c:	91 e2       	ldi	r25, 0x21	; 33
    2a6e:	9f 93       	push	r25
    2a70:	8f 93       	push	r24
    2a72:	f0 d5       	rcall	.+3040   	; 0x3654 <sscanf>
				gps_long = -(val/100 + ((double)(val%100) + ((double)(val2))/10000) / 60.0);
    2a74:	89 80       	ldd	r8, Y+1	; 0x01
    2a76:	9a 80       	ldd	r9, Y+2	; 0x02
    2a78:	ab 80       	ldd	r10, Y+3	; 0x03
    2a7a:	bc 80       	ldd	r11, Y+4	; 0x04
    2a7c:	6d 81       	ldd	r22, Y+5	; 0x05
    2a7e:	7e 81       	ldd	r23, Y+6	; 0x06
    2a80:	07 2e       	mov	r0, r23
    2a82:	00 0c       	add	r0, r0
    2a84:	88 0b       	sbc	r24, r24
    2a86:	99 0b       	sbc	r25, r25
    2a88:	51 d2       	rcall	.+1186   	; 0x2f2c <__floatsisf>
    2a8a:	20 e0       	ldi	r18, 0x00	; 0
    2a8c:	30 e4       	ldi	r19, 0x40	; 64
    2a8e:	4c e1       	ldi	r20, 0x1C	; 28
    2a90:	56 e4       	ldi	r21, 0x46	; 70
    2a92:	b1 d1       	rcall	.+866    	; 0x2df6 <__divsf3>
    2a94:	6b 01       	movw	r12, r22
    2a96:	7c 01       	movw	r14, r24
    2a98:	c5 01       	movw	r24, r10
    2a9a:	b4 01       	movw	r22, r8
    2a9c:	24 e6       	ldi	r18, 0x64	; 100
    2a9e:	30 e0       	ldi	r19, 0x00	; 0
    2aa0:	40 e0       	ldi	r20, 0x00	; 0
    2aa2:	50 e0       	ldi	r21, 0x00	; 0
    2aa4:	17 d5       	rcall	.+2606   	; 0x34d4 <__divmodsi4>
    2aa6:	49 01       	movw	r8, r18
    2aa8:	5a 01       	movw	r10, r20
    2aaa:	40 d2       	rcall	.+1152   	; 0x2f2c <__floatsisf>
    2aac:	9b 01       	movw	r18, r22
    2aae:	ac 01       	movw	r20, r24
    2ab0:	c7 01       	movw	r24, r14
    2ab2:	b6 01       	movw	r22, r12
    2ab4:	38 d1       	rcall	.+624    	; 0x2d26 <__addsf3>
    2ab6:	20 e0       	ldi	r18, 0x00	; 0
    2ab8:	30 e0       	ldi	r19, 0x00	; 0
    2aba:	40 e7       	ldi	r20, 0x70	; 112
    2abc:	52 e4       	ldi	r21, 0x42	; 66
    2abe:	9b d1       	rcall	.+822    	; 0x2df6 <__divsf3>
    2ac0:	6b 01       	movw	r12, r22
    2ac2:	7c 01       	movw	r14, r24
    2ac4:	c5 01       	movw	r24, r10
    2ac6:	b4 01       	movw	r22, r8
    2ac8:	31 d2       	rcall	.+1122   	; 0x2f2c <__floatsisf>
    2aca:	9b 01       	movw	r18, r22
    2acc:	ac 01       	movw	r20, r24
    2ace:	c7 01       	movw	r24, r14
    2ad0:	b6 01       	movw	r22, r12
    2ad2:	29 d1       	rcall	.+594    	; 0x2d26 <__addsf3>
    2ad4:	dc 01       	movw	r26, r24
    2ad6:	cb 01       	movw	r24, r22
    2ad8:	b0 58       	subi	r27, 0x80	; 128
    2ada:	80 93 b4 20 	sts	0x20B4, r24	; 0x8020b4 <gps_long>
    2ade:	90 93 b5 20 	sts	0x20B5, r25	; 0x8020b5 <gps_long+0x1>
    2ae2:	a0 93 b6 20 	sts	0x20B6, r26	; 0x8020b6 <gps_long+0x2>
    2ae6:	b0 93 b7 20 	sts	0x20B7, r27	; 0x8020b7 <gps_long+0x3>
    2aea:	cd bf       	out	0x3d, r28	; 61
				break;
    2aec:	de bf       	out	0x3e, r29	; 62
    2aee:	90 c0       	rjmp	.+288    	; 0x2c10 <__vector_91+0x4e2>
    2af0:	8e ea       	ldi	r24, 0xAE	; 174
			case 7:			//Sats
				sscanf(gps,"%d",&gps_sats);
    2af2:	90 e2       	ldi	r25, 0x20	; 32
    2af4:	9f 93       	push	r25
    2af6:	8f 93       	push	r24
    2af8:	8a e9       	ldi	r24, 0x9A	; 154
    2afa:	90 e2       	ldi	r25, 0x20	; 32
    2afc:	9f 93       	push	r25
    2afe:	8f 93       	push	r24
    2b00:	8a ef       	ldi	r24, 0xFA	; 250
    2b02:	90 e2       	ldi	r25, 0x20	; 32
    2b04:	9f 93       	push	r25
    2b06:	8f 93       	push	r24
    2b08:	a5 d5       	rcall	.+2890   	; 0x3654 <sscanf>
    2b0a:	0f 90       	pop	r0
    2b0c:	0f 90       	pop	r0
				break;
    2b0e:	0f 90       	pop	r0
    2b10:	0f 90       	pop	r0
    2b12:	0f 90       	pop	r0
    2b14:	0f 90       	pop	r0
    2b16:	7c c0       	rjmp	.+248    	; 0x2c10 <__vector_91+0x4e2>
    2b18:	eb ef       	ldi	r30, 0xFB	; 251
    2b1a:	f0 e2       	ldi	r31, 0x20	; 32
    2b1c:	81 e0       	ldi	r24, 0x01	; 1
    2b1e:	91 91       	ld	r25, Z+
			case 9:			//Altitude
				for(uint8_t i = 0; i < 15; i++){
    2b20:	9e 32       	cpi	r25, 0x2E	; 46
					if(gps[i] == (uint8_t) '.'){
    2b22:	29 f4       	brne	.+10     	; 0x2b2e <__vector_91+0x400>
    2b24:	01 c0       	rjmp	.+2      	; 0x2b28 <__vector_91+0x3fa>
    2b26:	80 e0       	ldi	r24, 0x00	; 0
    2b28:	80 93 d8 20 	sts	0x20D8, r24	; 0x8020d8 <idx>
						idx = i;
    2b2c:	03 c0       	rjmp	.+6      	; 0x2b34 <__vector_91+0x406>
    2b2e:	8f 5f       	subi	r24, 0xFF	; 255
						break;
    2b30:	8f 30       	cpi	r24, 0x0F	; 15
				break;
			case 7:			//Sats
				sscanf(gps,"%d",&gps_sats);
				break;
			case 9:			//Altitude
				for(uint8_t i = 0; i < 15; i++){
    2b32:	a9 f7       	brne	.-22     	; 0x2b1e <__vector_91+0x3f0>
    2b34:	20 91 d8 20 	lds	r18, 0x20D8	; 0x8020d8 <idx>
					if(gps[i] == (uint8_t) '.'){
						idx = i;
						break;
					}
				}
				gps[idx] = 32;
    2b38:	42 2f       	mov	r20, r18
    2b3a:	50 e0       	ldi	r21, 0x00	; 0
    2b3c:	fa 01       	movw	r30, r20
    2b3e:	e6 50       	subi	r30, 0x06	; 6
    2b40:	ff 4d       	sbci	r31, 0xDF	; 223
    2b42:	80 e2       	ldi	r24, 0x20	; 32
    2b44:	80 83       	st	Z, r24
    2b46:	2f 5f       	subi	r18, 0xFF	; 255
    2b48:	2f 30       	cpi	r18, 0x0F	; 15
				for(uint8_t i = idx+1; i < 15; i++){
    2b4a:	f8 f4       	brcc	.+62     	; 0x2b8a <__vector_91+0x45c>
    2b4c:	82 2f       	mov	r24, r18
    2b4e:	90 e0       	ldi	r25, 0x00	; 0
					if(gps[i] == 32){
    2b50:	fc 01       	movw	r30, r24
    2b52:	e6 50       	subi	r30, 0x06	; 6
    2b54:	ff 4d       	sbci	r31, 0xDF	; 223
    2b56:	30 81       	ld	r19, Z
    2b58:	30 32       	cpi	r19, 0x20	; 32
    2b5a:	b9 f0       	breq	.+46     	; 0x2b8a <__vector_91+0x45c>
    2b5c:	60 e2       	ldi	r22, 0x20	; 32
    2b5e:	08 c0       	rjmp	.+16     	; 0x2b70 <__vector_91+0x442>
						break;
					}
					dec[i-idx-1] = gps[i];
					gps[i] = 32;
    2b60:	82 2f       	mov	r24, r18
    2b62:	90 e0       	ldi	r25, 0x00	; 0
						break;
					}
				}
				gps[idx] = 32;
				for(uint8_t i = idx+1; i < 15; i++){
					if(gps[i] == 32){
    2b64:	fc 01       	movw	r30, r24
    2b66:	e6 50       	subi	r30, 0x06	; 6
    2b68:	ff 4d       	sbci	r31, 0xDF	; 223
    2b6a:	30 81       	ld	r19, Z
    2b6c:	30 32       	cpi	r19, 0x20	; 32
    2b6e:	69 f0       	breq	.+26     	; 0x2b8a <__vector_91+0x45c>
    2b70:	fc 01       	movw	r30, r24
    2b72:	e4 1b       	sub	r30, r20
						break;
					}
					dec[i-idx-1] = gps[i];
    2b74:	f5 0b       	sbc	r31, r21
    2b76:	e8 5f       	subi	r30, 0xF8	; 248
    2b78:	fe 4d       	sbci	r31, 0xDE	; 222
    2b7a:	30 83       	st	Z, r19
    2b7c:	fc 01       	movw	r30, r24
    2b7e:	e6 50       	subi	r30, 0x06	; 6
					gps[i] = 32;
    2b80:	ff 4d       	sbci	r31, 0xDF	; 223
    2b82:	60 83       	st	Z, r22
    2b84:	2f 5f       	subi	r18, 0xFF	; 255
						idx = i;
						break;
					}
				}
				gps[idx] = 32;
				for(uint8_t i = idx+1; i < 15; i++){
    2b86:	2f 30       	cpi	r18, 0x0F	; 15
    2b88:	59 f7       	brne	.-42     	; 0x2b60 <__vector_91+0x432>
    2b8a:	80 91 09 21 	lds	r24, 0x2109	; 0x802109 <dec>
						break;
					}
					dec[i-idx-1] = gps[i];
					gps[i] = 32;
				}
				if(dec[0] == 32){
    2b8e:	80 32       	cpi	r24, 0x20	; 32
    2b90:	19 f4       	brne	.+6      	; 0x2b98 <__vector_91+0x46a>
    2b92:	80 e3       	ldi	r24, 0x30	; 48
					dec[0] = '0';
    2b94:	80 93 09 21 	sts	0x2109, r24	; 0x802109 <dec>
    2b98:	ce 01       	movw	r24, r28
				}
				sscanf(gps,"%ld",&val);
    2b9a:	01 96       	adiw	r24, 0x01	; 1
    2b9c:	9f 93       	push	r25
    2b9e:	8f 93       	push	r24
    2ba0:	86 e9       	ldi	r24, 0x96	; 150
    2ba2:	90 e2       	ldi	r25, 0x20	; 32
    2ba4:	9f 93       	push	r25
    2ba6:	8f 93       	push	r24
    2ba8:	8a ef       	ldi	r24, 0xFA	; 250
    2baa:	90 e2       	ldi	r25, 0x20	; 32
    2bac:	9f 93       	push	r25
    2bae:	8f 93       	push	r24
    2bb0:	51 d5       	rcall	.+2722   	; 0x3654 <sscanf>
				sscanf(dec,"%d",&val2);
    2bb2:	ce 01       	movw	r24, r28
    2bb4:	05 96       	adiw	r24, 0x05	; 5
    2bb6:	9f 93       	push	r25
    2bb8:	8f 93       	push	r24
    2bba:	8a e9       	ldi	r24, 0x9A	; 154
    2bbc:	90 e2       	ldi	r25, 0x20	; 32
    2bbe:	9f 93       	push	r25
    2bc0:	8f 93       	push	r24
    2bc2:	89 e0       	ldi	r24, 0x09	; 9
    2bc4:	91 e2       	ldi	r25, 0x21	; 33
    2bc6:	9f 93       	push	r25
    2bc8:	8f 93       	push	r24
				gps_alt = (double) val + ((double) val2/10.0);
    2bca:	44 d5       	rcall	.+2696   	; 0x3654 <sscanf>
    2bcc:	69 81       	ldd	r22, Y+1	; 0x01
    2bce:	7a 81       	ldd	r23, Y+2	; 0x02
    2bd0:	8b 81       	ldd	r24, Y+3	; 0x03
    2bd2:	9c 81       	ldd	r25, Y+4	; 0x04
    2bd4:	ab d1       	rcall	.+854    	; 0x2f2c <__floatsisf>
    2bd6:	6b 01       	movw	r12, r22
    2bd8:	7c 01       	movw	r14, r24
    2bda:	6d 81       	ldd	r22, Y+5	; 0x05
    2bdc:	7e 81       	ldd	r23, Y+6	; 0x06
    2bde:	07 2e       	mov	r0, r23
    2be0:	00 0c       	add	r0, r0
    2be2:	88 0b       	sbc	r24, r24
    2be4:	99 0b       	sbc	r25, r25
    2be6:	a2 d1       	rcall	.+836    	; 0x2f2c <__floatsisf>
    2be8:	20 e0       	ldi	r18, 0x00	; 0
    2bea:	30 e0       	ldi	r19, 0x00	; 0
    2bec:	40 e2       	ldi	r20, 0x20	; 32
    2bee:	51 e4       	ldi	r21, 0x41	; 65
    2bf0:	02 d1       	rcall	.+516    	; 0x2df6 <__divsf3>
    2bf2:	9b 01       	movw	r18, r22
    2bf4:	ac 01       	movw	r20, r24
    2bf6:	c7 01       	movw	r24, r14
    2bf8:	b6 01       	movw	r22, r12
    2bfa:	95 d0       	rcall	.+298    	; 0x2d26 <__addsf3>
    2bfc:	60 93 b0 20 	sts	0x20B0, r22	; 0x8020b0 <gps_alt>
    2c00:	70 93 b1 20 	sts	0x20B1, r23	; 0x8020b1 <gps_alt+0x1>
    2c04:	80 93 b2 20 	sts	0x20B2, r24	; 0x8020b2 <gps_alt+0x2>
    2c08:	90 93 b3 20 	sts	0x20B3, r25	; 0x8020b3 <gps_alt+0x3>
    2c0c:	cd bf       	out	0x3d, r28	; 61
    2c0e:	de bf       	out	0x3e, r29	; 62
    2c10:	80 91 dc 20 	lds	r24, 0x20DC	; 0x8020dc <writing>
				break;
    2c14:	88 23       	and	r24, r24
		}
	
		if(writing){
    2c16:	d1 f0       	breq	.+52     	; 0x2c4c <__vector_91+0x51e>
    2c18:	10 92 d8 20 	sts	0x20D8, r1	; 0x8020d8 <idx>
    2c1c:	80 91 d9 20 	lds	r24, 0x20D9	; 0x8020d9 <commas>
			idx = 0;
    2c20:	8f 5f       	subi	r24, 0xFF	; 255
			commas++;
    2c22:	80 93 d9 20 	sts	0x20D9, r24	; 0x8020d9 <commas>
    2c26:	10 92 da 20 	sts	0x20DA, r1	; 0x8020da <word_pos>
    2c2a:	ea ef       	ldi	r30, 0xFA	; 250
			word_pos = 0;
    2c2c:	f0 e2       	ldi	r31, 0x20	; 32
    2c2e:	29 e0       	ldi	r18, 0x09	; 9
    2c30:	31 e2       	ldi	r19, 0x21	; 33
    2c32:	80 e2       	ldi	r24, 0x20	; 32
    2c34:	81 93       	st	Z+, r24
    2c36:	2e 17       	cp	r18, r30
			for(uint8_t i = 0; i < 15; i++){
				gps[i] = 32;
    2c38:	3f 07       	cpc	r19, r31
    2c3a:	e1 f7       	brne	.-8      	; 0x2c34 <__vector_91+0x506>
	
		if(writing){
			idx = 0;
			commas++;
			word_pos = 0;
			for(uint8_t i = 0; i < 15; i++){
    2c3c:	e9 e0       	ldi	r30, 0x09	; 9
    2c3e:	f1 e2       	ldi	r31, 0x21	; 33
    2c40:	80 e2       	ldi	r24, 0x20	; 32
				gps[i] = 32;
			}
			for(uint8_t i = 0; i < 5; i++){
				dec[i] = 32;
    2c42:	80 83       	st	Z, r24
    2c44:	81 83       	std	Z+1, r24	; 0x01
    2c46:	82 83       	std	Z+2, r24	; 0x02
    2c48:	83 83       	std	Z+3, r24	; 0x03
    2c4a:	84 83       	std	Z+4, r24	; 0x04
    2c4c:	80 91 dc 20 	lds	r24, 0x20DC	; 0x8020dc <writing>
    2c50:	88 23       	and	r24, r24
			}
		}
	}
		
	if(writing){
    2c52:	09 f4       	brne	.+2      	; 0x2c56 <__vector_91+0x528>
    2c54:	40 c0       	rjmp	.+128    	; 0x2cd6 <__vector_91+0x5a8>
    2c56:	90 91 db 20 	lds	r25, 0x20DB	; 0x8020db <pos>
    2c5a:	93 30       	cpi	r25, 0x03	; 3
		switch(pos){
    2c5c:	19 f0       	breq	.+6      	; 0x2c64 <__vector_91+0x536>
    2c5e:	94 30       	cpi	r25, 0x04	; 4
    2c60:	31 f0       	breq	.+12     	; 0x2c6e <__vector_91+0x540>
    2c62:	09 c0       	rjmp	.+18     	; 0x2c76 <__vector_91+0x548>
    2c64:	17 34       	cpi	r17, 0x47	; 71
    2c66:	39 f0       	breq	.+14     	; 0x2c76 <__vector_91+0x548>
    2c68:	10 92 dc 20 	sts	0x20DC, r1	; 0x8020dc <writing>
			case 3:
				if(c != 'G'){
    2c6c:	04 c0       	rjmp	.+8      	; 0x2c76 <__vector_91+0x548>
					writing = 0;
    2c6e:	17 34       	cpi	r17, 0x47	; 71
    2c70:	11 f0       	breq	.+4      	; 0x2c76 <__vector_91+0x548>
    2c72:	10 92 dc 20 	sts	0x20DC, r1	; 0x8020dc <writing>
				}
				break;
				
			case 4:
				if(c != 'G'){
    2c76:	80 91 da 20 	lds	r24, 0x20DA	; 0x8020da <word_pos>
					writing = 0;
    2c7a:	e8 2f       	mov	r30, r24
				}
				break;
		}
		gps[word_pos] = c;
    2c7c:	f0 e0       	ldi	r31, 0x00	; 0
    2c7e:	e6 50       	subi	r30, 0x06	; 6
    2c80:	ff 4d       	sbci	r31, 0xDF	; 223
    2c82:	10 83       	st	Z, r17
    2c84:	8f 5f       	subi	r24, 0xFF	; 255
    2c86:	80 93 da 20 	sts	0x20DA, r24	; 0x8020da <word_pos>
		word_pos++;
    2c8a:	9f 5f       	subi	r25, 0xFF	; 255
    2c8c:	90 93 db 20 	sts	0x20DB, r25	; 0x8020db <pos>
		pos++;
    2c90:	22 c0       	rjmp	.+68     	; 0x2cd6 <__vector_91+0x5a8>
    2c92:	80 91 fa 20 	lds	r24, 0x20FA	; 0x8020fa <gps>
	}
}
    2c96:	8e 32       	cpi	r24, 0x2E	; 46
		int32_t val = 0;
		int16_t val2 = 0;
		switch(commas){
			case 1:			//Time
				for(uint8_t i = 0; i < 15; i++){
					if(gps[i] == (uint8_t) '.'){
    2c98:	09 f4       	brne	.+2      	; 0x2c9c <__vector_91+0x56e>
    2c9a:	b1 cd       	rjmp	.-1182   	; 0x27fe <__vector_91+0xd0>
    2c9c:	eb ef       	ldi	r30, 0xFB	; 251
    2c9e:	f0 e2       	ldi	r31, 0x20	; 32
    2ca0:	81 e0       	ldi	r24, 0x01	; 1
    2ca2:	a9 cd       	rjmp	.-1198   	; 0x27f6 <__vector_91+0xc8>
    2ca4:	19 82       	std	Y+1, r1	; 0x01
		}
		int32_t val = 0;
		int16_t val2 = 0;
		switch(commas){
			case 1:			//Time
				for(uint8_t i = 0; i < 15; i++){
    2ca6:	1a 82       	std	Y+2, r1	; 0x02
    2ca8:	1b 82       	std	Y+3, r1	; 0x03
	else if(c == (uint8_t) ','){
		gps[0] = 32;
		if(gps[1] == 32){
			gps[0] = '0';
		}
		int32_t val = 0;
    2caa:	1c 82       	std	Y+4, r1	; 0x04
    2cac:	1d 82       	std	Y+5, r1	; 0x05
    2cae:	1e 82       	std	Y+6, r1	; 0x06
    2cb0:	80 91 d9 20 	lds	r24, 0x20D9	; 0x8020d9 <commas>
		int16_t val2 = 0;
    2cb4:	84 30       	cpi	r24, 0x04	; 4
		switch(commas){
    2cb6:	09 f4       	brne	.+2      	; 0x2cba <__vector_91+0x58c>
    2cb8:	92 cd       	rjmp	.-1244   	; 0x27de <__vector_91+0xb0>
    2cba:	30 f4       	brcc	.+12     	; 0x2cc8 <__vector_91+0x59a>
    2cbc:	81 30       	cpi	r24, 0x01	; 1
    2cbe:	49 f3       	breq	.-46     	; 0x2c92 <__vector_91+0x564>
    2cc0:	82 30       	cpi	r24, 0x02	; 2
    2cc2:	09 f4       	brne	.+2      	; 0x2cc6 <__vector_91+0x598>
    2cc4:	92 cd       	rjmp	.-1244   	; 0x27ea <__vector_91+0xbc>
    2cc6:	a4 cf       	rjmp	.-184    	; 0x2c10 <__vector_91+0x4e2>
    2cc8:	87 30       	cpi	r24, 0x07	; 7
    2cca:	09 f4       	brne	.+2      	; 0x2cce <__vector_91+0x5a0>
    2ccc:	11 cf       	rjmp	.-478    	; 0x2af0 <__vector_91+0x3c2>
    2cce:	89 30       	cpi	r24, 0x09	; 9
    2cd0:	09 f4       	brne	.+2      	; 0x2cd4 <__vector_91+0x5a6>
    2cd2:	7f cd       	rjmp	.-1282   	; 0x27d2 <__vector_91+0xa4>
    2cd4:	9d cf       	rjmp	.-198    	; 0x2c10 <__vector_91+0x4e2>
    2cd6:	26 96       	adiw	r28, 0x06	; 6
    2cd8:	cd bf       	out	0x3d, r28	; 61
    2cda:	de bf       	out	0x3e, r29	; 62
		}
		gps[word_pos] = c;
		word_pos++;
		pos++;
	}
}
    2cdc:	df 91       	pop	r29
    2cde:	cf 91       	pop	r28
    2ce0:	ff 91       	pop	r31
    2ce2:	ef 91       	pop	r30
    2ce4:	bf 91       	pop	r27
    2ce6:	af 91       	pop	r26
    2ce8:	9f 91       	pop	r25
    2cea:	8f 91       	pop	r24
    2cec:	7f 91       	pop	r23
    2cee:	6f 91       	pop	r22
    2cf0:	5f 91       	pop	r21
    2cf2:	4f 91       	pop	r20
    2cf4:	3f 91       	pop	r19
    2cf6:	2f 91       	pop	r18
    2cf8:	1f 91       	pop	r17
    2cfa:	ff 90       	pop	r15
    2cfc:	ef 90       	pop	r14
    2cfe:	df 90       	pop	r13
    2d00:	cf 90       	pop	r12
    2d02:	bf 90       	pop	r11
    2d04:	af 90       	pop	r10
    2d06:	9f 90       	pop	r9
    2d08:	8f 90       	pop	r8
    2d0a:	0f 90       	pop	r0
    2d0c:	0b be       	out	0x3b, r0	; 59
    2d0e:	0f 90       	pop	r0
    2d10:	0a be       	out	0x3a, r0	; 58
    2d12:	0f 90       	pop	r0
    2d14:	09 be       	out	0x39, r0	; 57
    2d16:	0f 90       	pop	r0
    2d18:	08 be       	out	0x38, r0	; 56
    2d1a:	0f 90       	pop	r0
    2d1c:	0f be       	out	0x3f, r0	; 63
    2d1e:	0f 90       	pop	r0
    2d20:	1f 90       	pop	r1
    2d22:	18 95       	reti

00002d24 <__subsf3>:
    2d24:	50 58       	subi	r21, 0x80	; 128

00002d26 <__addsf3>:
    2d26:	bb 27       	eor	r27, r27
    2d28:	aa 27       	eor	r26, r26
    2d2a:	0e d0       	rcall	.+28     	; 0x2d48 <__addsf3x>
    2d2c:	9a c1       	rjmp	.+820    	; 0x3062 <__fp_round>
    2d2e:	8b d1       	rcall	.+790    	; 0x3046 <__fp_pscA>
    2d30:	30 f0       	brcs	.+12     	; 0x2d3e <__addsf3+0x18>
    2d32:	90 d1       	rcall	.+800    	; 0x3054 <__fp_pscB>
    2d34:	20 f0       	brcs	.+8      	; 0x2d3e <__addsf3+0x18>
    2d36:	31 f4       	brne	.+12     	; 0x2d44 <__addsf3+0x1e>
    2d38:	9f 3f       	cpi	r25, 0xFF	; 255
    2d3a:	11 f4       	brne	.+4      	; 0x2d40 <__addsf3+0x1a>
    2d3c:	1e f4       	brtc	.+6      	; 0x2d44 <__addsf3+0x1e>
    2d3e:	5b c1       	rjmp	.+694    	; 0x2ff6 <__fp_nan>
    2d40:	0e f4       	brtc	.+2      	; 0x2d44 <__addsf3+0x1e>
    2d42:	e0 95       	com	r30
    2d44:	e7 fb       	bst	r30, 7
    2d46:	51 c1       	rjmp	.+674    	; 0x2fea <__fp_inf>

00002d48 <__addsf3x>:
    2d48:	e9 2f       	mov	r30, r25
    2d4a:	9c d1       	rcall	.+824    	; 0x3084 <__fp_split3>
    2d4c:	80 f3       	brcs	.-32     	; 0x2d2e <__addsf3+0x8>
    2d4e:	ba 17       	cp	r27, r26
    2d50:	62 07       	cpc	r22, r18
    2d52:	73 07       	cpc	r23, r19
    2d54:	84 07       	cpc	r24, r20
    2d56:	95 07       	cpc	r25, r21
    2d58:	18 f0       	brcs	.+6      	; 0x2d60 <__addsf3x+0x18>
    2d5a:	71 f4       	brne	.+28     	; 0x2d78 <__addsf3x+0x30>
    2d5c:	9e f5       	brtc	.+102    	; 0x2dc4 <__addsf3x+0x7c>
    2d5e:	b4 c1       	rjmp	.+872    	; 0x30c8 <__fp_zero>
    2d60:	0e f4       	brtc	.+2      	; 0x2d64 <__addsf3x+0x1c>
    2d62:	e0 95       	com	r30
    2d64:	0b 2e       	mov	r0, r27
    2d66:	ba 2f       	mov	r27, r26
    2d68:	a0 2d       	mov	r26, r0
    2d6a:	0b 01       	movw	r0, r22
    2d6c:	b9 01       	movw	r22, r18
    2d6e:	90 01       	movw	r18, r0
    2d70:	0c 01       	movw	r0, r24
    2d72:	ca 01       	movw	r24, r20
    2d74:	a0 01       	movw	r20, r0
    2d76:	11 24       	eor	r1, r1
    2d78:	ff 27       	eor	r31, r31
    2d7a:	59 1b       	sub	r21, r25
    2d7c:	99 f0       	breq	.+38     	; 0x2da4 <__addsf3x+0x5c>
    2d7e:	59 3f       	cpi	r21, 0xF9	; 249
    2d80:	50 f4       	brcc	.+20     	; 0x2d96 <__addsf3x+0x4e>
    2d82:	50 3e       	cpi	r21, 0xE0	; 224
    2d84:	68 f1       	brcs	.+90     	; 0x2de0 <__addsf3x+0x98>
    2d86:	1a 16       	cp	r1, r26
    2d88:	f0 40       	sbci	r31, 0x00	; 0
    2d8a:	a2 2f       	mov	r26, r18
    2d8c:	23 2f       	mov	r18, r19
    2d8e:	34 2f       	mov	r19, r20
    2d90:	44 27       	eor	r20, r20
    2d92:	58 5f       	subi	r21, 0xF8	; 248
    2d94:	f3 cf       	rjmp	.-26     	; 0x2d7c <__addsf3x+0x34>
    2d96:	46 95       	lsr	r20
    2d98:	37 95       	ror	r19
    2d9a:	27 95       	ror	r18
    2d9c:	a7 95       	ror	r26
    2d9e:	f0 40       	sbci	r31, 0x00	; 0
    2da0:	53 95       	inc	r21
    2da2:	c9 f7       	brne	.-14     	; 0x2d96 <__addsf3x+0x4e>
    2da4:	7e f4       	brtc	.+30     	; 0x2dc4 <__addsf3x+0x7c>
    2da6:	1f 16       	cp	r1, r31
    2da8:	ba 0b       	sbc	r27, r26
    2daa:	62 0b       	sbc	r22, r18
    2dac:	73 0b       	sbc	r23, r19
    2dae:	84 0b       	sbc	r24, r20
    2db0:	ba f0       	brmi	.+46     	; 0x2de0 <__addsf3x+0x98>
    2db2:	91 50       	subi	r25, 0x01	; 1
    2db4:	a1 f0       	breq	.+40     	; 0x2dde <__addsf3x+0x96>
    2db6:	ff 0f       	add	r31, r31
    2db8:	bb 1f       	adc	r27, r27
    2dba:	66 1f       	adc	r22, r22
    2dbc:	77 1f       	adc	r23, r23
    2dbe:	88 1f       	adc	r24, r24
    2dc0:	c2 f7       	brpl	.-16     	; 0x2db2 <__addsf3x+0x6a>
    2dc2:	0e c0       	rjmp	.+28     	; 0x2de0 <__addsf3x+0x98>
    2dc4:	ba 0f       	add	r27, r26
    2dc6:	62 1f       	adc	r22, r18
    2dc8:	73 1f       	adc	r23, r19
    2dca:	84 1f       	adc	r24, r20
    2dcc:	48 f4       	brcc	.+18     	; 0x2de0 <__addsf3x+0x98>
    2dce:	87 95       	ror	r24
    2dd0:	77 95       	ror	r23
    2dd2:	67 95       	ror	r22
    2dd4:	b7 95       	ror	r27
    2dd6:	f7 95       	ror	r31
    2dd8:	9e 3f       	cpi	r25, 0xFE	; 254
    2dda:	08 f0       	brcs	.+2      	; 0x2dde <__addsf3x+0x96>
    2ddc:	b3 cf       	rjmp	.-154    	; 0x2d44 <__addsf3+0x1e>
    2dde:	93 95       	inc	r25
    2de0:	88 0f       	add	r24, r24
    2de2:	08 f0       	brcs	.+2      	; 0x2de6 <__addsf3x+0x9e>
    2de4:	99 27       	eor	r25, r25
    2de6:	ee 0f       	add	r30, r30
    2de8:	97 95       	ror	r25
    2dea:	87 95       	ror	r24
    2dec:	08 95       	ret

00002dee <__cmpsf2>:
    2dee:	d9 d0       	rcall	.+434    	; 0x2fa2 <__fp_cmp>
    2df0:	08 f4       	brcc	.+2      	; 0x2df4 <__cmpsf2+0x6>
    2df2:	81 e0       	ldi	r24, 0x01	; 1
    2df4:	08 95       	ret

00002df6 <__divsf3>:
    2df6:	0c d0       	rcall	.+24     	; 0x2e10 <__divsf3x>
    2df8:	34 c1       	rjmp	.+616    	; 0x3062 <__fp_round>
    2dfa:	2c d1       	rcall	.+600    	; 0x3054 <__fp_pscB>
    2dfc:	40 f0       	brcs	.+16     	; 0x2e0e <__divsf3+0x18>
    2dfe:	23 d1       	rcall	.+582    	; 0x3046 <__fp_pscA>
    2e00:	30 f0       	brcs	.+12     	; 0x2e0e <__divsf3+0x18>
    2e02:	21 f4       	brne	.+8      	; 0x2e0c <__divsf3+0x16>
    2e04:	5f 3f       	cpi	r21, 0xFF	; 255
    2e06:	19 f0       	breq	.+6      	; 0x2e0e <__divsf3+0x18>
    2e08:	f0 c0       	rjmp	.+480    	; 0x2fea <__fp_inf>
    2e0a:	51 11       	cpse	r21, r1
    2e0c:	5e c1       	rjmp	.+700    	; 0x30ca <__fp_szero>
    2e0e:	f3 c0       	rjmp	.+486    	; 0x2ff6 <__fp_nan>

00002e10 <__divsf3x>:
    2e10:	39 d1       	rcall	.+626    	; 0x3084 <__fp_split3>
    2e12:	98 f3       	brcs	.-26     	; 0x2dfa <__divsf3+0x4>

00002e14 <__divsf3_pse>:
    2e14:	99 23       	and	r25, r25
    2e16:	c9 f3       	breq	.-14     	; 0x2e0a <__divsf3+0x14>
    2e18:	55 23       	and	r21, r21
    2e1a:	b1 f3       	breq	.-20     	; 0x2e08 <__divsf3+0x12>
    2e1c:	95 1b       	sub	r25, r21
    2e1e:	55 0b       	sbc	r21, r21
    2e20:	bb 27       	eor	r27, r27
    2e22:	aa 27       	eor	r26, r26
    2e24:	62 17       	cp	r22, r18
    2e26:	73 07       	cpc	r23, r19
    2e28:	84 07       	cpc	r24, r20
    2e2a:	38 f0       	brcs	.+14     	; 0x2e3a <__divsf3_pse+0x26>
    2e2c:	9f 5f       	subi	r25, 0xFF	; 255
    2e2e:	5f 4f       	sbci	r21, 0xFF	; 255
    2e30:	22 0f       	add	r18, r18
    2e32:	33 1f       	adc	r19, r19
    2e34:	44 1f       	adc	r20, r20
    2e36:	aa 1f       	adc	r26, r26
    2e38:	a9 f3       	breq	.-22     	; 0x2e24 <__divsf3_pse+0x10>
    2e3a:	33 d0       	rcall	.+102    	; 0x2ea2 <__divsf3_pse+0x8e>
    2e3c:	0e 2e       	mov	r0, r30
    2e3e:	3a f0       	brmi	.+14     	; 0x2e4e <__divsf3_pse+0x3a>
    2e40:	e0 e8       	ldi	r30, 0x80	; 128
    2e42:	30 d0       	rcall	.+96     	; 0x2ea4 <__divsf3_pse+0x90>
    2e44:	91 50       	subi	r25, 0x01	; 1
    2e46:	50 40       	sbci	r21, 0x00	; 0
    2e48:	e6 95       	lsr	r30
    2e4a:	00 1c       	adc	r0, r0
    2e4c:	ca f7       	brpl	.-14     	; 0x2e40 <__divsf3_pse+0x2c>
    2e4e:	29 d0       	rcall	.+82     	; 0x2ea2 <__divsf3_pse+0x8e>
    2e50:	fe 2f       	mov	r31, r30
    2e52:	27 d0       	rcall	.+78     	; 0x2ea2 <__divsf3_pse+0x8e>
    2e54:	66 0f       	add	r22, r22
    2e56:	77 1f       	adc	r23, r23
    2e58:	88 1f       	adc	r24, r24
    2e5a:	bb 1f       	adc	r27, r27
    2e5c:	26 17       	cp	r18, r22
    2e5e:	37 07       	cpc	r19, r23
    2e60:	48 07       	cpc	r20, r24
    2e62:	ab 07       	cpc	r26, r27
    2e64:	b0 e8       	ldi	r27, 0x80	; 128
    2e66:	09 f0       	breq	.+2      	; 0x2e6a <__divsf3_pse+0x56>
    2e68:	bb 0b       	sbc	r27, r27
    2e6a:	80 2d       	mov	r24, r0
    2e6c:	bf 01       	movw	r22, r30
    2e6e:	ff 27       	eor	r31, r31
    2e70:	93 58       	subi	r25, 0x83	; 131
    2e72:	5f 4f       	sbci	r21, 0xFF	; 255
    2e74:	2a f0       	brmi	.+10     	; 0x2e80 <__divsf3_pse+0x6c>
    2e76:	9e 3f       	cpi	r25, 0xFE	; 254
    2e78:	51 05       	cpc	r21, r1
    2e7a:	68 f0       	brcs	.+26     	; 0x2e96 <__divsf3_pse+0x82>
    2e7c:	b6 c0       	rjmp	.+364    	; 0x2fea <__fp_inf>
    2e7e:	25 c1       	rjmp	.+586    	; 0x30ca <__fp_szero>
    2e80:	5f 3f       	cpi	r21, 0xFF	; 255
    2e82:	ec f3       	brlt	.-6      	; 0x2e7e <__divsf3_pse+0x6a>
    2e84:	98 3e       	cpi	r25, 0xE8	; 232
    2e86:	dc f3       	brlt	.-10     	; 0x2e7e <__divsf3_pse+0x6a>
    2e88:	86 95       	lsr	r24
    2e8a:	77 95       	ror	r23
    2e8c:	67 95       	ror	r22
    2e8e:	b7 95       	ror	r27
    2e90:	f7 95       	ror	r31
    2e92:	9f 5f       	subi	r25, 0xFF	; 255
    2e94:	c9 f7       	brne	.-14     	; 0x2e88 <__divsf3_pse+0x74>
    2e96:	88 0f       	add	r24, r24
    2e98:	91 1d       	adc	r25, r1
    2e9a:	96 95       	lsr	r25
    2e9c:	87 95       	ror	r24
    2e9e:	97 f9       	bld	r25, 7
    2ea0:	08 95       	ret
    2ea2:	e1 e0       	ldi	r30, 0x01	; 1
    2ea4:	66 0f       	add	r22, r22
    2ea6:	77 1f       	adc	r23, r23
    2ea8:	88 1f       	adc	r24, r24
    2eaa:	bb 1f       	adc	r27, r27
    2eac:	62 17       	cp	r22, r18
    2eae:	73 07       	cpc	r23, r19
    2eb0:	84 07       	cpc	r24, r20
    2eb2:	ba 07       	cpc	r27, r26
    2eb4:	20 f0       	brcs	.+8      	; 0x2ebe <__divsf3_pse+0xaa>
    2eb6:	62 1b       	sub	r22, r18
    2eb8:	73 0b       	sbc	r23, r19
    2eba:	84 0b       	sbc	r24, r20
    2ebc:	ba 0b       	sbc	r27, r26
    2ebe:	ee 1f       	adc	r30, r30
    2ec0:	88 f7       	brcc	.-30     	; 0x2ea4 <__divsf3_pse+0x90>
    2ec2:	e0 95       	com	r30
    2ec4:	08 95       	ret

00002ec6 <__fixsfsi>:
    2ec6:	04 d0       	rcall	.+8      	; 0x2ed0 <__fixunssfsi>
    2ec8:	68 94       	set
    2eca:	b1 11       	cpse	r27, r1
    2ecc:	fe c0       	rjmp	.+508    	; 0x30ca <__fp_szero>
    2ece:	08 95       	ret

00002ed0 <__fixunssfsi>:
    2ed0:	e1 d0       	rcall	.+450    	; 0x3094 <__fp_splitA>
    2ed2:	88 f0       	brcs	.+34     	; 0x2ef6 <__fixunssfsi+0x26>
    2ed4:	9f 57       	subi	r25, 0x7F	; 127
    2ed6:	90 f0       	brcs	.+36     	; 0x2efc <__fixunssfsi+0x2c>
    2ed8:	b9 2f       	mov	r27, r25
    2eda:	99 27       	eor	r25, r25
    2edc:	b7 51       	subi	r27, 0x17	; 23
    2ede:	a0 f0       	brcs	.+40     	; 0x2f08 <__fixunssfsi+0x38>
    2ee0:	d1 f0       	breq	.+52     	; 0x2f16 <__fixunssfsi+0x46>
    2ee2:	66 0f       	add	r22, r22
    2ee4:	77 1f       	adc	r23, r23
    2ee6:	88 1f       	adc	r24, r24
    2ee8:	99 1f       	adc	r25, r25
    2eea:	1a f0       	brmi	.+6      	; 0x2ef2 <__fixunssfsi+0x22>
    2eec:	ba 95       	dec	r27
    2eee:	c9 f7       	brne	.-14     	; 0x2ee2 <__fixunssfsi+0x12>
    2ef0:	12 c0       	rjmp	.+36     	; 0x2f16 <__fixunssfsi+0x46>
    2ef2:	b1 30       	cpi	r27, 0x01	; 1
    2ef4:	81 f0       	breq	.+32     	; 0x2f16 <__fixunssfsi+0x46>
    2ef6:	e8 d0       	rcall	.+464    	; 0x30c8 <__fp_zero>
    2ef8:	b1 e0       	ldi	r27, 0x01	; 1
    2efa:	08 95       	ret
    2efc:	e5 c0       	rjmp	.+458    	; 0x30c8 <__fp_zero>
    2efe:	67 2f       	mov	r22, r23
    2f00:	78 2f       	mov	r23, r24
    2f02:	88 27       	eor	r24, r24
    2f04:	b8 5f       	subi	r27, 0xF8	; 248
    2f06:	39 f0       	breq	.+14     	; 0x2f16 <__fixunssfsi+0x46>
    2f08:	b9 3f       	cpi	r27, 0xF9	; 249
    2f0a:	cc f3       	brlt	.-14     	; 0x2efe <__fixunssfsi+0x2e>
    2f0c:	86 95       	lsr	r24
    2f0e:	77 95       	ror	r23
    2f10:	67 95       	ror	r22
    2f12:	b3 95       	inc	r27
    2f14:	d9 f7       	brne	.-10     	; 0x2f0c <__fixunssfsi+0x3c>
    2f16:	3e f4       	brtc	.+14     	; 0x2f26 <__fixunssfsi+0x56>
    2f18:	90 95       	com	r25
    2f1a:	80 95       	com	r24
    2f1c:	70 95       	com	r23
    2f1e:	61 95       	neg	r22
    2f20:	7f 4f       	sbci	r23, 0xFF	; 255
    2f22:	8f 4f       	sbci	r24, 0xFF	; 255
    2f24:	9f 4f       	sbci	r25, 0xFF	; 255
    2f26:	08 95       	ret

00002f28 <__floatunsisf>:
    2f28:	e8 94       	clt
    2f2a:	09 c0       	rjmp	.+18     	; 0x2f3e <__floatsisf+0x12>

00002f2c <__floatsisf>:
    2f2c:	97 fb       	bst	r25, 7
    2f2e:	3e f4       	brtc	.+14     	; 0x2f3e <__floatsisf+0x12>
    2f30:	90 95       	com	r25
    2f32:	80 95       	com	r24
    2f34:	70 95       	com	r23
    2f36:	61 95       	neg	r22
    2f38:	7f 4f       	sbci	r23, 0xFF	; 255
    2f3a:	8f 4f       	sbci	r24, 0xFF	; 255
    2f3c:	9f 4f       	sbci	r25, 0xFF	; 255
    2f3e:	99 23       	and	r25, r25
    2f40:	a9 f0       	breq	.+42     	; 0x2f6c <__floatsisf+0x40>
    2f42:	f9 2f       	mov	r31, r25
    2f44:	96 e9       	ldi	r25, 0x96	; 150
    2f46:	bb 27       	eor	r27, r27
    2f48:	93 95       	inc	r25
    2f4a:	f6 95       	lsr	r31
    2f4c:	87 95       	ror	r24
    2f4e:	77 95       	ror	r23
    2f50:	67 95       	ror	r22
    2f52:	b7 95       	ror	r27
    2f54:	f1 11       	cpse	r31, r1
    2f56:	f8 cf       	rjmp	.-16     	; 0x2f48 <__floatsisf+0x1c>
    2f58:	fa f4       	brpl	.+62     	; 0x2f98 <__floatsisf+0x6c>
    2f5a:	bb 0f       	add	r27, r27
    2f5c:	11 f4       	brne	.+4      	; 0x2f62 <__floatsisf+0x36>
    2f5e:	60 ff       	sbrs	r22, 0
    2f60:	1b c0       	rjmp	.+54     	; 0x2f98 <__floatsisf+0x6c>
    2f62:	6f 5f       	subi	r22, 0xFF	; 255
    2f64:	7f 4f       	sbci	r23, 0xFF	; 255
    2f66:	8f 4f       	sbci	r24, 0xFF	; 255
    2f68:	9f 4f       	sbci	r25, 0xFF	; 255
    2f6a:	16 c0       	rjmp	.+44     	; 0x2f98 <__floatsisf+0x6c>
    2f6c:	88 23       	and	r24, r24
    2f6e:	11 f0       	breq	.+4      	; 0x2f74 <__floatsisf+0x48>
    2f70:	96 e9       	ldi	r25, 0x96	; 150
    2f72:	11 c0       	rjmp	.+34     	; 0x2f96 <__floatsisf+0x6a>
    2f74:	77 23       	and	r23, r23
    2f76:	21 f0       	breq	.+8      	; 0x2f80 <__floatsisf+0x54>
    2f78:	9e e8       	ldi	r25, 0x8E	; 142
    2f7a:	87 2f       	mov	r24, r23
    2f7c:	76 2f       	mov	r23, r22
    2f7e:	05 c0       	rjmp	.+10     	; 0x2f8a <__floatsisf+0x5e>
    2f80:	66 23       	and	r22, r22
    2f82:	71 f0       	breq	.+28     	; 0x2fa0 <__floatsisf+0x74>
    2f84:	96 e8       	ldi	r25, 0x86	; 134
    2f86:	86 2f       	mov	r24, r22
    2f88:	70 e0       	ldi	r23, 0x00	; 0
    2f8a:	60 e0       	ldi	r22, 0x00	; 0
    2f8c:	2a f0       	brmi	.+10     	; 0x2f98 <__floatsisf+0x6c>
    2f8e:	9a 95       	dec	r25
    2f90:	66 0f       	add	r22, r22
    2f92:	77 1f       	adc	r23, r23
    2f94:	88 1f       	adc	r24, r24
    2f96:	da f7       	brpl	.-10     	; 0x2f8e <__floatsisf+0x62>
    2f98:	88 0f       	add	r24, r24
    2f9a:	96 95       	lsr	r25
    2f9c:	87 95       	ror	r24
    2f9e:	97 f9       	bld	r25, 7
    2fa0:	08 95       	ret

00002fa2 <__fp_cmp>:
    2fa2:	99 0f       	add	r25, r25
    2fa4:	00 08       	sbc	r0, r0
    2fa6:	55 0f       	add	r21, r21
    2fa8:	aa 0b       	sbc	r26, r26
    2faa:	e0 e8       	ldi	r30, 0x80	; 128
    2fac:	fe ef       	ldi	r31, 0xFE	; 254
    2fae:	16 16       	cp	r1, r22
    2fb0:	17 06       	cpc	r1, r23
    2fb2:	e8 07       	cpc	r30, r24
    2fb4:	f9 07       	cpc	r31, r25
    2fb6:	c0 f0       	brcs	.+48     	; 0x2fe8 <__fp_cmp+0x46>
    2fb8:	12 16       	cp	r1, r18
    2fba:	13 06       	cpc	r1, r19
    2fbc:	e4 07       	cpc	r30, r20
    2fbe:	f5 07       	cpc	r31, r21
    2fc0:	98 f0       	brcs	.+38     	; 0x2fe8 <__fp_cmp+0x46>
    2fc2:	62 1b       	sub	r22, r18
    2fc4:	73 0b       	sbc	r23, r19
    2fc6:	84 0b       	sbc	r24, r20
    2fc8:	95 0b       	sbc	r25, r21
    2fca:	39 f4       	brne	.+14     	; 0x2fda <__fp_cmp+0x38>
    2fcc:	0a 26       	eor	r0, r26
    2fce:	61 f0       	breq	.+24     	; 0x2fe8 <__fp_cmp+0x46>
    2fd0:	23 2b       	or	r18, r19
    2fd2:	24 2b       	or	r18, r20
    2fd4:	25 2b       	or	r18, r21
    2fd6:	21 f4       	brne	.+8      	; 0x2fe0 <__fp_cmp+0x3e>
    2fd8:	08 95       	ret
    2fda:	0a 26       	eor	r0, r26
    2fdc:	09 f4       	brne	.+2      	; 0x2fe0 <__fp_cmp+0x3e>
    2fde:	a1 40       	sbci	r26, 0x01	; 1
    2fe0:	a6 95       	lsr	r26
    2fe2:	8f ef       	ldi	r24, 0xFF	; 255
    2fe4:	81 1d       	adc	r24, r1
    2fe6:	81 1d       	adc	r24, r1
    2fe8:	08 95       	ret

00002fea <__fp_inf>:
    2fea:	97 f9       	bld	r25, 7
    2fec:	9f 67       	ori	r25, 0x7F	; 127
    2fee:	80 e8       	ldi	r24, 0x80	; 128
    2ff0:	70 e0       	ldi	r23, 0x00	; 0
    2ff2:	60 e0       	ldi	r22, 0x00	; 0
    2ff4:	08 95       	ret

00002ff6 <__fp_nan>:
    2ff6:	9f ef       	ldi	r25, 0xFF	; 255
    2ff8:	80 ec       	ldi	r24, 0xC0	; 192
    2ffa:	08 95       	ret

00002ffc <__fp_powser>:
    2ffc:	df 93       	push	r29
    2ffe:	cf 93       	push	r28
    3000:	1f 93       	push	r17
    3002:	0f 93       	push	r16
    3004:	ff 92       	push	r15
    3006:	ef 92       	push	r14
    3008:	df 92       	push	r13
    300a:	7b 01       	movw	r14, r22
    300c:	8c 01       	movw	r16, r24
    300e:	68 94       	set
    3010:	05 c0       	rjmp	.+10     	; 0x301c <__fp_powser+0x20>
    3012:	da 2e       	mov	r13, r26
    3014:	ef 01       	movw	r28, r30
    3016:	76 d0       	rcall	.+236    	; 0x3104 <__mulsf3x>
    3018:	fe 01       	movw	r30, r28
    301a:	e8 94       	clt
    301c:	a5 91       	lpm	r26, Z+
    301e:	25 91       	lpm	r18, Z+
    3020:	35 91       	lpm	r19, Z+
    3022:	45 91       	lpm	r20, Z+
    3024:	55 91       	lpm	r21, Z+
    3026:	ae f3       	brts	.-22     	; 0x3012 <__fp_powser+0x16>
    3028:	ef 01       	movw	r28, r30
    302a:	8e de       	rcall	.-740    	; 0x2d48 <__addsf3x>
    302c:	fe 01       	movw	r30, r28
    302e:	97 01       	movw	r18, r14
    3030:	a8 01       	movw	r20, r16
    3032:	da 94       	dec	r13
    3034:	79 f7       	brne	.-34     	; 0x3014 <__fp_powser+0x18>
    3036:	df 90       	pop	r13
    3038:	ef 90       	pop	r14
    303a:	ff 90       	pop	r15
    303c:	0f 91       	pop	r16
    303e:	1f 91       	pop	r17
    3040:	cf 91       	pop	r28
    3042:	df 91       	pop	r29
    3044:	08 95       	ret

00003046 <__fp_pscA>:
    3046:	00 24       	eor	r0, r0
    3048:	0a 94       	dec	r0
    304a:	16 16       	cp	r1, r22
    304c:	17 06       	cpc	r1, r23
    304e:	18 06       	cpc	r1, r24
    3050:	09 06       	cpc	r0, r25
    3052:	08 95       	ret

00003054 <__fp_pscB>:
    3054:	00 24       	eor	r0, r0
    3056:	0a 94       	dec	r0
    3058:	12 16       	cp	r1, r18
    305a:	13 06       	cpc	r1, r19
    305c:	14 06       	cpc	r1, r20
    305e:	05 06       	cpc	r0, r21
    3060:	08 95       	ret

00003062 <__fp_round>:
    3062:	09 2e       	mov	r0, r25
    3064:	03 94       	inc	r0
    3066:	00 0c       	add	r0, r0
    3068:	11 f4       	brne	.+4      	; 0x306e <__fp_round+0xc>
    306a:	88 23       	and	r24, r24
    306c:	52 f0       	brmi	.+20     	; 0x3082 <__fp_round+0x20>
    306e:	bb 0f       	add	r27, r27
    3070:	40 f4       	brcc	.+16     	; 0x3082 <__fp_round+0x20>
    3072:	bf 2b       	or	r27, r31
    3074:	11 f4       	brne	.+4      	; 0x307a <__fp_round+0x18>
    3076:	60 ff       	sbrs	r22, 0
    3078:	04 c0       	rjmp	.+8      	; 0x3082 <__fp_round+0x20>
    307a:	6f 5f       	subi	r22, 0xFF	; 255
    307c:	7f 4f       	sbci	r23, 0xFF	; 255
    307e:	8f 4f       	sbci	r24, 0xFF	; 255
    3080:	9f 4f       	sbci	r25, 0xFF	; 255
    3082:	08 95       	ret

00003084 <__fp_split3>:
    3084:	57 fd       	sbrc	r21, 7
    3086:	90 58       	subi	r25, 0x80	; 128
    3088:	44 0f       	add	r20, r20
    308a:	55 1f       	adc	r21, r21
    308c:	59 f0       	breq	.+22     	; 0x30a4 <__fp_splitA+0x10>
    308e:	5f 3f       	cpi	r21, 0xFF	; 255
    3090:	71 f0       	breq	.+28     	; 0x30ae <__fp_splitA+0x1a>
    3092:	47 95       	ror	r20

00003094 <__fp_splitA>:
    3094:	88 0f       	add	r24, r24
    3096:	97 fb       	bst	r25, 7
    3098:	99 1f       	adc	r25, r25
    309a:	61 f0       	breq	.+24     	; 0x30b4 <__fp_splitA+0x20>
    309c:	9f 3f       	cpi	r25, 0xFF	; 255
    309e:	79 f0       	breq	.+30     	; 0x30be <__fp_splitA+0x2a>
    30a0:	87 95       	ror	r24
    30a2:	08 95       	ret
    30a4:	12 16       	cp	r1, r18
    30a6:	13 06       	cpc	r1, r19
    30a8:	14 06       	cpc	r1, r20
    30aa:	55 1f       	adc	r21, r21
    30ac:	f2 cf       	rjmp	.-28     	; 0x3092 <__fp_split3+0xe>
    30ae:	46 95       	lsr	r20
    30b0:	f1 df       	rcall	.-30     	; 0x3094 <__fp_splitA>
    30b2:	08 c0       	rjmp	.+16     	; 0x30c4 <__fp_splitA+0x30>
    30b4:	16 16       	cp	r1, r22
    30b6:	17 06       	cpc	r1, r23
    30b8:	18 06       	cpc	r1, r24
    30ba:	99 1f       	adc	r25, r25
    30bc:	f1 cf       	rjmp	.-30     	; 0x30a0 <__fp_splitA+0xc>
    30be:	86 95       	lsr	r24
    30c0:	71 05       	cpc	r23, r1
    30c2:	61 05       	cpc	r22, r1
    30c4:	08 94       	sec
    30c6:	08 95       	ret

000030c8 <__fp_zero>:
    30c8:	e8 94       	clt

000030ca <__fp_szero>:
    30ca:	bb 27       	eor	r27, r27
    30cc:	66 27       	eor	r22, r22
    30ce:	77 27       	eor	r23, r23
    30d0:	cb 01       	movw	r24, r22
    30d2:	97 f9       	bld	r25, 7
    30d4:	08 95       	ret

000030d6 <__gesf2>:
    30d6:	65 df       	rcall	.-310    	; 0x2fa2 <__fp_cmp>
    30d8:	08 f4       	brcc	.+2      	; 0x30dc <__gesf2+0x6>
    30da:	8f ef       	ldi	r24, 0xFF	; 255
    30dc:	08 95       	ret

000030de <inverse>:
    30de:	9b 01       	movw	r18, r22
    30e0:	ac 01       	movw	r20, r24
    30e2:	60 e0       	ldi	r22, 0x00	; 0
    30e4:	70 e0       	ldi	r23, 0x00	; 0
    30e6:	80 e8       	ldi	r24, 0x80	; 128
    30e8:	9f e3       	ldi	r25, 0x3F	; 63
    30ea:	85 ce       	rjmp	.-758    	; 0x2df6 <__divsf3>

000030ec <__mulsf3>:
    30ec:	0b d0       	rcall	.+22     	; 0x3104 <__mulsf3x>
    30ee:	b9 cf       	rjmp	.-142    	; 0x3062 <__fp_round>
    30f0:	aa df       	rcall	.-172    	; 0x3046 <__fp_pscA>
    30f2:	28 f0       	brcs	.+10     	; 0x30fe <__mulsf3+0x12>
    30f4:	af df       	rcall	.-162    	; 0x3054 <__fp_pscB>
    30f6:	18 f0       	brcs	.+6      	; 0x30fe <__mulsf3+0x12>
    30f8:	95 23       	and	r25, r21
    30fa:	09 f0       	breq	.+2      	; 0x30fe <__mulsf3+0x12>
    30fc:	76 cf       	rjmp	.-276    	; 0x2fea <__fp_inf>
    30fe:	7b cf       	rjmp	.-266    	; 0x2ff6 <__fp_nan>
    3100:	11 24       	eor	r1, r1
    3102:	e3 cf       	rjmp	.-58     	; 0x30ca <__fp_szero>

00003104 <__mulsf3x>:
    3104:	bf df       	rcall	.-130    	; 0x3084 <__fp_split3>
    3106:	a0 f3       	brcs	.-24     	; 0x30f0 <__mulsf3+0x4>

00003108 <__mulsf3_pse>:
    3108:	95 9f       	mul	r25, r21
    310a:	d1 f3       	breq	.-12     	; 0x3100 <__mulsf3+0x14>
    310c:	95 0f       	add	r25, r21
    310e:	50 e0       	ldi	r21, 0x00	; 0
    3110:	55 1f       	adc	r21, r21
    3112:	62 9f       	mul	r22, r18
    3114:	f0 01       	movw	r30, r0
    3116:	72 9f       	mul	r23, r18
    3118:	bb 27       	eor	r27, r27
    311a:	f0 0d       	add	r31, r0
    311c:	b1 1d       	adc	r27, r1
    311e:	63 9f       	mul	r22, r19
    3120:	aa 27       	eor	r26, r26
    3122:	f0 0d       	add	r31, r0
    3124:	b1 1d       	adc	r27, r1
    3126:	aa 1f       	adc	r26, r26
    3128:	64 9f       	mul	r22, r20
    312a:	66 27       	eor	r22, r22
    312c:	b0 0d       	add	r27, r0
    312e:	a1 1d       	adc	r26, r1
    3130:	66 1f       	adc	r22, r22
    3132:	82 9f       	mul	r24, r18
    3134:	22 27       	eor	r18, r18
    3136:	b0 0d       	add	r27, r0
    3138:	a1 1d       	adc	r26, r1
    313a:	62 1f       	adc	r22, r18
    313c:	73 9f       	mul	r23, r19
    313e:	b0 0d       	add	r27, r0
    3140:	a1 1d       	adc	r26, r1
    3142:	62 1f       	adc	r22, r18
    3144:	83 9f       	mul	r24, r19
    3146:	a0 0d       	add	r26, r0
    3148:	61 1d       	adc	r22, r1
    314a:	22 1f       	adc	r18, r18
    314c:	74 9f       	mul	r23, r20
    314e:	33 27       	eor	r19, r19
    3150:	a0 0d       	add	r26, r0
    3152:	61 1d       	adc	r22, r1
    3154:	23 1f       	adc	r18, r19
    3156:	84 9f       	mul	r24, r20
    3158:	60 0d       	add	r22, r0
    315a:	21 1d       	adc	r18, r1
    315c:	82 2f       	mov	r24, r18
    315e:	76 2f       	mov	r23, r22
    3160:	6a 2f       	mov	r22, r26
    3162:	11 24       	eor	r1, r1
    3164:	9f 57       	subi	r25, 0x7F	; 127
    3166:	50 40       	sbci	r21, 0x00	; 0
    3168:	8a f0       	brmi	.+34     	; 0x318c <__mulsf3_pse+0x84>
    316a:	e1 f0       	breq	.+56     	; 0x31a4 <__mulsf3_pse+0x9c>
    316c:	88 23       	and	r24, r24
    316e:	4a f0       	brmi	.+18     	; 0x3182 <__mulsf3_pse+0x7a>
    3170:	ee 0f       	add	r30, r30
    3172:	ff 1f       	adc	r31, r31
    3174:	bb 1f       	adc	r27, r27
    3176:	66 1f       	adc	r22, r22
    3178:	77 1f       	adc	r23, r23
    317a:	88 1f       	adc	r24, r24
    317c:	91 50       	subi	r25, 0x01	; 1
    317e:	50 40       	sbci	r21, 0x00	; 0
    3180:	a9 f7       	brne	.-22     	; 0x316c <__mulsf3_pse+0x64>
    3182:	9e 3f       	cpi	r25, 0xFE	; 254
    3184:	51 05       	cpc	r21, r1
    3186:	70 f0       	brcs	.+28     	; 0x31a4 <__mulsf3_pse+0x9c>
    3188:	30 cf       	rjmp	.-416    	; 0x2fea <__fp_inf>
    318a:	9f cf       	rjmp	.-194    	; 0x30ca <__fp_szero>
    318c:	5f 3f       	cpi	r21, 0xFF	; 255
    318e:	ec f3       	brlt	.-6      	; 0x318a <__mulsf3_pse+0x82>
    3190:	98 3e       	cpi	r25, 0xE8	; 232
    3192:	dc f3       	brlt	.-10     	; 0x318a <__mulsf3_pse+0x82>
    3194:	86 95       	lsr	r24
    3196:	77 95       	ror	r23
    3198:	67 95       	ror	r22
    319a:	b7 95       	ror	r27
    319c:	f7 95       	ror	r31
    319e:	e7 95       	ror	r30
    31a0:	9f 5f       	subi	r25, 0xFF	; 255
    31a2:	c1 f7       	brne	.-16     	; 0x3194 <__mulsf3_pse+0x8c>
    31a4:	fe 2b       	or	r31, r30
    31a6:	88 0f       	add	r24, r24
    31a8:	91 1d       	adc	r25, r1
    31aa:	96 95       	lsr	r25
    31ac:	87 95       	ror	r24
    31ae:	97 f9       	bld	r25, 7
    31b0:	08 95       	ret

000031b2 <pow>:
    31b2:	fa 01       	movw	r30, r20
    31b4:	ee 0f       	add	r30, r30
    31b6:	ff 1f       	adc	r31, r31
    31b8:	30 96       	adiw	r30, 0x00	; 0
    31ba:	21 05       	cpc	r18, r1
    31bc:	31 05       	cpc	r19, r1
    31be:	99 f1       	breq	.+102    	; 0x3226 <pow+0x74>
    31c0:	61 15       	cp	r22, r1
    31c2:	71 05       	cpc	r23, r1
    31c4:	61 f4       	brne	.+24     	; 0x31de <pow+0x2c>
    31c6:	80 38       	cpi	r24, 0x80	; 128
    31c8:	bf e3       	ldi	r27, 0x3F	; 63
    31ca:	9b 07       	cpc	r25, r27
    31cc:	49 f1       	breq	.+82     	; 0x3220 <pow+0x6e>
    31ce:	68 94       	set
    31d0:	90 38       	cpi	r25, 0x80	; 128
    31d2:	81 05       	cpc	r24, r1
    31d4:	61 f0       	breq	.+24     	; 0x31ee <pow+0x3c>
    31d6:	80 38       	cpi	r24, 0x80	; 128
    31d8:	bf ef       	ldi	r27, 0xFF	; 255
    31da:	9b 07       	cpc	r25, r27
    31dc:	41 f0       	breq	.+16     	; 0x31ee <pow+0x3c>
    31de:	99 23       	and	r25, r25
    31e0:	42 f5       	brpl	.+80     	; 0x3232 <pow+0x80>
    31e2:	ff 3f       	cpi	r31, 0xFF	; 255
    31e4:	e1 05       	cpc	r30, r1
    31e6:	31 05       	cpc	r19, r1
    31e8:	21 05       	cpc	r18, r1
    31ea:	11 f1       	breq	.+68     	; 0x3230 <pow+0x7e>
    31ec:	e8 94       	clt
    31ee:	08 94       	sec
    31f0:	e7 95       	ror	r30
    31f2:	d9 01       	movw	r26, r18
    31f4:	aa 23       	and	r26, r26
    31f6:	29 f4       	brne	.+10     	; 0x3202 <pow+0x50>
    31f8:	ab 2f       	mov	r26, r27
    31fa:	be 2f       	mov	r27, r30
    31fc:	f8 5f       	subi	r31, 0xF8	; 248
    31fe:	d0 f3       	brcs	.-12     	; 0x31f4 <pow+0x42>
    3200:	10 c0       	rjmp	.+32     	; 0x3222 <pow+0x70>
    3202:	ff 5f       	subi	r31, 0xFF	; 255
    3204:	70 f4       	brcc	.+28     	; 0x3222 <pow+0x70>
    3206:	a6 95       	lsr	r26
    3208:	e0 f7       	brcc	.-8      	; 0x3202 <pow+0x50>
    320a:	f7 39       	cpi	r31, 0x97	; 151
    320c:	50 f0       	brcs	.+20     	; 0x3222 <pow+0x70>
    320e:	19 f0       	breq	.+6      	; 0x3216 <pow+0x64>
    3210:	ff 3a       	cpi	r31, 0xAF	; 175
    3212:	38 f4       	brcc	.+14     	; 0x3222 <pow+0x70>
    3214:	9f 77       	andi	r25, 0x7F	; 127
    3216:	9f 93       	push	r25
    3218:	0c d0       	rcall	.+24     	; 0x3232 <pow+0x80>
    321a:	0f 90       	pop	r0
    321c:	07 fc       	sbrc	r0, 7
    321e:	90 58       	subi	r25, 0x80	; 128
    3220:	08 95       	ret
    3222:	3e f0       	brts	.+14     	; 0x3232 <pow+0x80>
    3224:	e8 ce       	rjmp	.-560    	; 0x2ff6 <__fp_nan>
    3226:	60 e0       	ldi	r22, 0x00	; 0
    3228:	70 e0       	ldi	r23, 0x00	; 0
    322a:	80 e8       	ldi	r24, 0x80	; 128
    322c:	9f e3       	ldi	r25, 0x3F	; 63
    322e:	08 95       	ret
    3230:	4f e7       	ldi	r20, 0x7F	; 127
    3232:	9f 77       	andi	r25, 0x7F	; 127
    3234:	5f 93       	push	r21
    3236:	4f 93       	push	r20
    3238:	3f 93       	push	r19
    323a:	2f 93       	push	r18
    323c:	80 d0       	rcall	.+256    	; 0x333e <log>
    323e:	2f 91       	pop	r18
    3240:	3f 91       	pop	r19
    3242:	4f 91       	pop	r20
    3244:	5f 91       	pop	r21
    3246:	52 df       	rcall	.-348    	; 0x30ec <__mulsf3>
    3248:	05 c0       	rjmp	.+10     	; 0x3254 <exp>
    324a:	19 f4       	brne	.+6      	; 0x3252 <pow+0xa0>
    324c:	0e f0       	brts	.+2      	; 0x3250 <pow+0x9e>
    324e:	cd ce       	rjmp	.-614    	; 0x2fea <__fp_inf>
    3250:	3b cf       	rjmp	.-394    	; 0x30c8 <__fp_zero>
    3252:	d1 ce       	rjmp	.-606    	; 0x2ff6 <__fp_nan>

00003254 <exp>:
    3254:	1f df       	rcall	.-450    	; 0x3094 <__fp_splitA>
    3256:	c8 f3       	brcs	.-14     	; 0x324a <pow+0x98>
    3258:	96 38       	cpi	r25, 0x86	; 134
    325a:	c0 f7       	brcc	.-16     	; 0x324c <pow+0x9a>
    325c:	07 f8       	bld	r0, 7
    325e:	0f 92       	push	r0
    3260:	e8 94       	clt
    3262:	2b e3       	ldi	r18, 0x3B	; 59
    3264:	3a ea       	ldi	r19, 0xAA	; 170
    3266:	48 eb       	ldi	r20, 0xB8	; 184
    3268:	5f e7       	ldi	r21, 0x7F	; 127
    326a:	4e df       	rcall	.-356    	; 0x3108 <__mulsf3_pse>
    326c:	0f 92       	push	r0
    326e:	0f 92       	push	r0
    3270:	0f 92       	push	r0
    3272:	4d b7       	in	r20, 0x3d	; 61
    3274:	5e b7       	in	r21, 0x3e	; 62
    3276:	0f 92       	push	r0
    3278:	a2 d0       	rcall	.+324    	; 0x33be <modf>
    327a:	ec ef       	ldi	r30, 0xFC	; 252
    327c:	f1 e0       	ldi	r31, 0x01	; 1
    327e:	be de       	rcall	.-644    	; 0x2ffc <__fp_powser>
    3280:	4f 91       	pop	r20
    3282:	5f 91       	pop	r21
    3284:	ef 91       	pop	r30
    3286:	ff 91       	pop	r31
    3288:	e5 95       	asr	r30
    328a:	ee 1f       	adc	r30, r30
    328c:	ff 1f       	adc	r31, r31
    328e:	49 f0       	breq	.+18     	; 0x32a2 <exp+0x4e>
    3290:	fe 57       	subi	r31, 0x7E	; 126
    3292:	e0 68       	ori	r30, 0x80	; 128
    3294:	44 27       	eor	r20, r20
    3296:	ee 0f       	add	r30, r30
    3298:	44 1f       	adc	r20, r20
    329a:	fa 95       	dec	r31
    329c:	e1 f7       	brne	.-8      	; 0x3296 <exp+0x42>
    329e:	41 95       	neg	r20
    32a0:	55 0b       	sbc	r21, r21
    32a2:	14 d0       	rcall	.+40     	; 0x32cc <ldexp>
    32a4:	0f 90       	pop	r0
    32a6:	07 fe       	sbrs	r0, 7
    32a8:	1a cf       	rjmp	.-460    	; 0x30de <inverse>
    32aa:	08 95       	ret

000032ac <__fp_mpack>:
    32ac:	9f 3f       	cpi	r25, 0xFF	; 255
    32ae:	31 f0       	breq	.+12     	; 0x32bc <__fp_mpack_finite+0xc>

000032b0 <__fp_mpack_finite>:
    32b0:	91 50       	subi	r25, 0x01	; 1
    32b2:	20 f4       	brcc	.+8      	; 0x32bc <__fp_mpack_finite+0xc>
    32b4:	87 95       	ror	r24
    32b6:	77 95       	ror	r23
    32b8:	67 95       	ror	r22
    32ba:	b7 95       	ror	r27
    32bc:	88 0f       	add	r24, r24
    32be:	91 1d       	adc	r25, r1
    32c0:	96 95       	lsr	r25
    32c2:	87 95       	ror	r24
    32c4:	97 f9       	bld	r25, 7
    32c6:	08 95       	ret
    32c8:	90 ce       	rjmp	.-736    	; 0x2fea <__fp_inf>
    32ca:	f0 cf       	rjmp	.-32     	; 0x32ac <__fp_mpack>

000032cc <ldexp>:
    32cc:	e3 de       	rcall	.-570    	; 0x3094 <__fp_splitA>
    32ce:	e8 f3       	brcs	.-6      	; 0x32ca <__fp_mpack_finite+0x1a>
    32d0:	99 23       	and	r25, r25
    32d2:	d9 f3       	breq	.-10     	; 0x32ca <__fp_mpack_finite+0x1a>
    32d4:	94 0f       	add	r25, r20
    32d6:	51 1d       	adc	r21, r1
    32d8:	bb f3       	brvs	.-18     	; 0x32c8 <__fp_mpack_finite+0x18>
    32da:	91 50       	subi	r25, 0x01	; 1
    32dc:	50 40       	sbci	r21, 0x00	; 0
    32de:	94 f0       	brlt	.+36     	; 0x3304 <ldexp+0x38>
    32e0:	59 f0       	breq	.+22     	; 0x32f8 <ldexp+0x2c>
    32e2:	88 23       	and	r24, r24
    32e4:	32 f0       	brmi	.+12     	; 0x32f2 <ldexp+0x26>
    32e6:	66 0f       	add	r22, r22
    32e8:	77 1f       	adc	r23, r23
    32ea:	88 1f       	adc	r24, r24
    32ec:	91 50       	subi	r25, 0x01	; 1
    32ee:	50 40       	sbci	r21, 0x00	; 0
    32f0:	c1 f7       	brne	.-16     	; 0x32e2 <ldexp+0x16>
    32f2:	9e 3f       	cpi	r25, 0xFE	; 254
    32f4:	51 05       	cpc	r21, r1
    32f6:	44 f7       	brge	.-48     	; 0x32c8 <__fp_mpack_finite+0x18>
    32f8:	88 0f       	add	r24, r24
    32fa:	91 1d       	adc	r25, r1
    32fc:	96 95       	lsr	r25
    32fe:	87 95       	ror	r24
    3300:	97 f9       	bld	r25, 7
    3302:	08 95       	ret
    3304:	5f 3f       	cpi	r21, 0xFF	; 255
    3306:	ac f0       	brlt	.+42     	; 0x3332 <ldexp+0x66>
    3308:	98 3e       	cpi	r25, 0xE8	; 232
    330a:	9c f0       	brlt	.+38     	; 0x3332 <ldexp+0x66>
    330c:	bb 27       	eor	r27, r27
    330e:	86 95       	lsr	r24
    3310:	77 95       	ror	r23
    3312:	67 95       	ror	r22
    3314:	b7 95       	ror	r27
    3316:	08 f4       	brcc	.+2      	; 0x331a <ldexp+0x4e>
    3318:	b1 60       	ori	r27, 0x01	; 1
    331a:	93 95       	inc	r25
    331c:	c1 f7       	brne	.-16     	; 0x330e <ldexp+0x42>
    331e:	bb 0f       	add	r27, r27
    3320:	58 f7       	brcc	.-42     	; 0x32f8 <ldexp+0x2c>
    3322:	11 f4       	brne	.+4      	; 0x3328 <ldexp+0x5c>
    3324:	60 ff       	sbrs	r22, 0
    3326:	e8 cf       	rjmp	.-48     	; 0x32f8 <ldexp+0x2c>
    3328:	6f 5f       	subi	r22, 0xFF	; 255
    332a:	7f 4f       	sbci	r23, 0xFF	; 255
    332c:	8f 4f       	sbci	r24, 0xFF	; 255
    332e:	9f 4f       	sbci	r25, 0xFF	; 255
    3330:	e3 cf       	rjmp	.-58     	; 0x32f8 <ldexp+0x2c>
    3332:	cb ce       	rjmp	.-618    	; 0x30ca <__fp_szero>
    3334:	0e f0       	brts	.+2      	; 0x3338 <ldexp+0x6c>
    3336:	ba cf       	rjmp	.-140    	; 0x32ac <__fp_mpack>
    3338:	5e ce       	rjmp	.-836    	; 0x2ff6 <__fp_nan>
    333a:	68 94       	set
    333c:	56 ce       	rjmp	.-852    	; 0x2fea <__fp_inf>

0000333e <log>:
    333e:	aa de       	rcall	.-684    	; 0x3094 <__fp_splitA>
    3340:	c8 f3       	brcs	.-14     	; 0x3334 <ldexp+0x68>
    3342:	99 23       	and	r25, r25
    3344:	d1 f3       	breq	.-12     	; 0x333a <ldexp+0x6e>
    3346:	c6 f3       	brts	.-16     	; 0x3338 <ldexp+0x6c>
    3348:	df 93       	push	r29
    334a:	cf 93       	push	r28
    334c:	1f 93       	push	r17
    334e:	0f 93       	push	r16
    3350:	ff 92       	push	r15
    3352:	c9 2f       	mov	r28, r25
    3354:	dd 27       	eor	r29, r29
    3356:	88 23       	and	r24, r24
    3358:	2a f0       	brmi	.+10     	; 0x3364 <log+0x26>
    335a:	21 97       	sbiw	r28, 0x01	; 1
    335c:	66 0f       	add	r22, r22
    335e:	77 1f       	adc	r23, r23
    3360:	88 1f       	adc	r24, r24
    3362:	da f7       	brpl	.-10     	; 0x335a <log+0x1c>
    3364:	20 e0       	ldi	r18, 0x00	; 0
    3366:	30 e0       	ldi	r19, 0x00	; 0
    3368:	40 e8       	ldi	r20, 0x80	; 128
    336a:	5f eb       	ldi	r21, 0xBF	; 191
    336c:	9f e3       	ldi	r25, 0x3F	; 63
    336e:	88 39       	cpi	r24, 0x98	; 152
    3370:	20 f0       	brcs	.+8      	; 0x337a <log+0x3c>
    3372:	80 3e       	cpi	r24, 0xE0	; 224
    3374:	30 f0       	brcs	.+12     	; 0x3382 <log+0x44>
    3376:	21 96       	adiw	r28, 0x01	; 1
    3378:	8f 77       	andi	r24, 0x7F	; 127
    337a:	d5 dc       	rcall	.-1622   	; 0x2d26 <__addsf3>
    337c:	e4 e2       	ldi	r30, 0x24	; 36
    337e:	f2 e0       	ldi	r31, 0x02	; 2
    3380:	03 c0       	rjmp	.+6      	; 0x3388 <log+0x4a>
    3382:	d1 dc       	rcall	.-1630   	; 0x2d26 <__addsf3>
    3384:	e1 e5       	ldi	r30, 0x51	; 81
    3386:	f2 e0       	ldi	r31, 0x02	; 2
    3388:	39 de       	rcall	.-910    	; 0x2ffc <__fp_powser>
    338a:	8b 01       	movw	r16, r22
    338c:	be 01       	movw	r22, r28
    338e:	ec 01       	movw	r28, r24
    3390:	fb 2e       	mov	r15, r27
    3392:	6f 57       	subi	r22, 0x7F	; 127
    3394:	71 09       	sbc	r23, r1
    3396:	75 95       	asr	r23
    3398:	77 1f       	adc	r23, r23
    339a:	88 0b       	sbc	r24, r24
    339c:	99 0b       	sbc	r25, r25
    339e:	c6 dd       	rcall	.-1140   	; 0x2f2c <__floatsisf>
    33a0:	28 e1       	ldi	r18, 0x18	; 24
    33a2:	32 e7       	ldi	r19, 0x72	; 114
    33a4:	41 e3       	ldi	r20, 0x31	; 49
    33a6:	5f e3       	ldi	r21, 0x3F	; 63
    33a8:	ad de       	rcall	.-678    	; 0x3104 <__mulsf3x>
    33aa:	af 2d       	mov	r26, r15
    33ac:	98 01       	movw	r18, r16
    33ae:	ae 01       	movw	r20, r28
    33b0:	ff 90       	pop	r15
    33b2:	0f 91       	pop	r16
    33b4:	1f 91       	pop	r17
    33b6:	cf 91       	pop	r28
    33b8:	df 91       	pop	r29
    33ba:	c6 dc       	rcall	.-1652   	; 0x2d48 <__addsf3x>
    33bc:	52 ce       	rjmp	.-860    	; 0x3062 <__fp_round>

000033be <modf>:
    33be:	fa 01       	movw	r30, r20
    33c0:	dc 01       	movw	r26, r24
    33c2:	aa 0f       	add	r26, r26
    33c4:	bb 1f       	adc	r27, r27
    33c6:	9b 01       	movw	r18, r22
    33c8:	ac 01       	movw	r20, r24
    33ca:	bf 57       	subi	r27, 0x7F	; 127
    33cc:	28 f4       	brcc	.+10     	; 0x33d8 <modf+0x1a>
    33ce:	22 27       	eor	r18, r18
    33d0:	33 27       	eor	r19, r19
    33d2:	44 27       	eor	r20, r20
    33d4:	50 78       	andi	r21, 0x80	; 128
    33d6:	1f c0       	rjmp	.+62     	; 0x3416 <modf+0x58>
    33d8:	b7 51       	subi	r27, 0x17	; 23
    33da:	88 f4       	brcc	.+34     	; 0x33fe <modf+0x40>
    33dc:	ab 2f       	mov	r26, r27
    33de:	00 24       	eor	r0, r0
    33e0:	46 95       	lsr	r20
    33e2:	37 95       	ror	r19
    33e4:	27 95       	ror	r18
    33e6:	01 1c       	adc	r0, r1
    33e8:	a3 95       	inc	r26
    33ea:	d2 f3       	brmi	.-12     	; 0x33e0 <modf+0x22>
    33ec:	00 20       	and	r0, r0
    33ee:	69 f0       	breq	.+26     	; 0x340a <modf+0x4c>
    33f0:	22 0f       	add	r18, r18
    33f2:	33 1f       	adc	r19, r19
    33f4:	44 1f       	adc	r20, r20
    33f6:	b3 95       	inc	r27
    33f8:	da f3       	brmi	.-10     	; 0x33f0 <modf+0x32>
    33fa:	0d d0       	rcall	.+26     	; 0x3416 <modf+0x58>
    33fc:	93 cc       	rjmp	.-1754   	; 0x2d24 <__subsf3>
    33fe:	61 30       	cpi	r22, 0x01	; 1
    3400:	71 05       	cpc	r23, r1
    3402:	a0 e8       	ldi	r26, 0x80	; 128
    3404:	8a 07       	cpc	r24, r26
    3406:	b9 46       	sbci	r27, 0x69	; 105
    3408:	30 f4       	brcc	.+12     	; 0x3416 <modf+0x58>
    340a:	9b 01       	movw	r18, r22
    340c:	ac 01       	movw	r20, r24
    340e:	66 27       	eor	r22, r22
    3410:	77 27       	eor	r23, r23
    3412:	88 27       	eor	r24, r24
    3414:	90 78       	andi	r25, 0x80	; 128
    3416:	30 96       	adiw	r30, 0x00	; 0
    3418:	21 f0       	breq	.+8      	; 0x3422 <modf+0x64>
    341a:	20 83       	st	Z, r18
    341c:	31 83       	std	Z+1, r19	; 0x01
    341e:	42 83       	std	Z+2, r20	; 0x02
    3420:	53 83       	std	Z+3, r21	; 0x03
    3422:	08 95       	ret

00003424 <__mulsi3>:
    3424:	db 01       	movw	r26, r22
    3426:	8f 93       	push	r24
    3428:	9f 93       	push	r25
    342a:	70 d0       	rcall	.+224    	; 0x350c <__muluhisi3>
    342c:	bf 91       	pop	r27
    342e:	af 91       	pop	r26
    3430:	a2 9f       	mul	r26, r18
    3432:	80 0d       	add	r24, r0
    3434:	91 1d       	adc	r25, r1
    3436:	a3 9f       	mul	r26, r19
    3438:	90 0d       	add	r25, r0
    343a:	b2 9f       	mul	r27, r18
    343c:	90 0d       	add	r25, r0
    343e:	11 24       	eor	r1, r1
    3440:	08 95       	ret

00003442 <__udivmodhi4>:
    3442:	aa 1b       	sub	r26, r26
    3444:	bb 1b       	sub	r27, r27
    3446:	51 e1       	ldi	r21, 0x11	; 17
    3448:	07 c0       	rjmp	.+14     	; 0x3458 <__udivmodhi4_ep>

0000344a <__udivmodhi4_loop>:
    344a:	aa 1f       	adc	r26, r26
    344c:	bb 1f       	adc	r27, r27
    344e:	a6 17       	cp	r26, r22
    3450:	b7 07       	cpc	r27, r23
    3452:	10 f0       	brcs	.+4      	; 0x3458 <__udivmodhi4_ep>
    3454:	a6 1b       	sub	r26, r22
    3456:	b7 0b       	sbc	r27, r23

00003458 <__udivmodhi4_ep>:
    3458:	88 1f       	adc	r24, r24
    345a:	99 1f       	adc	r25, r25
    345c:	5a 95       	dec	r21
    345e:	a9 f7       	brne	.-22     	; 0x344a <__udivmodhi4_loop>
    3460:	80 95       	com	r24
    3462:	90 95       	com	r25
    3464:	bc 01       	movw	r22, r24
    3466:	cd 01       	movw	r24, r26
    3468:	08 95       	ret

0000346a <__divmodhi4>:
    346a:	97 fb       	bst	r25, 7
    346c:	07 2e       	mov	r0, r23
    346e:	16 f4       	brtc	.+4      	; 0x3474 <__divmodhi4+0xa>
    3470:	00 94       	com	r0
    3472:	06 d0       	rcall	.+12     	; 0x3480 <__divmodhi4_neg1>
    3474:	77 fd       	sbrc	r23, 7
    3476:	08 d0       	rcall	.+16     	; 0x3488 <__divmodhi4_neg2>
    3478:	e4 df       	rcall	.-56     	; 0x3442 <__udivmodhi4>
    347a:	07 fc       	sbrc	r0, 7
    347c:	05 d0       	rcall	.+10     	; 0x3488 <__divmodhi4_neg2>
    347e:	3e f4       	brtc	.+14     	; 0x348e <__divmodhi4_exit>

00003480 <__divmodhi4_neg1>:
    3480:	90 95       	com	r25
    3482:	81 95       	neg	r24
    3484:	9f 4f       	sbci	r25, 0xFF	; 255
    3486:	08 95       	ret

00003488 <__divmodhi4_neg2>:
    3488:	70 95       	com	r23
    348a:	61 95       	neg	r22
    348c:	7f 4f       	sbci	r23, 0xFF	; 255

0000348e <__divmodhi4_exit>:
    348e:	08 95       	ret

00003490 <__udivmodsi4>:
    3490:	a1 e2       	ldi	r26, 0x21	; 33
    3492:	1a 2e       	mov	r1, r26
    3494:	aa 1b       	sub	r26, r26
    3496:	bb 1b       	sub	r27, r27
    3498:	fd 01       	movw	r30, r26
    349a:	0d c0       	rjmp	.+26     	; 0x34b6 <__udivmodsi4_ep>

0000349c <__udivmodsi4_loop>:
    349c:	aa 1f       	adc	r26, r26
    349e:	bb 1f       	adc	r27, r27
    34a0:	ee 1f       	adc	r30, r30
    34a2:	ff 1f       	adc	r31, r31
    34a4:	a2 17       	cp	r26, r18
    34a6:	b3 07       	cpc	r27, r19
    34a8:	e4 07       	cpc	r30, r20
    34aa:	f5 07       	cpc	r31, r21
    34ac:	20 f0       	brcs	.+8      	; 0x34b6 <__udivmodsi4_ep>
    34ae:	a2 1b       	sub	r26, r18
    34b0:	b3 0b       	sbc	r27, r19
    34b2:	e4 0b       	sbc	r30, r20
    34b4:	f5 0b       	sbc	r31, r21

000034b6 <__udivmodsi4_ep>:
    34b6:	66 1f       	adc	r22, r22
    34b8:	77 1f       	adc	r23, r23
    34ba:	88 1f       	adc	r24, r24
    34bc:	99 1f       	adc	r25, r25
    34be:	1a 94       	dec	r1
    34c0:	69 f7       	brne	.-38     	; 0x349c <__udivmodsi4_loop>
    34c2:	60 95       	com	r22
    34c4:	70 95       	com	r23
    34c6:	80 95       	com	r24
    34c8:	90 95       	com	r25
    34ca:	9b 01       	movw	r18, r22
    34cc:	ac 01       	movw	r20, r24
    34ce:	bd 01       	movw	r22, r26
    34d0:	cf 01       	movw	r24, r30
    34d2:	08 95       	ret

000034d4 <__divmodsi4>:
    34d4:	05 2e       	mov	r0, r21
    34d6:	97 fb       	bst	r25, 7
    34d8:	16 f4       	brtc	.+4      	; 0x34de <__divmodsi4+0xa>
    34da:	00 94       	com	r0
    34dc:	0f d0       	rcall	.+30     	; 0x34fc <__negsi2>
    34de:	57 fd       	sbrc	r21, 7
    34e0:	05 d0       	rcall	.+10     	; 0x34ec <__divmodsi4_neg2>
    34e2:	d6 df       	rcall	.-84     	; 0x3490 <__udivmodsi4>
    34e4:	07 fc       	sbrc	r0, 7
    34e6:	02 d0       	rcall	.+4      	; 0x34ec <__divmodsi4_neg2>
    34e8:	46 f4       	brtc	.+16     	; 0x34fa <__divmodsi4_exit>
    34ea:	08 c0       	rjmp	.+16     	; 0x34fc <__negsi2>

000034ec <__divmodsi4_neg2>:
    34ec:	50 95       	com	r21
    34ee:	40 95       	com	r20
    34f0:	30 95       	com	r19
    34f2:	21 95       	neg	r18
    34f4:	3f 4f       	sbci	r19, 0xFF	; 255
    34f6:	4f 4f       	sbci	r20, 0xFF	; 255
    34f8:	5f 4f       	sbci	r21, 0xFF	; 255

000034fa <__divmodsi4_exit>:
    34fa:	08 95       	ret

000034fc <__negsi2>:
    34fc:	90 95       	com	r25
    34fe:	80 95       	com	r24
    3500:	70 95       	com	r23
    3502:	61 95       	neg	r22
    3504:	7f 4f       	sbci	r23, 0xFF	; 255
    3506:	8f 4f       	sbci	r24, 0xFF	; 255
    3508:	9f 4f       	sbci	r25, 0xFF	; 255
    350a:	08 95       	ret

0000350c <__muluhisi3>:
    350c:	0f d0       	rcall	.+30     	; 0x352c <__umulhisi3>
    350e:	a5 9f       	mul	r26, r21
    3510:	90 0d       	add	r25, r0
    3512:	b4 9f       	mul	r27, r20
    3514:	90 0d       	add	r25, r0
    3516:	a4 9f       	mul	r26, r20
    3518:	80 0d       	add	r24, r0
    351a:	91 1d       	adc	r25, r1
    351c:	11 24       	eor	r1, r1
    351e:	08 95       	ret

00003520 <__mulshisi3>:
    3520:	b7 ff       	sbrs	r27, 7
    3522:	f4 cf       	rjmp	.-24     	; 0x350c <__muluhisi3>

00003524 <__mulohisi3>:
    3524:	f3 df       	rcall	.-26     	; 0x350c <__muluhisi3>
    3526:	82 1b       	sub	r24, r18
    3528:	93 0b       	sbc	r25, r19
    352a:	08 95       	ret

0000352c <__umulhisi3>:
    352c:	a2 9f       	mul	r26, r18
    352e:	b0 01       	movw	r22, r0
    3530:	b3 9f       	mul	r27, r19
    3532:	c0 01       	movw	r24, r0
    3534:	a3 9f       	mul	r26, r19
    3536:	70 0d       	add	r23, r0
    3538:	81 1d       	adc	r24, r1
    353a:	11 24       	eor	r1, r1
    353c:	91 1d       	adc	r25, r1
    353e:	b2 9f       	mul	r27, r18
    3540:	70 0d       	add	r23, r0
    3542:	81 1d       	adc	r24, r1
    3544:	11 24       	eor	r1, r1
    3546:	91 1d       	adc	r25, r1
    3548:	08 95       	ret

0000354a <fdevopen>:
    354a:	0f 93       	push	r16
    354c:	1f 93       	push	r17
    354e:	cf 93       	push	r28
    3550:	df 93       	push	r29
    3552:	00 97       	sbiw	r24, 0x00	; 0
    3554:	31 f4       	brne	.+12     	; 0x3562 <fdevopen+0x18>
    3556:	61 15       	cp	r22, r1
    3558:	71 05       	cpc	r23, r1
    355a:	19 f4       	brne	.+6      	; 0x3562 <fdevopen+0x18>
    355c:	80 e0       	ldi	r24, 0x00	; 0
    355e:	90 e0       	ldi	r25, 0x00	; 0
    3560:	39 c0       	rjmp	.+114    	; 0x35d4 <fdevopen+0x8a>
    3562:	8b 01       	movw	r16, r22
    3564:	ec 01       	movw	r28, r24
    3566:	6e e0       	ldi	r22, 0x0E	; 14
    3568:	70 e0       	ldi	r23, 0x00	; 0
    356a:	81 e0       	ldi	r24, 0x01	; 1
    356c:	90 e0       	ldi	r25, 0x00	; 0
    356e:	47 d5       	rcall	.+2702   	; 0x3ffe <calloc>
    3570:	fc 01       	movw	r30, r24
    3572:	89 2b       	or	r24, r25
    3574:	99 f3       	breq	.-26     	; 0x355c <fdevopen+0x12>
    3576:	80 e8       	ldi	r24, 0x80	; 128
    3578:	83 83       	std	Z+3, r24	; 0x03
    357a:	01 15       	cp	r16, r1
    357c:	11 05       	cpc	r17, r1
    357e:	71 f0       	breq	.+28     	; 0x359c <fdevopen+0x52>
    3580:	02 87       	std	Z+10, r16	; 0x0a
    3582:	13 87       	std	Z+11, r17	; 0x0b
    3584:	81 e8       	ldi	r24, 0x81	; 129
    3586:	83 83       	std	Z+3, r24	; 0x03
    3588:	80 91 72 21 	lds	r24, 0x2172	; 0x802172 <__iob>
    358c:	90 91 73 21 	lds	r25, 0x2173	; 0x802173 <__iob+0x1>
    3590:	89 2b       	or	r24, r25
    3592:	21 f4       	brne	.+8      	; 0x359c <fdevopen+0x52>
    3594:	e0 93 72 21 	sts	0x2172, r30	; 0x802172 <__iob>
    3598:	f0 93 73 21 	sts	0x2173, r31	; 0x802173 <__iob+0x1>
    359c:	20 97       	sbiw	r28, 0x00	; 0
    359e:	c9 f0       	breq	.+50     	; 0x35d2 <fdevopen+0x88>
    35a0:	c0 87       	std	Z+8, r28	; 0x08
    35a2:	d1 87       	std	Z+9, r29	; 0x09
    35a4:	83 81       	ldd	r24, Z+3	; 0x03
    35a6:	82 60       	ori	r24, 0x02	; 2
    35a8:	83 83       	std	Z+3, r24	; 0x03
    35aa:	80 91 74 21 	lds	r24, 0x2174	; 0x802174 <__iob+0x2>
    35ae:	90 91 75 21 	lds	r25, 0x2175	; 0x802175 <__iob+0x3>
    35b2:	89 2b       	or	r24, r25
    35b4:	71 f4       	brne	.+28     	; 0x35d2 <fdevopen+0x88>
    35b6:	e0 93 74 21 	sts	0x2174, r30	; 0x802174 <__iob+0x2>
    35ba:	f0 93 75 21 	sts	0x2175, r31	; 0x802175 <__iob+0x3>
    35be:	80 91 76 21 	lds	r24, 0x2176	; 0x802176 <__iob+0x4>
    35c2:	90 91 77 21 	lds	r25, 0x2177	; 0x802177 <__iob+0x5>
    35c6:	89 2b       	or	r24, r25
    35c8:	21 f4       	brne	.+8      	; 0x35d2 <fdevopen+0x88>
    35ca:	e0 93 76 21 	sts	0x2176, r30	; 0x802176 <__iob+0x4>
    35ce:	f0 93 77 21 	sts	0x2177, r31	; 0x802177 <__iob+0x5>
    35d2:	cf 01       	movw	r24, r30
    35d4:	df 91       	pop	r29
    35d6:	cf 91       	pop	r28
    35d8:	1f 91       	pop	r17
    35da:	0f 91       	pop	r16
    35dc:	08 95       	ret

000035de <printf>:
    35de:	cf 93       	push	r28
    35e0:	df 93       	push	r29
    35e2:	cd b7       	in	r28, 0x3d	; 61
    35e4:	de b7       	in	r29, 0x3e	; 62
    35e6:	ae 01       	movw	r20, r28
    35e8:	4a 5f       	subi	r20, 0xFA	; 250
    35ea:	5f 4f       	sbci	r21, 0xFF	; 255
    35ec:	fa 01       	movw	r30, r20
    35ee:	61 91       	ld	r22, Z+
    35f0:	71 91       	ld	r23, Z+
    35f2:	af 01       	movw	r20, r30
    35f4:	80 91 74 21 	lds	r24, 0x2174	; 0x802174 <__iob+0x2>
    35f8:	90 91 75 21 	lds	r25, 0x2175	; 0x802175 <__iob+0x3>
    35fc:	46 d0       	rcall	.+140    	; 0x368a <vfprintf>
    35fe:	df 91       	pop	r29
    3600:	cf 91       	pop	r28
    3602:	08 95       	ret

00003604 <sprintf>:
    3604:	0f 93       	push	r16
    3606:	1f 93       	push	r17
    3608:	cf 93       	push	r28
    360a:	df 93       	push	r29
    360c:	cd b7       	in	r28, 0x3d	; 61
    360e:	de b7       	in	r29, 0x3e	; 62
    3610:	2e 97       	sbiw	r28, 0x0e	; 14
    3612:	cd bf       	out	0x3d, r28	; 61
    3614:	de bf       	out	0x3e, r29	; 62
    3616:	0e 89       	ldd	r16, Y+22	; 0x16
    3618:	1f 89       	ldd	r17, Y+23	; 0x17
    361a:	86 e0       	ldi	r24, 0x06	; 6
    361c:	8c 83       	std	Y+4, r24	; 0x04
    361e:	09 83       	std	Y+1, r16	; 0x01
    3620:	1a 83       	std	Y+2, r17	; 0x02
    3622:	8f ef       	ldi	r24, 0xFF	; 255
    3624:	9f e7       	ldi	r25, 0x7F	; 127
    3626:	8d 83       	std	Y+5, r24	; 0x05
    3628:	9e 83       	std	Y+6, r25	; 0x06
    362a:	ae 01       	movw	r20, r28
    362c:	46 5e       	subi	r20, 0xE6	; 230
    362e:	5f 4f       	sbci	r21, 0xFF	; 255
    3630:	68 8d       	ldd	r22, Y+24	; 0x18
    3632:	79 8d       	ldd	r23, Y+25	; 0x19
    3634:	ce 01       	movw	r24, r28
    3636:	01 96       	adiw	r24, 0x01	; 1
    3638:	28 d0       	rcall	.+80     	; 0x368a <vfprintf>
    363a:	ef 81       	ldd	r30, Y+7	; 0x07
    363c:	f8 85       	ldd	r31, Y+8	; 0x08
    363e:	e0 0f       	add	r30, r16
    3640:	f1 1f       	adc	r31, r17
    3642:	10 82       	st	Z, r1
    3644:	2e 96       	adiw	r28, 0x0e	; 14
    3646:	cd bf       	out	0x3d, r28	; 61
    3648:	de bf       	out	0x3e, r29	; 62
    364a:	df 91       	pop	r29
    364c:	cf 91       	pop	r28
    364e:	1f 91       	pop	r17
    3650:	0f 91       	pop	r16
    3652:	08 95       	ret

00003654 <sscanf>:
    3654:	cf 93       	push	r28
    3656:	df 93       	push	r29
    3658:	cd b7       	in	r28, 0x3d	; 61
    365a:	de b7       	in	r29, 0x3e	; 62
    365c:	2e 97       	sbiw	r28, 0x0e	; 14
    365e:	cd bf       	out	0x3d, r28	; 61
    3660:	de bf       	out	0x3e, r29	; 62
    3662:	85 e0       	ldi	r24, 0x05	; 5
    3664:	8c 83       	std	Y+4, r24	; 0x04
    3666:	8c 89       	ldd	r24, Y+20	; 0x14
    3668:	9d 89       	ldd	r25, Y+21	; 0x15
    366a:	89 83       	std	Y+1, r24	; 0x01
    366c:	9a 83       	std	Y+2, r25	; 0x02
    366e:	ae 01       	movw	r20, r28
    3670:	48 5e       	subi	r20, 0xE8	; 232
    3672:	5f 4f       	sbci	r21, 0xFF	; 255
    3674:	6e 89       	ldd	r22, Y+22	; 0x16
    3676:	7f 89       	ldd	r23, Y+23	; 0x17
    3678:	ce 01       	movw	r24, r28
    367a:	01 96       	adiw	r24, 0x01	; 1
    367c:	a9 d3       	rcall	.+1874   	; 0x3dd0 <vfscanf>
    367e:	2e 96       	adiw	r28, 0x0e	; 14
    3680:	cd bf       	out	0x3d, r28	; 61
    3682:	de bf       	out	0x3e, r29	; 62
    3684:	df 91       	pop	r29
    3686:	cf 91       	pop	r28
    3688:	08 95       	ret

0000368a <vfprintf>:
    368a:	2f 92       	push	r2
    368c:	3f 92       	push	r3
    368e:	4f 92       	push	r4
    3690:	5f 92       	push	r5
    3692:	6f 92       	push	r6
    3694:	7f 92       	push	r7
    3696:	8f 92       	push	r8
    3698:	9f 92       	push	r9
    369a:	af 92       	push	r10
    369c:	bf 92       	push	r11
    369e:	cf 92       	push	r12
    36a0:	df 92       	push	r13
    36a2:	ef 92       	push	r14
    36a4:	ff 92       	push	r15
    36a6:	0f 93       	push	r16
    36a8:	1f 93       	push	r17
    36aa:	cf 93       	push	r28
    36ac:	df 93       	push	r29
    36ae:	cd b7       	in	r28, 0x3d	; 61
    36b0:	de b7       	in	r29, 0x3e	; 62
    36b2:	2b 97       	sbiw	r28, 0x0b	; 11
    36b4:	cd bf       	out	0x3d, r28	; 61
    36b6:	de bf       	out	0x3e, r29	; 62
    36b8:	6c 01       	movw	r12, r24
    36ba:	7b 01       	movw	r14, r22
    36bc:	8a 01       	movw	r16, r20
    36be:	fc 01       	movw	r30, r24
    36c0:	16 82       	std	Z+6, r1	; 0x06
    36c2:	17 82       	std	Z+7, r1	; 0x07
    36c4:	83 81       	ldd	r24, Z+3	; 0x03
    36c6:	81 ff       	sbrs	r24, 1
    36c8:	bf c1       	rjmp	.+894    	; 0x3a48 <vfprintf+0x3be>
    36ca:	ce 01       	movw	r24, r28
    36cc:	01 96       	adiw	r24, 0x01	; 1
    36ce:	3c 01       	movw	r6, r24
    36d0:	f6 01       	movw	r30, r12
    36d2:	93 81       	ldd	r25, Z+3	; 0x03
    36d4:	f7 01       	movw	r30, r14
    36d6:	93 fd       	sbrc	r25, 3
    36d8:	85 91       	lpm	r24, Z+
    36da:	93 ff       	sbrs	r25, 3
    36dc:	81 91       	ld	r24, Z+
    36de:	7f 01       	movw	r14, r30
    36e0:	88 23       	and	r24, r24
    36e2:	09 f4       	brne	.+2      	; 0x36e6 <vfprintf+0x5c>
    36e4:	ad c1       	rjmp	.+858    	; 0x3a40 <vfprintf+0x3b6>
    36e6:	85 32       	cpi	r24, 0x25	; 37
    36e8:	39 f4       	brne	.+14     	; 0x36f8 <vfprintf+0x6e>
    36ea:	93 fd       	sbrc	r25, 3
    36ec:	85 91       	lpm	r24, Z+
    36ee:	93 ff       	sbrs	r25, 3
    36f0:	81 91       	ld	r24, Z+
    36f2:	7f 01       	movw	r14, r30
    36f4:	85 32       	cpi	r24, 0x25	; 37
    36f6:	21 f4       	brne	.+8      	; 0x3700 <vfprintf+0x76>
    36f8:	b6 01       	movw	r22, r12
    36fa:	90 e0       	ldi	r25, 0x00	; 0
    36fc:	29 d6       	rcall	.+3154   	; 0x4350 <fputc>
    36fe:	e8 cf       	rjmp	.-48     	; 0x36d0 <vfprintf+0x46>
    3700:	91 2c       	mov	r9, r1
    3702:	21 2c       	mov	r2, r1
    3704:	31 2c       	mov	r3, r1
    3706:	ff e1       	ldi	r31, 0x1F	; 31
    3708:	f3 15       	cp	r31, r3
    370a:	d8 f0       	brcs	.+54     	; 0x3742 <vfprintf+0xb8>
    370c:	8b 32       	cpi	r24, 0x2B	; 43
    370e:	79 f0       	breq	.+30     	; 0x372e <vfprintf+0xa4>
    3710:	38 f4       	brcc	.+14     	; 0x3720 <vfprintf+0x96>
    3712:	80 32       	cpi	r24, 0x20	; 32
    3714:	79 f0       	breq	.+30     	; 0x3734 <vfprintf+0xaa>
    3716:	83 32       	cpi	r24, 0x23	; 35
    3718:	a1 f4       	brne	.+40     	; 0x3742 <vfprintf+0xb8>
    371a:	23 2d       	mov	r18, r3
    371c:	20 61       	ori	r18, 0x10	; 16
    371e:	1d c0       	rjmp	.+58     	; 0x375a <vfprintf+0xd0>
    3720:	8d 32       	cpi	r24, 0x2D	; 45
    3722:	61 f0       	breq	.+24     	; 0x373c <vfprintf+0xb2>
    3724:	80 33       	cpi	r24, 0x30	; 48
    3726:	69 f4       	brne	.+26     	; 0x3742 <vfprintf+0xb8>
    3728:	23 2d       	mov	r18, r3
    372a:	21 60       	ori	r18, 0x01	; 1
    372c:	16 c0       	rjmp	.+44     	; 0x375a <vfprintf+0xd0>
    372e:	83 2d       	mov	r24, r3
    3730:	82 60       	ori	r24, 0x02	; 2
    3732:	38 2e       	mov	r3, r24
    3734:	e3 2d       	mov	r30, r3
    3736:	e4 60       	ori	r30, 0x04	; 4
    3738:	3e 2e       	mov	r3, r30
    373a:	2a c0       	rjmp	.+84     	; 0x3790 <vfprintf+0x106>
    373c:	f3 2d       	mov	r31, r3
    373e:	f8 60       	ori	r31, 0x08	; 8
    3740:	1d c0       	rjmp	.+58     	; 0x377c <vfprintf+0xf2>
    3742:	37 fc       	sbrc	r3, 7
    3744:	2d c0       	rjmp	.+90     	; 0x37a0 <vfprintf+0x116>
    3746:	20 ed       	ldi	r18, 0xD0	; 208
    3748:	28 0f       	add	r18, r24
    374a:	2a 30       	cpi	r18, 0x0A	; 10
    374c:	40 f0       	brcs	.+16     	; 0x375e <vfprintf+0xd4>
    374e:	8e 32       	cpi	r24, 0x2E	; 46
    3750:	b9 f4       	brne	.+46     	; 0x3780 <vfprintf+0xf6>
    3752:	36 fc       	sbrc	r3, 6
    3754:	75 c1       	rjmp	.+746    	; 0x3a40 <vfprintf+0x3b6>
    3756:	23 2d       	mov	r18, r3
    3758:	20 64       	ori	r18, 0x40	; 64
    375a:	32 2e       	mov	r3, r18
    375c:	19 c0       	rjmp	.+50     	; 0x3790 <vfprintf+0x106>
    375e:	36 fe       	sbrs	r3, 6
    3760:	06 c0       	rjmp	.+12     	; 0x376e <vfprintf+0xe4>
    3762:	8a e0       	ldi	r24, 0x0A	; 10
    3764:	98 9e       	mul	r9, r24
    3766:	20 0d       	add	r18, r0
    3768:	11 24       	eor	r1, r1
    376a:	92 2e       	mov	r9, r18
    376c:	11 c0       	rjmp	.+34     	; 0x3790 <vfprintf+0x106>
    376e:	ea e0       	ldi	r30, 0x0A	; 10
    3770:	2e 9e       	mul	r2, r30
    3772:	20 0d       	add	r18, r0
    3774:	11 24       	eor	r1, r1
    3776:	22 2e       	mov	r2, r18
    3778:	f3 2d       	mov	r31, r3
    377a:	f0 62       	ori	r31, 0x20	; 32
    377c:	3f 2e       	mov	r3, r31
    377e:	08 c0       	rjmp	.+16     	; 0x3790 <vfprintf+0x106>
    3780:	8c 36       	cpi	r24, 0x6C	; 108
    3782:	21 f4       	brne	.+8      	; 0x378c <vfprintf+0x102>
    3784:	83 2d       	mov	r24, r3
    3786:	80 68       	ori	r24, 0x80	; 128
    3788:	38 2e       	mov	r3, r24
    378a:	02 c0       	rjmp	.+4      	; 0x3790 <vfprintf+0x106>
    378c:	88 36       	cpi	r24, 0x68	; 104
    378e:	41 f4       	brne	.+16     	; 0x37a0 <vfprintf+0x116>
    3790:	f7 01       	movw	r30, r14
    3792:	93 fd       	sbrc	r25, 3
    3794:	85 91       	lpm	r24, Z+
    3796:	93 ff       	sbrs	r25, 3
    3798:	81 91       	ld	r24, Z+
    379a:	7f 01       	movw	r14, r30
    379c:	81 11       	cpse	r24, r1
    379e:	b3 cf       	rjmp	.-154    	; 0x3706 <vfprintf+0x7c>
    37a0:	98 2f       	mov	r25, r24
    37a2:	9f 7d       	andi	r25, 0xDF	; 223
    37a4:	95 54       	subi	r25, 0x45	; 69
    37a6:	93 30       	cpi	r25, 0x03	; 3
    37a8:	28 f4       	brcc	.+10     	; 0x37b4 <vfprintf+0x12a>
    37aa:	0c 5f       	subi	r16, 0xFC	; 252
    37ac:	1f 4f       	sbci	r17, 0xFF	; 255
    37ae:	9f e3       	ldi	r25, 0x3F	; 63
    37b0:	99 83       	std	Y+1, r25	; 0x01
    37b2:	0d c0       	rjmp	.+26     	; 0x37ce <vfprintf+0x144>
    37b4:	83 36       	cpi	r24, 0x63	; 99
    37b6:	31 f0       	breq	.+12     	; 0x37c4 <vfprintf+0x13a>
    37b8:	83 37       	cpi	r24, 0x73	; 115
    37ba:	71 f0       	breq	.+28     	; 0x37d8 <vfprintf+0x14e>
    37bc:	83 35       	cpi	r24, 0x53	; 83
    37be:	09 f0       	breq	.+2      	; 0x37c2 <vfprintf+0x138>
    37c0:	55 c0       	rjmp	.+170    	; 0x386c <vfprintf+0x1e2>
    37c2:	20 c0       	rjmp	.+64     	; 0x3804 <vfprintf+0x17a>
    37c4:	f8 01       	movw	r30, r16
    37c6:	80 81       	ld	r24, Z
    37c8:	89 83       	std	Y+1, r24	; 0x01
    37ca:	0e 5f       	subi	r16, 0xFE	; 254
    37cc:	1f 4f       	sbci	r17, 0xFF	; 255
    37ce:	88 24       	eor	r8, r8
    37d0:	83 94       	inc	r8
    37d2:	91 2c       	mov	r9, r1
    37d4:	53 01       	movw	r10, r6
    37d6:	12 c0       	rjmp	.+36     	; 0x37fc <vfprintf+0x172>
    37d8:	28 01       	movw	r4, r16
    37da:	f2 e0       	ldi	r31, 0x02	; 2
    37dc:	4f 0e       	add	r4, r31
    37de:	51 1c       	adc	r5, r1
    37e0:	f8 01       	movw	r30, r16
    37e2:	a0 80       	ld	r10, Z
    37e4:	b1 80       	ldd	r11, Z+1	; 0x01
    37e6:	36 fe       	sbrs	r3, 6
    37e8:	03 c0       	rjmp	.+6      	; 0x37f0 <vfprintf+0x166>
    37ea:	69 2d       	mov	r22, r9
    37ec:	70 e0       	ldi	r23, 0x00	; 0
    37ee:	02 c0       	rjmp	.+4      	; 0x37f4 <vfprintf+0x16a>
    37f0:	6f ef       	ldi	r22, 0xFF	; 255
    37f2:	7f ef       	ldi	r23, 0xFF	; 255
    37f4:	c5 01       	movw	r24, r10
    37f6:	63 d5       	rcall	.+2758   	; 0x42be <strnlen>
    37f8:	4c 01       	movw	r8, r24
    37fa:	82 01       	movw	r16, r4
    37fc:	f3 2d       	mov	r31, r3
    37fe:	ff 77       	andi	r31, 0x7F	; 127
    3800:	3f 2e       	mov	r3, r31
    3802:	15 c0       	rjmp	.+42     	; 0x382e <vfprintf+0x1a4>
    3804:	28 01       	movw	r4, r16
    3806:	22 e0       	ldi	r18, 0x02	; 2
    3808:	42 0e       	add	r4, r18
    380a:	51 1c       	adc	r5, r1
    380c:	f8 01       	movw	r30, r16
    380e:	a0 80       	ld	r10, Z
    3810:	b1 80       	ldd	r11, Z+1	; 0x01
    3812:	36 fe       	sbrs	r3, 6
    3814:	03 c0       	rjmp	.+6      	; 0x381c <vfprintf+0x192>
    3816:	69 2d       	mov	r22, r9
    3818:	70 e0       	ldi	r23, 0x00	; 0
    381a:	02 c0       	rjmp	.+4      	; 0x3820 <vfprintf+0x196>
    381c:	6f ef       	ldi	r22, 0xFF	; 255
    381e:	7f ef       	ldi	r23, 0xFF	; 255
    3820:	c5 01       	movw	r24, r10
    3822:	3b d5       	rcall	.+2678   	; 0x429a <strnlen_P>
    3824:	4c 01       	movw	r8, r24
    3826:	f3 2d       	mov	r31, r3
    3828:	f0 68       	ori	r31, 0x80	; 128
    382a:	3f 2e       	mov	r3, r31
    382c:	82 01       	movw	r16, r4
    382e:	33 fc       	sbrc	r3, 3
    3830:	19 c0       	rjmp	.+50     	; 0x3864 <vfprintf+0x1da>
    3832:	82 2d       	mov	r24, r2
    3834:	90 e0       	ldi	r25, 0x00	; 0
    3836:	88 16       	cp	r8, r24
    3838:	99 06       	cpc	r9, r25
    383a:	a0 f4       	brcc	.+40     	; 0x3864 <vfprintf+0x1da>
    383c:	b6 01       	movw	r22, r12
    383e:	80 e2       	ldi	r24, 0x20	; 32
    3840:	90 e0       	ldi	r25, 0x00	; 0
    3842:	86 d5       	rcall	.+2828   	; 0x4350 <fputc>
    3844:	2a 94       	dec	r2
    3846:	f5 cf       	rjmp	.-22     	; 0x3832 <vfprintf+0x1a8>
    3848:	f5 01       	movw	r30, r10
    384a:	37 fc       	sbrc	r3, 7
    384c:	85 91       	lpm	r24, Z+
    384e:	37 fe       	sbrs	r3, 7
    3850:	81 91       	ld	r24, Z+
    3852:	5f 01       	movw	r10, r30
    3854:	b6 01       	movw	r22, r12
    3856:	90 e0       	ldi	r25, 0x00	; 0
    3858:	7b d5       	rcall	.+2806   	; 0x4350 <fputc>
    385a:	21 10       	cpse	r2, r1
    385c:	2a 94       	dec	r2
    385e:	21 e0       	ldi	r18, 0x01	; 1
    3860:	82 1a       	sub	r8, r18
    3862:	91 08       	sbc	r9, r1
    3864:	81 14       	cp	r8, r1
    3866:	91 04       	cpc	r9, r1
    3868:	79 f7       	brne	.-34     	; 0x3848 <vfprintf+0x1be>
    386a:	e1 c0       	rjmp	.+450    	; 0x3a2e <vfprintf+0x3a4>
    386c:	84 36       	cpi	r24, 0x64	; 100
    386e:	11 f0       	breq	.+4      	; 0x3874 <vfprintf+0x1ea>
    3870:	89 36       	cpi	r24, 0x69	; 105
    3872:	39 f5       	brne	.+78     	; 0x38c2 <vfprintf+0x238>
    3874:	f8 01       	movw	r30, r16
    3876:	37 fe       	sbrs	r3, 7
    3878:	07 c0       	rjmp	.+14     	; 0x3888 <vfprintf+0x1fe>
    387a:	60 81       	ld	r22, Z
    387c:	71 81       	ldd	r23, Z+1	; 0x01
    387e:	82 81       	ldd	r24, Z+2	; 0x02
    3880:	93 81       	ldd	r25, Z+3	; 0x03
    3882:	0c 5f       	subi	r16, 0xFC	; 252
    3884:	1f 4f       	sbci	r17, 0xFF	; 255
    3886:	08 c0       	rjmp	.+16     	; 0x3898 <vfprintf+0x20e>
    3888:	60 81       	ld	r22, Z
    388a:	71 81       	ldd	r23, Z+1	; 0x01
    388c:	07 2e       	mov	r0, r23
    388e:	00 0c       	add	r0, r0
    3890:	88 0b       	sbc	r24, r24
    3892:	99 0b       	sbc	r25, r25
    3894:	0e 5f       	subi	r16, 0xFE	; 254
    3896:	1f 4f       	sbci	r17, 0xFF	; 255
    3898:	f3 2d       	mov	r31, r3
    389a:	ff 76       	andi	r31, 0x6F	; 111
    389c:	3f 2e       	mov	r3, r31
    389e:	97 ff       	sbrs	r25, 7
    38a0:	09 c0       	rjmp	.+18     	; 0x38b4 <vfprintf+0x22a>
    38a2:	90 95       	com	r25
    38a4:	80 95       	com	r24
    38a6:	70 95       	com	r23
    38a8:	61 95       	neg	r22
    38aa:	7f 4f       	sbci	r23, 0xFF	; 255
    38ac:	8f 4f       	sbci	r24, 0xFF	; 255
    38ae:	9f 4f       	sbci	r25, 0xFF	; 255
    38b0:	f0 68       	ori	r31, 0x80	; 128
    38b2:	3f 2e       	mov	r3, r31
    38b4:	2a e0       	ldi	r18, 0x0A	; 10
    38b6:	30 e0       	ldi	r19, 0x00	; 0
    38b8:	a3 01       	movw	r20, r6
    38ba:	9f d5       	rcall	.+2878   	; 0x43fa <__ultoa_invert>
    38bc:	88 2e       	mov	r8, r24
    38be:	86 18       	sub	r8, r6
    38c0:	44 c0       	rjmp	.+136    	; 0x394a <vfprintf+0x2c0>
    38c2:	85 37       	cpi	r24, 0x75	; 117
    38c4:	31 f4       	brne	.+12     	; 0x38d2 <vfprintf+0x248>
    38c6:	23 2d       	mov	r18, r3
    38c8:	2f 7e       	andi	r18, 0xEF	; 239
    38ca:	b2 2e       	mov	r11, r18
    38cc:	2a e0       	ldi	r18, 0x0A	; 10
    38ce:	30 e0       	ldi	r19, 0x00	; 0
    38d0:	25 c0       	rjmp	.+74     	; 0x391c <vfprintf+0x292>
    38d2:	93 2d       	mov	r25, r3
    38d4:	99 7f       	andi	r25, 0xF9	; 249
    38d6:	b9 2e       	mov	r11, r25
    38d8:	8f 36       	cpi	r24, 0x6F	; 111
    38da:	c1 f0       	breq	.+48     	; 0x390c <vfprintf+0x282>
    38dc:	18 f4       	brcc	.+6      	; 0x38e4 <vfprintf+0x25a>
    38de:	88 35       	cpi	r24, 0x58	; 88
    38e0:	79 f0       	breq	.+30     	; 0x3900 <vfprintf+0x276>
    38e2:	ae c0       	rjmp	.+348    	; 0x3a40 <vfprintf+0x3b6>
    38e4:	80 37       	cpi	r24, 0x70	; 112
    38e6:	19 f0       	breq	.+6      	; 0x38ee <vfprintf+0x264>
    38e8:	88 37       	cpi	r24, 0x78	; 120
    38ea:	21 f0       	breq	.+8      	; 0x38f4 <vfprintf+0x26a>
    38ec:	a9 c0       	rjmp	.+338    	; 0x3a40 <vfprintf+0x3b6>
    38ee:	e9 2f       	mov	r30, r25
    38f0:	e0 61       	ori	r30, 0x10	; 16
    38f2:	be 2e       	mov	r11, r30
    38f4:	b4 fe       	sbrs	r11, 4
    38f6:	0d c0       	rjmp	.+26     	; 0x3912 <vfprintf+0x288>
    38f8:	fb 2d       	mov	r31, r11
    38fa:	f4 60       	ori	r31, 0x04	; 4
    38fc:	bf 2e       	mov	r11, r31
    38fe:	09 c0       	rjmp	.+18     	; 0x3912 <vfprintf+0x288>
    3900:	34 fe       	sbrs	r3, 4
    3902:	0a c0       	rjmp	.+20     	; 0x3918 <vfprintf+0x28e>
    3904:	29 2f       	mov	r18, r25
    3906:	26 60       	ori	r18, 0x06	; 6
    3908:	b2 2e       	mov	r11, r18
    390a:	06 c0       	rjmp	.+12     	; 0x3918 <vfprintf+0x28e>
    390c:	28 e0       	ldi	r18, 0x08	; 8
    390e:	30 e0       	ldi	r19, 0x00	; 0
    3910:	05 c0       	rjmp	.+10     	; 0x391c <vfprintf+0x292>
    3912:	20 e1       	ldi	r18, 0x10	; 16
    3914:	30 e0       	ldi	r19, 0x00	; 0
    3916:	02 c0       	rjmp	.+4      	; 0x391c <vfprintf+0x292>
    3918:	20 e1       	ldi	r18, 0x10	; 16
    391a:	32 e0       	ldi	r19, 0x02	; 2
    391c:	f8 01       	movw	r30, r16
    391e:	b7 fe       	sbrs	r11, 7
    3920:	07 c0       	rjmp	.+14     	; 0x3930 <vfprintf+0x2a6>
    3922:	60 81       	ld	r22, Z
    3924:	71 81       	ldd	r23, Z+1	; 0x01
    3926:	82 81       	ldd	r24, Z+2	; 0x02
    3928:	93 81       	ldd	r25, Z+3	; 0x03
    392a:	0c 5f       	subi	r16, 0xFC	; 252
    392c:	1f 4f       	sbci	r17, 0xFF	; 255
    392e:	06 c0       	rjmp	.+12     	; 0x393c <vfprintf+0x2b2>
    3930:	60 81       	ld	r22, Z
    3932:	71 81       	ldd	r23, Z+1	; 0x01
    3934:	80 e0       	ldi	r24, 0x00	; 0
    3936:	90 e0       	ldi	r25, 0x00	; 0
    3938:	0e 5f       	subi	r16, 0xFE	; 254
    393a:	1f 4f       	sbci	r17, 0xFF	; 255
    393c:	a3 01       	movw	r20, r6
    393e:	5d d5       	rcall	.+2746   	; 0x43fa <__ultoa_invert>
    3940:	88 2e       	mov	r8, r24
    3942:	86 18       	sub	r8, r6
    3944:	fb 2d       	mov	r31, r11
    3946:	ff 77       	andi	r31, 0x7F	; 127
    3948:	3f 2e       	mov	r3, r31
    394a:	36 fe       	sbrs	r3, 6
    394c:	0d c0       	rjmp	.+26     	; 0x3968 <vfprintf+0x2de>
    394e:	23 2d       	mov	r18, r3
    3950:	2e 7f       	andi	r18, 0xFE	; 254
    3952:	a2 2e       	mov	r10, r18
    3954:	89 14       	cp	r8, r9
    3956:	58 f4       	brcc	.+22     	; 0x396e <vfprintf+0x2e4>
    3958:	34 fe       	sbrs	r3, 4
    395a:	0b c0       	rjmp	.+22     	; 0x3972 <vfprintf+0x2e8>
    395c:	32 fc       	sbrc	r3, 2
    395e:	09 c0       	rjmp	.+18     	; 0x3972 <vfprintf+0x2e8>
    3960:	83 2d       	mov	r24, r3
    3962:	8e 7e       	andi	r24, 0xEE	; 238
    3964:	a8 2e       	mov	r10, r24
    3966:	05 c0       	rjmp	.+10     	; 0x3972 <vfprintf+0x2e8>
    3968:	b8 2c       	mov	r11, r8
    396a:	a3 2c       	mov	r10, r3
    396c:	03 c0       	rjmp	.+6      	; 0x3974 <vfprintf+0x2ea>
    396e:	b8 2c       	mov	r11, r8
    3970:	01 c0       	rjmp	.+2      	; 0x3974 <vfprintf+0x2ea>
    3972:	b9 2c       	mov	r11, r9
    3974:	a4 fe       	sbrs	r10, 4
    3976:	0f c0       	rjmp	.+30     	; 0x3996 <vfprintf+0x30c>
    3978:	fe 01       	movw	r30, r28
    397a:	e8 0d       	add	r30, r8
    397c:	f1 1d       	adc	r31, r1
    397e:	80 81       	ld	r24, Z
    3980:	80 33       	cpi	r24, 0x30	; 48
    3982:	21 f4       	brne	.+8      	; 0x398c <vfprintf+0x302>
    3984:	9a 2d       	mov	r25, r10
    3986:	99 7e       	andi	r25, 0xE9	; 233
    3988:	a9 2e       	mov	r10, r25
    398a:	09 c0       	rjmp	.+18     	; 0x399e <vfprintf+0x314>
    398c:	a2 fe       	sbrs	r10, 2
    398e:	06 c0       	rjmp	.+12     	; 0x399c <vfprintf+0x312>
    3990:	b3 94       	inc	r11
    3992:	b3 94       	inc	r11
    3994:	04 c0       	rjmp	.+8      	; 0x399e <vfprintf+0x314>
    3996:	8a 2d       	mov	r24, r10
    3998:	86 78       	andi	r24, 0x86	; 134
    399a:	09 f0       	breq	.+2      	; 0x399e <vfprintf+0x314>
    399c:	b3 94       	inc	r11
    399e:	a3 fc       	sbrc	r10, 3
    39a0:	10 c0       	rjmp	.+32     	; 0x39c2 <vfprintf+0x338>
    39a2:	a0 fe       	sbrs	r10, 0
    39a4:	06 c0       	rjmp	.+12     	; 0x39b2 <vfprintf+0x328>
    39a6:	b2 14       	cp	r11, r2
    39a8:	80 f4       	brcc	.+32     	; 0x39ca <vfprintf+0x340>
    39aa:	28 0c       	add	r2, r8
    39ac:	92 2c       	mov	r9, r2
    39ae:	9b 18       	sub	r9, r11
    39b0:	0d c0       	rjmp	.+26     	; 0x39cc <vfprintf+0x342>
    39b2:	b2 14       	cp	r11, r2
    39b4:	58 f4       	brcc	.+22     	; 0x39cc <vfprintf+0x342>
    39b6:	b6 01       	movw	r22, r12
    39b8:	80 e2       	ldi	r24, 0x20	; 32
    39ba:	90 e0       	ldi	r25, 0x00	; 0
    39bc:	c9 d4       	rcall	.+2450   	; 0x4350 <fputc>
    39be:	b3 94       	inc	r11
    39c0:	f8 cf       	rjmp	.-16     	; 0x39b2 <vfprintf+0x328>
    39c2:	b2 14       	cp	r11, r2
    39c4:	18 f4       	brcc	.+6      	; 0x39cc <vfprintf+0x342>
    39c6:	2b 18       	sub	r2, r11
    39c8:	02 c0       	rjmp	.+4      	; 0x39ce <vfprintf+0x344>
    39ca:	98 2c       	mov	r9, r8
    39cc:	21 2c       	mov	r2, r1
    39ce:	a4 fe       	sbrs	r10, 4
    39d0:	0f c0       	rjmp	.+30     	; 0x39f0 <vfprintf+0x366>
    39d2:	b6 01       	movw	r22, r12
    39d4:	80 e3       	ldi	r24, 0x30	; 48
    39d6:	90 e0       	ldi	r25, 0x00	; 0
    39d8:	bb d4       	rcall	.+2422   	; 0x4350 <fputc>
    39da:	a2 fe       	sbrs	r10, 2
    39dc:	16 c0       	rjmp	.+44     	; 0x3a0a <vfprintf+0x380>
    39de:	a1 fc       	sbrc	r10, 1
    39e0:	03 c0       	rjmp	.+6      	; 0x39e8 <vfprintf+0x35e>
    39e2:	88 e7       	ldi	r24, 0x78	; 120
    39e4:	90 e0       	ldi	r25, 0x00	; 0
    39e6:	02 c0       	rjmp	.+4      	; 0x39ec <vfprintf+0x362>
    39e8:	88 e5       	ldi	r24, 0x58	; 88
    39ea:	90 e0       	ldi	r25, 0x00	; 0
    39ec:	b6 01       	movw	r22, r12
    39ee:	0c c0       	rjmp	.+24     	; 0x3a08 <vfprintf+0x37e>
    39f0:	8a 2d       	mov	r24, r10
    39f2:	86 78       	andi	r24, 0x86	; 134
    39f4:	51 f0       	breq	.+20     	; 0x3a0a <vfprintf+0x380>
    39f6:	a1 fe       	sbrs	r10, 1
    39f8:	02 c0       	rjmp	.+4      	; 0x39fe <vfprintf+0x374>
    39fa:	8b e2       	ldi	r24, 0x2B	; 43
    39fc:	01 c0       	rjmp	.+2      	; 0x3a00 <vfprintf+0x376>
    39fe:	80 e2       	ldi	r24, 0x20	; 32
    3a00:	a7 fc       	sbrc	r10, 7
    3a02:	8d e2       	ldi	r24, 0x2D	; 45
    3a04:	b6 01       	movw	r22, r12
    3a06:	90 e0       	ldi	r25, 0x00	; 0
    3a08:	a3 d4       	rcall	.+2374   	; 0x4350 <fputc>
    3a0a:	89 14       	cp	r8, r9
    3a0c:	30 f4       	brcc	.+12     	; 0x3a1a <vfprintf+0x390>
    3a0e:	b6 01       	movw	r22, r12
    3a10:	80 e3       	ldi	r24, 0x30	; 48
    3a12:	90 e0       	ldi	r25, 0x00	; 0
    3a14:	9d d4       	rcall	.+2362   	; 0x4350 <fputc>
    3a16:	9a 94       	dec	r9
    3a18:	f8 cf       	rjmp	.-16     	; 0x3a0a <vfprintf+0x380>
    3a1a:	8a 94       	dec	r8
    3a1c:	f3 01       	movw	r30, r6
    3a1e:	e8 0d       	add	r30, r8
    3a20:	f1 1d       	adc	r31, r1
    3a22:	80 81       	ld	r24, Z
    3a24:	b6 01       	movw	r22, r12
    3a26:	90 e0       	ldi	r25, 0x00	; 0
    3a28:	93 d4       	rcall	.+2342   	; 0x4350 <fputc>
    3a2a:	81 10       	cpse	r8, r1
    3a2c:	f6 cf       	rjmp	.-20     	; 0x3a1a <vfprintf+0x390>
    3a2e:	22 20       	and	r2, r2
    3a30:	09 f4       	brne	.+2      	; 0x3a34 <vfprintf+0x3aa>
    3a32:	4e ce       	rjmp	.-868    	; 0x36d0 <vfprintf+0x46>
    3a34:	b6 01       	movw	r22, r12
    3a36:	80 e2       	ldi	r24, 0x20	; 32
    3a38:	90 e0       	ldi	r25, 0x00	; 0
    3a3a:	8a d4       	rcall	.+2324   	; 0x4350 <fputc>
    3a3c:	2a 94       	dec	r2
    3a3e:	f7 cf       	rjmp	.-18     	; 0x3a2e <vfprintf+0x3a4>
    3a40:	f6 01       	movw	r30, r12
    3a42:	86 81       	ldd	r24, Z+6	; 0x06
    3a44:	97 81       	ldd	r25, Z+7	; 0x07
    3a46:	02 c0       	rjmp	.+4      	; 0x3a4c <vfprintf+0x3c2>
    3a48:	8f ef       	ldi	r24, 0xFF	; 255
    3a4a:	9f ef       	ldi	r25, 0xFF	; 255
    3a4c:	2b 96       	adiw	r28, 0x0b	; 11
    3a4e:	cd bf       	out	0x3d, r28	; 61
    3a50:	de bf       	out	0x3e, r29	; 62
    3a52:	df 91       	pop	r29
    3a54:	cf 91       	pop	r28
    3a56:	1f 91       	pop	r17
    3a58:	0f 91       	pop	r16
    3a5a:	ff 90       	pop	r15
    3a5c:	ef 90       	pop	r14
    3a5e:	df 90       	pop	r13
    3a60:	cf 90       	pop	r12
    3a62:	bf 90       	pop	r11
    3a64:	af 90       	pop	r10
    3a66:	9f 90       	pop	r9
    3a68:	8f 90       	pop	r8
    3a6a:	7f 90       	pop	r7
    3a6c:	6f 90       	pop	r6
    3a6e:	5f 90       	pop	r5
    3a70:	4f 90       	pop	r4
    3a72:	3f 90       	pop	r3
    3a74:	2f 90       	pop	r2
    3a76:	08 95       	ret

00003a78 <putval>:
    3a78:	20 fd       	sbrc	r18, 0
    3a7a:	09 c0       	rjmp	.+18     	; 0x3a8e <putval+0x16>
    3a7c:	fc 01       	movw	r30, r24
    3a7e:	23 fd       	sbrc	r18, 3
    3a80:	05 c0       	rjmp	.+10     	; 0x3a8c <putval+0x14>
    3a82:	22 ff       	sbrs	r18, 2
    3a84:	02 c0       	rjmp	.+4      	; 0x3a8a <putval+0x12>
    3a86:	73 83       	std	Z+3, r23	; 0x03
    3a88:	62 83       	std	Z+2, r22	; 0x02
    3a8a:	51 83       	std	Z+1, r21	; 0x01
    3a8c:	40 83       	st	Z, r20
    3a8e:	08 95       	ret

00003a90 <mulacc>:
    3a90:	44 fd       	sbrc	r20, 4
    3a92:	17 c0       	rjmp	.+46     	; 0x3ac2 <mulacc+0x32>
    3a94:	46 fd       	sbrc	r20, 6
    3a96:	17 c0       	rjmp	.+46     	; 0x3ac6 <mulacc+0x36>
    3a98:	ab 01       	movw	r20, r22
    3a9a:	bc 01       	movw	r22, r24
    3a9c:	da 01       	movw	r26, r20
    3a9e:	fb 01       	movw	r30, r22
    3aa0:	aa 0f       	add	r26, r26
    3aa2:	bb 1f       	adc	r27, r27
    3aa4:	ee 1f       	adc	r30, r30
    3aa6:	ff 1f       	adc	r31, r31
    3aa8:	10 94       	com	r1
    3aaa:	d1 f7       	brne	.-12     	; 0x3aa0 <mulacc+0x10>
    3aac:	4a 0f       	add	r20, r26
    3aae:	5b 1f       	adc	r21, r27
    3ab0:	6e 1f       	adc	r22, r30
    3ab2:	7f 1f       	adc	r23, r31
    3ab4:	cb 01       	movw	r24, r22
    3ab6:	ba 01       	movw	r22, r20
    3ab8:	66 0f       	add	r22, r22
    3aba:	77 1f       	adc	r23, r23
    3abc:	88 1f       	adc	r24, r24
    3abe:	99 1f       	adc	r25, r25
    3ac0:	09 c0       	rjmp	.+18     	; 0x3ad4 <mulacc+0x44>
    3ac2:	33 e0       	ldi	r19, 0x03	; 3
    3ac4:	01 c0       	rjmp	.+2      	; 0x3ac8 <mulacc+0x38>
    3ac6:	34 e0       	ldi	r19, 0x04	; 4
    3ac8:	66 0f       	add	r22, r22
    3aca:	77 1f       	adc	r23, r23
    3acc:	88 1f       	adc	r24, r24
    3ace:	99 1f       	adc	r25, r25
    3ad0:	31 50       	subi	r19, 0x01	; 1
    3ad2:	d1 f7       	brne	.-12     	; 0x3ac8 <mulacc+0x38>
    3ad4:	62 0f       	add	r22, r18
    3ad6:	71 1d       	adc	r23, r1
    3ad8:	81 1d       	adc	r24, r1
    3ada:	91 1d       	adc	r25, r1
    3adc:	08 95       	ret

00003ade <skip_spaces>:
    3ade:	0f 93       	push	r16
    3ae0:	1f 93       	push	r17
    3ae2:	cf 93       	push	r28
    3ae4:	df 93       	push	r29
    3ae6:	8c 01       	movw	r16, r24
    3ae8:	c8 01       	movw	r24, r16
    3aea:	f4 d3       	rcall	.+2024   	; 0x42d4 <fgetc>
    3aec:	ec 01       	movw	r28, r24
    3aee:	97 fd       	sbrc	r25, 7
    3af0:	06 c0       	rjmp	.+12     	; 0x3afe <skip_spaces+0x20>
    3af2:	c0 d3       	rcall	.+1920   	; 0x4274 <isspace>
    3af4:	89 2b       	or	r24, r25
    3af6:	c1 f7       	brne	.-16     	; 0x3ae8 <skip_spaces+0xa>
    3af8:	b8 01       	movw	r22, r16
    3afa:	ce 01       	movw	r24, r28
    3afc:	65 d4       	rcall	.+2250   	; 0x43c8 <ungetc>
    3afe:	ce 01       	movw	r24, r28
    3b00:	df 91       	pop	r29
    3b02:	cf 91       	pop	r28
    3b04:	1f 91       	pop	r17
    3b06:	0f 91       	pop	r16
    3b08:	08 95       	ret

00003b0a <conv_int>:
    3b0a:	8f 92       	push	r8
    3b0c:	9f 92       	push	r9
    3b0e:	af 92       	push	r10
    3b10:	bf 92       	push	r11
    3b12:	ef 92       	push	r14
    3b14:	ff 92       	push	r15
    3b16:	0f 93       	push	r16
    3b18:	1f 93       	push	r17
    3b1a:	cf 93       	push	r28
    3b1c:	df 93       	push	r29
    3b1e:	8c 01       	movw	r16, r24
    3b20:	d6 2f       	mov	r29, r22
    3b22:	7a 01       	movw	r14, r20
    3b24:	b2 2e       	mov	r11, r18
    3b26:	d6 d3       	rcall	.+1964   	; 0x42d4 <fgetc>
    3b28:	9c 01       	movw	r18, r24
    3b2a:	33 27       	eor	r19, r19
    3b2c:	2b 32       	cpi	r18, 0x2B	; 43
    3b2e:	31 05       	cpc	r19, r1
    3b30:	31 f0       	breq	.+12     	; 0x3b3e <conv_int+0x34>
    3b32:	2d 32       	cpi	r18, 0x2D	; 45
    3b34:	31 05       	cpc	r19, r1
    3b36:	59 f4       	brne	.+22     	; 0x3b4e <conv_int+0x44>
    3b38:	8b 2d       	mov	r24, r11
    3b3a:	80 68       	ori	r24, 0x80	; 128
    3b3c:	b8 2e       	mov	r11, r24
    3b3e:	d1 50       	subi	r29, 0x01	; 1
    3b40:	11 f4       	brne	.+4      	; 0x3b46 <conv_int+0x3c>
    3b42:	80 e0       	ldi	r24, 0x00	; 0
    3b44:	61 c0       	rjmp	.+194    	; 0x3c08 <conv_int+0xfe>
    3b46:	c8 01       	movw	r24, r16
    3b48:	c5 d3       	rcall	.+1930   	; 0x42d4 <fgetc>
    3b4a:	97 fd       	sbrc	r25, 7
    3b4c:	fa cf       	rjmp	.-12     	; 0x3b42 <conv_int+0x38>
    3b4e:	cb 2d       	mov	r28, r11
    3b50:	cd 7f       	andi	r28, 0xFD	; 253
    3b52:	2b 2d       	mov	r18, r11
    3b54:	20 73       	andi	r18, 0x30	; 48
    3b56:	f9 f4       	brne	.+62     	; 0x3b96 <conv_int+0x8c>
    3b58:	80 33       	cpi	r24, 0x30	; 48
    3b5a:	e9 f4       	brne	.+58     	; 0x3b96 <conv_int+0x8c>
    3b5c:	aa 24       	eor	r10, r10
    3b5e:	aa 94       	dec	r10
    3b60:	ad 0e       	add	r10, r29
    3b62:	09 f4       	brne	.+2      	; 0x3b66 <conv_int+0x5c>
    3b64:	3e c0       	rjmp	.+124    	; 0x3be2 <conv_int+0xd8>
    3b66:	c8 01       	movw	r24, r16
    3b68:	b5 d3       	rcall	.+1898   	; 0x42d4 <fgetc>
    3b6a:	97 fd       	sbrc	r25, 7
    3b6c:	3a c0       	rjmp	.+116    	; 0x3be2 <conv_int+0xd8>
    3b6e:	9c 01       	movw	r18, r24
    3b70:	2f 7d       	andi	r18, 0xDF	; 223
    3b72:	33 27       	eor	r19, r19
    3b74:	28 35       	cpi	r18, 0x58	; 88
    3b76:	31 05       	cpc	r19, r1
    3b78:	41 f4       	brne	.+16     	; 0x3b8a <conv_int+0x80>
    3b7a:	c2 64       	ori	r28, 0x42	; 66
    3b7c:	d2 50       	subi	r29, 0x02	; 2
    3b7e:	89 f1       	breq	.+98     	; 0x3be2 <conv_int+0xd8>
    3b80:	c8 01       	movw	r24, r16
    3b82:	a8 d3       	rcall	.+1872   	; 0x42d4 <fgetc>
    3b84:	97 ff       	sbrs	r25, 7
    3b86:	07 c0       	rjmp	.+14     	; 0x3b96 <conv_int+0x8c>
    3b88:	2c c0       	rjmp	.+88     	; 0x3be2 <conv_int+0xd8>
    3b8a:	b6 fe       	sbrs	r11, 6
    3b8c:	02 c0       	rjmp	.+4      	; 0x3b92 <conv_int+0x88>
    3b8e:	c2 60       	ori	r28, 0x02	; 2
    3b90:	01 c0       	rjmp	.+2      	; 0x3b94 <conv_int+0x8a>
    3b92:	c2 61       	ori	r28, 0x12	; 18
    3b94:	da 2d       	mov	r29, r10
    3b96:	81 2c       	mov	r8, r1
    3b98:	91 2c       	mov	r9, r1
    3b9a:	54 01       	movw	r10, r8
    3b9c:	20 ed       	ldi	r18, 0xD0	; 208
    3b9e:	28 0f       	add	r18, r24
    3ba0:	28 30       	cpi	r18, 0x08	; 8
    3ba2:	78 f0       	brcs	.+30     	; 0x3bc2 <conv_int+0xb8>
    3ba4:	c4 ff       	sbrs	r28, 4
    3ba6:	03 c0       	rjmp	.+6      	; 0x3bae <conv_int+0xa4>
    3ba8:	b8 01       	movw	r22, r16
    3baa:	0e d4       	rcall	.+2076   	; 0x43c8 <ungetc>
    3bac:	17 c0       	rjmp	.+46     	; 0x3bdc <conv_int+0xd2>
    3bae:	2a 30       	cpi	r18, 0x0A	; 10
    3bb0:	40 f0       	brcs	.+16     	; 0x3bc2 <conv_int+0xb8>
    3bb2:	c6 ff       	sbrs	r28, 6
    3bb4:	f9 cf       	rjmp	.-14     	; 0x3ba8 <conv_int+0x9e>
    3bb6:	2f 7d       	andi	r18, 0xDF	; 223
    3bb8:	3f ee       	ldi	r19, 0xEF	; 239
    3bba:	32 0f       	add	r19, r18
    3bbc:	36 30       	cpi	r19, 0x06	; 6
    3bbe:	a0 f7       	brcc	.-24     	; 0x3ba8 <conv_int+0x9e>
    3bc0:	27 50       	subi	r18, 0x07	; 7
    3bc2:	4c 2f       	mov	r20, r28
    3bc4:	c5 01       	movw	r24, r10
    3bc6:	b4 01       	movw	r22, r8
    3bc8:	63 df       	rcall	.-314    	; 0x3a90 <mulacc>
    3bca:	4b 01       	movw	r8, r22
    3bcc:	5c 01       	movw	r10, r24
    3bce:	c2 60       	ori	r28, 0x02	; 2
    3bd0:	d1 50       	subi	r29, 0x01	; 1
    3bd2:	51 f0       	breq	.+20     	; 0x3be8 <conv_int+0xde>
    3bd4:	c8 01       	movw	r24, r16
    3bd6:	7e d3       	rcall	.+1788   	; 0x42d4 <fgetc>
    3bd8:	97 ff       	sbrs	r25, 7
    3bda:	e0 cf       	rjmp	.-64     	; 0x3b9c <conv_int+0x92>
    3bdc:	c1 fd       	sbrc	r28, 1
    3bde:	04 c0       	rjmp	.+8      	; 0x3be8 <conv_int+0xde>
    3be0:	b0 cf       	rjmp	.-160    	; 0x3b42 <conv_int+0x38>
    3be2:	81 2c       	mov	r8, r1
    3be4:	91 2c       	mov	r9, r1
    3be6:	54 01       	movw	r10, r8
    3be8:	c7 ff       	sbrs	r28, 7
    3bea:	08 c0       	rjmp	.+16     	; 0x3bfc <conv_int+0xf2>
    3bec:	b0 94       	com	r11
    3bee:	a0 94       	com	r10
    3bf0:	90 94       	com	r9
    3bf2:	80 94       	com	r8
    3bf4:	81 1c       	adc	r8, r1
    3bf6:	91 1c       	adc	r9, r1
    3bf8:	a1 1c       	adc	r10, r1
    3bfa:	b1 1c       	adc	r11, r1
    3bfc:	2c 2f       	mov	r18, r28
    3bfe:	b5 01       	movw	r22, r10
    3c00:	a4 01       	movw	r20, r8
    3c02:	c7 01       	movw	r24, r14
    3c04:	39 df       	rcall	.-398    	; 0x3a78 <putval>
    3c06:	81 e0       	ldi	r24, 0x01	; 1
    3c08:	df 91       	pop	r29
    3c0a:	cf 91       	pop	r28
    3c0c:	1f 91       	pop	r17
    3c0e:	0f 91       	pop	r16
    3c10:	ff 90       	pop	r15
    3c12:	ef 90       	pop	r14
    3c14:	bf 90       	pop	r11
    3c16:	af 90       	pop	r10
    3c18:	9f 90       	pop	r9
    3c1a:	8f 90       	pop	r8
    3c1c:	08 95       	ret

00003c1e <conv_brk>:
    3c1e:	5f 92       	push	r5
    3c20:	6f 92       	push	r6
    3c22:	7f 92       	push	r7
    3c24:	8f 92       	push	r8
    3c26:	9f 92       	push	r9
    3c28:	af 92       	push	r10
    3c2a:	bf 92       	push	r11
    3c2c:	cf 92       	push	r12
    3c2e:	df 92       	push	r13
    3c30:	ef 92       	push	r14
    3c32:	ff 92       	push	r15
    3c34:	0f 93       	push	r16
    3c36:	1f 93       	push	r17
    3c38:	cf 93       	push	r28
    3c3a:	df 93       	push	r29
    3c3c:	cd b7       	in	r28, 0x3d	; 61
    3c3e:	de b7       	in	r29, 0x3e	; 62
    3c40:	a0 97       	sbiw	r28, 0x20	; 32
    3c42:	cd bf       	out	0x3d, r28	; 61
    3c44:	de bf       	out	0x3e, r29	; 62
    3c46:	5c 01       	movw	r10, r24
    3c48:	96 2e       	mov	r9, r22
    3c4a:	7a 01       	movw	r14, r20
    3c4c:	f9 01       	movw	r30, r18
    3c4e:	8e 01       	movw	r16, r28
    3c50:	0f 5f       	subi	r16, 0xFF	; 255
    3c52:	1f 4f       	sbci	r17, 0xFF	; 255
    3c54:	68 01       	movw	r12, r16
    3c56:	80 e2       	ldi	r24, 0x20	; 32
    3c58:	d8 01       	movw	r26, r16
    3c5a:	1d 92       	st	X+, r1
    3c5c:	8a 95       	dec	r24
    3c5e:	e9 f7       	brne	.-6      	; 0x3c5a <conv_brk+0x3c>
    3c60:	d5 01       	movw	r26, r10
    3c62:	13 96       	adiw	r26, 0x03	; 3
    3c64:	8c 90       	ld	r8, X
    3c66:	80 e0       	ldi	r24, 0x00	; 0
    3c68:	90 e0       	ldi	r25, 0x00	; 0
    3c6a:	61 2c       	mov	r6, r1
    3c6c:	71 2c       	mov	r7, r1
    3c6e:	30 e0       	ldi	r19, 0x00	; 0
    3c70:	61 e0       	ldi	r22, 0x01	; 1
    3c72:	70 e0       	ldi	r23, 0x00	; 0
    3c74:	83 fc       	sbrc	r8, 3
    3c76:	25 91       	lpm	r18, Z+
    3c78:	83 fe       	sbrs	r8, 3
    3c7a:	21 91       	ld	r18, Z+
    3c7c:	8f 01       	movw	r16, r30
    3c7e:	52 2e       	mov	r5, r18
    3c80:	21 11       	cpse	r18, r1
    3c82:	03 c0       	rjmp	.+6      	; 0x3c8a <conv_brk+0x6c>
    3c84:	80 e0       	ldi	r24, 0x00	; 0
    3c86:	90 e0       	ldi	r25, 0x00	; 0
    3c88:	90 c0       	rjmp	.+288    	; 0x3daa <conv_brk+0x18c>
    3c8a:	2e 35       	cpi	r18, 0x5E	; 94
    3c8c:	11 f4       	brne	.+4      	; 0x3c92 <conv_brk+0x74>
    3c8e:	00 97       	sbiw	r24, 0x00	; 0
    3c90:	51 f1       	breq	.+84     	; 0x3ce6 <conv_brk+0xc8>
    3c92:	43 2f       	mov	r20, r19
    3c94:	50 e0       	ldi	r21, 0x00	; 0
    3c96:	48 17       	cp	r20, r24
    3c98:	59 07       	cpc	r21, r25
    3c9a:	3c f4       	brge	.+14     	; 0x3caa <conv_brk+0x8c>
    3c9c:	2d 35       	cpi	r18, 0x5D	; 93
    3c9e:	59 f1       	breq	.+86     	; 0x3cf6 <conv_brk+0xd8>
    3ca0:	2d 32       	cpi	r18, 0x2D	; 45
    3ca2:	19 f4       	brne	.+6      	; 0x3caa <conv_brk+0x8c>
    3ca4:	77 20       	and	r7, r7
    3ca6:	09 f1       	breq	.+66     	; 0x3cea <conv_brk+0xcc>
    3ca8:	03 c0       	rjmp	.+6      	; 0x3cb0 <conv_brk+0x92>
    3caa:	77 20       	and	r7, r7
    3cac:	09 f4       	brne	.+2      	; 0x3cb0 <conv_brk+0x92>
    3cae:	68 c0       	rjmp	.+208    	; 0x3d80 <conv_brk+0x162>
    3cb0:	45 2d       	mov	r20, r5
    3cb2:	46 95       	lsr	r20
    3cb4:	46 95       	lsr	r20
    3cb6:	46 95       	lsr	r20
    3cb8:	d6 01       	movw	r26, r12
    3cba:	a4 0f       	add	r26, r20
    3cbc:	b1 1d       	adc	r27, r1
    3cbe:	45 2d       	mov	r20, r5
    3cc0:	47 70       	andi	r20, 0x07	; 7
    3cc2:	8b 01       	movw	r16, r22
    3cc4:	02 c0       	rjmp	.+4      	; 0x3cca <conv_brk+0xac>
    3cc6:	00 0f       	add	r16, r16
    3cc8:	11 1f       	adc	r17, r17
    3cca:	4a 95       	dec	r20
    3ccc:	e2 f7       	brpl	.-8      	; 0x3cc6 <conv_brk+0xa8>
    3cce:	a8 01       	movw	r20, r16
    3cd0:	5c 91       	ld	r21, X
    3cd2:	45 2b       	or	r20, r21
    3cd4:	4c 93       	st	X, r20
    3cd6:	65 14       	cp	r6, r5
    3cd8:	59 f0       	breq	.+22     	; 0x3cf0 <conv_brk+0xd2>
    3cda:	56 14       	cp	r5, r6
    3cdc:	10 f4       	brcc	.+4      	; 0x3ce2 <conv_brk+0xc4>
    3cde:	53 94       	inc	r5
    3ce0:	e7 cf       	rjmp	.-50     	; 0x3cb0 <conv_brk+0x92>
    3ce2:	5a 94       	dec	r5
    3ce4:	e5 cf       	rjmp	.-54     	; 0x3cb0 <conv_brk+0x92>
    3ce6:	31 e0       	ldi	r19, 0x01	; 1
    3ce8:	04 c0       	rjmp	.+8      	; 0x3cf2 <conv_brk+0xd4>
    3cea:	77 24       	eor	r7, r7
    3cec:	73 94       	inc	r7
    3cee:	01 c0       	rjmp	.+2      	; 0x3cf2 <conv_brk+0xd4>
    3cf0:	71 2c       	mov	r7, r1
    3cf2:	01 96       	adiw	r24, 0x01	; 1
    3cf4:	bf cf       	rjmp	.-130    	; 0x3c74 <conv_brk+0x56>
    3cf6:	77 20       	and	r7, r7
    3cf8:	19 f0       	breq	.+6      	; 0x3d00 <conv_brk+0xe2>
    3cfa:	8e 81       	ldd	r24, Y+6	; 0x06
    3cfc:	80 62       	ori	r24, 0x20	; 32
    3cfe:	8e 83       	std	Y+6, r24	; 0x06
    3d00:	31 11       	cpse	r19, r1
    3d02:	03 c0       	rjmp	.+6      	; 0x3d0a <conv_brk+0xec>
    3d04:	88 24       	eor	r8, r8
    3d06:	83 94       	inc	r8
    3d08:	17 c0       	rjmp	.+46     	; 0x3d38 <conv_brk+0x11a>
    3d0a:	f6 01       	movw	r30, r12
    3d0c:	9e 01       	movw	r18, r28
    3d0e:	2f 5d       	subi	r18, 0xDF	; 223
    3d10:	3f 4f       	sbci	r19, 0xFF	; 255
    3d12:	80 81       	ld	r24, Z
    3d14:	80 95       	com	r24
    3d16:	81 93       	st	Z+, r24
    3d18:	2e 17       	cp	r18, r30
    3d1a:	3f 07       	cpc	r19, r31
    3d1c:	d1 f7       	brne	.-12     	; 0x3d12 <conv_brk+0xf4>
    3d1e:	f2 cf       	rjmp	.-28     	; 0x3d04 <conv_brk+0xe6>
    3d20:	e1 14       	cp	r14, r1
    3d22:	f1 04       	cpc	r15, r1
    3d24:	29 f0       	breq	.+10     	; 0x3d30 <conv_brk+0x112>
    3d26:	d7 01       	movw	r26, r14
    3d28:	8c 93       	st	X, r24
    3d2a:	f7 01       	movw	r30, r14
    3d2c:	31 96       	adiw	r30, 0x01	; 1
    3d2e:	7f 01       	movw	r14, r30
    3d30:	9a 94       	dec	r9
    3d32:	81 2c       	mov	r8, r1
    3d34:	99 20       	and	r9, r9
    3d36:	e9 f0       	breq	.+58     	; 0x3d72 <conv_brk+0x154>
    3d38:	c5 01       	movw	r24, r10
    3d3a:	cc d2       	rcall	.+1432   	; 0x42d4 <fgetc>
    3d3c:	97 fd       	sbrc	r25, 7
    3d3e:	17 c0       	rjmp	.+46     	; 0x3d6e <conv_brk+0x150>
    3d40:	fc 01       	movw	r30, r24
    3d42:	ff 27       	eor	r31, r31
    3d44:	23 e0       	ldi	r18, 0x03	; 3
    3d46:	f5 95       	asr	r31
    3d48:	e7 95       	ror	r30
    3d4a:	2a 95       	dec	r18
    3d4c:	e1 f7       	brne	.-8      	; 0x3d46 <conv_brk+0x128>
    3d4e:	ec 0d       	add	r30, r12
    3d50:	fd 1d       	adc	r31, r13
    3d52:	20 81       	ld	r18, Z
    3d54:	30 e0       	ldi	r19, 0x00	; 0
    3d56:	ac 01       	movw	r20, r24
    3d58:	47 70       	andi	r20, 0x07	; 7
    3d5a:	55 27       	eor	r21, r21
    3d5c:	02 c0       	rjmp	.+4      	; 0x3d62 <conv_brk+0x144>
    3d5e:	35 95       	asr	r19
    3d60:	27 95       	ror	r18
    3d62:	4a 95       	dec	r20
    3d64:	e2 f7       	brpl	.-8      	; 0x3d5e <conv_brk+0x140>
    3d66:	20 fd       	sbrc	r18, 0
    3d68:	db cf       	rjmp	.-74     	; 0x3d20 <conv_brk+0x102>
    3d6a:	b5 01       	movw	r22, r10
    3d6c:	2d d3       	rcall	.+1626   	; 0x43c8 <ungetc>
    3d6e:	81 10       	cpse	r8, r1
    3d70:	89 cf       	rjmp	.-238    	; 0x3c84 <conv_brk+0x66>
    3d72:	e1 14       	cp	r14, r1
    3d74:	f1 04       	cpc	r15, r1
    3d76:	11 f0       	breq	.+4      	; 0x3d7c <conv_brk+0x15e>
    3d78:	d7 01       	movw	r26, r14
    3d7a:	1c 92       	st	X, r1
    3d7c:	c8 01       	movw	r24, r16
    3d7e:	15 c0       	rjmp	.+42     	; 0x3daa <conv_brk+0x18c>
    3d80:	42 2f       	mov	r20, r18
    3d82:	46 95       	lsr	r20
    3d84:	46 95       	lsr	r20
    3d86:	46 95       	lsr	r20
    3d88:	d6 01       	movw	r26, r12
    3d8a:	a4 0f       	add	r26, r20
    3d8c:	b1 1d       	adc	r27, r1
    3d8e:	42 2f       	mov	r20, r18
    3d90:	47 70       	andi	r20, 0x07	; 7
    3d92:	8b 01       	movw	r16, r22
    3d94:	02 c0       	rjmp	.+4      	; 0x3d9a <conv_brk+0x17c>
    3d96:	00 0f       	add	r16, r16
    3d98:	11 1f       	adc	r17, r17
    3d9a:	4a 95       	dec	r20
    3d9c:	e2 f7       	brpl	.-8      	; 0x3d96 <conv_brk+0x178>
    3d9e:	a8 01       	movw	r20, r16
    3da0:	5c 91       	ld	r21, X
    3da2:	45 2b       	or	r20, r21
    3da4:	4c 93       	st	X, r20
    3da6:	62 2e       	mov	r6, r18
    3da8:	a4 cf       	rjmp	.-184    	; 0x3cf2 <conv_brk+0xd4>
    3daa:	a0 96       	adiw	r28, 0x20	; 32
    3dac:	cd bf       	out	0x3d, r28	; 61
    3dae:	de bf       	out	0x3e, r29	; 62
    3db0:	df 91       	pop	r29
    3db2:	cf 91       	pop	r28
    3db4:	1f 91       	pop	r17
    3db6:	0f 91       	pop	r16
    3db8:	ff 90       	pop	r15
    3dba:	ef 90       	pop	r14
    3dbc:	df 90       	pop	r13
    3dbe:	cf 90       	pop	r12
    3dc0:	bf 90       	pop	r11
    3dc2:	af 90       	pop	r10
    3dc4:	9f 90       	pop	r9
    3dc6:	8f 90       	pop	r8
    3dc8:	7f 90       	pop	r7
    3dca:	6f 90       	pop	r6
    3dcc:	5f 90       	pop	r5
    3dce:	08 95       	ret

00003dd0 <vfscanf>:
    3dd0:	5f 92       	push	r5
    3dd2:	6f 92       	push	r6
    3dd4:	7f 92       	push	r7
    3dd6:	8f 92       	push	r8
    3dd8:	9f 92       	push	r9
    3dda:	af 92       	push	r10
    3ddc:	bf 92       	push	r11
    3dde:	cf 92       	push	r12
    3de0:	df 92       	push	r13
    3de2:	ef 92       	push	r14
    3de4:	ff 92       	push	r15
    3de6:	0f 93       	push	r16
    3de8:	1f 93       	push	r17
    3dea:	cf 93       	push	r28
    3dec:	df 93       	push	r29
    3dee:	6c 01       	movw	r12, r24
    3df0:	eb 01       	movw	r28, r22
    3df2:	5a 01       	movw	r10, r20
    3df4:	fc 01       	movw	r30, r24
    3df6:	16 82       	std	Z+6, r1	; 0x06
    3df8:	17 82       	std	Z+7, r1	; 0x07
    3dfa:	51 2c       	mov	r5, r1
    3dfc:	f6 01       	movw	r30, r12
    3dfe:	e3 80       	ldd	r14, Z+3	; 0x03
    3e00:	fe 01       	movw	r30, r28
    3e02:	e3 fc       	sbrc	r14, 3
    3e04:	85 91       	lpm	r24, Z+
    3e06:	e3 fe       	sbrs	r14, 3
    3e08:	81 91       	ld	r24, Z+
    3e0a:	18 2f       	mov	r17, r24
    3e0c:	ef 01       	movw	r28, r30
    3e0e:	88 23       	and	r24, r24
    3e10:	09 f4       	brne	.+2      	; 0x3e14 <vfscanf+0x44>
    3e12:	e0 c0       	rjmp	.+448    	; 0x3fd4 <vfscanf+0x204>
    3e14:	90 e0       	ldi	r25, 0x00	; 0
    3e16:	2e d2       	rcall	.+1116   	; 0x4274 <isspace>
    3e18:	89 2b       	or	r24, r25
    3e1a:	19 f0       	breq	.+6      	; 0x3e22 <vfscanf+0x52>
    3e1c:	c6 01       	movw	r24, r12
    3e1e:	5f de       	rcall	.-834    	; 0x3ade <skip_spaces>
    3e20:	ed cf       	rjmp	.-38     	; 0x3dfc <vfscanf+0x2c>
    3e22:	15 32       	cpi	r17, 0x25	; 37
    3e24:	41 f4       	brne	.+16     	; 0x3e36 <vfscanf+0x66>
    3e26:	fe 01       	movw	r30, r28
    3e28:	e3 fc       	sbrc	r14, 3
    3e2a:	15 91       	lpm	r17, Z+
    3e2c:	e3 fe       	sbrs	r14, 3
    3e2e:	11 91       	ld	r17, Z+
    3e30:	ef 01       	movw	r28, r30
    3e32:	15 32       	cpi	r17, 0x25	; 37
    3e34:	71 f4       	brne	.+28     	; 0x3e52 <vfscanf+0x82>
    3e36:	c6 01       	movw	r24, r12
    3e38:	4d d2       	rcall	.+1178   	; 0x42d4 <fgetc>
    3e3a:	97 fd       	sbrc	r25, 7
    3e3c:	c9 c0       	rjmp	.+402    	; 0x3fd0 <vfscanf+0x200>
    3e3e:	41 2f       	mov	r20, r17
    3e40:	50 e0       	ldi	r21, 0x00	; 0
    3e42:	9c 01       	movw	r18, r24
    3e44:	33 27       	eor	r19, r19
    3e46:	24 17       	cp	r18, r20
    3e48:	35 07       	cpc	r19, r21
    3e4a:	c1 f2       	breq	.-80     	; 0x3dfc <vfscanf+0x2c>
    3e4c:	b6 01       	movw	r22, r12
    3e4e:	bc d2       	rcall	.+1400   	; 0x43c8 <ungetc>
    3e50:	c1 c0       	rjmp	.+386    	; 0x3fd4 <vfscanf+0x204>
    3e52:	1a 32       	cpi	r17, 0x2A	; 42
    3e54:	39 f4       	brne	.+14     	; 0x3e64 <vfscanf+0x94>
    3e56:	e3 fc       	sbrc	r14, 3
    3e58:	15 91       	lpm	r17, Z+
    3e5a:	e3 fe       	sbrs	r14, 3
    3e5c:	11 91       	ld	r17, Z+
    3e5e:	ef 01       	movw	r28, r30
    3e60:	01 e0       	ldi	r16, 0x01	; 1
    3e62:	01 c0       	rjmp	.+2      	; 0x3e66 <vfscanf+0x96>
    3e64:	00 e0       	ldi	r16, 0x00	; 0
    3e66:	f1 2c       	mov	r15, r1
    3e68:	20 ed       	ldi	r18, 0xD0	; 208
    3e6a:	21 0f       	add	r18, r17
    3e6c:	2a 30       	cpi	r18, 0x0A	; 10
    3e6e:	78 f4       	brcc	.+30     	; 0x3e8e <vfscanf+0xbe>
    3e70:	02 60       	ori	r16, 0x02	; 2
    3e72:	6f 2d       	mov	r22, r15
    3e74:	70 e0       	ldi	r23, 0x00	; 0
    3e76:	80 e0       	ldi	r24, 0x00	; 0
    3e78:	90 e0       	ldi	r25, 0x00	; 0
    3e7a:	40 e2       	ldi	r20, 0x20	; 32
    3e7c:	09 de       	rcall	.-1006   	; 0x3a90 <mulacc>
    3e7e:	f6 2e       	mov	r15, r22
    3e80:	fe 01       	movw	r30, r28
    3e82:	e3 fc       	sbrc	r14, 3
    3e84:	15 91       	lpm	r17, Z+
    3e86:	e3 fe       	sbrs	r14, 3
    3e88:	11 91       	ld	r17, Z+
    3e8a:	ef 01       	movw	r28, r30
    3e8c:	ed cf       	rjmp	.-38     	; 0x3e68 <vfscanf+0x98>
    3e8e:	01 ff       	sbrs	r16, 1
    3e90:	03 c0       	rjmp	.+6      	; 0x3e98 <vfscanf+0xc8>
    3e92:	f1 10       	cpse	r15, r1
    3e94:	03 c0       	rjmp	.+6      	; 0x3e9c <vfscanf+0xcc>
    3e96:	9e c0       	rjmp	.+316    	; 0x3fd4 <vfscanf+0x204>
    3e98:	ff 24       	eor	r15, r15
    3e9a:	fa 94       	dec	r15
    3e9c:	18 36       	cpi	r17, 0x68	; 104
    3e9e:	19 f0       	breq	.+6      	; 0x3ea6 <vfscanf+0xd6>
    3ea0:	1c 36       	cpi	r17, 0x6C	; 108
    3ea2:	51 f0       	breq	.+20     	; 0x3eb8 <vfscanf+0xe8>
    3ea4:	10 c0       	rjmp	.+32     	; 0x3ec6 <vfscanf+0xf6>
    3ea6:	fe 01       	movw	r30, r28
    3ea8:	e3 fc       	sbrc	r14, 3
    3eaa:	15 91       	lpm	r17, Z+
    3eac:	e3 fe       	sbrs	r14, 3
    3eae:	11 91       	ld	r17, Z+
    3eb0:	ef 01       	movw	r28, r30
    3eb2:	18 36       	cpi	r17, 0x68	; 104
    3eb4:	41 f4       	brne	.+16     	; 0x3ec6 <vfscanf+0xf6>
    3eb6:	08 60       	ori	r16, 0x08	; 8
    3eb8:	04 60       	ori	r16, 0x04	; 4
    3eba:	fe 01       	movw	r30, r28
    3ebc:	e3 fc       	sbrc	r14, 3
    3ebe:	15 91       	lpm	r17, Z+
    3ec0:	e3 fe       	sbrs	r14, 3
    3ec2:	11 91       	ld	r17, Z+
    3ec4:	ef 01       	movw	r28, r30
    3ec6:	11 23       	and	r17, r17
    3ec8:	09 f4       	brne	.+2      	; 0x3ecc <vfscanf+0xfc>
    3eca:	84 c0       	rjmp	.+264    	; 0x3fd4 <vfscanf+0x204>
    3ecc:	61 2f       	mov	r22, r17
    3ece:	70 e0       	ldi	r23, 0x00	; 0
    3ed0:	8e e7       	ldi	r24, 0x7E	; 126
    3ed2:	92 e0       	ldi	r25, 0x02	; 2
    3ed4:	d7 d1       	rcall	.+942    	; 0x4284 <strchr_P>
    3ed6:	89 2b       	or	r24, r25
    3ed8:	09 f4       	brne	.+2      	; 0x3edc <vfscanf+0x10c>
    3eda:	7c c0       	rjmp	.+248    	; 0x3fd4 <vfscanf+0x204>
    3edc:	00 fd       	sbrc	r16, 0
    3ede:	07 c0       	rjmp	.+14     	; 0x3eee <vfscanf+0x11e>
    3ee0:	f5 01       	movw	r30, r10
    3ee2:	80 80       	ld	r8, Z
    3ee4:	91 80       	ldd	r9, Z+1	; 0x01
    3ee6:	c5 01       	movw	r24, r10
    3ee8:	02 96       	adiw	r24, 0x02	; 2
    3eea:	5c 01       	movw	r10, r24
    3eec:	02 c0       	rjmp	.+4      	; 0x3ef2 <vfscanf+0x122>
    3eee:	81 2c       	mov	r8, r1
    3ef0:	91 2c       	mov	r9, r1
    3ef2:	1e 36       	cpi	r17, 0x6E	; 110
    3ef4:	49 f4       	brne	.+18     	; 0x3f08 <vfscanf+0x138>
    3ef6:	f6 01       	movw	r30, r12
    3ef8:	46 81       	ldd	r20, Z+6	; 0x06
    3efa:	57 81       	ldd	r21, Z+7	; 0x07
    3efc:	60 e0       	ldi	r22, 0x00	; 0
    3efe:	70 e0       	ldi	r23, 0x00	; 0
    3f00:	20 2f       	mov	r18, r16
    3f02:	c4 01       	movw	r24, r8
    3f04:	b9 dd       	rcall	.-1166   	; 0x3a78 <putval>
    3f06:	7a cf       	rjmp	.-268    	; 0x3dfc <vfscanf+0x2c>
    3f08:	13 36       	cpi	r17, 0x63	; 99
    3f0a:	a1 f4       	brne	.+40     	; 0x3f34 <vfscanf+0x164>
    3f0c:	01 fd       	sbrc	r16, 1
    3f0e:	02 c0       	rjmp	.+4      	; 0x3f14 <vfscanf+0x144>
    3f10:	ff 24       	eor	r15, r15
    3f12:	f3 94       	inc	r15
    3f14:	c6 01       	movw	r24, r12
    3f16:	de d1       	rcall	.+956    	; 0x42d4 <fgetc>
    3f18:	97 fd       	sbrc	r25, 7
    3f1a:	5a c0       	rjmp	.+180    	; 0x3fd0 <vfscanf+0x200>
    3f1c:	81 14       	cp	r8, r1
    3f1e:	91 04       	cpc	r9, r1
    3f20:	29 f0       	breq	.+10     	; 0x3f2c <vfscanf+0x15c>
    3f22:	f4 01       	movw	r30, r8
    3f24:	80 83       	st	Z, r24
    3f26:	c4 01       	movw	r24, r8
    3f28:	01 96       	adiw	r24, 0x01	; 1
    3f2a:	4c 01       	movw	r8, r24
    3f2c:	fa 94       	dec	r15
    3f2e:	f1 10       	cpse	r15, r1
    3f30:	f1 cf       	rjmp	.-30     	; 0x3f14 <vfscanf+0x144>
    3f32:	4a c0       	rjmp	.+148    	; 0x3fc8 <vfscanf+0x1f8>
    3f34:	1b 35       	cpi	r17, 0x5B	; 91
    3f36:	51 f4       	brne	.+20     	; 0x3f4c <vfscanf+0x17c>
    3f38:	9e 01       	movw	r18, r28
    3f3a:	a4 01       	movw	r20, r8
    3f3c:	6f 2d       	mov	r22, r15
    3f3e:	c6 01       	movw	r24, r12
    3f40:	6e de       	rcall	.-804    	; 0x3c1e <conv_brk>
    3f42:	ec 01       	movw	r28, r24
    3f44:	89 2b       	or	r24, r25
    3f46:	09 f0       	breq	.+2      	; 0x3f4a <vfscanf+0x17a>
    3f48:	3f c0       	rjmp	.+126    	; 0x3fc8 <vfscanf+0x1f8>
    3f4a:	39 c0       	rjmp	.+114    	; 0x3fbe <vfscanf+0x1ee>
    3f4c:	c6 01       	movw	r24, r12
    3f4e:	c7 dd       	rcall	.-1138   	; 0x3ade <skip_spaces>
    3f50:	97 fd       	sbrc	r25, 7
    3f52:	3e c0       	rjmp	.+124    	; 0x3fd0 <vfscanf+0x200>
    3f54:	1f 36       	cpi	r17, 0x6F	; 111
    3f56:	49 f1       	breq	.+82     	; 0x3faa <vfscanf+0x1da>
    3f58:	28 f4       	brcc	.+10     	; 0x3f64 <vfscanf+0x194>
    3f5a:	14 36       	cpi	r17, 0x64	; 100
    3f5c:	21 f1       	breq	.+72     	; 0x3fa6 <vfscanf+0x1d6>
    3f5e:	19 36       	cpi	r17, 0x69	; 105
    3f60:	39 f1       	breq	.+78     	; 0x3fb0 <vfscanf+0x1e0>
    3f62:	25 c0       	rjmp	.+74     	; 0x3fae <vfscanf+0x1de>
    3f64:	13 37       	cpi	r17, 0x73	; 115
    3f66:	71 f0       	breq	.+28     	; 0x3f84 <vfscanf+0x1b4>
    3f68:	15 37       	cpi	r17, 0x75	; 117
    3f6a:	e9 f0       	breq	.+58     	; 0x3fa6 <vfscanf+0x1d6>
    3f6c:	20 c0       	rjmp	.+64     	; 0x3fae <vfscanf+0x1de>
    3f6e:	81 14       	cp	r8, r1
    3f70:	91 04       	cpc	r9, r1
    3f72:	29 f0       	breq	.+10     	; 0x3f7e <vfscanf+0x1ae>
    3f74:	f4 01       	movw	r30, r8
    3f76:	60 82       	st	Z, r6
    3f78:	c4 01       	movw	r24, r8
    3f7a:	01 96       	adiw	r24, 0x01	; 1
    3f7c:	4c 01       	movw	r8, r24
    3f7e:	fa 94       	dec	r15
    3f80:	ff 20       	and	r15, r15
    3f82:	59 f0       	breq	.+22     	; 0x3f9a <vfscanf+0x1ca>
    3f84:	c6 01       	movw	r24, r12
    3f86:	a6 d1       	rcall	.+844    	; 0x42d4 <fgetc>
    3f88:	3c 01       	movw	r6, r24
    3f8a:	97 fd       	sbrc	r25, 7
    3f8c:	06 c0       	rjmp	.+12     	; 0x3f9a <vfscanf+0x1ca>
    3f8e:	72 d1       	rcall	.+740    	; 0x4274 <isspace>
    3f90:	89 2b       	or	r24, r25
    3f92:	69 f3       	breq	.-38     	; 0x3f6e <vfscanf+0x19e>
    3f94:	b6 01       	movw	r22, r12
    3f96:	c3 01       	movw	r24, r6
    3f98:	17 d2       	rcall	.+1070   	; 0x43c8 <ungetc>
    3f9a:	81 14       	cp	r8, r1
    3f9c:	91 04       	cpc	r9, r1
    3f9e:	a1 f0       	breq	.+40     	; 0x3fc8 <vfscanf+0x1f8>
    3fa0:	f4 01       	movw	r30, r8
    3fa2:	10 82       	st	Z, r1
    3fa4:	11 c0       	rjmp	.+34     	; 0x3fc8 <vfscanf+0x1f8>
    3fa6:	00 62       	ori	r16, 0x20	; 32
    3fa8:	03 c0       	rjmp	.+6      	; 0x3fb0 <vfscanf+0x1e0>
    3faa:	00 61       	ori	r16, 0x10	; 16
    3fac:	01 c0       	rjmp	.+2      	; 0x3fb0 <vfscanf+0x1e0>
    3fae:	00 64       	ori	r16, 0x40	; 64
    3fb0:	20 2f       	mov	r18, r16
    3fb2:	a4 01       	movw	r20, r8
    3fb4:	6f 2d       	mov	r22, r15
    3fb6:	c6 01       	movw	r24, r12
    3fb8:	a8 dd       	rcall	.-1200   	; 0x3b0a <conv_int>
    3fba:	81 11       	cpse	r24, r1
    3fbc:	05 c0       	rjmp	.+10     	; 0x3fc8 <vfscanf+0x1f8>
    3fbe:	f6 01       	movw	r30, r12
    3fc0:	83 81       	ldd	r24, Z+3	; 0x03
    3fc2:	80 73       	andi	r24, 0x30	; 48
    3fc4:	29 f4       	brne	.+10     	; 0x3fd0 <vfscanf+0x200>
    3fc6:	06 c0       	rjmp	.+12     	; 0x3fd4 <vfscanf+0x204>
    3fc8:	00 fd       	sbrc	r16, 0
    3fca:	18 cf       	rjmp	.-464    	; 0x3dfc <vfscanf+0x2c>
    3fcc:	53 94       	inc	r5
    3fce:	16 cf       	rjmp	.-468    	; 0x3dfc <vfscanf+0x2c>
    3fd0:	55 20       	and	r5, r5
    3fd2:	19 f0       	breq	.+6      	; 0x3fda <vfscanf+0x20a>
    3fd4:	85 2d       	mov	r24, r5
    3fd6:	90 e0       	ldi	r25, 0x00	; 0
    3fd8:	02 c0       	rjmp	.+4      	; 0x3fde <vfscanf+0x20e>
    3fda:	8f ef       	ldi	r24, 0xFF	; 255
    3fdc:	9f ef       	ldi	r25, 0xFF	; 255
    3fde:	df 91       	pop	r29
    3fe0:	cf 91       	pop	r28
    3fe2:	1f 91       	pop	r17
    3fe4:	0f 91       	pop	r16
    3fe6:	ff 90       	pop	r15
    3fe8:	ef 90       	pop	r14
    3fea:	df 90       	pop	r13
    3fec:	cf 90       	pop	r12
    3fee:	bf 90       	pop	r11
    3ff0:	af 90       	pop	r10
    3ff2:	9f 90       	pop	r9
    3ff4:	8f 90       	pop	r8
    3ff6:	7f 90       	pop	r7
    3ff8:	6f 90       	pop	r6
    3ffa:	5f 90       	pop	r5
    3ffc:	08 95       	ret

00003ffe <calloc>:
    3ffe:	0f 93       	push	r16
    4000:	1f 93       	push	r17
    4002:	cf 93       	push	r28
    4004:	df 93       	push	r29
    4006:	86 9f       	mul	r24, r22
    4008:	80 01       	movw	r16, r0
    400a:	87 9f       	mul	r24, r23
    400c:	10 0d       	add	r17, r0
    400e:	96 9f       	mul	r25, r22
    4010:	10 0d       	add	r17, r0
    4012:	11 24       	eor	r1, r1
    4014:	c8 01       	movw	r24, r16
    4016:	0d d0       	rcall	.+26     	; 0x4032 <malloc>
    4018:	ec 01       	movw	r28, r24
    401a:	00 97       	sbiw	r24, 0x00	; 0
    401c:	21 f0       	breq	.+8      	; 0x4026 <__stack+0x27>
    401e:	a8 01       	movw	r20, r16
    4020:	60 e0       	ldi	r22, 0x00	; 0
    4022:	70 e0       	ldi	r23, 0x00	; 0
    4024:	45 d1       	rcall	.+650    	; 0x42b0 <memset>
    4026:	ce 01       	movw	r24, r28
    4028:	df 91       	pop	r29
    402a:	cf 91       	pop	r28
    402c:	1f 91       	pop	r17
    402e:	0f 91       	pop	r16
    4030:	08 95       	ret

00004032 <malloc>:
    4032:	0f 93       	push	r16
    4034:	1f 93       	push	r17
    4036:	cf 93       	push	r28
    4038:	df 93       	push	r29
    403a:	82 30       	cpi	r24, 0x02	; 2
    403c:	91 05       	cpc	r25, r1
    403e:	10 f4       	brcc	.+4      	; 0x4044 <malloc+0x12>
    4040:	82 e0       	ldi	r24, 0x02	; 2
    4042:	90 e0       	ldi	r25, 0x00	; 0
    4044:	e0 91 7a 21 	lds	r30, 0x217A	; 0x80217a <__flp>
    4048:	f0 91 7b 21 	lds	r31, 0x217B	; 0x80217b <__flp+0x1>
    404c:	20 e0       	ldi	r18, 0x00	; 0
    404e:	30 e0       	ldi	r19, 0x00	; 0
    4050:	a0 e0       	ldi	r26, 0x00	; 0
    4052:	b0 e0       	ldi	r27, 0x00	; 0
    4054:	30 97       	sbiw	r30, 0x00	; 0
    4056:	19 f1       	breq	.+70     	; 0x409e <malloc+0x6c>
    4058:	40 81       	ld	r20, Z
    405a:	51 81       	ldd	r21, Z+1	; 0x01
    405c:	02 81       	ldd	r16, Z+2	; 0x02
    405e:	13 81       	ldd	r17, Z+3	; 0x03
    4060:	48 17       	cp	r20, r24
    4062:	59 07       	cpc	r21, r25
    4064:	c8 f0       	brcs	.+50     	; 0x4098 <malloc+0x66>
    4066:	84 17       	cp	r24, r20
    4068:	95 07       	cpc	r25, r21
    406a:	69 f4       	brne	.+26     	; 0x4086 <malloc+0x54>
    406c:	10 97       	sbiw	r26, 0x00	; 0
    406e:	31 f0       	breq	.+12     	; 0x407c <malloc+0x4a>
    4070:	12 96       	adiw	r26, 0x02	; 2
    4072:	0c 93       	st	X, r16
    4074:	12 97       	sbiw	r26, 0x02	; 2
    4076:	13 96       	adiw	r26, 0x03	; 3
    4078:	1c 93       	st	X, r17
    407a:	27 c0       	rjmp	.+78     	; 0x40ca <malloc+0x98>
    407c:	00 93 7a 21 	sts	0x217A, r16	; 0x80217a <__flp>
    4080:	10 93 7b 21 	sts	0x217B, r17	; 0x80217b <__flp+0x1>
    4084:	22 c0       	rjmp	.+68     	; 0x40ca <malloc+0x98>
    4086:	21 15       	cp	r18, r1
    4088:	31 05       	cpc	r19, r1
    408a:	19 f0       	breq	.+6      	; 0x4092 <malloc+0x60>
    408c:	42 17       	cp	r20, r18
    408e:	53 07       	cpc	r21, r19
    4090:	18 f4       	brcc	.+6      	; 0x4098 <malloc+0x66>
    4092:	9a 01       	movw	r18, r20
    4094:	bd 01       	movw	r22, r26
    4096:	ef 01       	movw	r28, r30
    4098:	df 01       	movw	r26, r30
    409a:	f8 01       	movw	r30, r16
    409c:	db cf       	rjmp	.-74     	; 0x4054 <malloc+0x22>
    409e:	21 15       	cp	r18, r1
    40a0:	31 05       	cpc	r19, r1
    40a2:	f9 f0       	breq	.+62     	; 0x40e2 <malloc+0xb0>
    40a4:	28 1b       	sub	r18, r24
    40a6:	39 0b       	sbc	r19, r25
    40a8:	24 30       	cpi	r18, 0x04	; 4
    40aa:	31 05       	cpc	r19, r1
    40ac:	80 f4       	brcc	.+32     	; 0x40ce <malloc+0x9c>
    40ae:	8a 81       	ldd	r24, Y+2	; 0x02
    40b0:	9b 81       	ldd	r25, Y+3	; 0x03
    40b2:	61 15       	cp	r22, r1
    40b4:	71 05       	cpc	r23, r1
    40b6:	21 f0       	breq	.+8      	; 0x40c0 <malloc+0x8e>
    40b8:	fb 01       	movw	r30, r22
    40ba:	82 83       	std	Z+2, r24	; 0x02
    40bc:	93 83       	std	Z+3, r25	; 0x03
    40be:	04 c0       	rjmp	.+8      	; 0x40c8 <malloc+0x96>
    40c0:	80 93 7a 21 	sts	0x217A, r24	; 0x80217a <__flp>
    40c4:	90 93 7b 21 	sts	0x217B, r25	; 0x80217b <__flp+0x1>
    40c8:	fe 01       	movw	r30, r28
    40ca:	32 96       	adiw	r30, 0x02	; 2
    40cc:	44 c0       	rjmp	.+136    	; 0x4156 <malloc+0x124>
    40ce:	fe 01       	movw	r30, r28
    40d0:	e2 0f       	add	r30, r18
    40d2:	f3 1f       	adc	r31, r19
    40d4:	81 93       	st	Z+, r24
    40d6:	91 93       	st	Z+, r25
    40d8:	22 50       	subi	r18, 0x02	; 2
    40da:	31 09       	sbc	r19, r1
    40dc:	28 83       	st	Y, r18
    40de:	39 83       	std	Y+1, r19	; 0x01
    40e0:	3a c0       	rjmp	.+116    	; 0x4156 <malloc+0x124>
    40e2:	20 91 78 21 	lds	r18, 0x2178	; 0x802178 <__brkval>
    40e6:	30 91 79 21 	lds	r19, 0x2179	; 0x802179 <__brkval+0x1>
    40ea:	23 2b       	or	r18, r19
    40ec:	41 f4       	brne	.+16     	; 0x40fe <malloc+0xcc>
    40ee:	20 91 02 20 	lds	r18, 0x2002	; 0x802002 <__malloc_heap_start>
    40f2:	30 91 03 20 	lds	r19, 0x2003	; 0x802003 <__malloc_heap_start+0x1>
    40f6:	20 93 78 21 	sts	0x2178, r18	; 0x802178 <__brkval>
    40fa:	30 93 79 21 	sts	0x2179, r19	; 0x802179 <__brkval+0x1>
    40fe:	20 91 00 20 	lds	r18, 0x2000	; 0x802000 <__data_start>
    4102:	30 91 01 20 	lds	r19, 0x2001	; 0x802001 <__data_start+0x1>
    4106:	21 15       	cp	r18, r1
    4108:	31 05       	cpc	r19, r1
    410a:	41 f4       	brne	.+16     	; 0x411c <malloc+0xea>
    410c:	2d b7       	in	r18, 0x3d	; 61
    410e:	3e b7       	in	r19, 0x3e	; 62
    4110:	40 91 04 20 	lds	r20, 0x2004	; 0x802004 <__malloc_margin>
    4114:	50 91 05 20 	lds	r21, 0x2005	; 0x802005 <__malloc_margin+0x1>
    4118:	24 1b       	sub	r18, r20
    411a:	35 0b       	sbc	r19, r21
    411c:	e0 91 78 21 	lds	r30, 0x2178	; 0x802178 <__brkval>
    4120:	f0 91 79 21 	lds	r31, 0x2179	; 0x802179 <__brkval+0x1>
    4124:	e2 17       	cp	r30, r18
    4126:	f3 07       	cpc	r31, r19
    4128:	a0 f4       	brcc	.+40     	; 0x4152 <malloc+0x120>
    412a:	2e 1b       	sub	r18, r30
    412c:	3f 0b       	sbc	r19, r31
    412e:	28 17       	cp	r18, r24
    4130:	39 07       	cpc	r19, r25
    4132:	78 f0       	brcs	.+30     	; 0x4152 <malloc+0x120>
    4134:	ac 01       	movw	r20, r24
    4136:	4e 5f       	subi	r20, 0xFE	; 254
    4138:	5f 4f       	sbci	r21, 0xFF	; 255
    413a:	24 17       	cp	r18, r20
    413c:	35 07       	cpc	r19, r21
    413e:	48 f0       	brcs	.+18     	; 0x4152 <malloc+0x120>
    4140:	4e 0f       	add	r20, r30
    4142:	5f 1f       	adc	r21, r31
    4144:	40 93 78 21 	sts	0x2178, r20	; 0x802178 <__brkval>
    4148:	50 93 79 21 	sts	0x2179, r21	; 0x802179 <__brkval+0x1>
    414c:	81 93       	st	Z+, r24
    414e:	91 93       	st	Z+, r25
    4150:	02 c0       	rjmp	.+4      	; 0x4156 <malloc+0x124>
    4152:	e0 e0       	ldi	r30, 0x00	; 0
    4154:	f0 e0       	ldi	r31, 0x00	; 0
    4156:	cf 01       	movw	r24, r30
    4158:	df 91       	pop	r29
    415a:	cf 91       	pop	r28
    415c:	1f 91       	pop	r17
    415e:	0f 91       	pop	r16
    4160:	08 95       	ret

00004162 <free>:
    4162:	cf 93       	push	r28
    4164:	df 93       	push	r29
    4166:	00 97       	sbiw	r24, 0x00	; 0
    4168:	09 f4       	brne	.+2      	; 0x416c <free+0xa>
    416a:	81 c0       	rjmp	.+258    	; 0x426e <free+0x10c>
    416c:	fc 01       	movw	r30, r24
    416e:	32 97       	sbiw	r30, 0x02	; 2
    4170:	12 82       	std	Z+2, r1	; 0x02
    4172:	13 82       	std	Z+3, r1	; 0x03
    4174:	a0 91 7a 21 	lds	r26, 0x217A	; 0x80217a <__flp>
    4178:	b0 91 7b 21 	lds	r27, 0x217B	; 0x80217b <__flp+0x1>
    417c:	10 97       	sbiw	r26, 0x00	; 0
    417e:	81 f4       	brne	.+32     	; 0x41a0 <free+0x3e>
    4180:	20 81       	ld	r18, Z
    4182:	31 81       	ldd	r19, Z+1	; 0x01
    4184:	82 0f       	add	r24, r18
    4186:	93 1f       	adc	r25, r19
    4188:	20 91 78 21 	lds	r18, 0x2178	; 0x802178 <__brkval>
    418c:	30 91 79 21 	lds	r19, 0x2179	; 0x802179 <__brkval+0x1>
    4190:	28 17       	cp	r18, r24
    4192:	39 07       	cpc	r19, r25
    4194:	51 f5       	brne	.+84     	; 0x41ea <free+0x88>
    4196:	e0 93 78 21 	sts	0x2178, r30	; 0x802178 <__brkval>
    419a:	f0 93 79 21 	sts	0x2179, r31	; 0x802179 <__brkval+0x1>
    419e:	67 c0       	rjmp	.+206    	; 0x426e <free+0x10c>
    41a0:	ed 01       	movw	r28, r26
    41a2:	20 e0       	ldi	r18, 0x00	; 0
    41a4:	30 e0       	ldi	r19, 0x00	; 0
    41a6:	ce 17       	cp	r28, r30
    41a8:	df 07       	cpc	r29, r31
    41aa:	40 f4       	brcc	.+16     	; 0x41bc <free+0x5a>
    41ac:	4a 81       	ldd	r20, Y+2	; 0x02
    41ae:	5b 81       	ldd	r21, Y+3	; 0x03
    41b0:	9e 01       	movw	r18, r28
    41b2:	41 15       	cp	r20, r1
    41b4:	51 05       	cpc	r21, r1
    41b6:	f1 f0       	breq	.+60     	; 0x41f4 <free+0x92>
    41b8:	ea 01       	movw	r28, r20
    41ba:	f5 cf       	rjmp	.-22     	; 0x41a6 <free+0x44>
    41bc:	c2 83       	std	Z+2, r28	; 0x02
    41be:	d3 83       	std	Z+3, r29	; 0x03
    41c0:	40 81       	ld	r20, Z
    41c2:	51 81       	ldd	r21, Z+1	; 0x01
    41c4:	84 0f       	add	r24, r20
    41c6:	95 1f       	adc	r25, r21
    41c8:	c8 17       	cp	r28, r24
    41ca:	d9 07       	cpc	r29, r25
    41cc:	59 f4       	brne	.+22     	; 0x41e4 <free+0x82>
    41ce:	88 81       	ld	r24, Y
    41d0:	99 81       	ldd	r25, Y+1	; 0x01
    41d2:	84 0f       	add	r24, r20
    41d4:	95 1f       	adc	r25, r21
    41d6:	02 96       	adiw	r24, 0x02	; 2
    41d8:	80 83       	st	Z, r24
    41da:	91 83       	std	Z+1, r25	; 0x01
    41dc:	8a 81       	ldd	r24, Y+2	; 0x02
    41de:	9b 81       	ldd	r25, Y+3	; 0x03
    41e0:	82 83       	std	Z+2, r24	; 0x02
    41e2:	93 83       	std	Z+3, r25	; 0x03
    41e4:	21 15       	cp	r18, r1
    41e6:	31 05       	cpc	r19, r1
    41e8:	29 f4       	brne	.+10     	; 0x41f4 <free+0x92>
    41ea:	e0 93 7a 21 	sts	0x217A, r30	; 0x80217a <__flp>
    41ee:	f0 93 7b 21 	sts	0x217B, r31	; 0x80217b <__flp+0x1>
    41f2:	3d c0       	rjmp	.+122    	; 0x426e <free+0x10c>
    41f4:	e9 01       	movw	r28, r18
    41f6:	ea 83       	std	Y+2, r30	; 0x02
    41f8:	fb 83       	std	Y+3, r31	; 0x03
    41fa:	49 91       	ld	r20, Y+
    41fc:	59 91       	ld	r21, Y+
    41fe:	c4 0f       	add	r28, r20
    4200:	d5 1f       	adc	r29, r21
    4202:	ec 17       	cp	r30, r28
    4204:	fd 07       	cpc	r31, r29
    4206:	61 f4       	brne	.+24     	; 0x4220 <free+0xbe>
    4208:	80 81       	ld	r24, Z
    420a:	91 81       	ldd	r25, Z+1	; 0x01
    420c:	84 0f       	add	r24, r20
    420e:	95 1f       	adc	r25, r21
    4210:	02 96       	adiw	r24, 0x02	; 2
    4212:	e9 01       	movw	r28, r18
    4214:	88 83       	st	Y, r24
    4216:	99 83       	std	Y+1, r25	; 0x01
    4218:	82 81       	ldd	r24, Z+2	; 0x02
    421a:	93 81       	ldd	r25, Z+3	; 0x03
    421c:	8a 83       	std	Y+2, r24	; 0x02
    421e:	9b 83       	std	Y+3, r25	; 0x03
    4220:	e0 e0       	ldi	r30, 0x00	; 0
    4222:	f0 e0       	ldi	r31, 0x00	; 0
    4224:	12 96       	adiw	r26, 0x02	; 2
    4226:	8d 91       	ld	r24, X+
    4228:	9c 91       	ld	r25, X
    422a:	13 97       	sbiw	r26, 0x03	; 3
    422c:	00 97       	sbiw	r24, 0x00	; 0
    422e:	19 f0       	breq	.+6      	; 0x4236 <free+0xd4>
    4230:	fd 01       	movw	r30, r26
    4232:	dc 01       	movw	r26, r24
    4234:	f7 cf       	rjmp	.-18     	; 0x4224 <free+0xc2>
    4236:	8d 91       	ld	r24, X+
    4238:	9c 91       	ld	r25, X
    423a:	11 97       	sbiw	r26, 0x01	; 1
    423c:	9d 01       	movw	r18, r26
    423e:	2e 5f       	subi	r18, 0xFE	; 254
    4240:	3f 4f       	sbci	r19, 0xFF	; 255
    4242:	82 0f       	add	r24, r18
    4244:	93 1f       	adc	r25, r19
    4246:	20 91 78 21 	lds	r18, 0x2178	; 0x802178 <__brkval>
    424a:	30 91 79 21 	lds	r19, 0x2179	; 0x802179 <__brkval+0x1>
    424e:	28 17       	cp	r18, r24
    4250:	39 07       	cpc	r19, r25
    4252:	69 f4       	brne	.+26     	; 0x426e <free+0x10c>
    4254:	30 97       	sbiw	r30, 0x00	; 0
    4256:	29 f4       	brne	.+10     	; 0x4262 <free+0x100>
    4258:	10 92 7a 21 	sts	0x217A, r1	; 0x80217a <__flp>
    425c:	10 92 7b 21 	sts	0x217B, r1	; 0x80217b <__flp+0x1>
    4260:	02 c0       	rjmp	.+4      	; 0x4266 <free+0x104>
    4262:	12 82       	std	Z+2, r1	; 0x02
    4264:	13 82       	std	Z+3, r1	; 0x03
    4266:	a0 93 78 21 	sts	0x2178, r26	; 0x802178 <__brkval>
    426a:	b0 93 79 21 	sts	0x2179, r27	; 0x802179 <__brkval+0x1>
    426e:	df 91       	pop	r29
    4270:	cf 91       	pop	r28
    4272:	08 95       	ret

00004274 <isspace>:
    4274:	91 11       	cpse	r25, r1
    4276:	1f c1       	rjmp	.+574    	; 0x44b6 <__ctype_isfalse>
    4278:	80 32       	cpi	r24, 0x20	; 32
    427a:	19 f0       	breq	.+6      	; 0x4282 <isspace+0xe>
    427c:	89 50       	subi	r24, 0x09	; 9
    427e:	85 50       	subi	r24, 0x05	; 5
    4280:	d0 f7       	brcc	.-12     	; 0x4276 <isspace+0x2>
    4282:	08 95       	ret

00004284 <strchr_P>:
    4284:	fc 01       	movw	r30, r24
    4286:	05 90       	lpm	r0, Z+
    4288:	06 16       	cp	r0, r22
    428a:	21 f0       	breq	.+8      	; 0x4294 <strchr_P+0x10>
    428c:	00 20       	and	r0, r0
    428e:	d9 f7       	brne	.-10     	; 0x4286 <strchr_P+0x2>
    4290:	c0 01       	movw	r24, r0
    4292:	08 95       	ret
    4294:	31 97       	sbiw	r30, 0x01	; 1
    4296:	cf 01       	movw	r24, r30
    4298:	08 95       	ret

0000429a <strnlen_P>:
    429a:	fc 01       	movw	r30, r24
    429c:	05 90       	lpm	r0, Z+
    429e:	61 50       	subi	r22, 0x01	; 1
    42a0:	70 40       	sbci	r23, 0x00	; 0
    42a2:	01 10       	cpse	r0, r1
    42a4:	d8 f7       	brcc	.-10     	; 0x429c <strnlen_P+0x2>
    42a6:	80 95       	com	r24
    42a8:	90 95       	com	r25
    42aa:	8e 0f       	add	r24, r30
    42ac:	9f 1f       	adc	r25, r31
    42ae:	08 95       	ret

000042b0 <memset>:
    42b0:	dc 01       	movw	r26, r24
    42b2:	01 c0       	rjmp	.+2      	; 0x42b6 <memset+0x6>
    42b4:	6d 93       	st	X+, r22
    42b6:	41 50       	subi	r20, 0x01	; 1
    42b8:	50 40       	sbci	r21, 0x00	; 0
    42ba:	e0 f7       	brcc	.-8      	; 0x42b4 <memset+0x4>
    42bc:	08 95       	ret

000042be <strnlen>:
    42be:	fc 01       	movw	r30, r24
    42c0:	61 50       	subi	r22, 0x01	; 1
    42c2:	70 40       	sbci	r23, 0x00	; 0
    42c4:	01 90       	ld	r0, Z+
    42c6:	01 10       	cpse	r0, r1
    42c8:	d8 f7       	brcc	.-10     	; 0x42c0 <strnlen+0x2>
    42ca:	80 95       	com	r24
    42cc:	90 95       	com	r25
    42ce:	8e 0f       	add	r24, r30
    42d0:	9f 1f       	adc	r25, r31
    42d2:	08 95       	ret

000042d4 <fgetc>:
    42d4:	cf 93       	push	r28
    42d6:	df 93       	push	r29
    42d8:	ec 01       	movw	r28, r24
    42da:	2b 81       	ldd	r18, Y+3	; 0x03
    42dc:	20 ff       	sbrs	r18, 0
    42de:	33 c0       	rjmp	.+102    	; 0x4346 <fgetc+0x72>
    42e0:	26 ff       	sbrs	r18, 6
    42e2:	0a c0       	rjmp	.+20     	; 0x42f8 <fgetc+0x24>
    42e4:	2f 7b       	andi	r18, 0xBF	; 191
    42e6:	2b 83       	std	Y+3, r18	; 0x03
    42e8:	8e 81       	ldd	r24, Y+6	; 0x06
    42ea:	9f 81       	ldd	r25, Y+7	; 0x07
    42ec:	01 96       	adiw	r24, 0x01	; 1
    42ee:	8e 83       	std	Y+6, r24	; 0x06
    42f0:	9f 83       	std	Y+7, r25	; 0x07
    42f2:	8a 81       	ldd	r24, Y+2	; 0x02
    42f4:	90 e0       	ldi	r25, 0x00	; 0
    42f6:	29 c0       	rjmp	.+82     	; 0x434a <fgetc+0x76>
    42f8:	22 ff       	sbrs	r18, 2
    42fa:	0f c0       	rjmp	.+30     	; 0x431a <fgetc+0x46>
    42fc:	e8 81       	ld	r30, Y
    42fe:	f9 81       	ldd	r31, Y+1	; 0x01
    4300:	80 81       	ld	r24, Z
    4302:	08 2e       	mov	r0, r24
    4304:	00 0c       	add	r0, r0
    4306:	99 0b       	sbc	r25, r25
    4308:	00 97       	sbiw	r24, 0x00	; 0
    430a:	19 f4       	brne	.+6      	; 0x4312 <fgetc+0x3e>
    430c:	20 62       	ori	r18, 0x20	; 32
    430e:	2b 83       	std	Y+3, r18	; 0x03
    4310:	1a c0       	rjmp	.+52     	; 0x4346 <fgetc+0x72>
    4312:	31 96       	adiw	r30, 0x01	; 1
    4314:	e8 83       	st	Y, r30
    4316:	f9 83       	std	Y+1, r31	; 0x01
    4318:	0e c0       	rjmp	.+28     	; 0x4336 <fgetc+0x62>
    431a:	ea 85       	ldd	r30, Y+10	; 0x0a
    431c:	fb 85       	ldd	r31, Y+11	; 0x0b
    431e:	19 95       	eicall
    4320:	97 ff       	sbrs	r25, 7
    4322:	09 c0       	rjmp	.+18     	; 0x4336 <fgetc+0x62>
    4324:	2b 81       	ldd	r18, Y+3	; 0x03
    4326:	01 96       	adiw	r24, 0x01	; 1
    4328:	11 f0       	breq	.+4      	; 0x432e <fgetc+0x5a>
    432a:	80 e2       	ldi	r24, 0x20	; 32
    432c:	01 c0       	rjmp	.+2      	; 0x4330 <fgetc+0x5c>
    432e:	80 e1       	ldi	r24, 0x10	; 16
    4330:	82 2b       	or	r24, r18
    4332:	8b 83       	std	Y+3, r24	; 0x03
    4334:	08 c0       	rjmp	.+16     	; 0x4346 <fgetc+0x72>
    4336:	2e 81       	ldd	r18, Y+6	; 0x06
    4338:	3f 81       	ldd	r19, Y+7	; 0x07
    433a:	2f 5f       	subi	r18, 0xFF	; 255
    433c:	3f 4f       	sbci	r19, 0xFF	; 255
    433e:	2e 83       	std	Y+6, r18	; 0x06
    4340:	3f 83       	std	Y+7, r19	; 0x07
    4342:	99 27       	eor	r25, r25
    4344:	02 c0       	rjmp	.+4      	; 0x434a <fgetc+0x76>
    4346:	8f ef       	ldi	r24, 0xFF	; 255
    4348:	9f ef       	ldi	r25, 0xFF	; 255
    434a:	df 91       	pop	r29
    434c:	cf 91       	pop	r28
    434e:	08 95       	ret

00004350 <fputc>:
    4350:	0f 93       	push	r16
    4352:	1f 93       	push	r17
    4354:	cf 93       	push	r28
    4356:	df 93       	push	r29
    4358:	fb 01       	movw	r30, r22
    435a:	23 81       	ldd	r18, Z+3	; 0x03
    435c:	21 fd       	sbrc	r18, 1
    435e:	03 c0       	rjmp	.+6      	; 0x4366 <fputc+0x16>
    4360:	8f ef       	ldi	r24, 0xFF	; 255
    4362:	9f ef       	ldi	r25, 0xFF	; 255
    4364:	2c c0       	rjmp	.+88     	; 0x43be <fputc+0x6e>
    4366:	22 ff       	sbrs	r18, 2
    4368:	16 c0       	rjmp	.+44     	; 0x4396 <fputc+0x46>
    436a:	46 81       	ldd	r20, Z+6	; 0x06
    436c:	57 81       	ldd	r21, Z+7	; 0x07
    436e:	24 81       	ldd	r18, Z+4	; 0x04
    4370:	35 81       	ldd	r19, Z+5	; 0x05
    4372:	42 17       	cp	r20, r18
    4374:	53 07       	cpc	r21, r19
    4376:	44 f4       	brge	.+16     	; 0x4388 <fputc+0x38>
    4378:	a0 81       	ld	r26, Z
    437a:	b1 81       	ldd	r27, Z+1	; 0x01
    437c:	9d 01       	movw	r18, r26
    437e:	2f 5f       	subi	r18, 0xFF	; 255
    4380:	3f 4f       	sbci	r19, 0xFF	; 255
    4382:	20 83       	st	Z, r18
    4384:	31 83       	std	Z+1, r19	; 0x01
    4386:	8c 93       	st	X, r24
    4388:	26 81       	ldd	r18, Z+6	; 0x06
    438a:	37 81       	ldd	r19, Z+7	; 0x07
    438c:	2f 5f       	subi	r18, 0xFF	; 255
    438e:	3f 4f       	sbci	r19, 0xFF	; 255
    4390:	26 83       	std	Z+6, r18	; 0x06
    4392:	37 83       	std	Z+7, r19	; 0x07
    4394:	14 c0       	rjmp	.+40     	; 0x43be <fputc+0x6e>
    4396:	8b 01       	movw	r16, r22
    4398:	ec 01       	movw	r28, r24
    439a:	fb 01       	movw	r30, r22
    439c:	00 84       	ldd	r0, Z+8	; 0x08
    439e:	f1 85       	ldd	r31, Z+9	; 0x09
    43a0:	e0 2d       	mov	r30, r0
    43a2:	19 95       	eicall
    43a4:	89 2b       	or	r24, r25
    43a6:	e1 f6       	brne	.-72     	; 0x4360 <fputc+0x10>
    43a8:	d8 01       	movw	r26, r16
    43aa:	16 96       	adiw	r26, 0x06	; 6
    43ac:	8d 91       	ld	r24, X+
    43ae:	9c 91       	ld	r25, X
    43b0:	17 97       	sbiw	r26, 0x07	; 7
    43b2:	01 96       	adiw	r24, 0x01	; 1
    43b4:	16 96       	adiw	r26, 0x06	; 6
    43b6:	8d 93       	st	X+, r24
    43b8:	9c 93       	st	X, r25
    43ba:	17 97       	sbiw	r26, 0x07	; 7
    43bc:	ce 01       	movw	r24, r28
    43be:	df 91       	pop	r29
    43c0:	cf 91       	pop	r28
    43c2:	1f 91       	pop	r17
    43c4:	0f 91       	pop	r16
    43c6:	08 95       	ret

000043c8 <ungetc>:
    43c8:	fb 01       	movw	r30, r22
    43ca:	23 81       	ldd	r18, Z+3	; 0x03
    43cc:	20 ff       	sbrs	r18, 0
    43ce:	12 c0       	rjmp	.+36     	; 0x43f4 <ungetc+0x2c>
    43d0:	26 fd       	sbrc	r18, 6
    43d2:	10 c0       	rjmp	.+32     	; 0x43f4 <ungetc+0x2c>
    43d4:	8f 3f       	cpi	r24, 0xFF	; 255
    43d6:	3f ef       	ldi	r19, 0xFF	; 255
    43d8:	93 07       	cpc	r25, r19
    43da:	61 f0       	breq	.+24     	; 0x43f4 <ungetc+0x2c>
    43dc:	82 83       	std	Z+2, r24	; 0x02
    43de:	2f 7d       	andi	r18, 0xDF	; 223
    43e0:	20 64       	ori	r18, 0x40	; 64
    43e2:	23 83       	std	Z+3, r18	; 0x03
    43e4:	26 81       	ldd	r18, Z+6	; 0x06
    43e6:	37 81       	ldd	r19, Z+7	; 0x07
    43e8:	21 50       	subi	r18, 0x01	; 1
    43ea:	31 09       	sbc	r19, r1
    43ec:	26 83       	std	Z+6, r18	; 0x06
    43ee:	37 83       	std	Z+7, r19	; 0x07
    43f0:	99 27       	eor	r25, r25
    43f2:	08 95       	ret
    43f4:	8f ef       	ldi	r24, 0xFF	; 255
    43f6:	9f ef       	ldi	r25, 0xFF	; 255
    43f8:	08 95       	ret

000043fa <__ultoa_invert>:
    43fa:	fa 01       	movw	r30, r20
    43fc:	aa 27       	eor	r26, r26
    43fe:	28 30       	cpi	r18, 0x08	; 8
    4400:	51 f1       	breq	.+84     	; 0x4456 <__ultoa_invert+0x5c>
    4402:	20 31       	cpi	r18, 0x10	; 16
    4404:	81 f1       	breq	.+96     	; 0x4466 <__ultoa_invert+0x6c>
    4406:	e8 94       	clt
    4408:	6f 93       	push	r22
    440a:	6e 7f       	andi	r22, 0xFE	; 254
    440c:	6e 5f       	subi	r22, 0xFE	; 254
    440e:	7f 4f       	sbci	r23, 0xFF	; 255
    4410:	8f 4f       	sbci	r24, 0xFF	; 255
    4412:	9f 4f       	sbci	r25, 0xFF	; 255
    4414:	af 4f       	sbci	r26, 0xFF	; 255
    4416:	b1 e0       	ldi	r27, 0x01	; 1
    4418:	3e d0       	rcall	.+124    	; 0x4496 <__ultoa_invert+0x9c>
    441a:	b4 e0       	ldi	r27, 0x04	; 4
    441c:	3c d0       	rcall	.+120    	; 0x4496 <__ultoa_invert+0x9c>
    441e:	67 0f       	add	r22, r23
    4420:	78 1f       	adc	r23, r24
    4422:	89 1f       	adc	r24, r25
    4424:	9a 1f       	adc	r25, r26
    4426:	a1 1d       	adc	r26, r1
    4428:	68 0f       	add	r22, r24
    442a:	79 1f       	adc	r23, r25
    442c:	8a 1f       	adc	r24, r26
    442e:	91 1d       	adc	r25, r1
    4430:	a1 1d       	adc	r26, r1
    4432:	6a 0f       	add	r22, r26
    4434:	71 1d       	adc	r23, r1
    4436:	81 1d       	adc	r24, r1
    4438:	91 1d       	adc	r25, r1
    443a:	a1 1d       	adc	r26, r1
    443c:	20 d0       	rcall	.+64     	; 0x447e <__ultoa_invert+0x84>
    443e:	09 f4       	brne	.+2      	; 0x4442 <__ultoa_invert+0x48>
    4440:	68 94       	set
    4442:	3f 91       	pop	r19
    4444:	2a e0       	ldi	r18, 0x0A	; 10
    4446:	26 9f       	mul	r18, r22
    4448:	11 24       	eor	r1, r1
    444a:	30 19       	sub	r19, r0
    444c:	30 5d       	subi	r19, 0xD0	; 208
    444e:	31 93       	st	Z+, r19
    4450:	de f6       	brtc	.-74     	; 0x4408 <__ultoa_invert+0xe>
    4452:	cf 01       	movw	r24, r30
    4454:	08 95       	ret
    4456:	46 2f       	mov	r20, r22
    4458:	47 70       	andi	r20, 0x07	; 7
    445a:	40 5d       	subi	r20, 0xD0	; 208
    445c:	41 93       	st	Z+, r20
    445e:	b3 e0       	ldi	r27, 0x03	; 3
    4460:	0f d0       	rcall	.+30     	; 0x4480 <__ultoa_invert+0x86>
    4462:	c9 f7       	brne	.-14     	; 0x4456 <__ultoa_invert+0x5c>
    4464:	f6 cf       	rjmp	.-20     	; 0x4452 <__ultoa_invert+0x58>
    4466:	46 2f       	mov	r20, r22
    4468:	4f 70       	andi	r20, 0x0F	; 15
    446a:	40 5d       	subi	r20, 0xD0	; 208
    446c:	4a 33       	cpi	r20, 0x3A	; 58
    446e:	18 f0       	brcs	.+6      	; 0x4476 <__ultoa_invert+0x7c>
    4470:	49 5d       	subi	r20, 0xD9	; 217
    4472:	31 fd       	sbrc	r19, 1
    4474:	40 52       	subi	r20, 0x20	; 32
    4476:	41 93       	st	Z+, r20
    4478:	02 d0       	rcall	.+4      	; 0x447e <__ultoa_invert+0x84>
    447a:	a9 f7       	brne	.-22     	; 0x4466 <__ultoa_invert+0x6c>
    447c:	ea cf       	rjmp	.-44     	; 0x4452 <__ultoa_invert+0x58>
    447e:	b4 e0       	ldi	r27, 0x04	; 4
    4480:	a6 95       	lsr	r26
    4482:	97 95       	ror	r25
    4484:	87 95       	ror	r24
    4486:	77 95       	ror	r23
    4488:	67 95       	ror	r22
    448a:	ba 95       	dec	r27
    448c:	c9 f7       	brne	.-14     	; 0x4480 <__ultoa_invert+0x86>
    448e:	00 97       	sbiw	r24, 0x00	; 0
    4490:	61 05       	cpc	r22, r1
    4492:	71 05       	cpc	r23, r1
    4494:	08 95       	ret
    4496:	9b 01       	movw	r18, r22
    4498:	ac 01       	movw	r20, r24
    449a:	0a 2e       	mov	r0, r26
    449c:	06 94       	lsr	r0
    449e:	57 95       	ror	r21
    44a0:	47 95       	ror	r20
    44a2:	37 95       	ror	r19
    44a4:	27 95       	ror	r18
    44a6:	ba 95       	dec	r27
    44a8:	c9 f7       	brne	.-14     	; 0x449c <__ultoa_invert+0xa2>
    44aa:	62 0f       	add	r22, r18
    44ac:	73 1f       	adc	r23, r19
    44ae:	84 1f       	adc	r24, r20
    44b0:	95 1f       	adc	r25, r21
    44b2:	a0 1d       	adc	r26, r0
    44b4:	08 95       	ret

000044b6 <__ctype_isfalse>:
    44b6:	99 27       	eor	r25, r25
    44b8:	88 27       	eor	r24, r24

000044ba <__ctype_istrue>:
    44ba:	08 95       	ret

000044bc <_exit>:
    44bc:	f8 94       	cli

000044be <__stop_program>:
    44be:	ff cf       	rjmp	.-2      	; 0x44be <__stop_program>
