
SkyFire.elf:     file format elf32-avr

Sections:
Idx Name          Size      VMA       LMA       File off  Algn
  0 .text         00002240  00000000  00000000  00000094  2**1
                  CONTENTS, ALLOC, LOAD, READONLY, CODE
  1 .data         00000068  00802000  00002240  000022d4  2**0
                  CONTENTS, ALLOC, LOAD, DATA
  2 .bss          00000025  00802068  00802068  0000233c  2**0
                  ALLOC
  3 .comment      0000005c  00000000  00000000  0000233c  2**0
                  CONTENTS, READONLY
  4 .note.gnu.avr.deviceinfo 00000040  00000000  00000000  00002398  2**2
                  CONTENTS, READONLY
  5 .debug_aranges 000002a0  00000000  00000000  000023d8  2**0
                  CONTENTS, READONLY, DEBUGGING
  6 .debug_info   0000e673  00000000  00000000  00002678  2**0
                  CONTENTS, READONLY, DEBUGGING
  7 .debug_abbrev 00005205  00000000  00000000  00010ceb  2**0
                  CONTENTS, READONLY, DEBUGGING
  8 .debug_line   000055ab  00000000  00000000  00015ef0  2**0
                  CONTENTS, READONLY, DEBUGGING
  9 .debug_frame  00000a60  00000000  00000000  0001b49c  2**2
                  CONTENTS, READONLY, DEBUGGING
 10 .debug_str    00032802  00000000  00000000  0001befc  2**0
                  CONTENTS, READONLY, DEBUGGING
 11 .debug_loc    00002e8e  00000000  00000000  0004e6fe  2**0
                  CONTENTS, READONLY, DEBUGGING
 12 .debug_ranges 00000238  00000000  00000000  0005158c  2**0
                  CONTENTS, READONLY, DEBUGGING
 13 .debug_macro  00002317  00000000  00000000  000517c4  2**0
                  CONTENTS, READONLY, DEBUGGING

Disassembly of section .text:

00000000 <__vectors>:
       0:	3e c1       	rjmp	.+636    	; 0x27e <__ctors_end>
       2:	00 00       	nop
       4:	61 c1       	rjmp	.+706    	; 0x2c8 <__bad_interrupt>
       6:	00 00       	nop
       8:	5f c1       	rjmp	.+702    	; 0x2c8 <__bad_interrupt>
       a:	00 00       	nop
       c:	5d c1       	rjmp	.+698    	; 0x2c8 <__bad_interrupt>
       e:	00 00       	nop
      10:	5b c1       	rjmp	.+694    	; 0x2c8 <__bad_interrupt>
      12:	00 00       	nop
      14:	59 c1       	rjmp	.+690    	; 0x2c8 <__bad_interrupt>
      16:	00 00       	nop
      18:	57 c1       	rjmp	.+686    	; 0x2c8 <__bad_interrupt>
      1a:	00 00       	nop
      1c:	55 c1       	rjmp	.+682    	; 0x2c8 <__bad_interrupt>
      1e:	00 00       	nop
      20:	53 c1       	rjmp	.+678    	; 0x2c8 <__bad_interrupt>
      22:	00 00       	nop
      24:	51 c1       	rjmp	.+674    	; 0x2c8 <__bad_interrupt>
      26:	00 00       	nop
      28:	4f c1       	rjmp	.+670    	; 0x2c8 <__bad_interrupt>
      2a:	00 00       	nop
      2c:	4d c1       	rjmp	.+666    	; 0x2c8 <__bad_interrupt>
      2e:	00 00       	nop
      30:	4b c1       	rjmp	.+662    	; 0x2c8 <__bad_interrupt>
      32:	00 00       	nop
      34:	49 c1       	rjmp	.+658    	; 0x2c8 <__bad_interrupt>
      36:	00 00       	nop
      38:	47 c1       	rjmp	.+654    	; 0x2c8 <__bad_interrupt>
      3a:	00 00       	nop
      3c:	45 c1       	rjmp	.+650    	; 0x2c8 <__bad_interrupt>
      3e:	00 00       	nop
      40:	43 c1       	rjmp	.+646    	; 0x2c8 <__bad_interrupt>
      42:	00 00       	nop
      44:	41 c1       	rjmp	.+642    	; 0x2c8 <__bad_interrupt>
      46:	00 00       	nop
      48:	3f c1       	rjmp	.+638    	; 0x2c8 <__bad_interrupt>
      4a:	00 00       	nop
      4c:	3d c1       	rjmp	.+634    	; 0x2c8 <__bad_interrupt>
      4e:	00 00       	nop
      50:	3b c1       	rjmp	.+630    	; 0x2c8 <__bad_interrupt>
      52:	00 00       	nop
      54:	39 c1       	rjmp	.+626    	; 0x2c8 <__bad_interrupt>
      56:	00 00       	nop
      58:	37 c1       	rjmp	.+622    	; 0x2c8 <__bad_interrupt>
      5a:	00 00       	nop
      5c:	35 c1       	rjmp	.+618    	; 0x2c8 <__bad_interrupt>
      5e:	00 00       	nop
      60:	33 c1       	rjmp	.+614    	; 0x2c8 <__bad_interrupt>
      62:	00 00       	nop
      64:	31 c1       	rjmp	.+610    	; 0x2c8 <__bad_interrupt>
      66:	00 00       	nop
      68:	2f c1       	rjmp	.+606    	; 0x2c8 <__bad_interrupt>
      6a:	00 00       	nop
      6c:	2d c1       	rjmp	.+602    	; 0x2c8 <__bad_interrupt>
      6e:	00 00       	nop
      70:	2b c1       	rjmp	.+598    	; 0x2c8 <__bad_interrupt>
      72:	00 00       	nop
      74:	29 c1       	rjmp	.+594    	; 0x2c8 <__bad_interrupt>
      76:	00 00       	nop
      78:	27 c1       	rjmp	.+590    	; 0x2c8 <__bad_interrupt>
      7a:	00 00       	nop
      7c:	25 c1       	rjmp	.+586    	; 0x2c8 <__bad_interrupt>
      7e:	00 00       	nop
      80:	23 c1       	rjmp	.+582    	; 0x2c8 <__bad_interrupt>
      82:	00 00       	nop
      84:	21 c1       	rjmp	.+578    	; 0x2c8 <__bad_interrupt>
      86:	00 00       	nop
      88:	1f c1       	rjmp	.+574    	; 0x2c8 <__bad_interrupt>
      8a:	00 00       	nop
      8c:	1d c1       	rjmp	.+570    	; 0x2c8 <__bad_interrupt>
      8e:	00 00       	nop
      90:	1b c1       	rjmp	.+566    	; 0x2c8 <__bad_interrupt>
      92:	00 00       	nop
      94:	19 c1       	rjmp	.+562    	; 0x2c8 <__bad_interrupt>
      96:	00 00       	nop
      98:	17 c1       	rjmp	.+558    	; 0x2c8 <__bad_interrupt>
      9a:	00 00       	nop
      9c:	35 c2       	rjmp	.+1130   	; 0x508 <__vector_39>
      9e:	00 00       	nop
      a0:	70 c2       	rjmp	.+1248   	; 0x582 <__vector_40>
      a2:	00 00       	nop
      a4:	ab c2       	rjmp	.+1366   	; 0x5fc <__vector_41>
      a6:	00 00       	nop
      a8:	e6 c2       	rjmp	.+1484   	; 0x676 <__vector_42>
      aa:	00 00       	nop
      ac:	0d c1       	rjmp	.+538    	; 0x2c8 <__bad_interrupt>
      ae:	00 00       	nop
      b0:	0b c1       	rjmp	.+534    	; 0x2c8 <__bad_interrupt>
      b2:	00 00       	nop
      b4:	09 c1       	rjmp	.+530    	; 0x2c8 <__bad_interrupt>
      b6:	00 00       	nop
      b8:	07 c1       	rjmp	.+526    	; 0x2c8 <__bad_interrupt>
      ba:	00 00       	nop
      bc:	05 c1       	rjmp	.+522    	; 0x2c8 <__bad_interrupt>
      be:	00 00       	nop
      c0:	03 c1       	rjmp	.+518    	; 0x2c8 <__bad_interrupt>
      c2:	00 00       	nop
      c4:	01 c1       	rjmp	.+514    	; 0x2c8 <__bad_interrupt>
      c6:	00 00       	nop
      c8:	ff c0       	rjmp	.+510    	; 0x2c8 <__bad_interrupt>
      ca:	00 00       	nop
      cc:	fd c0       	rjmp	.+506    	; 0x2c8 <__bad_interrupt>
      ce:	00 00       	nop
      d0:	fb c0       	rjmp	.+502    	; 0x2c8 <__bad_interrupt>
      d2:	00 00       	nop
      d4:	f9 c0       	rjmp	.+498    	; 0x2c8 <__bad_interrupt>
      d6:	00 00       	nop
      d8:	f7 c0       	rjmp	.+494    	; 0x2c8 <__bad_interrupt>
      da:	00 00       	nop
      dc:	f5 c0       	rjmp	.+490    	; 0x2c8 <__bad_interrupt>
      de:	00 00       	nop
      e0:	f3 c0       	rjmp	.+486    	; 0x2c8 <__bad_interrupt>
      e2:	00 00       	nop
      e4:	f1 c0       	rjmp	.+482    	; 0x2c8 <__bad_interrupt>
      e6:	00 00       	nop
      e8:	ef c0       	rjmp	.+478    	; 0x2c8 <__bad_interrupt>
      ea:	00 00       	nop
      ec:	ed c0       	rjmp	.+474    	; 0x2c8 <__bad_interrupt>
      ee:	00 00       	nop
      f0:	eb c0       	rjmp	.+470    	; 0x2c8 <__bad_interrupt>
      f2:	00 00       	nop
      f4:	e9 c0       	rjmp	.+466    	; 0x2c8 <__bad_interrupt>
      f6:	00 00       	nop
      f8:	e7 c0       	rjmp	.+462    	; 0x2c8 <__bad_interrupt>
      fa:	00 00       	nop
      fc:	e5 c0       	rjmp	.+458    	; 0x2c8 <__bad_interrupt>
      fe:	00 00       	nop
     100:	e3 c0       	rjmp	.+454    	; 0x2c8 <__bad_interrupt>
     102:	00 00       	nop
     104:	e1 c0       	rjmp	.+450    	; 0x2c8 <__bad_interrupt>
     106:	00 00       	nop
     108:	df c0       	rjmp	.+446    	; 0x2c8 <__bad_interrupt>
     10a:	00 00       	nop
     10c:	dd c0       	rjmp	.+442    	; 0x2c8 <__bad_interrupt>
     10e:	00 00       	nop
     110:	db c0       	rjmp	.+438    	; 0x2c8 <__bad_interrupt>
     112:	00 00       	nop
     114:	d9 c0       	rjmp	.+434    	; 0x2c8 <__bad_interrupt>
     116:	00 00       	nop
     118:	d7 c0       	rjmp	.+430    	; 0x2c8 <__bad_interrupt>
     11a:	00 00       	nop
     11c:	01 c1       	rjmp	.+514    	; 0x320 <__vector_71>
     11e:	00 00       	nop
     120:	3c c1       	rjmp	.+632    	; 0x39a <__vector_72>
     122:	00 00       	nop
     124:	77 c1       	rjmp	.+750    	; 0x414 <__vector_73>
     126:	00 00       	nop
     128:	b2 c1       	rjmp	.+868    	; 0x48e <__vector_74>
     12a:	00 00       	nop
     12c:	cd c0       	rjmp	.+410    	; 0x2c8 <__bad_interrupt>
     12e:	00 00       	nop
     130:	cb c0       	rjmp	.+406    	; 0x2c8 <__bad_interrupt>
     132:	00 00       	nop
     134:	c9 c0       	rjmp	.+402    	; 0x2c8 <__bad_interrupt>
     136:	00 00       	nop
     138:	c7 c0       	rjmp	.+398    	; 0x2c8 <__bad_interrupt>
     13a:	00 00       	nop
     13c:	c5 c0       	rjmp	.+394    	; 0x2c8 <__bad_interrupt>
     13e:	00 00       	nop
     140:	c3 c0       	rjmp	.+390    	; 0x2c8 <__bad_interrupt>
     142:	00 00       	nop
     144:	c1 c0       	rjmp	.+386    	; 0x2c8 <__bad_interrupt>
     146:	00 00       	nop
     148:	bf c0       	rjmp	.+382    	; 0x2c8 <__bad_interrupt>
     14a:	00 00       	nop
     14c:	bd c0       	rjmp	.+378    	; 0x2c8 <__bad_interrupt>
     14e:	00 00       	nop
     150:	bb c0       	rjmp	.+374    	; 0x2c8 <__bad_interrupt>
     152:	00 00       	nop
     154:	b9 c0       	rjmp	.+370    	; 0x2c8 <__bad_interrupt>
     156:	00 00       	nop
     158:	b7 c0       	rjmp	.+366    	; 0x2c8 <__bad_interrupt>
     15a:	00 00       	nop
     15c:	b5 c0       	rjmp	.+362    	; 0x2c8 <__bad_interrupt>
     15e:	00 00       	nop
     160:	b3 c0       	rjmp	.+358    	; 0x2c8 <__bad_interrupt>
     162:	00 00       	nop
     164:	b1 c0       	rjmp	.+354    	; 0x2c8 <__bad_interrupt>
     166:	00 00       	nop
     168:	af c0       	rjmp	.+350    	; 0x2c8 <__bad_interrupt>
     16a:	00 00       	nop
     16c:	ad c0       	rjmp	.+346    	; 0x2c8 <__bad_interrupt>
     16e:	00 00       	nop
     170:	ab c0       	rjmp	.+342    	; 0x2c8 <__bad_interrupt>
     172:	00 00       	nop
     174:	a9 c0       	rjmp	.+338    	; 0x2c8 <__bad_interrupt>
     176:	00 00       	nop
     178:	a7 c0       	rjmp	.+334    	; 0x2c8 <__bad_interrupt>
     17a:	00 00       	nop
     17c:	a5 c0       	rjmp	.+330    	; 0x2c8 <__bad_interrupt>
     17e:	00 00       	nop
     180:	a3 c0       	rjmp	.+326    	; 0x2c8 <__bad_interrupt>
     182:	00 00       	nop
     184:	a1 c0       	rjmp	.+322    	; 0x2c8 <__bad_interrupt>
     186:	00 00       	nop
     188:	9f c0       	rjmp	.+318    	; 0x2c8 <__bad_interrupt>
     18a:	00 00       	nop
     18c:	9d c0       	rjmp	.+314    	; 0x2c8 <__bad_interrupt>
     18e:	00 00       	nop
     190:	9b c0       	rjmp	.+310    	; 0x2c8 <__bad_interrupt>
     192:	00 00       	nop
     194:	99 c0       	rjmp	.+306    	; 0x2c8 <__bad_interrupt>
     196:	00 00       	nop
     198:	97 c0       	rjmp	.+302    	; 0x2c8 <__bad_interrupt>
     19a:	00 00       	nop
     19c:	95 c0       	rjmp	.+298    	; 0x2c8 <__bad_interrupt>
     19e:	00 00       	nop
     1a0:	93 c0       	rjmp	.+294    	; 0x2c8 <__bad_interrupt>
     1a2:	00 00       	nop
     1a4:	91 c0       	rjmp	.+290    	; 0x2c8 <__bad_interrupt>
     1a6:	00 00       	nop
     1a8:	8f c0       	rjmp	.+286    	; 0x2c8 <__bad_interrupt>
     1aa:	00 00       	nop
     1ac:	8d c0       	rjmp	.+282    	; 0x2c8 <__bad_interrupt>
     1ae:	00 00       	nop
     1b0:	8b c0       	rjmp	.+278    	; 0x2c8 <__bad_interrupt>
     1b2:	00 00       	nop
     1b4:	89 c0       	rjmp	.+274    	; 0x2c8 <__bad_interrupt>
     1b6:	00 00       	nop
     1b8:	87 c0       	rjmp	.+270    	; 0x2c8 <__bad_interrupt>
     1ba:	00 00       	nop
     1bc:	85 c0       	rjmp	.+266    	; 0x2c8 <__bad_interrupt>
     1be:	00 00       	nop
     1c0:	83 c0       	rjmp	.+262    	; 0x2c8 <__bad_interrupt>
     1c2:	00 00       	nop
     1c4:	81 c0       	rjmp	.+258    	; 0x2c8 <__bad_interrupt>
     1c6:	00 00       	nop
     1c8:	7f c0       	rjmp	.+254    	; 0x2c8 <__bad_interrupt>
     1ca:	00 00       	nop
     1cc:	7d c0       	rjmp	.+250    	; 0x2c8 <__bad_interrupt>
     1ce:	00 00       	nop
     1d0:	7b c0       	rjmp	.+246    	; 0x2c8 <__bad_interrupt>
     1d2:	00 00       	nop
     1d4:	79 c0       	rjmp	.+242    	; 0x2c8 <__bad_interrupt>
     1d6:	00 00       	nop
     1d8:	77 c0       	rjmp	.+238    	; 0x2c8 <__bad_interrupt>
     1da:	00 00       	nop
     1dc:	75 c0       	rjmp	.+234    	; 0x2c8 <__bad_interrupt>
     1de:	00 00       	nop
     1e0:	73 c0       	rjmp	.+230    	; 0x2c8 <__bad_interrupt>
     1e2:	00 00       	nop
     1e4:	71 c0       	rjmp	.+226    	; 0x2c8 <__bad_interrupt>
     1e6:	00 00       	nop
     1e8:	6f c0       	rjmp	.+222    	; 0x2c8 <__bad_interrupt>
     1ea:	00 00       	nop
     1ec:	6d c0       	rjmp	.+218    	; 0x2c8 <__bad_interrupt>
     1ee:	00 00       	nop
     1f0:	6b c0       	rjmp	.+214    	; 0x2c8 <__bad_interrupt>
     1f2:	00 00       	nop
     1f4:	69 c0       	rjmp	.+210    	; 0x2c8 <__bad_interrupt>
     1f6:	00 00       	nop
     1f8:	67 c0       	rjmp	.+206    	; 0x2c8 <__bad_interrupt>
     1fa:	00 00       	nop
     1fc:	08 00       	.word	0x0008	; ????
     1fe:	00 00       	nop
     200:	be 92       	st	-X, r11
     202:	24 49       	sbci	r18, 0x94	; 148
     204:	12 3e       	cpi	r17, 0xE2	; 226
     206:	ab aa       	std	Y+51, r10	; 0x33
     208:	aa 2a       	or	r10, r26
     20a:	be cd       	rjmp	.-1156   	; 0xfffffd88 <__eeprom_end+0xff7efd88>
     20c:	cc cc       	rjmp	.-1640   	; 0xfffffba6 <__eeprom_end+0xff7efba6>
     20e:	4c 3e       	cpi	r20, 0xEC	; 236
     210:	00 00       	nop
     212:	00 80       	ld	r0, Z
     214:	be ab       	std	Y+54, r27	; 0x36
     216:	aa aa       	std	Y+50, r10	; 0x32
     218:	aa 3e       	cpi	r26, 0xEA	; 234
     21a:	00 00       	nop
     21c:	00 00       	nop
     21e:	bf 00       	.word	0x00bf	; ????
     220:	00 00       	nop
     222:	80 3f       	cpi	r24, 0xF0	; 240
     224:	00 00       	nop
     226:	00 00       	nop
     228:	00 08       	sbc	r0, r0
     22a:	41 78       	andi	r20, 0x81	; 129
     22c:	d3 bb       	out	0x13, r29	; 19
     22e:	43 87       	std	Z+11, r20	; 0x0b
     230:	d1 13       	cpse	r29, r17
     232:	3d 19       	sub	r19, r13
     234:	0e 3c       	cpi	r16, 0xCE	; 206
     236:	c3 bd       	out	0x23, r28	; 35
     238:	42 82       	std	Z+2, r4	; 0x02
     23a:	ad 2b       	or	r26, r29
     23c:	3e 68       	ori	r19, 0x8E	; 142
     23e:	ec 82       	std	Y+4, r14	; 0x04
     240:	76 be       	out	0x36, r7	; 54
     242:	d9 8f       	std	Y+25, r29	; 0x19
     244:	e1 a9       	ldd	r30, Z+49	; 0x31
     246:	3e 4c       	sbci	r19, 0xCE	; 206
     248:	80 ef       	ldi	r24, 0xF0	; 240
     24a:	ff be       	out	0x3f, r15	; 63
     24c:	01 c4       	rjmp	.+2050   	; 0xa50 <usart_init_rs232+0x11e>
     24e:	ff 7f       	andi	r31, 0xFF	; 255
     250:	3f 00       	.word	0x003f	; ????
     252:	00 00       	nop
     254:	00 00       	nop
     256:	07 63       	ori	r16, 0x37	; 55
     258:	42 36       	cpi	r20, 0x62	; 98
     25a:	b7 9b       	sbis	0x16, 7	; 22
     25c:	d8 a7       	std	Y+40, r29	; 0x28
     25e:	1a 39       	cpi	r17, 0x9A	; 154
     260:	68 56       	subi	r22, 0x68	; 104
     262:	18 ae       	std	Y+56, r1	; 0x38
     264:	ba ab       	std	Y+50, r27	; 0x32
     266:	55 8c       	ldd	r5, Z+29	; 0x1d
     268:	1d 3c       	cpi	r17, 0xCD	; 205
     26a:	b7 cc       	rjmp	.-1682   	; 0xfffffbda <__eeprom_end+0xff7efbda>
     26c:	57 63       	ori	r21, 0x37	; 55
     26e:	bd 6d       	ori	r27, 0xDD	; 221
     270:	ed fd       	.word	0xfded	; ????
     272:	75 3e       	cpi	r23, 0xE5	; 229
     274:	f6 17       	cp	r31, r22
     276:	72 31       	cpi	r23, 0x12	; 18
     278:	bf 00       	.word	0x00bf	; ????
     27a:	00 00       	nop
     27c:	80 3f       	cpi	r24, 0xF0	; 240

0000027e <__ctors_end>:
     27e:	11 24       	eor	r1, r1
     280:	1f be       	out	0x3f, r1	; 63
     282:	cf ef       	ldi	r28, 0xFF	; 255
     284:	cd bf       	out	0x3d, r28	; 61
     286:	df e3       	ldi	r29, 0x3F	; 63
     288:	de bf       	out	0x3e, r29	; 62
     28a:	00 e0       	ldi	r16, 0x00	; 0
     28c:	0c bf       	out	0x3c, r16	; 60
     28e:	18 be       	out	0x38, r1	; 56
     290:	19 be       	out	0x39, r1	; 57
     292:	1a be       	out	0x3a, r1	; 58
     294:	1b be       	out	0x3b, r1	; 59

00000296 <__do_copy_data>:
     296:	10 e2       	ldi	r17, 0x20	; 32
     298:	a0 e0       	ldi	r26, 0x00	; 0
     29a:	b0 e2       	ldi	r27, 0x20	; 32
     29c:	e0 e4       	ldi	r30, 0x40	; 64
     29e:	f2 e2       	ldi	r31, 0x22	; 34
     2a0:	00 e0       	ldi	r16, 0x00	; 0
     2a2:	0b bf       	out	0x3b, r16	; 59
     2a4:	02 c0       	rjmp	.+4      	; 0x2aa <__do_copy_data+0x14>
     2a6:	07 90       	elpm	r0, Z+
     2a8:	0d 92       	st	X+, r0
     2aa:	a8 36       	cpi	r26, 0x68	; 104
     2ac:	b1 07       	cpc	r27, r17
     2ae:	d9 f7       	brne	.-10     	; 0x2a6 <__do_copy_data+0x10>
     2b0:	1b be       	out	0x3b, r1	; 59

000002b2 <__do_clear_bss>:
     2b2:	20 e2       	ldi	r18, 0x20	; 32
     2b4:	a8 e6       	ldi	r26, 0x68	; 104
     2b6:	b0 e2       	ldi	r27, 0x20	; 32
     2b8:	01 c0       	rjmp	.+2      	; 0x2bc <.do_clear_bss_start>

000002ba <.do_clear_bss_loop>:
     2ba:	1d 92       	st	X+, r1

000002bc <.do_clear_bss_start>:
     2bc:	ad 38       	cpi	r26, 0x8D	; 141
     2be:	b2 07       	cpc	r27, r18
     2c0:	e1 f7       	brne	.-8      	; 0x2ba <.do_clear_bss_loop>
     2c2:	3e d7       	rcall	.+3708   	; 0x1140 <main>
     2c4:	0c 94 1e 11 	jmp	0x223c	; 0x223c <_exit>

000002c8 <__bad_interrupt>:
     2c8:	9b ce       	rjmp	.-714    	; 0x0 <__vectors>

000002ca <_read>:
#elif (defined(__GNUC__) && (XMEGA || MEGA) )

int _read (int *f); // Remove GCC compiler warning

int _read (int *f)
{
     2ca:	cf 93       	push	r28
     2cc:	df 93       	push	r29
     2ce:	1f 92       	push	r1
     2d0:	cd b7       	in	r28, 0x3d	; 61
     2d2:	de b7       	in	r29, 0x3e	; 62
	char c;
	ptr_get(stdio_base,&c);
     2d4:	80 91 7d 20 	lds	r24, 0x207D	; 0x80207d <stdio_base>
     2d8:	90 91 7e 20 	lds	r25, 0x207E	; 0x80207e <stdio_base+0x1>
     2dc:	e0 91 79 20 	lds	r30, 0x2079	; 0x802079 <ptr_get>
     2e0:	f0 91 7a 20 	lds	r31, 0x207A	; 0x80207a <ptr_get+0x1>
     2e4:	be 01       	movw	r22, r28
     2e6:	6f 5f       	subi	r22, 0xFF	; 255
     2e8:	7f 4f       	sbci	r23, 0xFF	; 255
     2ea:	19 95       	eicall
	return c;
     2ec:	89 81       	ldd	r24, Y+1	; 0x01
}
     2ee:	08 2e       	mov	r0, r24
     2f0:	00 0c       	add	r0, r0
     2f2:	99 0b       	sbc	r25, r25
     2f4:	0f 90       	pop	r0
     2f6:	df 91       	pop	r29
     2f8:	cf 91       	pop	r28
     2fa:	08 95       	ret

000002fc <_write>:
#elif (defined(__GNUC__) && (XMEGA || MEGA))

int _write (char c, int *f);

int _write (char c, int *f)
{
     2fc:	68 2f       	mov	r22, r24
	if (ptr_put(stdio_base, c) < 0) {
     2fe:	80 91 7d 20 	lds	r24, 0x207D	; 0x80207d <stdio_base>
     302:	90 91 7e 20 	lds	r25, 0x207E	; 0x80207e <stdio_base+0x1>
     306:	e0 91 7b 20 	lds	r30, 0x207B	; 0x80207b <ptr_put>
     30a:	f0 91 7c 20 	lds	r31, 0x207C	; 0x80207c <ptr_put+0x1>
     30e:	19 95       	eicall
     310:	99 23       	and	r25, r25
     312:	1c f0       	brlt	.+6      	; 0x31a <_write+0x1e>
		return -1;
	}
	return 1;
     314:	81 e0       	ldi	r24, 0x01	; 1
     316:	90 e0       	ldi	r25, 0x00	; 0
     318:	08 95       	ret
int _write (char c, int *f);

int _write (char c, int *f)
{
	if (ptr_put(stdio_base, c) < 0) {
		return -1;
     31a:	8f ef       	ldi	r24, 0xFF	; 255
     31c:	9f ef       	ldi	r25, 0xFF	; 255
	}
	return 1;
}
     31e:	08 95       	ret

00000320 <__vector_71>:
 *
 * Calls the callback function that has been set for the ADC when the channel's
 * interrupt flag is set, if its interrupt has been enabled.
 */
ISR(ADCA_CH0_vect)
{
     320:	1f 92       	push	r1
     322:	0f 92       	push	r0
     324:	0f b6       	in	r0, 0x3f	; 63
     326:	0f 92       	push	r0
     328:	11 24       	eor	r1, r1
     32a:	08 b6       	in	r0, 0x38	; 56
     32c:	0f 92       	push	r0
     32e:	18 be       	out	0x38, r1	; 56
     330:	09 b6       	in	r0, 0x39	; 57
     332:	0f 92       	push	r0
     334:	19 be       	out	0x39, r1	; 57
     336:	0b b6       	in	r0, 0x3b	; 59
     338:	0f 92       	push	r0
     33a:	1b be       	out	0x3b, r1	; 59
     33c:	2f 93       	push	r18
     33e:	3f 93       	push	r19
     340:	4f 93       	push	r20
     342:	5f 93       	push	r21
     344:	6f 93       	push	r22
     346:	7f 93       	push	r23
     348:	8f 93       	push	r24
     34a:	9f 93       	push	r25
     34c:	af 93       	push	r26
     34e:	bf 93       	push	r27
     350:	ef 93       	push	r30
     352:	ff 93       	push	r31
	adca_callback(&ADCA, ADC_CH0, adc_get_result(&ADCA, ADC_CH0));
     354:	40 91 24 02 	lds	r20, 0x0224	; 0x800224 <__TEXT_REGION_LENGTH__+0x700224>
     358:	50 91 25 02 	lds	r21, 0x0225	; 0x800225 <__TEXT_REGION_LENGTH__+0x700225>
     35c:	e0 91 81 20 	lds	r30, 0x2081	; 0x802081 <adca_callback>
     360:	f0 91 82 20 	lds	r31, 0x2082	; 0x802082 <adca_callback+0x1>
     364:	61 e0       	ldi	r22, 0x01	; 1
     366:	80 e0       	ldi	r24, 0x00	; 0
     368:	92 e0       	ldi	r25, 0x02	; 2
     36a:	19 95       	eicall
}
     36c:	ff 91       	pop	r31
     36e:	ef 91       	pop	r30
     370:	bf 91       	pop	r27
     372:	af 91       	pop	r26
     374:	9f 91       	pop	r25
     376:	8f 91       	pop	r24
     378:	7f 91       	pop	r23
     37a:	6f 91       	pop	r22
     37c:	5f 91       	pop	r21
     37e:	4f 91       	pop	r20
     380:	3f 91       	pop	r19
     382:	2f 91       	pop	r18
     384:	0f 90       	pop	r0
     386:	0b be       	out	0x3b, r0	; 59
     388:	0f 90       	pop	r0
     38a:	09 be       	out	0x39, r0	; 57
     38c:	0f 90       	pop	r0
     38e:	08 be       	out	0x38, r0	; 56
     390:	0f 90       	pop	r0
     392:	0f be       	out	0x3f, r0	; 63
     394:	0f 90       	pop	r0
     396:	1f 90       	pop	r1
     398:	18 95       	reti

0000039a <__vector_72>:
 *
 * Calls the callback function that has been set for the ADC when the channel's
 * interrupt flag is set, if its interrupt has been enabled.
 */
ISR(ADCA_CH1_vect)
{
     39a:	1f 92       	push	r1
     39c:	0f 92       	push	r0
     39e:	0f b6       	in	r0, 0x3f	; 63
     3a0:	0f 92       	push	r0
     3a2:	11 24       	eor	r1, r1
     3a4:	08 b6       	in	r0, 0x38	; 56
     3a6:	0f 92       	push	r0
     3a8:	18 be       	out	0x38, r1	; 56
     3aa:	09 b6       	in	r0, 0x39	; 57
     3ac:	0f 92       	push	r0
     3ae:	19 be       	out	0x39, r1	; 57
     3b0:	0b b6       	in	r0, 0x3b	; 59
     3b2:	0f 92       	push	r0
     3b4:	1b be       	out	0x3b, r1	; 59
     3b6:	2f 93       	push	r18
     3b8:	3f 93       	push	r19
     3ba:	4f 93       	push	r20
     3bc:	5f 93       	push	r21
     3be:	6f 93       	push	r22
     3c0:	7f 93       	push	r23
     3c2:	8f 93       	push	r24
     3c4:	9f 93       	push	r25
     3c6:	af 93       	push	r26
     3c8:	bf 93       	push	r27
     3ca:	ef 93       	push	r30
     3cc:	ff 93       	push	r31
	adca_callback(&ADCA, ADC_CH1, adc_get_result(&ADCA, ADC_CH1));
     3ce:	40 91 2c 02 	lds	r20, 0x022C	; 0x80022c <__TEXT_REGION_LENGTH__+0x70022c>
     3d2:	50 91 2d 02 	lds	r21, 0x022D	; 0x80022d <__TEXT_REGION_LENGTH__+0x70022d>
     3d6:	e0 91 81 20 	lds	r30, 0x2081	; 0x802081 <adca_callback>
     3da:	f0 91 82 20 	lds	r31, 0x2082	; 0x802082 <adca_callback+0x1>
     3de:	62 e0       	ldi	r22, 0x02	; 2
     3e0:	80 e0       	ldi	r24, 0x00	; 0
     3e2:	92 e0       	ldi	r25, 0x02	; 2
     3e4:	19 95       	eicall
}
     3e6:	ff 91       	pop	r31
     3e8:	ef 91       	pop	r30
     3ea:	bf 91       	pop	r27
     3ec:	af 91       	pop	r26
     3ee:	9f 91       	pop	r25
     3f0:	8f 91       	pop	r24
     3f2:	7f 91       	pop	r23
     3f4:	6f 91       	pop	r22
     3f6:	5f 91       	pop	r21
     3f8:	4f 91       	pop	r20
     3fa:	3f 91       	pop	r19
     3fc:	2f 91       	pop	r18
     3fe:	0f 90       	pop	r0
     400:	0b be       	out	0x3b, r0	; 59
     402:	0f 90       	pop	r0
     404:	09 be       	out	0x39, r0	; 57
     406:	0f 90       	pop	r0
     408:	08 be       	out	0x38, r0	; 56
     40a:	0f 90       	pop	r0
     40c:	0f be       	out	0x3f, r0	; 63
     40e:	0f 90       	pop	r0
     410:	1f 90       	pop	r1
     412:	18 95       	reti

00000414 <__vector_73>:
 *
 * Calls the callback function that has been set for the ADC when the channel's
 * interrupt flag is set, if its interrupt has been enabled.
 */
ISR(ADCA_CH2_vect)
{
     414:	1f 92       	push	r1
     416:	0f 92       	push	r0
     418:	0f b6       	in	r0, 0x3f	; 63
     41a:	0f 92       	push	r0
     41c:	11 24       	eor	r1, r1
     41e:	08 b6       	in	r0, 0x38	; 56
     420:	0f 92       	push	r0
     422:	18 be       	out	0x38, r1	; 56
     424:	09 b6       	in	r0, 0x39	; 57
     426:	0f 92       	push	r0
     428:	19 be       	out	0x39, r1	; 57
     42a:	0b b6       	in	r0, 0x3b	; 59
     42c:	0f 92       	push	r0
     42e:	1b be       	out	0x3b, r1	; 59
     430:	2f 93       	push	r18
     432:	3f 93       	push	r19
     434:	4f 93       	push	r20
     436:	5f 93       	push	r21
     438:	6f 93       	push	r22
     43a:	7f 93       	push	r23
     43c:	8f 93       	push	r24
     43e:	9f 93       	push	r25
     440:	af 93       	push	r26
     442:	bf 93       	push	r27
     444:	ef 93       	push	r30
     446:	ff 93       	push	r31
	adca_callback(&ADCA, ADC_CH2, adc_get_result(&ADCA, ADC_CH2));
     448:	40 91 34 02 	lds	r20, 0x0234	; 0x800234 <__TEXT_REGION_LENGTH__+0x700234>
     44c:	50 91 35 02 	lds	r21, 0x0235	; 0x800235 <__TEXT_REGION_LENGTH__+0x700235>
     450:	e0 91 81 20 	lds	r30, 0x2081	; 0x802081 <adca_callback>
     454:	f0 91 82 20 	lds	r31, 0x2082	; 0x802082 <adca_callback+0x1>
     458:	64 e0       	ldi	r22, 0x04	; 4
     45a:	80 e0       	ldi	r24, 0x00	; 0
     45c:	92 e0       	ldi	r25, 0x02	; 2
     45e:	19 95       	eicall
}
     460:	ff 91       	pop	r31
     462:	ef 91       	pop	r30
     464:	bf 91       	pop	r27
     466:	af 91       	pop	r26
     468:	9f 91       	pop	r25
     46a:	8f 91       	pop	r24
     46c:	7f 91       	pop	r23
     46e:	6f 91       	pop	r22
     470:	5f 91       	pop	r21
     472:	4f 91       	pop	r20
     474:	3f 91       	pop	r19
     476:	2f 91       	pop	r18
     478:	0f 90       	pop	r0
     47a:	0b be       	out	0x3b, r0	; 59
     47c:	0f 90       	pop	r0
     47e:	09 be       	out	0x39, r0	; 57
     480:	0f 90       	pop	r0
     482:	08 be       	out	0x38, r0	; 56
     484:	0f 90       	pop	r0
     486:	0f be       	out	0x3f, r0	; 63
     488:	0f 90       	pop	r0
     48a:	1f 90       	pop	r1
     48c:	18 95       	reti

0000048e <__vector_74>:
 *
 * Calls the callback function that has been set for the ADC when the channel's
 * interrupt flag is set, if its interrupt has been enabled.
 */
ISR(ADCA_CH3_vect)
{
     48e:	1f 92       	push	r1
     490:	0f 92       	push	r0
     492:	0f b6       	in	r0, 0x3f	; 63
     494:	0f 92       	push	r0
     496:	11 24       	eor	r1, r1
     498:	08 b6       	in	r0, 0x38	; 56
     49a:	0f 92       	push	r0
     49c:	18 be       	out	0x38, r1	; 56
     49e:	09 b6       	in	r0, 0x39	; 57
     4a0:	0f 92       	push	r0
     4a2:	19 be       	out	0x39, r1	; 57
     4a4:	0b b6       	in	r0, 0x3b	; 59
     4a6:	0f 92       	push	r0
     4a8:	1b be       	out	0x3b, r1	; 59
     4aa:	2f 93       	push	r18
     4ac:	3f 93       	push	r19
     4ae:	4f 93       	push	r20
     4b0:	5f 93       	push	r21
     4b2:	6f 93       	push	r22
     4b4:	7f 93       	push	r23
     4b6:	8f 93       	push	r24
     4b8:	9f 93       	push	r25
     4ba:	af 93       	push	r26
     4bc:	bf 93       	push	r27
     4be:	ef 93       	push	r30
     4c0:	ff 93       	push	r31
	adca_callback(&ADCA, ADC_CH3, adc_get_result(&ADCA, ADC_CH3));
     4c2:	40 91 3c 02 	lds	r20, 0x023C	; 0x80023c <__TEXT_REGION_LENGTH__+0x70023c>
     4c6:	50 91 3d 02 	lds	r21, 0x023D	; 0x80023d <__TEXT_REGION_LENGTH__+0x70023d>
     4ca:	e0 91 81 20 	lds	r30, 0x2081	; 0x802081 <adca_callback>
     4ce:	f0 91 82 20 	lds	r31, 0x2082	; 0x802082 <adca_callback+0x1>
     4d2:	68 e0       	ldi	r22, 0x08	; 8
     4d4:	80 e0       	ldi	r24, 0x00	; 0
     4d6:	92 e0       	ldi	r25, 0x02	; 2
     4d8:	19 95       	eicall
}
     4da:	ff 91       	pop	r31
     4dc:	ef 91       	pop	r30
     4de:	bf 91       	pop	r27
     4e0:	af 91       	pop	r26
     4e2:	9f 91       	pop	r25
     4e4:	8f 91       	pop	r24
     4e6:	7f 91       	pop	r23
     4e8:	6f 91       	pop	r22
     4ea:	5f 91       	pop	r21
     4ec:	4f 91       	pop	r20
     4ee:	3f 91       	pop	r19
     4f0:	2f 91       	pop	r18
     4f2:	0f 90       	pop	r0
     4f4:	0b be       	out	0x3b, r0	; 59
     4f6:	0f 90       	pop	r0
     4f8:	09 be       	out	0x39, r0	; 57
     4fa:	0f 90       	pop	r0
     4fc:	08 be       	out	0x38, r0	; 56
     4fe:	0f 90       	pop	r0
     500:	0f be       	out	0x3f, r0	; 63
     502:	0f 90       	pop	r0
     504:	1f 90       	pop	r1
     506:	18 95       	reti

00000508 <__vector_39>:
 *
 * Calls the callback function that has been set for the ADC when the channel's
 * interrupt flag is set, if its interrupt has been enabled.
 */
ISR(ADCB_CH0_vect)
{
     508:	1f 92       	push	r1
     50a:	0f 92       	push	r0
     50c:	0f b6       	in	r0, 0x3f	; 63
     50e:	0f 92       	push	r0
     510:	11 24       	eor	r1, r1
     512:	08 b6       	in	r0, 0x38	; 56
     514:	0f 92       	push	r0
     516:	18 be       	out	0x38, r1	; 56
     518:	09 b6       	in	r0, 0x39	; 57
     51a:	0f 92       	push	r0
     51c:	19 be       	out	0x39, r1	; 57
     51e:	0b b6       	in	r0, 0x3b	; 59
     520:	0f 92       	push	r0
     522:	1b be       	out	0x3b, r1	; 59
     524:	2f 93       	push	r18
     526:	3f 93       	push	r19
     528:	4f 93       	push	r20
     52a:	5f 93       	push	r21
     52c:	6f 93       	push	r22
     52e:	7f 93       	push	r23
     530:	8f 93       	push	r24
     532:	9f 93       	push	r25
     534:	af 93       	push	r26
     536:	bf 93       	push	r27
     538:	ef 93       	push	r30
     53a:	ff 93       	push	r31
	adcb_callback(&ADCB, ADC_CH0, adc_get_result(&ADCB, ADC_CH0));
     53c:	40 91 64 02 	lds	r20, 0x0264	; 0x800264 <__TEXT_REGION_LENGTH__+0x700264>
     540:	50 91 65 02 	lds	r21, 0x0265	; 0x800265 <__TEXT_REGION_LENGTH__+0x700265>
     544:	e0 91 7f 20 	lds	r30, 0x207F	; 0x80207f <adcb_callback>
     548:	f0 91 80 20 	lds	r31, 0x2080	; 0x802080 <adcb_callback+0x1>
     54c:	61 e0       	ldi	r22, 0x01	; 1
     54e:	80 e4       	ldi	r24, 0x40	; 64
     550:	92 e0       	ldi	r25, 0x02	; 2
     552:	19 95       	eicall
}
     554:	ff 91       	pop	r31
     556:	ef 91       	pop	r30
     558:	bf 91       	pop	r27
     55a:	af 91       	pop	r26
     55c:	9f 91       	pop	r25
     55e:	8f 91       	pop	r24
     560:	7f 91       	pop	r23
     562:	6f 91       	pop	r22
     564:	5f 91       	pop	r21
     566:	4f 91       	pop	r20
     568:	3f 91       	pop	r19
     56a:	2f 91       	pop	r18
     56c:	0f 90       	pop	r0
     56e:	0b be       	out	0x3b, r0	; 59
     570:	0f 90       	pop	r0
     572:	09 be       	out	0x39, r0	; 57
     574:	0f 90       	pop	r0
     576:	08 be       	out	0x38, r0	; 56
     578:	0f 90       	pop	r0
     57a:	0f be       	out	0x3f, r0	; 63
     57c:	0f 90       	pop	r0
     57e:	1f 90       	pop	r1
     580:	18 95       	reti

00000582 <__vector_40>:
 *
 * Calls the callback function that has been set for the ADC when the channel's
 * interrupt flag is set, if its interrupt has been enabled.
 */
ISR(ADCB_CH1_vect)
{
     582:	1f 92       	push	r1
     584:	0f 92       	push	r0
     586:	0f b6       	in	r0, 0x3f	; 63
     588:	0f 92       	push	r0
     58a:	11 24       	eor	r1, r1
     58c:	08 b6       	in	r0, 0x38	; 56
     58e:	0f 92       	push	r0
     590:	18 be       	out	0x38, r1	; 56
     592:	09 b6       	in	r0, 0x39	; 57
     594:	0f 92       	push	r0
     596:	19 be       	out	0x39, r1	; 57
     598:	0b b6       	in	r0, 0x3b	; 59
     59a:	0f 92       	push	r0
     59c:	1b be       	out	0x3b, r1	; 59
     59e:	2f 93       	push	r18
     5a0:	3f 93       	push	r19
     5a2:	4f 93       	push	r20
     5a4:	5f 93       	push	r21
     5a6:	6f 93       	push	r22
     5a8:	7f 93       	push	r23
     5aa:	8f 93       	push	r24
     5ac:	9f 93       	push	r25
     5ae:	af 93       	push	r26
     5b0:	bf 93       	push	r27
     5b2:	ef 93       	push	r30
     5b4:	ff 93       	push	r31
	adcb_callback(&ADCB, ADC_CH1, adc_get_result(&ADCB, ADC_CH1));
     5b6:	40 91 6c 02 	lds	r20, 0x026C	; 0x80026c <__TEXT_REGION_LENGTH__+0x70026c>
     5ba:	50 91 6d 02 	lds	r21, 0x026D	; 0x80026d <__TEXT_REGION_LENGTH__+0x70026d>
     5be:	e0 91 7f 20 	lds	r30, 0x207F	; 0x80207f <adcb_callback>
     5c2:	f0 91 80 20 	lds	r31, 0x2080	; 0x802080 <adcb_callback+0x1>
     5c6:	62 e0       	ldi	r22, 0x02	; 2
     5c8:	80 e4       	ldi	r24, 0x40	; 64
     5ca:	92 e0       	ldi	r25, 0x02	; 2
     5cc:	19 95       	eicall
}
     5ce:	ff 91       	pop	r31
     5d0:	ef 91       	pop	r30
     5d2:	bf 91       	pop	r27
     5d4:	af 91       	pop	r26
     5d6:	9f 91       	pop	r25
     5d8:	8f 91       	pop	r24
     5da:	7f 91       	pop	r23
     5dc:	6f 91       	pop	r22
     5de:	5f 91       	pop	r21
     5e0:	4f 91       	pop	r20
     5e2:	3f 91       	pop	r19
     5e4:	2f 91       	pop	r18
     5e6:	0f 90       	pop	r0
     5e8:	0b be       	out	0x3b, r0	; 59
     5ea:	0f 90       	pop	r0
     5ec:	09 be       	out	0x39, r0	; 57
     5ee:	0f 90       	pop	r0
     5f0:	08 be       	out	0x38, r0	; 56
     5f2:	0f 90       	pop	r0
     5f4:	0f be       	out	0x3f, r0	; 63
     5f6:	0f 90       	pop	r0
     5f8:	1f 90       	pop	r1
     5fa:	18 95       	reti

000005fc <__vector_41>:
 *
 * Calls the callback function that has been set for the ADC when the channel's
 * interrupt flag is set, if its interrupt has been enabled.
 */
ISR(ADCB_CH2_vect)
{
     5fc:	1f 92       	push	r1
     5fe:	0f 92       	push	r0
     600:	0f b6       	in	r0, 0x3f	; 63
     602:	0f 92       	push	r0
     604:	11 24       	eor	r1, r1
     606:	08 b6       	in	r0, 0x38	; 56
     608:	0f 92       	push	r0
     60a:	18 be       	out	0x38, r1	; 56
     60c:	09 b6       	in	r0, 0x39	; 57
     60e:	0f 92       	push	r0
     610:	19 be       	out	0x39, r1	; 57
     612:	0b b6       	in	r0, 0x3b	; 59
     614:	0f 92       	push	r0
     616:	1b be       	out	0x3b, r1	; 59
     618:	2f 93       	push	r18
     61a:	3f 93       	push	r19
     61c:	4f 93       	push	r20
     61e:	5f 93       	push	r21
     620:	6f 93       	push	r22
     622:	7f 93       	push	r23
     624:	8f 93       	push	r24
     626:	9f 93       	push	r25
     628:	af 93       	push	r26
     62a:	bf 93       	push	r27
     62c:	ef 93       	push	r30
     62e:	ff 93       	push	r31
	adcb_callback(&ADCB, ADC_CH2, adc_get_result(&ADCB, ADC_CH2));
     630:	40 91 74 02 	lds	r20, 0x0274	; 0x800274 <__TEXT_REGION_LENGTH__+0x700274>
     634:	50 91 75 02 	lds	r21, 0x0275	; 0x800275 <__TEXT_REGION_LENGTH__+0x700275>
     638:	e0 91 7f 20 	lds	r30, 0x207F	; 0x80207f <adcb_callback>
     63c:	f0 91 80 20 	lds	r31, 0x2080	; 0x802080 <adcb_callback+0x1>
     640:	64 e0       	ldi	r22, 0x04	; 4
     642:	80 e4       	ldi	r24, 0x40	; 64
     644:	92 e0       	ldi	r25, 0x02	; 2
     646:	19 95       	eicall
}
     648:	ff 91       	pop	r31
     64a:	ef 91       	pop	r30
     64c:	bf 91       	pop	r27
     64e:	af 91       	pop	r26
     650:	9f 91       	pop	r25
     652:	8f 91       	pop	r24
     654:	7f 91       	pop	r23
     656:	6f 91       	pop	r22
     658:	5f 91       	pop	r21
     65a:	4f 91       	pop	r20
     65c:	3f 91       	pop	r19
     65e:	2f 91       	pop	r18
     660:	0f 90       	pop	r0
     662:	0b be       	out	0x3b, r0	; 59
     664:	0f 90       	pop	r0
     666:	09 be       	out	0x39, r0	; 57
     668:	0f 90       	pop	r0
     66a:	08 be       	out	0x38, r0	; 56
     66c:	0f 90       	pop	r0
     66e:	0f be       	out	0x3f, r0	; 63
     670:	0f 90       	pop	r0
     672:	1f 90       	pop	r1
     674:	18 95       	reti

00000676 <__vector_42>:
 *
 * Calls the callback function that has been set for the ADC when the channel's
 * interrupt flag is set, if its interrupt has been enabled.
 */
ISR(ADCB_CH3_vect)
{
     676:	1f 92       	push	r1
     678:	0f 92       	push	r0
     67a:	0f b6       	in	r0, 0x3f	; 63
     67c:	0f 92       	push	r0
     67e:	11 24       	eor	r1, r1
     680:	08 b6       	in	r0, 0x38	; 56
     682:	0f 92       	push	r0
     684:	18 be       	out	0x38, r1	; 56
     686:	09 b6       	in	r0, 0x39	; 57
     688:	0f 92       	push	r0
     68a:	19 be       	out	0x39, r1	; 57
     68c:	0b b6       	in	r0, 0x3b	; 59
     68e:	0f 92       	push	r0
     690:	1b be       	out	0x3b, r1	; 59
     692:	2f 93       	push	r18
     694:	3f 93       	push	r19
     696:	4f 93       	push	r20
     698:	5f 93       	push	r21
     69a:	6f 93       	push	r22
     69c:	7f 93       	push	r23
     69e:	8f 93       	push	r24
     6a0:	9f 93       	push	r25
     6a2:	af 93       	push	r26
     6a4:	bf 93       	push	r27
     6a6:	ef 93       	push	r30
     6a8:	ff 93       	push	r31
	adcb_callback(&ADCB, ADC_CH3, adc_get_result(&ADCB, ADC_CH3));
     6aa:	40 91 7c 02 	lds	r20, 0x027C	; 0x80027c <__TEXT_REGION_LENGTH__+0x70027c>
     6ae:	50 91 7d 02 	lds	r21, 0x027D	; 0x80027d <__TEXT_REGION_LENGTH__+0x70027d>
     6b2:	e0 91 7f 20 	lds	r30, 0x207F	; 0x80207f <adcb_callback>
     6b6:	f0 91 80 20 	lds	r31, 0x2080	; 0x802080 <adcb_callback+0x1>
     6ba:	68 e0       	ldi	r22, 0x08	; 8
     6bc:	80 e4       	ldi	r24, 0x40	; 64
     6be:	92 e0       	ldi	r25, 0x02	; 2
     6c0:	19 95       	eicall
}
     6c2:	ff 91       	pop	r31
     6c4:	ef 91       	pop	r30
     6c6:	bf 91       	pop	r27
     6c8:	af 91       	pop	r26
     6ca:	9f 91       	pop	r25
     6cc:	8f 91       	pop	r24
     6ce:	7f 91       	pop	r23
     6d0:	6f 91       	pop	r22
     6d2:	5f 91       	pop	r21
     6d4:	4f 91       	pop	r20
     6d6:	3f 91       	pop	r19
     6d8:	2f 91       	pop	r18
     6da:	0f 90       	pop	r0
     6dc:	0b be       	out	0x3b, r0	; 59
     6de:	0f 90       	pop	r0
     6e0:	09 be       	out	0x39, r0	; 57
     6e2:	0f 90       	pop	r0
     6e4:	08 be       	out	0x38, r0	; 56
     6e6:	0f 90       	pop	r0
     6e8:	0f be       	out	0x3f, r0	; 63
     6ea:	0f 90       	pop	r0
     6ec:	1f 90       	pop	r1
     6ee:	18 95       	reti

000006f0 <usart_putchar>:

	if (baud_offset != USART_BAUD_UNDEFINED) {
		(usart)->BAUDCTRLB = (uint8_t)((uint16_t)baudctrl);
		(usart)->BAUDCTRLA = (uint8_t)((uint16_t)baudctrl >> 8);
	}
}
     6f0:	fc 01       	movw	r30, r24
     6f2:	91 81       	ldd	r25, Z+1	; 0x01
     6f4:	95 ff       	sbrs	r25, 5
     6f6:	fd cf       	rjmp	.-6      	; 0x6f2 <usart_putchar+0x2>
     6f8:	60 83       	st	Z, r22
     6fa:	80 e0       	ldi	r24, 0x00	; 0
     6fc:	90 e0       	ldi	r25, 0x00	; 0
     6fe:	08 95       	ret

00000700 <usart_getchar>:
     700:	fc 01       	movw	r30, r24
     702:	91 81       	ldd	r25, Z+1	; 0x01
     704:	99 23       	and	r25, r25
     706:	ec f7       	brge	.-6      	; 0x702 <usart_getchar+0x2>
     708:	80 81       	ld	r24, Z
     70a:	08 95       	ret

0000070c <usart_set_baudrate>:
 * \retval true if the hardware supports the baud rate
 * \retval false if the hardware does not support the baud rate (i.e. it's
 *               either too high or too low.)
 */
bool usart_set_baudrate(USART_t *usart, uint32_t baud, uint32_t cpu_hz)
{
     70c:	4f 92       	push	r4
     70e:	5f 92       	push	r5
     710:	6f 92       	push	r6
     712:	7f 92       	push	r7
     714:	8f 92       	push	r8
     716:	9f 92       	push	r9
     718:	af 92       	push	r10
     71a:	bf 92       	push	r11
     71c:	ef 92       	push	r14
     71e:	ff 92       	push	r15
     720:	0f 93       	push	r16
     722:	1f 93       	push	r17
     724:	cf 93       	push	r28
     726:	7c 01       	movw	r14, r24
     728:	4a 01       	movw	r8, r20
     72a:	5b 01       	movw	r10, r22
     72c:	28 01       	movw	r4, r16
     72e:	39 01       	movw	r6, r18
	/* 8 = (2^0) * 8 * (2^0) = (2^BSCALE_MIN) * 8 * (BSEL_MIN) */
	max_rate = cpu_hz / 8;
	/* 4194304 = (2^7) * 8 * (2^12) = (2^BSCALE_MAX) * 8 * (BSEL_MAX+1) */
	min_rate = cpu_hz / 4194304;

	if (!((usart)->CTRLB & USART_CLK2X_bm)) {
     730:	fc 01       	movw	r30, r24
     732:	84 81       	ldd	r24, Z+4	; 0x04
     734:	82 ff       	sbrs	r24, 2
     736:	16 c0       	rjmp	.+44     	; 0x764 <usart_set_baudrate+0x58>

	/*
	 * Check if the hardware supports the given baud rate
	 */
	/* 8 = (2^0) * 8 * (2^0) = (2^BSCALE_MIN) * 8 * (BSEL_MIN) */
	max_rate = cpu_hz / 8;
     738:	d9 01       	movw	r26, r18
     73a:	c8 01       	movw	r24, r16
     73c:	68 94       	set
     73e:	12 f8       	bld	r1, 2
     740:	b6 95       	lsr	r27
     742:	a7 95       	ror	r26
     744:	97 95       	ror	r25
     746:	87 95       	ror	r24
     748:	16 94       	lsr	r1
     74a:	d1 f7       	brne	.-12     	; 0x740 <usart_set_baudrate+0x34>
	/* 4194304 = (2^7) * 8 * (2^12) = (2^BSCALE_MAX) * 8 * (BSEL_MAX+1) */
	min_rate = cpu_hz / 4194304;
     74c:	b9 01       	movw	r22, r18
     74e:	a8 01       	movw	r20, r16
     750:	03 2e       	mov	r0, r19
     752:	36 e1       	ldi	r19, 0x16	; 22
     754:	76 95       	lsr	r23
     756:	67 95       	ror	r22
     758:	57 95       	ror	r21
     75a:	47 95       	ror	r20
     75c:	3a 95       	dec	r19
     75e:	d1 f7       	brne	.-12     	; 0x754 <usart_set_baudrate+0x48>
     760:	30 2d       	mov	r19, r0
     762:	15 c0       	rjmp	.+42     	; 0x78e <usart_set_baudrate+0x82>

	if (!((usart)->CTRLB & USART_CLK2X_bm)) {
		max_rate /= 2;
     764:	d9 01       	movw	r26, r18
     766:	c8 01       	movw	r24, r16
     768:	68 94       	set
     76a:	13 f8       	bld	r1, 3
     76c:	b6 95       	lsr	r27
     76e:	a7 95       	ror	r26
     770:	97 95       	ror	r25
     772:	87 95       	ror	r24
     774:	16 94       	lsr	r1
     776:	d1 f7       	brne	.-12     	; 0x76c <usart_set_baudrate+0x60>
		min_rate /= 2;
     778:	b9 01       	movw	r22, r18
     77a:	a8 01       	movw	r20, r16
     77c:	03 2e       	mov	r0, r19
     77e:	37 e1       	ldi	r19, 0x17	; 23
     780:	76 95       	lsr	r23
     782:	67 95       	ror	r22
     784:	57 95       	ror	r21
     786:	47 95       	ror	r20
     788:	3a 95       	dec	r19
     78a:	d1 f7       	brne	.-12     	; 0x780 <usart_set_baudrate+0x74>
     78c:	30 2d       	mov	r19, r0
	}

	if ((baud > max_rate) || (baud < min_rate)) {
     78e:	88 15       	cp	r24, r8
     790:	99 05       	cpc	r25, r9
     792:	aa 05       	cpc	r26, r10
     794:	bb 05       	cpc	r27, r11
     796:	08 f4       	brcc	.+2      	; 0x79a <usart_set_baudrate+0x8e>
     798:	a6 c0       	rjmp	.+332    	; 0x8e6 <usart_set_baudrate+0x1da>
     79a:	84 16       	cp	r8, r20
     79c:	95 06       	cpc	r9, r21
     79e:	a6 06       	cpc	r10, r22
     7a0:	b7 06       	cpc	r11, r23
     7a2:	08 f4       	brcc	.+2      	; 0x7a6 <usart_set_baudrate+0x9a>
     7a4:	a2 c0       	rjmp	.+324    	; 0x8ea <usart_set_baudrate+0x1de>
		return false;
	}

	/* Check if double speed is enabled. */
	if (!((usart)->CTRLB & USART_CLK2X_bm)) {
     7a6:	f7 01       	movw	r30, r14
     7a8:	84 81       	ldd	r24, Z+4	; 0x04
     7aa:	82 fd       	sbrc	r24, 2
     7ac:	04 c0       	rjmp	.+8      	; 0x7b6 <usart_set_baudrate+0xaa>
		baud *= 2;
     7ae:	88 0c       	add	r8, r8
     7b0:	99 1c       	adc	r9, r9
     7b2:	aa 1c       	adc	r10, r10
     7b4:	bb 1c       	adc	r11, r11
	}

	/* Find the lowest possible exponent. */
	limit = 0xfffU >> 4;
	ratio = cpu_hz / baud;
     7b6:	c3 01       	movw	r24, r6
     7b8:	b2 01       	movw	r22, r4
     7ba:	a5 01       	movw	r20, r10
     7bc:	94 01       	movw	r18, r8
     7be:	0e 94 64 0c 	call	0x18c8	; 0x18c8 <__udivmodsi4>

	for (exp = -7; exp < 7; exp++) {
		if (ratio < limit) {
     7c2:	2f 3f       	cpi	r18, 0xFF	; 255
     7c4:	31 05       	cpc	r19, r1
     7c6:	41 05       	cpc	r20, r1
     7c8:	51 05       	cpc	r21, r1
     7ca:	08 f4       	brcc	.+2      	; 0x7ce <usart_set_baudrate+0xc2>
     7cc:	90 c0       	rjmp	.+288    	; 0x8ee <usart_set_baudrate+0x1e2>
     7ce:	8f ef       	ldi	r24, 0xFF	; 255
     7d0:	90 e0       	ldi	r25, 0x00	; 0
     7d2:	a0 e0       	ldi	r26, 0x00	; 0
     7d4:	b0 e0       	ldi	r27, 0x00	; 0
     7d6:	c9 ef       	ldi	r28, 0xF9	; 249
     7d8:	05 c0       	rjmp	.+10     	; 0x7e4 <usart_set_baudrate+0xd8>
     7da:	28 17       	cp	r18, r24
     7dc:	39 07       	cpc	r19, r25
     7de:	4a 07       	cpc	r20, r26
     7e0:	5b 07       	cpc	r21, r27
     7e2:	58 f0       	brcs	.+22     	; 0x7fa <usart_set_baudrate+0xee>
			break;
		}

		limit <<= 1;
     7e4:	88 0f       	add	r24, r24
     7e6:	99 1f       	adc	r25, r25
     7e8:	aa 1f       	adc	r26, r26
     7ea:	bb 1f       	adc	r27, r27

		if (exp < -3) {
     7ec:	cd 3f       	cpi	r28, 0xFD	; 253
     7ee:	0c f4       	brge	.+2      	; 0x7f2 <usart_set_baudrate+0xe6>
			limit |= 1;
     7f0:	81 60       	ori	r24, 0x01	; 1
     7f2:	cf 5f       	subi	r28, 0xFF	; 255

	/* Find the lowest possible exponent. */
	limit = 0xfffU >> 4;
	ratio = cpu_hz / baud;

	for (exp = -7; exp < 7; exp++) {
     7f4:	c7 30       	cpi	r28, 0x07	; 7
     7f6:	89 f7       	brne	.-30     	; 0x7da <usart_set_baudrate+0xce>
     7f8:	4f c0       	rjmp	.+158    	; 0x898 <usart_set_baudrate+0x18c>
	 * point.
	 *
	 * The formula for calculating BSEL is slightly different when exp is
	 * negative than it is when exp is positive.
	 */
	if (exp < 0) {
     7fa:	cc 23       	and	r28, r28
     7fc:	0c f0       	brlt	.+2      	; 0x800 <usart_set_baudrate+0xf4>
     7fe:	4c c0       	rjmp	.+152    	; 0x898 <usart_set_baudrate+0x18c>
		/* We are supposed to subtract 1, then apply BSCALE. We want to
		 * apply BSCALE first, so we need to turn everything inside the
		 * parenthesis into a single fractional expression.
		 */
		cpu_hz -= 8 * baud;
     800:	d5 01       	movw	r26, r10
     802:	c4 01       	movw	r24, r8
     804:	88 0f       	add	r24, r24
     806:	99 1f       	adc	r25, r25
     808:	aa 1f       	adc	r26, r26
     80a:	bb 1f       	adc	r27, r27
     80c:	88 0f       	add	r24, r24
     80e:	99 1f       	adc	r25, r25
     810:	aa 1f       	adc	r26, r26
     812:	bb 1f       	adc	r27, r27
     814:	88 0f       	add	r24, r24
     816:	99 1f       	adc	r25, r25
     818:	aa 1f       	adc	r26, r26
     81a:	bb 1f       	adc	r27, r27
     81c:	48 1a       	sub	r4, r24
     81e:	59 0a       	sbc	r5, r25
     820:	6a 0a       	sbc	r6, r26
     822:	7b 0a       	sbc	r7, r27
		/* If we end up with a left-shift after taking the final
		 * divide-by-8 into account, do the shift before the divide.
		 * Otherwise, left-shift the denominator instead (effectively
		 * resulting in an overall right shift.)
		 */
		if (exp <= -3) {
     824:	ce 3f       	cpi	r28, 0xFE	; 254
     826:	f4 f4       	brge	.+60     	; 0x864 <usart_set_baudrate+0x158>
			div = ((cpu_hz << (-exp - 3)) + baud / 2) / baud;
     828:	8d ef       	ldi	r24, 0xFD	; 253
     82a:	9f ef       	ldi	r25, 0xFF	; 255
     82c:	8c 1b       	sub	r24, r28
     82e:	91 09       	sbc	r25, r1
     830:	c7 fd       	sbrc	r28, 7
     832:	93 95       	inc	r25
     834:	04 c0       	rjmp	.+8      	; 0x83e <usart_set_baudrate+0x132>
     836:	44 0c       	add	r4, r4
     838:	55 1c       	adc	r5, r5
     83a:	66 1c       	adc	r6, r6
     83c:	77 1c       	adc	r7, r7
     83e:	8a 95       	dec	r24
     840:	d2 f7       	brpl	.-12     	; 0x836 <usart_set_baudrate+0x12a>
     842:	d5 01       	movw	r26, r10
     844:	c4 01       	movw	r24, r8
     846:	b6 95       	lsr	r27
     848:	a7 95       	ror	r26
     84a:	97 95       	ror	r25
     84c:	87 95       	ror	r24
     84e:	bc 01       	movw	r22, r24
     850:	cd 01       	movw	r24, r26
     852:	64 0d       	add	r22, r4
     854:	75 1d       	adc	r23, r5
     856:	86 1d       	adc	r24, r6
     858:	97 1d       	adc	r25, r7
     85a:	a5 01       	movw	r20, r10
     85c:	94 01       	movw	r18, r8
     85e:	0e 94 64 0c 	call	0x18c8	; 0x18c8 <__udivmodsi4>
     862:	37 c0       	rjmp	.+110    	; 0x8d2 <usart_set_baudrate+0x1c6>
		} else {
			baud <<= exp + 3;
     864:	83 e0       	ldi	r24, 0x03	; 3
     866:	8c 0f       	add	r24, r28
     868:	a5 01       	movw	r20, r10
     86a:	94 01       	movw	r18, r8
     86c:	04 c0       	rjmp	.+8      	; 0x876 <usart_set_baudrate+0x16a>
     86e:	22 0f       	add	r18, r18
     870:	33 1f       	adc	r19, r19
     872:	44 1f       	adc	r20, r20
     874:	55 1f       	adc	r21, r21
     876:	8a 95       	dec	r24
     878:	d2 f7       	brpl	.-12     	; 0x86e <usart_set_baudrate+0x162>
			div = (cpu_hz + baud / 2) / baud;
     87a:	da 01       	movw	r26, r20
     87c:	c9 01       	movw	r24, r18
     87e:	b6 95       	lsr	r27
     880:	a7 95       	ror	r26
     882:	97 95       	ror	r25
     884:	87 95       	ror	r24
     886:	bc 01       	movw	r22, r24
     888:	cd 01       	movw	r24, r26
     88a:	64 0d       	add	r22, r4
     88c:	75 1d       	adc	r23, r5
     88e:	86 1d       	adc	r24, r6
     890:	97 1d       	adc	r25, r7
     892:	0e 94 64 0c 	call	0x18c8	; 0x18c8 <__udivmodsi4>
     896:	1d c0       	rjmp	.+58     	; 0x8d2 <usart_set_baudrate+0x1c6>
		}
	} else {
		/* We will always do a right shift in this case, but we need to
		 * shift three extra positions because of the divide-by-8.
		 */
		baud <<= exp + 3;
     898:	83 e0       	ldi	r24, 0x03	; 3
     89a:	8c 0f       	add	r24, r28
     89c:	a5 01       	movw	r20, r10
     89e:	94 01       	movw	r18, r8
     8a0:	04 c0       	rjmp	.+8      	; 0x8aa <usart_set_baudrate+0x19e>
     8a2:	22 0f       	add	r18, r18
     8a4:	33 1f       	adc	r19, r19
     8a6:	44 1f       	adc	r20, r20
     8a8:	55 1f       	adc	r21, r21
     8aa:	8a 95       	dec	r24
     8ac:	d2 f7       	brpl	.-12     	; 0x8a2 <usart_set_baudrate+0x196>
		div = (cpu_hz + baud / 2) / baud - 1;
     8ae:	da 01       	movw	r26, r20
     8b0:	c9 01       	movw	r24, r18
     8b2:	b6 95       	lsr	r27
     8b4:	a7 95       	ror	r26
     8b6:	97 95       	ror	r25
     8b8:	87 95       	ror	r24
     8ba:	bc 01       	movw	r22, r24
     8bc:	cd 01       	movw	r24, r26
     8be:	64 0d       	add	r22, r4
     8c0:	75 1d       	adc	r23, r5
     8c2:	86 1d       	adc	r24, r6
     8c4:	97 1d       	adc	r25, r7
     8c6:	0e 94 64 0c 	call	0x18c8	; 0x18c8 <__udivmodsi4>
     8ca:	21 50       	subi	r18, 0x01	; 1
     8cc:	31 09       	sbc	r19, r1
     8ce:	41 09       	sbc	r20, r1
     8d0:	51 09       	sbc	r21, r1
	}

	(usart)->BAUDCTRLB = (uint8_t)(((div >> 8) & 0X0F) | (exp << 4));
     8d2:	83 2f       	mov	r24, r19
     8d4:	8f 70       	andi	r24, 0x0F	; 15
     8d6:	c2 95       	swap	r28
     8d8:	c0 7f       	andi	r28, 0xF0	; 240
     8da:	c8 2b       	or	r28, r24
     8dc:	f7 01       	movw	r30, r14
     8de:	c7 83       	std	Z+7, r28	; 0x07
	(usart)->BAUDCTRLA = (uint8_t)div;
     8e0:	26 83       	std	Z+6, r18	; 0x06

	return true;
     8e2:	81 e0       	ldi	r24, 0x01	; 1
     8e4:	18 c0       	rjmp	.+48     	; 0x916 <usart_set_baudrate+0x20a>
		max_rate /= 2;
		min_rate /= 2;
	}

	if ((baud > max_rate) || (baud < min_rate)) {
		return false;
     8e6:	80 e0       	ldi	r24, 0x00	; 0
     8e8:	16 c0       	rjmp	.+44     	; 0x916 <usart_set_baudrate+0x20a>
     8ea:	80 e0       	ldi	r24, 0x00	; 0
     8ec:	14 c0       	rjmp	.+40     	; 0x916 <usart_set_baudrate+0x20a>
	if (exp < 0) {
		/* We are supposed to subtract 1, then apply BSCALE. We want to
		 * apply BSCALE first, so we need to turn everything inside the
		 * parenthesis into a single fractional expression.
		 */
		cpu_hz -= 8 * baud;
     8ee:	d5 01       	movw	r26, r10
     8f0:	c4 01       	movw	r24, r8
     8f2:	88 0f       	add	r24, r24
     8f4:	99 1f       	adc	r25, r25
     8f6:	aa 1f       	adc	r26, r26
     8f8:	bb 1f       	adc	r27, r27
     8fa:	88 0f       	add	r24, r24
     8fc:	99 1f       	adc	r25, r25
     8fe:	aa 1f       	adc	r26, r26
     900:	bb 1f       	adc	r27, r27
     902:	88 0f       	add	r24, r24
     904:	99 1f       	adc	r25, r25
     906:	aa 1f       	adc	r26, r26
     908:	bb 1f       	adc	r27, r27
     90a:	48 1a       	sub	r4, r24
     90c:	59 0a       	sbc	r5, r25
     90e:	6a 0a       	sbc	r6, r26
     910:	7b 0a       	sbc	r7, r27

	/* Find the lowest possible exponent. */
	limit = 0xfffU >> 4;
	ratio = cpu_hz / baud;

	for (exp = -7; exp < 7; exp++) {
     912:	c9 ef       	ldi	r28, 0xF9	; 249
     914:	89 cf       	rjmp	.-238    	; 0x828 <usart_set_baudrate+0x11c>

	(usart)->BAUDCTRLB = (uint8_t)(((div >> 8) & 0X0F) | (exp << 4));
	(usart)->BAUDCTRLA = (uint8_t)div;

	return true;
}
     916:	cf 91       	pop	r28
     918:	1f 91       	pop	r17
     91a:	0f 91       	pop	r16
     91c:	ff 90       	pop	r15
     91e:	ef 90       	pop	r14
     920:	bf 90       	pop	r11
     922:	af 90       	pop	r10
     924:	9f 90       	pop	r9
     926:	8f 90       	pop	r8
     928:	7f 90       	pop	r7
     92a:	6f 90       	pop	r6
     92c:	5f 90       	pop	r5
     92e:	4f 90       	pop	r4
     930:	08 95       	ret

00000932 <usart_init_rs232>:
 *
 * \retval true if the initialization was successfull
 * \retval false if the initialization failed (error in baud rate calculation)
 */
bool usart_init_rs232(USART_t *usart, const usart_rs232_options_t *opt)
{
     932:	0f 93       	push	r16
     934:	1f 93       	push	r17
     936:	cf 93       	push	r28
     938:	df 93       	push	r29
     93a:	ec 01       	movw	r28, r24
     93c:	8b 01       	movw	r16, r22
 *
 * \param module Pointer to the module's base address.
 */
static inline void sysclk_enable_peripheral_clock(const volatile void *module)
{
	if (module == NULL) {
     93e:	00 97       	sbiw	r24, 0x00	; 0
     940:	09 f4       	brne	.+2      	; 0x944 <usart_init_rs232+0x12>
     942:	36 c1       	rjmp	.+620    	; 0xbb0 <usart_init_rs232+0x27e>
		Assert(false);
	}
#ifdef AES
	else if (module == &AES) {
     944:	80 3c       	cpi	r24, 0xC0	; 192
     946:	91 05       	cpc	r25, r1
     948:	21 f4       	brne	.+8      	; 0x952 <usart_init_rs232+0x20>
		sysclk_enable_module(SYSCLK_PORT_GEN, SYSCLK_AES);
     94a:	60 e1       	ldi	r22, 0x10	; 16
     94c:	80 e0       	ldi	r24, 0x00	; 0
     94e:	40 d2       	rcall	.+1152   	; 0xdd0 <sysclk_enable_module>
     950:	2f c1       	rjmp	.+606    	; 0xbb0 <usart_init_rs232+0x27e>
	}
#endif
#ifdef EBI
	else if (module == &EBI) {
     952:	c0 34       	cpi	r28, 0x40	; 64
     954:	84 e0       	ldi	r24, 0x04	; 4
     956:	d8 07       	cpc	r29, r24
     958:	21 f4       	brne	.+8      	; 0x962 <usart_init_rs232+0x30>
		sysclk_enable_module(SYSCLK_PORT_GEN, SYSCLK_EBI);
     95a:	68 e0       	ldi	r22, 0x08	; 8
     95c:	80 e0       	ldi	r24, 0x00	; 0
     95e:	38 d2       	rcall	.+1136   	; 0xdd0 <sysclk_enable_module>
     960:	27 c1       	rjmp	.+590    	; 0xbb0 <usart_init_rs232+0x27e>
	}
#endif
#ifdef RTC
	else if (module == &RTC) {
     962:	c1 15       	cp	r28, r1
     964:	e4 e0       	ldi	r30, 0x04	; 4
     966:	de 07       	cpc	r29, r30
     968:	21 f4       	brne	.+8      	; 0x972 <usart_init_rs232+0x40>
		sysclk_enable_module(SYSCLK_PORT_GEN, SYSCLK_RTC);
     96a:	64 e0       	ldi	r22, 0x04	; 4
     96c:	80 e0       	ldi	r24, 0x00	; 0
     96e:	30 d2       	rcall	.+1120   	; 0xdd0 <sysclk_enable_module>
     970:	1f c1       	rjmp	.+574    	; 0xbb0 <usart_init_rs232+0x27e>
	}
#endif
#ifdef EVSYS
	else if (module == &EVSYS) {
     972:	c0 38       	cpi	r28, 0x80	; 128
     974:	f1 e0       	ldi	r31, 0x01	; 1
     976:	df 07       	cpc	r29, r31
		sysclk_enable_module(SYSCLK_PORT_GEN, SYSCLK_EVSYS);
     978:	21 f4       	brne	.+8      	; 0x982 <usart_init_rs232+0x50>
     97a:	62 e0       	ldi	r22, 0x02	; 2
     97c:	80 e0       	ldi	r24, 0x00	; 0
     97e:	28 d2       	rcall	.+1104   	; 0xdd0 <sysclk_enable_module>
     980:	17 c1       	rjmp	.+558    	; 0xbb0 <usart_init_rs232+0x27e>
	}
#endif
#ifdef DMA
	else if (module == &DMA) {
     982:	c1 15       	cp	r28, r1
     984:	81 e0       	ldi	r24, 0x01	; 1
     986:	d8 07       	cpc	r29, r24
		sysclk_enable_module(SYSCLK_PORT_GEN, SYSCLK_DMA);
     988:	21 f4       	brne	.+8      	; 0x992 <usart_init_rs232+0x60>
     98a:	61 e0       	ldi	r22, 0x01	; 1
     98c:	80 e0       	ldi	r24, 0x00	; 0
     98e:	20 d2       	rcall	.+1088   	; 0xdd0 <sysclk_enable_module>
     990:	0f c1       	rjmp	.+542    	; 0xbb0 <usart_init_rs232+0x27e>
	else if (module == &EDMA) {
		sysclk_enable_module(SYSCLK_PORT_GEN, SYSCLK_EDMA);
	}
#endif
#ifdef ACA
	else if (module == &ACA) {
     992:	c0 38       	cpi	r28, 0x80	; 128
     994:	e3 e0       	ldi	r30, 0x03	; 3
     996:	de 07       	cpc	r29, r30
		sysclk_enable_module(SYSCLK_PORT_A, SYSCLK_AC);
     998:	21 f4       	brne	.+8      	; 0x9a2 <usart_init_rs232+0x70>
     99a:	61 e0       	ldi	r22, 0x01	; 1
     99c:	81 e0       	ldi	r24, 0x01	; 1
     99e:	18 d2       	rcall	.+1072   	; 0xdd0 <sysclk_enable_module>
     9a0:	07 c1       	rjmp	.+526    	; 0xbb0 <usart_init_rs232+0x27e>
	}
#endif
#ifdef ACB
	else if (module == &ACB) {
     9a2:	c0 39       	cpi	r28, 0x90	; 144
     9a4:	f3 e0       	ldi	r31, 0x03	; 3
     9a6:	df 07       	cpc	r29, r31
		sysclk_enable_module(SYSCLK_PORT_B, SYSCLK_AC);
     9a8:	21 f4       	brne	.+8      	; 0x9b2 <usart_init_rs232+0x80>
     9aa:	61 e0       	ldi	r22, 0x01	; 1
     9ac:	82 e0       	ldi	r24, 0x02	; 2
     9ae:	10 d2       	rcall	.+1056   	; 0xdd0 <sysclk_enable_module>
	}
#endif
#ifdef ADCA
	else if (module == &ADCA) {
     9b0:	ff c0       	rjmp	.+510    	; 0xbb0 <usart_init_rs232+0x27e>
     9b2:	c1 15       	cp	r28, r1
     9b4:	82 e0       	ldi	r24, 0x02	; 2
     9b6:	d8 07       	cpc	r29, r24
		sysclk_enable_module(SYSCLK_PORT_A, SYSCLK_ADC);
     9b8:	21 f4       	brne	.+8      	; 0x9c2 <usart_init_rs232+0x90>
     9ba:	62 e0       	ldi	r22, 0x02	; 2
     9bc:	81 e0       	ldi	r24, 0x01	; 1
     9be:	08 d2       	rcall	.+1040   	; 0xdd0 <sysclk_enable_module>
	}
#endif
#ifdef ADCB
	else if (module == &ADCB) {
     9c0:	f7 c0       	rjmp	.+494    	; 0xbb0 <usart_init_rs232+0x27e>
     9c2:	c0 34       	cpi	r28, 0x40	; 64
     9c4:	e2 e0       	ldi	r30, 0x02	; 2
     9c6:	de 07       	cpc	r29, r30
		sysclk_enable_module(SYSCLK_PORT_B, SYSCLK_ADC);
     9c8:	21 f4       	brne	.+8      	; 0x9d2 <usart_init_rs232+0xa0>
     9ca:	62 e0       	ldi	r22, 0x02	; 2
     9cc:	82 e0       	ldi	r24, 0x02	; 2
     9ce:	00 d2       	rcall	.+1024   	; 0xdd0 <sysclk_enable_module>
	}
#endif
#ifdef DACA
	else if (module == &DACA) {
     9d0:	ef c0       	rjmp	.+478    	; 0xbb0 <usart_init_rs232+0x27e>
     9d2:	c1 15       	cp	r28, r1
     9d4:	f3 e0       	ldi	r31, 0x03	; 3
     9d6:	df 07       	cpc	r29, r31
		sysclk_enable_module(SYSCLK_PORT_A, SYSCLK_DAC);
     9d8:	21 f4       	brne	.+8      	; 0x9e2 <usart_init_rs232+0xb0>
     9da:	64 e0       	ldi	r22, 0x04	; 4
     9dc:	81 e0       	ldi	r24, 0x01	; 1
     9de:	f8 d1       	rcall	.+1008   	; 0xdd0 <sysclk_enable_module>
	}
#endif
// Workaround for bad XMEGA D header file
#if !XMEGA_D
#ifdef DACB
	else if (module == &DACB) {
     9e0:	e7 c0       	rjmp	.+462    	; 0xbb0 <usart_init_rs232+0x27e>
     9e2:	c0 32       	cpi	r28, 0x20	; 32
     9e4:	83 e0       	ldi	r24, 0x03	; 3
     9e6:	d8 07       	cpc	r29, r24
		sysclk_enable_module(SYSCLK_PORT_B, SYSCLK_DAC);
     9e8:	21 f4       	brne	.+8      	; 0x9f2 <usart_init_rs232+0xc0>
     9ea:	64 e0       	ldi	r22, 0x04	; 4
     9ec:	82 e0       	ldi	r24, 0x02	; 2
     9ee:	f0 d1       	rcall	.+992    	; 0xdd0 <sysclk_enable_module>
	}
#endif
#endif // Workaround end
#ifdef TCC0
	else if (module == &TCC0) {
     9f0:	df c0       	rjmp	.+446    	; 0xbb0 <usart_init_rs232+0x27e>
     9f2:	c1 15       	cp	r28, r1
     9f4:	e8 e0       	ldi	r30, 0x08	; 8
		sysclk_enable_module(SYSCLK_PORT_C, SYSCLK_TC0);
     9f6:	de 07       	cpc	r29, r30
     9f8:	21 f4       	brne	.+8      	; 0xa02 <usart_init_rs232+0xd0>
     9fa:	61 e0       	ldi	r22, 0x01	; 1
     9fc:	83 e0       	ldi	r24, 0x03	; 3
     9fe:	e8 d1       	rcall	.+976    	; 0xdd0 <sysclk_enable_module>
	}
#endif
#ifdef TCD0
	else if (module == &TCD0) {
     a00:	d7 c0       	rjmp	.+430    	; 0xbb0 <usart_init_rs232+0x27e>
     a02:	c1 15       	cp	r28, r1
     a04:	f9 e0       	ldi	r31, 0x09	; 9
		sysclk_enable_module(SYSCLK_PORT_D, SYSCLK_TC0);
     a06:	df 07       	cpc	r29, r31
     a08:	21 f4       	brne	.+8      	; 0xa12 <usart_init_rs232+0xe0>
     a0a:	61 e0       	ldi	r22, 0x01	; 1
     a0c:	84 e0       	ldi	r24, 0x04	; 4
     a0e:	e0 d1       	rcall	.+960    	; 0xdd0 <sysclk_enable_module>
	}
#endif
#ifdef TCE0
	else if (module == &TCE0) {
     a10:	cf c0       	rjmp	.+414    	; 0xbb0 <usart_init_rs232+0x27e>
     a12:	c1 15       	cp	r28, r1
     a14:	8a e0       	ldi	r24, 0x0A	; 10
		sysclk_enable_module(SYSCLK_PORT_E, SYSCLK_TC0);
     a16:	d8 07       	cpc	r29, r24
     a18:	21 f4       	brne	.+8      	; 0xa22 <usart_init_rs232+0xf0>
     a1a:	61 e0       	ldi	r22, 0x01	; 1
     a1c:	85 e0       	ldi	r24, 0x05	; 5
     a1e:	d8 d1       	rcall	.+944    	; 0xdd0 <sysclk_enable_module>
	}
#endif
#ifdef TCF0
	else if (module == &TCF0) {
     a20:	c7 c0       	rjmp	.+398    	; 0xbb0 <usart_init_rs232+0x27e>
     a22:	c1 15       	cp	r28, r1
     a24:	eb e0       	ldi	r30, 0x0B	; 11
		sysclk_enable_module(SYSCLK_PORT_F, SYSCLK_TC0);
     a26:	de 07       	cpc	r29, r30
     a28:	21 f4       	brne	.+8      	; 0xa32 <usart_init_rs232+0x100>
     a2a:	61 e0       	ldi	r22, 0x01	; 1
     a2c:	86 e0       	ldi	r24, 0x06	; 6
	}
#endif
#ifdef TCC1
	else if (module == &TCC1) {
     a2e:	d0 d1       	rcall	.+928    	; 0xdd0 <sysclk_enable_module>
     a30:	bf c0       	rjmp	.+382    	; 0xbb0 <usart_init_rs232+0x27e>
     a32:	c0 34       	cpi	r28, 0x40	; 64
     a34:	f8 e0       	ldi	r31, 0x08	; 8
		sysclk_enable_module(SYSCLK_PORT_C, SYSCLK_TC1);
     a36:	df 07       	cpc	r29, r31
     a38:	21 f4       	brne	.+8      	; 0xa42 <usart_init_rs232+0x110>
     a3a:	62 e0       	ldi	r22, 0x02	; 2
     a3c:	83 e0       	ldi	r24, 0x03	; 3
	}
#endif
#ifdef TCD1
	else if (module == &TCD1) {
     a3e:	c8 d1       	rcall	.+912    	; 0xdd0 <sysclk_enable_module>
     a40:	b7 c0       	rjmp	.+366    	; 0xbb0 <usart_init_rs232+0x27e>
     a42:	c0 34       	cpi	r28, 0x40	; 64
     a44:	89 e0       	ldi	r24, 0x09	; 9
		sysclk_enable_module(SYSCLK_PORT_D, SYSCLK_TC1);
     a46:	d8 07       	cpc	r29, r24
     a48:	21 f4       	brne	.+8      	; 0xa52 <usart_init_rs232+0x120>
     a4a:	62 e0       	ldi	r22, 0x02	; 2
     a4c:	84 e0       	ldi	r24, 0x04	; 4
	}
#endif
#ifdef TCE1
	else if (module == &TCE1) {
     a4e:	c0 d1       	rcall	.+896    	; 0xdd0 <sysclk_enable_module>
     a50:	af c0       	rjmp	.+350    	; 0xbb0 <usart_init_rs232+0x27e>
     a52:	c0 34       	cpi	r28, 0x40	; 64
     a54:	ea e0       	ldi	r30, 0x0A	; 10
		sysclk_enable_module(SYSCLK_PORT_E, SYSCLK_TC1);
     a56:	de 07       	cpc	r29, r30
     a58:	21 f4       	brne	.+8      	; 0xa62 <usart_init_rs232+0x130>
     a5a:	62 e0       	ldi	r22, 0x02	; 2
     a5c:	85 e0       	ldi	r24, 0x05	; 5
	}
#endif
#ifdef TCF1
	else if (module == &TCF1) {
     a5e:	b8 d1       	rcall	.+880    	; 0xdd0 <sysclk_enable_module>
     a60:	a7 c0       	rjmp	.+334    	; 0xbb0 <usart_init_rs232+0x27e>
     a62:	c0 34       	cpi	r28, 0x40	; 64
     a64:	fb e0       	ldi	r31, 0x0B	; 11
		sysclk_enable_module(SYSCLK_PORT_F, SYSCLK_TC1);
     a66:	df 07       	cpc	r29, r31
     a68:	21 f4       	brne	.+8      	; 0xa72 <usart_init_rs232+0x140>
     a6a:	62 e0       	ldi	r22, 0x02	; 2
     a6c:	86 e0       	ldi	r24, 0x06	; 6
	else if (module == &TCD5) {
		sysclk_enable_module(SYSCLK_PORT_D, SYSCLK_TC5);
	}
#endif
#ifdef HIRESC
	else if (module == &HIRESC) {
     a6e:	b0 d1       	rcall	.+864    	; 0xdd0 <sysclk_enable_module>
     a70:	9f c0       	rjmp	.+318    	; 0xbb0 <usart_init_rs232+0x27e>
     a72:	c0 39       	cpi	r28, 0x90	; 144
			sysclk_enable_module(SYSCLK_PORT_C, SYSCLK_HIRES);
     a74:	88 e0       	ldi	r24, 0x08	; 8
     a76:	d8 07       	cpc	r29, r24
     a78:	21 f4       	brne	.+8      	; 0xa82 <usart_init_rs232+0x150>
     a7a:	64 e0       	ldi	r22, 0x04	; 4
     a7c:	83 e0       	ldi	r24, 0x03	; 3
	}
#endif
#ifdef HIRESD
	else if (module == &HIRESD) {
     a7e:	a8 d1       	rcall	.+848    	; 0xdd0 <sysclk_enable_module>
     a80:	97 c0       	rjmp	.+302    	; 0xbb0 <usart_init_rs232+0x27e>
     a82:	c0 39       	cpi	r28, 0x90	; 144
		sysclk_enable_module(SYSCLK_PORT_D, SYSCLK_HIRES);
     a84:	e9 e0       	ldi	r30, 0x09	; 9
     a86:	de 07       	cpc	r29, r30
     a88:	21 f4       	brne	.+8      	; 0xa92 <usart_init_rs232+0x160>
     a8a:	64 e0       	ldi	r22, 0x04	; 4
     a8c:	84 e0       	ldi	r24, 0x04	; 4
	}
#endif
#ifdef HIRESE
	else if (module == &HIRESE) {
     a8e:	a0 d1       	rcall	.+832    	; 0xdd0 <sysclk_enable_module>
     a90:	8f c0       	rjmp	.+286    	; 0xbb0 <usart_init_rs232+0x27e>
     a92:	c0 39       	cpi	r28, 0x90	; 144
		sysclk_enable_module(SYSCLK_PORT_E, SYSCLK_HIRES);
     a94:	fa e0       	ldi	r31, 0x0A	; 10
     a96:	df 07       	cpc	r29, r31
     a98:	21 f4       	brne	.+8      	; 0xaa2 <usart_init_rs232+0x170>
     a9a:	64 e0       	ldi	r22, 0x04	; 4
     a9c:	85 e0       	ldi	r24, 0x05	; 5
	}
#endif
#ifdef HIRESF
	else if (module == &HIRESF) {
     a9e:	98 d1       	rcall	.+816    	; 0xdd0 <sysclk_enable_module>
     aa0:	87 c0       	rjmp	.+270    	; 0xbb0 <usart_init_rs232+0x27e>
     aa2:	c0 39       	cpi	r28, 0x90	; 144
		sysclk_enable_module(SYSCLK_PORT_F, SYSCLK_HIRES);
     aa4:	8b e0       	ldi	r24, 0x0B	; 11
     aa6:	d8 07       	cpc	r29, r24
     aa8:	21 f4       	brne	.+8      	; 0xab2 <usart_init_rs232+0x180>
     aaa:	64 e0       	ldi	r22, 0x04	; 4
	}
#endif
#ifdef SPIC
	else if (module == &SPIC) {
     aac:	86 e0       	ldi	r24, 0x06	; 6
     aae:	90 d1       	rcall	.+800    	; 0xdd0 <sysclk_enable_module>
     ab0:	7f c0       	rjmp	.+254    	; 0xbb0 <usart_init_rs232+0x27e>
     ab2:	c0 3c       	cpi	r28, 0xC0	; 192
		sysclk_enable_module(SYSCLK_PORT_C, SYSCLK_SPI);
     ab4:	e8 e0       	ldi	r30, 0x08	; 8
     ab6:	de 07       	cpc	r29, r30
     ab8:	21 f4       	brne	.+8      	; 0xac2 <usart_init_rs232+0x190>
     aba:	68 e0       	ldi	r22, 0x08	; 8
	}
#endif
#ifdef SPID
	else if (module == &SPID) {
     abc:	83 e0       	ldi	r24, 0x03	; 3
     abe:	88 d1       	rcall	.+784    	; 0xdd0 <sysclk_enable_module>
     ac0:	77 c0       	rjmp	.+238    	; 0xbb0 <usart_init_rs232+0x27e>
     ac2:	c0 3c       	cpi	r28, 0xC0	; 192
		sysclk_enable_module(SYSCLK_PORT_D, SYSCLK_SPI);
     ac4:	f9 e0       	ldi	r31, 0x09	; 9
     ac6:	df 07       	cpc	r29, r31
     ac8:	21 f4       	brne	.+8      	; 0xad2 <usart_init_rs232+0x1a0>
     aca:	68 e0       	ldi	r22, 0x08	; 8
	}
#endif
#ifdef SPIE
	else if (module == &SPIE) {
     acc:	84 e0       	ldi	r24, 0x04	; 4
     ace:	80 d1       	rcall	.+768    	; 0xdd0 <sysclk_enable_module>
     ad0:	6f c0       	rjmp	.+222    	; 0xbb0 <usart_init_rs232+0x27e>
     ad2:	c0 3c       	cpi	r28, 0xC0	; 192
		sysclk_enable_module(SYSCLK_PORT_E, SYSCLK_SPI);
     ad4:	8a e0       	ldi	r24, 0x0A	; 10
     ad6:	d8 07       	cpc	r29, r24
     ad8:	21 f4       	brne	.+8      	; 0xae2 <usart_init_rs232+0x1b0>
     ada:	68 e0       	ldi	r22, 0x08	; 8
	}
#endif
#ifdef SPIF
	else if (module == &SPIF) {
     adc:	85 e0       	ldi	r24, 0x05	; 5
     ade:	78 d1       	rcall	.+752    	; 0xdd0 <sysclk_enable_module>
     ae0:	67 c0       	rjmp	.+206    	; 0xbb0 <usart_init_rs232+0x27e>
     ae2:	c0 3c       	cpi	r28, 0xC0	; 192
		sysclk_enable_module(SYSCLK_PORT_F, SYSCLK_SPI);
     ae4:	eb e0       	ldi	r30, 0x0B	; 11
     ae6:	de 07       	cpc	r29, r30
     ae8:	21 f4       	brne	.+8      	; 0xaf2 <usart_init_rs232+0x1c0>
     aea:	68 e0       	ldi	r22, 0x08	; 8
	}
#endif
#ifdef USARTC0
	else if (module == &USARTC0) {
     aec:	86 e0       	ldi	r24, 0x06	; 6
     aee:	70 d1       	rcall	.+736    	; 0xdd0 <sysclk_enable_module>
     af0:	5f c0       	rjmp	.+190    	; 0xbb0 <usart_init_rs232+0x27e>
		sysclk_enable_module(SYSCLK_PORT_C, SYSCLK_USART0);
     af2:	c0 3a       	cpi	r28, 0xA0	; 160
     af4:	f8 e0       	ldi	r31, 0x08	; 8
     af6:	df 07       	cpc	r29, r31
     af8:	21 f4       	brne	.+8      	; 0xb02 <usart_init_rs232+0x1d0>
     afa:	60 e1       	ldi	r22, 0x10	; 16
	}
#endif
#ifdef USARTD0
	else if (module == &USARTD0) {
     afc:	83 e0       	ldi	r24, 0x03	; 3
     afe:	68 d1       	rcall	.+720    	; 0xdd0 <sysclk_enable_module>
     b00:	57 c0       	rjmp	.+174    	; 0xbb0 <usart_init_rs232+0x27e>
		sysclk_enable_module(SYSCLK_PORT_D, SYSCLK_USART0);
     b02:	c0 3a       	cpi	r28, 0xA0	; 160
     b04:	89 e0       	ldi	r24, 0x09	; 9
     b06:	d8 07       	cpc	r29, r24
     b08:	21 f4       	brne	.+8      	; 0xb12 <usart_init_rs232+0x1e0>
     b0a:	60 e1       	ldi	r22, 0x10	; 16
	}
#endif
#ifdef USARTE0
	else if (module == &USARTE0) {
     b0c:	84 e0       	ldi	r24, 0x04	; 4
     b0e:	60 d1       	rcall	.+704    	; 0xdd0 <sysclk_enable_module>
     b10:	4f c0       	rjmp	.+158    	; 0xbb0 <usart_init_rs232+0x27e>
		sysclk_enable_module(SYSCLK_PORT_E, SYSCLK_USART0);
     b12:	c0 3a       	cpi	r28, 0xA0	; 160
     b14:	ea e0       	ldi	r30, 0x0A	; 10
     b16:	de 07       	cpc	r29, r30
     b18:	21 f4       	brne	.+8      	; 0xb22 <usart_init_rs232+0x1f0>
     b1a:	60 e1       	ldi	r22, 0x10	; 16
	}
#endif
#ifdef USARTF0
	else if (module == &USARTF0) {
     b1c:	85 e0       	ldi	r24, 0x05	; 5
     b1e:	58 d1       	rcall	.+688    	; 0xdd0 <sysclk_enable_module>
     b20:	47 c0       	rjmp	.+142    	; 0xbb0 <usart_init_rs232+0x27e>
		sysclk_enable_module(SYSCLK_PORT_F, SYSCLK_USART0);
     b22:	c0 3a       	cpi	r28, 0xA0	; 160
     b24:	fb e0       	ldi	r31, 0x0B	; 11
     b26:	df 07       	cpc	r29, r31
     b28:	21 f4       	brne	.+8      	; 0xb32 <usart_init_rs232+0x200>
	}
#endif
#ifdef USARTC1
	else if (module == &USARTC1) {
     b2a:	60 e1       	ldi	r22, 0x10	; 16
     b2c:	86 e0       	ldi	r24, 0x06	; 6
     b2e:	50 d1       	rcall	.+672    	; 0xdd0 <sysclk_enable_module>
     b30:	3f c0       	rjmp	.+126    	; 0xbb0 <usart_init_rs232+0x27e>
		sysclk_enable_module(SYSCLK_PORT_C, SYSCLK_USART1);
     b32:	c0 3b       	cpi	r28, 0xB0	; 176
     b34:	88 e0       	ldi	r24, 0x08	; 8
     b36:	d8 07       	cpc	r29, r24
     b38:	21 f4       	brne	.+8      	; 0xb42 <usart_init_rs232+0x210>
	}
#endif
#ifdef USARTD1
	else if (module == &USARTD1) {
     b3a:	60 e2       	ldi	r22, 0x20	; 32
     b3c:	83 e0       	ldi	r24, 0x03	; 3
     b3e:	48 d1       	rcall	.+656    	; 0xdd0 <sysclk_enable_module>
     b40:	37 c0       	rjmp	.+110    	; 0xbb0 <usart_init_rs232+0x27e>
		sysclk_enable_module(SYSCLK_PORT_D, SYSCLK_USART1);
     b42:	c0 3b       	cpi	r28, 0xB0	; 176
     b44:	e9 e0       	ldi	r30, 0x09	; 9
     b46:	de 07       	cpc	r29, r30
     b48:	21 f4       	brne	.+8      	; 0xb52 <usart_init_rs232+0x220>
	}
#endif
#ifdef USARTE1
	else if (module == &USARTE1) {
     b4a:	60 e2       	ldi	r22, 0x20	; 32
     b4c:	84 e0       	ldi	r24, 0x04	; 4
     b4e:	40 d1       	rcall	.+640    	; 0xdd0 <sysclk_enable_module>
     b50:	2f c0       	rjmp	.+94     	; 0xbb0 <usart_init_rs232+0x27e>
		sysclk_enable_module(SYSCLK_PORT_E, SYSCLK_USART1);
     b52:	c0 3b       	cpi	r28, 0xB0	; 176
     b54:	fa e0       	ldi	r31, 0x0A	; 10
     b56:	df 07       	cpc	r29, r31
     b58:	21 f4       	brne	.+8      	; 0xb62 <usart_init_rs232+0x230>
	}
#endif
#ifdef USARTF1
	else if (module == &USARTF1) {
     b5a:	60 e2       	ldi	r22, 0x20	; 32
     b5c:	85 e0       	ldi	r24, 0x05	; 5
     b5e:	38 d1       	rcall	.+624    	; 0xdd0 <sysclk_enable_module>
     b60:	27 c0       	rjmp	.+78     	; 0xbb0 <usart_init_rs232+0x27e>
		sysclk_enable_module(SYSCLK_PORT_F, SYSCLK_USART1);
     b62:	c0 3b       	cpi	r28, 0xB0	; 176
     b64:	8b e0       	ldi	r24, 0x0B	; 11
     b66:	d8 07       	cpc	r29, r24
     b68:	21 f4       	brne	.+8      	; 0xb72 <usart_init_rs232+0x240>
	}
#endif
#ifdef TWIC
	else if (module == &TWIC) {
     b6a:	60 e2       	ldi	r22, 0x20	; 32
     b6c:	86 e0       	ldi	r24, 0x06	; 6
     b6e:	30 d1       	rcall	.+608    	; 0xdd0 <sysclk_enable_module>
     b70:	1f c0       	rjmp	.+62     	; 0xbb0 <usart_init_rs232+0x27e>
		sysclk_enable_module(SYSCLK_PORT_C, SYSCLK_TWI);
     b72:	c0 38       	cpi	r28, 0x80	; 128
     b74:	e4 e0       	ldi	r30, 0x04	; 4
     b76:	de 07       	cpc	r29, r30
     b78:	21 f4       	brne	.+8      	; 0xb82 <usart_init_rs232+0x250>
     b7a:	60 e4       	ldi	r22, 0x40	; 64
	}
#endif
#ifdef TWID
	else if (module == &TWID) {
     b7c:	83 e0       	ldi	r24, 0x03	; 3
     b7e:	28 d1       	rcall	.+592    	; 0xdd0 <sysclk_enable_module>
     b80:	17 c0       	rjmp	.+46     	; 0xbb0 <usart_init_rs232+0x27e>
     b82:	c0 39       	cpi	r28, 0x90	; 144
		sysclk_enable_module(SYSCLK_PORT_D, SYSCLK_TWI);
     b84:	f4 e0       	ldi	r31, 0x04	; 4
     b86:	df 07       	cpc	r29, r31
     b88:	21 f4       	brne	.+8      	; 0xb92 <usart_init_rs232+0x260>
     b8a:	60 e4       	ldi	r22, 0x40	; 64
     b8c:	84 e0       	ldi	r24, 0x04	; 4
	}
#endif
#ifdef TWIE
	else if (module == &TWIE) {
     b8e:	20 d1       	rcall	.+576    	; 0xdd0 <sysclk_enable_module>
     b90:	0f c0       	rjmp	.+30     	; 0xbb0 <usart_init_rs232+0x27e>
     b92:	c0 3a       	cpi	r28, 0xA0	; 160
		sysclk_enable_module(SYSCLK_PORT_E, SYSCLK_TWI);
     b94:	84 e0       	ldi	r24, 0x04	; 4
     b96:	d8 07       	cpc	r29, r24
     b98:	21 f4       	brne	.+8      	; 0xba2 <usart_init_rs232+0x270>
     b9a:	60 e4       	ldi	r22, 0x40	; 64
     b9c:	85 e0       	ldi	r24, 0x05	; 5
	}
#endif
#ifdef TWIF
	else if (module == &TWIF) {
     b9e:	18 d1       	rcall	.+560    	; 0xdd0 <sysclk_enable_module>
     ba0:	07 c0       	rjmp	.+14     	; 0xbb0 <usart_init_rs232+0x27e>
     ba2:	c0 3b       	cpi	r28, 0xB0	; 176
     ba4:	e4 e0       	ldi	r30, 0x04	; 4
		sysclk_enable_module(SYSCLK_PORT_F, SYSCLK_TWI);
     ba6:	de 07       	cpc	r29, r30
     ba8:	19 f4       	brne	.+6      	; 0xbb0 <usart_init_rs232+0x27e>
     baa:	60 e4       	ldi	r22, 0x40	; 64
     bac:	86 e0       	ldi	r24, 0x06	; 6
 * - 0x2        : IrDA mode.
 * - 0x3        : Master SPI mode.
 */
static inline void usart_set_mode(USART_t *usart, USART_CMODE_t usartmode)
{
	(usart)->CTRLC = ((usart)->CTRLC & (~USART_CMODE_gm)) | usartmode;
     bae:	10 d1       	rcall	.+544    	; 0xdd0 <sysclk_enable_module>
     bb0:	8d 81       	ldd	r24, Y+5	; 0x05
     bb2:	8f 73       	andi	r24, 0x3F	; 63
 *  \param twoStopBits Enable two stop bit mode. Use bool type.
 */
static inline void usart_format_set(USART_t *usart, USART_CHSIZE_t charSize,
		USART_PMODE_t parityMode, bool twoStopBits)
{
	(usart)->CTRLC = (uint8_t)charSize | parityMode
     bb4:	8d 83       	std	Y+5, r24	; 0x05
     bb6:	f8 01       	movw	r30, r16
     bb8:	95 81       	ldd	r25, Z+5	; 0x05
     bba:	84 81       	ldd	r24, Z+4	; 0x04
     bbc:	89 2b       	or	r24, r25
     bbe:	96 81       	ldd	r25, Z+6	; 0x06
     bc0:	91 11       	cpse	r25, r1
     bc2:	98 e0       	ldi	r25, 0x08	; 8
     bc4:	89 2b       	or	r24, r25
	bool result;
	sysclk_enable_peripheral_clock(usart);
	usart_set_mode(usart, USART_CMODE_ASYNCHRONOUS_gc);
	usart_format_set(usart, opt->charlength, opt->paritytype,
			opt->stopbits);
	result = usart_set_baudrate(usart, opt->baudrate, sysclk_get_per_hz());
     bc6:	8d 83       	std	Y+5, r24	; 0x05
     bc8:	f8 01       	movw	r30, r16
     bca:	40 81       	ld	r20, Z
     bcc:	51 81       	ldd	r21, Z+1	; 0x01
     bce:	62 81       	ldd	r22, Z+2	; 0x02
     bd0:	73 81       	ldd	r23, Z+3	; 0x03
     bd2:	00 e8       	ldi	r16, 0x80	; 128
     bd4:	14 e8       	ldi	r17, 0x84	; 132
     bd6:	2e e1       	ldi	r18, 0x1E	; 30
     bd8:	30 e0       	ldi	r19, 0x00	; 0
     bda:	ce 01       	movw	r24, r28
     bdc:	97 dd       	rcall	.-1234   	; 0x70c <usart_set_baudrate>
 *
 * \param usart Pointer to the USART module.
 */
static inline void usart_tx_enable(USART_t *usart)
{
	(usart)->CTRLB |= USART_TXEN_bm;
     bde:	9c 81       	ldd	r25, Y+4	; 0x04
     be0:	98 60       	ori	r25, 0x08	; 8
     be2:	9c 83       	std	Y+4, r25	; 0x04
 *
 * \param usart Pointer to the USART module
 */
static inline void usart_rx_enable(USART_t *usart)
{
	(usart)->CTRLB |= USART_RXEN_bm;
     be4:	9c 81       	ldd	r25, Y+4	; 0x04
     be6:	90 61       	ori	r25, 0x10	; 16
     be8:	9c 83       	std	Y+4, r25	; 0x04
	usart_tx_enable(usart);
	usart_rx_enable(usart);
	
	return result;
}
     bea:	df 91       	pop	r29
     bec:	cf 91       	pop	r28
     bee:	1f 91       	pop	r17
     bf0:	0f 91       	pop	r16
     bf2:	08 95       	ret

00000bf4 <__portable_avr_delay_cycles>:
 *
 * @{
 */
__always_optimize
static inline void __portable_avr_delay_cycles(unsigned long n)
{
     bf4:	04 c0       	rjmp	.+8      	; 0xbfe <__portable_avr_delay_cycles+0xa>
	while (n) {
		barrier();
		n--;
     bf6:	61 50       	subi	r22, 0x01	; 1
     bf8:	71 09       	sbc	r23, r1
     bfa:	81 09       	sbc	r24, r1
     bfc:	91 09       	sbc	r25, r1
 * @{
 */
__always_optimize
static inline void __portable_avr_delay_cycles(unsigned long n)
{
	while (n) {
     bfe:	61 15       	cp	r22, r1
     c00:	71 05       	cpc	r23, r1
     c02:	81 05       	cpc	r24, r1
     c04:	91 05       	cpc	r25, r1
     c06:	b9 f7       	brne	.-18     	; 0xbf6 <__portable_avr_delay_cycles+0x2>
     c08:	08 95       	ret

00000c0a <ms5607_read>:
#define CMD_MS5607_CONVERT_D1	0x48
#define CMD_MS5607_CONVERT_D2	0x58
#define MS5607_PORT				0x10

uint16_t ms5607_read(uint16_t comm)
{
     c0a:	cf 93       	push	r28
     c0c:	df 93       	push	r29
     c0e:	c8 2f       	mov	r28, r24
	uint16_t rx_data = 0; // temporary 16-bit value
	spi_select(MS5607_PORT); // select our spi device
     c10:	80 e1       	ldi	r24, 0x10	; 16
     c12:	66 d0       	rcall	.+204    	; 0xce0 <spi_select>
	spi_write(comm); // write a specified command to ask for data
     c14:	8c 2f       	mov	r24, r28
	
	/*typecast this expression from an 8-bit to a 16-bit and shift it 8 bits to the left
	  meaning the returned value is now in the upper 8 bits rx_data*/
	rx_data = (uint16_t)spi_read()<<8; 
     c16:	75 d0       	rcall	.+234    	; 0xd02 <spi_write>
     c18:	69 d0       	rcall	.+210    	; 0xcec <spi_read>
     c1a:	c8 2f       	mov	r28, r24
     c1c:	d0 e0       	ldi	r29, 0x00	; 0
     c1e:	dc 2f       	mov	r29, r28
	
	// OR the second byte with the 16-bit variable, the returned value is now in the lower 8 bits of 'rx_data'
	rx_data |= spi_read(); 
     c20:	cc 27       	eor	r28, r28
     c22:	64 d0       	rcall	.+200    	; 0xcec <spi_read>
	
	spi_select(MS5607_PORT); // end spi exchange
     c24:	c8 2b       	or	r28, r24
     c26:	80 e1       	ldi	r24, 0x10	; 16
     c28:	5b d0       	rcall	.+182    	; 0xce0 <spi_select>
	
	return rx_data; // return the 16-bit value
}
     c2a:	ce 01       	movw	r24, r28
     c2c:	df 91       	pop	r29
     c2e:	cf 91       	pop	r28
     c30:	08 95       	ret

00000c32 <ms5607_convert_d1>:

uint32_t ms5607_convert_d1(void)
{
     c32:	cf 92       	push	r12
     c34:	df 92       	push	r13
     c36:	ef 92       	push	r14
     c38:	ff 92       	push	r15
	uint32_t rx_data = 0; // temporary 16-bit value
	// CONVERT D1
	spi_select(MS5607_PORT); // select our spi device
     c3a:	80 e1       	ldi	r24, 0x10	; 16
     c3c:	51 d0       	rcall	.+162    	; 0xce0 <spi_select>
	spi_write(CMD_MS5607_CONVERT_D1); // write a specified command to ask for data
     c3e:	88 e4       	ldi	r24, 0x48	; 72
     c40:	60 d0       	rcall	.+192    	; 0xd02 <spi_write>
	delay_ms(10);
     c42:	66 e0       	ldi	r22, 0x06	; 6
     c44:	7d e0       	ldi	r23, 0x0D	; 13
     c46:	80 e0       	ldi	r24, 0x00	; 0
     c48:	90 e0       	ldi	r25, 0x00	; 0
	spi_select(MS5607_PORT);
     c4a:	d4 df       	rcall	.-88     	; 0xbf4 <__portable_avr_delay_cycles>
     c4c:	80 e1       	ldi	r24, 0x10	; 16
	
	spi_select(MS5607_PORT);
     c4e:	48 d0       	rcall	.+144    	; 0xce0 <spi_select>
     c50:	80 e1       	ldi	r24, 0x10	; 16
	spi_write(CMD_MS5607_READ_ADC);
     c52:	46 d0       	rcall	.+140    	; 0xce0 <spi_select>
     c54:	80 e0       	ldi	r24, 0x00	; 0
     c56:	55 d0       	rcall	.+170    	; 0xd02 <spi_write>
	rx_data  = (uint32_t) spi_read()<<16;
     c58:	49 d0       	rcall	.+146    	; 0xcec <spi_read>
     c5a:	c8 2e       	mov	r12, r24
     c5c:	d1 2c       	mov	r13, r1
     c5e:	e1 2c       	mov	r14, r1
     c60:	f1 2c       	mov	r15, r1
     c62:	76 01       	movw	r14, r12
     c64:	dd 24       	eor	r13, r13
	rx_data |= (uint32_t) spi_read()<<8;
     c66:	cc 24       	eor	r12, r12
     c68:	41 d0       	rcall	.+130    	; 0xcec <spi_read>
     c6a:	d8 2a       	or	r13, r24
	rx_data |= spi_read();
     c6c:	3f d0       	rcall	.+126    	; 0xcec <spi_read>
     c6e:	c8 2a       	or	r12, r24
     c70:	80 e1       	ldi	r24, 0x10	; 16
	spi_select(MS5607_PORT);
     c72:	36 d0       	rcall	.+108    	; 0xce0 <spi_select>
     c74:	c7 01       	movw	r24, r14
     c76:	b6 01       	movw	r22, r12
	
	return rx_data;
}
     c78:	ff 90       	pop	r15
     c7a:	ef 90       	pop	r14
     c7c:	df 90       	pop	r13
     c7e:	cf 90       	pop	r12
     c80:	08 95       	ret

00000c82 <ms5607_convert_d2>:
     c82:	cf 92       	push	r12
     c84:	df 92       	push	r13

uint32_t ms5607_convert_d2(void)
{
     c86:	ef 92       	push	r14
     c88:	ff 92       	push	r15
	uint32_t rx_data = 0; // temporary 16-bit value
	// CONVERT D2
	spi_select(MS5607_PORT); // select our spi device
     c8a:	80 e1       	ldi	r24, 0x10	; 16
     c8c:	29 d0       	rcall	.+82     	; 0xce0 <spi_select>
	spi_write(CMD_MS5607_CONVERT_D2); // write a specified command to ask for data
     c8e:	88 e5       	ldi	r24, 0x58	; 88
     c90:	38 d0       	rcall	.+112    	; 0xd02 <spi_write>
	delay_ms(10);
     c92:	66 e0       	ldi	r22, 0x06	; 6
     c94:	7d e0       	ldi	r23, 0x0D	; 13
     c96:	80 e0       	ldi	r24, 0x00	; 0
     c98:	90 e0       	ldi	r25, 0x00	; 0
	spi_select(MS5607_PORT);
     c9a:	ac df       	rcall	.-168    	; 0xbf4 <__portable_avr_delay_cycles>
     c9c:	80 e1       	ldi	r24, 0x10	; 16
	
	spi_select(MS5607_PORT);
     c9e:	20 d0       	rcall	.+64     	; 0xce0 <spi_select>
     ca0:	80 e1       	ldi	r24, 0x10	; 16
	spi_write(CMD_MS5607_READ_ADC);
     ca2:	1e d0       	rcall	.+60     	; 0xce0 <spi_select>
     ca4:	80 e0       	ldi	r24, 0x00	; 0
     ca6:	2d d0       	rcall	.+90     	; 0xd02 <spi_write>
	rx_data  = (uint32_t) spi_read()<<16;
     ca8:	21 d0       	rcall	.+66     	; 0xcec <spi_read>
     caa:	c8 2e       	mov	r12, r24
     cac:	d1 2c       	mov	r13, r1
     cae:	e1 2c       	mov	r14, r1
     cb0:	f1 2c       	mov	r15, r1
     cb2:	76 01       	movw	r14, r12
     cb4:	dd 24       	eor	r13, r13
	rx_data |= (uint32_t) spi_read()<<8;
     cb6:	cc 24       	eor	r12, r12
     cb8:	19 d0       	rcall	.+50     	; 0xcec <spi_read>
     cba:	d8 2a       	or	r13, r24
	rx_data |= spi_read();
     cbc:	17 d0       	rcall	.+46     	; 0xcec <spi_read>
     cbe:	c8 2a       	or	r12, r24
     cc0:	80 e1       	ldi	r24, 0x10	; 16
	spi_select(MS5607_PORT);
     cc2:	0e d0       	rcall	.+28     	; 0xce0 <spi_select>
     cc4:	c7 01       	movw	r24, r14
     cc6:	b6 01       	movw	r22, r12
	
	return rx_data;
     cc8:	ff 90       	pop	r15
     cca:	ef 90       	pop	r14
     ccc:	df 90       	pop	r13
     cce:	cf 90       	pop	r12
     cd0:	08 95       	ret

00000cd2 <spi_init>:
		sysclk_enable_module(SYSCLK_PORT_F, SYSCLK_HIRES);
	}
#endif
#ifdef SPIC
	else if (module == &SPIC) {
		sysclk_enable_module(SYSCLK_PORT_C, SYSCLK_SPI);
     cd2:	68 e0       	ldi	r22, 0x08	; 8
     cd4:	83 e0       	ldi	r24, 0x03	; 3
     cd6:	7c d0       	rcall	.+248    	; 0xdd0 <sysclk_enable_module>
#include "spi_controller.h"

void spi_init(void)
{
	sysclk_enable_peripheral_clock(&SPIC);
	SPIC.CTRL = 0x51; //enables SPI and puts a  prescaler of 16
     cd8:	81 e5       	ldi	r24, 0x51	; 81
     cda:	80 93 c0 08 	sts	0x08C0, r24	; 0x8008c0 <__TEXT_REGION_LENGTH__+0x7008c0>
     cde:	08 95       	ret

00000ce0 <spi_select>:
}

void spi_select(uint8_t port)
{
	PORTC.OUT ^= port; //switches SS low
     ce0:	e0 e4       	ldi	r30, 0x40	; 64
     ce2:	f6 e0       	ldi	r31, 0x06	; 6
     ce4:	94 81       	ldd	r25, Z+4	; 0x04
     ce6:	89 27       	eor	r24, r25
     ce8:	84 83       	std	Z+4, r24	; 0x04
     cea:	08 95       	ret

00000cec <spi_read>:
}

uint8_t spi_read(void)
{
	SPIC.DATA = 0xFF; // make the DATA register something we know
     cec:	8f ef       	ldi	r24, 0xFF	; 255
     cee:	80 93 c3 08 	sts	0x08C3, r24	; 0x8008c3 <__TEXT_REGION_LENGTH__+0x7008c3>
	while(!(SPIC.STATUS>>7)); // wait for the SPI interrupt flag to let us know the transfer is complete
     cf2:	e0 ec       	ldi	r30, 0xC0	; 192
     cf4:	f8 e0       	ldi	r31, 0x08	; 8
     cf6:	82 81       	ldd	r24, Z+2	; 0x02
     cf8:	88 23       	and	r24, r24
     cfa:	ec f7       	brge	.-6      	; 0xcf6 <spi_read+0xa>
	
	return SPIC.DATA; // return the data from this function
     cfc:	80 91 c3 08 	lds	r24, 0x08C3	; 0x8008c3 <__TEXT_REGION_LENGTH__+0x7008c3>
}
     d00:	08 95       	ret

00000d02 <spi_write>:

void spi_write(uint8_t data)
{
	SPIC.DATA = data; // write the data we want to send to the data register
     d02:	80 93 c3 08 	sts	0x08C3, r24	; 0x8008c3 <__TEXT_REGION_LENGTH__+0x7008c3>
	while(!(SPIC.STATUS>>7)); // wait to ensure the data is sent before we do anything else
     d06:	e0 ec       	ldi	r30, 0xC0	; 192
     d08:	f8 e0       	ldi	r31, 0x08	; 8
     d0a:	82 81       	ldd	r24, Z+2	; 0x02
     d0c:	88 23       	and	r24, r24
     d0e:	ec f7       	brge	.-6      	; 0xd0a <spi_write+0x8>
     d10:	08 95       	ret

00000d12 <usart_serial_getchar>:
 * \param usart   Base address of the USART instance.
 * \param data   Data to read
 *
 */
static inline void usart_serial_getchar(usart_if usart, uint8_t *data)
{
     d12:	cf 93       	push	r28
     d14:	df 93       	push	r29
     d16:	eb 01       	movw	r28, r22
	*data = usart_getchar(usart);
     d18:	f3 dc       	rcall	.-1562   	; 0x700 <usart_getchar>
     d1a:	88 83       	st	Y, r24
}
     d1c:	df 91       	pop	r29
     d1e:	cf 91       	pop	r28
     d20:	08 95       	ret

00000d22 <usart_serial_putchar>:
 *
 * \return Status code
 */
static inline enum status_code usart_serial_putchar(usart_if usart, uint8_t c)
{
	return usart_putchar(usart, c);
     d22:	e6 cc       	rjmp	.-1588   	; 0x6f0 <usart_putchar>
}
     d24:	08 95       	ret

00000d26 <uart_terminal_init>:

#include <asf.h>
#include "uart.h"

void uart_terminal_init()
{
     d26:	cf 93       	push	r28
     d28:	df 93       	push	r29
     d2a:	cd b7       	in	r28, 0x3d	; 61
     d2c:	de b7       	in	r29, 0x3e	; 62
     d2e:	27 97       	sbiw	r28, 0x07	; 7
     d30:	cd bf       	out	0x3d, r28	; 61
     d32:	de bf       	out	0x3e, r29	; 62
		sysclk_enable_module(SYSCLK_PORT_D, SYSCLK_USART0);
	}
#endif
#ifdef USARTE0
	else if (module == &USARTE0) {
		sysclk_enable_module(SYSCLK_PORT_E, SYSCLK_USART0);
     d34:	60 e1       	ldi	r22, 0x10	; 16
     d36:	85 e0       	ldi	r24, 0x05	; 5
     d38:	4b d0       	rcall	.+150    	; 0xdd0 <sysclk_enable_module>
		.charlength =	UART_TERMINAL_SERIAL_CHAR_LEN,
		.paritytype =	UART_TERMINAL_SERIAL_PARITY,
		.stopbits	=	UART_TERMINAL_SERIAL_STOP_BIT
	};
	
	UART_TERMINAL_PORT.DIR |= UART_TERMINAL_TX_PIN;	// set the USART transmit pin to output
     d3a:	e0 e8       	ldi	r30, 0x80	; 128
     d3c:	f6 e0       	ldi	r31, 0x06	; 6
     d3e:	80 81       	ld	r24, Z
     d40:	88 60       	ori	r24, 0x08	; 8
     d42:	80 83       	st	Z, r24
 * \param opt         Options needed to set up RS232 communication (see \ref usart_options_t).
 *
 */
static inline void stdio_serial_init(volatile void *usart, const usart_serial_options_t *opt)
{
	stdio_base = (void *)usart;
     d44:	80 ea       	ldi	r24, 0xA0	; 160
     d46:	9a e0       	ldi	r25, 0x0A	; 10
     d48:	80 93 7d 20 	sts	0x207D, r24	; 0x80207d <stdio_base>
     d4c:	90 93 7e 20 	sts	0x207E, r25	; 0x80207e <stdio_base+0x1>
	ptr_put = (int (*)(void volatile*,char))&usart_serial_putchar;
     d50:	81 e9       	ldi	r24, 0x91	; 145
     d52:	96 e0       	ldi	r25, 0x06	; 6
     d54:	80 93 7b 20 	sts	0x207B, r24	; 0x80207b <ptr_put>
     d58:	90 93 7c 20 	sts	0x207C, r25	; 0x80207c <ptr_put+0x1>
	ptr_get = (void (*)(void volatile*,char*))&usart_serial_getchar;
     d5c:	89 e8       	ldi	r24, 0x89	; 137
     d5e:	96 e0       	ldi	r25, 0x06	; 6
     d60:	80 93 79 20 	sts	0x2079, r24	; 0x802079 <ptr_get>
     d64:	90 93 7a 20 	sts	0x207A, r25	; 0x80207a <ptr_get+0x1>
static inline bool usart_serial_init(usart_if usart, const
		usart_serial_options_t *options)
{
	// USART options.
	usart_rs232_options_t usart_rs232_options;
	usart_rs232_options.charlength   = options->charlength;
     d68:	e6 e0       	ldi	r30, 0x06	; 6
     d6a:	f0 e2       	ldi	r31, 0x20	; 32
     d6c:	84 81       	ldd	r24, Z+4	; 0x04
     d6e:	8d 83       	std	Y+5, r24	; 0x05
	usart_rs232_options.paritytype   = options->paritytype;
     d70:	85 81       	ldd	r24, Z+5	; 0x05
     d72:	8e 83       	std	Y+6, r24	; 0x06
	usart_rs232_options.stopbits     = options->stopbits;
     d74:	86 81       	ldd	r24, Z+6	; 0x06
     d76:	8f 83       	std	Y+7, r24	; 0x07
	usart_rs232_options.baudrate     = options->baudrate;
     d78:	80 81       	ld	r24, Z
     d7a:	91 81       	ldd	r25, Z+1	; 0x01
     d7c:	a2 81       	ldd	r26, Z+2	; 0x02
     d7e:	b3 81       	ldd	r27, Z+3	; 0x03
     d80:	89 83       	std	Y+1, r24	; 0x01
     d82:	9a 83       	std	Y+2, r25	; 0x02
     d84:	ab 83       	std	Y+3, r26	; 0x03
     d86:	bc 83       	std	Y+4, r27	; 0x04
		sysclk_enable_module(SYSCLK_PORT_D,PR_USART1_bm);
	}
#endif
#ifdef USARTE0
	if((uint16_t)usart == (uint16_t)&USARTE0) {
		sysclk_enable_module(SYSCLK_PORT_E,PR_USART0_bm);
     d88:	60 e1       	ldi	r22, 0x10	; 16
     d8a:	85 e0       	ldi	r24, 0x05	; 5
     d8c:	21 d0       	rcall	.+66     	; 0xdd0 <sysclk_enable_module>
#ifdef USARTF1
	if((uint16_t)usart == (uint16_t)&USARTF1) {
		sysclk_enable_module(SYSCLK_PORT_F,PR_USART1_bm);
	}
#endif
	if (usart_init_rs232(usart, &usart_rs232_options)) {
     d8e:	be 01       	movw	r22, r28
     d90:	6f 5f       	subi	r22, 0xFF	; 255
     d92:	7f 4f       	sbci	r23, 0xFF	; 255
     d94:	80 ea       	ldi	r24, 0xA0	; 160
     d96:	9a e0       	ldi	r25, 0x0A	; 10
     d98:	cc dd       	rcall	.-1128   	; 0x932 <usart_init_rs232>
# endif

# if defined(__GNUC__)
#  if (XMEGA || MEGA_RF)
	// For AVR GCC libc print redirection uses fdevopen.
	fdevopen((int (*)(char, FILE*))(_write),(int (*)(FILE*))(_read));
     d9a:	65 e6       	ldi	r22, 0x65	; 101
     d9c:	71 e0       	ldi	r23, 0x01	; 1
     d9e:	8e e7       	ldi	r24, 0x7E	; 126
     da0:	91 e0       	ldi	r25, 0x01	; 1
     da2:	d6 d5       	rcall	.+2988   	; 0x1950 <fdevopen>
	
	stdio_serial_init(UART_TERMINAL_SERIAL, &usart_config); // function maps the serial output to printf, not necessary to know how it works
	
     da4:	27 96       	adiw	r28, 0x07	; 7
     da6:	cd bf       	out	0x3d, r28	; 61
     da8:	de bf       	out	0x3e, r29	; 62
     daa:	df 91       	pop	r29
     dac:	cf 91       	pop	r28
     dae:	08 95       	ret

00000db0 <sysclk_init>:
#endif
	bool need_rc2mhz = false;

	/* Turn off all peripheral clocks that can be turned off. */
	for (i = 0; i <= SYSCLK_PORT_F; i++) {
		*(reg++) = 0xff;
     db0:	8f ef       	ldi	r24, 0xFF	; 255
     db2:	80 93 70 00 	sts	0x0070, r24	; 0x800070 <__TEXT_REGION_LENGTH__+0x700070>
     db6:	80 93 71 00 	sts	0x0071, r24	; 0x800071 <__TEXT_REGION_LENGTH__+0x700071>
     dba:	80 93 72 00 	sts	0x0072, r24	; 0x800072 <__TEXT_REGION_LENGTH__+0x700072>
     dbe:	80 93 73 00 	sts	0x0073, r24	; 0x800073 <__TEXT_REGION_LENGTH__+0x700073>
     dc2:	80 93 74 00 	sts	0x0074, r24	; 0x800074 <__TEXT_REGION_LENGTH__+0x700074>
     dc6:	80 93 75 00 	sts	0x0075, r24	; 0x800075 <__TEXT_REGION_LENGTH__+0x700075>
     dca:	80 93 76 00 	sts	0x0076, r24	; 0x800076 <__TEXT_REGION_LENGTH__+0x700076>
     dce:	08 95       	ret

00000dd0 <sysclk_enable_module>:
	sysclk_rtcsrc_enable(CONFIG_RTC_SOURCE);
#endif
}

void sysclk_enable_module(enum sysclk_port_id port, uint8_t id)
{
     dd0:	cf 93       	push	r28
     dd2:	df 93       	push	r29
     dd4:	1f 92       	push	r1
     dd6:	cd b7       	in	r28, 0x3d	; 61
     dd8:	de b7       	in	r29, 0x3e	; 62

typedef uint8_t irqflags_t;

static inline irqflags_t cpu_irq_save(void)
{
	volatile irqflags_t flags = SREG;
     dda:	9f b7       	in	r25, 0x3f	; 63
     ddc:	99 83       	std	Y+1, r25	; 0x01
	cpu_irq_disable();
     dde:	f8 94       	cli
	return flags;
     de0:	99 81       	ldd	r25, Y+1	; 0x01
	irqflags_t flags = cpu_irq_save();

	*((uint8_t *)&PR.PRGEN + port) &= ~id;
     de2:	e8 2f       	mov	r30, r24
     de4:	f0 e0       	ldi	r31, 0x00	; 0
     de6:	e0 59       	subi	r30, 0x90	; 144
     de8:	ff 4f       	sbci	r31, 0xFF	; 255
     dea:	60 95       	com	r22
     dec:	80 81       	ld	r24, Z
     dee:	68 23       	and	r22, r24
     df0:	60 83       	st	Z, r22
}

static inline void cpu_irq_restore(irqflags_t flags)
{
	barrier();
	SREG = flags;
     df2:	9f bf       	out	0x3f, r25	; 63

	cpu_irq_restore(flags);
}
     df4:	0f 90       	pop	r0
     df6:	df 91       	pop	r29
     df8:	cf 91       	pop	r28
     dfa:	08 95       	ret

00000dfc <__portable_avr_delay_cycles>:
	uint16_t reading = adc_read();
	double voltage = (.000495 * reading + .5016); // m and b are collected from testing
	double resistance = 6720 * (3.3 - voltage) / voltage; // 6720 is the resistance of the steady resistor
	val = (uint16_t) (100 / (3.354016E-3 + 2.569850E-4 * log(resistance / 10000) + 2.620131E-6 * pow(log(resistance / 10000), 2) + 6.383091E-8 * pow(log(resistance / 10000), 3))); // returns the temperature in hundredths of kelvin
	return val / 100; //returns the temperature in kelvin
}
     dfc:	04 c0       	rjmp	.+8      	; 0xe06 <__portable_avr_delay_cycles+0xa>
     dfe:	61 50       	subi	r22, 0x01	; 1
     e00:	71 09       	sbc	r23, r1
     e02:	81 09       	sbc	r24, r1
     e04:	91 09       	sbc	r25, r1
     e06:	61 15       	cp	r22, r1
     e08:	71 05       	cpc	r23, r1
     e0a:	81 05       	cpc	r24, r1
     e0c:	91 05       	cpc	r25, r1
     e0e:	b9 f7       	brne	.-18     	; 0xdfe <__portable_avr_delay_cycles+0x2>
     e10:	08 95       	ret

00000e12 <ms5607_init>:
     e12:	0f 93       	push	r16
     e14:	1f 93       	push	r17
     e16:	cf 93       	push	r28
     e18:	df 93       	push	r29
     e1a:	80 e1       	ldi	r24, 0x10	; 16
     e1c:	61 df       	rcall	.-318    	; 0xce0 <spi_select>
     e1e:	8e e1       	ldi	r24, 0x1E	; 30
     e20:	70 df       	rcall	.-288    	; 0xd02 <spi_write>
     e22:	68 ee       	ldi	r22, 0xE8	; 232
     e24:	73 e0       	ldi	r23, 0x03	; 3
     e26:	80 e0       	ldi	r24, 0x00	; 0
     e28:	90 e0       	ldi	r25, 0x00	; 0
     e2a:	e8 df       	rcall	.-48     	; 0xdfc <__portable_avr_delay_cycles>
     e2c:	80 e1       	ldi	r24, 0x10	; 16
     e2e:	58 df       	rcall	.-336    	; 0xce0 <spi_select>
     e30:	6b e9       	ldi	r22, 0x9B	; 155
     e32:	72 e0       	ldi	r23, 0x02	; 2
     e34:	80 e0       	ldi	r24, 0x00	; 0
     e36:	90 e0       	ldi	r25, 0x00	; 0
     e38:	e1 df       	rcall	.-62     	; 0xdfc <__portable_avr_delay_cycles>
     e3a:	82 ea       	ldi	r24, 0xA2	; 162
     e3c:	90 e0       	ldi	r25, 0x00	; 0
     e3e:	e5 de       	rcall	.-566    	; 0xc0a <ms5607_read>
     e40:	18 2f       	mov	r17, r24
     e42:	09 2f       	mov	r16, r25
     e44:	84 ea       	ldi	r24, 0xA4	; 164
     e46:	90 e0       	ldi	r25, 0x00	; 0
     e48:	e0 de       	rcall	.-576    	; 0xc0a <ms5607_read>
     e4a:	c8 e6       	ldi	r28, 0x68	; 104
     e4c:	d0 e2       	ldi	r29, 0x20	; 32
     e4e:	8a 83       	std	Y+2, r24	; 0x02
     e50:	9b 83       	std	Y+3, r25	; 0x03
     e52:	86 ea       	ldi	r24, 0xA6	; 166
     e54:	90 e0       	ldi	r25, 0x00	; 0
     e56:	d9 de       	rcall	.-590    	; 0xc0a <ms5607_read>
     e58:	8c 83       	std	Y+4, r24	; 0x04
     e5a:	9d 83       	std	Y+5, r25	; 0x05
     e5c:	88 ea       	ldi	r24, 0xA8	; 168
     e5e:	90 e0       	ldi	r25, 0x00	; 0
     e60:	d4 de       	rcall	.-600    	; 0xc0a <ms5607_read>
     e62:	8e 83       	std	Y+6, r24	; 0x06
     e64:	9f 83       	std	Y+7, r25	; 0x07
     e66:	8a ea       	ldi	r24, 0xAA	; 170
     e68:	90 e0       	ldi	r25, 0x00	; 0
     e6a:	cf de       	rcall	.-610    	; 0xc0a <ms5607_read>
     e6c:	88 87       	std	Y+8, r24	; 0x08
     e6e:	99 87       	std	Y+9, r25	; 0x09
     e70:	8c ea       	ldi	r24, 0xAC	; 172
     e72:	90 e0       	ldi	r25, 0x00	; 0
     e74:	ca de       	rcall	.-620    	; 0xc0a <ms5607_read>
     e76:	8a 87       	std	Y+10, r24	; 0x0a
     e78:	9b 87       	std	Y+11, r25	; 0x0b
     e7a:	9f 93       	push	r25
     e7c:	8f 93       	push	r24
     e7e:	89 85       	ldd	r24, Y+9	; 0x09
     e80:	8f 93       	push	r24
     e82:	88 85       	ldd	r24, Y+8	; 0x08
     e84:	8f 93       	push	r24
     e86:	8f 81       	ldd	r24, Y+7	; 0x07
     e88:	8f 93       	push	r24
     e8a:	8e 81       	ldd	r24, Y+6	; 0x06
     e8c:	8f 93       	push	r24
     e8e:	8d 81       	ldd	r24, Y+5	; 0x05
     e90:	8f 93       	push	r24
     e92:	8c 81       	ldd	r24, Y+4	; 0x04
     e94:	8f 93       	push	r24
     e96:	8b 81       	ldd	r24, Y+3	; 0x03
     e98:	8f 93       	push	r24
     e9a:	8a 81       	ldd	r24, Y+2	; 0x02
     e9c:	8f 93       	push	r24
     e9e:	0f 93       	push	r16
     ea0:	1f 93       	push	r17
     ea2:	81 e2       	ldi	r24, 0x21	; 33
     ea4:	90 e2       	ldi	r25, 0x20	; 32
     ea6:	9f 93       	push	r25
     ea8:	8f 93       	push	r24
     eaa:	9c d5       	rcall	.+2872   	; 0x19e4 <printf>
     eac:	8d b7       	in	r24, 0x3d	; 61
     eae:	9e b7       	in	r25, 0x3e	; 62
     eb0:	0e 96       	adiw	r24, 0x0e	; 14
     eb2:	8d bf       	out	0x3d, r24	; 61
     eb4:	9e bf       	out	0x3e, r25	; 62
     eb6:	df 91       	pop	r29
     eb8:	cf 91       	pop	r28
     eba:	1f 91       	pop	r17
     ebc:	0f 91       	pop	r16
     ebe:	08 95       	ret

00000ec0 <get_pressure>:
     ec0:	2f 92       	push	r2
     ec2:	3f 92       	push	r3
     ec4:	4f 92       	push	r4
     ec6:	5f 92       	push	r5
     ec8:	6f 92       	push	r6
     eca:	7f 92       	push	r7
     ecc:	8f 92       	push	r8
     ece:	9f 92       	push	r9
     ed0:	af 92       	push	r10
     ed2:	bf 92       	push	r11
     ed4:	cf 92       	push	r12
     ed6:	df 92       	push	r13
     ed8:	ef 92       	push	r14
     eda:	ff 92       	push	r15
     edc:	0f 93       	push	r16
     ede:	1f 93       	push	r17
     ee0:	cf 93       	push	r28
     ee2:	df 93       	push	r29
     ee4:	a6 de       	rcall	.-692    	; 0xc32 <ms5607_convert_d1>
     ee6:	2b 01       	movw	r4, r22
     ee8:	3c 01       	movw	r6, r24
     eea:	cb de       	rcall	.-618    	; 0xc82 <ms5607_convert_d2>
     eec:	4b 01       	movw	r8, r22
     eee:	5c 01       	movw	r10, r24
     ef0:	c8 e6       	ldi	r28, 0x68	; 104
     ef2:	d0 e2       	ldi	r29, 0x20	; 32
     ef4:	48 85       	ldd	r20, Y+8	; 0x08
     ef6:	59 85       	ldd	r21, Y+9	; 0x09
     ef8:	24 2f       	mov	r18, r20
     efa:	35 2f       	mov	r19, r21
     efc:	40 e0       	ldi	r20, 0x00	; 0
     efe:	50 e0       	ldi	r21, 0x00	; 0
     f00:	60 e0       	ldi	r22, 0x00	; 0
     f02:	70 e0       	ldi	r23, 0x00	; 0
     f04:	80 e0       	ldi	r24, 0x00	; 0
     f06:	90 e0       	ldi	r25, 0x00	; 0
     f08:	08 e0       	ldi	r16, 0x08	; 8
     f0a:	00 d5       	rcall	.+2560   	; 0x190c <__ashldi3>
     f0c:	22 2e       	mov	r2, r18
     f0e:	33 2e       	mov	r3, r19
     f10:	b4 2f       	mov	r27, r20
     f12:	a5 2f       	mov	r26, r21
     f14:	f6 2f       	mov	r31, r22
     f16:	e7 2f       	mov	r30, r23
     f18:	08 2f       	mov	r16, r24
     f1a:	19 2f       	mov	r17, r25
     f1c:	28 2d       	mov	r18, r8
     f1e:	39 2d       	mov	r19, r9
     f20:	4a 2d       	mov	r20, r10
     f22:	5b 2d       	mov	r21, r11
     f24:	60 e0       	ldi	r22, 0x00	; 0
     f26:	70 e0       	ldi	r23, 0x00	; 0
     f28:	80 e0       	ldi	r24, 0x00	; 0
     f2a:	90 e0       	ldi	r25, 0x00	; 0
     f2c:	a2 2c       	mov	r10, r2
     f2e:	b3 2c       	mov	r11, r3
     f30:	cb 2e       	mov	r12, r27
     f32:	da 2e       	mov	r13, r26
     f34:	ef 2e       	mov	r14, r31
     f36:	fe 2e       	mov	r15, r30
     f38:	02 d5       	rcall	.+2564   	; 0x193e <__subdi3>
     f3a:	6f d2       	rcall	.+1246   	; 0x141a <__floatundisf>
     f3c:	4b 01       	movw	r8, r22
     f3e:	5c 01       	movw	r10, r24
     f40:	6c 81       	ldd	r22, Y+4	; 0x04
     f42:	7d 81       	ldd	r23, Y+5	; 0x05
     f44:	80 e0       	ldi	r24, 0x00	; 0
     f46:	90 e0       	ldi	r25, 0x00	; 0
     f48:	2b d2       	rcall	.+1110   	; 0x13a0 <__floatunsisf>
     f4a:	a5 01       	movw	r20, r10
     f4c:	94 01       	movw	r18, r8
     f4e:	39 d3       	rcall	.+1650   	; 0x15c2 <__mulsf3>
     f50:	20 e0       	ldi	r18, 0x00	; 0
     f52:	30 e0       	ldi	r19, 0x00	; 0
     f54:	40 e0       	ldi	r20, 0x00	; 0
     f56:	5c e3       	ldi	r21, 0x3C	; 60
     f58:	34 d3       	rcall	.+1640   	; 0x15c2 <__mulsf3>
     f5a:	6b 01       	movw	r12, r22
     f5c:	7c 01       	movw	r14, r24
     f5e:	48 81       	ld	r20, Y
     f60:	59 81       	ldd	r21, Y+1	; 0x01
     f62:	24 2f       	mov	r18, r20
     f64:	35 2f       	mov	r19, r21
     f66:	40 e0       	ldi	r20, 0x00	; 0
     f68:	50 e0       	ldi	r21, 0x00	; 0
     f6a:	60 e0       	ldi	r22, 0x00	; 0
     f6c:	70 e0       	ldi	r23, 0x00	; 0
     f6e:	80 e0       	ldi	r24, 0x00	; 0
     f70:	90 e0       	ldi	r25, 0x00	; 0
     f72:	00 e1       	ldi	r16, 0x10	; 16
     f74:	cb d4       	rcall	.+2454   	; 0x190c <__ashldi3>
     f76:	51 d2       	rcall	.+1186   	; 0x141a <__floatundisf>
     f78:	9b 01       	movw	r18, r22
     f7a:	ac 01       	movw	r20, r24
     f7c:	c7 01       	movw	r24, r14
     f7e:	b6 01       	movw	r22, r12
     f80:	12 d1       	rcall	.+548    	; 0x11a6 <__addsf3>
     f82:	6b 01       	movw	r12, r22
     f84:	7c 01       	movw	r14, r24
     f86:	c3 01       	movw	r24, r6
     f88:	b2 01       	movw	r22, r4
     f8a:	0a d2       	rcall	.+1044   	; 0x13a0 <__floatunsisf>
     f8c:	9b 01       	movw	r18, r22
     f8e:	ac 01       	movw	r20, r24
     f90:	c7 01       	movw	r24, r14
     f92:	b6 01       	movw	r22, r12
     f94:	16 d3       	rcall	.+1580   	; 0x15c2 <__mulsf3>
     f96:	20 e0       	ldi	r18, 0x00	; 0
     f98:	30 e0       	ldi	r19, 0x00	; 0
     f9a:	40 e0       	ldi	r20, 0x00	; 0
     f9c:	55 e3       	ldi	r21, 0x35	; 53
     f9e:	11 d3       	rcall	.+1570   	; 0x15c2 <__mulsf3>
     fa0:	6b 01       	movw	r12, r22
     fa2:	7c 01       	movw	r14, r24
     fa4:	6e 81       	ldd	r22, Y+6	; 0x06
     fa6:	7f 81       	ldd	r23, Y+7	; 0x07
     fa8:	80 e0       	ldi	r24, 0x00	; 0
     faa:	90 e0       	ldi	r25, 0x00	; 0
     fac:	f9 d1       	rcall	.+1010   	; 0x13a0 <__floatunsisf>
     fae:	a5 01       	movw	r20, r10
     fb0:	94 01       	movw	r18, r8
     fb2:	07 d3       	rcall	.+1550   	; 0x15c2 <__mulsf3>
     fb4:	20 e0       	ldi	r18, 0x00	; 0
     fb6:	30 e0       	ldi	r19, 0x00	; 0
     fb8:	40 e8       	ldi	r20, 0x80	; 128
     fba:	5c e3       	ldi	r21, 0x3C	; 60
     fbc:	02 d3       	rcall	.+1540   	; 0x15c2 <__mulsf3>
     fbe:	4b 01       	movw	r8, r22
     fc0:	5c 01       	movw	r10, r24
     fc2:	8a 81       	ldd	r24, Y+2	; 0x02
     fc4:	9b 81       	ldd	r25, Y+3	; 0x03
     fc6:	28 2f       	mov	r18, r24
     fc8:	39 2f       	mov	r19, r25
     fca:	40 e0       	ldi	r20, 0x00	; 0
     fcc:	50 e0       	ldi	r21, 0x00	; 0
     fce:	60 e0       	ldi	r22, 0x00	; 0
     fd0:	70 e0       	ldi	r23, 0x00	; 0
     fd2:	80 e0       	ldi	r24, 0x00	; 0
     fd4:	90 e0       	ldi	r25, 0x00	; 0
     fd6:	01 e1       	ldi	r16, 0x11	; 17
     fd8:	99 d4       	rcall	.+2354   	; 0x190c <__ashldi3>
     fda:	1f d2       	rcall	.+1086   	; 0x141a <__floatundisf>
     fdc:	9b 01       	movw	r18, r22
     fde:	ac 01       	movw	r20, r24
     fe0:	c5 01       	movw	r24, r10
     fe2:	b4 01       	movw	r22, r8
     fe4:	e0 d0       	rcall	.+448    	; 0x11a6 <__addsf3>
     fe6:	9b 01       	movw	r18, r22
     fe8:	ac 01       	movw	r20, r24
     fea:	c7 01       	movw	r24, r14
     fec:	b6 01       	movw	r22, r12
     fee:	da d0       	rcall	.+436    	; 0x11a4 <__subsf3>
     ff0:	20 e0       	ldi	r18, 0x00	; 0
     ff2:	30 e0       	ldi	r19, 0x00	; 0
     ff4:	40 e0       	ldi	r20, 0x00	; 0
     ff6:	58 e3       	ldi	r21, 0x38	; 56
     ff8:	e4 d2       	rcall	.+1480   	; 0x15c2 <__mulsf3>
     ffa:	a1 d1       	rcall	.+834    	; 0x133e <__fixsfsi>
     ffc:	80 e0       	ldi	r24, 0x00	; 0
     ffe:	90 e0       	ldi	r25, 0x00	; 0
    1000:	cf d1       	rcall	.+926    	; 0x13a0 <__floatunsisf>
    1002:	20 e0       	ldi	r18, 0x00	; 0
    1004:	30 e5       	ldi	r19, 0x50	; 80
    1006:	43 ec       	ldi	r20, 0xC3	; 195
    1008:	57 e4       	ldi	r21, 0x47	; 71
    100a:	31 d1       	rcall	.+610    	; 0x126e <__divsf3>
    100c:	df 91       	pop	r29
    100e:	cf 91       	pop	r28
    1010:	1f 91       	pop	r17
    1012:	0f 91       	pop	r16
    1014:	ff 90       	pop	r15
    1016:	ef 90       	pop	r14
    1018:	df 90       	pop	r13
    101a:	cf 90       	pop	r12
    101c:	bf 90       	pop	r11
    101e:	af 90       	pop	r10
    1020:	9f 90       	pop	r9
    1022:	8f 90       	pop	r8
    1024:	7f 90       	pop	r7
    1026:	6f 90       	pop	r6
    1028:	5f 90       	pop	r5
    102a:	4f 90       	pop	r4
    102c:	3f 90       	pop	r3
    102e:	2f 90       	pop	r2
    1030:	08 95       	ret

00001032 <get_altitude>:

double get_altitude(double press){
    1032:	4f 92       	push	r4
    1034:	5f 92       	push	r5
    1036:	6f 92       	push	r6
    1038:	7f 92       	push	r7
    103a:	8f 92       	push	r8
    103c:	9f 92       	push	r9
    103e:	af 92       	push	r10
    1040:	bf 92       	push	r11
    1042:	cf 92       	push	r12
    1044:	df 92       	push	r13
    1046:	ef 92       	push	r14
    1048:	ff 92       	push	r15
    104a:	2b 01       	movw	r4, r22
    104c:	3c 01       	movw	r6, r24
	double val = 0;
	val = ground_t * (pow(ground_p / press, R * L / g_0) - 1) / L;
    104e:	c0 90 11 20 	lds	r12, 0x2011	; 0x802011 <L>
    1052:	d0 90 12 20 	lds	r13, 0x2012	; 0x802012 <L+0x1>
    1056:	e0 90 13 20 	lds	r14, 0x2013	; 0x802013 <L+0x2>
    105a:	f0 90 14 20 	lds	r15, 0x2014	; 0x802014 <L+0x3>
    105e:	20 91 15 20 	lds	r18, 0x2015	; 0x802015 <R>
    1062:	30 91 16 20 	lds	r19, 0x2016	; 0x802016 <R+0x1>
    1066:	40 91 17 20 	lds	r20, 0x2017	; 0x802017 <R+0x2>
    106a:	50 91 18 20 	lds	r21, 0x2018	; 0x802018 <R+0x3>
    106e:	c7 01       	movw	r24, r14
    1070:	b6 01       	movw	r22, r12
    1072:	a7 d2       	rcall	.+1358   	; 0x15c2 <__mulsf3>
    1074:	20 91 0d 20 	lds	r18, 0x200D	; 0x80200d <g_0>
    1078:	30 91 0e 20 	lds	r19, 0x200E	; 0x80200e <g_0+0x1>
    107c:	40 91 0f 20 	lds	r20, 0x200F	; 0x80200f <g_0+0x2>
    1080:	50 91 10 20 	lds	r21, 0x2010	; 0x802010 <g_0+0x3>
    1084:	f4 d0       	rcall	.+488    	; 0x126e <__divsf3>
    1086:	4b 01       	movw	r8, r22
    1088:	5c 01       	movw	r10, r24
    108a:	a3 01       	movw	r20, r6
    108c:	92 01       	movw	r18, r4
    108e:	60 91 1d 20 	lds	r22, 0x201D	; 0x80201d <ground_p>
    1092:	70 91 1e 20 	lds	r23, 0x201E	; 0x80201e <ground_p+0x1>
    1096:	80 91 1f 20 	lds	r24, 0x201F	; 0x80201f <ground_p+0x2>
    109a:	90 91 20 20 	lds	r25, 0x2020	; 0x802020 <ground_p+0x3>
    109e:	e7 d0       	rcall	.+462    	; 0x126e <__divsf3>
    10a0:	a5 01       	movw	r20, r10
    10a2:	94 01       	movw	r18, r8
    10a4:	f1 d2       	rcall	.+1506   	; 0x1688 <pow>
	return val;		//returns altitude in meters
    10a6:	20 e0       	ldi	r18, 0x00	; 0
    10a8:	30 e0       	ldi	r19, 0x00	; 0
    10aa:	40 e8       	ldi	r20, 0x80	; 128
    10ac:	5f e3       	ldi	r21, 0x3F	; 63
    10ae:	7a d0       	rcall	.+244    	; 0x11a4 <__subsf3>
    10b0:	20 91 19 20 	lds	r18, 0x2019	; 0x802019 <ground_t>
    10b4:	30 91 1a 20 	lds	r19, 0x201A	; 0x80201a <ground_t+0x1>
    10b8:	40 91 1b 20 	lds	r20, 0x201B	; 0x80201b <ground_t+0x2>
    10bc:	50 91 1c 20 	lds	r21, 0x201C	; 0x80201c <ground_t+0x3>
    10c0:	80 d2       	rcall	.+1280   	; 0x15c2 <__mulsf3>
    10c2:	a7 01       	movw	r20, r14
    10c4:	96 01       	movw	r18, r12
    10c6:	d3 d0       	rcall	.+422    	; 0x126e <__divsf3>
}
    10c8:	ff 90       	pop	r15
    10ca:	ef 90       	pop	r14
    10cc:	df 90       	pop	r13
    10ce:	cf 90       	pop	r12
    10d0:	bf 90       	pop	r11
    10d2:	af 90       	pop	r10
    10d4:	9f 90       	pop	r9
    10d6:	8f 90       	pop	r8
    10d8:	7f 90       	pop	r7
    10da:	6f 90       	pop	r6
    10dc:	5f 90       	pop	r5
    10de:	4f 90       	pop	r4
    10e0:	08 95       	ret

000010e2 <system_init>:


// Sensor functions
void system_init(void){
	// Initialization of systems
	sysclk_init(); // initializes the system clock
    10e2:	66 de       	rcall	.-820    	; 0xdb0 <sysclk_init>
	delay_ms(2); // delays the rest of the processes to ensure a started clock
    10e4:	6b e9       	ldi	r22, 0x9B	; 155
    10e6:	72 e0       	ldi	r23, 0x02	; 2
    10e8:	80 e0       	ldi	r24, 0x00	; 0
    10ea:	90 e0       	ldi	r25, 0x00	; 0
	
	uart_terminal_init();
    10ec:	87 de       	rcall	.-754    	; 0xdfc <__portable_avr_delay_cycles>
    10ee:	1b de       	rcall	.-970    	; 0xd26 <uart_terminal_init>
	delay_ms(2);
    10f0:	6b e9       	ldi	r22, 0x9B	; 155
    10f2:	72 e0       	ldi	r23, 0x02	; 2
    10f4:	80 e0       	ldi	r24, 0x00	; 0
    10f6:	90 e0       	ldi	r25, 0x00	; 0
    10f8:	81 de       	rcall	.-766    	; 0xdfc <__portable_avr_delay_cycles>
	
//	adc_init();
	delay_ms(2);
    10fa:	6b e9       	ldi	r22, 0x9B	; 155
    10fc:	72 e0       	ldi	r23, 0x02	; 2
    10fe:	80 e0       	ldi	r24, 0x00	; 0
    1100:	90 e0       	ldi	r25, 0x00	; 0
	
	spi_init();
    1102:	7c de       	rcall	.-776    	; 0xdfc <__portable_avr_delay_cycles>
	delay_ms(2);
    1104:	e6 dd       	rcall	.-1076   	; 0xcd2 <spi_init>
    1106:	6b e9       	ldi	r22, 0x9B	; 155
    1108:	72 e0       	ldi	r23, 0x02	; 2
    110a:	80 e0       	ldi	r24, 0x00	; 0
    110c:	90 e0       	ldi	r25, 0x00	; 0
	
	ms5607_init();
    110e:	76 de       	rcall	.-788    	; 0xdfc <__portable_avr_delay_cycles>
    1110:	80 de       	rcall	.-768    	; 0xe12 <ms5607_init>
	delay_ms(2);
    1112:	6b e9       	ldi	r22, 0x9B	; 155
    1114:	72 e0       	ldi	r23, 0x02	; 2
    1116:	80 e0       	ldi	r24, 0x00	; 0
    1118:	90 e0       	ldi	r25, 0x00	; 0
    111a:	70 de       	rcall	.-800    	; 0xdfc <__portable_avr_delay_cycles>
	
	
	// Initialization of variables
	//ground_p = get_pressure();
	//ground_t = get_temperature();
	ground_a = get_altitude(ground_p);
    111c:	60 91 1d 20 	lds	r22, 0x201D	; 0x80201d <ground_p>
    1120:	70 91 1e 20 	lds	r23, 0x201E	; 0x80201e <ground_p+0x1>
    1124:	80 91 1f 20 	lds	r24, 0x201F	; 0x80201f <ground_p+0x2>
    1128:	90 91 20 20 	lds	r25, 0x2020	; 0x802020 <ground_p+0x3>
    112c:	82 df       	rcall	.-252    	; 0x1032 <get_altitude>
    112e:	60 93 74 20 	sts	0x2074, r22	; 0x802074 <ground_a>
    1132:	70 93 75 20 	sts	0x2075, r23	; 0x802075 <ground_a+0x1>
    1136:	80 93 76 20 	sts	0x2076, r24	; 0x802076 <ground_a+0x2>
    113a:	90 93 77 20 	sts	0x2077, r25	; 0x802077 <ground_a+0x3>
    113e:	08 95       	ret

00001140 <main>:
    1140:	e0 e4       	ldi	r30, 0x40	; 64


////////////////////////////// Functions ///////////////////////////////
int main (void)
{
	PORTC.DIR = 0xBB; // makes Port C have pins, 7, 5, 4, 3, 1, 0 be output (0b10111011)
    1142:	f6 e0       	ldi	r31, 0x06	; 6
    1144:	8b eb       	ldi	r24, 0xBB	; 187
    1146:	80 83       	st	Z, r24
	PORTC.OUT = 0x10; // makes the 4th pin on Port C be set on high (0b00010000)
    1148:	80 e1       	ldi	r24, 0x10	; 16
    114a:	84 83       	std	Z+4, r24	; 0x04
	system_init();
    114c:	ca df       	rcall	.-108    	; 0x10e2 <system_init>
	uint8_t mem_array[10];
	RingBufferu8_t gcs_comms;
	rbu8_init(&gcs_comms, mem_array, 10);
	*/
	
	printf("Initialized\n");
    114e:	84 e3       	ldi	r24, 0x34	; 52
    1150:	90 e2       	ldi	r25, 0x20	; 32
    1152:	5b d4       	rcall	.+2230   	; 0x1a0a <puts>
		
		// Check Sensors
		double press = get_pressure();
		double temp = 288.15; //get_temperature();
		double alt = get_altitude(press);
		printf("%i, %li, %i\n", (int16_t) press, (int32_t) alt, (int16_t) (temp * 100));
    1154:	00 e7       	ldi	r16, 0x70	; 112
    1156:	1f e8       	ldi	r17, 0x8F	; 143
    1158:	c0 e4       	ldi	r28, 0x40	; 64
    115a:	d0 e2       	ldi	r29, 0x20	; 32
	
	printf("Initialized\n");
	
	while(1){
		//Gives each flight state their unique tasks
		switch(state){
    115c:	80 91 78 20 	lds	r24, 0x2078	; 0x802078 <state>
    1160:	84 30       	cpi	r24, 0x04	; 4
    1162:	10 f0       	brcs	.+4      	; 0x1168 <main+0x28>
			case 2:
				break;
			case 3:
				break;
			default:
				state = 0;
    1164:	10 92 78 20 	sts	0x2078, r1	; 0x802078 <state>
				break;
		}
		
		
		// Check Sensors
		double press = get_pressure();
    1168:	ab de       	rcall	.-682    	; 0xec0 <get_pressure>
    116a:	6b 01       	movw	r12, r22
		double temp = 288.15; //get_temperature();
		double alt = get_altitude(press);
    116c:	7c 01       	movw	r14, r24
		printf("%i, %li, %i\n", (int16_t) press, (int32_t) alt, (int16_t) (temp * 100));
    116e:	61 df       	rcall	.-318    	; 0x1032 <get_altitude>
    1170:	0f 93       	push	r16
    1172:	1f 93       	push	r17
    1174:	e4 d0       	rcall	.+456    	; 0x133e <__fixsfsi>
    1176:	9f 93       	push	r25
    1178:	8f 93       	push	r24
    117a:	7f 93       	push	r23
    117c:	6f 93       	push	r22
    117e:	c7 01       	movw	r24, r14
    1180:	b6 01       	movw	r22, r12
    1182:	dd d0       	rcall	.+442    	; 0x133e <__fixsfsi>
    1184:	7f 93       	push	r23
    1186:	6f 93       	push	r22
    1188:	df 93       	push	r29
    118a:	cf 93       	push	r28
		delay_ms(250);
    118c:	2b d4       	rcall	.+2134   	; 0x19e4 <printf>
    118e:	66 e8       	ldi	r22, 0x86	; 134
    1190:	75 e4       	ldi	r23, 0x45	; 69
    1192:	81 e0       	ldi	r24, 0x01	; 1
    1194:	90 e0       	ldi	r25, 0x00	; 0
    1196:	32 de       	rcall	.-924    	; 0xdfc <__portable_avr_delay_cycles>
	}
    1198:	8d b7       	in	r24, 0x3d	; 61
    119a:	9e b7       	in	r25, 0x3e	; 62
    119c:	0a 96       	adiw	r24, 0x0a	; 10
    119e:	8d bf       	out	0x3d, r24	; 61
    11a0:	9e bf       	out	0x3e, r25	; 62
    11a2:	dc cf       	rjmp	.-72     	; 0x115c <main+0x1c>

000011a4 <__subsf3>:
    11a4:	50 58       	subi	r21, 0x80	; 128

000011a6 <__addsf3>:
    11a6:	bb 27       	eor	r27, r27
    11a8:	aa 27       	eor	r26, r26
    11aa:	0e d0       	rcall	.+28     	; 0x11c8 <__addsf3x>
    11ac:	8b c1       	rjmp	.+790    	; 0x14c4 <__fp_round>
    11ae:	7c d1       	rcall	.+760    	; 0x14a8 <__fp_pscA>
    11b0:	30 f0       	brcs	.+12     	; 0x11be <__addsf3+0x18>
    11b2:	81 d1       	rcall	.+770    	; 0x14b6 <__fp_pscB>
    11b4:	20 f0       	brcs	.+8      	; 0x11be <__addsf3+0x18>
    11b6:	31 f4       	brne	.+12     	; 0x11c4 <__addsf3+0x1e>
    11b8:	9f 3f       	cpi	r25, 0xFF	; 255
    11ba:	11 f4       	brne	.+4      	; 0x11c0 <__addsf3+0x1a>
    11bc:	1e f4       	brtc	.+6      	; 0x11c4 <__addsf3+0x1e>
    11be:	71 c1       	rjmp	.+738    	; 0x14a2 <__fp_nan>
    11c0:	0e f4       	brtc	.+2      	; 0x11c4 <__addsf3+0x1e>
    11c2:	e0 95       	com	r30
    11c4:	e7 fb       	bst	r30, 7
    11c6:	67 c1       	rjmp	.+718    	; 0x1496 <__fp_inf>

000011c8 <__addsf3x>:
    11c8:	e9 2f       	mov	r30, r25
    11ca:	8d d1       	rcall	.+794    	; 0x14e6 <__fp_split3>
    11cc:	80 f3       	brcs	.-32     	; 0x11ae <__addsf3+0x8>
    11ce:	ba 17       	cp	r27, r26
    11d0:	62 07       	cpc	r22, r18
    11d2:	73 07       	cpc	r23, r19
    11d4:	84 07       	cpc	r24, r20
    11d6:	95 07       	cpc	r25, r21
    11d8:	18 f0       	brcs	.+6      	; 0x11e0 <__addsf3x+0x18>
    11da:	71 f4       	brne	.+28     	; 0x11f8 <__addsf3x+0x30>
    11dc:	9e f5       	brtc	.+102    	; 0x1244 <__addsf3x+0x7c>
    11de:	a5 c1       	rjmp	.+842    	; 0x152a <__fp_zero>
    11e0:	0e f4       	brtc	.+2      	; 0x11e4 <__addsf3x+0x1c>
    11e2:	e0 95       	com	r30
    11e4:	0b 2e       	mov	r0, r27
    11e6:	ba 2f       	mov	r27, r26
    11e8:	a0 2d       	mov	r26, r0
    11ea:	0b 01       	movw	r0, r22
    11ec:	b9 01       	movw	r22, r18
    11ee:	90 01       	movw	r18, r0
    11f0:	0c 01       	movw	r0, r24
    11f2:	ca 01       	movw	r24, r20
    11f4:	a0 01       	movw	r20, r0
    11f6:	11 24       	eor	r1, r1
    11f8:	ff 27       	eor	r31, r31
    11fa:	59 1b       	sub	r21, r25
    11fc:	99 f0       	breq	.+38     	; 0x1224 <__addsf3x+0x5c>
    11fe:	59 3f       	cpi	r21, 0xF9	; 249
    1200:	50 f4       	brcc	.+20     	; 0x1216 <__addsf3x+0x4e>
    1202:	50 3e       	cpi	r21, 0xE0	; 224
    1204:	68 f1       	brcs	.+90     	; 0x1260 <__addsf3x+0x98>
    1206:	1a 16       	cp	r1, r26
    1208:	f0 40       	sbci	r31, 0x00	; 0
    120a:	a2 2f       	mov	r26, r18
    120c:	23 2f       	mov	r18, r19
    120e:	34 2f       	mov	r19, r20
    1210:	44 27       	eor	r20, r20
    1212:	58 5f       	subi	r21, 0xF8	; 248
    1214:	f3 cf       	rjmp	.-26     	; 0x11fc <__addsf3x+0x34>
    1216:	46 95       	lsr	r20
    1218:	37 95       	ror	r19
    121a:	27 95       	ror	r18
    121c:	a7 95       	ror	r26
    121e:	f0 40       	sbci	r31, 0x00	; 0
    1220:	53 95       	inc	r21
    1222:	c9 f7       	brne	.-14     	; 0x1216 <__addsf3x+0x4e>
    1224:	7e f4       	brtc	.+30     	; 0x1244 <__addsf3x+0x7c>
    1226:	1f 16       	cp	r1, r31
    1228:	ba 0b       	sbc	r27, r26
    122a:	62 0b       	sbc	r22, r18
    122c:	73 0b       	sbc	r23, r19
    122e:	84 0b       	sbc	r24, r20
    1230:	ba f0       	brmi	.+46     	; 0x1260 <__addsf3x+0x98>
    1232:	91 50       	subi	r25, 0x01	; 1
    1234:	a1 f0       	breq	.+40     	; 0x125e <__addsf3x+0x96>
    1236:	ff 0f       	add	r31, r31
    1238:	bb 1f       	adc	r27, r27
    123a:	66 1f       	adc	r22, r22
    123c:	77 1f       	adc	r23, r23
    123e:	88 1f       	adc	r24, r24
    1240:	c2 f7       	brpl	.-16     	; 0x1232 <__addsf3x+0x6a>
    1242:	0e c0       	rjmp	.+28     	; 0x1260 <__addsf3x+0x98>
    1244:	ba 0f       	add	r27, r26
    1246:	62 1f       	adc	r22, r18
    1248:	73 1f       	adc	r23, r19
    124a:	84 1f       	adc	r24, r20
    124c:	48 f4       	brcc	.+18     	; 0x1260 <__addsf3x+0x98>
    124e:	87 95       	ror	r24
    1250:	77 95       	ror	r23
    1252:	67 95       	ror	r22
    1254:	b7 95       	ror	r27
    1256:	f7 95       	ror	r31
    1258:	9e 3f       	cpi	r25, 0xFE	; 254
    125a:	08 f0       	brcs	.+2      	; 0x125e <__addsf3x+0x96>
    125c:	b3 cf       	rjmp	.-154    	; 0x11c4 <__addsf3+0x1e>
    125e:	93 95       	inc	r25
    1260:	88 0f       	add	r24, r24
    1262:	08 f0       	brcs	.+2      	; 0x1266 <__addsf3x+0x9e>
    1264:	99 27       	eor	r25, r25
    1266:	ee 0f       	add	r30, r30
    1268:	97 95       	ror	r25
    126a:	87 95       	ror	r24
    126c:	08 95       	ret

0000126e <__divsf3>:
    126e:	0c d0       	rcall	.+24     	; 0x1288 <__divsf3x>
    1270:	29 c1       	rjmp	.+594    	; 0x14c4 <__fp_round>
    1272:	21 d1       	rcall	.+578    	; 0x14b6 <__fp_pscB>
    1274:	40 f0       	brcs	.+16     	; 0x1286 <__divsf3+0x18>
    1276:	18 d1       	rcall	.+560    	; 0x14a8 <__fp_pscA>
    1278:	30 f0       	brcs	.+12     	; 0x1286 <__divsf3+0x18>
    127a:	21 f4       	brne	.+8      	; 0x1284 <__divsf3+0x16>
    127c:	5f 3f       	cpi	r21, 0xFF	; 255
    127e:	19 f0       	breq	.+6      	; 0x1286 <__divsf3+0x18>
    1280:	0a c1       	rjmp	.+532    	; 0x1496 <__fp_inf>
    1282:	51 11       	cpse	r21, r1
    1284:	53 c1       	rjmp	.+678    	; 0x152c <__fp_szero>
    1286:	0d c1       	rjmp	.+538    	; 0x14a2 <__fp_nan>

00001288 <__divsf3x>:
    1288:	2e d1       	rcall	.+604    	; 0x14e6 <__fp_split3>
    128a:	98 f3       	brcs	.-26     	; 0x1272 <__divsf3+0x4>

0000128c <__divsf3_pse>:
    128c:	99 23       	and	r25, r25
    128e:	c9 f3       	breq	.-14     	; 0x1282 <__divsf3+0x14>
    1290:	55 23       	and	r21, r21
    1292:	b1 f3       	breq	.-20     	; 0x1280 <__divsf3+0x12>
    1294:	95 1b       	sub	r25, r21
    1296:	55 0b       	sbc	r21, r21
    1298:	bb 27       	eor	r27, r27
    129a:	aa 27       	eor	r26, r26
    129c:	62 17       	cp	r22, r18
    129e:	73 07       	cpc	r23, r19
    12a0:	84 07       	cpc	r24, r20
    12a2:	38 f0       	brcs	.+14     	; 0x12b2 <__divsf3_pse+0x26>
    12a4:	9f 5f       	subi	r25, 0xFF	; 255
    12a6:	5f 4f       	sbci	r21, 0xFF	; 255
    12a8:	22 0f       	add	r18, r18
    12aa:	33 1f       	adc	r19, r19
    12ac:	44 1f       	adc	r20, r20
    12ae:	aa 1f       	adc	r26, r26
    12b0:	a9 f3       	breq	.-22     	; 0x129c <__divsf3_pse+0x10>
    12b2:	33 d0       	rcall	.+102    	; 0x131a <__divsf3_pse+0x8e>
    12b4:	0e 2e       	mov	r0, r30
    12b6:	3a f0       	brmi	.+14     	; 0x12c6 <__divsf3_pse+0x3a>
    12b8:	e0 e8       	ldi	r30, 0x80	; 128
    12ba:	30 d0       	rcall	.+96     	; 0x131c <__divsf3_pse+0x90>
    12bc:	91 50       	subi	r25, 0x01	; 1
    12be:	50 40       	sbci	r21, 0x00	; 0
    12c0:	e6 95       	lsr	r30
    12c2:	00 1c       	adc	r0, r0
    12c4:	ca f7       	brpl	.-14     	; 0x12b8 <__divsf3_pse+0x2c>
    12c6:	29 d0       	rcall	.+82     	; 0x131a <__divsf3_pse+0x8e>
    12c8:	fe 2f       	mov	r31, r30
    12ca:	27 d0       	rcall	.+78     	; 0x131a <__divsf3_pse+0x8e>
    12cc:	66 0f       	add	r22, r22
    12ce:	77 1f       	adc	r23, r23
    12d0:	88 1f       	adc	r24, r24
    12d2:	bb 1f       	adc	r27, r27
    12d4:	26 17       	cp	r18, r22
    12d6:	37 07       	cpc	r19, r23
    12d8:	48 07       	cpc	r20, r24
    12da:	ab 07       	cpc	r26, r27
    12dc:	b0 e8       	ldi	r27, 0x80	; 128
    12de:	09 f0       	breq	.+2      	; 0x12e2 <__divsf3_pse+0x56>
    12e0:	bb 0b       	sbc	r27, r27
    12e2:	80 2d       	mov	r24, r0
    12e4:	bf 01       	movw	r22, r30
    12e6:	ff 27       	eor	r31, r31
    12e8:	93 58       	subi	r25, 0x83	; 131
    12ea:	5f 4f       	sbci	r21, 0xFF	; 255
    12ec:	2a f0       	brmi	.+10     	; 0x12f8 <__divsf3_pse+0x6c>
    12ee:	9e 3f       	cpi	r25, 0xFE	; 254
    12f0:	51 05       	cpc	r21, r1
    12f2:	68 f0       	brcs	.+26     	; 0x130e <__divsf3_pse+0x82>
    12f4:	d0 c0       	rjmp	.+416    	; 0x1496 <__fp_inf>
    12f6:	1a c1       	rjmp	.+564    	; 0x152c <__fp_szero>
    12f8:	5f 3f       	cpi	r21, 0xFF	; 255
    12fa:	ec f3       	brlt	.-6      	; 0x12f6 <__divsf3_pse+0x6a>
    12fc:	98 3e       	cpi	r25, 0xE8	; 232
    12fe:	dc f3       	brlt	.-10     	; 0x12f6 <__divsf3_pse+0x6a>
    1300:	86 95       	lsr	r24
    1302:	77 95       	ror	r23
    1304:	67 95       	ror	r22
    1306:	b7 95       	ror	r27
    1308:	f7 95       	ror	r31
    130a:	9f 5f       	subi	r25, 0xFF	; 255
    130c:	c9 f7       	brne	.-14     	; 0x1300 <__divsf3_pse+0x74>
    130e:	88 0f       	add	r24, r24
    1310:	91 1d       	adc	r25, r1
    1312:	96 95       	lsr	r25
    1314:	87 95       	ror	r24
    1316:	97 f9       	bld	r25, 7
    1318:	08 95       	ret
    131a:	e1 e0       	ldi	r30, 0x01	; 1
    131c:	66 0f       	add	r22, r22
    131e:	77 1f       	adc	r23, r23
    1320:	88 1f       	adc	r24, r24
    1322:	bb 1f       	adc	r27, r27
    1324:	62 17       	cp	r22, r18
    1326:	73 07       	cpc	r23, r19
    1328:	84 07       	cpc	r24, r20
    132a:	ba 07       	cpc	r27, r26
    132c:	20 f0       	brcs	.+8      	; 0x1336 <__divsf3_pse+0xaa>
    132e:	62 1b       	sub	r22, r18
    1330:	73 0b       	sbc	r23, r19
    1332:	84 0b       	sbc	r24, r20
    1334:	ba 0b       	sbc	r27, r26
    1336:	ee 1f       	adc	r30, r30
    1338:	88 f7       	brcc	.-30     	; 0x131c <__divsf3_pse+0x90>
    133a:	e0 95       	com	r30
    133c:	08 95       	ret

0000133e <__fixsfsi>:
    133e:	04 d0       	rcall	.+8      	; 0x1348 <__fixunssfsi>
    1340:	68 94       	set
    1342:	b1 11       	cpse	r27, r1
    1344:	f3 c0       	rjmp	.+486    	; 0x152c <__fp_szero>
    1346:	08 95       	ret

00001348 <__fixunssfsi>:
    1348:	d6 d0       	rcall	.+428    	; 0x14f6 <__fp_splitA>
    134a:	88 f0       	brcs	.+34     	; 0x136e <__fixunssfsi+0x26>
    134c:	9f 57       	subi	r25, 0x7F	; 127
    134e:	90 f0       	brcs	.+36     	; 0x1374 <__fixunssfsi+0x2c>
    1350:	b9 2f       	mov	r27, r25
    1352:	99 27       	eor	r25, r25
    1354:	b7 51       	subi	r27, 0x17	; 23
    1356:	a0 f0       	brcs	.+40     	; 0x1380 <__fixunssfsi+0x38>
    1358:	d1 f0       	breq	.+52     	; 0x138e <__fixunssfsi+0x46>
    135a:	66 0f       	add	r22, r22
    135c:	77 1f       	adc	r23, r23
    135e:	88 1f       	adc	r24, r24
    1360:	99 1f       	adc	r25, r25
    1362:	1a f0       	brmi	.+6      	; 0x136a <__fixunssfsi+0x22>
    1364:	ba 95       	dec	r27
    1366:	c9 f7       	brne	.-14     	; 0x135a <__fixunssfsi+0x12>
    1368:	12 c0       	rjmp	.+36     	; 0x138e <__fixunssfsi+0x46>
    136a:	b1 30       	cpi	r27, 0x01	; 1
    136c:	81 f0       	breq	.+32     	; 0x138e <__fixunssfsi+0x46>
    136e:	dd d0       	rcall	.+442    	; 0x152a <__fp_zero>
    1370:	b1 e0       	ldi	r27, 0x01	; 1
    1372:	08 95       	ret
    1374:	da c0       	rjmp	.+436    	; 0x152a <__fp_zero>
    1376:	67 2f       	mov	r22, r23
    1378:	78 2f       	mov	r23, r24
    137a:	88 27       	eor	r24, r24
    137c:	b8 5f       	subi	r27, 0xF8	; 248
    137e:	39 f0       	breq	.+14     	; 0x138e <__fixunssfsi+0x46>
    1380:	b9 3f       	cpi	r27, 0xF9	; 249
    1382:	cc f3       	brlt	.-14     	; 0x1376 <__fixunssfsi+0x2e>
    1384:	86 95       	lsr	r24
    1386:	77 95       	ror	r23
    1388:	67 95       	ror	r22
    138a:	b3 95       	inc	r27
    138c:	d9 f7       	brne	.-10     	; 0x1384 <__fixunssfsi+0x3c>
    138e:	3e f4       	brtc	.+14     	; 0x139e <__fixunssfsi+0x56>
    1390:	90 95       	com	r25
    1392:	80 95       	com	r24
    1394:	70 95       	com	r23
    1396:	61 95       	neg	r22
    1398:	7f 4f       	sbci	r23, 0xFF	; 255
    139a:	8f 4f       	sbci	r24, 0xFF	; 255
    139c:	9f 4f       	sbci	r25, 0xFF	; 255
    139e:	08 95       	ret

000013a0 <__floatunsisf>:
    13a0:	e8 94       	clt
    13a2:	09 c0       	rjmp	.+18     	; 0x13b6 <__floatsisf+0x12>

000013a4 <__floatsisf>:
    13a4:	97 fb       	bst	r25, 7
    13a6:	3e f4       	brtc	.+14     	; 0x13b6 <__floatsisf+0x12>
    13a8:	90 95       	com	r25
    13aa:	80 95       	com	r24
    13ac:	70 95       	com	r23
    13ae:	61 95       	neg	r22
    13b0:	7f 4f       	sbci	r23, 0xFF	; 255
    13b2:	8f 4f       	sbci	r24, 0xFF	; 255
    13b4:	9f 4f       	sbci	r25, 0xFF	; 255
    13b6:	99 23       	and	r25, r25
    13b8:	a9 f0       	breq	.+42     	; 0x13e4 <__floatsisf+0x40>
    13ba:	f9 2f       	mov	r31, r25
    13bc:	96 e9       	ldi	r25, 0x96	; 150
    13be:	bb 27       	eor	r27, r27
    13c0:	93 95       	inc	r25
    13c2:	f6 95       	lsr	r31
    13c4:	87 95       	ror	r24
    13c6:	77 95       	ror	r23
    13c8:	67 95       	ror	r22
    13ca:	b7 95       	ror	r27
    13cc:	f1 11       	cpse	r31, r1
    13ce:	f8 cf       	rjmp	.-16     	; 0x13c0 <__floatsisf+0x1c>
    13d0:	fa f4       	brpl	.+62     	; 0x1410 <__floatsisf+0x6c>
    13d2:	bb 0f       	add	r27, r27
    13d4:	11 f4       	brne	.+4      	; 0x13da <__floatsisf+0x36>
    13d6:	60 ff       	sbrs	r22, 0
    13d8:	1b c0       	rjmp	.+54     	; 0x1410 <__floatsisf+0x6c>
    13da:	6f 5f       	subi	r22, 0xFF	; 255
    13dc:	7f 4f       	sbci	r23, 0xFF	; 255
    13de:	8f 4f       	sbci	r24, 0xFF	; 255
    13e0:	9f 4f       	sbci	r25, 0xFF	; 255
    13e2:	16 c0       	rjmp	.+44     	; 0x1410 <__floatsisf+0x6c>
    13e4:	88 23       	and	r24, r24
    13e6:	11 f0       	breq	.+4      	; 0x13ec <__floatsisf+0x48>
    13e8:	96 e9       	ldi	r25, 0x96	; 150
    13ea:	11 c0       	rjmp	.+34     	; 0x140e <__floatsisf+0x6a>
    13ec:	77 23       	and	r23, r23
    13ee:	21 f0       	breq	.+8      	; 0x13f8 <__floatsisf+0x54>
    13f0:	9e e8       	ldi	r25, 0x8E	; 142
    13f2:	87 2f       	mov	r24, r23
    13f4:	76 2f       	mov	r23, r22
    13f6:	05 c0       	rjmp	.+10     	; 0x1402 <__floatsisf+0x5e>
    13f8:	66 23       	and	r22, r22
    13fa:	71 f0       	breq	.+28     	; 0x1418 <__floatsisf+0x74>
    13fc:	96 e8       	ldi	r25, 0x86	; 134
    13fe:	86 2f       	mov	r24, r22
    1400:	70 e0       	ldi	r23, 0x00	; 0
    1402:	60 e0       	ldi	r22, 0x00	; 0
    1404:	2a f0       	brmi	.+10     	; 0x1410 <__floatsisf+0x6c>
    1406:	9a 95       	dec	r25
    1408:	66 0f       	add	r22, r22
    140a:	77 1f       	adc	r23, r23
    140c:	88 1f       	adc	r24, r24
    140e:	da f7       	brpl	.-10     	; 0x1406 <__floatsisf+0x62>
    1410:	88 0f       	add	r24, r24
    1412:	96 95       	lsr	r25
    1414:	87 95       	ror	r24
    1416:	97 f9       	bld	r25, 7
    1418:	08 95       	ret

0000141a <__floatundisf>:
    141a:	e8 94       	clt

0000141c <__fp_di2sf>:
    141c:	f9 2f       	mov	r31, r25
    141e:	96 eb       	ldi	r25, 0xB6	; 182
    1420:	ff 23       	and	r31, r31
    1422:	81 f0       	breq	.+32     	; 0x1444 <__fp_di2sf+0x28>
    1424:	12 16       	cp	r1, r18
    1426:	13 06       	cpc	r1, r19
    1428:	14 06       	cpc	r1, r20
    142a:	44 0b       	sbc	r20, r20
    142c:	93 95       	inc	r25
    142e:	f6 95       	lsr	r31
    1430:	87 95       	ror	r24
    1432:	77 95       	ror	r23
    1434:	67 95       	ror	r22
    1436:	57 95       	ror	r21
    1438:	40 40       	sbci	r20, 0x00	; 0
    143a:	ff 23       	and	r31, r31
    143c:	b9 f7       	brne	.-18     	; 0x142c <__fp_di2sf+0x10>
    143e:	1b c0       	rjmp	.+54     	; 0x1476 <__fp_di2sf+0x5a>
    1440:	99 27       	eor	r25, r25
    1442:	08 95       	ret
    1444:	88 23       	and	r24, r24
    1446:	51 f4       	brne	.+20     	; 0x145c <__fp_di2sf+0x40>
    1448:	98 50       	subi	r25, 0x08	; 8
    144a:	d2 f7       	brpl	.-12     	; 0x1440 <__fp_di2sf+0x24>
    144c:	87 2b       	or	r24, r23
    144e:	76 2f       	mov	r23, r22
    1450:	65 2f       	mov	r22, r21
    1452:	54 2f       	mov	r21, r20
    1454:	43 2f       	mov	r20, r19
    1456:	32 2f       	mov	r19, r18
    1458:	20 e0       	ldi	r18, 0x00	; 0
    145a:	b1 f3       	breq	.-20     	; 0x1448 <__fp_di2sf+0x2c>
    145c:	12 16       	cp	r1, r18
    145e:	13 06       	cpc	r1, r19
    1460:	14 06       	cpc	r1, r20
    1462:	44 0b       	sbc	r20, r20
    1464:	88 23       	and	r24, r24
    1466:	3a f0       	brmi	.+14     	; 0x1476 <__fp_di2sf+0x5a>
    1468:	9a 95       	dec	r25
    146a:	44 0f       	add	r20, r20
    146c:	55 1f       	adc	r21, r21
    146e:	66 1f       	adc	r22, r22
    1470:	77 1f       	adc	r23, r23
    1472:	88 1f       	adc	r24, r24
    1474:	ca f7       	brpl	.-14     	; 0x1468 <__fp_di2sf+0x4c>
    1476:	55 23       	and	r21, r21
    1478:	4a f4       	brpl	.+18     	; 0x148c <__fp_di2sf+0x70>
    147a:	44 0f       	add	r20, r20
    147c:	55 1f       	adc	r21, r21
    147e:	11 f4       	brne	.+4      	; 0x1484 <__fp_di2sf+0x68>
    1480:	60 ff       	sbrs	r22, 0
    1482:	04 c0       	rjmp	.+8      	; 0x148c <__fp_di2sf+0x70>
    1484:	6f 5f       	subi	r22, 0xFF	; 255
    1486:	7f 4f       	sbci	r23, 0xFF	; 255
    1488:	8f 4f       	sbci	r24, 0xFF	; 255
    148a:	9f 4f       	sbci	r25, 0xFF	; 255
    148c:	88 0f       	add	r24, r24
    148e:	96 95       	lsr	r25
    1490:	87 95       	ror	r24
    1492:	97 f9       	bld	r25, 7
    1494:	08 95       	ret

00001496 <__fp_inf>:
    1496:	97 f9       	bld	r25, 7
    1498:	9f 67       	ori	r25, 0x7F	; 127
    149a:	80 e8       	ldi	r24, 0x80	; 128
    149c:	70 e0       	ldi	r23, 0x00	; 0
    149e:	60 e0       	ldi	r22, 0x00	; 0
    14a0:	08 95       	ret

000014a2 <__fp_nan>:
    14a2:	9f ef       	ldi	r25, 0xFF	; 255
    14a4:	80 ec       	ldi	r24, 0xC0	; 192
    14a6:	08 95       	ret

000014a8 <__fp_pscA>:
    14a8:	00 24       	eor	r0, r0
    14aa:	0a 94       	dec	r0
    14ac:	16 16       	cp	r1, r22
    14ae:	17 06       	cpc	r1, r23
    14b0:	18 06       	cpc	r1, r24
    14b2:	09 06       	cpc	r0, r25
    14b4:	08 95       	ret

000014b6 <__fp_pscB>:
    14b6:	00 24       	eor	r0, r0
    14b8:	0a 94       	dec	r0
    14ba:	12 16       	cp	r1, r18
    14bc:	13 06       	cpc	r1, r19
    14be:	14 06       	cpc	r1, r20
    14c0:	05 06       	cpc	r0, r21
    14c2:	08 95       	ret

000014c4 <__fp_round>:
    14c4:	09 2e       	mov	r0, r25
    14c6:	03 94       	inc	r0
    14c8:	00 0c       	add	r0, r0
    14ca:	11 f4       	brne	.+4      	; 0x14d0 <__fp_round+0xc>
    14cc:	88 23       	and	r24, r24
    14ce:	52 f0       	brmi	.+20     	; 0x14e4 <__fp_round+0x20>
    14d0:	bb 0f       	add	r27, r27
    14d2:	40 f4       	brcc	.+16     	; 0x14e4 <__fp_round+0x20>
    14d4:	bf 2b       	or	r27, r31
    14d6:	11 f4       	brne	.+4      	; 0x14dc <__fp_round+0x18>
    14d8:	60 ff       	sbrs	r22, 0
    14da:	04 c0       	rjmp	.+8      	; 0x14e4 <__fp_round+0x20>
    14dc:	6f 5f       	subi	r22, 0xFF	; 255
    14de:	7f 4f       	sbci	r23, 0xFF	; 255
    14e0:	8f 4f       	sbci	r24, 0xFF	; 255
    14e2:	9f 4f       	sbci	r25, 0xFF	; 255
    14e4:	08 95       	ret

000014e6 <__fp_split3>:
    14e6:	57 fd       	sbrc	r21, 7
    14e8:	90 58       	subi	r25, 0x80	; 128
    14ea:	44 0f       	add	r20, r20
    14ec:	55 1f       	adc	r21, r21
    14ee:	59 f0       	breq	.+22     	; 0x1506 <__fp_splitA+0x10>
    14f0:	5f 3f       	cpi	r21, 0xFF	; 255
    14f2:	71 f0       	breq	.+28     	; 0x1510 <__fp_splitA+0x1a>
    14f4:	47 95       	ror	r20

000014f6 <__fp_splitA>:
    14f6:	88 0f       	add	r24, r24
    14f8:	97 fb       	bst	r25, 7
    14fa:	99 1f       	adc	r25, r25
    14fc:	61 f0       	breq	.+24     	; 0x1516 <__fp_splitA+0x20>
    14fe:	9f 3f       	cpi	r25, 0xFF	; 255
    1500:	79 f0       	breq	.+30     	; 0x1520 <__fp_splitA+0x2a>
    1502:	87 95       	ror	r24
    1504:	08 95       	ret
    1506:	12 16       	cp	r1, r18
    1508:	13 06       	cpc	r1, r19
    150a:	14 06       	cpc	r1, r20
    150c:	55 1f       	adc	r21, r21
    150e:	f2 cf       	rjmp	.-28     	; 0x14f4 <__fp_split3+0xe>
    1510:	46 95       	lsr	r20
    1512:	f1 df       	rcall	.-30     	; 0x14f6 <__fp_splitA>
    1514:	08 c0       	rjmp	.+16     	; 0x1526 <__fp_splitA+0x30>
    1516:	16 16       	cp	r1, r22
    1518:	17 06       	cpc	r1, r23
    151a:	18 06       	cpc	r1, r24
    151c:	99 1f       	adc	r25, r25
    151e:	f1 cf       	rjmp	.-30     	; 0x1502 <__fp_splitA+0xc>
    1520:	86 95       	lsr	r24
    1522:	71 05       	cpc	r23, r1
    1524:	61 05       	cpc	r22, r1
    1526:	08 94       	sec
    1528:	08 95       	ret

0000152a <__fp_zero>:
    152a:	e8 94       	clt

0000152c <__fp_szero>:
    152c:	bb 27       	eor	r27, r27
    152e:	66 27       	eor	r22, r22
    1530:	77 27       	eor	r23, r23
    1532:	cb 01       	movw	r24, r22
    1534:	97 f9       	bld	r25, 7
    1536:	08 95       	ret
    1538:	0e f0       	brts	.+2      	; 0x153c <__fp_szero+0x10>
    153a:	23 c1       	rjmp	.+582    	; 0x1782 <__fp_mpack>
    153c:	b2 cf       	rjmp	.-156    	; 0x14a2 <__fp_nan>
    153e:	68 94       	set
    1540:	aa cf       	rjmp	.-172    	; 0x1496 <__fp_inf>

00001542 <log>:
    1542:	d9 df       	rcall	.-78     	; 0x14f6 <__fp_splitA>
    1544:	c8 f3       	brcs	.-14     	; 0x1538 <__fp_szero+0xc>
    1546:	99 23       	and	r25, r25
    1548:	d1 f3       	breq	.-12     	; 0x153e <__fp_szero+0x12>
    154a:	c6 f3       	brts	.-16     	; 0x153c <__fp_szero+0x10>
    154c:	df 93       	push	r29
    154e:	cf 93       	push	r28
    1550:	1f 93       	push	r17
    1552:	0f 93       	push	r16
    1554:	ff 92       	push	r15
    1556:	c9 2f       	mov	r28, r25
    1558:	dd 27       	eor	r29, r29
    155a:	88 23       	and	r24, r24
    155c:	2a f0       	brmi	.+10     	; 0x1568 <log+0x26>
    155e:	21 97       	sbiw	r28, 0x01	; 1
    1560:	66 0f       	add	r22, r22
    1562:	77 1f       	adc	r23, r23
    1564:	88 1f       	adc	r24, r24
    1566:	da f7       	brpl	.-10     	; 0x155e <log+0x1c>
    1568:	20 e0       	ldi	r18, 0x00	; 0
    156a:	30 e0       	ldi	r19, 0x00	; 0
    156c:	40 e8       	ldi	r20, 0x80	; 128
    156e:	5f eb       	ldi	r21, 0xBF	; 191
    1570:	9f e3       	ldi	r25, 0x3F	; 63
    1572:	88 39       	cpi	r24, 0x98	; 152
    1574:	20 f0       	brcs	.+8      	; 0x157e <log+0x3c>
    1576:	80 3e       	cpi	r24, 0xE0	; 224
    1578:	30 f0       	brcs	.+12     	; 0x1586 <log+0x44>
    157a:	21 96       	adiw	r28, 0x01	; 1
    157c:	8f 77       	andi	r24, 0x7F	; 127
    157e:	13 de       	rcall	.-986    	; 0x11a6 <__addsf3>
    1580:	ec ef       	ldi	r30, 0xFC	; 252
    1582:	f1 e0       	ldi	r31, 0x01	; 1
    1584:	03 c0       	rjmp	.+6      	; 0x158c <log+0x4a>
    1586:	0f de       	rcall	.-994    	; 0x11a6 <__addsf3>
    1588:	e9 e2       	ldi	r30, 0x29	; 41
    158a:	f2 e0       	ldi	r31, 0x02	; 2
    158c:	08 d1       	rcall	.+528    	; 0x179e <__fp_powser>
    158e:	8b 01       	movw	r16, r22
    1590:	be 01       	movw	r22, r28
    1592:	ec 01       	movw	r28, r24
    1594:	fb 2e       	mov	r15, r27
    1596:	6f 57       	subi	r22, 0x7F	; 127
    1598:	71 09       	sbc	r23, r1
    159a:	75 95       	asr	r23
    159c:	77 1f       	adc	r23, r23
    159e:	88 0b       	sbc	r24, r24
    15a0:	99 0b       	sbc	r25, r25
    15a2:	00 df       	rcall	.-512    	; 0x13a4 <__floatsisf>
    15a4:	28 e1       	ldi	r18, 0x18	; 24
    15a6:	32 e7       	ldi	r19, 0x72	; 114
    15a8:	41 e3       	ldi	r20, 0x31	; 49
    15aa:	5f e3       	ldi	r21, 0x3F	; 63
    15ac:	16 d0       	rcall	.+44     	; 0x15da <__mulsf3x>
    15ae:	af 2d       	mov	r26, r15
    15b0:	98 01       	movw	r18, r16
    15b2:	ae 01       	movw	r20, r28
    15b4:	ff 90       	pop	r15
    15b6:	0f 91       	pop	r16
    15b8:	1f 91       	pop	r17
    15ba:	cf 91       	pop	r28
    15bc:	df 91       	pop	r29
    15be:	04 de       	rcall	.-1016   	; 0x11c8 <__addsf3x>
    15c0:	81 cf       	rjmp	.-254    	; 0x14c4 <__fp_round>

000015c2 <__mulsf3>:
    15c2:	0b d0       	rcall	.+22     	; 0x15da <__mulsf3x>
    15c4:	7f cf       	rjmp	.-258    	; 0x14c4 <__fp_round>
    15c6:	70 df       	rcall	.-288    	; 0x14a8 <__fp_pscA>
    15c8:	28 f0       	brcs	.+10     	; 0x15d4 <__mulsf3+0x12>
    15ca:	75 df       	rcall	.-278    	; 0x14b6 <__fp_pscB>
    15cc:	18 f0       	brcs	.+6      	; 0x15d4 <__mulsf3+0x12>
    15ce:	95 23       	and	r25, r21
    15d0:	09 f0       	breq	.+2      	; 0x15d4 <__mulsf3+0x12>
    15d2:	61 cf       	rjmp	.-318    	; 0x1496 <__fp_inf>
    15d4:	66 cf       	rjmp	.-308    	; 0x14a2 <__fp_nan>
    15d6:	11 24       	eor	r1, r1
    15d8:	a9 cf       	rjmp	.-174    	; 0x152c <__fp_szero>

000015da <__mulsf3x>:
    15da:	85 df       	rcall	.-246    	; 0x14e6 <__fp_split3>
    15dc:	a0 f3       	brcs	.-24     	; 0x15c6 <__mulsf3+0x4>

000015de <__mulsf3_pse>:
    15de:	95 9f       	mul	r25, r21
    15e0:	d1 f3       	breq	.-12     	; 0x15d6 <__mulsf3+0x14>
    15e2:	95 0f       	add	r25, r21
    15e4:	50 e0       	ldi	r21, 0x00	; 0
    15e6:	55 1f       	adc	r21, r21
    15e8:	62 9f       	mul	r22, r18
    15ea:	f0 01       	movw	r30, r0
    15ec:	72 9f       	mul	r23, r18
    15ee:	bb 27       	eor	r27, r27
    15f0:	f0 0d       	add	r31, r0
    15f2:	b1 1d       	adc	r27, r1
    15f4:	63 9f       	mul	r22, r19
    15f6:	aa 27       	eor	r26, r26
    15f8:	f0 0d       	add	r31, r0
    15fa:	b1 1d       	adc	r27, r1
    15fc:	aa 1f       	adc	r26, r26
    15fe:	64 9f       	mul	r22, r20
    1600:	66 27       	eor	r22, r22
    1602:	b0 0d       	add	r27, r0
    1604:	a1 1d       	adc	r26, r1
    1606:	66 1f       	adc	r22, r22
    1608:	82 9f       	mul	r24, r18
    160a:	22 27       	eor	r18, r18
    160c:	b0 0d       	add	r27, r0
    160e:	a1 1d       	adc	r26, r1
    1610:	62 1f       	adc	r22, r18
    1612:	73 9f       	mul	r23, r19
    1614:	b0 0d       	add	r27, r0
    1616:	a1 1d       	adc	r26, r1
    1618:	62 1f       	adc	r22, r18
    161a:	83 9f       	mul	r24, r19
    161c:	a0 0d       	add	r26, r0
    161e:	61 1d       	adc	r22, r1
    1620:	22 1f       	adc	r18, r18
    1622:	74 9f       	mul	r23, r20
    1624:	33 27       	eor	r19, r19
    1626:	a0 0d       	add	r26, r0
    1628:	61 1d       	adc	r22, r1
    162a:	23 1f       	adc	r18, r19
    162c:	84 9f       	mul	r24, r20
    162e:	60 0d       	add	r22, r0
    1630:	21 1d       	adc	r18, r1
    1632:	82 2f       	mov	r24, r18
    1634:	76 2f       	mov	r23, r22
    1636:	6a 2f       	mov	r22, r26
    1638:	11 24       	eor	r1, r1
    163a:	9f 57       	subi	r25, 0x7F	; 127
    163c:	50 40       	sbci	r21, 0x00	; 0
    163e:	8a f0       	brmi	.+34     	; 0x1662 <__mulsf3_pse+0x84>
    1640:	e1 f0       	breq	.+56     	; 0x167a <__mulsf3_pse+0x9c>
    1642:	88 23       	and	r24, r24
    1644:	4a f0       	brmi	.+18     	; 0x1658 <__mulsf3_pse+0x7a>
    1646:	ee 0f       	add	r30, r30
    1648:	ff 1f       	adc	r31, r31
    164a:	bb 1f       	adc	r27, r27
    164c:	66 1f       	adc	r22, r22
    164e:	77 1f       	adc	r23, r23
    1650:	88 1f       	adc	r24, r24
    1652:	91 50       	subi	r25, 0x01	; 1
    1654:	50 40       	sbci	r21, 0x00	; 0
    1656:	a9 f7       	brne	.-22     	; 0x1642 <__mulsf3_pse+0x64>
    1658:	9e 3f       	cpi	r25, 0xFE	; 254
    165a:	51 05       	cpc	r21, r1
    165c:	70 f0       	brcs	.+28     	; 0x167a <__mulsf3_pse+0x9c>
    165e:	1b cf       	rjmp	.-458    	; 0x1496 <__fp_inf>
    1660:	65 cf       	rjmp	.-310    	; 0x152c <__fp_szero>
    1662:	5f 3f       	cpi	r21, 0xFF	; 255
    1664:	ec f3       	brlt	.-6      	; 0x1660 <__mulsf3_pse+0x82>
    1666:	98 3e       	cpi	r25, 0xE8	; 232
    1668:	dc f3       	brlt	.-10     	; 0x1660 <__mulsf3_pse+0x82>
    166a:	86 95       	lsr	r24
    166c:	77 95       	ror	r23
    166e:	67 95       	ror	r22
    1670:	b7 95       	ror	r27
    1672:	f7 95       	ror	r31
    1674:	e7 95       	ror	r30
    1676:	9f 5f       	subi	r25, 0xFF	; 255
    1678:	c1 f7       	brne	.-16     	; 0x166a <__mulsf3_pse+0x8c>
    167a:	fe 2b       	or	r31, r30
    167c:	88 0f       	add	r24, r24
    167e:	91 1d       	adc	r25, r1
    1680:	96 95       	lsr	r25
    1682:	87 95       	ror	r24
    1684:	97 f9       	bld	r25, 7
    1686:	08 95       	ret

00001688 <pow>:
    1688:	fa 01       	movw	r30, r20
    168a:	ee 0f       	add	r30, r30
    168c:	ff 1f       	adc	r31, r31
    168e:	30 96       	adiw	r30, 0x00	; 0
    1690:	21 05       	cpc	r18, r1
    1692:	31 05       	cpc	r19, r1
    1694:	99 f1       	breq	.+102    	; 0x16fc <pow+0x74>
    1696:	61 15       	cp	r22, r1
    1698:	71 05       	cpc	r23, r1
    169a:	61 f4       	brne	.+24     	; 0x16b4 <pow+0x2c>
    169c:	80 38       	cpi	r24, 0x80	; 128
    169e:	bf e3       	ldi	r27, 0x3F	; 63
    16a0:	9b 07       	cpc	r25, r27
    16a2:	49 f1       	breq	.+82     	; 0x16f6 <pow+0x6e>
    16a4:	68 94       	set
    16a6:	90 38       	cpi	r25, 0x80	; 128
    16a8:	81 05       	cpc	r24, r1
    16aa:	61 f0       	breq	.+24     	; 0x16c4 <pow+0x3c>
    16ac:	80 38       	cpi	r24, 0x80	; 128
    16ae:	bf ef       	ldi	r27, 0xFF	; 255
    16b0:	9b 07       	cpc	r25, r27
    16b2:	41 f0       	breq	.+16     	; 0x16c4 <pow+0x3c>
    16b4:	99 23       	and	r25, r25
    16b6:	42 f5       	brpl	.+80     	; 0x1708 <pow+0x80>
    16b8:	ff 3f       	cpi	r31, 0xFF	; 255
    16ba:	e1 05       	cpc	r30, r1
    16bc:	31 05       	cpc	r19, r1
    16be:	21 05       	cpc	r18, r1
    16c0:	11 f1       	breq	.+68     	; 0x1706 <pow+0x7e>
    16c2:	e8 94       	clt
    16c4:	08 94       	sec
    16c6:	e7 95       	ror	r30
    16c8:	d9 01       	movw	r26, r18
    16ca:	aa 23       	and	r26, r26
    16cc:	29 f4       	brne	.+10     	; 0x16d8 <pow+0x50>
    16ce:	ab 2f       	mov	r26, r27
    16d0:	be 2f       	mov	r27, r30
    16d2:	f8 5f       	subi	r31, 0xF8	; 248
    16d4:	d0 f3       	brcs	.-12     	; 0x16ca <pow+0x42>
    16d6:	10 c0       	rjmp	.+32     	; 0x16f8 <pow+0x70>
    16d8:	ff 5f       	subi	r31, 0xFF	; 255
    16da:	70 f4       	brcc	.+28     	; 0x16f8 <pow+0x70>
    16dc:	a6 95       	lsr	r26
    16de:	e0 f7       	brcc	.-8      	; 0x16d8 <pow+0x50>
    16e0:	f7 39       	cpi	r31, 0x97	; 151
    16e2:	50 f0       	brcs	.+20     	; 0x16f8 <pow+0x70>
    16e4:	19 f0       	breq	.+6      	; 0x16ec <pow+0x64>
    16e6:	ff 3a       	cpi	r31, 0xAF	; 175
    16e8:	38 f4       	brcc	.+14     	; 0x16f8 <pow+0x70>
    16ea:	9f 77       	andi	r25, 0x7F	; 127
    16ec:	9f 93       	push	r25
    16ee:	0c d0       	rcall	.+24     	; 0x1708 <pow+0x80>
    16f0:	0f 90       	pop	r0
    16f2:	07 fc       	sbrc	r0, 7
    16f4:	90 58       	subi	r25, 0x80	; 128
    16f6:	08 95       	ret
    16f8:	3e f0       	brts	.+14     	; 0x1708 <pow+0x80>
    16fa:	d3 ce       	rjmp	.-602    	; 0x14a2 <__fp_nan>
    16fc:	60 e0       	ldi	r22, 0x00	; 0
    16fe:	70 e0       	ldi	r23, 0x00	; 0
    1700:	80 e8       	ldi	r24, 0x80	; 128
    1702:	9f e3       	ldi	r25, 0x3F	; 63
    1704:	08 95       	ret
    1706:	4f e7       	ldi	r20, 0x7F	; 127
    1708:	9f 77       	andi	r25, 0x7F	; 127
    170a:	5f 93       	push	r21
    170c:	4f 93       	push	r20
    170e:	3f 93       	push	r19
    1710:	2f 93       	push	r18
    1712:	17 df       	rcall	.-466    	; 0x1542 <log>
    1714:	2f 91       	pop	r18
    1716:	3f 91       	pop	r19
    1718:	4f 91       	pop	r20
    171a:	5f 91       	pop	r21
    171c:	52 df       	rcall	.-348    	; 0x15c2 <__mulsf3>
    171e:	05 c0       	rjmp	.+10     	; 0x172a <exp>
    1720:	19 f4       	brne	.+6      	; 0x1728 <pow+0xa0>
    1722:	0e f0       	brts	.+2      	; 0x1726 <pow+0x9e>
    1724:	b8 ce       	rjmp	.-656    	; 0x1496 <__fp_inf>
    1726:	01 cf       	rjmp	.-510    	; 0x152a <__fp_zero>
    1728:	bc ce       	rjmp	.-648    	; 0x14a2 <__fp_nan>

0000172a <exp>:
    172a:	e5 de       	rcall	.-566    	; 0x14f6 <__fp_splitA>
    172c:	c8 f3       	brcs	.-14     	; 0x1720 <pow+0x98>
    172e:	96 38       	cpi	r25, 0x86	; 134
    1730:	c0 f7       	brcc	.-16     	; 0x1722 <pow+0x9a>
    1732:	07 f8       	bld	r0, 7
    1734:	0f 92       	push	r0
    1736:	e8 94       	clt
    1738:	2b e3       	ldi	r18, 0x3B	; 59
    173a:	3a ea       	ldi	r19, 0xAA	; 170
    173c:	48 eb       	ldi	r20, 0xB8	; 184
    173e:	5f e7       	ldi	r21, 0x7F	; 127
    1740:	4e df       	rcall	.-356    	; 0x15de <__mulsf3_pse>
    1742:	0f 92       	push	r0
    1744:	0f 92       	push	r0
    1746:	0f 92       	push	r0
    1748:	4d b7       	in	r20, 0x3d	; 61
    174a:	5e b7       	in	r21, 0x3e	; 62
    174c:	0f 92       	push	r0
    174e:	89 d0       	rcall	.+274    	; 0x1862 <modf>
    1750:	e6 e5       	ldi	r30, 0x56	; 86
    1752:	f2 e0       	ldi	r31, 0x02	; 2
    1754:	24 d0       	rcall	.+72     	; 0x179e <__fp_powser>
    1756:	4f 91       	pop	r20
    1758:	5f 91       	pop	r21
    175a:	ef 91       	pop	r30
    175c:	ff 91       	pop	r31
    175e:	e5 95       	asr	r30
    1760:	ee 1f       	adc	r30, r30
    1762:	ff 1f       	adc	r31, r31
    1764:	49 f0       	breq	.+18     	; 0x1778 <exp+0x4e>
    1766:	fe 57       	subi	r31, 0x7E	; 126
    1768:	e0 68       	ori	r30, 0x80	; 128
    176a:	44 27       	eor	r20, r20
    176c:	ee 0f       	add	r30, r30
    176e:	44 1f       	adc	r20, r20
    1770:	fa 95       	dec	r31
    1772:	e1 f7       	brne	.-8      	; 0x176c <exp+0x42>
    1774:	41 95       	neg	r20
    1776:	55 0b       	sbc	r21, r21
    1778:	40 d0       	rcall	.+128    	; 0x17fa <ldexp>
    177a:	0f 90       	pop	r0
    177c:	07 fe       	sbrs	r0, 7
    177e:	34 c0       	rjmp	.+104    	; 0x17e8 <inverse>
    1780:	08 95       	ret

00001782 <__fp_mpack>:
    1782:	9f 3f       	cpi	r25, 0xFF	; 255
    1784:	31 f0       	breq	.+12     	; 0x1792 <__fp_mpack_finite+0xc>

00001786 <__fp_mpack_finite>:
    1786:	91 50       	subi	r25, 0x01	; 1
    1788:	20 f4       	brcc	.+8      	; 0x1792 <__fp_mpack_finite+0xc>
    178a:	87 95       	ror	r24
    178c:	77 95       	ror	r23
    178e:	67 95       	ror	r22
    1790:	b7 95       	ror	r27
    1792:	88 0f       	add	r24, r24
    1794:	91 1d       	adc	r25, r1
    1796:	96 95       	lsr	r25
    1798:	87 95       	ror	r24
    179a:	97 f9       	bld	r25, 7
    179c:	08 95       	ret

0000179e <__fp_powser>:
    179e:	df 93       	push	r29
    17a0:	cf 93       	push	r28
    17a2:	1f 93       	push	r17
    17a4:	0f 93       	push	r16
    17a6:	ff 92       	push	r15
    17a8:	ef 92       	push	r14
    17aa:	df 92       	push	r13
    17ac:	7b 01       	movw	r14, r22
    17ae:	8c 01       	movw	r16, r24
    17b0:	68 94       	set
    17b2:	05 c0       	rjmp	.+10     	; 0x17be <__fp_powser+0x20>
    17b4:	da 2e       	mov	r13, r26
    17b6:	ef 01       	movw	r28, r30
    17b8:	10 df       	rcall	.-480    	; 0x15da <__mulsf3x>
    17ba:	fe 01       	movw	r30, r28
    17bc:	e8 94       	clt
    17be:	a5 91       	lpm	r26, Z+
    17c0:	25 91       	lpm	r18, Z+
    17c2:	35 91       	lpm	r19, Z+
    17c4:	45 91       	lpm	r20, Z+
    17c6:	55 91       	lpm	r21, Z+
    17c8:	ae f3       	brts	.-22     	; 0x17b4 <__fp_powser+0x16>
    17ca:	ef 01       	movw	r28, r30
    17cc:	fd dc       	rcall	.-1542   	; 0x11c8 <__addsf3x>
    17ce:	fe 01       	movw	r30, r28
    17d0:	97 01       	movw	r18, r14
    17d2:	a8 01       	movw	r20, r16
    17d4:	da 94       	dec	r13
    17d6:	79 f7       	brne	.-34     	; 0x17b6 <__fp_powser+0x18>
    17d8:	df 90       	pop	r13
    17da:	ef 90       	pop	r14
    17dc:	ff 90       	pop	r15
    17de:	0f 91       	pop	r16
    17e0:	1f 91       	pop	r17
    17e2:	cf 91       	pop	r28
    17e4:	df 91       	pop	r29
    17e6:	08 95       	ret

000017e8 <inverse>:
    17e8:	9b 01       	movw	r18, r22
    17ea:	ac 01       	movw	r20, r24
    17ec:	60 e0       	ldi	r22, 0x00	; 0
    17ee:	70 e0       	ldi	r23, 0x00	; 0
    17f0:	80 e8       	ldi	r24, 0x80	; 128
    17f2:	9f e3       	ldi	r25, 0x3F	; 63
    17f4:	3c cd       	rjmp	.-1416   	; 0x126e <__divsf3>
    17f6:	4f ce       	rjmp	.-866    	; 0x1496 <__fp_inf>
    17f8:	c4 cf       	rjmp	.-120    	; 0x1782 <__fp_mpack>

000017fa <ldexp>:
    17fa:	7d de       	rcall	.-774    	; 0x14f6 <__fp_splitA>
    17fc:	e8 f3       	brcs	.-6      	; 0x17f8 <inverse+0x10>
    17fe:	99 23       	and	r25, r25
    1800:	d9 f3       	breq	.-10     	; 0x17f8 <inverse+0x10>
    1802:	94 0f       	add	r25, r20
    1804:	51 1d       	adc	r21, r1
    1806:	bb f3       	brvs	.-18     	; 0x17f6 <inverse+0xe>
    1808:	91 50       	subi	r25, 0x01	; 1
    180a:	50 40       	sbci	r21, 0x00	; 0
    180c:	94 f0       	brlt	.+36     	; 0x1832 <ldexp+0x38>
    180e:	59 f0       	breq	.+22     	; 0x1826 <ldexp+0x2c>
    1810:	88 23       	and	r24, r24
    1812:	32 f0       	brmi	.+12     	; 0x1820 <ldexp+0x26>
    1814:	66 0f       	add	r22, r22
    1816:	77 1f       	adc	r23, r23
    1818:	88 1f       	adc	r24, r24
    181a:	91 50       	subi	r25, 0x01	; 1
    181c:	50 40       	sbci	r21, 0x00	; 0
    181e:	c1 f7       	brne	.-16     	; 0x1810 <ldexp+0x16>
    1820:	9e 3f       	cpi	r25, 0xFE	; 254
    1822:	51 05       	cpc	r21, r1
    1824:	44 f7       	brge	.-48     	; 0x17f6 <inverse+0xe>
    1826:	88 0f       	add	r24, r24
    1828:	91 1d       	adc	r25, r1
    182a:	96 95       	lsr	r25
    182c:	87 95       	ror	r24
    182e:	97 f9       	bld	r25, 7
    1830:	08 95       	ret
    1832:	5f 3f       	cpi	r21, 0xFF	; 255
    1834:	ac f0       	brlt	.+42     	; 0x1860 <ldexp+0x66>
    1836:	98 3e       	cpi	r25, 0xE8	; 232
    1838:	9c f0       	brlt	.+38     	; 0x1860 <ldexp+0x66>
    183a:	bb 27       	eor	r27, r27
    183c:	86 95       	lsr	r24
    183e:	77 95       	ror	r23
    1840:	67 95       	ror	r22
    1842:	b7 95       	ror	r27
    1844:	08 f4       	brcc	.+2      	; 0x1848 <ldexp+0x4e>
    1846:	b1 60       	ori	r27, 0x01	; 1
    1848:	93 95       	inc	r25
    184a:	c1 f7       	brne	.-16     	; 0x183c <ldexp+0x42>
    184c:	bb 0f       	add	r27, r27
    184e:	58 f7       	brcc	.-42     	; 0x1826 <ldexp+0x2c>
    1850:	11 f4       	brne	.+4      	; 0x1856 <ldexp+0x5c>
    1852:	60 ff       	sbrs	r22, 0
    1854:	e8 cf       	rjmp	.-48     	; 0x1826 <ldexp+0x2c>
    1856:	6f 5f       	subi	r22, 0xFF	; 255
    1858:	7f 4f       	sbci	r23, 0xFF	; 255
    185a:	8f 4f       	sbci	r24, 0xFF	; 255
    185c:	9f 4f       	sbci	r25, 0xFF	; 255
    185e:	e3 cf       	rjmp	.-58     	; 0x1826 <ldexp+0x2c>
    1860:	65 ce       	rjmp	.-822    	; 0x152c <__fp_szero>

00001862 <modf>:
    1862:	fa 01       	movw	r30, r20
    1864:	dc 01       	movw	r26, r24
    1866:	aa 0f       	add	r26, r26
    1868:	bb 1f       	adc	r27, r27
    186a:	9b 01       	movw	r18, r22
    186c:	ac 01       	movw	r20, r24
    186e:	bf 57       	subi	r27, 0x7F	; 127
    1870:	28 f4       	brcc	.+10     	; 0x187c <modf+0x1a>
    1872:	22 27       	eor	r18, r18
    1874:	33 27       	eor	r19, r19
    1876:	44 27       	eor	r20, r20
    1878:	50 78       	andi	r21, 0x80	; 128
    187a:	1f c0       	rjmp	.+62     	; 0x18ba <modf+0x58>
    187c:	b7 51       	subi	r27, 0x17	; 23
    187e:	88 f4       	brcc	.+34     	; 0x18a2 <modf+0x40>
    1880:	ab 2f       	mov	r26, r27
    1882:	00 24       	eor	r0, r0
    1884:	46 95       	lsr	r20
    1886:	37 95       	ror	r19
    1888:	27 95       	ror	r18
    188a:	01 1c       	adc	r0, r1
    188c:	a3 95       	inc	r26
    188e:	d2 f3       	brmi	.-12     	; 0x1884 <modf+0x22>
    1890:	00 20       	and	r0, r0
    1892:	69 f0       	breq	.+26     	; 0x18ae <modf+0x4c>
    1894:	22 0f       	add	r18, r18
    1896:	33 1f       	adc	r19, r19
    1898:	44 1f       	adc	r20, r20
    189a:	b3 95       	inc	r27
    189c:	da f3       	brmi	.-10     	; 0x1894 <modf+0x32>
    189e:	0d d0       	rcall	.+26     	; 0x18ba <modf+0x58>
    18a0:	81 cc       	rjmp	.-1790   	; 0x11a4 <__subsf3>
    18a2:	61 30       	cpi	r22, 0x01	; 1
    18a4:	71 05       	cpc	r23, r1
    18a6:	a0 e8       	ldi	r26, 0x80	; 128
    18a8:	8a 07       	cpc	r24, r26
    18aa:	b9 46       	sbci	r27, 0x69	; 105
    18ac:	30 f4       	brcc	.+12     	; 0x18ba <modf+0x58>
    18ae:	9b 01       	movw	r18, r22
    18b0:	ac 01       	movw	r20, r24
    18b2:	66 27       	eor	r22, r22
    18b4:	77 27       	eor	r23, r23
    18b6:	88 27       	eor	r24, r24
    18b8:	90 78       	andi	r25, 0x80	; 128
    18ba:	30 96       	adiw	r30, 0x00	; 0
    18bc:	21 f0       	breq	.+8      	; 0x18c6 <modf+0x64>
    18be:	20 83       	st	Z, r18
    18c0:	31 83       	std	Z+1, r19	; 0x01
    18c2:	42 83       	std	Z+2, r20	; 0x02
    18c4:	53 83       	std	Z+3, r21	; 0x03
    18c6:	08 95       	ret

000018c8 <__udivmodsi4>:
    18c8:	a1 e2       	ldi	r26, 0x21	; 33
    18ca:	1a 2e       	mov	r1, r26
    18cc:	aa 1b       	sub	r26, r26
    18ce:	bb 1b       	sub	r27, r27
    18d0:	fd 01       	movw	r30, r26
    18d2:	0d c0       	rjmp	.+26     	; 0x18ee <__udivmodsi4_ep>

000018d4 <__udivmodsi4_loop>:
    18d4:	aa 1f       	adc	r26, r26
    18d6:	bb 1f       	adc	r27, r27
    18d8:	ee 1f       	adc	r30, r30
    18da:	ff 1f       	adc	r31, r31
    18dc:	a2 17       	cp	r26, r18
    18de:	b3 07       	cpc	r27, r19
    18e0:	e4 07       	cpc	r30, r20
    18e2:	f5 07       	cpc	r31, r21
    18e4:	20 f0       	brcs	.+8      	; 0x18ee <__udivmodsi4_ep>
    18e6:	a2 1b       	sub	r26, r18
    18e8:	b3 0b       	sbc	r27, r19
    18ea:	e4 0b       	sbc	r30, r20
    18ec:	f5 0b       	sbc	r31, r21

000018ee <__udivmodsi4_ep>:
    18ee:	66 1f       	adc	r22, r22
    18f0:	77 1f       	adc	r23, r23
    18f2:	88 1f       	adc	r24, r24
    18f4:	99 1f       	adc	r25, r25
    18f6:	1a 94       	dec	r1
    18f8:	69 f7       	brne	.-38     	; 0x18d4 <__udivmodsi4_loop>
    18fa:	60 95       	com	r22
    18fc:	70 95       	com	r23
    18fe:	80 95       	com	r24
    1900:	90 95       	com	r25
    1902:	9b 01       	movw	r18, r22
    1904:	ac 01       	movw	r20, r24
    1906:	bd 01       	movw	r22, r26
    1908:	cf 01       	movw	r24, r30
    190a:	08 95       	ret

0000190c <__ashldi3>:
    190c:	0f 93       	push	r16
    190e:	08 30       	cpi	r16, 0x08	; 8
    1910:	90 f0       	brcs	.+36     	; 0x1936 <__ashldi3+0x2a>
    1912:	98 2f       	mov	r25, r24
    1914:	87 2f       	mov	r24, r23
    1916:	76 2f       	mov	r23, r22
    1918:	65 2f       	mov	r22, r21
    191a:	54 2f       	mov	r21, r20
    191c:	43 2f       	mov	r20, r19
    191e:	32 2f       	mov	r19, r18
    1920:	22 27       	eor	r18, r18
    1922:	08 50       	subi	r16, 0x08	; 8
    1924:	f4 cf       	rjmp	.-24     	; 0x190e <__ashldi3+0x2>
    1926:	22 0f       	add	r18, r18
    1928:	33 1f       	adc	r19, r19
    192a:	44 1f       	adc	r20, r20
    192c:	55 1f       	adc	r21, r21
    192e:	66 1f       	adc	r22, r22
    1930:	77 1f       	adc	r23, r23
    1932:	88 1f       	adc	r24, r24
    1934:	99 1f       	adc	r25, r25
    1936:	0a 95       	dec	r16
    1938:	b2 f7       	brpl	.-20     	; 0x1926 <__ashldi3+0x1a>
    193a:	0f 91       	pop	r16
    193c:	08 95       	ret

0000193e <__subdi3>:
    193e:	2a 19       	sub	r18, r10
    1940:	3b 09       	sbc	r19, r11
    1942:	4c 09       	sbc	r20, r12
    1944:	5d 09       	sbc	r21, r13
    1946:	6e 09       	sbc	r22, r14
    1948:	7f 09       	sbc	r23, r15
    194a:	80 0b       	sbc	r24, r16
    194c:	91 0b       	sbc	r25, r17
    194e:	08 95       	ret

00001950 <fdevopen>:
    1950:	0f 93       	push	r16
    1952:	1f 93       	push	r17
    1954:	cf 93       	push	r28
    1956:	df 93       	push	r29
    1958:	00 97       	sbiw	r24, 0x00	; 0
    195a:	31 f4       	brne	.+12     	; 0x1968 <fdevopen+0x18>
    195c:	61 15       	cp	r22, r1
    195e:	71 05       	cpc	r23, r1
    1960:	19 f4       	brne	.+6      	; 0x1968 <fdevopen+0x18>
    1962:	80 e0       	ldi	r24, 0x00	; 0
    1964:	90 e0       	ldi	r25, 0x00	; 0
    1966:	39 c0       	rjmp	.+114    	; 0x19da <fdevopen+0x8a>
    1968:	8b 01       	movw	r16, r22
    196a:	ec 01       	movw	r28, r24
    196c:	6e e0       	ldi	r22, 0x0E	; 14
    196e:	70 e0       	ldi	r23, 0x00	; 0
    1970:	81 e0       	ldi	r24, 0x01	; 1
    1972:	90 e0       	ldi	r25, 0x00	; 0
    1974:	71 d2       	rcall	.+1250   	; 0x1e58 <calloc>
    1976:	fc 01       	movw	r30, r24
    1978:	89 2b       	or	r24, r25
    197a:	99 f3       	breq	.-26     	; 0x1962 <fdevopen+0x12>
    197c:	80 e8       	ldi	r24, 0x80	; 128
    197e:	83 83       	std	Z+3, r24	; 0x03
    1980:	01 15       	cp	r16, r1
    1982:	11 05       	cpc	r17, r1
    1984:	71 f0       	breq	.+28     	; 0x19a2 <fdevopen+0x52>
    1986:	02 87       	std	Z+10, r16	; 0x0a
    1988:	13 87       	std	Z+11, r17	; 0x0b
    198a:	81 e8       	ldi	r24, 0x81	; 129
    198c:	83 83       	std	Z+3, r24	; 0x03
    198e:	80 91 83 20 	lds	r24, 0x2083	; 0x802083 <__iob>
    1992:	90 91 84 20 	lds	r25, 0x2084	; 0x802084 <__iob+0x1>
    1996:	89 2b       	or	r24, r25
    1998:	21 f4       	brne	.+8      	; 0x19a2 <fdevopen+0x52>
    199a:	e0 93 83 20 	sts	0x2083, r30	; 0x802083 <__iob>
    199e:	f0 93 84 20 	sts	0x2084, r31	; 0x802084 <__iob+0x1>
    19a2:	20 97       	sbiw	r28, 0x00	; 0
    19a4:	c9 f0       	breq	.+50     	; 0x19d8 <fdevopen+0x88>
    19a6:	c0 87       	std	Z+8, r28	; 0x08
    19a8:	d1 87       	std	Z+9, r29	; 0x09
    19aa:	83 81       	ldd	r24, Z+3	; 0x03
    19ac:	82 60       	ori	r24, 0x02	; 2
    19ae:	83 83       	std	Z+3, r24	; 0x03
    19b0:	80 91 85 20 	lds	r24, 0x2085	; 0x802085 <__iob+0x2>
    19b4:	90 91 86 20 	lds	r25, 0x2086	; 0x802086 <__iob+0x3>
    19b8:	89 2b       	or	r24, r25
    19ba:	71 f4       	brne	.+28     	; 0x19d8 <fdevopen+0x88>
    19bc:	e0 93 85 20 	sts	0x2085, r30	; 0x802085 <__iob+0x2>
    19c0:	f0 93 86 20 	sts	0x2086, r31	; 0x802086 <__iob+0x3>
    19c4:	80 91 87 20 	lds	r24, 0x2087	; 0x802087 <__iob+0x4>
    19c8:	90 91 88 20 	lds	r25, 0x2088	; 0x802088 <__iob+0x5>
    19cc:	89 2b       	or	r24, r25
    19ce:	21 f4       	brne	.+8      	; 0x19d8 <fdevopen+0x88>
    19d0:	e0 93 87 20 	sts	0x2087, r30	; 0x802087 <__iob+0x4>
    19d4:	f0 93 88 20 	sts	0x2088, r31	; 0x802088 <__iob+0x5>
    19d8:	cf 01       	movw	r24, r30
    19da:	df 91       	pop	r29
    19dc:	cf 91       	pop	r28
    19de:	1f 91       	pop	r17
    19e0:	0f 91       	pop	r16
    19e2:	08 95       	ret

000019e4 <printf>:
    19e4:	cf 93       	push	r28
    19e6:	df 93       	push	r29
    19e8:	cd b7       	in	r28, 0x3d	; 61
    19ea:	de b7       	in	r29, 0x3e	; 62
    19ec:	ae 01       	movw	r20, r28
    19ee:	4a 5f       	subi	r20, 0xFA	; 250
    19f0:	5f 4f       	sbci	r21, 0xFF	; 255
    19f2:	fa 01       	movw	r30, r20
    19f4:	61 91       	ld	r22, Z+
    19f6:	71 91       	ld	r23, Z+
    19f8:	af 01       	movw	r20, r30
    19fa:	80 91 85 20 	lds	r24, 0x2085	; 0x802085 <__iob+0x2>
    19fe:	90 91 86 20 	lds	r25, 0x2086	; 0x802086 <__iob+0x3>
    1a02:	33 d0       	rcall	.+102    	; 0x1a6a <vfprintf>
    1a04:	df 91       	pop	r29
    1a06:	cf 91       	pop	r28
    1a08:	08 95       	ret

00001a0a <puts>:
    1a0a:	0f 93       	push	r16
    1a0c:	1f 93       	push	r17
    1a0e:	cf 93       	push	r28
    1a10:	df 93       	push	r29
    1a12:	e0 91 85 20 	lds	r30, 0x2085	; 0x802085 <__iob+0x2>
    1a16:	f0 91 86 20 	lds	r31, 0x2086	; 0x802086 <__iob+0x3>
    1a1a:	23 81       	ldd	r18, Z+3	; 0x03
    1a1c:	21 ff       	sbrs	r18, 1
    1a1e:	1b c0       	rjmp	.+54     	; 0x1a56 <puts+0x4c>
    1a20:	8c 01       	movw	r16, r24
    1a22:	d0 e0       	ldi	r29, 0x00	; 0
    1a24:	c0 e0       	ldi	r28, 0x00	; 0
    1a26:	f8 01       	movw	r30, r16
    1a28:	81 91       	ld	r24, Z+
    1a2a:	8f 01       	movw	r16, r30
    1a2c:	60 91 85 20 	lds	r22, 0x2085	; 0x802085 <__iob+0x2>
    1a30:	70 91 86 20 	lds	r23, 0x2086	; 0x802086 <__iob+0x3>
    1a34:	db 01       	movw	r26, r22
    1a36:	18 96       	adiw	r26, 0x08	; 8
    1a38:	ed 91       	ld	r30, X+
    1a3a:	fc 91       	ld	r31, X
    1a3c:	19 97       	sbiw	r26, 0x09	; 9
    1a3e:	88 23       	and	r24, r24
    1a40:	31 f0       	breq	.+12     	; 0x1a4e <puts+0x44>
    1a42:	19 95       	eicall
    1a44:	89 2b       	or	r24, r25
    1a46:	79 f3       	breq	.-34     	; 0x1a26 <puts+0x1c>
    1a48:	df ef       	ldi	r29, 0xFF	; 255
    1a4a:	cf ef       	ldi	r28, 0xFF	; 255
    1a4c:	ec cf       	rjmp	.-40     	; 0x1a26 <puts+0x1c>
    1a4e:	8a e0       	ldi	r24, 0x0A	; 10
    1a50:	19 95       	eicall
    1a52:	89 2b       	or	r24, r25
    1a54:	19 f0       	breq	.+6      	; 0x1a5c <puts+0x52>
    1a56:	8f ef       	ldi	r24, 0xFF	; 255
    1a58:	9f ef       	ldi	r25, 0xFF	; 255
    1a5a:	02 c0       	rjmp	.+4      	; 0x1a60 <puts+0x56>
    1a5c:	8d 2f       	mov	r24, r29
    1a5e:	9c 2f       	mov	r25, r28
    1a60:	df 91       	pop	r29
    1a62:	cf 91       	pop	r28
    1a64:	1f 91       	pop	r17
    1a66:	0f 91       	pop	r16
    1a68:	08 95       	ret

00001a6a <vfprintf>:
    1a6a:	2f 92       	push	r2
    1a6c:	3f 92       	push	r3
    1a6e:	4f 92       	push	r4
    1a70:	5f 92       	push	r5
    1a72:	6f 92       	push	r6
    1a74:	7f 92       	push	r7
    1a76:	8f 92       	push	r8
    1a78:	9f 92       	push	r9
    1a7a:	af 92       	push	r10
    1a7c:	bf 92       	push	r11
    1a7e:	cf 92       	push	r12
    1a80:	df 92       	push	r13
    1a82:	ef 92       	push	r14
    1a84:	ff 92       	push	r15
    1a86:	0f 93       	push	r16
    1a88:	1f 93       	push	r17
    1a8a:	cf 93       	push	r28
    1a8c:	df 93       	push	r29
    1a8e:	cd b7       	in	r28, 0x3d	; 61
    1a90:	de b7       	in	r29, 0x3e	; 62
    1a92:	2b 97       	sbiw	r28, 0x0b	; 11
    1a94:	cd bf       	out	0x3d, r28	; 61
    1a96:	de bf       	out	0x3e, r29	; 62
    1a98:	6c 01       	movw	r12, r24
    1a9a:	7b 01       	movw	r14, r22
    1a9c:	8a 01       	movw	r16, r20
    1a9e:	fc 01       	movw	r30, r24
    1aa0:	16 82       	std	Z+6, r1	; 0x06
    1aa2:	17 82       	std	Z+7, r1	; 0x07
    1aa4:	83 81       	ldd	r24, Z+3	; 0x03
    1aa6:	81 ff       	sbrs	r24, 1
    1aa8:	bf c1       	rjmp	.+894    	; 0x1e28 <vfprintf+0x3be>
    1aaa:	ce 01       	movw	r24, r28
    1aac:	01 96       	adiw	r24, 0x01	; 1
    1aae:	3c 01       	movw	r6, r24
    1ab0:	f6 01       	movw	r30, r12
    1ab2:	93 81       	ldd	r25, Z+3	; 0x03
    1ab4:	f7 01       	movw	r30, r14
    1ab6:	93 fd       	sbrc	r25, 3
    1ab8:	85 91       	lpm	r24, Z+
    1aba:	93 ff       	sbrs	r25, 3
    1abc:	81 91       	ld	r24, Z+
    1abe:	7f 01       	movw	r14, r30
    1ac0:	88 23       	and	r24, r24
    1ac2:	09 f4       	brne	.+2      	; 0x1ac6 <vfprintf+0x5c>
    1ac4:	ad c1       	rjmp	.+858    	; 0x1e20 <vfprintf+0x3b6>
    1ac6:	85 32       	cpi	r24, 0x25	; 37
    1ac8:	39 f4       	brne	.+14     	; 0x1ad8 <vfprintf+0x6e>
    1aca:	93 fd       	sbrc	r25, 3
    1acc:	85 91       	lpm	r24, Z+
    1ace:	93 ff       	sbrs	r25, 3
    1ad0:	81 91       	ld	r24, Z+
    1ad2:	7f 01       	movw	r14, r30
    1ad4:	85 32       	cpi	r24, 0x25	; 37
    1ad6:	21 f4       	brne	.+8      	; 0x1ae0 <vfprintf+0x76>
    1ad8:	b6 01       	movw	r22, r12
    1ada:	90 e0       	ldi	r25, 0x00	; 0
    1adc:	15 d3       	rcall	.+1578   	; 0x2108 <fputc>
    1ade:	e8 cf       	rjmp	.-48     	; 0x1ab0 <vfprintf+0x46>
    1ae0:	91 2c       	mov	r9, r1
    1ae2:	21 2c       	mov	r2, r1
    1ae4:	31 2c       	mov	r3, r1
    1ae6:	ff e1       	ldi	r31, 0x1F	; 31
    1ae8:	f3 15       	cp	r31, r3
    1aea:	d8 f0       	brcs	.+54     	; 0x1b22 <vfprintf+0xb8>
    1aec:	8b 32       	cpi	r24, 0x2B	; 43
    1aee:	79 f0       	breq	.+30     	; 0x1b0e <vfprintf+0xa4>
    1af0:	38 f4       	brcc	.+14     	; 0x1b00 <vfprintf+0x96>
    1af2:	80 32       	cpi	r24, 0x20	; 32
    1af4:	79 f0       	breq	.+30     	; 0x1b14 <vfprintf+0xaa>
    1af6:	83 32       	cpi	r24, 0x23	; 35
    1af8:	a1 f4       	brne	.+40     	; 0x1b22 <vfprintf+0xb8>
    1afa:	23 2d       	mov	r18, r3
    1afc:	20 61       	ori	r18, 0x10	; 16
    1afe:	1d c0       	rjmp	.+58     	; 0x1b3a <vfprintf+0xd0>
    1b00:	8d 32       	cpi	r24, 0x2D	; 45
    1b02:	61 f0       	breq	.+24     	; 0x1b1c <vfprintf+0xb2>
    1b04:	80 33       	cpi	r24, 0x30	; 48
    1b06:	69 f4       	brne	.+26     	; 0x1b22 <vfprintf+0xb8>
    1b08:	23 2d       	mov	r18, r3
    1b0a:	21 60       	ori	r18, 0x01	; 1
    1b0c:	16 c0       	rjmp	.+44     	; 0x1b3a <vfprintf+0xd0>
    1b0e:	83 2d       	mov	r24, r3
    1b10:	82 60       	ori	r24, 0x02	; 2
    1b12:	38 2e       	mov	r3, r24
    1b14:	e3 2d       	mov	r30, r3
    1b16:	e4 60       	ori	r30, 0x04	; 4
    1b18:	3e 2e       	mov	r3, r30
    1b1a:	2a c0       	rjmp	.+84     	; 0x1b70 <vfprintf+0x106>
    1b1c:	f3 2d       	mov	r31, r3
    1b1e:	f8 60       	ori	r31, 0x08	; 8
    1b20:	1d c0       	rjmp	.+58     	; 0x1b5c <vfprintf+0xf2>
    1b22:	37 fc       	sbrc	r3, 7
    1b24:	2d c0       	rjmp	.+90     	; 0x1b80 <vfprintf+0x116>
    1b26:	20 ed       	ldi	r18, 0xD0	; 208
    1b28:	28 0f       	add	r18, r24
    1b2a:	2a 30       	cpi	r18, 0x0A	; 10
    1b2c:	40 f0       	brcs	.+16     	; 0x1b3e <vfprintf+0xd4>
    1b2e:	8e 32       	cpi	r24, 0x2E	; 46
    1b30:	b9 f4       	brne	.+46     	; 0x1b60 <vfprintf+0xf6>
    1b32:	36 fc       	sbrc	r3, 6
    1b34:	75 c1       	rjmp	.+746    	; 0x1e20 <vfprintf+0x3b6>
    1b36:	23 2d       	mov	r18, r3
    1b38:	20 64       	ori	r18, 0x40	; 64
    1b3a:	32 2e       	mov	r3, r18
    1b3c:	19 c0       	rjmp	.+50     	; 0x1b70 <vfprintf+0x106>
    1b3e:	36 fe       	sbrs	r3, 6
    1b40:	06 c0       	rjmp	.+12     	; 0x1b4e <vfprintf+0xe4>
    1b42:	8a e0       	ldi	r24, 0x0A	; 10
    1b44:	98 9e       	mul	r9, r24
    1b46:	20 0d       	add	r18, r0
    1b48:	11 24       	eor	r1, r1
    1b4a:	92 2e       	mov	r9, r18
    1b4c:	11 c0       	rjmp	.+34     	; 0x1b70 <vfprintf+0x106>
    1b4e:	ea e0       	ldi	r30, 0x0A	; 10
    1b50:	2e 9e       	mul	r2, r30
    1b52:	20 0d       	add	r18, r0
    1b54:	11 24       	eor	r1, r1
    1b56:	22 2e       	mov	r2, r18
    1b58:	f3 2d       	mov	r31, r3
    1b5a:	f0 62       	ori	r31, 0x20	; 32
    1b5c:	3f 2e       	mov	r3, r31
    1b5e:	08 c0       	rjmp	.+16     	; 0x1b70 <vfprintf+0x106>
    1b60:	8c 36       	cpi	r24, 0x6C	; 108
    1b62:	21 f4       	brne	.+8      	; 0x1b6c <vfprintf+0x102>
    1b64:	83 2d       	mov	r24, r3
    1b66:	80 68       	ori	r24, 0x80	; 128
    1b68:	38 2e       	mov	r3, r24
    1b6a:	02 c0       	rjmp	.+4      	; 0x1b70 <vfprintf+0x106>
    1b6c:	88 36       	cpi	r24, 0x68	; 104
    1b6e:	41 f4       	brne	.+16     	; 0x1b80 <vfprintf+0x116>
    1b70:	f7 01       	movw	r30, r14
    1b72:	93 fd       	sbrc	r25, 3
    1b74:	85 91       	lpm	r24, Z+
    1b76:	93 ff       	sbrs	r25, 3
    1b78:	81 91       	ld	r24, Z+
    1b7a:	7f 01       	movw	r14, r30
    1b7c:	81 11       	cpse	r24, r1
    1b7e:	b3 cf       	rjmp	.-154    	; 0x1ae6 <vfprintf+0x7c>
    1b80:	98 2f       	mov	r25, r24
    1b82:	9f 7d       	andi	r25, 0xDF	; 223
    1b84:	95 54       	subi	r25, 0x45	; 69
    1b86:	93 30       	cpi	r25, 0x03	; 3
    1b88:	28 f4       	brcc	.+10     	; 0x1b94 <vfprintf+0x12a>
    1b8a:	0c 5f       	subi	r16, 0xFC	; 252
    1b8c:	1f 4f       	sbci	r17, 0xFF	; 255
    1b8e:	9f e3       	ldi	r25, 0x3F	; 63
    1b90:	99 83       	std	Y+1, r25	; 0x01
    1b92:	0d c0       	rjmp	.+26     	; 0x1bae <vfprintf+0x144>
    1b94:	83 36       	cpi	r24, 0x63	; 99
    1b96:	31 f0       	breq	.+12     	; 0x1ba4 <vfprintf+0x13a>
    1b98:	83 37       	cpi	r24, 0x73	; 115
    1b9a:	71 f0       	breq	.+28     	; 0x1bb8 <vfprintf+0x14e>
    1b9c:	83 35       	cpi	r24, 0x53	; 83
    1b9e:	09 f0       	breq	.+2      	; 0x1ba2 <vfprintf+0x138>
    1ba0:	55 c0       	rjmp	.+170    	; 0x1c4c <vfprintf+0x1e2>
    1ba2:	20 c0       	rjmp	.+64     	; 0x1be4 <vfprintf+0x17a>
    1ba4:	f8 01       	movw	r30, r16
    1ba6:	80 81       	ld	r24, Z
    1ba8:	89 83       	std	Y+1, r24	; 0x01
    1baa:	0e 5f       	subi	r16, 0xFE	; 254
    1bac:	1f 4f       	sbci	r17, 0xFF	; 255
    1bae:	88 24       	eor	r8, r8
    1bb0:	83 94       	inc	r8
    1bb2:	91 2c       	mov	r9, r1
    1bb4:	53 01       	movw	r10, r6
    1bb6:	12 c0       	rjmp	.+36     	; 0x1bdc <vfprintf+0x172>
    1bb8:	28 01       	movw	r4, r16
    1bba:	f2 e0       	ldi	r31, 0x02	; 2
    1bbc:	4f 0e       	add	r4, r31
    1bbe:	51 1c       	adc	r5, r1
    1bc0:	f8 01       	movw	r30, r16
    1bc2:	a0 80       	ld	r10, Z
    1bc4:	b1 80       	ldd	r11, Z+1	; 0x01
    1bc6:	36 fe       	sbrs	r3, 6
    1bc8:	03 c0       	rjmp	.+6      	; 0x1bd0 <vfprintf+0x166>
    1bca:	69 2d       	mov	r22, r9
    1bcc:	70 e0       	ldi	r23, 0x00	; 0
    1bce:	02 c0       	rjmp	.+4      	; 0x1bd4 <vfprintf+0x16a>
    1bd0:	6f ef       	ldi	r22, 0xFF	; 255
    1bd2:	7f ef       	ldi	r23, 0xFF	; 255
    1bd4:	c5 01       	movw	r24, r10
    1bd6:	8d d2       	rcall	.+1306   	; 0x20f2 <strnlen>
    1bd8:	4c 01       	movw	r8, r24
    1bda:	82 01       	movw	r16, r4
    1bdc:	f3 2d       	mov	r31, r3
    1bde:	ff 77       	andi	r31, 0x7F	; 127
    1be0:	3f 2e       	mov	r3, r31
    1be2:	15 c0       	rjmp	.+42     	; 0x1c0e <vfprintf+0x1a4>
    1be4:	28 01       	movw	r4, r16
    1be6:	22 e0       	ldi	r18, 0x02	; 2
    1be8:	42 0e       	add	r4, r18
    1bea:	51 1c       	adc	r5, r1
    1bec:	f8 01       	movw	r30, r16
    1bee:	a0 80       	ld	r10, Z
    1bf0:	b1 80       	ldd	r11, Z+1	; 0x01
    1bf2:	36 fe       	sbrs	r3, 6
    1bf4:	03 c0       	rjmp	.+6      	; 0x1bfc <vfprintf+0x192>
    1bf6:	69 2d       	mov	r22, r9
    1bf8:	70 e0       	ldi	r23, 0x00	; 0
    1bfa:	02 c0       	rjmp	.+4      	; 0x1c00 <vfprintf+0x196>
    1bfc:	6f ef       	ldi	r22, 0xFF	; 255
    1bfe:	7f ef       	ldi	r23, 0xFF	; 255
    1c00:	c5 01       	movw	r24, r10
    1c02:	65 d2       	rcall	.+1226   	; 0x20ce <strnlen_P>
    1c04:	4c 01       	movw	r8, r24
    1c06:	f3 2d       	mov	r31, r3
    1c08:	f0 68       	ori	r31, 0x80	; 128
    1c0a:	3f 2e       	mov	r3, r31
    1c0c:	82 01       	movw	r16, r4
    1c0e:	33 fc       	sbrc	r3, 3
    1c10:	19 c0       	rjmp	.+50     	; 0x1c44 <vfprintf+0x1da>
    1c12:	82 2d       	mov	r24, r2
    1c14:	90 e0       	ldi	r25, 0x00	; 0
    1c16:	88 16       	cp	r8, r24
    1c18:	99 06       	cpc	r9, r25
    1c1a:	a0 f4       	brcc	.+40     	; 0x1c44 <vfprintf+0x1da>
    1c1c:	b6 01       	movw	r22, r12
    1c1e:	80 e2       	ldi	r24, 0x20	; 32
    1c20:	90 e0       	ldi	r25, 0x00	; 0
    1c22:	72 d2       	rcall	.+1252   	; 0x2108 <fputc>
    1c24:	2a 94       	dec	r2
    1c26:	f5 cf       	rjmp	.-22     	; 0x1c12 <vfprintf+0x1a8>
    1c28:	f5 01       	movw	r30, r10
    1c2a:	37 fc       	sbrc	r3, 7
    1c2c:	85 91       	lpm	r24, Z+
    1c2e:	37 fe       	sbrs	r3, 7
    1c30:	81 91       	ld	r24, Z+
    1c32:	5f 01       	movw	r10, r30
    1c34:	b6 01       	movw	r22, r12
    1c36:	90 e0       	ldi	r25, 0x00	; 0
    1c38:	67 d2       	rcall	.+1230   	; 0x2108 <fputc>
    1c3a:	21 10       	cpse	r2, r1
    1c3c:	2a 94       	dec	r2
    1c3e:	21 e0       	ldi	r18, 0x01	; 1
    1c40:	82 1a       	sub	r8, r18
    1c42:	91 08       	sbc	r9, r1
    1c44:	81 14       	cp	r8, r1
    1c46:	91 04       	cpc	r9, r1
    1c48:	79 f7       	brne	.-34     	; 0x1c28 <vfprintf+0x1be>
    1c4a:	e1 c0       	rjmp	.+450    	; 0x1e0e <vfprintf+0x3a4>
    1c4c:	84 36       	cpi	r24, 0x64	; 100
    1c4e:	11 f0       	breq	.+4      	; 0x1c54 <vfprintf+0x1ea>
    1c50:	89 36       	cpi	r24, 0x69	; 105
    1c52:	39 f5       	brne	.+78     	; 0x1ca2 <vfprintf+0x238>
    1c54:	f8 01       	movw	r30, r16
    1c56:	37 fe       	sbrs	r3, 7
    1c58:	07 c0       	rjmp	.+14     	; 0x1c68 <vfprintf+0x1fe>
    1c5a:	60 81       	ld	r22, Z
    1c5c:	71 81       	ldd	r23, Z+1	; 0x01
    1c5e:	82 81       	ldd	r24, Z+2	; 0x02
    1c60:	93 81       	ldd	r25, Z+3	; 0x03
    1c62:	0c 5f       	subi	r16, 0xFC	; 252
    1c64:	1f 4f       	sbci	r17, 0xFF	; 255
    1c66:	08 c0       	rjmp	.+16     	; 0x1c78 <vfprintf+0x20e>
    1c68:	60 81       	ld	r22, Z
    1c6a:	71 81       	ldd	r23, Z+1	; 0x01
    1c6c:	07 2e       	mov	r0, r23
    1c6e:	00 0c       	add	r0, r0
    1c70:	88 0b       	sbc	r24, r24
    1c72:	99 0b       	sbc	r25, r25
    1c74:	0e 5f       	subi	r16, 0xFE	; 254
    1c76:	1f 4f       	sbci	r17, 0xFF	; 255
    1c78:	f3 2d       	mov	r31, r3
    1c7a:	ff 76       	andi	r31, 0x6F	; 111
    1c7c:	3f 2e       	mov	r3, r31
    1c7e:	97 ff       	sbrs	r25, 7
    1c80:	09 c0       	rjmp	.+18     	; 0x1c94 <vfprintf+0x22a>
    1c82:	90 95       	com	r25
    1c84:	80 95       	com	r24
    1c86:	70 95       	com	r23
    1c88:	61 95       	neg	r22
    1c8a:	7f 4f       	sbci	r23, 0xFF	; 255
    1c8c:	8f 4f       	sbci	r24, 0xFF	; 255
    1c8e:	9f 4f       	sbci	r25, 0xFF	; 255
    1c90:	f0 68       	ori	r31, 0x80	; 128
    1c92:	3f 2e       	mov	r3, r31
    1c94:	2a e0       	ldi	r18, 0x0A	; 10
    1c96:	30 e0       	ldi	r19, 0x00	; 0
    1c98:	a3 01       	movw	r20, r6
    1c9a:	72 d2       	rcall	.+1252   	; 0x2180 <__ultoa_invert>
    1c9c:	88 2e       	mov	r8, r24
    1c9e:	86 18       	sub	r8, r6
    1ca0:	44 c0       	rjmp	.+136    	; 0x1d2a <vfprintf+0x2c0>
    1ca2:	85 37       	cpi	r24, 0x75	; 117
    1ca4:	31 f4       	brne	.+12     	; 0x1cb2 <vfprintf+0x248>
    1ca6:	23 2d       	mov	r18, r3
    1ca8:	2f 7e       	andi	r18, 0xEF	; 239
    1caa:	b2 2e       	mov	r11, r18
    1cac:	2a e0       	ldi	r18, 0x0A	; 10
    1cae:	30 e0       	ldi	r19, 0x00	; 0
    1cb0:	25 c0       	rjmp	.+74     	; 0x1cfc <vfprintf+0x292>
    1cb2:	93 2d       	mov	r25, r3
    1cb4:	99 7f       	andi	r25, 0xF9	; 249
    1cb6:	b9 2e       	mov	r11, r25
    1cb8:	8f 36       	cpi	r24, 0x6F	; 111
    1cba:	c1 f0       	breq	.+48     	; 0x1cec <vfprintf+0x282>
    1cbc:	18 f4       	brcc	.+6      	; 0x1cc4 <vfprintf+0x25a>
    1cbe:	88 35       	cpi	r24, 0x58	; 88
    1cc0:	79 f0       	breq	.+30     	; 0x1ce0 <vfprintf+0x276>
    1cc2:	ae c0       	rjmp	.+348    	; 0x1e20 <vfprintf+0x3b6>
    1cc4:	80 37       	cpi	r24, 0x70	; 112
    1cc6:	19 f0       	breq	.+6      	; 0x1cce <vfprintf+0x264>
    1cc8:	88 37       	cpi	r24, 0x78	; 120
    1cca:	21 f0       	breq	.+8      	; 0x1cd4 <vfprintf+0x26a>
    1ccc:	a9 c0       	rjmp	.+338    	; 0x1e20 <vfprintf+0x3b6>
    1cce:	e9 2f       	mov	r30, r25
    1cd0:	e0 61       	ori	r30, 0x10	; 16
    1cd2:	be 2e       	mov	r11, r30
    1cd4:	b4 fe       	sbrs	r11, 4
    1cd6:	0d c0       	rjmp	.+26     	; 0x1cf2 <vfprintf+0x288>
    1cd8:	fb 2d       	mov	r31, r11
    1cda:	f4 60       	ori	r31, 0x04	; 4
    1cdc:	bf 2e       	mov	r11, r31
    1cde:	09 c0       	rjmp	.+18     	; 0x1cf2 <vfprintf+0x288>
    1ce0:	34 fe       	sbrs	r3, 4
    1ce2:	0a c0       	rjmp	.+20     	; 0x1cf8 <vfprintf+0x28e>
    1ce4:	29 2f       	mov	r18, r25
    1ce6:	26 60       	ori	r18, 0x06	; 6
    1ce8:	b2 2e       	mov	r11, r18
    1cea:	06 c0       	rjmp	.+12     	; 0x1cf8 <vfprintf+0x28e>
    1cec:	28 e0       	ldi	r18, 0x08	; 8
    1cee:	30 e0       	ldi	r19, 0x00	; 0
    1cf0:	05 c0       	rjmp	.+10     	; 0x1cfc <vfprintf+0x292>
    1cf2:	20 e1       	ldi	r18, 0x10	; 16
    1cf4:	30 e0       	ldi	r19, 0x00	; 0
    1cf6:	02 c0       	rjmp	.+4      	; 0x1cfc <vfprintf+0x292>
    1cf8:	20 e1       	ldi	r18, 0x10	; 16
    1cfa:	32 e0       	ldi	r19, 0x02	; 2
    1cfc:	f8 01       	movw	r30, r16
    1cfe:	b7 fe       	sbrs	r11, 7
    1d00:	07 c0       	rjmp	.+14     	; 0x1d10 <vfprintf+0x2a6>
    1d02:	60 81       	ld	r22, Z
    1d04:	71 81       	ldd	r23, Z+1	; 0x01
    1d06:	82 81       	ldd	r24, Z+2	; 0x02
    1d08:	93 81       	ldd	r25, Z+3	; 0x03
    1d0a:	0c 5f       	subi	r16, 0xFC	; 252
    1d0c:	1f 4f       	sbci	r17, 0xFF	; 255
    1d0e:	06 c0       	rjmp	.+12     	; 0x1d1c <vfprintf+0x2b2>
    1d10:	60 81       	ld	r22, Z
    1d12:	71 81       	ldd	r23, Z+1	; 0x01
    1d14:	80 e0       	ldi	r24, 0x00	; 0
    1d16:	90 e0       	ldi	r25, 0x00	; 0
    1d18:	0e 5f       	subi	r16, 0xFE	; 254
    1d1a:	1f 4f       	sbci	r17, 0xFF	; 255
    1d1c:	a3 01       	movw	r20, r6
    1d1e:	30 d2       	rcall	.+1120   	; 0x2180 <__ultoa_invert>
    1d20:	88 2e       	mov	r8, r24
    1d22:	86 18       	sub	r8, r6
    1d24:	fb 2d       	mov	r31, r11
    1d26:	ff 77       	andi	r31, 0x7F	; 127
    1d28:	3f 2e       	mov	r3, r31
    1d2a:	36 fe       	sbrs	r3, 6
    1d2c:	0d c0       	rjmp	.+26     	; 0x1d48 <vfprintf+0x2de>
    1d2e:	23 2d       	mov	r18, r3
    1d30:	2e 7f       	andi	r18, 0xFE	; 254
    1d32:	a2 2e       	mov	r10, r18
    1d34:	89 14       	cp	r8, r9
    1d36:	58 f4       	brcc	.+22     	; 0x1d4e <vfprintf+0x2e4>
    1d38:	34 fe       	sbrs	r3, 4
    1d3a:	0b c0       	rjmp	.+22     	; 0x1d52 <vfprintf+0x2e8>
    1d3c:	32 fc       	sbrc	r3, 2
    1d3e:	09 c0       	rjmp	.+18     	; 0x1d52 <vfprintf+0x2e8>
    1d40:	83 2d       	mov	r24, r3
    1d42:	8e 7e       	andi	r24, 0xEE	; 238
    1d44:	a8 2e       	mov	r10, r24
    1d46:	05 c0       	rjmp	.+10     	; 0x1d52 <vfprintf+0x2e8>
    1d48:	b8 2c       	mov	r11, r8
    1d4a:	a3 2c       	mov	r10, r3
    1d4c:	03 c0       	rjmp	.+6      	; 0x1d54 <vfprintf+0x2ea>
    1d4e:	b8 2c       	mov	r11, r8
    1d50:	01 c0       	rjmp	.+2      	; 0x1d54 <vfprintf+0x2ea>
    1d52:	b9 2c       	mov	r11, r9
    1d54:	a4 fe       	sbrs	r10, 4
    1d56:	0f c0       	rjmp	.+30     	; 0x1d76 <vfprintf+0x30c>
    1d58:	fe 01       	movw	r30, r28
    1d5a:	e8 0d       	add	r30, r8
    1d5c:	f1 1d       	adc	r31, r1
    1d5e:	80 81       	ld	r24, Z
    1d60:	80 33       	cpi	r24, 0x30	; 48
    1d62:	21 f4       	brne	.+8      	; 0x1d6c <vfprintf+0x302>
    1d64:	9a 2d       	mov	r25, r10
    1d66:	99 7e       	andi	r25, 0xE9	; 233
    1d68:	a9 2e       	mov	r10, r25
    1d6a:	09 c0       	rjmp	.+18     	; 0x1d7e <vfprintf+0x314>
    1d6c:	a2 fe       	sbrs	r10, 2
    1d6e:	06 c0       	rjmp	.+12     	; 0x1d7c <vfprintf+0x312>
    1d70:	b3 94       	inc	r11
    1d72:	b3 94       	inc	r11
    1d74:	04 c0       	rjmp	.+8      	; 0x1d7e <vfprintf+0x314>
    1d76:	8a 2d       	mov	r24, r10
    1d78:	86 78       	andi	r24, 0x86	; 134
    1d7a:	09 f0       	breq	.+2      	; 0x1d7e <vfprintf+0x314>
    1d7c:	b3 94       	inc	r11
    1d7e:	a3 fc       	sbrc	r10, 3
    1d80:	10 c0       	rjmp	.+32     	; 0x1da2 <vfprintf+0x338>
    1d82:	a0 fe       	sbrs	r10, 0
    1d84:	06 c0       	rjmp	.+12     	; 0x1d92 <vfprintf+0x328>
    1d86:	b2 14       	cp	r11, r2
    1d88:	80 f4       	brcc	.+32     	; 0x1daa <vfprintf+0x340>
    1d8a:	28 0c       	add	r2, r8
    1d8c:	92 2c       	mov	r9, r2
    1d8e:	9b 18       	sub	r9, r11
    1d90:	0d c0       	rjmp	.+26     	; 0x1dac <vfprintf+0x342>
    1d92:	b2 14       	cp	r11, r2
    1d94:	58 f4       	brcc	.+22     	; 0x1dac <vfprintf+0x342>
    1d96:	b6 01       	movw	r22, r12
    1d98:	80 e2       	ldi	r24, 0x20	; 32
    1d9a:	90 e0       	ldi	r25, 0x00	; 0
    1d9c:	b5 d1       	rcall	.+874    	; 0x2108 <fputc>
    1d9e:	b3 94       	inc	r11
    1da0:	f8 cf       	rjmp	.-16     	; 0x1d92 <vfprintf+0x328>
    1da2:	b2 14       	cp	r11, r2
    1da4:	18 f4       	brcc	.+6      	; 0x1dac <vfprintf+0x342>
    1da6:	2b 18       	sub	r2, r11
    1da8:	02 c0       	rjmp	.+4      	; 0x1dae <vfprintf+0x344>
    1daa:	98 2c       	mov	r9, r8
    1dac:	21 2c       	mov	r2, r1
    1dae:	a4 fe       	sbrs	r10, 4
    1db0:	0f c0       	rjmp	.+30     	; 0x1dd0 <vfprintf+0x366>
    1db2:	b6 01       	movw	r22, r12
    1db4:	80 e3       	ldi	r24, 0x30	; 48
    1db6:	90 e0       	ldi	r25, 0x00	; 0
    1db8:	a7 d1       	rcall	.+846    	; 0x2108 <fputc>
    1dba:	a2 fe       	sbrs	r10, 2
    1dbc:	16 c0       	rjmp	.+44     	; 0x1dea <vfprintf+0x380>
    1dbe:	a1 fc       	sbrc	r10, 1
    1dc0:	03 c0       	rjmp	.+6      	; 0x1dc8 <vfprintf+0x35e>
    1dc2:	88 e7       	ldi	r24, 0x78	; 120
    1dc4:	90 e0       	ldi	r25, 0x00	; 0
    1dc6:	02 c0       	rjmp	.+4      	; 0x1dcc <vfprintf+0x362>
    1dc8:	88 e5       	ldi	r24, 0x58	; 88
    1dca:	90 e0       	ldi	r25, 0x00	; 0
    1dcc:	b6 01       	movw	r22, r12
    1dce:	0c c0       	rjmp	.+24     	; 0x1de8 <vfprintf+0x37e>
    1dd0:	8a 2d       	mov	r24, r10
    1dd2:	86 78       	andi	r24, 0x86	; 134
    1dd4:	51 f0       	breq	.+20     	; 0x1dea <vfprintf+0x380>
    1dd6:	a1 fe       	sbrs	r10, 1
    1dd8:	02 c0       	rjmp	.+4      	; 0x1dde <vfprintf+0x374>
    1dda:	8b e2       	ldi	r24, 0x2B	; 43
    1ddc:	01 c0       	rjmp	.+2      	; 0x1de0 <vfprintf+0x376>
    1dde:	80 e2       	ldi	r24, 0x20	; 32
    1de0:	a7 fc       	sbrc	r10, 7
    1de2:	8d e2       	ldi	r24, 0x2D	; 45
    1de4:	b6 01       	movw	r22, r12
    1de6:	90 e0       	ldi	r25, 0x00	; 0
    1de8:	8f d1       	rcall	.+798    	; 0x2108 <fputc>
    1dea:	89 14       	cp	r8, r9
    1dec:	30 f4       	brcc	.+12     	; 0x1dfa <vfprintf+0x390>
    1dee:	b6 01       	movw	r22, r12
    1df0:	80 e3       	ldi	r24, 0x30	; 48
    1df2:	90 e0       	ldi	r25, 0x00	; 0
    1df4:	89 d1       	rcall	.+786    	; 0x2108 <fputc>
    1df6:	9a 94       	dec	r9
    1df8:	f8 cf       	rjmp	.-16     	; 0x1dea <vfprintf+0x380>
    1dfa:	8a 94       	dec	r8
    1dfc:	f3 01       	movw	r30, r6
    1dfe:	e8 0d       	add	r30, r8
    1e00:	f1 1d       	adc	r31, r1
    1e02:	80 81       	ld	r24, Z
    1e04:	b6 01       	movw	r22, r12
    1e06:	90 e0       	ldi	r25, 0x00	; 0
    1e08:	7f d1       	rcall	.+766    	; 0x2108 <fputc>
    1e0a:	81 10       	cpse	r8, r1
    1e0c:	f6 cf       	rjmp	.-20     	; 0x1dfa <vfprintf+0x390>
    1e0e:	22 20       	and	r2, r2
    1e10:	09 f4       	brne	.+2      	; 0x1e14 <vfprintf+0x3aa>
    1e12:	4e ce       	rjmp	.-868    	; 0x1ab0 <vfprintf+0x46>
    1e14:	b6 01       	movw	r22, r12
    1e16:	80 e2       	ldi	r24, 0x20	; 32
    1e18:	90 e0       	ldi	r25, 0x00	; 0
    1e1a:	76 d1       	rcall	.+748    	; 0x2108 <fputc>
    1e1c:	2a 94       	dec	r2
    1e1e:	f7 cf       	rjmp	.-18     	; 0x1e0e <vfprintf+0x3a4>
    1e20:	f6 01       	movw	r30, r12
    1e22:	86 81       	ldd	r24, Z+6	; 0x06
    1e24:	97 81       	ldd	r25, Z+7	; 0x07
    1e26:	02 c0       	rjmp	.+4      	; 0x1e2c <vfprintf+0x3c2>
    1e28:	8f ef       	ldi	r24, 0xFF	; 255
    1e2a:	9f ef       	ldi	r25, 0xFF	; 255
    1e2c:	2b 96       	adiw	r28, 0x0b	; 11
    1e2e:	cd bf       	out	0x3d, r28	; 61
    1e30:	de bf       	out	0x3e, r29	; 62
    1e32:	df 91       	pop	r29
    1e34:	cf 91       	pop	r28
    1e36:	1f 91       	pop	r17
    1e38:	0f 91       	pop	r16
    1e3a:	ff 90       	pop	r15
    1e3c:	ef 90       	pop	r14
    1e3e:	df 90       	pop	r13
    1e40:	cf 90       	pop	r12
    1e42:	bf 90       	pop	r11
    1e44:	af 90       	pop	r10
    1e46:	9f 90       	pop	r9
    1e48:	8f 90       	pop	r8
    1e4a:	7f 90       	pop	r7
    1e4c:	6f 90       	pop	r6
    1e4e:	5f 90       	pop	r5
    1e50:	4f 90       	pop	r4
    1e52:	3f 90       	pop	r3
    1e54:	2f 90       	pop	r2
    1e56:	08 95       	ret

00001e58 <calloc>:
    1e58:	0f 93       	push	r16
    1e5a:	1f 93       	push	r17
    1e5c:	cf 93       	push	r28
    1e5e:	df 93       	push	r29
    1e60:	86 9f       	mul	r24, r22
    1e62:	80 01       	movw	r16, r0
    1e64:	87 9f       	mul	r24, r23
    1e66:	10 0d       	add	r17, r0
    1e68:	96 9f       	mul	r25, r22
    1e6a:	10 0d       	add	r17, r0
    1e6c:	11 24       	eor	r1, r1
    1e6e:	c8 01       	movw	r24, r16
    1e70:	0d d0       	rcall	.+26     	; 0x1e8c <malloc>
    1e72:	ec 01       	movw	r28, r24
    1e74:	00 97       	sbiw	r24, 0x00	; 0
    1e76:	21 f0       	breq	.+8      	; 0x1e80 <calloc+0x28>
    1e78:	a8 01       	movw	r20, r16
    1e7a:	60 e0       	ldi	r22, 0x00	; 0
    1e7c:	70 e0       	ldi	r23, 0x00	; 0
    1e7e:	32 d1       	rcall	.+612    	; 0x20e4 <memset>
    1e80:	ce 01       	movw	r24, r28
    1e82:	df 91       	pop	r29
    1e84:	cf 91       	pop	r28
    1e86:	1f 91       	pop	r17
    1e88:	0f 91       	pop	r16
    1e8a:	08 95       	ret

00001e8c <malloc>:
    1e8c:	0f 93       	push	r16
    1e8e:	1f 93       	push	r17
    1e90:	cf 93       	push	r28
    1e92:	df 93       	push	r29
    1e94:	82 30       	cpi	r24, 0x02	; 2
    1e96:	91 05       	cpc	r25, r1
    1e98:	10 f4       	brcc	.+4      	; 0x1e9e <malloc+0x12>
    1e9a:	82 e0       	ldi	r24, 0x02	; 2
    1e9c:	90 e0       	ldi	r25, 0x00	; 0
    1e9e:	e0 91 8b 20 	lds	r30, 0x208B	; 0x80208b <__flp>
    1ea2:	f0 91 8c 20 	lds	r31, 0x208C	; 0x80208c <__flp+0x1>
    1ea6:	20 e0       	ldi	r18, 0x00	; 0
    1ea8:	30 e0       	ldi	r19, 0x00	; 0
    1eaa:	a0 e0       	ldi	r26, 0x00	; 0
    1eac:	b0 e0       	ldi	r27, 0x00	; 0
    1eae:	30 97       	sbiw	r30, 0x00	; 0
    1eb0:	19 f1       	breq	.+70     	; 0x1ef8 <malloc+0x6c>
    1eb2:	40 81       	ld	r20, Z
    1eb4:	51 81       	ldd	r21, Z+1	; 0x01
    1eb6:	02 81       	ldd	r16, Z+2	; 0x02
    1eb8:	13 81       	ldd	r17, Z+3	; 0x03
    1eba:	48 17       	cp	r20, r24
    1ebc:	59 07       	cpc	r21, r25
    1ebe:	c8 f0       	brcs	.+50     	; 0x1ef2 <malloc+0x66>
    1ec0:	84 17       	cp	r24, r20
    1ec2:	95 07       	cpc	r25, r21
    1ec4:	69 f4       	brne	.+26     	; 0x1ee0 <malloc+0x54>
    1ec6:	10 97       	sbiw	r26, 0x00	; 0
    1ec8:	31 f0       	breq	.+12     	; 0x1ed6 <malloc+0x4a>
    1eca:	12 96       	adiw	r26, 0x02	; 2
    1ecc:	0c 93       	st	X, r16
    1ece:	12 97       	sbiw	r26, 0x02	; 2
    1ed0:	13 96       	adiw	r26, 0x03	; 3
    1ed2:	1c 93       	st	X, r17
    1ed4:	27 c0       	rjmp	.+78     	; 0x1f24 <malloc+0x98>
    1ed6:	00 93 8b 20 	sts	0x208B, r16	; 0x80208b <__flp>
    1eda:	10 93 8c 20 	sts	0x208C, r17	; 0x80208c <__flp+0x1>
    1ede:	22 c0       	rjmp	.+68     	; 0x1f24 <malloc+0x98>
    1ee0:	21 15       	cp	r18, r1
    1ee2:	31 05       	cpc	r19, r1
    1ee4:	19 f0       	breq	.+6      	; 0x1eec <malloc+0x60>
    1ee6:	42 17       	cp	r20, r18
    1ee8:	53 07       	cpc	r21, r19
    1eea:	18 f4       	brcc	.+6      	; 0x1ef2 <malloc+0x66>
    1eec:	9a 01       	movw	r18, r20
    1eee:	bd 01       	movw	r22, r26
    1ef0:	ef 01       	movw	r28, r30
    1ef2:	df 01       	movw	r26, r30
    1ef4:	f8 01       	movw	r30, r16
    1ef6:	db cf       	rjmp	.-74     	; 0x1eae <malloc+0x22>
    1ef8:	21 15       	cp	r18, r1
    1efa:	31 05       	cpc	r19, r1
    1efc:	f9 f0       	breq	.+62     	; 0x1f3c <malloc+0xb0>
    1efe:	28 1b       	sub	r18, r24
    1f00:	39 0b       	sbc	r19, r25
    1f02:	24 30       	cpi	r18, 0x04	; 4
    1f04:	31 05       	cpc	r19, r1
    1f06:	80 f4       	brcc	.+32     	; 0x1f28 <malloc+0x9c>
    1f08:	8a 81       	ldd	r24, Y+2	; 0x02
    1f0a:	9b 81       	ldd	r25, Y+3	; 0x03
    1f0c:	61 15       	cp	r22, r1
    1f0e:	71 05       	cpc	r23, r1
    1f10:	21 f0       	breq	.+8      	; 0x1f1a <malloc+0x8e>
    1f12:	fb 01       	movw	r30, r22
    1f14:	82 83       	std	Z+2, r24	; 0x02
    1f16:	93 83       	std	Z+3, r25	; 0x03
    1f18:	04 c0       	rjmp	.+8      	; 0x1f22 <malloc+0x96>
    1f1a:	80 93 8b 20 	sts	0x208B, r24	; 0x80208b <__flp>
    1f1e:	90 93 8c 20 	sts	0x208C, r25	; 0x80208c <__flp+0x1>
    1f22:	fe 01       	movw	r30, r28
    1f24:	32 96       	adiw	r30, 0x02	; 2
    1f26:	44 c0       	rjmp	.+136    	; 0x1fb0 <malloc+0x124>
    1f28:	fe 01       	movw	r30, r28
    1f2a:	e2 0f       	add	r30, r18
    1f2c:	f3 1f       	adc	r31, r19
    1f2e:	81 93       	st	Z+, r24
    1f30:	91 93       	st	Z+, r25
    1f32:	22 50       	subi	r18, 0x02	; 2
    1f34:	31 09       	sbc	r19, r1
    1f36:	28 83       	st	Y, r18
    1f38:	39 83       	std	Y+1, r19	; 0x01
    1f3a:	3a c0       	rjmp	.+116    	; 0x1fb0 <malloc+0x124>
    1f3c:	20 91 89 20 	lds	r18, 0x2089	; 0x802089 <__brkval>
    1f40:	30 91 8a 20 	lds	r19, 0x208A	; 0x80208a <__brkval+0x1>
    1f44:	23 2b       	or	r18, r19
    1f46:	41 f4       	brne	.+16     	; 0x1f58 <malloc+0xcc>
    1f48:	20 91 02 20 	lds	r18, 0x2002	; 0x802002 <__malloc_heap_start>
    1f4c:	30 91 03 20 	lds	r19, 0x2003	; 0x802003 <__malloc_heap_start+0x1>
    1f50:	20 93 89 20 	sts	0x2089, r18	; 0x802089 <__brkval>
    1f54:	30 93 8a 20 	sts	0x208A, r19	; 0x80208a <__brkval+0x1>
    1f58:	20 91 00 20 	lds	r18, 0x2000	; 0x802000 <__data_start>
    1f5c:	30 91 01 20 	lds	r19, 0x2001	; 0x802001 <__data_start+0x1>
    1f60:	21 15       	cp	r18, r1
    1f62:	31 05       	cpc	r19, r1
    1f64:	41 f4       	brne	.+16     	; 0x1f76 <malloc+0xea>
    1f66:	2d b7       	in	r18, 0x3d	; 61
    1f68:	3e b7       	in	r19, 0x3e	; 62
    1f6a:	40 91 04 20 	lds	r20, 0x2004	; 0x802004 <__malloc_margin>
    1f6e:	50 91 05 20 	lds	r21, 0x2005	; 0x802005 <__malloc_margin+0x1>
    1f72:	24 1b       	sub	r18, r20
    1f74:	35 0b       	sbc	r19, r21
    1f76:	e0 91 89 20 	lds	r30, 0x2089	; 0x802089 <__brkval>
    1f7a:	f0 91 8a 20 	lds	r31, 0x208A	; 0x80208a <__brkval+0x1>
    1f7e:	e2 17       	cp	r30, r18
    1f80:	f3 07       	cpc	r31, r19
    1f82:	a0 f4       	brcc	.+40     	; 0x1fac <malloc+0x120>
    1f84:	2e 1b       	sub	r18, r30
    1f86:	3f 0b       	sbc	r19, r31
    1f88:	28 17       	cp	r18, r24
    1f8a:	39 07       	cpc	r19, r25
    1f8c:	78 f0       	brcs	.+30     	; 0x1fac <malloc+0x120>
    1f8e:	ac 01       	movw	r20, r24
    1f90:	4e 5f       	subi	r20, 0xFE	; 254
    1f92:	5f 4f       	sbci	r21, 0xFF	; 255
    1f94:	24 17       	cp	r18, r20
    1f96:	35 07       	cpc	r19, r21
    1f98:	48 f0       	brcs	.+18     	; 0x1fac <malloc+0x120>
    1f9a:	4e 0f       	add	r20, r30
    1f9c:	5f 1f       	adc	r21, r31
    1f9e:	40 93 89 20 	sts	0x2089, r20	; 0x802089 <__brkval>
    1fa2:	50 93 8a 20 	sts	0x208A, r21	; 0x80208a <__brkval+0x1>
    1fa6:	81 93       	st	Z+, r24
    1fa8:	91 93       	st	Z+, r25
    1faa:	02 c0       	rjmp	.+4      	; 0x1fb0 <malloc+0x124>
    1fac:	e0 e0       	ldi	r30, 0x00	; 0
    1fae:	f0 e0       	ldi	r31, 0x00	; 0
    1fb0:	cf 01       	movw	r24, r30
    1fb2:	df 91       	pop	r29
    1fb4:	cf 91       	pop	r28
    1fb6:	1f 91       	pop	r17
    1fb8:	0f 91       	pop	r16
    1fba:	08 95       	ret

00001fbc <free>:
    1fbc:	cf 93       	push	r28
    1fbe:	df 93       	push	r29
    1fc0:	00 97       	sbiw	r24, 0x00	; 0
    1fc2:	09 f4       	brne	.+2      	; 0x1fc6 <free+0xa>
    1fc4:	81 c0       	rjmp	.+258    	; 0x20c8 <free+0x10c>
    1fc6:	fc 01       	movw	r30, r24
    1fc8:	32 97       	sbiw	r30, 0x02	; 2
    1fca:	12 82       	std	Z+2, r1	; 0x02
    1fcc:	13 82       	std	Z+3, r1	; 0x03
    1fce:	a0 91 8b 20 	lds	r26, 0x208B	; 0x80208b <__flp>
    1fd2:	b0 91 8c 20 	lds	r27, 0x208C	; 0x80208c <__flp+0x1>
    1fd6:	10 97       	sbiw	r26, 0x00	; 0
    1fd8:	81 f4       	brne	.+32     	; 0x1ffa <free+0x3e>
    1fda:	20 81       	ld	r18, Z
    1fdc:	31 81       	ldd	r19, Z+1	; 0x01
    1fde:	82 0f       	add	r24, r18
    1fe0:	93 1f       	adc	r25, r19
    1fe2:	20 91 89 20 	lds	r18, 0x2089	; 0x802089 <__brkval>
    1fe6:	30 91 8a 20 	lds	r19, 0x208A	; 0x80208a <__brkval+0x1>
    1fea:	28 17       	cp	r18, r24
    1fec:	39 07       	cpc	r19, r25
    1fee:	51 f5       	brne	.+84     	; 0x2044 <free+0x88>
    1ff0:	e0 93 89 20 	sts	0x2089, r30	; 0x802089 <__brkval>
    1ff4:	f0 93 8a 20 	sts	0x208A, r31	; 0x80208a <__brkval+0x1>
    1ff8:	67 c0       	rjmp	.+206    	; 0x20c8 <free+0x10c>
    1ffa:	ed 01       	movw	r28, r26
    1ffc:	20 e0       	ldi	r18, 0x00	; 0
    1ffe:	30 e0       	ldi	r19, 0x00	; 0
    2000:	ce 17       	cp	r28, r30
    2002:	df 07       	cpc	r29, r31
    2004:	40 f4       	brcc	.+16     	; 0x2016 <free+0x5a>
    2006:	4a 81       	ldd	r20, Y+2	; 0x02
    2008:	5b 81       	ldd	r21, Y+3	; 0x03
    200a:	9e 01       	movw	r18, r28
    200c:	41 15       	cp	r20, r1
    200e:	51 05       	cpc	r21, r1
    2010:	f1 f0       	breq	.+60     	; 0x204e <free+0x92>
    2012:	ea 01       	movw	r28, r20
    2014:	f5 cf       	rjmp	.-22     	; 0x2000 <free+0x44>
    2016:	c2 83       	std	Z+2, r28	; 0x02
    2018:	d3 83       	std	Z+3, r29	; 0x03
    201a:	40 81       	ld	r20, Z
    201c:	51 81       	ldd	r21, Z+1	; 0x01
    201e:	84 0f       	add	r24, r20
    2020:	95 1f       	adc	r25, r21
    2022:	c8 17       	cp	r28, r24
    2024:	d9 07       	cpc	r29, r25
    2026:	59 f4       	brne	.+22     	; 0x203e <free+0x82>
    2028:	88 81       	ld	r24, Y
    202a:	99 81       	ldd	r25, Y+1	; 0x01
    202c:	84 0f       	add	r24, r20
    202e:	95 1f       	adc	r25, r21
    2030:	02 96       	adiw	r24, 0x02	; 2
    2032:	80 83       	st	Z, r24
    2034:	91 83       	std	Z+1, r25	; 0x01
    2036:	8a 81       	ldd	r24, Y+2	; 0x02
    2038:	9b 81       	ldd	r25, Y+3	; 0x03
    203a:	82 83       	std	Z+2, r24	; 0x02
    203c:	93 83       	std	Z+3, r25	; 0x03
    203e:	21 15       	cp	r18, r1
    2040:	31 05       	cpc	r19, r1
    2042:	29 f4       	brne	.+10     	; 0x204e <free+0x92>
    2044:	e0 93 8b 20 	sts	0x208B, r30	; 0x80208b <__flp>
    2048:	f0 93 8c 20 	sts	0x208C, r31	; 0x80208c <__flp+0x1>
    204c:	3d c0       	rjmp	.+122    	; 0x20c8 <free+0x10c>
    204e:	e9 01       	movw	r28, r18
    2050:	ea 83       	std	Y+2, r30	; 0x02
    2052:	fb 83       	std	Y+3, r31	; 0x03
    2054:	49 91       	ld	r20, Y+
    2056:	59 91       	ld	r21, Y+
    2058:	c4 0f       	add	r28, r20
    205a:	d5 1f       	adc	r29, r21
    205c:	ec 17       	cp	r30, r28
    205e:	fd 07       	cpc	r31, r29
    2060:	61 f4       	brne	.+24     	; 0x207a <free+0xbe>
    2062:	80 81       	ld	r24, Z
    2064:	91 81       	ldd	r25, Z+1	; 0x01
    2066:	84 0f       	add	r24, r20
    2068:	95 1f       	adc	r25, r21
    206a:	02 96       	adiw	r24, 0x02	; 2
    206c:	e9 01       	movw	r28, r18
    206e:	88 83       	st	Y, r24
    2070:	99 83       	std	Y+1, r25	; 0x01
    2072:	82 81       	ldd	r24, Z+2	; 0x02
    2074:	93 81       	ldd	r25, Z+3	; 0x03
    2076:	8a 83       	std	Y+2, r24	; 0x02
    2078:	9b 83       	std	Y+3, r25	; 0x03
    207a:	e0 e0       	ldi	r30, 0x00	; 0
    207c:	f0 e0       	ldi	r31, 0x00	; 0
    207e:	12 96       	adiw	r26, 0x02	; 2
    2080:	8d 91       	ld	r24, X+
    2082:	9c 91       	ld	r25, X
    2084:	13 97       	sbiw	r26, 0x03	; 3
    2086:	00 97       	sbiw	r24, 0x00	; 0
    2088:	19 f0       	breq	.+6      	; 0x2090 <free+0xd4>
    208a:	fd 01       	movw	r30, r26
    208c:	dc 01       	movw	r26, r24
    208e:	f7 cf       	rjmp	.-18     	; 0x207e <free+0xc2>
    2090:	8d 91       	ld	r24, X+
    2092:	9c 91       	ld	r25, X
    2094:	11 97       	sbiw	r26, 0x01	; 1
    2096:	9d 01       	movw	r18, r26
    2098:	2e 5f       	subi	r18, 0xFE	; 254
    209a:	3f 4f       	sbci	r19, 0xFF	; 255
    209c:	82 0f       	add	r24, r18
    209e:	93 1f       	adc	r25, r19
    20a0:	20 91 89 20 	lds	r18, 0x2089	; 0x802089 <__brkval>
    20a4:	30 91 8a 20 	lds	r19, 0x208A	; 0x80208a <__brkval+0x1>
    20a8:	28 17       	cp	r18, r24
    20aa:	39 07       	cpc	r19, r25
    20ac:	69 f4       	brne	.+26     	; 0x20c8 <free+0x10c>
    20ae:	30 97       	sbiw	r30, 0x00	; 0
    20b0:	29 f4       	brne	.+10     	; 0x20bc <free+0x100>
    20b2:	10 92 8b 20 	sts	0x208B, r1	; 0x80208b <__flp>
    20b6:	10 92 8c 20 	sts	0x208C, r1	; 0x80208c <__flp+0x1>
    20ba:	02 c0       	rjmp	.+4      	; 0x20c0 <free+0x104>
    20bc:	12 82       	std	Z+2, r1	; 0x02
    20be:	13 82       	std	Z+3, r1	; 0x03
    20c0:	a0 93 89 20 	sts	0x2089, r26	; 0x802089 <__brkval>
    20c4:	b0 93 8a 20 	sts	0x208A, r27	; 0x80208a <__brkval+0x1>
    20c8:	df 91       	pop	r29
    20ca:	cf 91       	pop	r28
    20cc:	08 95       	ret

000020ce <strnlen_P>:
    20ce:	fc 01       	movw	r30, r24
    20d0:	05 90       	lpm	r0, Z+
    20d2:	61 50       	subi	r22, 0x01	; 1
    20d4:	70 40       	sbci	r23, 0x00	; 0
    20d6:	01 10       	cpse	r0, r1
    20d8:	d8 f7       	brcc	.-10     	; 0x20d0 <strnlen_P+0x2>
    20da:	80 95       	com	r24
    20dc:	90 95       	com	r25
    20de:	8e 0f       	add	r24, r30
    20e0:	9f 1f       	adc	r25, r31
    20e2:	08 95       	ret

000020e4 <memset>:
    20e4:	dc 01       	movw	r26, r24
    20e6:	01 c0       	rjmp	.+2      	; 0x20ea <memset+0x6>
    20e8:	6d 93       	st	X+, r22
    20ea:	41 50       	subi	r20, 0x01	; 1
    20ec:	50 40       	sbci	r21, 0x00	; 0
    20ee:	e0 f7       	brcc	.-8      	; 0x20e8 <memset+0x4>
    20f0:	08 95       	ret

000020f2 <strnlen>:
    20f2:	fc 01       	movw	r30, r24
    20f4:	61 50       	subi	r22, 0x01	; 1
    20f6:	70 40       	sbci	r23, 0x00	; 0
    20f8:	01 90       	ld	r0, Z+
    20fa:	01 10       	cpse	r0, r1
    20fc:	d8 f7       	brcc	.-10     	; 0x20f4 <strnlen+0x2>
    20fe:	80 95       	com	r24
    2100:	90 95       	com	r25
    2102:	8e 0f       	add	r24, r30
    2104:	9f 1f       	adc	r25, r31
    2106:	08 95       	ret

00002108 <fputc>:
    2108:	0f 93       	push	r16
    210a:	1f 93       	push	r17
    210c:	cf 93       	push	r28
    210e:	df 93       	push	r29
    2110:	fb 01       	movw	r30, r22
    2112:	23 81       	ldd	r18, Z+3	; 0x03
    2114:	21 fd       	sbrc	r18, 1
    2116:	03 c0       	rjmp	.+6      	; 0x211e <fputc+0x16>
    2118:	8f ef       	ldi	r24, 0xFF	; 255
    211a:	9f ef       	ldi	r25, 0xFF	; 255
    211c:	2c c0       	rjmp	.+88     	; 0x2176 <fputc+0x6e>
    211e:	22 ff       	sbrs	r18, 2
    2120:	16 c0       	rjmp	.+44     	; 0x214e <fputc+0x46>
    2122:	46 81       	ldd	r20, Z+6	; 0x06
    2124:	57 81       	ldd	r21, Z+7	; 0x07
    2126:	24 81       	ldd	r18, Z+4	; 0x04
    2128:	35 81       	ldd	r19, Z+5	; 0x05
    212a:	42 17       	cp	r20, r18
    212c:	53 07       	cpc	r21, r19
    212e:	44 f4       	brge	.+16     	; 0x2140 <fputc+0x38>
    2130:	a0 81       	ld	r26, Z
    2132:	b1 81       	ldd	r27, Z+1	; 0x01
    2134:	9d 01       	movw	r18, r26
    2136:	2f 5f       	subi	r18, 0xFF	; 255
    2138:	3f 4f       	sbci	r19, 0xFF	; 255
    213a:	20 83       	st	Z, r18
    213c:	31 83       	std	Z+1, r19	; 0x01
    213e:	8c 93       	st	X, r24
    2140:	26 81       	ldd	r18, Z+6	; 0x06
    2142:	37 81       	ldd	r19, Z+7	; 0x07
    2144:	2f 5f       	subi	r18, 0xFF	; 255
    2146:	3f 4f       	sbci	r19, 0xFF	; 255
    2148:	26 83       	std	Z+6, r18	; 0x06
    214a:	37 83       	std	Z+7, r19	; 0x07
    214c:	14 c0       	rjmp	.+40     	; 0x2176 <fputc+0x6e>
    214e:	8b 01       	movw	r16, r22
    2150:	ec 01       	movw	r28, r24
    2152:	fb 01       	movw	r30, r22
    2154:	00 84       	ldd	r0, Z+8	; 0x08
    2156:	f1 85       	ldd	r31, Z+9	; 0x09
    2158:	e0 2d       	mov	r30, r0
    215a:	19 95       	eicall
    215c:	89 2b       	or	r24, r25
    215e:	e1 f6       	brne	.-72     	; 0x2118 <fputc+0x10>
    2160:	d8 01       	movw	r26, r16
    2162:	16 96       	adiw	r26, 0x06	; 6
    2164:	8d 91       	ld	r24, X+
    2166:	9c 91       	ld	r25, X
    2168:	17 97       	sbiw	r26, 0x07	; 7
    216a:	01 96       	adiw	r24, 0x01	; 1
    216c:	16 96       	adiw	r26, 0x06	; 6
    216e:	8d 93       	st	X+, r24
    2170:	9c 93       	st	X, r25
    2172:	17 97       	sbiw	r26, 0x07	; 7
    2174:	ce 01       	movw	r24, r28
    2176:	df 91       	pop	r29
    2178:	cf 91       	pop	r28
    217a:	1f 91       	pop	r17
    217c:	0f 91       	pop	r16
    217e:	08 95       	ret

00002180 <__ultoa_invert>:
    2180:	fa 01       	movw	r30, r20
    2182:	aa 27       	eor	r26, r26
    2184:	28 30       	cpi	r18, 0x08	; 8
    2186:	51 f1       	breq	.+84     	; 0x21dc <__ultoa_invert+0x5c>
    2188:	20 31       	cpi	r18, 0x10	; 16
    218a:	81 f1       	breq	.+96     	; 0x21ec <__ultoa_invert+0x6c>
    218c:	e8 94       	clt
    218e:	6f 93       	push	r22
    2190:	6e 7f       	andi	r22, 0xFE	; 254
    2192:	6e 5f       	subi	r22, 0xFE	; 254
    2194:	7f 4f       	sbci	r23, 0xFF	; 255
    2196:	8f 4f       	sbci	r24, 0xFF	; 255
    2198:	9f 4f       	sbci	r25, 0xFF	; 255
    219a:	af 4f       	sbci	r26, 0xFF	; 255
    219c:	b1 e0       	ldi	r27, 0x01	; 1
    219e:	3e d0       	rcall	.+124    	; 0x221c <__ultoa_invert+0x9c>
    21a0:	b4 e0       	ldi	r27, 0x04	; 4
    21a2:	3c d0       	rcall	.+120    	; 0x221c <__ultoa_invert+0x9c>
    21a4:	67 0f       	add	r22, r23
    21a6:	78 1f       	adc	r23, r24
    21a8:	89 1f       	adc	r24, r25
    21aa:	9a 1f       	adc	r25, r26
    21ac:	a1 1d       	adc	r26, r1
    21ae:	68 0f       	add	r22, r24
    21b0:	79 1f       	adc	r23, r25
    21b2:	8a 1f       	adc	r24, r26
    21b4:	91 1d       	adc	r25, r1
    21b6:	a1 1d       	adc	r26, r1
    21b8:	6a 0f       	add	r22, r26
    21ba:	71 1d       	adc	r23, r1
    21bc:	81 1d       	adc	r24, r1
    21be:	91 1d       	adc	r25, r1
    21c0:	a1 1d       	adc	r26, r1
    21c2:	20 d0       	rcall	.+64     	; 0x2204 <__ultoa_invert+0x84>
    21c4:	09 f4       	brne	.+2      	; 0x21c8 <__ultoa_invert+0x48>
    21c6:	68 94       	set
    21c8:	3f 91       	pop	r19
    21ca:	2a e0       	ldi	r18, 0x0A	; 10
    21cc:	26 9f       	mul	r18, r22
    21ce:	11 24       	eor	r1, r1
    21d0:	30 19       	sub	r19, r0
    21d2:	30 5d       	subi	r19, 0xD0	; 208
    21d4:	31 93       	st	Z+, r19
    21d6:	de f6       	brtc	.-74     	; 0x218e <__ultoa_invert+0xe>
    21d8:	cf 01       	movw	r24, r30
    21da:	08 95       	ret
    21dc:	46 2f       	mov	r20, r22
    21de:	47 70       	andi	r20, 0x07	; 7
    21e0:	40 5d       	subi	r20, 0xD0	; 208
    21e2:	41 93       	st	Z+, r20
    21e4:	b3 e0       	ldi	r27, 0x03	; 3
    21e6:	0f d0       	rcall	.+30     	; 0x2206 <__ultoa_invert+0x86>
    21e8:	c9 f7       	brne	.-14     	; 0x21dc <__ultoa_invert+0x5c>
    21ea:	f6 cf       	rjmp	.-20     	; 0x21d8 <__ultoa_invert+0x58>
    21ec:	46 2f       	mov	r20, r22
    21ee:	4f 70       	andi	r20, 0x0F	; 15
    21f0:	40 5d       	subi	r20, 0xD0	; 208
    21f2:	4a 33       	cpi	r20, 0x3A	; 58
    21f4:	18 f0       	brcs	.+6      	; 0x21fc <__ultoa_invert+0x7c>
    21f6:	49 5d       	subi	r20, 0xD9	; 217
    21f8:	31 fd       	sbrc	r19, 1
    21fa:	40 52       	subi	r20, 0x20	; 32
    21fc:	41 93       	st	Z+, r20
    21fe:	02 d0       	rcall	.+4      	; 0x2204 <__ultoa_invert+0x84>
    2200:	a9 f7       	brne	.-22     	; 0x21ec <__ultoa_invert+0x6c>
    2202:	ea cf       	rjmp	.-44     	; 0x21d8 <__ultoa_invert+0x58>
    2204:	b4 e0       	ldi	r27, 0x04	; 4
    2206:	a6 95       	lsr	r26
    2208:	97 95       	ror	r25
    220a:	87 95       	ror	r24
    220c:	77 95       	ror	r23
    220e:	67 95       	ror	r22
    2210:	ba 95       	dec	r27
    2212:	c9 f7       	brne	.-14     	; 0x2206 <__ultoa_invert+0x86>
    2214:	00 97       	sbiw	r24, 0x00	; 0
    2216:	61 05       	cpc	r22, r1
    2218:	71 05       	cpc	r23, r1
    221a:	08 95       	ret
    221c:	9b 01       	movw	r18, r22
    221e:	ac 01       	movw	r20, r24
    2220:	0a 2e       	mov	r0, r26
    2222:	06 94       	lsr	r0
    2224:	57 95       	ror	r21
    2226:	47 95       	ror	r20
    2228:	37 95       	ror	r19
    222a:	27 95       	ror	r18
    222c:	ba 95       	dec	r27
    222e:	c9 f7       	brne	.-14     	; 0x2222 <__ultoa_invert+0xa2>
    2230:	62 0f       	add	r22, r18
    2232:	73 1f       	adc	r23, r19
    2234:	84 1f       	adc	r24, r20
    2236:	95 1f       	adc	r25, r21
    2238:	a0 1d       	adc	r26, r0
    223a:	08 95       	ret

0000223c <_exit>:
    223c:	f8 94       	cli

0000223e <__stop_program>:
    223e:	ff cf       	rjmp	.-2      	; 0x223e <__stop_program>
