
SkyFire.elf:     file format elf32-avr

Sections:
Idx Name          Size      VMA       LMA       File off  Algn
  0 .text         00003c8c  00000000  00000000  00000094  2**1
                  CONTENTS, ALLOC, LOAD, READONLY, CODE
  1 .data         000000b4  00802000  00003c8c  00003d20  2**0
                  CONTENTS, ALLOC, LOAD, DATA
  2 .bss          000000dc  008020b4  008020b4  00003dd4  2**0
                  ALLOC
  3 .comment      0000005c  00000000  00000000  00003dd4  2**0
                  CONTENTS, READONLY
  4 .note.gnu.avr.deviceinfo 00000040  00000000  00000000  00003e30  2**2
                  CONTENTS, READONLY
  5 .debug_aranges 000004a0  00000000  00000000  00003e70  2**3
                  CONTENTS, READONLY, DEBUGGING
  6 .debug_info   0001254c  00000000  00000000  00004310  2**0
                  CONTENTS, READONLY, DEBUGGING
  7 .debug_abbrev 000047c5  00000000  00000000  0001685c  2**0
                  CONTENTS, READONLY, DEBUGGING
  8 .debug_line   000085a8  00000000  00000000  0001b021  2**0
                  CONTENTS, READONLY, DEBUGGING
  9 .debug_frame  0000103c  00000000  00000000  000235cc  2**2
                  CONTENTS, READONLY, DEBUGGING
 10 .debug_str    0002d3ab  00000000  00000000  00024608  2**0
                  CONTENTS, READONLY, DEBUGGING
 11 .debug_loc    000045c4  00000000  00000000  000519b3  2**0
                  CONTENTS, READONLY, DEBUGGING
 12 .debug_ranges 00000450  00000000  00000000  00055f77  2**0
                  CONTENTS, READONLY, DEBUGGING
 13 .debug_macro  000031ef  00000000  00000000  000563c7  2**0
                  CONTENTS, READONLY, DEBUGGING

Disassembly of section .text:

00000000 <__vectors>:
       0:	44 c1       	rjmp	.+648    	; 0x28a <__ctors_end>
       2:	00 00       	nop
       4:	68 c1       	rjmp	.+720    	; 0x2d6 <__bad_interrupt>
       6:	00 00       	nop
       8:	66 c1       	rjmp	.+716    	; 0x2d6 <__bad_interrupt>
       a:	00 00       	nop
       c:	64 c1       	rjmp	.+712    	; 0x2d6 <__bad_interrupt>
       e:	00 00       	nop
      10:	62 c1       	rjmp	.+708    	; 0x2d6 <__bad_interrupt>
      12:	00 00       	nop
      14:	60 c1       	rjmp	.+704    	; 0x2d6 <__bad_interrupt>
      16:	00 00       	nop
      18:	5e c1       	rjmp	.+700    	; 0x2d6 <__bad_interrupt>
      1a:	00 00       	nop
      1c:	5c c1       	rjmp	.+696    	; 0x2d6 <__bad_interrupt>
      1e:	00 00       	nop
      20:	5a c1       	rjmp	.+692    	; 0x2d6 <__bad_interrupt>
      22:	00 00       	nop
      24:	58 c1       	rjmp	.+688    	; 0x2d6 <__bad_interrupt>
      26:	00 00       	nop
      28:	56 c1       	rjmp	.+684    	; 0x2d6 <__bad_interrupt>
      2a:	00 00       	nop
      2c:	54 c1       	rjmp	.+680    	; 0x2d6 <__bad_interrupt>
      2e:	00 00       	nop
      30:	52 c1       	rjmp	.+676    	; 0x2d6 <__bad_interrupt>
      32:	00 00       	nop
      34:	50 c1       	rjmp	.+672    	; 0x2d6 <__bad_interrupt>
      36:	00 00       	nop
      38:	4e c1       	rjmp	.+668    	; 0x2d6 <__bad_interrupt>
      3a:	00 00       	nop
      3c:	4c c1       	rjmp	.+664    	; 0x2d6 <__bad_interrupt>
      3e:	00 00       	nop
      40:	4a c1       	rjmp	.+660    	; 0x2d6 <__bad_interrupt>
      42:	00 00       	nop
      44:	48 c1       	rjmp	.+656    	; 0x2d6 <__bad_interrupt>
      46:	00 00       	nop
      48:	46 c1       	rjmp	.+652    	; 0x2d6 <__bad_interrupt>
      4a:	00 00       	nop
      4c:	44 c1       	rjmp	.+648    	; 0x2d6 <__bad_interrupt>
      4e:	00 00       	nop
      50:	42 c1       	rjmp	.+644    	; 0x2d6 <__bad_interrupt>
      52:	00 00       	nop
      54:	40 c1       	rjmp	.+640    	; 0x2d6 <__bad_interrupt>
      56:	00 00       	nop
      58:	3e c1       	rjmp	.+636    	; 0x2d6 <__bad_interrupt>
      5a:	00 00       	nop
      5c:	3c c1       	rjmp	.+632    	; 0x2d6 <__bad_interrupt>
      5e:	00 00       	nop
      60:	3a c1       	rjmp	.+628    	; 0x2d6 <__bad_interrupt>
      62:	00 00       	nop
      64:	38 c1       	rjmp	.+624    	; 0x2d6 <__bad_interrupt>
      66:	00 00       	nop
      68:	36 c1       	rjmp	.+620    	; 0x2d6 <__bad_interrupt>
      6a:	00 00       	nop
      6c:	34 c1       	rjmp	.+616    	; 0x2d6 <__bad_interrupt>
      6e:	00 00       	nop
      70:	32 c1       	rjmp	.+612    	; 0x2d6 <__bad_interrupt>
      72:	00 00       	nop
      74:	30 c1       	rjmp	.+608    	; 0x2d6 <__bad_interrupt>
      76:	00 00       	nop
      78:	2e c1       	rjmp	.+604    	; 0x2d6 <__bad_interrupt>
      7a:	00 00       	nop
      7c:	2c c1       	rjmp	.+600    	; 0x2d6 <__bad_interrupt>
      7e:	00 00       	nop
      80:	2a c1       	rjmp	.+596    	; 0x2d6 <__bad_interrupt>
      82:	00 00       	nop
      84:	28 c1       	rjmp	.+592    	; 0x2d6 <__bad_interrupt>
      86:	00 00       	nop
      88:	26 c1       	rjmp	.+588    	; 0x2d6 <__bad_interrupt>
      8a:	00 00       	nop
      8c:	24 c1       	rjmp	.+584    	; 0x2d6 <__bad_interrupt>
      8e:	00 00       	nop
      90:	22 c1       	rjmp	.+580    	; 0x2d6 <__bad_interrupt>
      92:	00 00       	nop
      94:	20 c1       	rjmp	.+576    	; 0x2d6 <__bad_interrupt>
      96:	00 00       	nop
      98:	1e c1       	rjmp	.+572    	; 0x2d6 <__bad_interrupt>
      9a:	00 00       	nop
      9c:	1c c1       	rjmp	.+568    	; 0x2d6 <__bad_interrupt>
      9e:	00 00       	nop
      a0:	1a c1       	rjmp	.+564    	; 0x2d6 <__bad_interrupt>
      a2:	00 00       	nop
      a4:	18 c1       	rjmp	.+560    	; 0x2d6 <__bad_interrupt>
      a6:	00 00       	nop
      a8:	16 c1       	rjmp	.+556    	; 0x2d6 <__bad_interrupt>
      aa:	00 00       	nop
      ac:	14 c1       	rjmp	.+552    	; 0x2d6 <__bad_interrupt>
      ae:	00 00       	nop
      b0:	12 c1       	rjmp	.+548    	; 0x2d6 <__bad_interrupt>
      b2:	00 00       	nop
      b4:	10 c1       	rjmp	.+544    	; 0x2d6 <__bad_interrupt>
      b6:	00 00       	nop
      b8:	0e c1       	rjmp	.+540    	; 0x2d6 <__bad_interrupt>
      ba:	00 00       	nop
      bc:	0c 94 06 0f 	jmp	0x1e0c	; 0x1e0c <__vector_47>
      c0:	0a c1       	rjmp	.+532    	; 0x2d6 <__bad_interrupt>
      c2:	00 00       	nop
      c4:	08 c1       	rjmp	.+528    	; 0x2d6 <__bad_interrupt>
      c6:	00 00       	nop
      c8:	06 c1       	rjmp	.+524    	; 0x2d6 <__bad_interrupt>
      ca:	00 00       	nop
      cc:	04 c1       	rjmp	.+520    	; 0x2d6 <__bad_interrupt>
      ce:	00 00       	nop
      d0:	02 c1       	rjmp	.+516    	; 0x2d6 <__bad_interrupt>
      d2:	00 00       	nop
      d4:	00 c1       	rjmp	.+512    	; 0x2d6 <__bad_interrupt>
      d6:	00 00       	nop
      d8:	fe c0       	rjmp	.+508    	; 0x2d6 <__bad_interrupt>
      da:	00 00       	nop
      dc:	fc c0       	rjmp	.+504    	; 0x2d6 <__bad_interrupt>
      de:	00 00       	nop
      e0:	fa c0       	rjmp	.+500    	; 0x2d6 <__bad_interrupt>
      e2:	00 00       	nop
      e4:	f8 c0       	rjmp	.+496    	; 0x2d6 <__bad_interrupt>
      e6:	00 00       	nop
      e8:	0c 94 47 0f 	jmp	0x1e8e	; 0x1e8e <__vector_58>
      ec:	f4 c0       	rjmp	.+488    	; 0x2d6 <__bad_interrupt>
      ee:	00 00       	nop
      f0:	f2 c0       	rjmp	.+484    	; 0x2d6 <__bad_interrupt>
      f2:	00 00       	nop
      f4:	f0 c0       	rjmp	.+480    	; 0x2d6 <__bad_interrupt>
      f6:	00 00       	nop
      f8:	ee c0       	rjmp	.+476    	; 0x2d6 <__bad_interrupt>
      fa:	00 00       	nop
      fc:	ec c0       	rjmp	.+472    	; 0x2d6 <__bad_interrupt>
      fe:	00 00       	nop
     100:	ea c0       	rjmp	.+468    	; 0x2d6 <__bad_interrupt>
     102:	00 00       	nop
     104:	e8 c0       	rjmp	.+464    	; 0x2d6 <__bad_interrupt>
     106:	00 00       	nop
     108:	e6 c0       	rjmp	.+460    	; 0x2d6 <__bad_interrupt>
     10a:	00 00       	nop
     10c:	e4 c0       	rjmp	.+456    	; 0x2d6 <__bad_interrupt>
     10e:	00 00       	nop
     110:	e2 c0       	rjmp	.+452    	; 0x2d6 <__bad_interrupt>
     112:	00 00       	nop
     114:	e0 c0       	rjmp	.+448    	; 0x2d6 <__bad_interrupt>
     116:	00 00       	nop
     118:	de c0       	rjmp	.+444    	; 0x2d6 <__bad_interrupt>
     11a:	00 00       	nop
     11c:	08 c1       	rjmp	.+528    	; 0x32e <__vector_71>
     11e:	00 00       	nop
     120:	43 c1       	rjmp	.+646    	; 0x3a8 <__vector_72>
     122:	00 00       	nop
     124:	7e c1       	rjmp	.+764    	; 0x422 <__vector_73>
     126:	00 00       	nop
     128:	b9 c1       	rjmp	.+882    	; 0x49c <__vector_74>
     12a:	00 00       	nop
     12c:	d4 c0       	rjmp	.+424    	; 0x2d6 <__bad_interrupt>
     12e:	00 00       	nop
     130:	d2 c0       	rjmp	.+420    	; 0x2d6 <__bad_interrupt>
     132:	00 00       	nop
     134:	d0 c0       	rjmp	.+416    	; 0x2d6 <__bad_interrupt>
     136:	00 00       	nop
     138:	ce c0       	rjmp	.+412    	; 0x2d6 <__bad_interrupt>
     13a:	00 00       	nop
     13c:	cc c0       	rjmp	.+408    	; 0x2d6 <__bad_interrupt>
     13e:	00 00       	nop
     140:	ca c0       	rjmp	.+404    	; 0x2d6 <__bad_interrupt>
     142:	00 00       	nop
     144:	c8 c0       	rjmp	.+400    	; 0x2d6 <__bad_interrupt>
     146:	00 00       	nop
     148:	c6 c0       	rjmp	.+396    	; 0x2d6 <__bad_interrupt>
     14a:	00 00       	nop
     14c:	c4 c0       	rjmp	.+392    	; 0x2d6 <__bad_interrupt>
     14e:	00 00       	nop
     150:	c2 c0       	rjmp	.+388    	; 0x2d6 <__bad_interrupt>
     152:	00 00       	nop
     154:	c0 c0       	rjmp	.+384    	; 0x2d6 <__bad_interrupt>
     156:	00 00       	nop
     158:	be c0       	rjmp	.+380    	; 0x2d6 <__bad_interrupt>
     15a:	00 00       	nop
     15c:	bc c0       	rjmp	.+376    	; 0x2d6 <__bad_interrupt>
     15e:	00 00       	nop
     160:	ba c0       	rjmp	.+372    	; 0x2d6 <__bad_interrupt>
     162:	00 00       	nop
     164:	b8 c0       	rjmp	.+368    	; 0x2d6 <__bad_interrupt>
     166:	00 00       	nop
     168:	b6 c0       	rjmp	.+364    	; 0x2d6 <__bad_interrupt>
     16a:	00 00       	nop
     16c:	0c 94 7d 0f 	jmp	0x1efa	; 0x1efa <__vector_91>
     170:	b2 c0       	rjmp	.+356    	; 0x2d6 <__bad_interrupt>
     172:	00 00       	nop
     174:	b0 c0       	rjmp	.+352    	; 0x2d6 <__bad_interrupt>
     176:	00 00       	nop
     178:	ae c0       	rjmp	.+348    	; 0x2d6 <__bad_interrupt>
     17a:	00 00       	nop
     17c:	ac c0       	rjmp	.+344    	; 0x2d6 <__bad_interrupt>
     17e:	00 00       	nop
     180:	aa c0       	rjmp	.+340    	; 0x2d6 <__bad_interrupt>
     182:	00 00       	nop
     184:	a8 c0       	rjmp	.+336    	; 0x2d6 <__bad_interrupt>
     186:	00 00       	nop
     188:	a6 c0       	rjmp	.+332    	; 0x2d6 <__bad_interrupt>
     18a:	00 00       	nop
     18c:	a4 c0       	rjmp	.+328    	; 0x2d6 <__bad_interrupt>
     18e:	00 00       	nop
     190:	a2 c0       	rjmp	.+324    	; 0x2d6 <__bad_interrupt>
     192:	00 00       	nop
     194:	a0 c0       	rjmp	.+320    	; 0x2d6 <__bad_interrupt>
     196:	00 00       	nop
     198:	9e c0       	rjmp	.+316    	; 0x2d6 <__bad_interrupt>
     19a:	00 00       	nop
     19c:	9c c0       	rjmp	.+312    	; 0x2d6 <__bad_interrupt>
     19e:	00 00       	nop
     1a0:	9a c0       	rjmp	.+308    	; 0x2d6 <__bad_interrupt>
     1a2:	00 00       	nop
     1a4:	98 c0       	rjmp	.+304    	; 0x2d6 <__bad_interrupt>
     1a6:	00 00       	nop
     1a8:	96 c0       	rjmp	.+300    	; 0x2d6 <__bad_interrupt>
     1aa:	00 00       	nop
     1ac:	94 c0       	rjmp	.+296    	; 0x2d6 <__bad_interrupt>
     1ae:	00 00       	nop
     1b0:	92 c0       	rjmp	.+292    	; 0x2d6 <__bad_interrupt>
     1b2:	00 00       	nop
     1b4:	90 c0       	rjmp	.+288    	; 0x2d6 <__bad_interrupt>
     1b6:	00 00       	nop
     1b8:	8e c0       	rjmp	.+284    	; 0x2d6 <__bad_interrupt>
     1ba:	00 00       	nop
     1bc:	8c c0       	rjmp	.+280    	; 0x2d6 <__bad_interrupt>
     1be:	00 00       	nop
     1c0:	8a c0       	rjmp	.+276    	; 0x2d6 <__bad_interrupt>
     1c2:	00 00       	nop
     1c4:	88 c0       	rjmp	.+272    	; 0x2d6 <__bad_interrupt>
     1c6:	00 00       	nop
     1c8:	86 c0       	rjmp	.+268    	; 0x2d6 <__bad_interrupt>
     1ca:	00 00       	nop
     1cc:	84 c0       	rjmp	.+264    	; 0x2d6 <__bad_interrupt>
     1ce:	00 00       	nop
     1d0:	82 c0       	rjmp	.+260    	; 0x2d6 <__bad_interrupt>
     1d2:	00 00       	nop
     1d4:	80 c0       	rjmp	.+256    	; 0x2d6 <__bad_interrupt>
     1d6:	00 00       	nop
     1d8:	7e c0       	rjmp	.+252    	; 0x2d6 <__bad_interrupt>
     1da:	00 00       	nop
     1dc:	7c c0       	rjmp	.+248    	; 0x2d6 <__bad_interrupt>
     1de:	00 00       	nop
     1e0:	7a c0       	rjmp	.+244    	; 0x2d6 <__bad_interrupt>
     1e2:	00 00       	nop
     1e4:	78 c0       	rjmp	.+240    	; 0x2d6 <__bad_interrupt>
     1e6:	00 00       	nop
     1e8:	76 c0       	rjmp	.+236    	; 0x2d6 <__bad_interrupt>
     1ea:	00 00       	nop
     1ec:	74 c0       	rjmp	.+232    	; 0x2d6 <__bad_interrupt>
     1ee:	00 00       	nop
     1f0:	72 c0       	rjmp	.+228    	; 0x2d6 <__bad_interrupt>
     1f2:	00 00       	nop
     1f4:	70 c0       	rjmp	.+224    	; 0x2d6 <__bad_interrupt>
     1f6:	00 00       	nop
     1f8:	6e c0       	rjmp	.+220    	; 0x2d6 <__bad_interrupt>
     1fa:	00 00       	nop
     1fc:	07 63       	ori	r16, 0x37	; 55
     1fe:	42 36       	cpi	r20, 0x62	; 98
     200:	b7 9b       	sbis	0x16, 7	; 22
     202:	d8 a7       	std	Y+40, r29	; 0x28
     204:	1a 39       	cpi	r17, 0x9A	; 154
     206:	68 56       	subi	r22, 0x68	; 104
     208:	18 ae       	std	Y+56, r1	; 0x38
     20a:	ba ab       	std	Y+50, r27	; 0x32
     20c:	55 8c       	ldd	r5, Z+29	; 0x1d
     20e:	1d 3c       	cpi	r17, 0xCD	; 205
     210:	b7 cc       	rjmp	.-1682   	; 0xfffffb80 <__eeprom_end+0xff7efb80>
     212:	57 63       	ori	r21, 0x37	; 55
     214:	bd 6d       	ori	r27, 0xDD	; 221
     216:	ed fd       	.word	0xfded	; ????
     218:	75 3e       	cpi	r23, 0xE5	; 229
     21a:	f6 17       	cp	r31, r22
     21c:	72 31       	cpi	r23, 0x12	; 18
     21e:	bf 00       	.word	0x00bf	; ????
     220:	00 00       	nop
     222:	80 3f       	cpi	r24, 0xF0	; 240
     224:	08 00       	.word	0x0008	; ????
     226:	00 00       	nop
     228:	be 92       	st	-X, r11
     22a:	24 49       	sbci	r18, 0x94	; 148
     22c:	12 3e       	cpi	r17, 0xE2	; 226
     22e:	ab aa       	std	Y+51, r10	; 0x33
     230:	aa 2a       	or	r10, r26
     232:	be cd       	rjmp	.-1156   	; 0xfffffdb0 <__eeprom_end+0xff7efdb0>
     234:	cc cc       	rjmp	.-1640   	; 0xfffffbce <__eeprom_end+0xff7efbce>
     236:	4c 3e       	cpi	r20, 0xEC	; 236
     238:	00 00       	nop
     23a:	00 80       	ld	r0, Z
     23c:	be ab       	std	Y+54, r27	; 0x36
     23e:	aa aa       	std	Y+50, r10	; 0x32
     240:	aa 3e       	cpi	r26, 0xEA	; 234
     242:	00 00       	nop
     244:	00 00       	nop
     246:	bf 00       	.word	0x00bf	; ????
     248:	00 00       	nop
     24a:	80 3f       	cpi	r24, 0xF0	; 240
     24c:	00 00       	nop
     24e:	00 00       	nop
     250:	00 08       	sbc	r0, r0
     252:	41 78       	andi	r20, 0x81	; 129
     254:	d3 bb       	out	0x13, r29	; 19
     256:	43 87       	std	Z+11, r20	; 0x0b
     258:	d1 13       	cpse	r29, r17
     25a:	3d 19       	sub	r19, r13
     25c:	0e 3c       	cpi	r16, 0xCE	; 206
     25e:	c3 bd       	out	0x23, r28	; 35
     260:	42 82       	std	Z+2, r4	; 0x02
     262:	ad 2b       	or	r26, r29
     264:	3e 68       	ori	r19, 0x8E	; 142
     266:	ec 82       	std	Y+4, r14	; 0x04
     268:	76 be       	out	0x36, r7	; 54
     26a:	d9 8f       	std	Y+25, r29	; 0x19
     26c:	e1 a9       	ldd	r30, Z+49	; 0x31
     26e:	3e 4c       	sbci	r19, 0xCE	; 206
     270:	80 ef       	ldi	r24, 0xF0	; 240
     272:	ff be       	out	0x3f, r15	; 63
     274:	01 c4       	rjmp	.+2050   	; 0xa78 <ms5607_convert_d2+0x14>
     276:	ff 7f       	andi	r31, 0xFF	; 255
     278:	3f 00       	.word	0x003f	; ????
     27a:	00 00       	nop
	...

0000027e <__trampolines_end>:
     27e:	63 64       	ori	r22, 0x43	; 67
     280:	69 6e       	ori	r22, 0xE9	; 233
     282:	6f 70       	andi	r22, 0x0F	; 15
     284:	73 75       	andi	r23, 0x53	; 83
     286:	78 58       	subi	r23, 0x88	; 136
     288:	5b 00       	.word	0x005b	; ????

0000028a <__ctors_end>:
     28a:	11 24       	eor	r1, r1
     28c:	1f be       	out	0x3f, r1	; 63
     28e:	cf ef       	ldi	r28, 0xFF	; 255
     290:	cd bf       	out	0x3d, r28	; 61
     292:	df e3       	ldi	r29, 0x3F	; 63
     294:	de bf       	out	0x3e, r29	; 62
     296:	00 e0       	ldi	r16, 0x00	; 0
     298:	0c bf       	out	0x3c, r16	; 60
     29a:	18 be       	out	0x38, r1	; 56
     29c:	19 be       	out	0x39, r1	; 57
     29e:	1a be       	out	0x3a, r1	; 58
     2a0:	1b be       	out	0x3b, r1	; 59

000002a2 <__do_copy_data>:
     2a2:	10 e2       	ldi	r17, 0x20	; 32
     2a4:	a0 e0       	ldi	r26, 0x00	; 0
     2a6:	b0 e2       	ldi	r27, 0x20	; 32
     2a8:	ec e8       	ldi	r30, 0x8C	; 140
     2aa:	fc e3       	ldi	r31, 0x3C	; 60
     2ac:	00 e0       	ldi	r16, 0x00	; 0
     2ae:	0b bf       	out	0x3b, r16	; 59
     2b0:	02 c0       	rjmp	.+4      	; 0x2b6 <__do_copy_data+0x14>
     2b2:	07 90       	elpm	r0, Z+
     2b4:	0d 92       	st	X+, r0
     2b6:	a4 3b       	cpi	r26, 0xB4	; 180
     2b8:	b1 07       	cpc	r27, r17
     2ba:	d9 f7       	brne	.-10     	; 0x2b2 <__do_copy_data+0x10>
     2bc:	1b be       	out	0x3b, r1	; 59

000002be <__do_clear_bss>:
     2be:	21 e2       	ldi	r18, 0x21	; 33
     2c0:	a4 eb       	ldi	r26, 0xB4	; 180
     2c2:	b0 e2       	ldi	r27, 0x20	; 32
     2c4:	01 c0       	rjmp	.+2      	; 0x2c8 <.do_clear_bss_start>

000002c6 <.do_clear_bss_loop>:
     2c6:	1d 92       	st	X+, r1

000002c8 <.do_clear_bss_start>:
     2c8:	a0 39       	cpi	r26, 0x90	; 144
     2ca:	b2 07       	cpc	r27, r18
     2cc:	e1 f7       	brne	.-8      	; 0x2c6 <.do_clear_bss_loop>
     2ce:	0e 94 ed 0b 	call	0x17da	; 0x17da <main>
     2d2:	0c 94 44 1e 	jmp	0x3c88	; 0x3c88 <_exit>

000002d6 <__bad_interrupt>:
     2d6:	94 ce       	rjmp	.-728    	; 0x0 <__vectors>

000002d8 <_read>:
#elif (defined(__GNUC__) && (XMEGA || MEGA) )

int _read (int *f); // Remove GCC compiler warning

int _read (int *f)
{
     2d8:	cf 93       	push	r28
     2da:	df 93       	push	r29
     2dc:	1f 92       	push	r1
     2de:	cd b7       	in	r28, 0x3d	; 61
     2e0:	de b7       	in	r29, 0x3e	; 62
	char c;
	ptr_get(stdio_base,&c);
     2e2:	80 91 0a 21 	lds	r24, 0x210A	; 0x80210a <stdio_base>
     2e6:	90 91 0b 21 	lds	r25, 0x210B	; 0x80210b <stdio_base+0x1>
     2ea:	e0 91 06 21 	lds	r30, 0x2106	; 0x802106 <ptr_get>
     2ee:	f0 91 07 21 	lds	r31, 0x2107	; 0x802107 <ptr_get+0x1>
     2f2:	be 01       	movw	r22, r28
     2f4:	6f 5f       	subi	r22, 0xFF	; 255
     2f6:	7f 4f       	sbci	r23, 0xFF	; 255
     2f8:	19 95       	eicall
	return c;
     2fa:	89 81       	ldd	r24, Y+1	; 0x01
}
     2fc:	08 2e       	mov	r0, r24
     2fe:	00 0c       	add	r0, r0
     300:	99 0b       	sbc	r25, r25
     302:	0f 90       	pop	r0
     304:	df 91       	pop	r29
     306:	cf 91       	pop	r28
     308:	08 95       	ret

0000030a <_write>:
#elif (defined(__GNUC__) && (XMEGA || MEGA))

int _write (char c, int *f);

int _write (char c, int *f)
{
     30a:	68 2f       	mov	r22, r24
	if (ptr_put(stdio_base, c) < 0) {
     30c:	80 91 0a 21 	lds	r24, 0x210A	; 0x80210a <stdio_base>
     310:	90 91 0b 21 	lds	r25, 0x210B	; 0x80210b <stdio_base+0x1>
     314:	e0 91 08 21 	lds	r30, 0x2108	; 0x802108 <ptr_put>
     318:	f0 91 09 21 	lds	r31, 0x2109	; 0x802109 <ptr_put+0x1>
     31c:	19 95       	eicall
     31e:	99 23       	and	r25, r25
     320:	1c f0       	brlt	.+6      	; 0x328 <_write+0x1e>
		return -1;
	}
	return 1;
     322:	81 e0       	ldi	r24, 0x01	; 1
     324:	90 e0       	ldi	r25, 0x00	; 0
     326:	08 95       	ret
int _write (char c, int *f);

int _write (char c, int *f)
{
	if (ptr_put(stdio_base, c) < 0) {
		return -1;
     328:	8f ef       	ldi	r24, 0xFF	; 255
     32a:	9f ef       	ldi	r25, 0xFF	; 255
	}
	return 1;
}
     32c:	08 95       	ret

0000032e <__vector_71>:
 *
 * Calls the callback function that has been set for the ADC when the channel's
 * interrupt flag is set, if its interrupt has been enabled.
 */
ISR(ADCA_CH0_vect)
{
     32e:	1f 92       	push	r1
     330:	0f 92       	push	r0
     332:	0f b6       	in	r0, 0x3f	; 63
     334:	0f 92       	push	r0
     336:	11 24       	eor	r1, r1
     338:	08 b6       	in	r0, 0x38	; 56
     33a:	0f 92       	push	r0
     33c:	18 be       	out	0x38, r1	; 56
     33e:	09 b6       	in	r0, 0x39	; 57
     340:	0f 92       	push	r0
     342:	19 be       	out	0x39, r1	; 57
     344:	0b b6       	in	r0, 0x3b	; 59
     346:	0f 92       	push	r0
     348:	1b be       	out	0x3b, r1	; 59
     34a:	2f 93       	push	r18
     34c:	3f 93       	push	r19
     34e:	4f 93       	push	r20
     350:	5f 93       	push	r21
     352:	6f 93       	push	r22
     354:	7f 93       	push	r23
     356:	8f 93       	push	r24
     358:	9f 93       	push	r25
     35a:	af 93       	push	r26
     35c:	bf 93       	push	r27
     35e:	ef 93       	push	r30
     360:	ff 93       	push	r31
	adca_callback(&ADCA, ADC_CH0, adc_get_result(&ADCA, ADC_CH0));
     362:	40 91 24 02 	lds	r20, 0x0224	; 0x800224 <__TEXT_REGION_LENGTH__+0x700224>
     366:	50 91 25 02 	lds	r21, 0x0225	; 0x800225 <__TEXT_REGION_LENGTH__+0x700225>
     36a:	e0 91 0c 21 	lds	r30, 0x210C	; 0x80210c <adca_callback>
     36e:	f0 91 0d 21 	lds	r31, 0x210D	; 0x80210d <adca_callback+0x1>
     372:	61 e0       	ldi	r22, 0x01	; 1
     374:	80 e0       	ldi	r24, 0x00	; 0
     376:	92 e0       	ldi	r25, 0x02	; 2
     378:	19 95       	eicall
}
     37a:	ff 91       	pop	r31
     37c:	ef 91       	pop	r30
     37e:	bf 91       	pop	r27
     380:	af 91       	pop	r26
     382:	9f 91       	pop	r25
     384:	8f 91       	pop	r24
     386:	7f 91       	pop	r23
     388:	6f 91       	pop	r22
     38a:	5f 91       	pop	r21
     38c:	4f 91       	pop	r20
     38e:	3f 91       	pop	r19
     390:	2f 91       	pop	r18
     392:	0f 90       	pop	r0
     394:	0b be       	out	0x3b, r0	; 59
     396:	0f 90       	pop	r0
     398:	09 be       	out	0x39, r0	; 57
     39a:	0f 90       	pop	r0
     39c:	08 be       	out	0x38, r0	; 56
     39e:	0f 90       	pop	r0
     3a0:	0f be       	out	0x3f, r0	; 63
     3a2:	0f 90       	pop	r0
     3a4:	1f 90       	pop	r1
     3a6:	18 95       	reti

000003a8 <__vector_72>:
 *
 * Calls the callback function that has been set for the ADC when the channel's
 * interrupt flag is set, if its interrupt has been enabled.
 */
ISR(ADCA_CH1_vect)
{
     3a8:	1f 92       	push	r1
     3aa:	0f 92       	push	r0
     3ac:	0f b6       	in	r0, 0x3f	; 63
     3ae:	0f 92       	push	r0
     3b0:	11 24       	eor	r1, r1
     3b2:	08 b6       	in	r0, 0x38	; 56
     3b4:	0f 92       	push	r0
     3b6:	18 be       	out	0x38, r1	; 56
     3b8:	09 b6       	in	r0, 0x39	; 57
     3ba:	0f 92       	push	r0
     3bc:	19 be       	out	0x39, r1	; 57
     3be:	0b b6       	in	r0, 0x3b	; 59
     3c0:	0f 92       	push	r0
     3c2:	1b be       	out	0x3b, r1	; 59
     3c4:	2f 93       	push	r18
     3c6:	3f 93       	push	r19
     3c8:	4f 93       	push	r20
     3ca:	5f 93       	push	r21
     3cc:	6f 93       	push	r22
     3ce:	7f 93       	push	r23
     3d0:	8f 93       	push	r24
     3d2:	9f 93       	push	r25
     3d4:	af 93       	push	r26
     3d6:	bf 93       	push	r27
     3d8:	ef 93       	push	r30
     3da:	ff 93       	push	r31
	adca_callback(&ADCA, ADC_CH1, adc_get_result(&ADCA, ADC_CH1));
     3dc:	40 91 2c 02 	lds	r20, 0x022C	; 0x80022c <__TEXT_REGION_LENGTH__+0x70022c>
     3e0:	50 91 2d 02 	lds	r21, 0x022D	; 0x80022d <__TEXT_REGION_LENGTH__+0x70022d>
     3e4:	e0 91 0c 21 	lds	r30, 0x210C	; 0x80210c <adca_callback>
     3e8:	f0 91 0d 21 	lds	r31, 0x210D	; 0x80210d <adca_callback+0x1>
     3ec:	62 e0       	ldi	r22, 0x02	; 2
     3ee:	80 e0       	ldi	r24, 0x00	; 0
     3f0:	92 e0       	ldi	r25, 0x02	; 2
     3f2:	19 95       	eicall
}
     3f4:	ff 91       	pop	r31
     3f6:	ef 91       	pop	r30
     3f8:	bf 91       	pop	r27
     3fa:	af 91       	pop	r26
     3fc:	9f 91       	pop	r25
     3fe:	8f 91       	pop	r24
     400:	7f 91       	pop	r23
     402:	6f 91       	pop	r22
     404:	5f 91       	pop	r21
     406:	4f 91       	pop	r20
     408:	3f 91       	pop	r19
     40a:	2f 91       	pop	r18
     40c:	0f 90       	pop	r0
     40e:	0b be       	out	0x3b, r0	; 59
     410:	0f 90       	pop	r0
     412:	09 be       	out	0x39, r0	; 57
     414:	0f 90       	pop	r0
     416:	08 be       	out	0x38, r0	; 56
     418:	0f 90       	pop	r0
     41a:	0f be       	out	0x3f, r0	; 63
     41c:	0f 90       	pop	r0
     41e:	1f 90       	pop	r1
     420:	18 95       	reti

00000422 <__vector_73>:
 *
 * Calls the callback function that has been set for the ADC when the channel's
 * interrupt flag is set, if its interrupt has been enabled.
 */
ISR(ADCA_CH2_vect)
{
     422:	1f 92       	push	r1
     424:	0f 92       	push	r0
     426:	0f b6       	in	r0, 0x3f	; 63
     428:	0f 92       	push	r0
     42a:	11 24       	eor	r1, r1
     42c:	08 b6       	in	r0, 0x38	; 56
     42e:	0f 92       	push	r0
     430:	18 be       	out	0x38, r1	; 56
     432:	09 b6       	in	r0, 0x39	; 57
     434:	0f 92       	push	r0
     436:	19 be       	out	0x39, r1	; 57
     438:	0b b6       	in	r0, 0x3b	; 59
     43a:	0f 92       	push	r0
     43c:	1b be       	out	0x3b, r1	; 59
     43e:	2f 93       	push	r18
     440:	3f 93       	push	r19
     442:	4f 93       	push	r20
     444:	5f 93       	push	r21
     446:	6f 93       	push	r22
     448:	7f 93       	push	r23
     44a:	8f 93       	push	r24
     44c:	9f 93       	push	r25
     44e:	af 93       	push	r26
     450:	bf 93       	push	r27
     452:	ef 93       	push	r30
     454:	ff 93       	push	r31
	adca_callback(&ADCA, ADC_CH2, adc_get_result(&ADCA, ADC_CH2));
     456:	40 91 34 02 	lds	r20, 0x0234	; 0x800234 <__TEXT_REGION_LENGTH__+0x700234>
     45a:	50 91 35 02 	lds	r21, 0x0235	; 0x800235 <__TEXT_REGION_LENGTH__+0x700235>
     45e:	e0 91 0c 21 	lds	r30, 0x210C	; 0x80210c <adca_callback>
     462:	f0 91 0d 21 	lds	r31, 0x210D	; 0x80210d <adca_callback+0x1>
     466:	64 e0       	ldi	r22, 0x04	; 4
     468:	80 e0       	ldi	r24, 0x00	; 0
     46a:	92 e0       	ldi	r25, 0x02	; 2
     46c:	19 95       	eicall
}
     46e:	ff 91       	pop	r31
     470:	ef 91       	pop	r30
     472:	bf 91       	pop	r27
     474:	af 91       	pop	r26
     476:	9f 91       	pop	r25
     478:	8f 91       	pop	r24
     47a:	7f 91       	pop	r23
     47c:	6f 91       	pop	r22
     47e:	5f 91       	pop	r21
     480:	4f 91       	pop	r20
     482:	3f 91       	pop	r19
     484:	2f 91       	pop	r18
     486:	0f 90       	pop	r0
     488:	0b be       	out	0x3b, r0	; 59
     48a:	0f 90       	pop	r0
     48c:	09 be       	out	0x39, r0	; 57
     48e:	0f 90       	pop	r0
     490:	08 be       	out	0x38, r0	; 56
     492:	0f 90       	pop	r0
     494:	0f be       	out	0x3f, r0	; 63
     496:	0f 90       	pop	r0
     498:	1f 90       	pop	r1
     49a:	18 95       	reti

0000049c <__vector_74>:
 *
 * Calls the callback function that has been set for the ADC when the channel's
 * interrupt flag is set, if its interrupt has been enabled.
 */
ISR(ADCA_CH3_vect)
{
     49c:	1f 92       	push	r1
     49e:	0f 92       	push	r0
     4a0:	0f b6       	in	r0, 0x3f	; 63
     4a2:	0f 92       	push	r0
     4a4:	11 24       	eor	r1, r1
     4a6:	08 b6       	in	r0, 0x38	; 56
     4a8:	0f 92       	push	r0
     4aa:	18 be       	out	0x38, r1	; 56
     4ac:	09 b6       	in	r0, 0x39	; 57
     4ae:	0f 92       	push	r0
     4b0:	19 be       	out	0x39, r1	; 57
     4b2:	0b b6       	in	r0, 0x3b	; 59
     4b4:	0f 92       	push	r0
     4b6:	1b be       	out	0x3b, r1	; 59
     4b8:	2f 93       	push	r18
     4ba:	3f 93       	push	r19
     4bc:	4f 93       	push	r20
     4be:	5f 93       	push	r21
     4c0:	6f 93       	push	r22
     4c2:	7f 93       	push	r23
     4c4:	8f 93       	push	r24
     4c6:	9f 93       	push	r25
     4c8:	af 93       	push	r26
     4ca:	bf 93       	push	r27
     4cc:	ef 93       	push	r30
     4ce:	ff 93       	push	r31
	adca_callback(&ADCA, ADC_CH3, adc_get_result(&ADCA, ADC_CH3));
     4d0:	40 91 3c 02 	lds	r20, 0x023C	; 0x80023c <__TEXT_REGION_LENGTH__+0x70023c>
     4d4:	50 91 3d 02 	lds	r21, 0x023D	; 0x80023d <__TEXT_REGION_LENGTH__+0x70023d>
     4d8:	e0 91 0c 21 	lds	r30, 0x210C	; 0x80210c <adca_callback>
     4dc:	f0 91 0d 21 	lds	r31, 0x210D	; 0x80210d <adca_callback+0x1>
     4e0:	68 e0       	ldi	r22, 0x08	; 8
     4e2:	80 e0       	ldi	r24, 0x00	; 0
     4e4:	92 e0       	ldi	r25, 0x02	; 2
     4e6:	19 95       	eicall
}
     4e8:	ff 91       	pop	r31
     4ea:	ef 91       	pop	r30
     4ec:	bf 91       	pop	r27
     4ee:	af 91       	pop	r26
     4f0:	9f 91       	pop	r25
     4f2:	8f 91       	pop	r24
     4f4:	7f 91       	pop	r23
     4f6:	6f 91       	pop	r22
     4f8:	5f 91       	pop	r21
     4fa:	4f 91       	pop	r20
     4fc:	3f 91       	pop	r19
     4fe:	2f 91       	pop	r18
     500:	0f 90       	pop	r0
     502:	0b be       	out	0x3b, r0	; 59
     504:	0f 90       	pop	r0
     506:	09 be       	out	0x39, r0	; 57
     508:	0f 90       	pop	r0
     50a:	08 be       	out	0x38, r0	; 56
     50c:	0f 90       	pop	r0
     50e:	0f be       	out	0x3f, r0	; 63
     510:	0f 90       	pop	r0
     512:	1f 90       	pop	r1
     514:	18 95       	reti

00000516 <usart_putchar>:

	if (baud_offset != USART_BAUD_UNDEFINED) {
		(usart)->BAUDCTRLB = (uint8_t)((uint16_t)baudctrl);
		(usart)->BAUDCTRLA = (uint8_t)((uint16_t)baudctrl >> 8);
	}
}
     516:	fc 01       	movw	r30, r24
     518:	91 81       	ldd	r25, Z+1	; 0x01
     51a:	95 ff       	sbrs	r25, 5
     51c:	fd cf       	rjmp	.-6      	; 0x518 <usart_putchar+0x2>
     51e:	60 83       	st	Z, r22
     520:	80 e0       	ldi	r24, 0x00	; 0
     522:	90 e0       	ldi	r25, 0x00	; 0
     524:	08 95       	ret

00000526 <usart_getchar>:
     526:	fc 01       	movw	r30, r24
     528:	91 81       	ldd	r25, Z+1	; 0x01
     52a:	99 23       	and	r25, r25
     52c:	ec f7       	brge	.-6      	; 0x528 <usart_getchar+0x2>
     52e:	80 81       	ld	r24, Z
     530:	08 95       	ret

00000532 <usart_set_baudrate>:
 * \retval true if the hardware supports the baud rate
 * \retval false if the hardware does not support the baud rate (i.e. it's
 *               either too high or too low.)
 */
bool usart_set_baudrate(USART_t *usart, uint32_t baud, uint32_t cpu_hz)
{
     532:	4f 92       	push	r4
     534:	5f 92       	push	r5
     536:	6f 92       	push	r6
     538:	7f 92       	push	r7
     53a:	8f 92       	push	r8
     53c:	9f 92       	push	r9
     53e:	af 92       	push	r10
     540:	bf 92       	push	r11
     542:	ef 92       	push	r14
     544:	ff 92       	push	r15
     546:	0f 93       	push	r16
     548:	1f 93       	push	r17
     54a:	cf 93       	push	r28
     54c:	7c 01       	movw	r14, r24
     54e:	4a 01       	movw	r8, r20
     550:	5b 01       	movw	r10, r22
     552:	28 01       	movw	r4, r16
     554:	39 01       	movw	r6, r18
	/* 8 = (2^0) * 8 * (2^0) = (2^BSCALE_MIN) * 8 * (BSEL_MIN) */
	max_rate = cpu_hz / 8;
	/* 4194304 = (2^7) * 8 * (2^12) = (2^BSCALE_MAX) * 8 * (BSEL_MAX+1) */
	min_rate = cpu_hz / 4194304;

	if (!((usart)->CTRLB & USART_CLK2X_bm)) {
     556:	fc 01       	movw	r30, r24
     558:	84 81       	ldd	r24, Z+4	; 0x04
     55a:	82 ff       	sbrs	r24, 2
     55c:	16 c0       	rjmp	.+44     	; 0x58a <usart_set_baudrate+0x58>

	/*
	 * Check if the hardware supports the given baud rate
	 */
	/* 8 = (2^0) * 8 * (2^0) = (2^BSCALE_MIN) * 8 * (BSEL_MIN) */
	max_rate = cpu_hz / 8;
     55e:	d9 01       	movw	r26, r18
     560:	c8 01       	movw	r24, r16
     562:	68 94       	set
     564:	12 f8       	bld	r1, 2
     566:	b6 95       	lsr	r27
     568:	a7 95       	ror	r26
     56a:	97 95       	ror	r25
     56c:	87 95       	ror	r24
     56e:	16 94       	lsr	r1
     570:	d1 f7       	brne	.-12     	; 0x566 <usart_set_baudrate+0x34>
	/* 4194304 = (2^7) * 8 * (2^12) = (2^BSCALE_MAX) * 8 * (BSEL_MAX+1) */
	min_rate = cpu_hz / 4194304;
     572:	b9 01       	movw	r22, r18
     574:	a8 01       	movw	r20, r16
     576:	03 2e       	mov	r0, r19
     578:	36 e1       	ldi	r19, 0x16	; 22
     57a:	76 95       	lsr	r23
     57c:	67 95       	ror	r22
     57e:	57 95       	ror	r21
     580:	47 95       	ror	r20
     582:	3a 95       	dec	r19
     584:	d1 f7       	brne	.-12     	; 0x57a <usart_set_baudrate+0x48>
     586:	30 2d       	mov	r19, r0
     588:	15 c0       	rjmp	.+42     	; 0x5b4 <usart_set_baudrate+0x82>

	if (!((usart)->CTRLB & USART_CLK2X_bm)) {
		max_rate /= 2;
     58a:	d9 01       	movw	r26, r18
     58c:	c8 01       	movw	r24, r16
     58e:	68 94       	set
     590:	13 f8       	bld	r1, 3
     592:	b6 95       	lsr	r27
     594:	a7 95       	ror	r26
     596:	97 95       	ror	r25
     598:	87 95       	ror	r24
     59a:	16 94       	lsr	r1
     59c:	d1 f7       	brne	.-12     	; 0x592 <usart_set_baudrate+0x60>
		min_rate /= 2;
     59e:	b9 01       	movw	r22, r18
     5a0:	a8 01       	movw	r20, r16
     5a2:	03 2e       	mov	r0, r19
     5a4:	37 e1       	ldi	r19, 0x17	; 23
     5a6:	76 95       	lsr	r23
     5a8:	67 95       	ror	r22
     5aa:	57 95       	ror	r21
     5ac:	47 95       	ror	r20
     5ae:	3a 95       	dec	r19
     5b0:	d1 f7       	brne	.-12     	; 0x5a6 <usart_set_baudrate+0x74>
     5b2:	30 2d       	mov	r19, r0
	}

	if ((baud > max_rate) || (baud < min_rate)) {
     5b4:	88 15       	cp	r24, r8
     5b6:	99 05       	cpc	r25, r9
     5b8:	aa 05       	cpc	r26, r10
     5ba:	bb 05       	cpc	r27, r11
     5bc:	08 f4       	brcc	.+2      	; 0x5c0 <usart_set_baudrate+0x8e>
     5be:	a6 c0       	rjmp	.+332    	; 0x70c <usart_set_baudrate+0x1da>
     5c0:	84 16       	cp	r8, r20
     5c2:	95 06       	cpc	r9, r21
     5c4:	a6 06       	cpc	r10, r22
     5c6:	b7 06       	cpc	r11, r23
     5c8:	08 f4       	brcc	.+2      	; 0x5cc <usart_set_baudrate+0x9a>
     5ca:	a2 c0       	rjmp	.+324    	; 0x710 <usart_set_baudrate+0x1de>
		return false;
	}

	/* Check if double speed is enabled. */
	if (!((usart)->CTRLB & USART_CLK2X_bm)) {
     5cc:	f7 01       	movw	r30, r14
     5ce:	84 81       	ldd	r24, Z+4	; 0x04
     5d0:	82 fd       	sbrc	r24, 2
     5d2:	04 c0       	rjmp	.+8      	; 0x5dc <usart_set_baudrate+0xaa>
		baud *= 2;
     5d4:	88 0c       	add	r8, r8
     5d6:	99 1c       	adc	r9, r9
     5d8:	aa 1c       	adc	r10, r10
     5da:	bb 1c       	adc	r11, r11
	}

	/* Find the lowest possible exponent. */
	limit = 0xfffU >> 4;
	ratio = cpu_hz / baud;
     5dc:	c3 01       	movw	r24, r6
     5de:	b2 01       	movw	r22, r4
     5e0:	a5 01       	movw	r20, r10
     5e2:	94 01       	movw	r18, r8
     5e4:	0e 94 2e 16 	call	0x2c5c	; 0x2c5c <__udivmodsi4>

	for (exp = -7; exp < 7; exp++) {
		if (ratio < limit) {
     5e8:	2f 3f       	cpi	r18, 0xFF	; 255
     5ea:	31 05       	cpc	r19, r1
     5ec:	41 05       	cpc	r20, r1
     5ee:	51 05       	cpc	r21, r1
     5f0:	08 f4       	brcc	.+2      	; 0x5f4 <usart_set_baudrate+0xc2>
     5f2:	90 c0       	rjmp	.+288    	; 0x714 <usart_set_baudrate+0x1e2>
     5f4:	8f ef       	ldi	r24, 0xFF	; 255
     5f6:	90 e0       	ldi	r25, 0x00	; 0
     5f8:	a0 e0       	ldi	r26, 0x00	; 0
     5fa:	b0 e0       	ldi	r27, 0x00	; 0
     5fc:	c9 ef       	ldi	r28, 0xF9	; 249
     5fe:	05 c0       	rjmp	.+10     	; 0x60a <usart_set_baudrate+0xd8>
     600:	28 17       	cp	r18, r24
     602:	39 07       	cpc	r19, r25
     604:	4a 07       	cpc	r20, r26
     606:	5b 07       	cpc	r21, r27
     608:	58 f0       	brcs	.+22     	; 0x620 <usart_set_baudrate+0xee>
			break;
		}

		limit <<= 1;
     60a:	88 0f       	add	r24, r24
     60c:	99 1f       	adc	r25, r25
     60e:	aa 1f       	adc	r26, r26
     610:	bb 1f       	adc	r27, r27

		if (exp < -3) {
     612:	cd 3f       	cpi	r28, 0xFD	; 253
     614:	0c f4       	brge	.+2      	; 0x618 <usart_set_baudrate+0xe6>
			limit |= 1;
     616:	81 60       	ori	r24, 0x01	; 1
     618:	cf 5f       	subi	r28, 0xFF	; 255

	/* Find the lowest possible exponent. */
	limit = 0xfffU >> 4;
	ratio = cpu_hz / baud;

	for (exp = -7; exp < 7; exp++) {
     61a:	c7 30       	cpi	r28, 0x07	; 7
     61c:	89 f7       	brne	.-30     	; 0x600 <usart_set_baudrate+0xce>
     61e:	4f c0       	rjmp	.+158    	; 0x6be <usart_set_baudrate+0x18c>
	 * point.
	 *
	 * The formula for calculating BSEL is slightly different when exp is
	 * negative than it is when exp is positive.
	 */
	if (exp < 0) {
     620:	cc 23       	and	r28, r28
     622:	0c f0       	brlt	.+2      	; 0x626 <usart_set_baudrate+0xf4>
     624:	4c c0       	rjmp	.+152    	; 0x6be <usart_set_baudrate+0x18c>
		/* We are supposed to subtract 1, then apply BSCALE. We want to
		 * apply BSCALE first, so we need to turn everything inside the
		 * parenthesis into a single fractional expression.
		 */
		cpu_hz -= 8 * baud;
     626:	d5 01       	movw	r26, r10
     628:	c4 01       	movw	r24, r8
     62a:	88 0f       	add	r24, r24
     62c:	99 1f       	adc	r25, r25
     62e:	aa 1f       	adc	r26, r26
     630:	bb 1f       	adc	r27, r27
     632:	88 0f       	add	r24, r24
     634:	99 1f       	adc	r25, r25
     636:	aa 1f       	adc	r26, r26
     638:	bb 1f       	adc	r27, r27
     63a:	88 0f       	add	r24, r24
     63c:	99 1f       	adc	r25, r25
     63e:	aa 1f       	adc	r26, r26
     640:	bb 1f       	adc	r27, r27
     642:	48 1a       	sub	r4, r24
     644:	59 0a       	sbc	r5, r25
     646:	6a 0a       	sbc	r6, r26
     648:	7b 0a       	sbc	r7, r27
		/* If we end up with a left-shift after taking the final
		 * divide-by-8 into account, do the shift before the divide.
		 * Otherwise, left-shift the denominator instead (effectively
		 * resulting in an overall right shift.)
		 */
		if (exp <= -3) {
     64a:	ce 3f       	cpi	r28, 0xFE	; 254
     64c:	f4 f4       	brge	.+60     	; 0x68a <usart_set_baudrate+0x158>
			div = ((cpu_hz << (-exp - 3)) + baud / 2) / baud;
     64e:	8d ef       	ldi	r24, 0xFD	; 253
     650:	9f ef       	ldi	r25, 0xFF	; 255
     652:	8c 1b       	sub	r24, r28
     654:	91 09       	sbc	r25, r1
     656:	c7 fd       	sbrc	r28, 7
     658:	93 95       	inc	r25
     65a:	04 c0       	rjmp	.+8      	; 0x664 <usart_set_baudrate+0x132>
     65c:	44 0c       	add	r4, r4
     65e:	55 1c       	adc	r5, r5
     660:	66 1c       	adc	r6, r6
     662:	77 1c       	adc	r7, r7
     664:	8a 95       	dec	r24
     666:	d2 f7       	brpl	.-12     	; 0x65c <usart_set_baudrate+0x12a>
     668:	d5 01       	movw	r26, r10
     66a:	c4 01       	movw	r24, r8
     66c:	b6 95       	lsr	r27
     66e:	a7 95       	ror	r26
     670:	97 95       	ror	r25
     672:	87 95       	ror	r24
     674:	bc 01       	movw	r22, r24
     676:	cd 01       	movw	r24, r26
     678:	64 0d       	add	r22, r4
     67a:	75 1d       	adc	r23, r5
     67c:	86 1d       	adc	r24, r6
     67e:	97 1d       	adc	r25, r7
     680:	a5 01       	movw	r20, r10
     682:	94 01       	movw	r18, r8
     684:	0e 94 2e 16 	call	0x2c5c	; 0x2c5c <__udivmodsi4>
     688:	37 c0       	rjmp	.+110    	; 0x6f8 <usart_set_baudrate+0x1c6>
		} else {
			baud <<= exp + 3;
     68a:	83 e0       	ldi	r24, 0x03	; 3
     68c:	8c 0f       	add	r24, r28
     68e:	a5 01       	movw	r20, r10
     690:	94 01       	movw	r18, r8
     692:	04 c0       	rjmp	.+8      	; 0x69c <usart_set_baudrate+0x16a>
     694:	22 0f       	add	r18, r18
     696:	33 1f       	adc	r19, r19
     698:	44 1f       	adc	r20, r20
     69a:	55 1f       	adc	r21, r21
     69c:	8a 95       	dec	r24
     69e:	d2 f7       	brpl	.-12     	; 0x694 <usart_set_baudrate+0x162>
			div = (cpu_hz + baud / 2) / baud;
     6a0:	da 01       	movw	r26, r20
     6a2:	c9 01       	movw	r24, r18
     6a4:	b6 95       	lsr	r27
     6a6:	a7 95       	ror	r26
     6a8:	97 95       	ror	r25
     6aa:	87 95       	ror	r24
     6ac:	bc 01       	movw	r22, r24
     6ae:	cd 01       	movw	r24, r26
     6b0:	64 0d       	add	r22, r4
     6b2:	75 1d       	adc	r23, r5
     6b4:	86 1d       	adc	r24, r6
     6b6:	97 1d       	adc	r25, r7
     6b8:	0e 94 2e 16 	call	0x2c5c	; 0x2c5c <__udivmodsi4>
     6bc:	1d c0       	rjmp	.+58     	; 0x6f8 <usart_set_baudrate+0x1c6>
		}
	} else {
		/* We will always do a right shift in this case, but we need to
		 * shift three extra positions because of the divide-by-8.
		 */
		baud <<= exp + 3;
     6be:	83 e0       	ldi	r24, 0x03	; 3
     6c0:	8c 0f       	add	r24, r28
     6c2:	a5 01       	movw	r20, r10
     6c4:	94 01       	movw	r18, r8
     6c6:	04 c0       	rjmp	.+8      	; 0x6d0 <usart_set_baudrate+0x19e>
     6c8:	22 0f       	add	r18, r18
     6ca:	33 1f       	adc	r19, r19
     6cc:	44 1f       	adc	r20, r20
     6ce:	55 1f       	adc	r21, r21
     6d0:	8a 95       	dec	r24
     6d2:	d2 f7       	brpl	.-12     	; 0x6c8 <usart_set_baudrate+0x196>
		div = (cpu_hz + baud / 2) / baud - 1;
     6d4:	da 01       	movw	r26, r20
     6d6:	c9 01       	movw	r24, r18
     6d8:	b6 95       	lsr	r27
     6da:	a7 95       	ror	r26
     6dc:	97 95       	ror	r25
     6de:	87 95       	ror	r24
     6e0:	bc 01       	movw	r22, r24
     6e2:	cd 01       	movw	r24, r26
     6e4:	64 0d       	add	r22, r4
     6e6:	75 1d       	adc	r23, r5
     6e8:	86 1d       	adc	r24, r6
     6ea:	97 1d       	adc	r25, r7
     6ec:	0e 94 2e 16 	call	0x2c5c	; 0x2c5c <__udivmodsi4>
     6f0:	21 50       	subi	r18, 0x01	; 1
     6f2:	31 09       	sbc	r19, r1
     6f4:	41 09       	sbc	r20, r1
     6f6:	51 09       	sbc	r21, r1
	}

	(usart)->BAUDCTRLB = (uint8_t)(((div >> 8) & 0X0F) | (exp << 4));
     6f8:	83 2f       	mov	r24, r19
     6fa:	8f 70       	andi	r24, 0x0F	; 15
     6fc:	c2 95       	swap	r28
     6fe:	c0 7f       	andi	r28, 0xF0	; 240
     700:	c8 2b       	or	r28, r24
     702:	f7 01       	movw	r30, r14
     704:	c7 83       	std	Z+7, r28	; 0x07
	(usart)->BAUDCTRLA = (uint8_t)div;
     706:	26 83       	std	Z+6, r18	; 0x06

	return true;
     708:	81 e0       	ldi	r24, 0x01	; 1
     70a:	18 c0       	rjmp	.+48     	; 0x73c <usart_set_baudrate+0x20a>
		max_rate /= 2;
		min_rate /= 2;
	}

	if ((baud > max_rate) || (baud < min_rate)) {
		return false;
     70c:	80 e0       	ldi	r24, 0x00	; 0
     70e:	16 c0       	rjmp	.+44     	; 0x73c <usart_set_baudrate+0x20a>
     710:	80 e0       	ldi	r24, 0x00	; 0
     712:	14 c0       	rjmp	.+40     	; 0x73c <usart_set_baudrate+0x20a>
	if (exp < 0) {
		/* We are supposed to subtract 1, then apply BSCALE. We want to
		 * apply BSCALE first, so we need to turn everything inside the
		 * parenthesis into a single fractional expression.
		 */
		cpu_hz -= 8 * baud;
     714:	d5 01       	movw	r26, r10
     716:	c4 01       	movw	r24, r8
     718:	88 0f       	add	r24, r24
     71a:	99 1f       	adc	r25, r25
     71c:	aa 1f       	adc	r26, r26
     71e:	bb 1f       	adc	r27, r27
     720:	88 0f       	add	r24, r24
     722:	99 1f       	adc	r25, r25
     724:	aa 1f       	adc	r26, r26
     726:	bb 1f       	adc	r27, r27
     728:	88 0f       	add	r24, r24
     72a:	99 1f       	adc	r25, r25
     72c:	aa 1f       	adc	r26, r26
     72e:	bb 1f       	adc	r27, r27
     730:	48 1a       	sub	r4, r24
     732:	59 0a       	sbc	r5, r25
     734:	6a 0a       	sbc	r6, r26
     736:	7b 0a       	sbc	r7, r27

	/* Find the lowest possible exponent. */
	limit = 0xfffU >> 4;
	ratio = cpu_hz / baud;

	for (exp = -7; exp < 7; exp++) {
     738:	c9 ef       	ldi	r28, 0xF9	; 249
     73a:	89 cf       	rjmp	.-238    	; 0x64e <usart_set_baudrate+0x11c>

	(usart)->BAUDCTRLB = (uint8_t)(((div >> 8) & 0X0F) | (exp << 4));
	(usart)->BAUDCTRLA = (uint8_t)div;

	return true;
}
     73c:	cf 91       	pop	r28
     73e:	1f 91       	pop	r17
     740:	0f 91       	pop	r16
     742:	ff 90       	pop	r15
     744:	ef 90       	pop	r14
     746:	bf 90       	pop	r11
     748:	af 90       	pop	r10
     74a:	9f 90       	pop	r9
     74c:	8f 90       	pop	r8
     74e:	7f 90       	pop	r7
     750:	6f 90       	pop	r6
     752:	5f 90       	pop	r5
     754:	4f 90       	pop	r4
     756:	08 95       	ret

00000758 <usart_init_rs232>:
 *
 * \retval true if the initialization was successfull
 * \retval false if the initialization failed (error in baud rate calculation)
 */
bool usart_init_rs232(USART_t *usart, const usart_rs232_options_t *opt)
{
     758:	0f 93       	push	r16
     75a:	1f 93       	push	r17
     75c:	cf 93       	push	r28
     75e:	df 93       	push	r29
     760:	ec 01       	movw	r28, r24
     762:	8b 01       	movw	r16, r22
 *
 * \param module Pointer to the module's base address.
 */
static inline void sysclk_enable_peripheral_clock(const volatile void *module)
{
	if (module == NULL) {
     764:	00 97       	sbiw	r24, 0x00	; 0
     766:	09 f4       	brne	.+2      	; 0x76a <usart_init_rs232+0x12>
     768:	be c0       	rjmp	.+380    	; 0x8e6 <usart_init_rs232+0x18e>
		Assert(false);
	}
#ifdef AES
	else if (module == &AES) {
     76a:	80 3c       	cpi	r24, 0xC0	; 192
     76c:	91 05       	cpc	r25, r1
     76e:	21 f4       	brne	.+8      	; 0x778 <usart_init_rs232+0x20>
		sysclk_enable_module(SYSCLK_PORT_GEN, SYSCLK_AES);
     770:	60 e1       	ldi	r22, 0x10	; 16
     772:	80 e0       	ldi	r24, 0x00	; 0
     774:	4a d3       	rcall	.+1684   	; 0xe0a <sysclk_enable_module>
     776:	b7 c0       	rjmp	.+366    	; 0x8e6 <usart_init_rs232+0x18e>
	else if (module == &EBI) {
		sysclk_enable_module(SYSCLK_PORT_GEN, SYSCLK_EBI);
	}
#endif
#ifdef RTC
	else if (module == &RTC) {
     778:	c1 15       	cp	r28, r1
     77a:	84 e0       	ldi	r24, 0x04	; 4
     77c:	d8 07       	cpc	r29, r24
     77e:	21 f4       	brne	.+8      	; 0x788 <usart_init_rs232+0x30>
		sysclk_enable_module(SYSCLK_PORT_GEN, SYSCLK_RTC);
     780:	64 e0       	ldi	r22, 0x04	; 4
     782:	80 e0       	ldi	r24, 0x00	; 0
     784:	42 d3       	rcall	.+1668   	; 0xe0a <sysclk_enable_module>
     786:	af c0       	rjmp	.+350    	; 0x8e6 <usart_init_rs232+0x18e>
	}
#endif
#ifdef EVSYS
	else if (module == &EVSYS) {
     788:	c0 38       	cpi	r28, 0x80	; 128
     78a:	e1 e0       	ldi	r30, 0x01	; 1
     78c:	de 07       	cpc	r29, r30
     78e:	21 f4       	brne	.+8      	; 0x798 <usart_init_rs232+0x40>
		sysclk_enable_module(SYSCLK_PORT_GEN, SYSCLK_EVSYS);
     790:	62 e0       	ldi	r22, 0x02	; 2
     792:	80 e0       	ldi	r24, 0x00	; 0
     794:	3a d3       	rcall	.+1652   	; 0xe0a <sysclk_enable_module>
     796:	a7 c0       	rjmp	.+334    	; 0x8e6 <usart_init_rs232+0x18e>
	}
#endif
#ifdef DMA
	else if (module == &DMA) {
     798:	c1 15       	cp	r28, r1
     79a:	f1 e0       	ldi	r31, 0x01	; 1
     79c:	df 07       	cpc	r29, r31
		sysclk_enable_module(SYSCLK_PORT_GEN, SYSCLK_DMA);
     79e:	21 f4       	brne	.+8      	; 0x7a8 <usart_init_rs232+0x50>
     7a0:	61 e0       	ldi	r22, 0x01	; 1
     7a2:	80 e0       	ldi	r24, 0x00	; 0
     7a4:	32 d3       	rcall	.+1636   	; 0xe0a <sysclk_enable_module>
     7a6:	9f c0       	rjmp	.+318    	; 0x8e6 <usart_init_rs232+0x18e>
	else if (module == &EDMA) {
		sysclk_enable_module(SYSCLK_PORT_GEN, SYSCLK_EDMA);
	}
#endif
#ifdef ACA
	else if (module == &ACA) {
     7a8:	c0 38       	cpi	r28, 0x80	; 128
     7aa:	83 e0       	ldi	r24, 0x03	; 3
     7ac:	d8 07       	cpc	r29, r24
		sysclk_enable_module(SYSCLK_PORT_A, SYSCLK_AC);
     7ae:	21 f4       	brne	.+8      	; 0x7b8 <usart_init_rs232+0x60>
     7b0:	61 e0       	ldi	r22, 0x01	; 1
     7b2:	81 e0       	ldi	r24, 0x01	; 1
     7b4:	2a d3       	rcall	.+1620   	; 0xe0a <sysclk_enable_module>
     7b6:	97 c0       	rjmp	.+302    	; 0x8e6 <usart_init_rs232+0x18e>
	else if (module == &ACB) {
		sysclk_enable_module(SYSCLK_PORT_B, SYSCLK_AC);
	}
#endif
#ifdef ADCA
	else if (module == &ADCA) {
     7b8:	c1 15       	cp	r28, r1
     7ba:	e2 e0       	ldi	r30, 0x02	; 2
     7bc:	de 07       	cpc	r29, r30
		sysclk_enable_module(SYSCLK_PORT_A, SYSCLK_ADC);
     7be:	21 f4       	brne	.+8      	; 0x7c8 <usart_init_rs232+0x70>
     7c0:	62 e0       	ldi	r22, 0x02	; 2
     7c2:	81 e0       	ldi	r24, 0x01	; 1
     7c4:	22 d3       	rcall	.+1604   	; 0xe0a <sysclk_enable_module>
     7c6:	8f c0       	rjmp	.+286    	; 0x8e6 <usart_init_rs232+0x18e>
	}
#endif
// Workaround for bad XMEGA D header file
#if !XMEGA_D
#ifdef DACB
	else if (module == &DACB) {
     7c8:	c0 32       	cpi	r28, 0x20	; 32
     7ca:	f3 e0       	ldi	r31, 0x03	; 3
     7cc:	df 07       	cpc	r29, r31
		sysclk_enable_module(SYSCLK_PORT_B, SYSCLK_DAC);
     7ce:	21 f4       	brne	.+8      	; 0x7d8 <usart_init_rs232+0x80>
     7d0:	64 e0       	ldi	r22, 0x04	; 4
     7d2:	82 e0       	ldi	r24, 0x02	; 2
     7d4:	1a d3       	rcall	.+1588   	; 0xe0a <sysclk_enable_module>
	}
#endif
#endif // Workaround end
#ifdef TCC0
	else if (module == &TCC0) {
     7d6:	87 c0       	rjmp	.+270    	; 0x8e6 <usart_init_rs232+0x18e>
     7d8:	c1 15       	cp	r28, r1
     7da:	88 e0       	ldi	r24, 0x08	; 8
     7dc:	d8 07       	cpc	r29, r24
		sysclk_enable_module(SYSCLK_PORT_C, SYSCLK_TC0);
     7de:	21 f4       	brne	.+8      	; 0x7e8 <usart_init_rs232+0x90>
     7e0:	61 e0       	ldi	r22, 0x01	; 1
     7e2:	83 e0       	ldi	r24, 0x03	; 3
     7e4:	12 d3       	rcall	.+1572   	; 0xe0a <sysclk_enable_module>
	}
#endif
#ifdef TCD0
	else if (module == &TCD0) {
     7e6:	7f c0       	rjmp	.+254    	; 0x8e6 <usart_init_rs232+0x18e>
     7e8:	c1 15       	cp	r28, r1
     7ea:	e9 e0       	ldi	r30, 0x09	; 9
     7ec:	de 07       	cpc	r29, r30
		sysclk_enable_module(SYSCLK_PORT_D, SYSCLK_TC0);
     7ee:	21 f4       	brne	.+8      	; 0x7f8 <usart_init_rs232+0xa0>
     7f0:	61 e0       	ldi	r22, 0x01	; 1
     7f2:	84 e0       	ldi	r24, 0x04	; 4
     7f4:	0a d3       	rcall	.+1556   	; 0xe0a <sysclk_enable_module>
	}
#endif
#ifdef TCE0
	else if (module == &TCE0) {
     7f6:	77 c0       	rjmp	.+238    	; 0x8e6 <usart_init_rs232+0x18e>
     7f8:	c1 15       	cp	r28, r1
     7fa:	fa e0       	ldi	r31, 0x0A	; 10
     7fc:	df 07       	cpc	r29, r31
		sysclk_enable_module(SYSCLK_PORT_E, SYSCLK_TC0);
     7fe:	21 f4       	brne	.+8      	; 0x808 <usart_init_rs232+0xb0>
     800:	61 e0       	ldi	r22, 0x01	; 1
     802:	85 e0       	ldi	r24, 0x05	; 5
     804:	02 d3       	rcall	.+1540   	; 0xe0a <sysclk_enable_module>
	else if (module == &TCF0) {
		sysclk_enable_module(SYSCLK_PORT_F, SYSCLK_TC0);
	}
#endif
#ifdef TCC1
	else if (module == &TCC1) {
     806:	6f c0       	rjmp	.+222    	; 0x8e6 <usart_init_rs232+0x18e>
     808:	c0 34       	cpi	r28, 0x40	; 64
     80a:	88 e0       	ldi	r24, 0x08	; 8
     80c:	d8 07       	cpc	r29, r24
		sysclk_enable_module(SYSCLK_PORT_C, SYSCLK_TC1);
     80e:	21 f4       	brne	.+8      	; 0x818 <usart_init_rs232+0xc0>
     810:	62 e0       	ldi	r22, 0x02	; 2
     812:	83 e0       	ldi	r24, 0x03	; 3
     814:	fa d2       	rcall	.+1524   	; 0xe0a <sysclk_enable_module>
	}
#endif
#ifdef TCD1
	else if (module == &TCD1) {
     816:	67 c0       	rjmp	.+206    	; 0x8e6 <usart_init_rs232+0x18e>
     818:	c0 34       	cpi	r28, 0x40	; 64
     81a:	e9 e0       	ldi	r30, 0x09	; 9
		sysclk_enable_module(SYSCLK_PORT_D, SYSCLK_TC1);
     81c:	de 07       	cpc	r29, r30
     81e:	21 f4       	brne	.+8      	; 0x828 <usart_init_rs232+0xd0>
     820:	62 e0       	ldi	r22, 0x02	; 2
     822:	84 e0       	ldi	r24, 0x04	; 4
     824:	f2 d2       	rcall	.+1508   	; 0xe0a <sysclk_enable_module>
	else if (module == &TCD5) {
		sysclk_enable_module(SYSCLK_PORT_D, SYSCLK_TC5);
	}
#endif
#ifdef HIRESC
	else if (module == &HIRESC) {
     826:	5f c0       	rjmp	.+190    	; 0x8e6 <usart_init_rs232+0x18e>
     828:	c0 39       	cpi	r28, 0x90	; 144
     82a:	f8 e0       	ldi	r31, 0x08	; 8
			sysclk_enable_module(SYSCLK_PORT_C, SYSCLK_HIRES);
     82c:	df 07       	cpc	r29, r31
     82e:	21 f4       	brne	.+8      	; 0x838 <usart_init_rs232+0xe0>
     830:	64 e0       	ldi	r22, 0x04	; 4
     832:	83 e0       	ldi	r24, 0x03	; 3
     834:	ea d2       	rcall	.+1492   	; 0xe0a <sysclk_enable_module>
	}
#endif
#ifdef HIRESD
	else if (module == &HIRESD) {
     836:	57 c0       	rjmp	.+174    	; 0x8e6 <usart_init_rs232+0x18e>
     838:	c0 39       	cpi	r28, 0x90	; 144
     83a:	89 e0       	ldi	r24, 0x09	; 9
		sysclk_enable_module(SYSCLK_PORT_D, SYSCLK_HIRES);
     83c:	d8 07       	cpc	r29, r24
     83e:	21 f4       	brne	.+8      	; 0x848 <usart_init_rs232+0xf0>
     840:	64 e0       	ldi	r22, 0x04	; 4
     842:	84 e0       	ldi	r24, 0x04	; 4
     844:	e2 d2       	rcall	.+1476   	; 0xe0a <sysclk_enable_module>
	}
#endif
#ifdef HIRESE
	else if (module == &HIRESE) {
     846:	4f c0       	rjmp	.+158    	; 0x8e6 <usart_init_rs232+0x18e>
     848:	c0 39       	cpi	r28, 0x90	; 144
     84a:	ea e0       	ldi	r30, 0x0A	; 10
		sysclk_enable_module(SYSCLK_PORT_E, SYSCLK_HIRES);
     84c:	de 07       	cpc	r29, r30
     84e:	21 f4       	brne	.+8      	; 0x858 <usart_init_rs232+0x100>
     850:	64 e0       	ldi	r22, 0x04	; 4
     852:	85 e0       	ldi	r24, 0x05	; 5
	else if (module == &HIRESF) {
		sysclk_enable_module(SYSCLK_PORT_F, SYSCLK_HIRES);
	}
#endif
#ifdef SPIC
	else if (module == &SPIC) {
     854:	da d2       	rcall	.+1460   	; 0xe0a <sysclk_enable_module>
     856:	47 c0       	rjmp	.+142    	; 0x8e6 <usart_init_rs232+0x18e>
     858:	c0 3c       	cpi	r28, 0xC0	; 192
     85a:	f8 e0       	ldi	r31, 0x08	; 8
		sysclk_enable_module(SYSCLK_PORT_C, SYSCLK_SPI);
     85c:	df 07       	cpc	r29, r31
     85e:	21 f4       	brne	.+8      	; 0x868 <usart_init_rs232+0x110>
     860:	68 e0       	ldi	r22, 0x08	; 8
     862:	83 e0       	ldi	r24, 0x03	; 3
	}
#endif
#ifdef SPID
	else if (module == &SPID) {
     864:	d2 d2       	rcall	.+1444   	; 0xe0a <sysclk_enable_module>
     866:	3f c0       	rjmp	.+126    	; 0x8e6 <usart_init_rs232+0x18e>
     868:	c0 3c       	cpi	r28, 0xC0	; 192
     86a:	89 e0       	ldi	r24, 0x09	; 9
		sysclk_enable_module(SYSCLK_PORT_D, SYSCLK_SPI);
     86c:	d8 07       	cpc	r29, r24
     86e:	21 f4       	brne	.+8      	; 0x878 <usart_init_rs232+0x120>
     870:	68 e0       	ldi	r22, 0x08	; 8
     872:	84 e0       	ldi	r24, 0x04	; 4
	else if (module == &SPIF) {
		sysclk_enable_module(SYSCLK_PORT_F, SYSCLK_SPI);
	}
#endif
#ifdef USARTC0
	else if (module == &USARTC0) {
     874:	ca d2       	rcall	.+1428   	; 0xe0a <sysclk_enable_module>
     876:	37 c0       	rjmp	.+110    	; 0x8e6 <usart_init_rs232+0x18e>
     878:	c0 3a       	cpi	r28, 0xA0	; 160
     87a:	e8 e0       	ldi	r30, 0x08	; 8
		sysclk_enable_module(SYSCLK_PORT_C, SYSCLK_USART0);
     87c:	de 07       	cpc	r29, r30
     87e:	21 f4       	brne	.+8      	; 0x888 <usart_init_rs232+0x130>
     880:	60 e1       	ldi	r22, 0x10	; 16
     882:	83 e0       	ldi	r24, 0x03	; 3
	}
#endif
#ifdef USARTD0
	else if (module == &USARTD0) {
     884:	c2 d2       	rcall	.+1412   	; 0xe0a <sysclk_enable_module>
     886:	2f c0       	rjmp	.+94     	; 0x8e6 <usart_init_rs232+0x18e>
     888:	c0 3a       	cpi	r28, 0xA0	; 160
     88a:	f9 e0       	ldi	r31, 0x09	; 9
		sysclk_enable_module(SYSCLK_PORT_D, SYSCLK_USART0);
     88c:	df 07       	cpc	r29, r31
     88e:	21 f4       	brne	.+8      	; 0x898 <usart_init_rs232+0x140>
     890:	60 e1       	ldi	r22, 0x10	; 16
     892:	84 e0       	ldi	r24, 0x04	; 4
	}
#endif
#ifdef USARTE0
	else if (module == &USARTE0) {
     894:	ba d2       	rcall	.+1396   	; 0xe0a <sysclk_enable_module>
     896:	27 c0       	rjmp	.+78     	; 0x8e6 <usart_init_rs232+0x18e>
     898:	c0 3a       	cpi	r28, 0xA0	; 160
		sysclk_enable_module(SYSCLK_PORT_E, SYSCLK_USART0);
     89a:	8a e0       	ldi	r24, 0x0A	; 10
     89c:	d8 07       	cpc	r29, r24
     89e:	21 f4       	brne	.+8      	; 0x8a8 <usart_init_rs232+0x150>
     8a0:	60 e1       	ldi	r22, 0x10	; 16
     8a2:	85 e0       	ldi	r24, 0x05	; 5
	else if (module == &USARTF0) {
		sysclk_enable_module(SYSCLK_PORT_F, SYSCLK_USART0);
	}
#endif
#ifdef USARTC1
	else if (module == &USARTC1) {
     8a4:	b2 d2       	rcall	.+1380   	; 0xe0a <sysclk_enable_module>
     8a6:	1f c0       	rjmp	.+62     	; 0x8e6 <usart_init_rs232+0x18e>
     8a8:	c0 3b       	cpi	r28, 0xB0	; 176
		sysclk_enable_module(SYSCLK_PORT_C, SYSCLK_USART1);
     8aa:	e8 e0       	ldi	r30, 0x08	; 8
     8ac:	de 07       	cpc	r29, r30
     8ae:	21 f4       	brne	.+8      	; 0x8b8 <usart_init_rs232+0x160>
     8b0:	60 e2       	ldi	r22, 0x20	; 32
     8b2:	83 e0       	ldi	r24, 0x03	; 3
	}
#endif
#ifdef USARTD1
	else if (module == &USARTD1) {
     8b4:	aa d2       	rcall	.+1364   	; 0xe0a <sysclk_enable_module>
     8b6:	17 c0       	rjmp	.+46     	; 0x8e6 <usart_init_rs232+0x18e>
     8b8:	c0 3b       	cpi	r28, 0xB0	; 176
		sysclk_enable_module(SYSCLK_PORT_D, SYSCLK_USART1);
     8ba:	f9 e0       	ldi	r31, 0x09	; 9
     8bc:	df 07       	cpc	r29, r31
     8be:	21 f4       	brne	.+8      	; 0x8c8 <usart_init_rs232+0x170>
     8c0:	60 e2       	ldi	r22, 0x20	; 32
     8c2:	84 e0       	ldi	r24, 0x04	; 4
	else if (module == &USARTF1) {
		sysclk_enable_module(SYSCLK_PORT_F, SYSCLK_USART1);
	}
#endif
#ifdef TWIC
	else if (module == &TWIC) {
     8c4:	a2 d2       	rcall	.+1348   	; 0xe0a <sysclk_enable_module>
     8c6:	0f c0       	rjmp	.+30     	; 0x8e6 <usart_init_rs232+0x18e>
     8c8:	c0 38       	cpi	r28, 0x80	; 128
     8ca:	84 e0       	ldi	r24, 0x04	; 4
		sysclk_enable_module(SYSCLK_PORT_C, SYSCLK_TWI);
     8cc:	d8 07       	cpc	r29, r24
     8ce:	21 f4       	brne	.+8      	; 0x8d8 <usart_init_rs232+0x180>
     8d0:	60 e4       	ldi	r22, 0x40	; 64
     8d2:	83 e0       	ldi	r24, 0x03	; 3
     8d4:	9a d2       	rcall	.+1332   	; 0xe0a <sysclk_enable_module>
	else if (module == &TWID) {
		sysclk_enable_module(SYSCLK_PORT_D, SYSCLK_TWI);
	}
#endif
#ifdef TWIE
	else if (module == &TWIE) {
     8d6:	07 c0       	rjmp	.+14     	; 0x8e6 <usart_init_rs232+0x18e>
     8d8:	c0 3a       	cpi	r28, 0xA0	; 160
     8da:	e4 e0       	ldi	r30, 0x04	; 4
     8dc:	de 07       	cpc	r29, r30
		sysclk_enable_module(SYSCLK_PORT_E, SYSCLK_TWI);
     8de:	19 f4       	brne	.+6      	; 0x8e6 <usart_init_rs232+0x18e>
     8e0:	60 e4       	ldi	r22, 0x40	; 64
     8e2:	85 e0       	ldi	r24, 0x05	; 5
 * - 0x2        : IrDA mode.
 * - 0x3        : Master SPI mode.
 */
static inline void usart_set_mode(USART_t *usart, USART_CMODE_t usartmode)
{
	(usart)->CTRLC = ((usart)->CTRLC & (~USART_CMODE_gm)) | usartmode;
     8e4:	92 d2       	rcall	.+1316   	; 0xe0a <sysclk_enable_module>
     8e6:	8d 81       	ldd	r24, Y+5	; 0x05
     8e8:	8f 73       	andi	r24, 0x3F	; 63
 *  \param twoStopBits Enable two stop bit mode. Use bool type.
 */
static inline void usart_format_set(USART_t *usart, USART_CHSIZE_t charSize,
		USART_PMODE_t parityMode, bool twoStopBits)
{
	(usart)->CTRLC = (uint8_t)charSize | parityMode
     8ea:	8d 83       	std	Y+5, r24	; 0x05
     8ec:	f8 01       	movw	r30, r16
     8ee:	95 81       	ldd	r25, Z+5	; 0x05
     8f0:	84 81       	ldd	r24, Z+4	; 0x04
     8f2:	89 2b       	or	r24, r25
     8f4:	96 81       	ldd	r25, Z+6	; 0x06
     8f6:	91 11       	cpse	r25, r1
     8f8:	98 e0       	ldi	r25, 0x08	; 8
     8fa:	89 2b       	or	r24, r25
	bool result;
	sysclk_enable_peripheral_clock(usart);
	usart_set_mode(usart, USART_CMODE_ASYNCHRONOUS_gc);
	usart_format_set(usart, opt->charlength, opt->paritytype,
			opt->stopbits);
	result = usart_set_baudrate(usart, opt->baudrate, sysclk_get_per_hz());
     8fc:	8d 83       	std	Y+5, r24	; 0x05
     8fe:	f8 01       	movw	r30, r16
     900:	40 81       	ld	r20, Z
     902:	51 81       	ldd	r21, Z+1	; 0x01
     904:	62 81       	ldd	r22, Z+2	; 0x02
     906:	73 81       	ldd	r23, Z+3	; 0x03
     908:	00 e0       	ldi	r16, 0x00	; 0
     90a:	18 e4       	ldi	r17, 0x48	; 72
     90c:	28 ee       	ldi	r18, 0xE8	; 232
     90e:	31 e0       	ldi	r19, 0x01	; 1
     910:	ce 01       	movw	r24, r28
     912:	0f de       	rcall	.-994    	; 0x532 <usart_set_baudrate>
 *
 * \param usart Pointer to the USART module.
 */
static inline void usart_tx_enable(USART_t *usart)
{
	(usart)->CTRLB |= USART_TXEN_bm;
     914:	9c 81       	ldd	r25, Y+4	; 0x04
     916:	98 60       	ori	r25, 0x08	; 8
     918:	9c 83       	std	Y+4, r25	; 0x04
 *
 * \param usart Pointer to the USART module
 */
static inline void usart_rx_enable(USART_t *usart)
{
	(usart)->CTRLB |= USART_RXEN_bm;
     91a:	9c 81       	ldd	r25, Y+4	; 0x04
     91c:	90 61       	ori	r25, 0x10	; 16
     91e:	9c 83       	std	Y+4, r25	; 0x04
	usart_tx_enable(usart);
	usart_rx_enable(usart);
	
	return result;
}
     920:	df 91       	pop	r29
     922:	cf 91       	pop	r28
     924:	1f 91       	pop	r17
     926:	0f 91       	pop	r16
     928:	08 95       	ret

0000092a <hall_sensor_init>:
 */ 

#include <asf.h>
#include "hall.h"

void hall_sensor_init(void){
     92a:	08 95       	ret

0000092c <cam_init>:

#include "spy_cam.h"
#include <asf.h>

void cam_init(void){
	PORTA.DIR |= 0x08; // Sets A3 to output
     92c:	e0 e0       	ldi	r30, 0x00	; 0
     92e:	f6 e0       	ldi	r31, 0x06	; 6
     930:	80 81       	ld	r24, Z
     932:	88 60       	ori	r24, 0x08	; 8
     934:	80 83       	st	Z, r24
     936:	08 95       	ret

00000938 <cam_switch>:
}

void cam_switch(void){
	PORTA.OUT ^= 0x08; // Changes A3 from high to low or vice-versa
     938:	e0 e0       	ldi	r30, 0x00	; 0
     93a:	f6 e0       	ldi	r31, 0x06	; 6
     93c:	94 81       	ldd	r25, Z+4	; 0x04
     93e:	88 e0       	ldi	r24, 0x08	; 8
     940:	89 27       	eor	r24, r25
     942:	84 83       	std	Z+4, r24	; 0x04
     944:	08 95       	ret

00000946 <gps_uart_init>:

#include <asf.h>
#include <string.h>
#include "mt3339.h"

void gps_uart_init(void){
     946:	cf 93       	push	r28
     948:	df 93       	push	r29
     94a:	cd b7       	in	r28, 0x3d	; 61
     94c:	de b7       	in	r29, 0x3e	; 62
     94e:	27 97       	sbiw	r28, 0x07	; 7
     950:	cd bf       	out	0x3d, r28	; 61
     952:	de bf       	out	0x3e, r29	; 62
		sysclk_enable_module(SYSCLK_PORT_C, SYSCLK_USART1);
	}
#endif
#ifdef USARTD1
	else if (module == &USARTD1) {
		sysclk_enable_module(SYSCLK_PORT_D, SYSCLK_USART1);
     954:	60 e2       	ldi	r22, 0x20	; 32
     956:	84 e0       	ldi	r24, 0x04	; 4
     958:	58 d2       	rcall	.+1200   	; 0xe0a <sysclk_enable_module>
		.charlength =	GPS_TERMINAL_SERIAL_CHAR_LEN,
		.paritytype =	GPS_TERMINAL_SERIAL_PARITY,
		.stopbits	=	GPS_TERMINAL_SERIAL_STOP_BIT
	};
	
	GPS_TERMINAL_PORT.DIR |= GPS_TERMINAL_TX_PIN; // Puts pin to output
     95a:	e0 e6       	ldi	r30, 0x60	; 96
     95c:	f6 e0       	ldi	r31, 0x06	; 6
     95e:	80 81       	ld	r24, Z
     960:	80 68       	ori	r24, 0x80	; 128
     962:	80 83       	st	Z, r24
static inline bool usart_serial_init(usart_if usart, const
		usart_serial_options_t *options)
{
	// USART options.
	usart_rs232_options_t usart_rs232_options;
	usart_rs232_options.charlength   = options->charlength;
     964:	e6 e0       	ldi	r30, 0x06	; 6
     966:	f0 e2       	ldi	r31, 0x20	; 32
     968:	84 81       	ldd	r24, Z+4	; 0x04
     96a:	8d 83       	std	Y+5, r24	; 0x05
	usart_rs232_options.paritytype   = options->paritytype;
     96c:	85 81       	ldd	r24, Z+5	; 0x05
     96e:	8e 83       	std	Y+6, r24	; 0x06
	usart_rs232_options.stopbits     = options->stopbits;
     970:	86 81       	ldd	r24, Z+6	; 0x06
     972:	8f 83       	std	Y+7, r24	; 0x07
	usart_rs232_options.baudrate     = options->baudrate;
     974:	80 81       	ld	r24, Z
     976:	91 81       	ldd	r25, Z+1	; 0x01
     978:	a2 81       	ldd	r26, Z+2	; 0x02
     97a:	b3 81       	ldd	r27, Z+3	; 0x03
     97c:	89 83       	std	Y+1, r24	; 0x01
     97e:	9a 83       	std	Y+2, r25	; 0x02
     980:	ab 83       	std	Y+3, r26	; 0x03
     982:	bc 83       	std	Y+4, r27	; 0x04
		sysclk_enable_module(SYSCLK_PORT_D,PR_USART0_bm);
	}
#endif
#ifdef USARTD1
	if((uint16_t)usart == (uint16_t)&USARTD1) {
		sysclk_enable_module(SYSCLK_PORT_D,PR_USART1_bm);
     984:	60 e2       	ldi	r22, 0x20	; 32
     986:	84 e0       	ldi	r24, 0x04	; 4
     988:	40 d2       	rcall	.+1152   	; 0xe0a <sysclk_enable_module>
#ifdef USARTF1
	if((uint16_t)usart == (uint16_t)&USARTF1) {
		sysclk_enable_module(SYSCLK_PORT_F,PR_USART1_bm);
	}
#endif
	if (usart_init_rs232(usart, &usart_rs232_options)) {
     98a:	be 01       	movw	r22, r28
     98c:	6f 5f       	subi	r22, 0xFF	; 255
     98e:	7f 4f       	sbci	r23, 0xFF	; 255
     990:	80 eb       	ldi	r24, 0xB0	; 176
     992:	99 e0       	ldi	r25, 0x09	; 9
     994:	e1 de       	rcall	.-574    	; 0x758 <usart_init_rs232>
	
	usart_serial_init(GPS_TERMINAL_SERIAL,&gps_config);
}
     996:	27 96       	adiw	r28, 0x07	; 7
     998:	cd bf       	out	0x3d, r28	; 61
     99a:	de bf       	out	0x3e, r29	; 62
     99c:	df 91       	pop	r29
     99e:	cf 91       	pop	r28
     9a0:	08 95       	ret

000009a2 <__portable_avr_delay_cycles>:
 *
 * @{
 */
__always_optimize
static inline void __portable_avr_delay_cycles(unsigned long n)
{
     9a2:	04 c0       	rjmp	.+8      	; 0x9ac <__portable_avr_delay_cycles+0xa>
	while (n) {
		barrier();
		n--;
     9a4:	61 50       	subi	r22, 0x01	; 1
     9a6:	71 09       	sbc	r23, r1
     9a8:	81 09       	sbc	r24, r1
     9aa:	91 09       	sbc	r25, r1
 * @{
 */
__always_optimize
static inline void __portable_avr_delay_cycles(unsigned long n)
{
	while (n) {
     9ac:	61 15       	cp	r22, r1
     9ae:	71 05       	cpc	r23, r1
     9b0:	81 05       	cpc	r24, r1
     9b2:	91 05       	cpc	r25, r1
     9b4:	b9 f7       	brne	.-18     	; 0x9a4 <__portable_avr_delay_cycles+0x2>
     9b6:	08 95       	ret

000009b8 <flip_ms5607>:
	
	return rx_data;
}

void flip_ms5607(void){
	MS5607_PORT.OUT ^= MS5607_PIN;
     9b8:	e0 e4       	ldi	r30, 0x40	; 64
     9ba:	f6 e0       	ldi	r31, 0x06	; 6
     9bc:	94 81       	ldd	r25, Z+4	; 0x04
     9be:	80 e1       	ldi	r24, 0x10	; 16
     9c0:	89 27       	eor	r24, r25
     9c2:	84 83       	std	Z+4, r24	; 0x04
     9c4:	08 95       	ret

000009c6 <ms5607_init>:
#include <asf.h>
#include "ms5607.h"
#include "spi_controller.h"

void ms5607_init(void){
	PORTC.OUT |= 0x10; // makes the 4th pin on Port C be set on high (0b00010000)
     9c6:	e0 e4       	ldi	r30, 0x40	; 64
     9c8:	f6 e0       	ldi	r31, 0x06	; 6
     9ca:	84 81       	ldd	r24, Z+4	; 0x04
     9cc:	80 61       	ori	r24, 0x10	; 16
     9ce:	84 83       	std	Z+4, r24	; 0x04
	delay_ms(5);
     9d0:	6b e2       	ldi	r22, 0x2B	; 43
     9d2:	78 e6       	ldi	r23, 0x68	; 104
     9d4:	80 e0       	ldi	r24, 0x00	; 0
     9d6:	90 e0       	ldi	r25, 0x00	; 0
     9d8:	e4 df       	rcall	.-56     	; 0x9a2 <__portable_avr_delay_cycles>
	
	// Resets the ms5607
	flip_ms5607();
     9da:	ee df       	rcall	.-36     	; 0x9b8 <flip_ms5607>
	spi_write(CMD_MS5607_RESET);
     9dc:	8e e1       	ldi	r24, 0x1E	; 30
     9de:	82 d0       	rcall	.+260    	; 0xae4 <spi_write>
     9e0:	60 e8       	ldi	r22, 0x80	; 128
	delay_ms(3);
     9e2:	7e e3       	ldi	r23, 0x3E	; 62
     9e4:	80 e0       	ldi	r24, 0x00	; 0
     9e6:	90 e0       	ldi	r25, 0x00	; 0
     9e8:	dc df       	rcall	.-72     	; 0x9a2 <__portable_avr_delay_cycles>
	flip_ms5607();
     9ea:	e6 df       	rcall	.-52     	; 0x9b8 <flip_ms5607>
	delay_ms(2);
     9ec:	6b ea       	ldi	r22, 0xAB	; 171
     9ee:	79 e2       	ldi	r23, 0x29	; 41
     9f0:	80 e0       	ldi	r24, 0x00	; 0
     9f2:	90 e0       	ldi	r25, 0x00	; 0
     9f4:	d6 cf       	rjmp	.-84     	; 0x9a2 <__portable_avr_delay_cycles>
     9f6:	08 95       	ret

000009f8 <ms5607_read>:
     9f8:	cf 93       	push	r28
}

uint16_t ms5607_read(uint16_t comm)
{
     9fa:	df 93       	push	r29
     9fc:	c8 2f       	mov	r28, r24
	uint16_t rx_data = 0; // temporary 16-bit value
	flip_ms5607(); // select our spi device
     9fe:	dc df       	rcall	.-72     	; 0x9b8 <flip_ms5607>
	spi_write(comm); // write a specified command to ask for data
     a00:	8c 2f       	mov	r24, r28
	
	/*typecast this expression from an 8-bit to a 16-bit and shift it 8 bits to the left
	  meaning the returned value is now in the upper 8 bits rx_data*/
	rx_data = (uint16_t)spi_read()<<8; 
     a02:	70 d0       	rcall	.+224    	; 0xae4 <spi_write>
     a04:	5f d0       	rcall	.+190    	; 0xac4 <spi_read>
     a06:	c8 2f       	mov	r28, r24
     a08:	d0 e0       	ldi	r29, 0x00	; 0
     a0a:	dc 2f       	mov	r29, r28
	
	// OR the second byte with the 16-bit variable, the returned value is now in the lower 8 bits of 'rx_data'
	rx_data |= spi_read(); 
     a0c:	cc 27       	eor	r28, r28
     a0e:	5a d0       	rcall	.+180    	; 0xac4 <spi_read>
     a10:	c8 2b       	or	r28, r24
	
	flip_ms5607(); // end spi exchange
     a12:	d2 df       	rcall	.-92     	; 0x9b8 <flip_ms5607>
     a14:	ce 01       	movw	r24, r28
	
	return rx_data; // return the 16-bit value
}
     a16:	df 91       	pop	r29
     a18:	cf 91       	pop	r28
     a1a:	08 95       	ret

00000a1c <ms5607_convert_d1>:
     a1c:	cf 92       	push	r12

uint32_t ms5607_convert_d1(void)
{
     a1e:	df 92       	push	r13
     a20:	ef 92       	push	r14
     a22:	ff 92       	push	r15
	uint32_t rx_data = 0; // temporary 16-bit value
	// CONVERT D1
	flip_ms5607(); // select our spi device
     a24:	c9 df       	rcall	.-110    	; 0x9b8 <flip_ms5607>
	spi_write(CMD_MS5607_D1_4096); // write a specified command to ask for data
     a26:	88 e4       	ldi	r24, 0x48	; 72
     a28:	5d d0       	rcall	.+186    	; 0xae4 <spi_write>
	delay_ms(10);
     a2a:	66 e5       	ldi	r22, 0x56	; 86
     a2c:	70 ed       	ldi	r23, 0xD0	; 208
     a2e:	80 e0       	ldi	r24, 0x00	; 0
     a30:	90 e0       	ldi	r25, 0x00	; 0
	flip_ms5607();
     a32:	b7 df       	rcall	.-146    	; 0x9a2 <__portable_avr_delay_cycles>
	
	flip_ms5607();
     a34:	c1 df       	rcall	.-126    	; 0x9b8 <flip_ms5607>
     a36:	c0 df       	rcall	.-128    	; 0x9b8 <flip_ms5607>
	spi_write(CMD_MS5607_READ_ADC);
     a38:	80 e0       	ldi	r24, 0x00	; 0
     a3a:	54 d0       	rcall	.+168    	; 0xae4 <spi_write>
     a3c:	43 d0       	rcall	.+134    	; 0xac4 <spi_read>
	rx_data  = (uint32_t) spi_read()<<16;
     a3e:	c8 2e       	mov	r12, r24
     a40:	d1 2c       	mov	r13, r1
     a42:	e1 2c       	mov	r14, r1
     a44:	f1 2c       	mov	r15, r1
     a46:	76 01       	movw	r14, r12
     a48:	dd 24       	eor	r13, r13
	rx_data |= (uint32_t) spi_read()<<8;
     a4a:	cc 24       	eor	r12, r12
     a4c:	3b d0       	rcall	.+118    	; 0xac4 <spi_read>
     a4e:	d8 2a       	or	r13, r24
	rx_data |= spi_read();
     a50:	39 d0       	rcall	.+114    	; 0xac4 <spi_read>
     a52:	c8 2a       	or	r12, r24
     a54:	b1 df       	rcall	.-158    	; 0x9b8 <flip_ms5607>
	flip_ms5607();
     a56:	c7 01       	movw	r24, r14
     a58:	b6 01       	movw	r22, r12
	
	return rx_data;
}
     a5a:	ff 90       	pop	r15
     a5c:	ef 90       	pop	r14
     a5e:	df 90       	pop	r13
     a60:	cf 90       	pop	r12
     a62:	08 95       	ret

00000a64 <ms5607_convert_d2>:
     a64:	cf 92       	push	r12
     a66:	df 92       	push	r13

uint32_t ms5607_convert_d2(void)
{
     a68:	ef 92       	push	r14
     a6a:	ff 92       	push	r15
	uint32_t rx_data = 0; // temporary 16-bit value
	// CONVERT D2
	flip_ms5607(); // select our spi device
     a6c:	a5 df       	rcall	.-182    	; 0x9b8 <flip_ms5607>
	spi_write(CMD_MS5607_D2_4096); // write a specified command to ask for data
     a6e:	88 e5       	ldi	r24, 0x58	; 88
     a70:	39 d0       	rcall	.+114    	; 0xae4 <spi_write>
	delay_ms(10);
     a72:	66 e5       	ldi	r22, 0x56	; 86
     a74:	70 ed       	ldi	r23, 0xD0	; 208
     a76:	80 e0       	ldi	r24, 0x00	; 0
     a78:	90 e0       	ldi	r25, 0x00	; 0
	flip_ms5607();
     a7a:	93 df       	rcall	.-218    	; 0x9a2 <__portable_avr_delay_cycles>
	
	flip_ms5607();
     a7c:	9d df       	rcall	.-198    	; 0x9b8 <flip_ms5607>
     a7e:	9c df       	rcall	.-200    	; 0x9b8 <flip_ms5607>
	spi_write(CMD_MS5607_READ_ADC);
     a80:	80 e0       	ldi	r24, 0x00	; 0
     a82:	30 d0       	rcall	.+96     	; 0xae4 <spi_write>
     a84:	1f d0       	rcall	.+62     	; 0xac4 <spi_read>
	rx_data  = (uint32_t) spi_read()<<16;
     a86:	c8 2e       	mov	r12, r24
     a88:	d1 2c       	mov	r13, r1
     a8a:	e1 2c       	mov	r14, r1
     a8c:	f1 2c       	mov	r15, r1
     a8e:	76 01       	movw	r14, r12
     a90:	dd 24       	eor	r13, r13
	rx_data |= (uint32_t) spi_read()<<8;
     a92:	cc 24       	eor	r12, r12
     a94:	17 d0       	rcall	.+46     	; 0xac4 <spi_read>
     a96:	d8 2a       	or	r13, r24
	rx_data |= spi_read();
     a98:	15 d0       	rcall	.+42     	; 0xac4 <spi_read>
     a9a:	c8 2a       	or	r12, r24
     a9c:	8d df       	rcall	.-230    	; 0x9b8 <flip_ms5607>
	flip_ms5607();
     a9e:	c7 01       	movw	r24, r14
     aa0:	b6 01       	movw	r22, r12
	
	return rx_data;
}
     aa2:	ff 90       	pop	r15
     aa4:	ef 90       	pop	r14
     aa6:	df 90       	pop	r13
     aa8:	cf 90       	pop	r12
     aaa:	08 95       	ret

00000aac <spi_init>:
     aac:	68 e0       	ldi	r22, 0x08	; 8
     aae:	83 e0       	ldi	r24, 0x03	; 3
	PORTC.DIR |= 0b10110000; 
}

void spi_select(uint8_t port)
{
	PORTC.OUT ^= port; //switches SS
     ab0:	ac d1       	rcall	.+856    	; 0xe0a <sysclk_enable_module>
     ab2:	81 e5       	ldi	r24, 0x51	; 81
     ab4:	80 93 c0 08 	sts	0x08C0, r24	; 0x8008c0 <__TEXT_REGION_LENGTH__+0x7008c0>
     ab8:	e0 e4       	ldi	r30, 0x40	; 64
     aba:	f6 e0       	ldi	r31, 0x06	; 6
     abc:	80 81       	ld	r24, Z
     abe:	80 6b       	ori	r24, 0xB0	; 176
     ac0:	80 83       	st	Z, r24
     ac2:	08 95       	ret

00000ac4 <spi_read>:

uint8_t spi_read(void)
{
	uint8_t iter_max = 100;
	uint8_t count = 0;
	SPIC.DATA = 0xFF; // make the DATA register something we know
     ac4:	e0 ec       	ldi	r30, 0xC0	; 192
     ac6:	f8 e0       	ldi	r31, 0x08	; 8
     ac8:	8f ef       	ldi	r24, 0xFF	; 255
     aca:	83 83       	std	Z+3, r24	; 0x03
	while(!(SPIC.STATUS>>7) && count < iter_max){ // wait for the SPI interrupt flag to let us know the transfer is complete
     acc:	82 81       	ldd	r24, Z+2	; 0x02
     ace:	88 23       	and	r24, r24
     ad0:	34 f0       	brlt	.+12     	; 0xade <spi_read+0x1a>
     ad2:	84 e6       	ldi	r24, 0x64	; 100
     ad4:	92 81       	ldd	r25, Z+2	; 0x02
     ad6:	99 23       	and	r25, r25
     ad8:	14 f0       	brlt	.+4      	; 0xade <spi_read+0x1a>
     ada:	81 50       	subi	r24, 0x01	; 1
     adc:	d9 f7       	brne	.-10     	; 0xad4 <spi_read+0x10>
		count++;	
	}
	
	return SPIC.DATA; // return the data from this function
     ade:	80 91 c3 08 	lds	r24, 0x08C3	; 0x8008c3 <__TEXT_REGION_LENGTH__+0x7008c3>
}
     ae2:	08 95       	ret

00000ae4 <spi_write>:

void spi_write(uint8_t data)
{
	SPIC.DATA = data; // write the data we want to send to the data register
     ae4:	80 93 c3 08 	sts	0x08C3, r24	; 0x8008c3 <__TEXT_REGION_LENGTH__+0x7008c3>
	while(!(SPIC.STATUS>>7)); // wait to ensure the data is sent before we do anything else
     ae8:	e0 ec       	ldi	r30, 0xC0	; 192
     aea:	f8 e0       	ldi	r31, 0x08	; 8
     aec:	82 81       	ldd	r24, Z+2	; 0x02
     aee:	88 23       	and	r24, r24
     af0:	ec f7       	brge	.-6      	; 0xaec <spi_write+0x8>
     af2:	08 95       	ret

00000af4 <usart_serial_getchar>:
 * \param usart   Base address of the USART instance.
 * \param data   Data to read
 *
 */
static inline void usart_serial_getchar(usart_if usart, uint8_t *data)
{
     af4:	cf 93       	push	r28
     af6:	df 93       	push	r29
     af8:	eb 01       	movw	r28, r22
	*data = usart_getchar(usart);
     afa:	15 dd       	rcall	.-1494   	; 0x526 <usart_getchar>
     afc:	88 83       	st	Y, r24
}
     afe:	df 91       	pop	r29
     b00:	cf 91       	pop	r28
     b02:	08 95       	ret

00000b04 <usart_serial_putchar>:
 *
 * \return Status code
 */
static inline enum status_code usart_serial_putchar(usart_if usart, uint8_t c)
{
	return usart_putchar(usart, c);
     b04:	08 cd       	rjmp	.-1520   	; 0x516 <usart_putchar>
}
     b06:	08 95       	ret

00000b08 <data_terminal_init>:

#include <asf.h>
#include "data_logger.h"

void data_terminal_init()
{
     b08:	cf 93       	push	r28
     b0a:	df 93       	push	r29
     b0c:	cd b7       	in	r28, 0x3d	; 61
     b0e:	de b7       	in	r29, 0x3e	; 62
     b10:	27 97       	sbiw	r28, 0x07	; 7
     b12:	cd bf       	out	0x3d, r28	; 61
     b14:	de bf       	out	0x3e, r29	; 62
		sysclk_enable_module(SYSCLK_PORT_D, SYSCLK_USART0);
	}
#endif
#ifdef USARTE0
	else if (module == &USARTE0) {
		sysclk_enable_module(SYSCLK_PORT_E, SYSCLK_USART0);
     b16:	60 e1       	ldi	r22, 0x10	; 16
     b18:	85 e0       	ldi	r24, 0x05	; 5
     b1a:	77 d1       	rcall	.+750    	; 0xe0a <sysclk_enable_module>
		.charlength =	UART_TERMINAL_SERIAL_CHAR_LEN,
		.paritytype =	UART_TERMINAL_SERIAL_PARITY,
		.stopbits	=	UART_TERMINAL_SERIAL_STOP_BIT
	};
	
	UART_TERMINAL_PORT.DIR |= UART_TERMINAL_TX_PIN;	// set the USART transmit pin to output
     b1c:	e0 e8       	ldi	r30, 0x80	; 128
     b1e:	f6 e0       	ldi	r31, 0x06	; 6
     b20:	80 81       	ld	r24, Z
     b22:	88 60       	ori	r24, 0x08	; 8
     b24:	80 83       	st	Z, r24
 * \param opt         Options needed to set up RS232 communication (see \ref usart_options_t).
 *
 */
static inline void stdio_serial_init(volatile void *usart, const usart_serial_options_t *opt)
{
	stdio_base = (void *)usart;
     b26:	80 ea       	ldi	r24, 0xA0	; 160
     b28:	9a e0       	ldi	r25, 0x0A	; 10
     b2a:	80 93 0a 21 	sts	0x210A, r24	; 0x80210a <stdio_base>
     b2e:	90 93 0b 21 	sts	0x210B, r25	; 0x80210b <stdio_base+0x1>
	ptr_put = (int (*)(void volatile*,char))&usart_serial_putchar;
     b32:	82 e8       	ldi	r24, 0x82	; 130
     b34:	95 e0       	ldi	r25, 0x05	; 5
     b36:	80 93 08 21 	sts	0x2108, r24	; 0x802108 <ptr_put>
     b3a:	90 93 09 21 	sts	0x2109, r25	; 0x802109 <ptr_put+0x1>
	ptr_get = (void (*)(void volatile*,char*))&usart_serial_getchar;
     b3e:	8a e7       	ldi	r24, 0x7A	; 122
     b40:	95 e0       	ldi	r25, 0x05	; 5
     b42:	80 93 06 21 	sts	0x2106, r24	; 0x802106 <ptr_get>
     b46:	90 93 07 21 	sts	0x2107, r25	; 0x802107 <ptr_get+0x1>
static inline bool usart_serial_init(usart_if usart, const
		usart_serial_options_t *options)
{
	// USART options.
	usart_rs232_options_t usart_rs232_options;
	usart_rs232_options.charlength   = options->charlength;
     b4a:	ed e0       	ldi	r30, 0x0D	; 13
     b4c:	f0 e2       	ldi	r31, 0x20	; 32
     b4e:	84 81       	ldd	r24, Z+4	; 0x04
     b50:	8d 83       	std	Y+5, r24	; 0x05
	usart_rs232_options.paritytype   = options->paritytype;
     b52:	85 81       	ldd	r24, Z+5	; 0x05
     b54:	8e 83       	std	Y+6, r24	; 0x06
	usart_rs232_options.stopbits     = options->stopbits;
     b56:	86 81       	ldd	r24, Z+6	; 0x06
     b58:	8f 83       	std	Y+7, r24	; 0x07
	usart_rs232_options.baudrate     = options->baudrate;
     b5a:	80 81       	ld	r24, Z
     b5c:	91 81       	ldd	r25, Z+1	; 0x01
     b5e:	a2 81       	ldd	r26, Z+2	; 0x02
     b60:	b3 81       	ldd	r27, Z+3	; 0x03
     b62:	89 83       	std	Y+1, r24	; 0x01
     b64:	9a 83       	std	Y+2, r25	; 0x02
     b66:	ab 83       	std	Y+3, r26	; 0x03
     b68:	bc 83       	std	Y+4, r27	; 0x04
		sysclk_enable_module(SYSCLK_PORT_D,PR_USART1_bm);
	}
#endif
#ifdef USARTE0
	if((uint16_t)usart == (uint16_t)&USARTE0) {
		sysclk_enable_module(SYSCLK_PORT_E,PR_USART0_bm);
     b6a:	60 e1       	ldi	r22, 0x10	; 16
     b6c:	85 e0       	ldi	r24, 0x05	; 5
     b6e:	4d d1       	rcall	.+666    	; 0xe0a <sysclk_enable_module>
#ifdef USARTF1
	if((uint16_t)usart == (uint16_t)&USARTF1) {
		sysclk_enable_module(SYSCLK_PORT_F,PR_USART1_bm);
	}
#endif
	if (usart_init_rs232(usart, &usart_rs232_options)) {
     b70:	be 01       	movw	r22, r28
     b72:	6f 5f       	subi	r22, 0xFF	; 255
     b74:	7f 4f       	sbci	r23, 0xFF	; 255
     b76:	80 ea       	ldi	r24, 0xA0	; 160
     b78:	9a e0       	ldi	r25, 0x0A	; 10
     b7a:	ee dd       	rcall	.-1060   	; 0x758 <usart_init_rs232>
# endif

# if defined(__GNUC__)
#  if (XMEGA || MEGA_RF)
	// For AVR GCC libc print redirection uses fdevopen.
	fdevopen((int (*)(char, FILE*))(_write),(int (*)(FILE*))(_read));
     b7c:	6c e6       	ldi	r22, 0x6C	; 108
     b7e:	71 e0       	ldi	r23, 0x01	; 1
     b80:	85 e8       	ldi	r24, 0x85	; 133
     b82:	91 e0       	ldi	r25, 0x01	; 1
     b84:	0e 94 8b 16 	call	0x2d16	; 0x2d16 <fdevopen>
	
	stdio_serial_init(UART_TERMINAL_SERIAL, &usart_config); // function maps the serial output to printf, not necessary to know how it works
     b88:	27 96       	adiw	r28, 0x07	; 7
     b8a:	cd bf       	out	0x3d, r28	; 61
     b8c:	de bf       	out	0x3e, r29	; 62
     b8e:	df 91       	pop	r29
     b90:	cf 91       	pop	r28
     b92:	08 95       	ret

00000b94 <rb16_write>:
	}
	else
	{
		buffer->tail = (buffer->tail + move_distance) % buffer->array_length; //Modulus is so that we don't point to above the buffer's location
	}
}
     b94:	cf 93       	push	r28
     b96:	df 93       	push	r29
     b98:	fc 01       	movw	r30, r24
     b9a:	41 15       	cp	r20, r1
     b9c:	51 05       	cpc	r21, r1
     b9e:	b1 f1       	breq	.+108    	; 0xc0c <rb16_write+0x78>
     ba0:	80 e0       	ldi	r24, 0x00	; 0
     ba2:	90 e0       	ldi	r25, 0x00	; 0
     ba4:	20 e0       	ldi	r18, 0x00	; 0
     ba6:	88 0f       	add	r24, r24
     ba8:	99 1f       	adc	r25, r25
     baa:	db 01       	movw	r26, r22
     bac:	a8 0f       	add	r26, r24
     bae:	b9 1f       	adc	r27, r25
     bb0:	8d 91       	ld	r24, X+
     bb2:	9c 91       	ld	r25, X
     bb4:	a2 81       	ldd	r26, Z+2	; 0x02
     bb6:	b3 81       	ldd	r27, Z+3	; 0x03
     bb8:	aa 0f       	add	r26, r26
     bba:	bb 1f       	adc	r27, r27
     bbc:	c6 81       	ldd	r28, Z+6	; 0x06
     bbe:	d7 81       	ldd	r29, Z+7	; 0x07
     bc0:	ac 0f       	add	r26, r28
     bc2:	bd 1f       	adc	r27, r29
     bc4:	8d 93       	st	X+, r24
     bc6:	9c 93       	st	X, r25
     bc8:	82 81       	ldd	r24, Z+2	; 0x02
     bca:	93 81       	ldd	r25, Z+3	; 0x03
     bcc:	01 96       	adiw	r24, 0x01	; 1
     bce:	82 83       	std	Z+2, r24	; 0x02
     bd0:	93 83       	std	Z+3, r25	; 0x03
     bd2:	a0 81       	ld	r26, Z
     bd4:	b1 81       	ldd	r27, Z+1	; 0x01
     bd6:	8a 17       	cp	r24, r26
     bd8:	9b 07       	cpc	r25, r27
     bda:	11 f4       	brne	.+4      	; 0xbe0 <rb16_write+0x4c>
     bdc:	12 82       	std	Z+2, r1	; 0x02
     bde:	13 82       	std	Z+3, r1	; 0x03
     be0:	82 81       	ldd	r24, Z+2	; 0x02
     be2:	93 81       	ldd	r25, Z+3	; 0x03
     be4:	c4 81       	ldd	r28, Z+4	; 0x04
     be6:	d5 81       	ldd	r29, Z+5	; 0x05
     be8:	8c 17       	cp	r24, r28
     bea:	9d 07       	cpc	r25, r29
     bec:	49 f4       	brne	.+18     	; 0xc00 <rb16_write+0x6c>
     bee:	01 96       	adiw	r24, 0x01	; 1
     bf0:	a8 17       	cp	r26, r24
     bf2:	b9 07       	cpc	r27, r25
     bf4:	19 f0       	breq	.+6      	; 0xbfc <rb16_write+0x68>
     bf6:	84 83       	std	Z+4, r24	; 0x04
     bf8:	95 83       	std	Z+5, r25	; 0x05
     bfa:	02 c0       	rjmp	.+4      	; 0xc00 <rb16_write+0x6c>
     bfc:	14 82       	std	Z+4, r1	; 0x04
     bfe:	15 82       	std	Z+5, r1	; 0x05
     c00:	2f 5f       	subi	r18, 0xFF	; 255
     c02:	82 2f       	mov	r24, r18
     c04:	90 e0       	ldi	r25, 0x00	; 0
     c06:	84 17       	cp	r24, r20
     c08:	95 07       	cpc	r25, r21
     c0a:	68 f2       	brcs	.-102    	; 0xba6 <rb16_write+0x12>
     c0c:	df 91       	pop	r29
     c0e:	cf 91       	pop	r28
     c10:	08 95       	ret

00000c12 <rb16_init>:
     c12:	fc 01       	movw	r30, r24
     c14:	12 82       	std	Z+2, r1	; 0x02
     c16:	13 82       	std	Z+3, r1	; 0x03
     c18:	14 82       	std	Z+4, r1	; 0x04
     c1a:	15 82       	std	Z+5, r1	; 0x05
     c1c:	66 83       	std	Z+6, r22	; 0x06
     c1e:	77 83       	std	Z+7, r23	; 0x07
     c20:	40 83       	st	Z, r20
     c22:	51 83       	std	Z+1, r21	; 0x01
     c24:	08 95       	ret

00000c26 <rb16_get_nth>:
     c26:	dc 01       	movw	r26, r24
     c28:	12 96       	adiw	r26, 0x02	; 2
     c2a:	ed 91       	ld	r30, X+
     c2c:	fc 91       	ld	r31, X
     c2e:	13 97       	sbiw	r26, 0x03	; 3
     c30:	cb 01       	movw	r24, r22
     c32:	01 96       	adiw	r24, 0x01	; 1
     c34:	e8 17       	cp	r30, r24
     c36:	f9 07       	cpc	r31, r25
     c38:	78 f0       	brcs	.+30     	; 0xc58 <rb16_get_nth+0x32>
     c3a:	e1 50       	subi	r30, 0x01	; 1
     c3c:	f0 48       	sbci	r31, 0x80	; 128
     c3e:	e6 1b       	sub	r30, r22
     c40:	f7 0b       	sbc	r31, r23
     c42:	ee 0f       	add	r30, r30
     c44:	ff 1f       	adc	r31, r31
     c46:	16 96       	adiw	r26, 0x06	; 6
     c48:	8d 91       	ld	r24, X+
     c4a:	9c 91       	ld	r25, X
     c4c:	17 97       	sbiw	r26, 0x07	; 7
     c4e:	e8 0f       	add	r30, r24
     c50:	f9 1f       	adc	r31, r25
     c52:	80 81       	ld	r24, Z
     c54:	91 81       	ldd	r25, Z+1	; 0x01
     c56:	08 95       	ret
     c58:	2d 91       	ld	r18, X+
     c5a:	3c 91       	ld	r19, X
     c5c:	11 97       	sbiw	r26, 0x01	; 1
     c5e:	e2 0f       	add	r30, r18
     c60:	f3 1f       	adc	r31, r19
     c62:	e1 50       	subi	r30, 0x01	; 1
     c64:	f0 48       	sbci	r31, 0x80	; 128
     c66:	e6 1b       	sub	r30, r22
     c68:	f7 0b       	sbc	r31, r23
     c6a:	ee 0f       	add	r30, r30
     c6c:	ff 1f       	adc	r31, r31
     c6e:	16 96       	adiw	r26, 0x06	; 6
     c70:	8d 91       	ld	r24, X+
     c72:	9c 91       	ld	r25, X
     c74:	17 97       	sbiw	r26, 0x07	; 7
     c76:	e8 0f       	add	r30, r24
     c78:	f9 1f       	adc	r31, r25
     c7a:	80 81       	ld	r24, Z
     c7c:	91 81       	ldd	r25, Z+1	; 0x01
     c7e:	08 95       	ret

00000c80 <rb32_write>:
     c80:	cf 92       	push	r12
     c82:	df 92       	push	r13
     c84:	ef 92       	push	r14
     c86:	ff 92       	push	r15
     c88:	cf 93       	push	r28
     c8a:	df 93       	push	r29
     c8c:	fc 01       	movw	r30, r24
     c8e:	41 15       	cp	r20, r1
     c90:	51 05       	cpc	r21, r1
     c92:	09 f4       	brne	.+2      	; 0xc96 <rb32_write+0x16>
     c94:	3f c0       	rjmp	.+126    	; 0xd14 <rb32_write+0x94>
     c96:	80 e0       	ldi	r24, 0x00	; 0
     c98:	90 e0       	ldi	r25, 0x00	; 0
     c9a:	20 e0       	ldi	r18, 0x00	; 0
     c9c:	88 0f       	add	r24, r24
     c9e:	99 1f       	adc	r25, r25
     ca0:	88 0f       	add	r24, r24
     ca2:	99 1f       	adc	r25, r25
     ca4:	db 01       	movw	r26, r22
     ca6:	a8 0f       	add	r26, r24
     ca8:	b9 1f       	adc	r27, r25
     caa:	cd 90       	ld	r12, X+
     cac:	dd 90       	ld	r13, X+
     cae:	ed 90       	ld	r14, X+
     cb0:	fc 90       	ld	r15, X
     cb2:	a2 81       	ldd	r26, Z+2	; 0x02
     cb4:	b3 81       	ldd	r27, Z+3	; 0x03
     cb6:	aa 0f       	add	r26, r26
     cb8:	bb 1f       	adc	r27, r27
     cba:	aa 0f       	add	r26, r26
     cbc:	bb 1f       	adc	r27, r27
     cbe:	86 81       	ldd	r24, Z+6	; 0x06
     cc0:	97 81       	ldd	r25, Z+7	; 0x07
     cc2:	a8 0f       	add	r26, r24
     cc4:	b9 1f       	adc	r27, r25
     cc6:	cd 92       	st	X+, r12
     cc8:	dd 92       	st	X+, r13
     cca:	ed 92       	st	X+, r14
     ccc:	fc 92       	st	X, r15
     cce:	13 97       	sbiw	r26, 0x03	; 3
     cd0:	82 81       	ldd	r24, Z+2	; 0x02
     cd2:	93 81       	ldd	r25, Z+3	; 0x03
     cd4:	01 96       	adiw	r24, 0x01	; 1
     cd6:	82 83       	std	Z+2, r24	; 0x02
     cd8:	93 83       	std	Z+3, r25	; 0x03
     cda:	a0 81       	ld	r26, Z
     cdc:	b1 81       	ldd	r27, Z+1	; 0x01
     cde:	8a 17       	cp	r24, r26
     ce0:	9b 07       	cpc	r25, r27
     ce2:	11 f4       	brne	.+4      	; 0xce8 <rb32_write+0x68>
     ce4:	12 82       	std	Z+2, r1	; 0x02
     ce6:	13 82       	std	Z+3, r1	; 0x03
     ce8:	82 81       	ldd	r24, Z+2	; 0x02
     cea:	93 81       	ldd	r25, Z+3	; 0x03
     cec:	c4 81       	ldd	r28, Z+4	; 0x04
     cee:	d5 81       	ldd	r29, Z+5	; 0x05
     cf0:	8c 17       	cp	r24, r28
     cf2:	9d 07       	cpc	r25, r29
     cf4:	49 f4       	brne	.+18     	; 0xd08 <rb32_write+0x88>
     cf6:	01 96       	adiw	r24, 0x01	; 1
     cf8:	a8 17       	cp	r26, r24
     cfa:	b9 07       	cpc	r27, r25
     cfc:	19 f0       	breq	.+6      	; 0xd04 <rb32_write+0x84>
     cfe:	84 83       	std	Z+4, r24	; 0x04
     d00:	95 83       	std	Z+5, r25	; 0x05
     d02:	02 c0       	rjmp	.+4      	; 0xd08 <rb32_write+0x88>
     d04:	14 82       	std	Z+4, r1	; 0x04
     d06:	15 82       	std	Z+5, r1	; 0x05
     d08:	2f 5f       	subi	r18, 0xFF	; 255
     d0a:	82 2f       	mov	r24, r18
     d0c:	90 e0       	ldi	r25, 0x00	; 0
     d0e:	84 17       	cp	r24, r20
     d10:	95 07       	cpc	r25, r21
     d12:	20 f2       	brcs	.-120    	; 0xc9c <rb32_write+0x1c>
     d14:	df 91       	pop	r29
     d16:	cf 91       	pop	r28
     d18:	ff 90       	pop	r15
     d1a:	ef 90       	pop	r14
     d1c:	df 90       	pop	r13
     d1e:	cf 90       	pop	r12
     d20:	08 95       	ret

00000d22 <rb32_init>:
     d22:	fc 01       	movw	r30, r24
     d24:	12 82       	std	Z+2, r1	; 0x02
     d26:	13 82       	std	Z+3, r1	; 0x03
     d28:	14 82       	std	Z+4, r1	; 0x04
     d2a:	15 82       	std	Z+5, r1	; 0x05
     d2c:	66 83       	std	Z+6, r22	; 0x06
     d2e:	77 83       	std	Z+7, r23	; 0x07
     d30:	40 83       	st	Z, r20
     d32:	51 83       	std	Z+1, r21	; 0x01
     d34:	08 95       	ret

00000d36 <rb32_get_nth>:
	}
}

int32_t rb32_get_nth(RingBuffer32_t* buffer, uint16_t index)
//Returns the nth newest value in the RingBuffer
{
     d36:	dc 01       	movw	r26, r24
	//Does not do bounds checking, so be careful in usage
	//	Verify index < rb16_length() to guard against requesting a value beyond what the buffer currently stores
	//	Verify index < buffer->array_length to guard against requesting a value from some random memory location
	
	//Most recent value is in head - 1
	if (index + 1 <= buffer->head) //Value is between zero and buffer->head
     d38:	12 96       	adiw	r26, 0x02	; 2
     d3a:	ed 91       	ld	r30, X+
     d3c:	fc 91       	ld	r31, X
     d3e:	13 97       	sbiw	r26, 0x03	; 3
     d40:	cb 01       	movw	r24, r22
     d42:	01 96       	adiw	r24, 0x01	; 1
     d44:	e8 17       	cp	r30, r24
     d46:	f9 07       	cpc	r31, r25
     d48:	98 f0       	brcs	.+38     	; 0xd70 <rb32_get_nth+0x3a>
		return buffer->buffer[buffer->head - index - 1];
     d4a:	e1 50       	subi	r30, 0x01	; 1
     d4c:	f0 4c       	sbci	r31, 0xC0	; 192
     d4e:	e6 1b       	sub	r30, r22
     d50:	f7 0b       	sbc	r31, r23
     d52:	ee 0f       	add	r30, r30
     d54:	ff 1f       	adc	r31, r31
     d56:	ee 0f       	add	r30, r30
     d58:	ff 1f       	adc	r31, r31
     d5a:	16 96       	adiw	r26, 0x06	; 6
     d5c:	8d 91       	ld	r24, X+
     d5e:	9c 91       	ld	r25, X
     d60:	17 97       	sbiw	r26, 0x07	; 7
     d62:	e8 0f       	add	r30, r24
     d64:	f9 1f       	adc	r31, r25
     d66:	60 81       	ld	r22, Z
     d68:	71 81       	ldd	r23, Z+1	; 0x01
     d6a:	82 81       	ldd	r24, Z+2	; 0x02
     d6c:	93 81       	ldd	r25, Z+3	; 0x03
     d6e:	08 95       	ret
	else
		return buffer->buffer[buffer->array_length - 1 - index + buffer->head];
     d70:	2d 91       	ld	r18, X+
     d72:	3c 91       	ld	r19, X
     d74:	11 97       	sbiw	r26, 0x01	; 1
     d76:	e2 0f       	add	r30, r18
     d78:	f3 1f       	adc	r31, r19
     d7a:	e1 50       	subi	r30, 0x01	; 1
     d7c:	f0 4c       	sbci	r31, 0xC0	; 192
     d7e:	e6 1b       	sub	r30, r22
     d80:	f7 0b       	sbc	r31, r23
     d82:	ee 0f       	add	r30, r30
     d84:	ff 1f       	adc	r31, r31
     d86:	ee 0f       	add	r30, r30
     d88:	ff 1f       	adc	r31, r31
     d8a:	16 96       	adiw	r26, 0x06	; 6
     d8c:	8d 91       	ld	r24, X+
     d8e:	9c 91       	ld	r25, X
     d90:	17 97       	sbiw	r26, 0x07	; 7
     d92:	e8 0f       	add	r30, r24
     d94:	f9 1f       	adc	r31, r25
     d96:	60 81       	ld	r22, Z
     d98:	71 81       	ldd	r23, Z+1	; 0x01
     d9a:	82 81       	ldd	r24, Z+2	; 0x02
     d9c:	93 81       	ldd	r25, Z+3	; 0x03
}
     d9e:	08 95       	ret

00000da0 <sysclk_init>:
#  include <nvm.h>
#endif


void sysclk_init(void)
{
     da0:	cf 93       	push	r28
     da2:	df 93       	push	r29
     da4:	1f 92       	push	r1
     da6:	1f 92       	push	r1
     da8:	cd b7       	in	r28, 0x3d	; 61
     daa:	de b7       	in	r29, 0x3e	; 62
#endif
	bool need_rc2mhz = false;

	/* Turn off all peripheral clocks that can be turned off. */
	for (i = 0; i <= SYSCLK_PORT_F; i++) {
		*(reg++) = 0xff;
     dac:	8f ef       	ldi	r24, 0xFF	; 255
     dae:	80 93 70 00 	sts	0x0070, r24	; 0x800070 <__TEXT_REGION_LENGTH__+0x700070>
     db2:	80 93 71 00 	sts	0x0071, r24	; 0x800071 <__TEXT_REGION_LENGTH__+0x700071>
     db6:	80 93 72 00 	sts	0x0072, r24	; 0x800072 <__TEXT_REGION_LENGTH__+0x700072>
     dba:	80 93 73 00 	sts	0x0073, r24	; 0x800073 <__TEXT_REGION_LENGTH__+0x700073>
     dbe:	80 93 74 00 	sts	0x0074, r24	; 0x800074 <__TEXT_REGION_LENGTH__+0x700074>
     dc2:	80 93 75 00 	sts	0x0075, r24	; 0x800075 <__TEXT_REGION_LENGTH__+0x700075>
     dc6:	80 93 76 00 	sts	0x0076, r24	; 0x800076 <__TEXT_REGION_LENGTH__+0x700076>

typedef uint8_t irqflags_t;

static inline irqflags_t cpu_irq_save(void)
{
	volatile irqflags_t flags = SREG;
     dca:	8f b7       	in	r24, 0x3f	; 63
     dcc:	8a 83       	std	Y+2, r24	; 0x02
	cpu_irq_disable();
     dce:	f8 94       	cli
	return flags;
     dd0:	9a 81       	ldd	r25, Y+2	; 0x02
	irqflags_t flags;

	Assert(id != OSC_ID_USBSOF);

	flags = cpu_irq_save();
	OSC.CTRL |= id;
     dd2:	e0 e5       	ldi	r30, 0x50	; 80
     dd4:	f0 e0       	ldi	r31, 0x00	; 0
     dd6:	80 81       	ld	r24, Z
     dd8:	82 60       	ori	r24, 0x02	; 2
     dda:	80 83       	st	Z, r24
}

static inline void cpu_irq_restore(irqflags_t flags)
{
	barrier();
	SREG = flags;
     ddc:	9f bf       	out	0x3f, r25	; 63

static inline bool osc_is_ready(uint8_t id)
{
	Assert(id != OSC_ID_USBSOF);

	return OSC.STATUS & id;
     dde:	81 81       	ldd	r24, Z+1	; 0x01
 *
 * \param id A number identifying the oscillator to wait for.
 */
static inline void osc_wait_ready(uint8_t id)
{
	while (!osc_is_ready(id)) {
     de0:	81 ff       	sbrs	r24, 1
     de2:	fd cf       	rjmp	.-6      	; 0xdde <sysclk_init+0x3e>
		default:
			//unhandled_case(CONFIG_SYSCLK_SOURCE);
			return;
		}

		ccp_write_io((uint8_t *)&CLK.CTRL, CONFIG_SYSCLK_SOURCE);
     de4:	61 e0       	ldi	r22, 0x01	; 1
     de6:	80 e4       	ldi	r24, 0x40	; 64
     de8:	90 e0       	ldi	r25, 0x00	; 0
     dea:	25 d0       	rcall	.+74     	; 0xe36 <ccp_write_io>

typedef uint8_t irqflags_t;

static inline irqflags_t cpu_irq_save(void)
{
	volatile irqflags_t flags = SREG;
     dec:	8f b7       	in	r24, 0x3f	; 63
     dee:	89 83       	std	Y+1, r24	; 0x01
	cpu_irq_disable();
     df0:	f8 94       	cli
	return flags;
     df2:	99 81       	ldd	r25, Y+1	; 0x01
	irqflags_t flags;

	Assert(id != OSC_ID_USBSOF);

	flags = cpu_irq_save();
	OSC.CTRL &= ~id;
     df4:	e0 e5       	ldi	r30, 0x50	; 80
     df6:	f0 e0       	ldi	r31, 0x00	; 0
     df8:	80 81       	ld	r24, Z
     dfa:	8e 7f       	andi	r24, 0xFE	; 254
     dfc:	80 83       	st	Z, r24
}

static inline void cpu_irq_restore(irqflags_t flags)
{
	barrier();
	SREG = flags;
     dfe:	9f bf       	out	0x3f, r25	; 63
	}

#ifdef CONFIG_RTC_SOURCE
	sysclk_rtcsrc_enable(CONFIG_RTC_SOURCE);
#endif
}
     e00:	0f 90       	pop	r0
     e02:	0f 90       	pop	r0
     e04:	df 91       	pop	r29
     e06:	cf 91       	pop	r28
     e08:	08 95       	ret

00000e0a <sysclk_enable_module>:

void sysclk_enable_module(enum sysclk_port_id port, uint8_t id)
{
     e0a:	cf 93       	push	r28
     e0c:	df 93       	push	r29
     e0e:	1f 92       	push	r1
     e10:	cd b7       	in	r28, 0x3d	; 61
     e12:	de b7       	in	r29, 0x3e	; 62

typedef uint8_t irqflags_t;

static inline irqflags_t cpu_irq_save(void)
{
	volatile irqflags_t flags = SREG;
     e14:	9f b7       	in	r25, 0x3f	; 63
     e16:	99 83       	std	Y+1, r25	; 0x01
	cpu_irq_disable();
     e18:	f8 94       	cli
	return flags;
     e1a:	99 81       	ldd	r25, Y+1	; 0x01
	irqflags_t flags = cpu_irq_save();

	*((uint8_t *)&PR.PRGEN + port) &= ~id;
     e1c:	e8 2f       	mov	r30, r24
     e1e:	f0 e0       	ldi	r31, 0x00	; 0
     e20:	e0 59       	subi	r30, 0x90	; 144
     e22:	ff 4f       	sbci	r31, 0xFF	; 255
     e24:	60 95       	com	r22
     e26:	80 81       	ld	r24, Z
     e28:	68 23       	and	r22, r24
     e2a:	60 83       	st	Z, r22
}

static inline void cpu_irq_restore(irqflags_t flags)
{
	barrier();
	SREG = flags;
     e2c:	9f bf       	out	0x3f, r25	; 63

	cpu_irq_restore(flags);
}
     e2e:	0f 90       	pop	r0
     e30:	df 91       	pop	r29
     e32:	cf 91       	pop	r28
     e34:	08 95       	ret

00000e36 <ccp_write_io>:

	PUBLIC_FUNCTION(ccp_write_io)

#if defined(__GNUC__)

	out     RAMPZ, r1               // Reset bits 23:16 of Z
     e36:	1b be       	out	0x3b, r1	; 59
	movw    r30, r24                // Load addr into Z
     e38:	fc 01       	movw	r30, r24
	ldi     r18, CCP_IOREG          // Load magic CCP value
     e3a:	28 ed       	ldi	r18, 0xD8	; 216
	out     CCP, r18                // Start CCP handshake
     e3c:	24 bf       	out	0x34, r18	; 52
	st      Z, r22                  // Write value to I/O register
     e3e:	60 83       	st	Z, r22
	ret                             // Return to caller
     e40:	08 95       	ret

00000e42 <__portable_avr_delay_cycles>:
	
	NVM.CMD = ERASE_EEPROM;
	CCP = CCP_IOREG_MODE;
	NVM.CTRLA = CTRLA_CMDEX_BYTE;
	while(NVM.STATUS>>7);
}
     e42:	04 c0       	rjmp	.+8      	; 0xe4c <__portable_avr_delay_cycles+0xa>
     e44:	61 50       	subi	r22, 0x01	; 1
     e46:	71 09       	sbc	r23, r1
     e48:	81 09       	sbc	r24, r1
     e4a:	91 09       	sbc	r25, r1
     e4c:	61 15       	cp	r22, r1
     e4e:	71 05       	cpc	r23, r1
     e50:	81 05       	cpc	r24, r1
     e52:	91 05       	cpc	r25, r1
     e54:	b9 f7       	brne	.-18     	; 0xe44 <__portable_avr_delay_cycles+0x2>
     e56:	08 95       	ret

00000e58 <pressure_init>:
     e58:	cf 93       	push	r28
     e5a:	df 93       	push	r29
     e5c:	b4 dd       	rcall	.-1176   	; 0x9c6 <ms5607_init>
     e5e:	82 ea       	ldi	r24, 0xA2	; 162
     e60:	90 e0       	ldi	r25, 0x00	; 0
     e62:	ca dd       	rcall	.-1132   	; 0x9f8 <ms5607_read>
     e64:	c3 ef       	ldi	r28, 0xF3	; 243
     e66:	d0 e2       	ldi	r29, 0x20	; 32
     e68:	88 83       	st	Y, r24
     e6a:	99 83       	std	Y+1, r25	; 0x01
     e6c:	84 ea       	ldi	r24, 0xA4	; 164
     e6e:	90 e0       	ldi	r25, 0x00	; 0
     e70:	c3 dd       	rcall	.-1146   	; 0x9f8 <ms5607_read>
     e72:	8a 83       	std	Y+2, r24	; 0x02
     e74:	9b 83       	std	Y+3, r25	; 0x03
     e76:	86 ea       	ldi	r24, 0xA6	; 166
     e78:	90 e0       	ldi	r25, 0x00	; 0
     e7a:	be dd       	rcall	.-1156   	; 0x9f8 <ms5607_read>
     e7c:	8c 83       	std	Y+4, r24	; 0x04
     e7e:	9d 83       	std	Y+5, r25	; 0x05
     e80:	88 ea       	ldi	r24, 0xA8	; 168
     e82:	90 e0       	ldi	r25, 0x00	; 0
     e84:	b9 dd       	rcall	.-1166   	; 0x9f8 <ms5607_read>
     e86:	8e 83       	std	Y+6, r24	; 0x06
     e88:	9f 83       	std	Y+7, r25	; 0x07
     e8a:	8a ea       	ldi	r24, 0xAA	; 170
     e8c:	90 e0       	ldi	r25, 0x00	; 0
     e8e:	b4 dd       	rcall	.-1176   	; 0x9f8 <ms5607_read>
     e90:	88 87       	std	Y+8, r24	; 0x08
     e92:	99 87       	std	Y+9, r25	; 0x09
     e94:	8c ea       	ldi	r24, 0xAC	; 172
     e96:	90 e0       	ldi	r25, 0x00	; 0
     e98:	af dd       	rcall	.-1186   	; 0x9f8 <ms5607_read>
     e9a:	8a 87       	std	Y+10, r24	; 0x0a
     e9c:	9b 87       	std	Y+11, r25	; 0x0b
     e9e:	9f 93       	push	r25
     ea0:	8f 93       	push	r24
     ea2:	89 85       	ldd	r24, Y+9	; 0x09
     ea4:	8f 93       	push	r24
     ea6:	88 85       	ldd	r24, Y+8	; 0x08
     ea8:	8f 93       	push	r24
     eaa:	8f 81       	ldd	r24, Y+7	; 0x07
     eac:	8f 93       	push	r24
     eae:	8e 81       	ldd	r24, Y+6	; 0x06
     eb0:	8f 93       	push	r24
     eb2:	8d 81       	ldd	r24, Y+5	; 0x05
     eb4:	8f 93       	push	r24
     eb6:	8c 81       	ldd	r24, Y+4	; 0x04
     eb8:	8f 93       	push	r24
     eba:	8b 81       	ldd	r24, Y+3	; 0x03
     ebc:	8f 93       	push	r24
     ebe:	8a 81       	ldd	r24, Y+2	; 0x02
     ec0:	8f 93       	push	r24
     ec2:	89 81       	ldd	r24, Y+1	; 0x01
     ec4:	8f 93       	push	r24
     ec6:	88 81       	ld	r24, Y
     ec8:	8f 93       	push	r24
     eca:	89 e9       	ldi	r24, 0x99	; 153
     ecc:	90 e2       	ldi	r25, 0x20	; 32
     ece:	9f 93       	push	r25
     ed0:	8f 93       	push	r24
     ed2:	0e 94 d5 16 	call	0x2daa	; 0x2daa <printf>
     ed6:	8d b7       	in	r24, 0x3d	; 61
     ed8:	9e b7       	in	r25, 0x3e	; 62
     eda:	0e 96       	adiw	r24, 0x0e	; 14
     edc:	8d bf       	out	0x3d, r24	; 61
     ede:	9e bf       	out	0x3e, r25	; 62
     ee0:	df 91       	pop	r29
     ee2:	cf 91       	pop	r28
     ee4:	08 95       	ret

00000ee6 <gps_init>:
     ee6:	2f dd       	rcall	.-1442   	; 0x946 <gps_uart_init>
     ee8:	6b ea       	ldi	r22, 0xAB	; 171
     eea:	79 e2       	ldi	r23, 0x29	; 41
     eec:	80 e0       	ldi	r24, 0x00	; 0
     eee:	90 e0       	ldi	r25, 0x00	; 0
     ef0:	a8 df       	rcall	.-176    	; 0xe42 <__portable_avr_delay_cycles>
     ef2:	80 e3       	ldi	r24, 0x30	; 48
     ef4:	80 93 b3 09 	sts	0x09B3, r24	; 0x8009b3 <__TEXT_REGION_LENGTH__+0x7009b3>
     ef8:	08 95       	ret

00000efa <get_pressure>:
     efa:	4f 92       	push	r4
     efc:	5f 92       	push	r5
     efe:	6f 92       	push	r6
     f00:	7f 92       	push	r7
     f02:	8f 92       	push	r8
     f04:	9f 92       	push	r9
     f06:	af 92       	push	r10
     f08:	bf 92       	push	r11
     f0a:	cf 92       	push	r12
     f0c:	df 92       	push	r13
     f0e:	ef 92       	push	r14
     f10:	ff 92       	push	r15
     f12:	cf 93       	push	r28
     f14:	df 93       	push	r29
     f16:	82 dd       	rcall	.-1276   	; 0xa1c <ms5607_convert_d1>
     f18:	6b 01       	movw	r12, r22
     f1a:	7c 01       	movw	r14, r24
     f1c:	a3 dd       	rcall	.-1210   	; 0xa64 <ms5607_convert_d2>
     f1e:	0e 94 7a 13 	call	0x26f4	; 0x26f4 <__floatunsisf>
     f22:	4b 01       	movw	r8, r22
     f24:	5c 01       	movw	r10, r24
     f26:	c3 ef       	ldi	r28, 0xF3	; 243
     f28:	d0 e2       	ldi	r29, 0x20	; 32
     f2a:	68 85       	ldd	r22, Y+8	; 0x08
     f2c:	79 85       	ldd	r23, Y+9	; 0x09
     f2e:	80 e0       	ldi	r24, 0x00	; 0
     f30:	90 e0       	ldi	r25, 0x00	; 0
     f32:	0e 94 7a 13 	call	0x26f4	; 0x26f4 <__floatunsisf>
     f36:	20 e0       	ldi	r18, 0x00	; 0
     f38:	30 e0       	ldi	r19, 0x00	; 0
     f3a:	40 e8       	ldi	r20, 0x80	; 128
     f3c:	53 e4       	ldi	r21, 0x43	; 67
     f3e:	0e 94 5c 14 	call	0x28b8	; 0x28b8 <__mulsf3>
     f42:	9b 01       	movw	r18, r22
     f44:	ac 01       	movw	r20, r24
     f46:	c5 01       	movw	r24, r10
     f48:	b4 01       	movw	r22, r8
     f4a:	0e 94 78 12 	call	0x24f0	; 0x24f0 <__subsf3>
     f4e:	4b 01       	movw	r8, r22
     f50:	5c 01       	movw	r10, r24
     f52:	6c 81       	ldd	r22, Y+4	; 0x04
     f54:	7d 81       	ldd	r23, Y+5	; 0x05
     f56:	80 e0       	ldi	r24, 0x00	; 0
     f58:	90 e0       	ldi	r25, 0x00	; 0
     f5a:	0e 94 7a 13 	call	0x26f4	; 0x26f4 <__floatunsisf>
     f5e:	a5 01       	movw	r20, r10
     f60:	94 01       	movw	r18, r8
     f62:	0e 94 5c 14 	call	0x28b8	; 0x28b8 <__mulsf3>
     f66:	20 e0       	ldi	r18, 0x00	; 0
     f68:	30 e0       	ldi	r19, 0x00	; 0
     f6a:	40 e0       	ldi	r20, 0x00	; 0
     f6c:	5c e3       	ldi	r21, 0x3C	; 60
     f6e:	0e 94 5c 14 	call	0x28b8	; 0x28b8 <__mulsf3>
     f72:	2b 01       	movw	r4, r22
     f74:	3c 01       	movw	r6, r24
     f76:	68 81       	ld	r22, Y
     f78:	79 81       	ldd	r23, Y+1	; 0x01
     f7a:	80 e0       	ldi	r24, 0x00	; 0
     f7c:	90 e0       	ldi	r25, 0x00	; 0
     f7e:	0e 94 7a 13 	call	0x26f4	; 0x26f4 <__floatunsisf>
     f82:	20 e0       	ldi	r18, 0x00	; 0
     f84:	30 e0       	ldi	r19, 0x00	; 0
     f86:	40 e8       	ldi	r20, 0x80	; 128
     f88:	57 e4       	ldi	r21, 0x47	; 71
     f8a:	0e 94 5c 14 	call	0x28b8	; 0x28b8 <__mulsf3>
     f8e:	9b 01       	movw	r18, r22
     f90:	ac 01       	movw	r20, r24
     f92:	c3 01       	movw	r24, r6
     f94:	b2 01       	movw	r22, r4
     f96:	0e 94 79 12 	call	0x24f2	; 0x24f2 <__addsf3>
     f9a:	2b 01       	movw	r4, r22
     f9c:	3c 01       	movw	r6, r24
     f9e:	c7 01       	movw	r24, r14
     fa0:	b6 01       	movw	r22, r12
     fa2:	0e 94 7a 13 	call	0x26f4	; 0x26f4 <__floatunsisf>
     fa6:	9b 01       	movw	r18, r22
     fa8:	ac 01       	movw	r20, r24
     faa:	c3 01       	movw	r24, r6
     fac:	b2 01       	movw	r22, r4
     fae:	0e 94 5c 14 	call	0x28b8	; 0x28b8 <__mulsf3>
     fb2:	20 e0       	ldi	r18, 0x00	; 0
     fb4:	30 e0       	ldi	r19, 0x00	; 0
     fb6:	40 e0       	ldi	r20, 0x00	; 0
     fb8:	55 e3       	ldi	r21, 0x35	; 53
     fba:	0e 94 5c 14 	call	0x28b8	; 0x28b8 <__mulsf3>
     fbe:	6b 01       	movw	r12, r22
     fc0:	7c 01       	movw	r14, r24
     fc2:	6e 81       	ldd	r22, Y+6	; 0x06
     fc4:	7f 81       	ldd	r23, Y+7	; 0x07
     fc6:	80 e0       	ldi	r24, 0x00	; 0
     fc8:	90 e0       	ldi	r25, 0x00	; 0
     fca:	0e 94 7a 13 	call	0x26f4	; 0x26f4 <__floatunsisf>
     fce:	a5 01       	movw	r20, r10
     fd0:	94 01       	movw	r18, r8
     fd2:	0e 94 5c 14 	call	0x28b8	; 0x28b8 <__mulsf3>
     fd6:	20 e0       	ldi	r18, 0x00	; 0
     fd8:	30 e0       	ldi	r19, 0x00	; 0
     fda:	40 e8       	ldi	r20, 0x80	; 128
     fdc:	5c e3       	ldi	r21, 0x3C	; 60
     fde:	0e 94 5c 14 	call	0x28b8	; 0x28b8 <__mulsf3>
     fe2:	4b 01       	movw	r8, r22
     fe4:	5c 01       	movw	r10, r24
     fe6:	6a 81       	ldd	r22, Y+2	; 0x02
     fe8:	7b 81       	ldd	r23, Y+3	; 0x03
     fea:	80 e0       	ldi	r24, 0x00	; 0
     fec:	90 e0       	ldi	r25, 0x00	; 0
     fee:	0e 94 7a 13 	call	0x26f4	; 0x26f4 <__floatunsisf>
     ff2:	20 e0       	ldi	r18, 0x00	; 0
     ff4:	30 e0       	ldi	r19, 0x00	; 0
     ff6:	40 e0       	ldi	r20, 0x00	; 0
     ff8:	58 e4       	ldi	r21, 0x48	; 72
     ffa:	0e 94 5c 14 	call	0x28b8	; 0x28b8 <__mulsf3>
     ffe:	9b 01       	movw	r18, r22
    1000:	ac 01       	movw	r20, r24
    1002:	c5 01       	movw	r24, r10
    1004:	b4 01       	movw	r22, r8
    1006:	0e 94 79 12 	call	0x24f2	; 0x24f2 <__addsf3>
    100a:	9b 01       	movw	r18, r22
    100c:	ac 01       	movw	r20, r24
    100e:	c7 01       	movw	r24, r14
    1010:	b6 01       	movw	r22, r12
    1012:	0e 94 78 12 	call	0x24f0	; 0x24f0 <__subsf3>
    1016:	20 e0       	ldi	r18, 0x00	; 0
    1018:	30 e0       	ldi	r19, 0x00	; 0
    101a:	40 e0       	ldi	r20, 0x00	; 0
    101c:	58 e3       	ldi	r21, 0x38	; 56
    101e:	0e 94 5c 14 	call	0x28b8	; 0x28b8 <__mulsf3>
    1022:	df 91       	pop	r29
    1024:	cf 91       	pop	r28
    1026:	ff 90       	pop	r15
    1028:	ef 90       	pop	r14
    102a:	df 90       	pop	r13
    102c:	cf 90       	pop	r12
    102e:	bf 90       	pop	r11
    1030:	af 90       	pop	r10
    1032:	9f 90       	pop	r9
    1034:	8f 90       	pop	r8
    1036:	7f 90       	pop	r7
    1038:	6f 90       	pop	r6
    103a:	5f 90       	pop	r5
    103c:	4f 90       	pop	r4
    103e:	08 95       	ret

00001040 <get_altitude>:
    1040:	4f 92       	push	r4
    1042:	5f 92       	push	r5
    1044:	6f 92       	push	r6
    1046:	7f 92       	push	r7
    1048:	8f 92       	push	r8
    104a:	9f 92       	push	r9
    104c:	af 92       	push	r10
    104e:	bf 92       	push	r11
    1050:	cf 92       	push	r12
    1052:	df 92       	push	r13
    1054:	ef 92       	push	r14
    1056:	ff 92       	push	r15
    1058:	2b 01       	movw	r4, r22
    105a:	3c 01       	movw	r6, r24
    105c:	c0 90 21 20 	lds	r12, 0x2021	; 0x802021 <L>
    1060:	d0 90 22 20 	lds	r13, 0x2022	; 0x802022 <L+0x1>
    1064:	e0 90 23 20 	lds	r14, 0x2023	; 0x802023 <L+0x2>
    1068:	f0 90 24 20 	lds	r15, 0x2024	; 0x802024 <L+0x3>
    106c:	20 91 25 20 	lds	r18, 0x2025	; 0x802025 <R>
    1070:	30 91 26 20 	lds	r19, 0x2026	; 0x802026 <R+0x1>
    1074:	40 91 27 20 	lds	r20, 0x2027	; 0x802027 <R+0x2>
    1078:	50 91 28 20 	lds	r21, 0x2028	; 0x802028 <R+0x3>
    107c:	c7 01       	movw	r24, r14
    107e:	b6 01       	movw	r22, r12
    1080:	0e 94 5c 14 	call	0x28b8	; 0x28b8 <__mulsf3>
    1084:	20 91 1d 20 	lds	r18, 0x201D	; 0x80201d <g_0>
    1088:	30 91 1e 20 	lds	r19, 0x201E	; 0x80201e <g_0+0x1>
    108c:	40 91 1f 20 	lds	r20, 0x201F	; 0x80201f <g_0+0x2>
    1090:	50 91 20 20 	lds	r21, 0x2020	; 0x802020 <g_0+0x3>
    1094:	0e 94 e1 12 	call	0x25c2	; 0x25c2 <__divsf3>
    1098:	4b 01       	movw	r8, r22
    109a:	5c 01       	movw	r10, r24
    109c:	a3 01       	movw	r20, r6
    109e:	92 01       	movw	r18, r4
    10a0:	60 91 2d 20 	lds	r22, 0x202D	; 0x80202d <ground_p>
    10a4:	70 91 2e 20 	lds	r23, 0x202E	; 0x80202e <ground_p+0x1>
    10a8:	80 91 2f 20 	lds	r24, 0x202F	; 0x80202f <ground_p+0x2>
    10ac:	90 91 30 20 	lds	r25, 0x2030	; 0x802030 <ground_p+0x3>
    10b0:	0e 94 e1 12 	call	0x25c2	; 0x25c2 <__divsf3>
    10b4:	a5 01       	movw	r20, r10
    10b6:	94 01       	movw	r18, r8
    10b8:	0e 94 bf 14 	call	0x297e	; 0x297e <pow>
    10bc:	20 e0       	ldi	r18, 0x00	; 0
    10be:	30 e0       	ldi	r19, 0x00	; 0
    10c0:	40 e8       	ldi	r20, 0x80	; 128
    10c2:	5f e3       	ldi	r21, 0x3F	; 63
    10c4:	0e 94 78 12 	call	0x24f0	; 0x24f0 <__subsf3>
    10c8:	20 91 29 20 	lds	r18, 0x2029	; 0x802029 <ground_t>
    10cc:	30 91 2a 20 	lds	r19, 0x202A	; 0x80202a <ground_t+0x1>
    10d0:	40 91 2b 20 	lds	r20, 0x202B	; 0x80202b <ground_t+0x2>
    10d4:	50 91 2c 20 	lds	r21, 0x202C	; 0x80202c <ground_t+0x3>
    10d8:	0e 94 5c 14 	call	0x28b8	; 0x28b8 <__mulsf3>
    10dc:	a7 01       	movw	r20, r14
    10de:	96 01       	movw	r18, r12
    10e0:	0e 94 e1 12 	call	0x25c2	; 0x25c2 <__divsf3>
    10e4:	20 91 ff 20 	lds	r18, 0x20FF	; 0x8020ff <ground_a>
    10e8:	30 91 00 21 	lds	r19, 0x2100	; 0x802100 <ground_a+0x1>
    10ec:	40 91 01 21 	lds	r20, 0x2101	; 0x802101 <ground_a+0x2>
    10f0:	50 91 02 21 	lds	r21, 0x2102	; 0x802102 <ground_a+0x3>
    10f4:	0e 94 78 12 	call	0x24f0	; 0x24f0 <__subsf3>
    10f8:	ff 90       	pop	r15
    10fa:	ef 90       	pop	r14
    10fc:	df 90       	pop	r13
    10fe:	cf 90       	pop	r12
    1100:	bf 90       	pop	r11
    1102:	af 90       	pop	r10
    1104:	9f 90       	pop	r9
    1106:	8f 90       	pop	r8
    1108:	7f 90       	pop	r7
    110a:	6f 90       	pop	r6
    110c:	5f 90       	pop	r5
    110e:	4f 90       	pop	r4
    1110:	08 95       	ret

00001112 <diff>:
    1112:	2f 92       	push	r2
    1114:	3f 92       	push	r3
    1116:	4f 92       	push	r4
    1118:	5f 92       	push	r5
    111a:	6f 92       	push	r6
    111c:	7f 92       	push	r7
    111e:	8f 92       	push	r8
    1120:	9f 92       	push	r9
    1122:	af 92       	push	r10
    1124:	bf 92       	push	r11
    1126:	cf 92       	push	r12
    1128:	df 92       	push	r13
    112a:	ef 92       	push	r14
    112c:	ff 92       	push	r15
    112e:	0f 93       	push	r16
    1130:	1f 93       	push	r17
    1132:	cf 93       	push	r28
    1134:	df 93       	push	r29
    1136:	00 d0       	rcall	.+0      	; 0x1138 <diff+0x26>
    1138:	00 d0       	rcall	.+0      	; 0x113a <diff+0x28>
    113a:	cd b7       	in	r28, 0x3d	; 61
    113c:	de b7       	in	r29, 0x3e	; 62
    113e:	6c 01       	movw	r12, r24
    1140:	80 91 16 20 	lds	r24, 0x2016	; 0x802016 <data_samples>
    1144:	88 23       	and	r24, r24
    1146:	09 f4       	brne	.+2      	; 0x114a <diff+0x38>
    1148:	6c c0       	rjmp	.+216    	; 0x1222 <diff+0x110>
    114a:	00 e0       	ldi	r16, 0x00	; 0
    114c:	10 e0       	ldi	r17, 0x00	; 0
    114e:	41 2c       	mov	r4, r1
    1150:	51 2c       	mov	r5, r1
    1152:	32 01       	movw	r6, r4
    1154:	86 2e       	mov	r8, r22
    1156:	91 2c       	mov	r9, r1
    1158:	a1 2c       	mov	r10, r1
    115a:	b1 2c       	mov	r11, r1
    115c:	89 82       	std	Y+1, r8	; 0x01
    115e:	9a 82       	std	Y+2, r9	; 0x02
    1160:	ab 82       	std	Y+3, r10	; 0x03
    1162:	bc 82       	std	Y+4, r11	; 0x04
    1164:	b8 01       	movw	r22, r16
    1166:	c6 01       	movw	r24, r12
    1168:	5e dd       	rcall	.-1348   	; 0xc26 <rb16_get_nth>
    116a:	5c 01       	movw	r10, r24
    116c:	18 01       	movw	r2, r16
    116e:	2f ef       	ldi	r18, 0xFF	; 255
    1170:	22 1a       	sub	r2, r18
    1172:	32 0a       	sbc	r3, r18
    1174:	b1 01       	movw	r22, r2
    1176:	c6 01       	movw	r24, r12
    1178:	56 dd       	rcall	.-1364   	; 0xc26 <rb16_get_nth>
    117a:	7c 01       	movw	r14, r24
    117c:	b8 01       	movw	r22, r16
    117e:	6e 5f       	subi	r22, 0xFE	; 254
    1180:	7f 4f       	sbci	r23, 0xFF	; 255
    1182:	c6 01       	movw	r24, r12
    1184:	50 dd       	rcall	.-1376   	; 0xc26 <rb16_get_nth>
    1186:	a5 01       	movw	r20, r10
    1188:	bb 0c       	add	r11, r11
    118a:	66 0b       	sbc	r22, r22
    118c:	77 0b       	sbc	r23, r23
    118e:	8a 01       	movw	r16, r20
    1190:	9b 01       	movw	r18, r22
    1192:	00 0f       	add	r16, r16
    1194:	11 1f       	adc	r17, r17
    1196:	22 1f       	adc	r18, r18
    1198:	33 1f       	adc	r19, r19
    119a:	40 0f       	add	r20, r16
    119c:	51 1f       	adc	r21, r17
    119e:	62 1f       	adc	r22, r18
    11a0:	73 1f       	adc	r23, r19
    11a2:	87 01       	movw	r16, r14
    11a4:	ff 0c       	add	r15, r15
    11a6:	22 0b       	sbc	r18, r18
    11a8:	33 0b       	sbc	r19, r19
    11aa:	78 01       	movw	r14, r16
    11ac:	89 01       	movw	r16, r18
    11ae:	ee 0c       	add	r14, r14
    11b0:	ff 1c       	adc	r15, r15
    11b2:	00 1f       	adc	r16, r16
    11b4:	11 1f       	adc	r17, r17
    11b6:	ee 0c       	add	r14, r14
    11b8:	ff 1c       	adc	r15, r15
    11ba:	00 1f       	adc	r16, r16
    11bc:	11 1f       	adc	r17, r17
    11be:	4a 01       	movw	r8, r20
    11c0:	5b 01       	movw	r10, r22
    11c2:	8e 18       	sub	r8, r14
    11c4:	9f 08       	sbc	r9, r15
    11c6:	a0 0a       	sbc	r10, r16
    11c8:	b1 0a       	sbc	r11, r17
    11ca:	ac 01       	movw	r20, r24
    11cc:	99 0f       	add	r25, r25
    11ce:	66 0b       	sbc	r22, r22
    11d0:	77 0b       	sbc	r23, r23
    11d2:	d5 01       	movw	r26, r10
    11d4:	c4 01       	movw	r24, r8
    11d6:	84 0f       	add	r24, r20
    11d8:	95 1f       	adc	r25, r21
    11da:	a6 1f       	adc	r26, r22
    11dc:	b7 1f       	adc	r27, r23
    11de:	9c 01       	movw	r18, r24
    11e0:	ad 01       	movw	r20, r26
    11e2:	69 81       	ldd	r22, Y+1	; 0x01
    11e4:	7a 81       	ldd	r23, Y+2	; 0x02
    11e6:	8b 81       	ldd	r24, Y+3	; 0x03
    11e8:	9c 81       	ldd	r25, Y+4	; 0x04
    11ea:	0e 94 f8 15 	call	0x2bf0	; 0x2bf0 <__mulsi3>
    11ee:	0e 94 7c 13 	call	0x26f8	; 0x26f8 <__floatsisf>
    11f2:	20 e0       	ldi	r18, 0x00	; 0
    11f4:	30 e0       	ldi	r19, 0x00	; 0
    11f6:	40 e0       	ldi	r20, 0x00	; 0
    11f8:	5f e3       	ldi	r21, 0x3F	; 63
    11fa:	0e 94 5c 14 	call	0x28b8	; 0x28b8 <__mulsf3>
    11fe:	9b 01       	movw	r18, r22
    1200:	ac 01       	movw	r20, r24
    1202:	c3 01       	movw	r24, r6
    1204:	b2 01       	movw	r22, r4
    1206:	0e 94 79 12 	call	0x24f2	; 0x24f2 <__addsf3>
    120a:	2b 01       	movw	r4, r22
    120c:	3c 01       	movw	r6, r24
    120e:	80 91 16 20 	lds	r24, 0x2016	; 0x802016 <data_samples>
    1212:	81 01       	movw	r16, r2
    1214:	28 2f       	mov	r18, r24
    1216:	30 e0       	ldi	r19, 0x00	; 0
    1218:	22 16       	cp	r2, r18
    121a:	33 06       	cpc	r3, r19
    121c:	08 f4       	brcc	.+2      	; 0x1220 <diff+0x10e>
    121e:	a2 cf       	rjmp	.-188    	; 0x1164 <diff+0x52>
    1220:	03 c0       	rjmp	.+6      	; 0x1228 <diff+0x116>
    1222:	41 2c       	mov	r4, r1
    1224:	51 2c       	mov	r5, r1
    1226:	32 01       	movw	r6, r4
    1228:	68 2f       	mov	r22, r24
    122a:	70 e0       	ldi	r23, 0x00	; 0
    122c:	80 e0       	ldi	r24, 0x00	; 0
    122e:	90 e0       	ldi	r25, 0x00	; 0
    1230:	0e 94 7c 13 	call	0x26f8	; 0x26f8 <__floatsisf>
    1234:	9b 01       	movw	r18, r22
    1236:	ac 01       	movw	r20, r24
    1238:	c3 01       	movw	r24, r6
    123a:	b2 01       	movw	r22, r4
    123c:	0e 94 e1 12 	call	0x25c2	; 0x25c2 <__divsf3>
    1240:	20 e0       	ldi	r18, 0x00	; 0
    1242:	30 e0       	ldi	r19, 0x00	; 0
    1244:	48 ec       	ldi	r20, 0xC8	; 200
    1246:	52 e4       	ldi	r21, 0x42	; 66
    1248:	0e 94 e1 12 	call	0x25c2	; 0x25c2 <__divsf3>
    124c:	26 96       	adiw	r28, 0x06	; 6
    124e:	cd bf       	out	0x3d, r28	; 61
    1250:	de bf       	out	0x3e, r29	; 62
    1252:	df 91       	pop	r29
    1254:	cf 91       	pop	r28
    1256:	1f 91       	pop	r17
    1258:	0f 91       	pop	r16
    125a:	ff 90       	pop	r15
    125c:	ef 90       	pop	r14
    125e:	df 90       	pop	r13
    1260:	cf 90       	pop	r12
    1262:	bf 90       	pop	r11
    1264:	af 90       	pop	r10
    1266:	9f 90       	pop	r9
    1268:	8f 90       	pop	r8
    126a:	7f 90       	pop	r7
    126c:	6f 90       	pop	r6
    126e:	5f 90       	pop	r5
    1270:	4f 90       	pop	r4
    1272:	3f 90       	pop	r3
    1274:	2f 90       	pop	r2
    1276:	08 95       	ret

00001278 <data_check>:
    1278:	3f 92       	push	r3
    127a:	4f 92       	push	r4
    127c:	5f 92       	push	r5
    127e:	6f 92       	push	r6
    1280:	7f 92       	push	r7
    1282:	8f 92       	push	r8
    1284:	9f 92       	push	r9
    1286:	af 92       	push	r10
    1288:	bf 92       	push	r11
    128a:	cf 92       	push	r12
    128c:	df 92       	push	r13
    128e:	ef 92       	push	r14
    1290:	ff 92       	push	r15
    1292:	0f 93       	push	r16
    1294:	1f 93       	push	r17
    1296:	cf 93       	push	r28
    1298:	df 93       	push	r29
    129a:	00 d0       	rcall	.+0      	; 0x129c <data_check+0x24>
    129c:	00 d0       	rcall	.+0      	; 0x129e <data_check+0x26>
    129e:	cd b7       	in	r28, 0x3d	; 61
    12a0:	de b7       	in	r29, 0x3e	; 62
    12a2:	8c 01       	movw	r16, r24
    12a4:	19 82       	std	Y+1, r1	; 0x01
    12a6:	1a 82       	std	Y+2, r1	; 0x02
    12a8:	c1 2c       	mov	r12, r1
    12aa:	d1 2c       	mov	r13, r1
    12ac:	76 01       	movw	r14, r12
    12ae:	69 81       	ldd	r22, Y+1	; 0x01
    12b0:	7a 81       	ldd	r23, Y+2	; 0x02
    12b2:	c8 01       	movw	r24, r16
    12b4:	40 dd       	rcall	.-1408   	; 0xd36 <rb32_get_nth>
    12b6:	4b 01       	movw	r8, r22
    12b8:	5c 01       	movw	r10, r24
    12ba:	21 ea       	ldi	r18, 0xA1	; 161
    12bc:	82 1a       	sub	r8, r18
    12be:	26 e8       	ldi	r18, 0x86	; 134
    12c0:	92 0a       	sbc	r9, r18
    12c2:	21 e0       	ldi	r18, 0x01	; 1
    12c4:	a2 0a       	sbc	r10, r18
    12c6:	b1 08       	sbc	r11, r1
    12c8:	2f ed       	ldi	r18, 0xDF	; 223
    12ca:	82 16       	cp	r8, r18
    12cc:	2f e0       	ldi	r18, 0x0F	; 15
    12ce:	92 06       	cpc	r9, r18
    12d0:	27 e9       	ldi	r18, 0x97	; 151
    12d2:	a2 06       	cpc	r10, r18
    12d4:	b1 04       	cpc	r11, r1
    12d6:	80 f4       	brcc	.+32     	; 0x12f8 <data_check+0x80>
    12d8:	0e 94 7c 13 	call	0x26f8	; 0x26f8 <__floatsisf>
    12dc:	20 e0       	ldi	r18, 0x00	; 0
    12de:	30 e0       	ldi	r19, 0x00	; 0
    12e0:	40 ea       	ldi	r20, 0xA0	; 160
    12e2:	50 e4       	ldi	r21, 0x40	; 64
    12e4:	0e 94 e1 12 	call	0x25c2	; 0x25c2 <__divsf3>
    12e8:	9b 01       	movw	r18, r22
    12ea:	ac 01       	movw	r20, r24
    12ec:	c7 01       	movw	r24, r14
    12ee:	b6 01       	movw	r22, r12
    12f0:	0e 94 79 12 	call	0x24f2	; 0x24f2 <__addsf3>
    12f4:	6b 01       	movw	r12, r22
    12f6:	7c 01       	movw	r14, r24
    12f8:	89 81       	ldd	r24, Y+1	; 0x01
    12fa:	9a 81       	ldd	r25, Y+2	; 0x02
    12fc:	01 96       	adiw	r24, 0x01	; 1
    12fe:	89 83       	std	Y+1, r24	; 0x01
    1300:	9a 83       	std	Y+2, r25	; 0x02
    1302:	05 97       	sbiw	r24, 0x05	; 5
    1304:	a1 f6       	brne	.-88     	; 0x12ae <data_check+0x36>
    1306:	19 82       	std	Y+1, r1	; 0x01
    1308:	1a 82       	std	Y+2, r1	; 0x02
    130a:	81 2c       	mov	r8, r1
    130c:	91 2c       	mov	r9, r1
    130e:	54 01       	movw	r10, r8
    1310:	69 81       	ldd	r22, Y+1	; 0x01
    1312:	7a 81       	ldd	r23, Y+2	; 0x02
    1314:	c8 01       	movw	r24, r16
    1316:	0f dd       	rcall	.-1506   	; 0xd36 <rb32_get_nth>
    1318:	2b 01       	movw	r4, r22
    131a:	3c 01       	movw	r6, r24
    131c:	21 ea       	ldi	r18, 0xA1	; 161
    131e:	42 1a       	sub	r4, r18
    1320:	26 e8       	ldi	r18, 0x86	; 134
    1322:	52 0a       	sbc	r5, r18
    1324:	21 e0       	ldi	r18, 0x01	; 1
    1326:	62 0a       	sbc	r6, r18
    1328:	71 08       	sbc	r7, r1
    132a:	2f ed       	ldi	r18, 0xDF	; 223
    132c:	42 16       	cp	r4, r18
    132e:	2f e0       	ldi	r18, 0x0F	; 15
    1330:	52 06       	cpc	r5, r18
    1332:	27 e9       	ldi	r18, 0x97	; 151
    1334:	62 06       	cpc	r6, r18
    1336:	71 04       	cpc	r7, r1
    1338:	90 f4       	brcc	.+36     	; 0x135e <data_check+0xe6>
    133a:	0e 94 7c 13 	call	0x26f8	; 0x26f8 <__floatsisf>
    133e:	a7 01       	movw	r20, r14
    1340:	96 01       	movw	r18, r12
    1342:	0e 94 78 12 	call	0x24f0	; 0x24f0 <__subsf3>
    1346:	9b 01       	movw	r18, r22
    1348:	ac 01       	movw	r20, r24
    134a:	0e 94 5c 14 	call	0x28b8	; 0x28b8 <__mulsf3>
    134e:	9b 01       	movw	r18, r22
    1350:	ac 01       	movw	r20, r24
    1352:	c5 01       	movw	r24, r10
    1354:	b4 01       	movw	r22, r8
    1356:	0e 94 79 12 	call	0x24f2	; 0x24f2 <__addsf3>
    135a:	4b 01       	movw	r8, r22
    135c:	5c 01       	movw	r10, r24
    135e:	89 81       	ldd	r24, Y+1	; 0x01
    1360:	9a 81       	ldd	r25, Y+2	; 0x02
    1362:	01 96       	adiw	r24, 0x01	; 1
    1364:	89 83       	std	Y+1, r24	; 0x01
    1366:	9a 83       	std	Y+2, r25	; 0x02
    1368:	05 97       	sbiw	r24, 0x05	; 5
    136a:	91 f6       	brne	.-92     	; 0x1310 <data_check+0x98>
    136c:	20 e0       	ldi	r18, 0x00	; 0
    136e:	30 e0       	ldi	r19, 0x00	; 0
    1370:	40 e8       	ldi	r20, 0x80	; 128
    1372:	5e e3       	ldi	r21, 0x3E	; 62
    1374:	c5 01       	movw	r24, r10
    1376:	b4 01       	movw	r22, r8
    1378:	0e 94 5c 14 	call	0x28b8	; 0x28b8 <__mulsf3>
    137c:	69 83       	std	Y+1, r22	; 0x01
    137e:	7a 83       	std	Y+2, r23	; 0x02
    1380:	8b 83       	std	Y+3, r24	; 0x03
    1382:	9c 83       	std	Y+4, r25	; 0x04
    1384:	1d 82       	std	Y+5, r1	; 0x05
    1386:	1e 82       	std	Y+6, r1	; 0x06
    1388:	31 2c       	mov	r3, r1
    138a:	41 2c       	mov	r4, r1
    138c:	51 2c       	mov	r5, r1
    138e:	32 01       	movw	r6, r4
    1390:	6d 81       	ldd	r22, Y+5	; 0x05
    1392:	7e 81       	ldd	r23, Y+6	; 0x06
    1394:	c8 01       	movw	r24, r16
    1396:	cf dc       	rcall	.-1634   	; 0xd36 <rb32_get_nth>
    1398:	4b 01       	movw	r8, r22
    139a:	5c 01       	movw	r10, r24
    139c:	21 ea       	ldi	r18, 0xA1	; 161
    139e:	82 1a       	sub	r8, r18
    13a0:	26 e8       	ldi	r18, 0x86	; 134
    13a2:	92 0a       	sbc	r9, r18
    13a4:	21 e0       	ldi	r18, 0x01	; 1
    13a6:	a2 0a       	sbc	r10, r18
    13a8:	b1 08       	sbc	r11, r1
    13aa:	2f ed       	ldi	r18, 0xDF	; 223
    13ac:	82 16       	cp	r8, r18
    13ae:	2f e0       	ldi	r18, 0x0F	; 15
    13b0:	92 06       	cpc	r9, r18
    13b2:	27 e9       	ldi	r18, 0x97	; 151
    13b4:	a2 06       	cpc	r10, r18
    13b6:	b1 04       	cpc	r11, r1
    13b8:	50 f5       	brcc	.+84     	; 0x140e <data_check+0x196>
    13ba:	0e 94 7c 13 	call	0x26f8	; 0x26f8 <__floatsisf>
    13be:	4b 01       	movw	r8, r22
    13c0:	5c 01       	movw	r10, r24
    13c2:	a7 01       	movw	r20, r14
    13c4:	96 01       	movw	r18, r12
    13c6:	0e 94 78 12 	call	0x24f0	; 0x24f0 <__subsf3>
    13ca:	0e 94 49 13 	call	0x2692	; 0x2692 <__fixsfsi>
    13ce:	9b 01       	movw	r18, r22
    13d0:	77 23       	and	r23, r23
    13d2:	24 f4       	brge	.+8      	; 0x13dc <data_check+0x164>
    13d4:	22 27       	eor	r18, r18
    13d6:	33 27       	eor	r19, r19
    13d8:	26 1b       	sub	r18, r22
    13da:	37 0b       	sbc	r19, r23
    13dc:	b9 01       	movw	r22, r18
    13de:	33 0f       	add	r19, r19
    13e0:	88 0b       	sbc	r24, r24
    13e2:	99 0b       	sbc	r25, r25
    13e4:	0e 94 7c 13 	call	0x26f8	; 0x26f8 <__floatsisf>
    13e8:	9b 01       	movw	r18, r22
    13ea:	ac 01       	movw	r20, r24
    13ec:	69 81       	ldd	r22, Y+1	; 0x01
    13ee:	7a 81       	ldd	r23, Y+2	; 0x02
    13f0:	8b 81       	ldd	r24, Y+3	; 0x03
    13f2:	9c 81       	ldd	r25, Y+4	; 0x04
    13f4:	0e 94 51 14 	call	0x28a2	; 0x28a2 <__gesf2>
    13f8:	88 23       	and	r24, r24
    13fa:	4c f0       	brlt	.+18     	; 0x140e <data_check+0x196>
    13fc:	a5 01       	movw	r20, r10
    13fe:	94 01       	movw	r18, r8
    1400:	c3 01       	movw	r24, r6
    1402:	b2 01       	movw	r22, r4
    1404:	0e 94 79 12 	call	0x24f2	; 0x24f2 <__addsf3>
    1408:	2b 01       	movw	r4, r22
    140a:	3c 01       	movw	r6, r24
    140c:	33 94       	inc	r3
    140e:	8d 81       	ldd	r24, Y+5	; 0x05
    1410:	9e 81       	ldd	r25, Y+6	; 0x06
    1412:	01 96       	adiw	r24, 0x01	; 1
    1414:	8d 83       	std	Y+5, r24	; 0x05
    1416:	9e 83       	std	Y+6, r25	; 0x06
    1418:	05 97       	sbiw	r24, 0x05	; 5
    141a:	09 f0       	breq	.+2      	; 0x141e <data_check+0x1a6>
    141c:	b9 cf       	rjmp	.-142    	; 0x1390 <data_check+0x118>
    141e:	33 20       	and	r3, r3
    1420:	69 f0       	breq	.+26     	; 0x143c <data_check+0x1c4>
    1422:	63 2d       	mov	r22, r3
    1424:	70 e0       	ldi	r23, 0x00	; 0
    1426:	80 e0       	ldi	r24, 0x00	; 0
    1428:	90 e0       	ldi	r25, 0x00	; 0
    142a:	0e 94 7a 13 	call	0x26f4	; 0x26f4 <__floatunsisf>
    142e:	9b 01       	movw	r18, r22
    1430:	ac 01       	movw	r20, r24
    1432:	c3 01       	movw	r24, r6
    1434:	b2 01       	movw	r22, r4
    1436:	0e 94 e1 12 	call	0x25c2	; 0x25c2 <__divsf3>
    143a:	04 c0       	rjmp	.+8      	; 0x1444 <data_check+0x1cc>
    143c:	60 e0       	ldi	r22, 0x00	; 0
    143e:	70 e0       	ldi	r23, 0x00	; 0
    1440:	80 e8       	ldi	r24, 0x80	; 128
    1442:	9f eb       	ldi	r25, 0xBF	; 191
    1444:	26 96       	adiw	r28, 0x06	; 6
    1446:	cd bf       	out	0x3d, r28	; 61
    1448:	de bf       	out	0x3e, r29	; 62
    144a:	df 91       	pop	r29
    144c:	cf 91       	pop	r28
    144e:	1f 91       	pop	r17
    1450:	0f 91       	pop	r16
    1452:	ff 90       	pop	r15
    1454:	ef 90       	pop	r14
    1456:	df 90       	pop	r13
    1458:	cf 90       	pop	r12
    145a:	bf 90       	pop	r11
    145c:	af 90       	pop	r10
    145e:	9f 90       	pop	r9
    1460:	8f 90       	pop	r8
    1462:	7f 90       	pop	r7
    1464:	6f 90       	pop	r6
    1466:	5f 90       	pop	r5
    1468:	4f 90       	pop	r4
    146a:	3f 90       	pop	r3
    146c:	08 95       	ret

0000146e <data_collect>:
    146e:	af 92       	push	r10
    1470:	bf 92       	push	r11
    1472:	cf 92       	push	r12
    1474:	df 92       	push	r13
    1476:	ef 92       	push	r14
    1478:	ff 92       	push	r15
    147a:	0f 93       	push	r16
    147c:	1f 93       	push	r17
    147e:	cf 93       	push	r28
    1480:	df 93       	push	r29
    1482:	00 d0       	rcall	.+0      	; 0x1484 <data_collect+0x16>
    1484:	00 d0       	rcall	.+0      	; 0x1486 <data_collect+0x18>
    1486:	cd b7       	in	r28, 0x3d	; 61
    1488:	de b7       	in	r29, 0x3e	; 62
    148a:	5c 01       	movw	r10, r24
    148c:	8b 01       	movw	r16, r22
    148e:	35 dd       	rcall	.-1430   	; 0xefa <get_pressure>
    1490:	20 e0       	ldi	r18, 0x00	; 0
    1492:	30 e0       	ldi	r19, 0x00	; 0
    1494:	40 e2       	ldi	r20, 0x20	; 32
    1496:	51 e4       	ldi	r21, 0x41	; 65
    1498:	0e 94 5c 14 	call	0x28b8	; 0x28b8 <__mulsf3>
    149c:	0e 94 49 13 	call	0x2692	; 0x2692 <__fixsfsi>
    14a0:	69 83       	std	Y+1, r22	; 0x01
    14a2:	7a 83       	std	Y+2, r23	; 0x02
    14a4:	8b 83       	std	Y+3, r24	; 0x03
    14a6:	9c 83       	std	Y+4, r25	; 0x04
    14a8:	41 e0       	ldi	r20, 0x01	; 1
    14aa:	50 e0       	ldi	r21, 0x00	; 0
    14ac:	be 01       	movw	r22, r28
    14ae:	6f 5f       	subi	r22, 0xFF	; 255
    14b0:	7f 4f       	sbci	r23, 0xFF	; 255
    14b2:	c8 01       	movw	r24, r16
    14b4:	e5 db       	rcall	.-2102   	; 0xc80 <rb32_write>
    14b6:	c8 01       	movw	r24, r16
    14b8:	df de       	rcall	.-578    	; 0x1278 <data_check>
    14ba:	20 e0       	ldi	r18, 0x00	; 0
    14bc:	30 e0       	ldi	r19, 0x00	; 0
    14be:	40 e2       	ldi	r20, 0x20	; 32
    14c0:	51 e4       	ldi	r21, 0x41	; 65
    14c2:	0e 94 e1 12 	call	0x25c2	; 0x25c2 <__divsf3>
    14c6:	6b 01       	movw	r12, r22
    14c8:	7c 01       	movw	r14, r24
    14ca:	20 e0       	ldi	r18, 0x00	; 0
    14cc:	30 e0       	ldi	r19, 0x00	; 0
    14ce:	40 e8       	ldi	r20, 0x80	; 128
    14d0:	5f eb       	ldi	r21, 0xBF	; 191
    14d2:	0e 94 dd 12 	call	0x25ba	; 0x25ba <__cmpsf2>
    14d6:	88 23       	and	r24, r24
    14d8:	81 f1       	breq	.+96     	; 0x153a <data_collect+0xcc>
    14da:	c0 92 e6 20 	sts	0x20E6, r12	; 0x8020e6 <press>
    14de:	d0 92 e7 20 	sts	0x20E7, r13	; 0x8020e7 <press+0x1>
    14e2:	e0 92 e8 20 	sts	0x20E8, r14	; 0x8020e8 <press+0x2>
    14e6:	f0 92 e9 20 	sts	0x20E9, r15	; 0x8020e9 <press+0x3>
    14ea:	c7 01       	movw	r24, r14
    14ec:	b6 01       	movw	r22, r12
    14ee:	a8 dd       	rcall	.-1200   	; 0x1040 <get_altitude>
    14f0:	60 93 de 20 	sts	0x20DE, r22	; 0x8020de <alt>
    14f4:	70 93 df 20 	sts	0x20DF, r23	; 0x8020df <alt+0x1>
    14f8:	80 93 e0 20 	sts	0x20E0, r24	; 0x8020e0 <alt+0x2>
    14fc:	90 93 e1 20 	sts	0x20E1, r25	; 0x8020e1 <alt+0x3>
    1500:	20 e0       	ldi	r18, 0x00	; 0
    1502:	30 e0       	ldi	r19, 0x00	; 0
    1504:	48 ec       	ldi	r20, 0xC8	; 200
    1506:	52 e4       	ldi	r21, 0x42	; 66
    1508:	0e 94 5c 14 	call	0x28b8	; 0x28b8 <__mulsf3>
    150c:	0e 94 49 13 	call	0x2692	; 0x2692 <__fixsfsi>
    1510:	6d 83       	std	Y+5, r22	; 0x05
    1512:	7e 83       	std	Y+6, r23	; 0x06
    1514:	41 e0       	ldi	r20, 0x01	; 1
    1516:	50 e0       	ldi	r21, 0x00	; 0
    1518:	be 01       	movw	r22, r28
    151a:	6b 5f       	subi	r22, 0xFB	; 251
    151c:	7f 4f       	sbci	r23, 0xFF	; 255
    151e:	c5 01       	movw	r24, r10
    1520:	39 db       	rcall	.-2446   	; 0xb94 <rb16_write>
    1522:	60 91 19 20 	lds	r22, 0x2019	; 0x802019 <rate>
    1526:	c5 01       	movw	r24, r10
    1528:	f4 dd       	rcall	.-1048   	; 0x1112 <diff>
    152a:	60 93 d6 20 	sts	0x20D6, r22	; 0x8020d6 <velocity>
    152e:	70 93 d7 20 	sts	0x20D7, r23	; 0x8020d7 <velocity+0x1>
    1532:	80 93 d8 20 	sts	0x20D8, r24	; 0x8020d8 <velocity+0x2>
    1536:	90 93 d9 20 	sts	0x20D9, r25	; 0x8020d9 <velocity+0x3>
    153a:	83 e3       	ldi	r24, 0x33	; 51
    153c:	93 e1       	ldi	r25, 0x13	; 19
    153e:	a0 e9       	ldi	r26, 0x90	; 144
    1540:	b3 e4       	ldi	r27, 0x43	; 67
    1542:	80 93 e2 20 	sts	0x20E2, r24	; 0x8020e2 <temp>
    1546:	90 93 e3 20 	sts	0x20E3, r25	; 0x8020e3 <temp+0x1>
    154a:	a0 93 e4 20 	sts	0x20E4, r26	; 0x8020e4 <temp+0x2>
    154e:	b0 93 e5 20 	sts	0x20E5, r27	; 0x8020e5 <temp+0x3>
    1552:	26 96       	adiw	r28, 0x06	; 6
    1554:	cd bf       	out	0x3d, r28	; 61
    1556:	de bf       	out	0x3e, r29	; 62
    1558:	df 91       	pop	r29
    155a:	cf 91       	pop	r28
    155c:	1f 91       	pop	r17
    155e:	0f 91       	pop	r16
    1560:	ff 90       	pop	r15
    1562:	ef 90       	pop	r14
    1564:	df 90       	pop	r13
    1566:	cf 90       	pop	r12
    1568:	bf 90       	pop	r11
    156a:	af 90       	pop	r10
    156c:	08 95       	ret

0000156e <state_check>:
    156e:	cf 92       	push	r12
    1570:	df 92       	push	r13
    1572:	ef 92       	push	r14
    1574:	ff 92       	push	r15
    1576:	c0 90 d6 20 	lds	r12, 0x20D6	; 0x8020d6 <velocity>
    157a:	d0 90 d7 20 	lds	r13, 0x20D7	; 0x8020d7 <velocity+0x1>
    157e:	e0 90 d8 20 	lds	r14, 0x20D8	; 0x8020d8 <velocity+0x2>
    1582:	f0 90 d9 20 	lds	r15, 0x20D9	; 0x8020d9 <velocity+0x3>
    1586:	c7 01       	movw	r24, r14
    1588:	b6 01       	movw	r22, r12
    158a:	0e 94 49 13 	call	0x2692	; 0x2692 <__fixsfsi>
    158e:	9b 01       	movw	r18, r22
    1590:	77 23       	and	r23, r23
    1592:	24 f4       	brge	.+8      	; 0x159c <state_check+0x2e>
    1594:	22 27       	eor	r18, r18
    1596:	33 27       	eor	r19, r19
    1598:	26 1b       	sub	r18, r22
    159a:	37 0b       	sbc	r19, r23
    159c:	26 30       	cpi	r18, 0x06	; 6
    159e:	31 05       	cpc	r19, r1
    15a0:	8c f0       	brlt	.+34     	; 0x15c4 <state_check+0x56>
    15a2:	20 e0       	ldi	r18, 0x00	; 0
    15a4:	30 e0       	ldi	r19, 0x00	; 0
    15a6:	a9 01       	movw	r20, r18
    15a8:	c7 01       	movw	r24, r14
    15aa:	b6 01       	movw	r22, r12
    15ac:	0e 94 dd 12 	call	0x25ba	; 0x25ba <__cmpsf2>
    15b0:	88 23       	and	r24, r24
    15b2:	24 f0       	brlt	.+8      	; 0x15bc <state_check+0x4e>
    15b4:	81 e0       	ldi	r24, 0x01	; 1
    15b6:	80 93 05 21 	sts	0x2105, r24	; 0x802105 <state>
    15ba:	24 c0       	rjmp	.+72     	; 0x1604 <state_check+0x96>
    15bc:	82 e0       	ldi	r24, 0x02	; 2
    15be:	80 93 05 21 	sts	0x2105, r24	; 0x802105 <state>
    15c2:	20 c0       	rjmp	.+64     	; 0x1604 <state_check+0x96>
    15c4:	10 92 05 21 	sts	0x2105, r1	; 0x802105 <state>
    15c8:	20 e0       	ldi	r18, 0x00	; 0
    15ca:	30 e0       	ldi	r19, 0x00	; 0
    15cc:	48 e4       	ldi	r20, 0x48	; 72
    15ce:	52 e4       	ldi	r21, 0x42	; 66
    15d0:	60 91 de 20 	lds	r22, 0x20DE	; 0x8020de <alt>
    15d4:	70 91 df 20 	lds	r23, 0x20DF	; 0x8020df <alt+0x1>
    15d8:	80 91 e0 20 	lds	r24, 0x20E0	; 0x8020e0 <alt+0x2>
    15dc:	90 91 e1 20 	lds	r25, 0x20E1	; 0x8020e1 <alt+0x3>
    15e0:	0e 94 51 14 	call	0x28a2	; 0x28a2 <__gesf2>
    15e4:	18 16       	cp	r1, r24
    15e6:	24 f0       	brlt	.+8      	; 0x15f0 <state_check+0x82>
    15e8:	80 91 03 21 	lds	r24, 0x2103	; 0x802103 <reset_received>
    15ec:	88 23       	and	r24, r24
    15ee:	19 f0       	breq	.+6      	; 0x15f6 <state_check+0x88>
    15f0:	81 e0       	ldi	r24, 0x01	; 1
    15f2:	80 93 05 21 	sts	0x2105, r24	; 0x802105 <state>
    15f6:	80 91 04 21 	lds	r24, 0x2104	; 0x802104 <released>
    15fa:	88 23       	and	r24, r24
    15fc:	19 f0       	breq	.+6      	; 0x1604 <state_check+0x96>
    15fe:	83 e0       	ldi	r24, 0x03	; 3
    1600:	80 93 05 21 	sts	0x2105, r24	; 0x802105 <state>
    1604:	ff 90       	pop	r15
    1606:	ef 90       	pop	r14
    1608:	df 90       	pop	r13
    160a:	cf 90       	pop	r12
    160c:	08 95       	ret

0000160e <servo_pid>:
    160e:	8f 92       	push	r8
    1610:	9f 92       	push	r9
    1612:	af 92       	push	r10
    1614:	bf 92       	push	r11
    1616:	cf 92       	push	r12
    1618:	df 92       	push	r13
    161a:	ef 92       	push	r14
    161c:	ff 92       	push	r15
    161e:	0f 93       	push	r16
    1620:	1f 93       	push	r17
    1622:	cf 93       	push	r28
    1624:	df 93       	push	r29
    1626:	7c 01       	movw	r14, r24
    1628:	c0 e0       	ldi	r28, 0x00	; 0
    162a:	d0 e0       	ldi	r29, 0x00	; 0
    162c:	00 e0       	ldi	r16, 0x00	; 0
    162e:	10 e0       	ldi	r17, 0x00	; 0
    1630:	be 01       	movw	r22, r28
    1632:	c7 01       	movw	r24, r14
    1634:	f8 da       	rcall	.-2576   	; 0xc26 <rb16_get_nth>
    1636:	08 0f       	add	r16, r24
    1638:	19 1f       	adc	r17, r25
    163a:	21 96       	adiw	r28, 0x01	; 1
    163c:	ca 30       	cpi	r28, 0x0A	; 10
    163e:	d1 05       	cpc	r29, r1
    1640:	b9 f7       	brne	.-18     	; 0x1630 <servo_pid+0x22>
    1642:	60 e0       	ldi	r22, 0x00	; 0
    1644:	70 e0       	ldi	r23, 0x00	; 0
    1646:	c7 01       	movw	r24, r14
    1648:	ee da       	rcall	.-2596   	; 0xc26 <rb16_get_nth>
    164a:	ec 01       	movw	r28, r24
    164c:	60 91 19 20 	lds	r22, 0x2019	; 0x802019 <rate>
    1650:	c7 01       	movw	r24, r14
    1652:	5f dd       	rcall	.-1346   	; 0x1112 <diff>
    1654:	6b 01       	movw	r12, r22
    1656:	7c 01       	movw	r14, r24
    1658:	be 01       	movw	r22, r28
    165a:	dd 0f       	add	r29, r29
    165c:	88 0b       	sbc	r24, r24
    165e:	99 0b       	sbc	r25, r25
    1660:	0e 94 7c 13 	call	0x26f8	; 0x26f8 <__floatsisf>
    1664:	20 e0       	ldi	r18, 0x00	; 0
    1666:	30 e0       	ldi	r19, 0x00	; 0
    1668:	a9 01       	movw	r20, r18
    166a:	0e 94 5c 14 	call	0x28b8	; 0x28b8 <__mulsf3>
    166e:	20 e0       	ldi	r18, 0x00	; 0
    1670:	30 e0       	ldi	r19, 0x00	; 0
    1672:	48 ec       	ldi	r20, 0xC8	; 200
    1674:	52 e4       	ldi	r21, 0x42	; 66
    1676:	a5 d7       	rcall	.+3914   	; 0x25c2 <__divsf3>
    1678:	4b 01       	movw	r8, r22
    167a:	5c 01       	movw	r10, r24
    167c:	b8 01       	movw	r22, r16
    167e:	11 0f       	add	r17, r17
    1680:	88 0b       	sbc	r24, r24
    1682:	99 0b       	sbc	r25, r25
    1684:	0e 94 7c 13 	call	0x26f8	; 0x26f8 <__floatsisf>
    1688:	20 e0       	ldi	r18, 0x00	; 0
    168a:	30 e0       	ldi	r19, 0x00	; 0
    168c:	a9 01       	movw	r20, r18
    168e:	0e 94 5c 14 	call	0x28b8	; 0x28b8 <__mulsf3>
    1692:	20 e0       	ldi	r18, 0x00	; 0
    1694:	30 e0       	ldi	r19, 0x00	; 0
    1696:	48 ec       	ldi	r20, 0xC8	; 200
    1698:	52 e4       	ldi	r21, 0x42	; 66
    169a:	93 d7       	rcall	.+3878   	; 0x25c2 <__divsf3>
    169c:	9b 01       	movw	r18, r22
    169e:	ac 01       	movw	r20, r24
    16a0:	c5 01       	movw	r24, r10
    16a2:	b4 01       	movw	r22, r8
    16a4:	26 d7       	rcall	.+3660   	; 0x24f2 <__addsf3>
    16a6:	4b 01       	movw	r8, r22
    16a8:	5c 01       	movw	r10, r24
    16aa:	20 e0       	ldi	r18, 0x00	; 0
    16ac:	30 e0       	ldi	r19, 0x00	; 0
    16ae:	a9 01       	movw	r20, r18
    16b0:	c7 01       	movw	r24, r14
    16b2:	b6 01       	movw	r22, r12
    16b4:	0e 94 5c 14 	call	0x28b8	; 0x28b8 <__mulsf3>
    16b8:	9b 01       	movw	r18, r22
    16ba:	ac 01       	movw	r20, r24
    16bc:	c5 01       	movw	r24, r10
    16be:	b4 01       	movw	r22, r8
    16c0:	18 d7       	rcall	.+3632   	; 0x24f2 <__addsf3>
    16c2:	20 e0       	ldi	r18, 0x00	; 0
    16c4:	30 e8       	ldi	r19, 0x80	; 128
    16c6:	4b eb       	ldi	r20, 0xBB	; 187
    16c8:	54 e4       	ldi	r21, 0x44	; 68
    16ca:	13 d7       	rcall	.+3622   	; 0x24f2 <__addsf3>
    16cc:	e7 d7       	rcall	.+4046   	; 0x269c <__fixunssfsi>
    16ce:	60 93 1b 20 	sts	0x201B, r22	; 0x80201b <servo_pulse>
    16d2:	70 93 1c 20 	sts	0x201C, r23	; 0x80201c <servo_pulse+0x1>
    16d6:	80 e0       	ldi	r24, 0x00	; 0
    16d8:	90 e0       	ldi	r25, 0x00	; 0
    16da:	0e 94 7a 13 	call	0x26f4	; 0x26f4 <__floatunsisf>
    16de:	20 e0       	ldi	r18, 0x00	; 0
    16e0:	30 e0       	ldi	r19, 0x00	; 0
    16e2:	4a e7       	ldi	r20, 0x7A	; 122
    16e4:	54 e4       	ldi	r21, 0x44	; 68
    16e6:	6d d7       	rcall	.+3802   	; 0x25c2 <__divsf3>
    16e8:	20 e0       	ldi	r18, 0x00	; 0
    16ea:	30 e0       	ldi	r19, 0x00	; 0
    16ec:	4a ef       	ldi	r20, 0xFA	; 250
    16ee:	53 e4       	ldi	r21, 0x43	; 67
    16f0:	0e 94 5c 14 	call	0x28b8	; 0x28b8 <__mulsf3>
    16f4:	d3 d7       	rcall	.+4006   	; 0x269c <__fixunssfsi>
    16f6:	60 93 68 09 	sts	0x0968, r22	; 0x800968 <__TEXT_REGION_LENGTH__+0x700968>
    16fa:	70 93 69 09 	sts	0x0969, r23	; 0x800969 <__TEXT_REGION_LENGTH__+0x700969>
    16fe:	df 91       	pop	r29
    1700:	cf 91       	pop	r28
    1702:	1f 91       	pop	r17
    1704:	0f 91       	pop	r16
    1706:	ff 90       	pop	r15
    1708:	ef 90       	pop	r14
    170a:	df 90       	pop	r13
    170c:	cf 90       	pop	r12
    170e:	bf 90       	pop	r11
    1710:	af 90       	pop	r10
    1712:	9f 90       	pop	r9
    1714:	8f 90       	pop	r8
    1716:	08 95       	ret

00001718 <clock_init>:
    1718:	61 e0       	ldi	r22, 0x01	; 1
    171a:	85 e0       	ldi	r24, 0x05	; 5
    171c:	76 db       	rcall	.-2324   	; 0xe0a <sysclk_enable_module>
    171e:	e0 e0       	ldi	r30, 0x00	; 0
    1720:	fa e0       	ldi	r31, 0x0A	; 10
    1722:	87 e0       	ldi	r24, 0x07	; 7
    1724:	80 83       	st	Z, r24
    1726:	81 e1       	ldi	r24, 0x11	; 17
    1728:	9a e7       	ldi	r25, 0x7A	; 122
    172a:	86 a3       	std	Z+38, r24	; 0x26
    172c:	97 a3       	std	Z+39, r25	; 0x27
    172e:	81 e0       	ldi	r24, 0x01	; 1
    1730:	86 83       	std	Z+6, r24	; 0x06
    1732:	08 95       	ret

00001734 <system_init>:
    1734:	0f 93       	push	r16
    1736:	1f 93       	push	r17
    1738:	33 db       	rcall	.-2458   	; 0xda0 <sysclk_init>
    173a:	6b ea       	ldi	r22, 0xAB	; 171
    173c:	79 e2       	ldi	r23, 0x29	; 41
    173e:	80 e0       	ldi	r24, 0x00	; 0
    1740:	90 e0       	ldi	r25, 0x00	; 0
    1742:	7f db       	rcall	.-2306   	; 0xe42 <__portable_avr_delay_cycles>
    1744:	78 94       	sei
    1746:	8c eb       	ldi	r24, 0xBC	; 188
    1748:	80 93 40 06 	sts	0x0640, r24	; 0x800640 <__TEXT_REGION_LENGTH__+0x700640>
    174c:	87 e0       	ldi	r24, 0x07	; 7
    174e:	80 93 a2 00 	sts	0x00A2, r24	; 0x8000a2 <__TEXT_REGION_LENGTH__+0x7000a2>
    1752:	da d9       	rcall	.-3148   	; 0xb08 <data_terminal_init>
    1754:	6b ea       	ldi	r22, 0xAB	; 171
    1756:	70 eb       	ldi	r23, 0xB0	; 176
    1758:	88 e2       	ldi	r24, 0x28	; 40
    175a:	90 e0       	ldi	r25, 0x00	; 0
    175c:	72 db       	rcall	.-2332   	; 0xe42 <__portable_avr_delay_cycles>
    175e:	6b ea       	ldi	r22, 0xAB	; 171
    1760:	79 e2       	ldi	r23, 0x29	; 41
    1762:	80 e0       	ldi	r24, 0x00	; 0
    1764:	90 e0       	ldi	r25, 0x00	; 0
    1766:	6d db       	rcall	.-2342   	; 0xe42 <__portable_avr_delay_cycles>
    1768:	a1 d9       	rcall	.-3262   	; 0xaac <spi_init>
    176a:	6b ea       	ldi	r22, 0xAB	; 171
    176c:	79 e2       	ldi	r23, 0x29	; 41
    176e:	80 e0       	ldi	r24, 0x00	; 0
    1770:	90 e0       	ldi	r25, 0x00	; 0
    1772:	67 db       	rcall	.-2354   	; 0xe42 <__portable_avr_delay_cycles>
    1774:	71 db       	rcall	.-2334   	; 0xe58 <pressure_init>
    1776:	6b ea       	ldi	r22, 0xAB	; 171
    1778:	79 e2       	ldi	r23, 0x29	; 41
    177a:	80 e0       	ldi	r24, 0x00	; 0
    177c:	90 e0       	ldi	r25, 0x00	; 0
    177e:	61 db       	rcall	.-2366   	; 0xe42 <__portable_avr_delay_cycles>
    1780:	80 e2       	ldi	r24, 0x20	; 32
    1782:	80 93 a3 0a 	sts	0x0AA3, r24	; 0x800aa3 <__TEXT_REGION_LENGTH__+0x700aa3>
    1786:	af db       	rcall	.-2210   	; 0xee6 <gps_init>
    1788:	c7 df       	rcall	.-114    	; 0x1718 <clock_init>
    178a:	d0 d8       	rcall	.-3680   	; 0x92c <cam_init>
    178c:	66 e5       	ldi	r22, 0x56	; 86
    178e:	70 ed       	ldi	r23, 0xD0	; 208
    1790:	80 e0       	ldi	r24, 0x00	; 0
    1792:	90 e0       	ldi	r25, 0x00	; 0
    1794:	56 db       	rcall	.-2388   	; 0xe42 <__portable_avr_delay_cycles>
    1796:	eb de       	rcall	.-554    	; 0x156e <state_check>
    1798:	b0 db       	rcall	.-2208   	; 0xefa <get_pressure>
    179a:	60 93 2d 20 	sts	0x202D, r22	; 0x80202d <ground_p>
    179e:	70 93 2e 20 	sts	0x202E, r23	; 0x80202e <ground_p+0x1>
    17a2:	80 93 2f 20 	sts	0x202F, r24	; 0x80202f <ground_p+0x2>
    17a6:	90 93 30 20 	sts	0x2030, r25	; 0x802030 <ground_p+0x3>
    17aa:	03 e3       	ldi	r16, 0x33	; 51
    17ac:	13 e1       	ldi	r17, 0x13	; 19
    17ae:	20 e9       	ldi	r18, 0x90	; 144
    17b0:	33 e4       	ldi	r19, 0x43	; 67
    17b2:	00 93 29 20 	sts	0x2029, r16	; 0x802029 <ground_t>
    17b6:	10 93 2a 20 	sts	0x202A, r17	; 0x80202a <ground_t+0x1>
    17ba:	20 93 2b 20 	sts	0x202B, r18	; 0x80202b <ground_t+0x2>
    17be:	30 93 2c 20 	sts	0x202C, r19	; 0x80202c <ground_t+0x3>
    17c2:	3e dc       	rcall	.-1924   	; 0x1040 <get_altitude>
    17c4:	60 93 ff 20 	sts	0x20FF, r22	; 0x8020ff <ground_a>
    17c8:	70 93 00 21 	sts	0x2100, r23	; 0x802100 <ground_a+0x1>
    17cc:	80 93 01 21 	sts	0x2101, r24	; 0x802101 <ground_a+0x2>
    17d0:	90 93 02 21 	sts	0x2102, r25	; 0x802102 <ground_a+0x3>
    17d4:	1f 91       	pop	r17
    17d6:	0f 91       	pop	r16
    17d8:	08 95       	ret

000017da <main>:
    17da:	cf 93       	push	r28
    17dc:	df 93       	push	r29
    17de:	cd b7       	in	r28, 0x3d	; 61
    17e0:	de b7       	in	r29, 0x3e	; 62
    17e2:	ce 56       	subi	r28, 0x6E	; 110
    17e4:	d1 09       	sbc	r29, r1
    17e6:	cd bf       	out	0x3d, r28	; 61
    17e8:	de bf       	out	0x3e, r29	; 62
    17ea:	a4 df       	rcall	.-184    	; 0x1734 <system_init>
    17ec:	66 e5       	ldi	r22, 0x56	; 86
    17ee:	73 e2       	ldi	r23, 0x23	; 35
    17f0:	88 e0       	ldi	r24, 0x08	; 8
    17f2:	90 e0       	ldi	r25, 0x00	; 0
    17f4:	26 db       	rcall	.-2484   	; 0xe42 <__portable_avr_delay_cycles>
    17f6:	14 e1       	ldi	r17, 0x14	; 20
    17f8:	be 01       	movw	r22, r28
    17fa:	6f 5f       	subi	r22, 0xFF	; 255
    17fc:	7f 4f       	sbci	r23, 0xFF	; 255
    17fe:	fb 01       	movw	r30, r22
    1800:	81 2f       	mov	r24, r17
    1802:	11 92       	st	Z+, r1
    1804:	8a 95       	dec	r24
    1806:	e9 f7       	brne	.-6      	; 0x1802 <main+0x28>
    1808:	4a e0       	ldi	r20, 0x0A	; 10
    180a:	50 e0       	ldi	r21, 0x00	; 0
    180c:	ce 01       	movw	r24, r28
    180e:	45 96       	adiw	r24, 0x15	; 21
    1810:	00 da       	rcall	.-3072   	; 0xc12 <rb16_init>
    1812:	be 01       	movw	r22, r28
    1814:	63 5e       	subi	r22, 0xE3	; 227
    1816:	7f 4f       	sbci	r23, 0xFF	; 255
    1818:	88 e2       	ldi	r24, 0x28	; 40
    181a:	fb 01       	movw	r30, r22
    181c:	11 92       	st	Z+, r1
    181e:	8a 95       	dec	r24
    1820:	e9 f7       	brne	.-6      	; 0x181c <main+0x42>
    1822:	4a e0       	ldi	r20, 0x0A	; 10
    1824:	50 e0       	ldi	r21, 0x00	; 0
    1826:	ce 01       	movw	r24, r28
    1828:	8b 5b       	subi	r24, 0xBB	; 187
    182a:	9f 4f       	sbci	r25, 0xFF	; 255
    182c:	7a da       	rcall	.-2828   	; 0xd22 <rb32_init>
    182e:	be 01       	movw	r22, r28
    1830:	63 5b       	subi	r22, 0xB3	; 179
    1832:	7f 4f       	sbci	r23, 0xFF	; 255
    1834:	fb 01       	movw	r30, r22
    1836:	11 92       	st	Z+, r1
    1838:	1a 95       	dec	r17
    183a:	e9 f7       	brne	.-6      	; 0x1836 <main+0x5c>
    183c:	4a e0       	ldi	r20, 0x0A	; 10
    183e:	50 e0       	ldi	r21, 0x00	; 0
    1840:	ce 01       	movw	r24, r28
    1842:	8f 59       	subi	r24, 0x9F	; 159
    1844:	9f 4f       	sbci	r25, 0xFF	; 255
    1846:	e5 d9       	rcall	.-3126   	; 0xc12 <rb16_init>
    1848:	af 96       	adiw	r28, 0x2f	; 47
    184a:	1f ae       	std	Y+63, r1	; 0x3f
    184c:	af 97       	sbiw	r28, 0x2f	; 47
    184e:	ae 96       	adiw	r28, 0x2e	; 46
    1850:	1f ae       	std	Y+63, r1	; 0x3f
    1852:	ae 97       	sbiw	r28, 0x2e	; 46
    1854:	0f 2e       	mov	r0, r31
    1856:	f2 e2       	ldi	r31, 0x22	; 34
    1858:	cf 2e       	mov	r12, r31
    185a:	f1 e2       	ldi	r31, 0x21	; 33
    185c:	df 2e       	mov	r13, r31
    185e:	f0 2d       	mov	r31, r0
    1860:	be 01       	movw	r22, r28
    1862:	6b 5b       	subi	r22, 0xBB	; 187
    1864:	7f 4f       	sbci	r23, 0xFF	; 255
    1866:	ce 01       	movw	r24, r28
    1868:	45 96       	adiw	r24, 0x15	; 21
    186a:	01 de       	rcall	.-1022   	; 0x146e <data_collect>
    186c:	80 de       	rcall	.-768    	; 0x156e <state_check>
    186e:	80 91 05 21 	lds	r24, 0x2105	; 0x802105 <state>
    1872:	81 30       	cpi	r24, 0x01	; 1
    1874:	41 f0       	breq	.+16     	; 0x1886 <main+0xac>
    1876:	08 f4       	brcc	.+2      	; 0x187a <main+0xa0>
    1878:	58 c0       	rjmp	.+176    	; 0x192a <main+0x150>
    187a:	82 30       	cpi	r24, 0x02	; 2
    187c:	01 f1       	breq	.+64     	; 0x18be <main+0xe4>
    187e:	83 30       	cpi	r24, 0x03	; 3
    1880:	09 f4       	brne	.+2      	; 0x1884 <main+0xaa>
    1882:	47 c0       	rjmp	.+142    	; 0x1912 <main+0x138>
    1884:	50 c0       	rjmp	.+160    	; 0x1926 <main+0x14c>
    1886:	20 e0       	ldi	r18, 0x00	; 0
    1888:	30 e0       	ldi	r19, 0x00	; 0
    188a:	46 e1       	ldi	r20, 0x16	; 22
    188c:	54 e4       	ldi	r21, 0x44	; 68
    188e:	60 91 de 20 	lds	r22, 0x20DE	; 0x8020de <alt>
    1892:	70 91 df 20 	lds	r23, 0x20DF	; 0x8020df <alt+0x1>
    1896:	80 91 e0 20 	lds	r24, 0x20E0	; 0x8020e0 <alt+0x2>
    189a:	90 91 e1 20 	lds	r25, 0x20E1	; 0x8020e1 <alt+0x3>
    189e:	0e 94 51 14 	call	0x28a2	; 0x28a2 <__gesf2>
    18a2:	18 16       	cp	r1, r24
    18a4:	0c f0       	brlt	.+2      	; 0x18a8 <main+0xce>
    18a6:	41 c0       	rjmp	.+130    	; 0x192a <main+0x150>
    18a8:	ae 96       	adiw	r28, 0x2e	; 46
    18aa:	ff ad       	ldd	r31, Y+63	; 0x3f
    18ac:	ae 97       	sbiw	r28, 0x2e	; 46
    18ae:	f1 11       	cpse	r31, r1
    18b0:	3c c0       	rjmp	.+120    	; 0x192a <main+0x150>
    18b2:	42 d8       	rcall	.-3964   	; 0x938 <cam_switch>
    18b4:	81 e0       	ldi	r24, 0x01	; 1
    18b6:	ae 96       	adiw	r28, 0x2e	; 46
    18b8:	8f af       	std	Y+63, r24	; 0x3f
    18ba:	ae 97       	sbiw	r28, 0x2e	; 46
    18bc:	36 c0       	rjmp	.+108    	; 0x192a <main+0x150>
    18be:	ae 96       	adiw	r28, 0x2e	; 46
    18c0:	9f ad       	ldd	r25, Y+63	; 0x3f
    18c2:	ae 97       	sbiw	r28, 0x2e	; 46
    18c4:	91 11       	cpse	r25, r1
    18c6:	05 c0       	rjmp	.+10     	; 0x18d2 <main+0xf8>
    18c8:	37 d8       	rcall	.-3986   	; 0x938 <cam_switch>
    18ca:	e1 e0       	ldi	r30, 0x01	; 1
    18cc:	ae 96       	adiw	r28, 0x2e	; 46
    18ce:	ef af       	std	Y+63, r30	; 0x3f
    18d0:	ae 97       	sbiw	r28, 0x2e	; 46
    18d2:	20 e0       	ldi	r18, 0x00	; 0
    18d4:	30 e0       	ldi	r19, 0x00	; 0
    18d6:	41 ee       	ldi	r20, 0xE1	; 225
    18d8:	53 e4       	ldi	r21, 0x43	; 67
    18da:	60 91 de 20 	lds	r22, 0x20DE	; 0x8020de <alt>
    18de:	70 91 df 20 	lds	r23, 0x20DF	; 0x8020df <alt+0x1>
    18e2:	80 91 e0 20 	lds	r24, 0x20E0	; 0x8020e0 <alt+0x2>
    18e6:	90 91 e1 20 	lds	r25, 0x20E1	; 0x8020e1 <alt+0x3>
    18ea:	02 d6       	rcall	.+3076   	; 0x24f0 <__subsf3>
    18ec:	d2 d6       	rcall	.+3492   	; 0x2692 <__fixsfsi>
    18ee:	67 5f       	subi	r22, 0xF7	; 247
    18f0:	7f 4f       	sbci	r23, 0xFF	; 255
    18f2:	63 31       	cpi	r22, 0x13	; 19
    18f4:	71 05       	cpc	r23, r1
    18f6:	20 f4       	brcc	.+8      	; 0x1900 <main+0x126>
    18f8:	81 e0       	ldi	r24, 0x01	; 1
    18fa:	80 93 04 21 	sts	0x2104, r24	; 0x802104 <released>
    18fe:	15 d8       	rcall	.-4054   	; 0x92a <hall_sensor_init>
    1900:	80 91 04 21 	lds	r24, 0x2104	; 0x802104 <released>
    1904:	88 23       	and	r24, r24
    1906:	89 f0       	breq	.+34     	; 0x192a <main+0x150>
    1908:	ce 01       	movw	r24, r28
    190a:	8f 59       	subi	r24, 0x9F	; 159
    190c:	9f 4f       	sbci	r25, 0xFF	; 255
    190e:	7f de       	rcall	.-770    	; 0x160e <servo_pid>
    1910:	0c c0       	rjmp	.+24     	; 0x192a <main+0x150>
    1912:	af 96       	adiw	r28, 0x2f	; 47
    1914:	ff ad       	ldd	r31, Y+63	; 0x3f
    1916:	af 97       	sbiw	r28, 0x2f	; 47
    1918:	f1 11       	cpse	r31, r1
    191a:	07 c0       	rjmp	.+14     	; 0x192a <main+0x150>
    191c:	81 e0       	ldi	r24, 0x01	; 1
    191e:	af 96       	adiw	r28, 0x2f	; 47
    1920:	8f af       	std	Y+63, r24	; 0x3f
    1922:	af 97       	sbiw	r28, 0x2f	; 47
    1924:	02 c0       	rjmp	.+4      	; 0x192a <main+0x150>
    1926:	10 92 05 21 	sts	0x2105, r1	; 0x802105 <state>
    192a:	e0 90 ea 20 	lds	r14, 0x20EA	; 0x8020ea <packets>
    192e:	f0 90 eb 20 	lds	r15, 0x20EB	; 0x8020eb <packets+0x1>
    1932:	9f ef       	ldi	r25, 0xFF	; 255
    1934:	e9 1a       	sub	r14, r25
    1936:	f9 0a       	sbc	r15, r25
    1938:	e0 92 ea 20 	sts	0x20EA, r14	; 0x8020ea <packets>
    193c:	f0 92 eb 20 	sts	0x20EB, r15	; 0x8020eb <packets+0x1>
    1940:	20 90 ec 20 	lds	r2, 0x20EC	; 0x8020ec <timer>
    1944:	30 90 ed 20 	lds	r3, 0x20ED	; 0x8020ed <timer+0x1>
    1948:	21 14       	cp	r2, r1
    194a:	31 04       	cpc	r3, r1
    194c:	41 f0       	breq	.+16     	; 0x195e <main+0x184>
    194e:	c7 01       	movw	r24, r14
    1950:	b1 01       	movw	r22, r2
    1952:	0e 94 07 16 	call	0x2c0e	; 0x2c0e <__udivmodhi4>
    1956:	60 93 19 20 	sts	0x2019, r22	; 0x802019 <rate>
    195a:	70 93 1a 20 	sts	0x201A, r23	; 0x80201a <rate+0x1>
    195e:	60 91 c6 20 	lds	r22, 0x20C6	; 0x8020c6 <gps_alt>
    1962:	70 91 c7 20 	lds	r23, 0x20C7	; 0x8020c7 <gps_alt+0x1>
    1966:	80 91 c8 20 	lds	r24, 0x20C8	; 0x8020c8 <gps_alt+0x2>
    196a:	90 91 c9 20 	lds	r25, 0x20C9	; 0x8020c9 <gps_alt+0x3>
    196e:	91 d6       	rcall	.+3362   	; 0x2692 <__fixsfsi>
    1970:	16 2f       	mov	r17, r22
    1972:	07 2f       	mov	r16, r23
    1974:	80 90 ca 20 	lds	r8, 0x20CA	; 0x8020ca <gps_long>
    1978:	90 90 cb 20 	lds	r9, 0x20CB	; 0x8020cb <gps_long+0x1>
    197c:	a0 90 cc 20 	lds	r10, 0x20CC	; 0x8020cc <gps_long+0x2>
    1980:	b0 90 cd 20 	lds	r11, 0x20CD	; 0x8020cd <gps_long+0x3>
    1984:	40 90 ce 20 	lds	r4, 0x20CE	; 0x8020ce <gps_lat>
    1988:	50 90 cf 20 	lds	r5, 0x20CF	; 0x8020cf <gps_lat+0x1>
    198c:	60 90 d0 20 	lds	r6, 0x20D0	; 0x8020d0 <gps_lat+0x2>
    1990:	70 90 d1 20 	lds	r7, 0x20D1	; 0x8020d1 <gps_lat+0x3>
    1994:	60 91 d2 20 	lds	r22, 0x20D2	; 0x8020d2 <gps_t>
    1998:	70 91 d3 20 	lds	r23, 0x20D3	; 0x8020d3 <gps_t+0x1>
    199c:	80 91 d4 20 	lds	r24, 0x20D4	; 0x8020d4 <gps_t+0x2>
    19a0:	90 91 d5 20 	lds	r25, 0x20D5	; 0x8020d5 <gps_t+0x3>
    19a4:	76 d6       	rcall	.+3308   	; 0x2692 <__fixsfsi>
    19a6:	ad 96       	adiw	r28, 0x2d	; 45
    19a8:	6c af       	std	Y+60, r22	; 0x3c
    19aa:	7d af       	std	Y+61, r23	; 0x3d
    19ac:	8e af       	std	Y+62, r24	; 0x3e
    19ae:	9f af       	std	Y+63, r25	; 0x3f
    19b0:	ad 97       	sbiw	r28, 0x2d	; 45
    19b2:	1f 92       	push	r1
    19b4:	1f 92       	push	r1
    19b6:	60 91 b4 20 	lds	r22, 0x20B4	; 0x8020b4 <__data_end>
    19ba:	70 91 b5 20 	lds	r23, 0x20B5	; 0x8020b5 <__data_end+0x1>
    19be:	80 91 b6 20 	lds	r24, 0x20B6	; 0x8020b6 <__data_end+0x2>
    19c2:	90 91 b7 20 	lds	r25, 0x20B7	; 0x8020b7 <__data_end+0x3>
    19c6:	65 d6       	rcall	.+3274   	; 0x2692 <__fixsfsi>
    19c8:	7f 93       	push	r23
    19ca:	6f 93       	push	r22
    19cc:	80 91 05 21 	lds	r24, 0x2105	; 0x802105 <state>
    19d0:	1f 92       	push	r1
    19d2:	8f 93       	push	r24
    19d4:	60 91 b8 20 	lds	r22, 0x20B8	; 0x8020b8 <rpm>
    19d8:	70 91 b9 20 	lds	r23, 0x20B9	; 0x8020b9 <rpm+0x1>
    19dc:	80 91 ba 20 	lds	r24, 0x20BA	; 0x8020ba <rpm+0x2>
    19e0:	90 91 bb 20 	lds	r25, 0x20BB	; 0x8020bb <rpm+0x3>
    19e4:	56 d6       	rcall	.+3244   	; 0x2692 <__fixsfsi>
    19e6:	7f 93       	push	r23
    19e8:	6f 93       	push	r22
    19ea:	60 91 bc 20 	lds	r22, 0x20BC	; 0x8020bc <roll>
    19ee:	70 91 bd 20 	lds	r23, 0x20BD	; 0x8020bd <roll+0x1>
    19f2:	80 91 be 20 	lds	r24, 0x20BE	; 0x8020be <roll+0x2>
    19f6:	90 91 bf 20 	lds	r25, 0x20BF	; 0x8020bf <roll+0x3>
    19fa:	4b d6       	rcall	.+3222   	; 0x2692 <__fixsfsi>
    19fc:	7f 93       	push	r23
    19fe:	6f 93       	push	r22
    1a00:	60 91 c0 20 	lds	r22, 0x20C0	; 0x8020c0 <pitch>
    1a04:	70 91 c1 20 	lds	r23, 0x20C1	; 0x8020c1 <pitch+0x1>
    1a08:	80 91 c2 20 	lds	r24, 0x20C2	; 0x8020c2 <pitch+0x2>
    1a0c:	90 91 c3 20 	lds	r25, 0x20C3	; 0x8020c3 <pitch+0x3>
    1a10:	40 d6       	rcall	.+3200   	; 0x2692 <__fixsfsi>
    1a12:	7f 93       	push	r23
    1a14:	6f 93       	push	r22
    1a16:	80 91 c5 20 	lds	r24, 0x20C5	; 0x8020c5 <gps_sats+0x1>
    1a1a:	8f 93       	push	r24
    1a1c:	80 91 c4 20 	lds	r24, 0x20C4	; 0x8020c4 <gps_sats>
    1a20:	8f 93       	push	r24
    1a22:	81 2f       	mov	r24, r17
    1a24:	90 2f       	mov	r25, r16
    1a26:	88 0f       	add	r24, r24
    1a28:	99 1f       	adc	r25, r25
    1a2a:	9c 01       	movw	r18, r24
    1a2c:	22 0f       	add	r18, r18
    1a2e:	33 1f       	adc	r19, r19
    1a30:	22 0f       	add	r18, r18
    1a32:	33 1f       	adc	r19, r19
    1a34:	82 0f       	add	r24, r18
    1a36:	93 1f       	adc	r25, r19
    1a38:	6a e0       	ldi	r22, 0x0A	; 10
    1a3a:	70 e0       	ldi	r23, 0x00	; 0
    1a3c:	0e 94 1b 16 	call	0x2c36	; 0x2c36 <__divmodhi4>
    1a40:	9f 93       	push	r25
    1a42:	8f 93       	push	r24
    1a44:	0f 93       	push	r16
    1a46:	1f 93       	push	r17
    1a48:	20 e0       	ldi	r18, 0x00	; 0
    1a4a:	34 e2       	ldi	r19, 0x24	; 36
    1a4c:	44 e7       	ldi	r20, 0x74	; 116
    1a4e:	59 e4       	ldi	r21, 0x49	; 73
    1a50:	c5 01       	movw	r24, r10
    1a52:	b4 01       	movw	r22, r8
    1a54:	31 d7       	rcall	.+3682   	; 0x28b8 <__mulsf3>
    1a56:	1d d6       	rcall	.+3130   	; 0x2692 <__fixsfsi>
    1a58:	20 e4       	ldi	r18, 0x40	; 64
    1a5a:	32 e4       	ldi	r19, 0x42	; 66
    1a5c:	4f e0       	ldi	r20, 0x0F	; 15
    1a5e:	50 e0       	ldi	r21, 0x00	; 0
    1a60:	0e 94 50 16 	call	0x2ca0	; 0x2ca0 <__divmodsi4>
    1a64:	9b 01       	movw	r18, r22
    1a66:	77 23       	and	r23, r23
    1a68:	24 f4       	brge	.+8      	; 0x1a72 <main+0x298>
    1a6a:	22 27       	eor	r18, r18
    1a6c:	33 27       	eor	r19, r19
    1a6e:	26 1b       	sub	r18, r22
    1a70:	37 0b       	sbc	r19, r23
    1a72:	c9 01       	movw	r24, r18
    1a74:	33 0f       	add	r19, r19
    1a76:	aa 0b       	sbc	r26, r26
    1a78:	bb 0b       	sbc	r27, r27
    1a7a:	bf 93       	push	r27
    1a7c:	af 93       	push	r26
    1a7e:	9f 93       	push	r25
    1a80:	8f 93       	push	r24
    1a82:	c5 01       	movw	r24, r10
    1a84:	b4 01       	movw	r22, r8
    1a86:	05 d6       	rcall	.+3082   	; 0x2692 <__fixsfsi>
    1a88:	7f 93       	push	r23
    1a8a:	6f 93       	push	r22
    1a8c:	20 e0       	ldi	r18, 0x00	; 0
    1a8e:	34 e2       	ldi	r19, 0x24	; 36
    1a90:	44 e7       	ldi	r20, 0x74	; 116
    1a92:	59 e4       	ldi	r21, 0x49	; 73
    1a94:	c3 01       	movw	r24, r6
    1a96:	b2 01       	movw	r22, r4
    1a98:	0f d7       	rcall	.+3614   	; 0x28b8 <__mulsf3>
    1a9a:	fb d5       	rcall	.+3062   	; 0x2692 <__fixsfsi>
    1a9c:	20 e4       	ldi	r18, 0x40	; 64
    1a9e:	32 e4       	ldi	r19, 0x42	; 66
    1aa0:	4f e0       	ldi	r20, 0x0F	; 15
    1aa2:	50 e0       	ldi	r21, 0x00	; 0
    1aa4:	0e 94 50 16 	call	0x2ca0	; 0x2ca0 <__divmodsi4>
    1aa8:	9f 93       	push	r25
    1aaa:	8f 93       	push	r24
    1aac:	7f 93       	push	r23
    1aae:	6f 93       	push	r22
    1ab0:	c3 01       	movw	r24, r6
    1ab2:	b2 01       	movw	r22, r4
    1ab4:	ee d5       	rcall	.+3036   	; 0x2692 <__fixsfsi>
    1ab6:	7f 93       	push	r23
    1ab8:	6f 93       	push	r22
    1aba:	ad 96       	adiw	r28, 0x2d	; 45
    1abc:	6c ad       	ldd	r22, Y+60	; 0x3c
    1abe:	7d ad       	ldd	r23, Y+61	; 0x3d
    1ac0:	8e ad       	ldd	r24, Y+62	; 0x3e
    1ac2:	9f ad       	ldd	r25, Y+63	; 0x3f
    1ac4:	ad 97       	sbiw	r28, 0x2d	; 45
    1ac6:	24 e6       	ldi	r18, 0x64	; 100
    1ac8:	30 e0       	ldi	r19, 0x00	; 0
    1aca:	40 e0       	ldi	r20, 0x00	; 0
    1acc:	50 e0       	ldi	r21, 0x00	; 0
    1ace:	0e 94 50 16 	call	0x2ca0	; 0x2ca0 <__divmodsi4>
    1ad2:	7f 93       	push	r23
    1ad4:	6f 93       	push	r22
    1ad6:	ad 96       	adiw	r28, 0x2d	; 45
    1ad8:	6c ad       	ldd	r22, Y+60	; 0x3c
    1ada:	7d ad       	ldd	r23, Y+61	; 0x3d
    1adc:	8e ad       	ldd	r24, Y+62	; 0x3e
    1ade:	9f ad       	ldd	r25, Y+63	; 0x3f
    1ae0:	ad 97       	sbiw	r28, 0x2d	; 45
    1ae2:	20 e1       	ldi	r18, 0x10	; 16
    1ae4:	37 e2       	ldi	r19, 0x27	; 39
    1ae6:	40 e0       	ldi	r20, 0x00	; 0
    1ae8:	50 e0       	ldi	r21, 0x00	; 0
    1aea:	0e 94 50 16 	call	0x2ca0	; 0x2ca0 <__divmodsi4>
    1aee:	12 2f       	mov	r17, r18
    1af0:	03 2f       	mov	r16, r19
    1af2:	24 e6       	ldi	r18, 0x64	; 100
    1af4:	30 e0       	ldi	r19, 0x00	; 0
    1af6:	40 e0       	ldi	r20, 0x00	; 0
    1af8:	50 e0       	ldi	r21, 0x00	; 0
    1afa:	0e 94 50 16 	call	0x2ca0	; 0x2ca0 <__divmodsi4>
    1afe:	3f 93       	push	r19
    1b00:	2f 93       	push	r18
    1b02:	0f 93       	push	r16
    1b04:	1f 93       	push	r17
    1b06:	60 91 da 20 	lds	r22, 0x20DA	; 0x8020da <volt>
    1b0a:	70 91 db 20 	lds	r23, 0x20DB	; 0x8020db <volt+0x1>
    1b0e:	80 91 dc 20 	lds	r24, 0x20DC	; 0x8020dc <volt+0x2>
    1b12:	90 91 dd 20 	lds	r25, 0x20DD	; 0x8020dd <volt+0x3>
    1b16:	bd d5       	rcall	.+2938   	; 0x2692 <__fixsfsi>
    1b18:	7f 93       	push	r23
    1b1a:	6f 93       	push	r22
    1b1c:	23 e3       	ldi	r18, 0x33	; 51
    1b1e:	33 e9       	ldi	r19, 0x93	; 147
    1b20:	48 e8       	ldi	r20, 0x88	; 136
    1b22:	53 e4       	ldi	r21, 0x43	; 67
    1b24:	60 91 e2 20 	lds	r22, 0x20E2	; 0x8020e2 <temp>
    1b28:	70 91 e3 20 	lds	r23, 0x20E3	; 0x8020e3 <temp+0x1>
    1b2c:	80 91 e4 20 	lds	r24, 0x20E4	; 0x8020e4 <temp+0x2>
    1b30:	90 91 e5 20 	lds	r25, 0x20E5	; 0x8020e5 <temp+0x3>
    1b34:	dd d4       	rcall	.+2490   	; 0x24f0 <__subsf3>
    1b36:	ad d5       	rcall	.+2906   	; 0x2692 <__fixsfsi>
    1b38:	7f 93       	push	r23
    1b3a:	6f 93       	push	r22
    1b3c:	60 91 e6 20 	lds	r22, 0x20E6	; 0x8020e6 <press>
    1b40:	70 91 e7 20 	lds	r23, 0x20E7	; 0x8020e7 <press+0x1>
    1b44:	80 91 e8 20 	lds	r24, 0x20E8	; 0x8020e8 <press+0x2>
    1b48:	90 91 e9 20 	lds	r25, 0x20E9	; 0x8020e9 <press+0x3>
    1b4c:	a2 d5       	rcall	.+2884   	; 0x2692 <__fixsfsi>
    1b4e:	9f 93       	push	r25
    1b50:	8f 93       	push	r24
    1b52:	7f 93       	push	r23
    1b54:	6f 93       	push	r22
    1b56:	60 91 de 20 	lds	r22, 0x20DE	; 0x8020de <alt>
    1b5a:	70 91 df 20 	lds	r23, 0x20DF	; 0x8020df <alt+0x1>
    1b5e:	80 91 e0 20 	lds	r24, 0x20E0	; 0x8020e0 <alt+0x2>
    1b62:	90 91 e1 20 	lds	r25, 0x20E1	; 0x8020e1 <alt+0x3>
    1b66:	95 d5       	rcall	.+2858   	; 0x2692 <__fixsfsi>
    1b68:	7f 93       	push	r23
    1b6a:	6f 93       	push	r22
    1b6c:	ff 92       	push	r15
    1b6e:	ef 92       	push	r14
    1b70:	3f 92       	push	r3
    1b72:	2f 92       	push	r2
    1b74:	80 91 18 20 	lds	r24, 0x2018	; 0x802018 <format+0x1>
    1b78:	8f 93       	push	r24
    1b7a:	80 91 17 20 	lds	r24, 0x2017	; 0x802017 <format>
    1b7e:	8f 93       	push	r24
    1b80:	df 92       	push	r13
    1b82:	cf 92       	push	r12
    1b84:	0e 94 e8 16 	call	0x2dd0	; 0x2dd0 <sprintf>
    1b88:	cd bf       	out	0x3d, r28	; 61
    1b8a:	de bf       	out	0x3e, r29	; 62
    1b8c:	df 92       	push	r13
    1b8e:	cf 92       	push	r12
    1b90:	0e 94 d5 16 	call	0x2daa	; 0x2daa <printf>
    1b94:	0f 90       	pop	r0
    1b96:	0f 90       	pop	r0
    1b98:	63 ce       	rjmp	.-826    	; 0x1860 <main+0x86>

00001b9a <reset>:
    1b9a:	10 92 e6 20 	sts	0x20E6, r1	; 0x8020e6 <press>
    1b9e:	10 92 e7 20 	sts	0x20E7, r1	; 0x8020e7 <press+0x1>
    1ba2:	10 92 e8 20 	sts	0x20E8, r1	; 0x8020e8 <press+0x2>
    1ba6:	10 92 e9 20 	sts	0x20E9, r1	; 0x8020e9 <press+0x3>
    1baa:	10 92 e2 20 	sts	0x20E2, r1	; 0x8020e2 <temp>
    1bae:	10 92 e3 20 	sts	0x20E3, r1	; 0x8020e3 <temp+0x1>
    1bb2:	10 92 e4 20 	sts	0x20E4, r1	; 0x8020e4 <temp+0x2>
    1bb6:	10 92 e5 20 	sts	0x20E5, r1	; 0x8020e5 <temp+0x3>
    1bba:	10 92 de 20 	sts	0x20DE, r1	; 0x8020de <alt>
    1bbe:	10 92 df 20 	sts	0x20DF, r1	; 0x8020df <alt+0x1>
    1bc2:	10 92 e0 20 	sts	0x20E0, r1	; 0x8020e0 <alt+0x2>
    1bc6:	10 92 e1 20 	sts	0x20E1, r1	; 0x8020e1 <alt+0x3>
    1bca:	10 92 da 20 	sts	0x20DA, r1	; 0x8020da <volt>
    1bce:	10 92 db 20 	sts	0x20DB, r1	; 0x8020db <volt+0x1>
    1bd2:	10 92 dc 20 	sts	0x20DC, r1	; 0x8020dc <volt+0x2>
    1bd6:	10 92 dd 20 	sts	0x20DD, r1	; 0x8020dd <volt+0x3>
    1bda:	10 92 d6 20 	sts	0x20D6, r1	; 0x8020d6 <velocity>
    1bde:	10 92 d7 20 	sts	0x20D7, r1	; 0x8020d7 <velocity+0x1>
    1be2:	10 92 d8 20 	sts	0x20D8, r1	; 0x8020d8 <velocity+0x2>
    1be6:	10 92 d9 20 	sts	0x20D9, r1	; 0x8020d9 <velocity+0x3>
    1bea:	10 92 d2 20 	sts	0x20D2, r1	; 0x8020d2 <gps_t>
    1bee:	10 92 d3 20 	sts	0x20D3, r1	; 0x8020d3 <gps_t+0x1>
    1bf2:	10 92 d4 20 	sts	0x20D4, r1	; 0x8020d4 <gps_t+0x2>
    1bf6:	10 92 d5 20 	sts	0x20D5, r1	; 0x8020d5 <gps_t+0x3>
    1bfa:	10 92 ce 20 	sts	0x20CE, r1	; 0x8020ce <gps_lat>
    1bfe:	10 92 cf 20 	sts	0x20CF, r1	; 0x8020cf <gps_lat+0x1>
    1c02:	10 92 d0 20 	sts	0x20D0, r1	; 0x8020d0 <gps_lat+0x2>
    1c06:	10 92 d1 20 	sts	0x20D1, r1	; 0x8020d1 <gps_lat+0x3>
    1c0a:	10 92 ca 20 	sts	0x20CA, r1	; 0x8020ca <gps_long>
    1c0e:	10 92 cb 20 	sts	0x20CB, r1	; 0x8020cb <gps_long+0x1>
    1c12:	10 92 cc 20 	sts	0x20CC, r1	; 0x8020cc <gps_long+0x2>
    1c16:	10 92 cd 20 	sts	0x20CD, r1	; 0x8020cd <gps_long+0x3>
    1c1a:	10 92 c6 20 	sts	0x20C6, r1	; 0x8020c6 <gps_alt>
    1c1e:	10 92 c7 20 	sts	0x20C7, r1	; 0x8020c7 <gps_alt+0x1>
    1c22:	10 92 c8 20 	sts	0x20C8, r1	; 0x8020c8 <gps_alt+0x2>
    1c26:	10 92 c9 20 	sts	0x20C9, r1	; 0x8020c9 <gps_alt+0x3>
    1c2a:	10 92 c4 20 	sts	0x20C4, r1	; 0x8020c4 <gps_sats>
    1c2e:	10 92 c5 20 	sts	0x20C5, r1	; 0x8020c5 <gps_sats+0x1>
    1c32:	10 92 c0 20 	sts	0x20C0, r1	; 0x8020c0 <pitch>
    1c36:	10 92 c1 20 	sts	0x20C1, r1	; 0x8020c1 <pitch+0x1>
    1c3a:	10 92 c2 20 	sts	0x20C2, r1	; 0x8020c2 <pitch+0x2>
    1c3e:	10 92 c3 20 	sts	0x20C3, r1	; 0x8020c3 <pitch+0x3>
    1c42:	10 92 bc 20 	sts	0x20BC, r1	; 0x8020bc <roll>
    1c46:	10 92 bd 20 	sts	0x20BD, r1	; 0x8020bd <roll+0x1>
    1c4a:	10 92 be 20 	sts	0x20BE, r1	; 0x8020be <roll+0x2>
    1c4e:	10 92 bf 20 	sts	0x20BF, r1	; 0x8020bf <roll+0x3>
    1c52:	10 92 b8 20 	sts	0x20B8, r1	; 0x8020b8 <rpm>
    1c56:	10 92 b9 20 	sts	0x20B9, r1	; 0x8020b9 <rpm+0x1>
    1c5a:	10 92 ba 20 	sts	0x20BA, r1	; 0x8020ba <rpm+0x2>
    1c5e:	10 92 bb 20 	sts	0x20BB, r1	; 0x8020bb <rpm+0x3>
    1c62:	10 92 b4 20 	sts	0x20B4, r1	; 0x8020b4 <__data_end>
    1c66:	10 92 b5 20 	sts	0x20B5, r1	; 0x8020b5 <__data_end+0x1>
    1c6a:	10 92 b6 20 	sts	0x20B6, r1	; 0x8020b6 <__data_end+0x2>
    1c6e:	10 92 b7 20 	sts	0x20B7, r1	; 0x8020b7 <__data_end+0x3>
    1c72:	10 92 05 21 	sts	0x2105, r1	; 0x802105 <state>
    1c76:	10 92 04 21 	sts	0x2104, r1	; 0x802104 <released>
    1c7a:	5c dd       	rcall	.-1352   	; 0x1734 <system_init>
    1c7c:	81 e0       	ldi	r24, 0x01	; 1
    1c7e:	80 93 03 21 	sts	0x2103, r24	; 0x802103 <reset_received>
    1c82:	08 95       	ret

00001c84 <cali_alt>:
    1c84:	80 91 e6 20 	lds	r24, 0x20E6	; 0x8020e6 <press>
    1c88:	90 91 e7 20 	lds	r25, 0x20E7	; 0x8020e7 <press+0x1>
    1c8c:	a0 91 e8 20 	lds	r26, 0x20E8	; 0x8020e8 <press+0x2>
    1c90:	b0 91 e9 20 	lds	r27, 0x20E9	; 0x8020e9 <press+0x3>
    1c94:	80 93 2d 20 	sts	0x202D, r24	; 0x80202d <ground_p>
    1c98:	90 93 2e 20 	sts	0x202E, r25	; 0x80202e <ground_p+0x1>
    1c9c:	a0 93 2f 20 	sts	0x202F, r26	; 0x80202f <ground_p+0x2>
    1ca0:	b0 93 30 20 	sts	0x2030, r27	; 0x802030 <ground_p+0x3>
    1ca4:	80 91 de 20 	lds	r24, 0x20DE	; 0x8020de <alt>
    1ca8:	90 91 df 20 	lds	r25, 0x20DF	; 0x8020df <alt+0x1>
    1cac:	a0 91 e0 20 	lds	r26, 0x20E0	; 0x8020e0 <alt+0x2>
    1cb0:	b0 91 e1 20 	lds	r27, 0x20E1	; 0x8020e1 <alt+0x3>
    1cb4:	80 93 ff 20 	sts	0x20FF, r24	; 0x8020ff <ground_a>
    1cb8:	90 93 00 21 	sts	0x2100, r25	; 0x802100 <ground_a+0x1>
    1cbc:	a0 93 01 21 	sts	0x2101, r26	; 0x802101 <ground_a+0x2>
    1cc0:	b0 93 02 21 	sts	0x2102, r27	; 0x802102 <ground_a+0x3>
    1cc4:	83 e3       	ldi	r24, 0x33	; 51
    1cc6:	93 e1       	ldi	r25, 0x13	; 19
    1cc8:	a0 e9       	ldi	r26, 0x90	; 144
    1cca:	b3 e4       	ldi	r27, 0x43	; 67
    1ccc:	80 93 29 20 	sts	0x2029, r24	; 0x802029 <ground_t>
    1cd0:	90 93 2a 20 	sts	0x202A, r25	; 0x80202a <ground_t+0x1>
    1cd4:	a0 93 2b 20 	sts	0x202B, r26	; 0x80202b <ground_t+0x2>
    1cd8:	b0 93 2c 20 	sts	0x202C, r27	; 0x80202c <ground_t+0x3>
    1cdc:	08 95       	ret

00001cde <send_gps>:
    1cde:	8f 92       	push	r8
    1ce0:	9f 92       	push	r9
    1ce2:	af 92       	push	r10
    1ce4:	bf 92       	push	r11
    1ce6:	cf 92       	push	r12
    1ce8:	df 92       	push	r13
    1cea:	ef 92       	push	r14
    1cec:	ff 92       	push	r15
    1cee:	0f 93       	push	r16
    1cf0:	1f 93       	push	r17
    1cf2:	cf 93       	push	r28
    1cf4:	df 93       	push	r29
    1cf6:	cd b7       	in	r28, 0x3d	; 61
    1cf8:	de b7       	in	r29, 0x3e	; 62
    1cfa:	c6 54       	subi	r28, 0x46	; 70
    1cfc:	d1 09       	sbc	r29, r1
    1cfe:	cd bf       	out	0x3d, r28	; 61
    1d00:	de bf       	out	0x3e, r29	; 62
    1d02:	60 91 ca 20 	lds	r22, 0x20CA	; 0x8020ca <gps_long>
    1d06:	70 91 cb 20 	lds	r23, 0x20CB	; 0x8020cb <gps_long+0x1>
    1d0a:	80 91 cc 20 	lds	r24, 0x20CC	; 0x8020cc <gps_long+0x2>
    1d0e:	90 91 cd 20 	lds	r25, 0x20CD	; 0x8020cd <gps_long+0x3>
    1d12:	bf d4       	rcall	.+2430   	; 0x2692 <__fixsfsi>
    1d14:	16 2f       	mov	r17, r22
    1d16:	07 2f       	mov	r16, r23
    1d18:	c0 90 ce 20 	lds	r12, 0x20CE	; 0x8020ce <gps_lat>
    1d1c:	d0 90 cf 20 	lds	r13, 0x20CF	; 0x8020cf <gps_lat+0x1>
    1d20:	e0 90 d0 20 	lds	r14, 0x20D0	; 0x8020d0 <gps_lat+0x2>
    1d24:	f0 90 d1 20 	lds	r15, 0x20D1	; 0x8020d1 <gps_lat+0x3>
    1d28:	a6 2f       	mov	r26, r22
    1d2a:	b7 2f       	mov	r27, r23
    1d2c:	bb 23       	and	r27, r27
    1d2e:	1c f4       	brge	.+6      	; 0x1d36 <send_gps+0x58>
    1d30:	b1 95       	neg	r27
    1d32:	a1 95       	neg	r26
    1d34:	b1 09       	sbc	r27, r1
    1d36:	20 e4       	ldi	r18, 0x40	; 64
    1d38:	32 e4       	ldi	r19, 0x42	; 66
    1d3a:	4f e0       	ldi	r20, 0x0F	; 15
    1d3c:	50 e0       	ldi	r21, 0x00	; 0
    1d3e:	d6 d7       	rcall	.+4012   	; 0x2cec <__mulshisi3>
    1d40:	0f 2e       	mov	r0, r31
    1d42:	f0 e4       	ldi	r31, 0x40	; 64
    1d44:	8f 2e       	mov	r8, r31
    1d46:	f2 e4       	ldi	r31, 0x42	; 66
    1d48:	9f 2e       	mov	r9, r31
    1d4a:	ff e0       	ldi	r31, 0x0F	; 15
    1d4c:	af 2e       	mov	r10, r31
    1d4e:	b1 2c       	mov	r11, r1
    1d50:	f0 2d       	mov	r31, r0
    1d52:	a6 d7       	rcall	.+3916   	; 0x2ca0 <__divmodsi4>
    1d54:	9f 93       	push	r25
    1d56:	8f 93       	push	r24
    1d58:	7f 93       	push	r23
    1d5a:	6f 93       	push	r22
    1d5c:	0f 93       	push	r16
    1d5e:	1f 93       	push	r17
    1d60:	20 e0       	ldi	r18, 0x00	; 0
    1d62:	34 e2       	ldi	r19, 0x24	; 36
    1d64:	44 e7       	ldi	r20, 0x74	; 116
    1d66:	59 e4       	ldi	r21, 0x49	; 73
    1d68:	c7 01       	movw	r24, r14
    1d6a:	b6 01       	movw	r22, r12
    1d6c:	a5 d5       	rcall	.+2890   	; 0x28b8 <__mulsf3>
    1d6e:	91 d4       	rcall	.+2338   	; 0x2692 <__fixsfsi>
    1d70:	a5 01       	movw	r20, r10
    1d72:	94 01       	movw	r18, r8
    1d74:	95 d7       	rcall	.+3882   	; 0x2ca0 <__divmodsi4>
    1d76:	9f 93       	push	r25
    1d78:	8f 93       	push	r24
    1d7a:	7f 93       	push	r23
    1d7c:	6f 93       	push	r22
    1d7e:	c7 01       	movw	r24, r14
    1d80:	b6 01       	movw	r22, r12
    1d82:	87 d4       	rcall	.+2318   	; 0x2692 <__fixsfsi>
    1d84:	7f 93       	push	r23
    1d86:	6f 93       	push	r22
    1d88:	80 91 15 20 	lds	r24, 0x2015	; 0x802015 <gps_msg+0x1>
    1d8c:	8f 93       	push	r24
    1d8e:	80 91 14 20 	lds	r24, 0x2014	; 0x802014 <gps_msg>
    1d92:	8f 93       	push	r24
    1d94:	8e 01       	movw	r16, r28
    1d96:	0f 5f       	subi	r16, 0xFF	; 255
    1d98:	1f 4f       	sbci	r17, 0xFF	; 255
    1d9a:	1f 93       	push	r17
    1d9c:	0f 93       	push	r16
    1d9e:	0e 94 e8 16 	call	0x2dd0	; 0x2dd0 <sprintf>
    1da2:	1f 93       	push	r17
    1da4:	0f 93       	push	r16
    1da6:	0e 94 d5 16 	call	0x2daa	; 0x2daa <printf>
    1daa:	cd bf       	out	0x3d, r28	; 61
    1dac:	de bf       	out	0x3e, r29	; 62
    1dae:	ca 5b       	subi	r28, 0xBA	; 186
    1db0:	df 4f       	sbci	r29, 0xFF	; 255
    1db2:	cd bf       	out	0x3d, r28	; 61
    1db4:	de bf       	out	0x3e, r29	; 62
    1db6:	df 91       	pop	r29
    1db8:	cf 91       	pop	r28
    1dba:	1f 91       	pop	r17
    1dbc:	0f 91       	pop	r16
    1dbe:	ff 90       	pop	r15
    1dc0:	ef 90       	pop	r14
    1dc2:	df 90       	pop	r13
    1dc4:	cf 90       	pop	r12
    1dc6:	bf 90       	pop	r11
    1dc8:	af 90       	pop	r10
    1dca:	9f 90       	pop	r9
    1dcc:	8f 90       	pop	r8
    1dce:	08 95       	ret

00001dd0 <packet>:
    1dd0:	82 e2       	ldi	r24, 0x22	; 34
    1dd2:	91 e2       	ldi	r25, 0x21	; 33
    1dd4:	9f 93       	push	r25
    1dd6:	8f 93       	push	r24
    1dd8:	e8 d7       	rcall	.+4048   	; 0x2daa <printf>
    1dda:	0f 90       	pop	r0
    1ddc:	0f 90       	pop	r0
    1dde:	08 95       	ret

00001de0 <xbee_command>:
    1de0:	84 36       	cpi	r24, 0x64	; 100
    1de2:	91 f0       	breq	.+36     	; 0x1e08 <xbee_command+0x28>
    1de4:	28 f4       	brcc	.+10     	; 0x1df0 <xbee_command+0x10>
    1de6:	81 36       	cpi	r24, 0x61	; 97
    1de8:	69 f0       	breq	.+26     	; 0x1e04 <xbee_command+0x24>
    1dea:	83 36       	cpi	r24, 0x63	; 99
    1dec:	49 f0       	breq	.+18     	; 0x1e00 <xbee_command+0x20>
    1dee:	08 95       	ret
    1df0:	85 36       	cpi	r24, 0x65	; 101
    1df2:	21 f0       	breq	.+8      	; 0x1dfc <xbee_command+0x1c>
    1df4:	86 36       	cpi	r24, 0x66	; 102
    1df6:	49 f4       	brne	.+18     	; 0x1e0a <xbee_command+0x2a>
    1df8:	d0 ce       	rjmp	.-608    	; 0x1b9a <reset>
    1dfa:	08 95       	ret
    1dfc:	43 cf       	rjmp	.-378    	; 0x1c84 <cali_alt>
    1dfe:	08 95       	ret
    1e00:	41 cf       	rjmp	.-382    	; 0x1c84 <cali_alt>
    1e02:	08 95       	ret
    1e04:	6c cf       	rjmp	.-296    	; 0x1cde <send_gps>
    1e06:	08 95       	ret
    1e08:	e3 cf       	rjmp	.-58     	; 0x1dd0 <packet>
    1e0a:	08 95       	ret

00001e0c <__vector_47>:

ISR(TCE0_OVF_vect){
    1e0c:	1f 92       	push	r1
    1e0e:	0f 92       	push	r0
    1e10:	0f b6       	in	r0, 0x3f	; 63
    1e12:	0f 92       	push	r0
    1e14:	11 24       	eor	r1, r1
    1e16:	08 b6       	in	r0, 0x38	; 56
    1e18:	0f 92       	push	r0
    1e1a:	18 be       	out	0x38, r1	; 56
    1e1c:	09 b6       	in	r0, 0x39	; 57
    1e1e:	0f 92       	push	r0
    1e20:	19 be       	out	0x39, r1	; 57
    1e22:	0b b6       	in	r0, 0x3b	; 59
    1e24:	0f 92       	push	r0
    1e26:	1b be       	out	0x3b, r1	; 59
    1e28:	2f 93       	push	r18
    1e2a:	3f 93       	push	r19
    1e2c:	4f 93       	push	r20
    1e2e:	5f 93       	push	r21
    1e30:	6f 93       	push	r22
    1e32:	7f 93       	push	r23
    1e34:	8f 93       	push	r24
    1e36:	9f 93       	push	r25
    1e38:	af 93       	push	r26
    1e3a:	bf 93       	push	r27
    1e3c:	ef 93       	push	r30
    1e3e:	ff 93       	push	r31
	timer++;
    1e40:	80 91 ec 20 	lds	r24, 0x20EC	; 0x8020ec <timer>
    1e44:	90 91 ed 20 	lds	r25, 0x20ED	; 0x8020ed <timer+0x1>
    1e48:	01 96       	adiw	r24, 0x01	; 1
    1e4a:	80 93 ec 20 	sts	0x20EC, r24	; 0x8020ec <timer>
    1e4e:	90 93 ed 20 	sts	0x20ED, r25	; 0x8020ed <timer+0x1>
	printf(str);
    1e52:	82 e2       	ldi	r24, 0x22	; 34
    1e54:	91 e2       	ldi	r25, 0x21	; 33
    1e56:	9f 93       	push	r25
    1e58:	8f 93       	push	r24
    1e5a:	a7 d7       	rcall	.+3918   	; 0x2daa <printf>
	//XBEE_spi_write(str);
}
    1e5c:	0f 90       	pop	r0
    1e5e:	0f 90       	pop	r0
    1e60:	ff 91       	pop	r31
    1e62:	ef 91       	pop	r30
    1e64:	bf 91       	pop	r27
    1e66:	af 91       	pop	r26
    1e68:	9f 91       	pop	r25
    1e6a:	8f 91       	pop	r24
    1e6c:	7f 91       	pop	r23
    1e6e:	6f 91       	pop	r22
    1e70:	5f 91       	pop	r21
    1e72:	4f 91       	pop	r20
    1e74:	3f 91       	pop	r19
    1e76:	2f 91       	pop	r18
    1e78:	0f 90       	pop	r0
    1e7a:	0b be       	out	0x3b, r0	; 59
    1e7c:	0f 90       	pop	r0
    1e7e:	09 be       	out	0x39, r0	; 57
    1e80:	0f 90       	pop	r0
    1e82:	08 be       	out	0x38, r0	; 56
    1e84:	0f 90       	pop	r0
    1e86:	0f be       	out	0x3f, r0	; 63
    1e88:	0f 90       	pop	r0
    1e8a:	1f 90       	pop	r1
    1e8c:	18 95       	reti

00001e8e <__vector_58>:

ISR(USARTE0_RXC_vect){
    1e8e:	1f 92       	push	r1
    1e90:	0f 92       	push	r0
    1e92:	0f b6       	in	r0, 0x3f	; 63
    1e94:	0f 92       	push	r0
    1e96:	11 24       	eor	r1, r1
    1e98:	08 b6       	in	r0, 0x38	; 56
    1e9a:	0f 92       	push	r0
    1e9c:	18 be       	out	0x38, r1	; 56
    1e9e:	09 b6       	in	r0, 0x39	; 57
    1ea0:	0f 92       	push	r0
    1ea2:	19 be       	out	0x39, r1	; 57
    1ea4:	0b b6       	in	r0, 0x3b	; 59
    1ea6:	0f 92       	push	r0
    1ea8:	1b be       	out	0x3b, r1	; 59
    1eaa:	2f 93       	push	r18
    1eac:	3f 93       	push	r19
    1eae:	4f 93       	push	r20
    1eb0:	5f 93       	push	r21
    1eb2:	6f 93       	push	r22
    1eb4:	7f 93       	push	r23
    1eb6:	8f 93       	push	r24
    1eb8:	9f 93       	push	r25
    1eba:	af 93       	push	r26
    1ebc:	bf 93       	push	r27
    1ebe:	ef 93       	push	r30
    1ec0:	ff 93       	push	r31
	uint8_t c = usart_getchar(UART_TERMINAL_SERIAL);
    1ec2:	80 ea       	ldi	r24, 0xA0	; 160
    1ec4:	9a e0       	ldi	r25, 0x0A	; 10
    1ec6:	0e 94 93 02 	call	0x526	; 0x526 <usart_getchar>
	//printf("%c\n", c);
	xbee_command(c);
    1eca:	8a df       	rcall	.-236    	; 0x1de0 <xbee_command>
}
    1ecc:	ff 91       	pop	r31
    1ece:	ef 91       	pop	r30
    1ed0:	bf 91       	pop	r27
    1ed2:	af 91       	pop	r26
    1ed4:	9f 91       	pop	r25
    1ed6:	8f 91       	pop	r24
    1ed8:	7f 91       	pop	r23
    1eda:	6f 91       	pop	r22
    1edc:	5f 91       	pop	r21
    1ede:	4f 91       	pop	r20
    1ee0:	3f 91       	pop	r19
    1ee2:	2f 91       	pop	r18
    1ee4:	0f 90       	pop	r0
    1ee6:	0b be       	out	0x3b, r0	; 59
    1ee8:	0f 90       	pop	r0
    1eea:	09 be       	out	0x39, r0	; 57
    1eec:	0f 90       	pop	r0
    1eee:	08 be       	out	0x38, r0	; 56
    1ef0:	0f 90       	pop	r0
    1ef2:	0f be       	out	0x3f, r0	; 63
    1ef4:	0f 90       	pop	r0
    1ef6:	1f 90       	pop	r1
    1ef8:	18 95       	reti

00001efa <__vector_91>:


// GPS recording
ISR(USARTD1_RXC_vect){
    1efa:	1f 92       	push	r1
    1efc:	0f 92       	push	r0
    1efe:	0f b6       	in	r0, 0x3f	; 63
    1f00:	0f 92       	push	r0
    1f02:	11 24       	eor	r1, r1
    1f04:	08 b6       	in	r0, 0x38	; 56
    1f06:	0f 92       	push	r0
    1f08:	18 be       	out	0x38, r1	; 56
    1f0a:	09 b6       	in	r0, 0x39	; 57
    1f0c:	0f 92       	push	r0
    1f0e:	19 be       	out	0x39, r1	; 57
    1f10:	0a b6       	in	r0, 0x3a	; 58
    1f12:	0f 92       	push	r0
    1f14:	1a be       	out	0x3a, r1	; 58
    1f16:	0b b6       	in	r0, 0x3b	; 59
    1f18:	0f 92       	push	r0
    1f1a:	1b be       	out	0x3b, r1	; 59
    1f1c:	8f 92       	push	r8
    1f1e:	9f 92       	push	r9
    1f20:	af 92       	push	r10
    1f22:	bf 92       	push	r11
    1f24:	cf 92       	push	r12
    1f26:	df 92       	push	r13
    1f28:	ef 92       	push	r14
    1f2a:	ff 92       	push	r15
    1f2c:	1f 93       	push	r17
    1f2e:	2f 93       	push	r18
    1f30:	3f 93       	push	r19
    1f32:	4f 93       	push	r20
    1f34:	5f 93       	push	r21
    1f36:	6f 93       	push	r22
    1f38:	7f 93       	push	r23
    1f3a:	8f 93       	push	r24
    1f3c:	9f 93       	push	r25
    1f3e:	af 93       	push	r26
    1f40:	bf 93       	push	r27
    1f42:	ef 93       	push	r30
    1f44:	ff 93       	push	r31
    1f46:	cf 93       	push	r28
    1f48:	df 93       	push	r29
    1f4a:	00 d0       	rcall	.+0      	; 0x1f4c <__vector_91+0x52>
    1f4c:	00 d0       	rcall	.+0      	; 0x1f4e <__vector_91+0x54>
    1f4e:	cd b7       	in	r28, 0x3d	; 61
    1f50:	de b7       	in	r29, 0x3e	; 62
	uint8_t c = usart_getchar(GPS_TERMINAL_SERIAL);
    1f52:	80 eb       	ldi	r24, 0xB0	; 176
    1f54:	99 e0       	ldi	r25, 0x09	; 9
    1f56:	0e 94 93 02 	call	0x526	; 0x526 <usart_getchar>
    1f5a:	18 2f       	mov	r17, r24
	//printf("%c",c);
	
	if(c == (uint8_t) '$'){
    1f5c:	84 32       	cpi	r24, 0x24	; 36
    1f5e:	49 f4       	brne	.+18     	; 0x1f72 <__vector_91+0x78>
		writing = 1;
    1f60:	81 e0       	ldi	r24, 0x01	; 1
    1f62:	80 93 f2 20 	sts	0x20F2, r24	; 0x8020f2 <writing>
		pos = 0;
		word_pos = 0;
    1f66:	10 92 f0 20 	sts	0x20F0, r1	; 0x8020f0 <word_pos>
		commas = 0;
    1f6a:	10 92 ef 20 	sts	0x20EF, r1	; 0x8020ef <commas>
			}
		}
	}
		
	if(writing){
		switch(pos){
    1f6e:	90 e0       	ldi	r25, 0x00	; 0
    1f70:	68 c2       	rjmp	.+1232   	; 0x2442 <__vector_91+0x548>
		writing = 1;
		pos = 0;
		word_pos = 0;
		commas = 0;
	}
	else if(c == (uint8_t) '*'){
    1f72:	8a 32       	cpi	r24, 0x2A	; 42
    1f74:	29 f4       	brne	.+10     	; 0x1f80 <__vector_91+0x86>
		commas = 0;
    1f76:	10 92 ef 20 	sts	0x20EF, r1	; 0x8020ef <commas>
		writing = 0;
    1f7a:	10 92 f2 20 	sts	0x20F2, r1	; 0x8020f2 <writing>
    1f7e:	91 c2       	rjmp	.+1314   	; 0x24a2 <__vector_91+0x5a8>
	}
	else if(c == (uint8_t) ','){
    1f80:	8c 32       	cpi	r24, 0x2C	; 44
    1f82:	09 f0       	breq	.+2      	; 0x1f86 <__vector_91+0x8c>
    1f84:	49 c2       	rjmp	.+1170   	; 0x2418 <__vector_91+0x51e>
		gps[0] = 32;
    1f86:	ee e0       	ldi	r30, 0x0E	; 14
    1f88:	f1 e2       	ldi	r31, 0x21	; 33
    1f8a:	80 e2       	ldi	r24, 0x20	; 32
    1f8c:	80 83       	st	Z, r24
		if(gps[1] == 32){
    1f8e:	81 81       	ldd	r24, Z+1	; 0x01
    1f90:	80 32       	cpi	r24, 0x20	; 32
    1f92:	09 f0       	breq	.+2      	; 0x1f96 <__vector_91+0x9c>
    1f94:	6d c2       	rjmp	.+1242   	; 0x2470 <__vector_91+0x576>
			gps[0] = '0';
    1f96:	80 e3       	ldi	r24, 0x30	; 48
    1f98:	80 93 0e 21 	sts	0x210E, r24	; 0x80210e <gps>
    1f9c:	69 c2       	rjmp	.+1234   	; 0x2470 <__vector_91+0x576>
			case 7:			//Sats
				sscanf(gps,"%d",&gps_sats);
				break;
			case 9:			//Altitude
				for(uint8_t i = 0; i < 15; i++){
					if(gps[i] == (uint8_t) '.'){
    1f9e:	80 91 0e 21 	lds	r24, 0x210E	; 0x80210e <gps>
    1fa2:	8e 32       	cpi	r24, 0x2E	; 46
    1fa4:	09 f0       	breq	.+2      	; 0x1fa8 <__vector_91+0xae>
    1fa6:	9e c1       	rjmp	.+828    	; 0x22e4 <__vector_91+0x3ea>
    1fa8:	a4 c1       	rjmp	.+840    	; 0x22f2 <__vector_91+0x3f8>
				sscanf(dec,"%d",&val2);
				gps_lat = val/100 + ((double)(val%100) + ((double)(val2))/10000) / 60.0;
				break;
			case 4:			//Longitude
				for(uint8_t i = 0; i < 15; i++){
					if(gps[i] == (uint8_t) '.'){
    1faa:	80 91 0e 21 	lds	r24, 0x210E	; 0x80210e <gps>
    1fae:	8e 32       	cpi	r24, 0x2E	; 46
    1fb0:	09 f0       	breq	.+2      	; 0x1fb4 <__vector_91+0xba>
    1fb2:	ec c0       	rjmp	.+472    	; 0x218c <__vector_91+0x292>
    1fb4:	f2 c0       	rjmp	.+484    	; 0x219a <__vector_91+0x2a0>
				sscanf(gps,"%ld",&val);
				gps_t = (double) val;
				break;
			case 2:			//Latitude
				for(uint8_t i = 0; i < 15; i++){
					if(gps[i] == (uint8_t) '.'){
    1fb6:	80 91 0e 21 	lds	r24, 0x210E	; 0x80210e <gps>
    1fba:	8e 32       	cpi	r24, 0x2E	; 46
    1fbc:	09 f0       	breq	.+2      	; 0x1fc0 <__vector_91+0xc6>
    1fbe:	51 c0       	rjmp	.+162    	; 0x2062 <__vector_91+0x168>
    1fc0:	57 c0       	rjmp	.+174    	; 0x2070 <__vector_91+0x176>
		int32_t val = 0;
		int16_t val2 = 0;
		switch(commas){
			case 1:			//Time
				for(uint8_t i = 0; i < 15; i++){
					if(gps[i] == (uint8_t) '.'){
    1fc2:	91 91       	ld	r25, Z+
    1fc4:	9e 32       	cpi	r25, 0x2E	; 46
    1fc6:	29 f4       	brne	.+10     	; 0x1fd2 <__vector_91+0xd8>
    1fc8:	01 c0       	rjmp	.+2      	; 0x1fcc <__vector_91+0xd2>
    1fca:	80 e0       	ldi	r24, 0x00	; 0
						idx = i;
    1fcc:	80 93 ee 20 	sts	0x20EE, r24	; 0x8020ee <idx>
						break;
    1fd0:	03 c0       	rjmp	.+6      	; 0x1fd8 <__vector_91+0xde>
		}
		int32_t val = 0;
		int16_t val2 = 0;
		switch(commas){
			case 1:			//Time
				for(uint8_t i = 0; i < 15; i++){
    1fd2:	8f 5f       	subi	r24, 0xFF	; 255
    1fd4:	8f 30       	cpi	r24, 0x0F	; 15
    1fd6:	a9 f7       	brne	.-22     	; 0x1fc2 <__vector_91+0xc8>
					if(gps[i] == (uint8_t) '.'){
						idx = i;
						break;
					}
				}
				gps[idx] = 32;
    1fd8:	20 91 ee 20 	lds	r18, 0x20EE	; 0x8020ee <idx>
    1fdc:	e2 2f       	mov	r30, r18
    1fde:	f0 e0       	ldi	r31, 0x00	; 0
    1fe0:	e2 5f       	subi	r30, 0xF2	; 242
    1fe2:	fe 4d       	sbci	r31, 0xDE	; 222
    1fe4:	80 e2       	ldi	r24, 0x20	; 32
    1fe6:	80 83       	st	Z, r24
				for(uint8_t i = idx+1; i < 15; i++){
    1fe8:	2f 5f       	subi	r18, 0xFF	; 255
    1fea:	2f 30       	cpi	r18, 0x0F	; 15
    1fec:	c8 f4       	brcc	.+50     	; 0x2020 <__vector_91+0x126>
					if(gps[i] == 32){
    1fee:	82 2f       	mov	r24, r18
    1ff0:	90 e0       	ldi	r25, 0x00	; 0
    1ff2:	fc 01       	movw	r30, r24
    1ff4:	e2 5f       	subi	r30, 0xF2	; 242
    1ff6:	fe 4d       	sbci	r31, 0xDE	; 222
    1ff8:	30 81       	ld	r19, Z
    1ffa:	30 32       	cpi	r19, 0x20	; 32
    1ffc:	89 f0       	breq	.+34     	; 0x2020 <__vector_91+0x126>
						break;
					}
					gps[i] = 32;
    1ffe:	40 e2       	ldi	r20, 0x20	; 32
    2000:	08 c0       	rjmp	.+16     	; 0x2012 <__vector_91+0x118>
						break;
					}
				}
				gps[idx] = 32;
				for(uint8_t i = idx+1; i < 15; i++){
					if(gps[i] == 32){
    2002:	82 2f       	mov	r24, r18
    2004:	90 e0       	ldi	r25, 0x00	; 0
    2006:	fc 01       	movw	r30, r24
    2008:	e2 5f       	subi	r30, 0xF2	; 242
    200a:	fe 4d       	sbci	r31, 0xDE	; 222
    200c:	30 81       	ld	r19, Z
    200e:	30 32       	cpi	r19, 0x20	; 32
    2010:	39 f0       	breq	.+14     	; 0x2020 <__vector_91+0x126>
						break;
					}
					gps[i] = 32;
    2012:	fc 01       	movw	r30, r24
    2014:	e2 5f       	subi	r30, 0xF2	; 242
    2016:	fe 4d       	sbci	r31, 0xDE	; 222
    2018:	40 83       	st	Z, r20
						idx = i;
						break;
					}
				}
				gps[idx] = 32;
				for(uint8_t i = idx+1; i < 15; i++){
    201a:	2f 5f       	subi	r18, 0xFF	; 255
    201c:	2f 30       	cpi	r18, 0x0F	; 15
    201e:	89 f7       	brne	.-30     	; 0x2002 <__vector_91+0x108>
					if(gps[i] == 32){
						break;
					}
					gps[i] = 32;
				}
				sscanf(gps,"%ld",&val);
    2020:	ce 01       	movw	r24, r28
    2022:	01 96       	adiw	r24, 0x01	; 1
    2024:	9f 93       	push	r25
    2026:	8f 93       	push	r24
    2028:	8c ea       	ldi	r24, 0xAC	; 172
    202a:	90 e2       	ldi	r25, 0x20	; 32
    202c:	9f 93       	push	r25
    202e:	8f 93       	push	r24
    2030:	8e e0       	ldi	r24, 0x0E	; 14
    2032:	91 e2       	ldi	r25, 0x21	; 33
    2034:	9f 93       	push	r25
    2036:	8f 93       	push	r24
    2038:	f3 d6       	rcall	.+3558   	; 0x2e20 <sscanf>
				gps_t = (double) val;
    203a:	69 81       	ldd	r22, Y+1	; 0x01
    203c:	7a 81       	ldd	r23, Y+2	; 0x02
    203e:	8b 81       	ldd	r24, Y+3	; 0x03
    2040:	9c 81       	ldd	r25, Y+4	; 0x04
    2042:	5a d3       	rcall	.+1716   	; 0x26f8 <__floatsisf>
    2044:	60 93 d2 20 	sts	0x20D2, r22	; 0x8020d2 <gps_t>
    2048:	70 93 d3 20 	sts	0x20D3, r23	; 0x8020d3 <gps_t+0x1>
    204c:	80 93 d4 20 	sts	0x20D4, r24	; 0x8020d4 <gps_t+0x2>
    2050:	90 93 d5 20 	sts	0x20D5, r25	; 0x8020d5 <gps_t+0x3>
				break;
    2054:	0f 90       	pop	r0
    2056:	0f 90       	pop	r0
    2058:	0f 90       	pop	r0
    205a:	0f 90       	pop	r0
    205c:	0f 90       	pop	r0
    205e:	0f 90       	pop	r0
    2060:	bd c1       	rjmp	.+890    	; 0x23dc <__vector_91+0x4e2>
    2062:	ef e0       	ldi	r30, 0x0F	; 15
    2064:	f1 e2       	ldi	r31, 0x21	; 33
			case 2:			//Latitude
				for(uint8_t i = 0; i < 15; i++){
    2066:	81 e0       	ldi	r24, 0x01	; 1
					if(gps[i] == (uint8_t) '.'){
    2068:	91 91       	ld	r25, Z+
    206a:	9e 32       	cpi	r25, 0x2E	; 46
    206c:	29 f4       	brne	.+10     	; 0x2078 <__vector_91+0x17e>
    206e:	01 c0       	rjmp	.+2      	; 0x2072 <__vector_91+0x178>
    2070:	80 e0       	ldi	r24, 0x00	; 0
						idx = i;
    2072:	80 93 ee 20 	sts	0x20EE, r24	; 0x8020ee <idx>
						break;
    2076:	03 c0       	rjmp	.+6      	; 0x207e <__vector_91+0x184>
				}
				sscanf(gps,"%ld",&val);
				gps_t = (double) val;
				break;
			case 2:			//Latitude
				for(uint8_t i = 0; i < 15; i++){
    2078:	8f 5f       	subi	r24, 0xFF	; 255
    207a:	8f 30       	cpi	r24, 0x0F	; 15
    207c:	a9 f7       	brne	.-22     	; 0x2068 <__vector_91+0x16e>
					if(gps[i] == (uint8_t) '.'){
						idx = i;
						break;
					}
				}
				gps[idx] = 32;
    207e:	20 91 ee 20 	lds	r18, 0x20EE	; 0x8020ee <idx>
    2082:	42 2f       	mov	r20, r18
    2084:	50 e0       	ldi	r21, 0x00	; 0
    2086:	fa 01       	movw	r30, r20
    2088:	e2 5f       	subi	r30, 0xF2	; 242
    208a:	fe 4d       	sbci	r31, 0xDE	; 222
    208c:	80 e2       	ldi	r24, 0x20	; 32
    208e:	80 83       	st	Z, r24
				for(uint8_t i = idx+1; i < 15; i++){
    2090:	2f 5f       	subi	r18, 0xFF	; 255
    2092:	2f 30       	cpi	r18, 0x0F	; 15
    2094:	f8 f4       	brcc	.+62     	; 0x20d4 <__vector_91+0x1da>
					if(gps[i] == 32){
    2096:	82 2f       	mov	r24, r18
    2098:	90 e0       	ldi	r25, 0x00	; 0
    209a:	fc 01       	movw	r30, r24
    209c:	e2 5f       	subi	r30, 0xF2	; 242
    209e:	fe 4d       	sbci	r31, 0xDE	; 222
    20a0:	30 81       	ld	r19, Z
    20a2:	30 32       	cpi	r19, 0x20	; 32
    20a4:	b9 f0       	breq	.+46     	; 0x20d4 <__vector_91+0x1da>
						break;
					}
					dec[i-idx-1] = gps[i];
					gps[i] = 32;
    20a6:	60 e2       	ldi	r22, 0x20	; 32
    20a8:	08 c0       	rjmp	.+16     	; 0x20ba <__vector_91+0x1c0>
						break;
					}
				}
				gps[idx] = 32;
				for(uint8_t i = idx+1; i < 15; i++){
					if(gps[i] == 32){
    20aa:	82 2f       	mov	r24, r18
    20ac:	90 e0       	ldi	r25, 0x00	; 0
    20ae:	fc 01       	movw	r30, r24
    20b0:	e2 5f       	subi	r30, 0xF2	; 242
    20b2:	fe 4d       	sbci	r31, 0xDE	; 222
    20b4:	30 81       	ld	r19, Z
    20b6:	30 32       	cpi	r19, 0x20	; 32
    20b8:	69 f0       	breq	.+26     	; 0x20d4 <__vector_91+0x1da>
						break;
					}
					dec[i-idx-1] = gps[i];
    20ba:	fc 01       	movw	r30, r24
    20bc:	e4 1b       	sub	r30, r20
    20be:	f5 0b       	sbc	r31, r21
    20c0:	e4 5e       	subi	r30, 0xE4	; 228
    20c2:	fe 4d       	sbci	r31, 0xDE	; 222
    20c4:	30 83       	st	Z, r19
					gps[i] = 32;
    20c6:	fc 01       	movw	r30, r24
    20c8:	e2 5f       	subi	r30, 0xF2	; 242
    20ca:	fe 4d       	sbci	r31, 0xDE	; 222
    20cc:	60 83       	st	Z, r22
						idx = i;
						break;
					}
				}
				gps[idx] = 32;
				for(uint8_t i = idx+1; i < 15; i++){
    20ce:	2f 5f       	subi	r18, 0xFF	; 255
    20d0:	2f 30       	cpi	r18, 0x0F	; 15
    20d2:	59 f7       	brne	.-42     	; 0x20aa <__vector_91+0x1b0>
						break;
					}
					dec[i-idx-1] = gps[i];
					gps[i] = 32;
				}
				if(dec[0] == 32){
    20d4:	80 91 1d 21 	lds	r24, 0x211D	; 0x80211d <dec>
    20d8:	80 32       	cpi	r24, 0x20	; 32
    20da:	19 f4       	brne	.+6      	; 0x20e2 <__vector_91+0x1e8>
					dec[0] = '0';
    20dc:	80 e3       	ldi	r24, 0x30	; 48
    20de:	80 93 1d 21 	sts	0x211D, r24	; 0x80211d <dec>
				}
				sscanf(gps,"%ld",&val);
    20e2:	ce 01       	movw	r24, r28
    20e4:	01 96       	adiw	r24, 0x01	; 1
    20e6:	9f 93       	push	r25
    20e8:	8f 93       	push	r24
    20ea:	8c ea       	ldi	r24, 0xAC	; 172
    20ec:	90 e2       	ldi	r25, 0x20	; 32
    20ee:	9f 93       	push	r25
    20f0:	8f 93       	push	r24
    20f2:	8e e0       	ldi	r24, 0x0E	; 14
    20f4:	91 e2       	ldi	r25, 0x21	; 33
    20f6:	9f 93       	push	r25
    20f8:	8f 93       	push	r24
    20fa:	92 d6       	rcall	.+3364   	; 0x2e20 <sscanf>
				sscanf(dec,"%d",&val2);
    20fc:	ce 01       	movw	r24, r28
    20fe:	05 96       	adiw	r24, 0x05	; 5
    2100:	9f 93       	push	r25
    2102:	8f 93       	push	r24
    2104:	80 eb       	ldi	r24, 0xB0	; 176
    2106:	90 e2       	ldi	r25, 0x20	; 32
    2108:	9f 93       	push	r25
    210a:	8f 93       	push	r24
    210c:	8d e1       	ldi	r24, 0x1D	; 29
    210e:	91 e2       	ldi	r25, 0x21	; 33
    2110:	9f 93       	push	r25
    2112:	8f 93       	push	r24
    2114:	85 d6       	rcall	.+3338   	; 0x2e20 <sscanf>
				gps_lat = val/100 + ((double)(val%100) + ((double)(val2))/10000) / 60.0;
    2116:	89 80       	ldd	r8, Y+1	; 0x01
    2118:	9a 80       	ldd	r9, Y+2	; 0x02
    211a:	ab 80       	ldd	r10, Y+3	; 0x03
    211c:	bc 80       	ldd	r11, Y+4	; 0x04
    211e:	6d 81       	ldd	r22, Y+5	; 0x05
    2120:	7e 81       	ldd	r23, Y+6	; 0x06
    2122:	07 2e       	mov	r0, r23
    2124:	00 0c       	add	r0, r0
    2126:	88 0b       	sbc	r24, r24
    2128:	99 0b       	sbc	r25, r25
    212a:	e6 d2       	rcall	.+1484   	; 0x26f8 <__floatsisf>
    212c:	20 e0       	ldi	r18, 0x00	; 0
    212e:	30 e4       	ldi	r19, 0x40	; 64
    2130:	4c e1       	ldi	r20, 0x1C	; 28
    2132:	56 e4       	ldi	r21, 0x46	; 70
    2134:	46 d2       	rcall	.+1164   	; 0x25c2 <__divsf3>
    2136:	6b 01       	movw	r12, r22
    2138:	7c 01       	movw	r14, r24
    213a:	c5 01       	movw	r24, r10
    213c:	b4 01       	movw	r22, r8
    213e:	24 e6       	ldi	r18, 0x64	; 100
    2140:	30 e0       	ldi	r19, 0x00	; 0
    2142:	40 e0       	ldi	r20, 0x00	; 0
    2144:	50 e0       	ldi	r21, 0x00	; 0
    2146:	ac d5       	rcall	.+2904   	; 0x2ca0 <__divmodsi4>
    2148:	49 01       	movw	r8, r18
    214a:	5a 01       	movw	r10, r20
    214c:	d5 d2       	rcall	.+1450   	; 0x26f8 <__floatsisf>
    214e:	9b 01       	movw	r18, r22
    2150:	ac 01       	movw	r20, r24
    2152:	c7 01       	movw	r24, r14
    2154:	b6 01       	movw	r22, r12
    2156:	cd d1       	rcall	.+922    	; 0x24f2 <__addsf3>
    2158:	20 e0       	ldi	r18, 0x00	; 0
    215a:	30 e0       	ldi	r19, 0x00	; 0
    215c:	40 e7       	ldi	r20, 0x70	; 112
    215e:	52 e4       	ldi	r21, 0x42	; 66
    2160:	30 d2       	rcall	.+1120   	; 0x25c2 <__divsf3>
    2162:	6b 01       	movw	r12, r22
    2164:	7c 01       	movw	r14, r24
    2166:	c5 01       	movw	r24, r10
    2168:	b4 01       	movw	r22, r8
    216a:	c6 d2       	rcall	.+1420   	; 0x26f8 <__floatsisf>
    216c:	9b 01       	movw	r18, r22
    216e:	ac 01       	movw	r20, r24
    2170:	c7 01       	movw	r24, r14
    2172:	b6 01       	movw	r22, r12
    2174:	be d1       	rcall	.+892    	; 0x24f2 <__addsf3>
    2176:	60 93 ce 20 	sts	0x20CE, r22	; 0x8020ce <gps_lat>
    217a:	70 93 cf 20 	sts	0x20CF, r23	; 0x8020cf <gps_lat+0x1>
    217e:	80 93 d0 20 	sts	0x20D0, r24	; 0x8020d0 <gps_lat+0x2>
    2182:	90 93 d1 20 	sts	0x20D1, r25	; 0x8020d1 <gps_lat+0x3>
				break;
    2186:	cd bf       	out	0x3d, r28	; 61
    2188:	de bf       	out	0x3e, r29	; 62
    218a:	28 c1       	rjmp	.+592    	; 0x23dc <__vector_91+0x4e2>
    218c:	ef e0       	ldi	r30, 0x0F	; 15
    218e:	f1 e2       	ldi	r31, 0x21	; 33
			case 4:			//Longitude
				for(uint8_t i = 0; i < 15; i++){
    2190:	81 e0       	ldi	r24, 0x01	; 1
					if(gps[i] == (uint8_t) '.'){
    2192:	91 91       	ld	r25, Z+
    2194:	9e 32       	cpi	r25, 0x2E	; 46
    2196:	29 f4       	brne	.+10     	; 0x21a2 <__vector_91+0x2a8>
    2198:	01 c0       	rjmp	.+2      	; 0x219c <__vector_91+0x2a2>
    219a:	80 e0       	ldi	r24, 0x00	; 0
						idx = i;
    219c:	80 93 ee 20 	sts	0x20EE, r24	; 0x8020ee <idx>
						break;
    21a0:	03 c0       	rjmp	.+6      	; 0x21a8 <__vector_91+0x2ae>
				sscanf(gps,"%ld",&val);
				sscanf(dec,"%d",&val2);
				gps_lat = val/100 + ((double)(val%100) + ((double)(val2))/10000) / 60.0;
				break;
			case 4:			//Longitude
				for(uint8_t i = 0; i < 15; i++){
    21a2:	8f 5f       	subi	r24, 0xFF	; 255
    21a4:	8f 30       	cpi	r24, 0x0F	; 15
    21a6:	a9 f7       	brne	.-22     	; 0x2192 <__vector_91+0x298>
					if(gps[i] == (uint8_t) '.'){
						idx = i;
						break;
					}
				}
				gps[idx] = 32;
    21a8:	20 91 ee 20 	lds	r18, 0x20EE	; 0x8020ee <idx>
    21ac:	42 2f       	mov	r20, r18
    21ae:	50 e0       	ldi	r21, 0x00	; 0
    21b0:	fa 01       	movw	r30, r20
    21b2:	e2 5f       	subi	r30, 0xF2	; 242
    21b4:	fe 4d       	sbci	r31, 0xDE	; 222
    21b6:	80 e2       	ldi	r24, 0x20	; 32
    21b8:	80 83       	st	Z, r24
				for(uint8_t i = idx+1; i < 15; i++){
    21ba:	2f 5f       	subi	r18, 0xFF	; 255
    21bc:	2f 30       	cpi	r18, 0x0F	; 15
    21be:	f8 f4       	brcc	.+62     	; 0x21fe <__vector_91+0x304>
					if(gps[i] == 32){
    21c0:	82 2f       	mov	r24, r18
    21c2:	90 e0       	ldi	r25, 0x00	; 0
    21c4:	fc 01       	movw	r30, r24
    21c6:	e2 5f       	subi	r30, 0xF2	; 242
    21c8:	fe 4d       	sbci	r31, 0xDE	; 222
    21ca:	30 81       	ld	r19, Z
    21cc:	30 32       	cpi	r19, 0x20	; 32
    21ce:	b9 f0       	breq	.+46     	; 0x21fe <__vector_91+0x304>
						break;
					}
					dec[i-idx-1] = gps[i];
					gps[i] = 32;
    21d0:	60 e2       	ldi	r22, 0x20	; 32
    21d2:	08 c0       	rjmp	.+16     	; 0x21e4 <__vector_91+0x2ea>
						break;
					}
				}
				gps[idx] = 32;
				for(uint8_t i = idx+1; i < 15; i++){
					if(gps[i] == 32){
    21d4:	82 2f       	mov	r24, r18
    21d6:	90 e0       	ldi	r25, 0x00	; 0
    21d8:	fc 01       	movw	r30, r24
    21da:	e2 5f       	subi	r30, 0xF2	; 242
    21dc:	fe 4d       	sbci	r31, 0xDE	; 222
    21de:	30 81       	ld	r19, Z
    21e0:	30 32       	cpi	r19, 0x20	; 32
    21e2:	69 f0       	breq	.+26     	; 0x21fe <__vector_91+0x304>
						break;
					}
					dec[i-idx-1] = gps[i];
    21e4:	fc 01       	movw	r30, r24
    21e6:	e4 1b       	sub	r30, r20
    21e8:	f5 0b       	sbc	r31, r21
    21ea:	e4 5e       	subi	r30, 0xE4	; 228
    21ec:	fe 4d       	sbci	r31, 0xDE	; 222
    21ee:	30 83       	st	Z, r19
					gps[i] = 32;
    21f0:	fc 01       	movw	r30, r24
    21f2:	e2 5f       	subi	r30, 0xF2	; 242
    21f4:	fe 4d       	sbci	r31, 0xDE	; 222
    21f6:	60 83       	st	Z, r22
						idx = i;
						break;
					}
				}
				gps[idx] = 32;
				for(uint8_t i = idx+1; i < 15; i++){
    21f8:	2f 5f       	subi	r18, 0xFF	; 255
    21fa:	2f 30       	cpi	r18, 0x0F	; 15
    21fc:	59 f7       	brne	.-42     	; 0x21d4 <__vector_91+0x2da>
						break;
					}
					dec[i-idx-1] = gps[i];
					gps[i] = 32;
				}
				if(dec[0] == 32){
    21fe:	80 91 1d 21 	lds	r24, 0x211D	; 0x80211d <dec>
    2202:	80 32       	cpi	r24, 0x20	; 32
    2204:	19 f4       	brne	.+6      	; 0x220c <__vector_91+0x312>
					dec[0] = '0';
    2206:	80 e3       	ldi	r24, 0x30	; 48
    2208:	80 93 1d 21 	sts	0x211D, r24	; 0x80211d <dec>
				}
				sscanf(gps,"%ld",&val);
    220c:	ce 01       	movw	r24, r28
    220e:	01 96       	adiw	r24, 0x01	; 1
    2210:	9f 93       	push	r25
    2212:	8f 93       	push	r24
    2214:	8c ea       	ldi	r24, 0xAC	; 172
    2216:	90 e2       	ldi	r25, 0x20	; 32
    2218:	9f 93       	push	r25
    221a:	8f 93       	push	r24
    221c:	8e e0       	ldi	r24, 0x0E	; 14
    221e:	91 e2       	ldi	r25, 0x21	; 33
    2220:	9f 93       	push	r25
    2222:	8f 93       	push	r24
    2224:	fd d5       	rcall	.+3066   	; 0x2e20 <sscanf>
				sscanf(dec,"%d",&val2);
    2226:	ce 01       	movw	r24, r28
    2228:	05 96       	adiw	r24, 0x05	; 5
    222a:	9f 93       	push	r25
    222c:	8f 93       	push	r24
    222e:	80 eb       	ldi	r24, 0xB0	; 176
    2230:	90 e2       	ldi	r25, 0x20	; 32
    2232:	9f 93       	push	r25
    2234:	8f 93       	push	r24
    2236:	8d e1       	ldi	r24, 0x1D	; 29
    2238:	91 e2       	ldi	r25, 0x21	; 33
    223a:	9f 93       	push	r25
    223c:	8f 93       	push	r24
    223e:	f0 d5       	rcall	.+3040   	; 0x2e20 <sscanf>
				gps_long = -(val/100 + ((double)(val%100) + ((double)(val2))/10000) / 60.0);
    2240:	89 80       	ldd	r8, Y+1	; 0x01
    2242:	9a 80       	ldd	r9, Y+2	; 0x02
    2244:	ab 80       	ldd	r10, Y+3	; 0x03
    2246:	bc 80       	ldd	r11, Y+4	; 0x04
    2248:	6d 81       	ldd	r22, Y+5	; 0x05
    224a:	7e 81       	ldd	r23, Y+6	; 0x06
    224c:	07 2e       	mov	r0, r23
    224e:	00 0c       	add	r0, r0
    2250:	88 0b       	sbc	r24, r24
    2252:	99 0b       	sbc	r25, r25
    2254:	51 d2       	rcall	.+1186   	; 0x26f8 <__floatsisf>
    2256:	20 e0       	ldi	r18, 0x00	; 0
    2258:	30 e4       	ldi	r19, 0x40	; 64
    225a:	4c e1       	ldi	r20, 0x1C	; 28
    225c:	56 e4       	ldi	r21, 0x46	; 70
    225e:	b1 d1       	rcall	.+866    	; 0x25c2 <__divsf3>
    2260:	6b 01       	movw	r12, r22
    2262:	7c 01       	movw	r14, r24
    2264:	c5 01       	movw	r24, r10
    2266:	b4 01       	movw	r22, r8
    2268:	24 e6       	ldi	r18, 0x64	; 100
    226a:	30 e0       	ldi	r19, 0x00	; 0
    226c:	40 e0       	ldi	r20, 0x00	; 0
    226e:	50 e0       	ldi	r21, 0x00	; 0
    2270:	17 d5       	rcall	.+2606   	; 0x2ca0 <__divmodsi4>
    2272:	49 01       	movw	r8, r18
    2274:	5a 01       	movw	r10, r20
    2276:	40 d2       	rcall	.+1152   	; 0x26f8 <__floatsisf>
    2278:	9b 01       	movw	r18, r22
    227a:	ac 01       	movw	r20, r24
    227c:	c7 01       	movw	r24, r14
    227e:	b6 01       	movw	r22, r12
    2280:	38 d1       	rcall	.+624    	; 0x24f2 <__addsf3>
    2282:	20 e0       	ldi	r18, 0x00	; 0
    2284:	30 e0       	ldi	r19, 0x00	; 0
    2286:	40 e7       	ldi	r20, 0x70	; 112
    2288:	52 e4       	ldi	r21, 0x42	; 66
    228a:	9b d1       	rcall	.+822    	; 0x25c2 <__divsf3>
    228c:	6b 01       	movw	r12, r22
    228e:	7c 01       	movw	r14, r24
    2290:	c5 01       	movw	r24, r10
    2292:	b4 01       	movw	r22, r8
    2294:	31 d2       	rcall	.+1122   	; 0x26f8 <__floatsisf>
    2296:	9b 01       	movw	r18, r22
    2298:	ac 01       	movw	r20, r24
    229a:	c7 01       	movw	r24, r14
    229c:	b6 01       	movw	r22, r12
    229e:	29 d1       	rcall	.+594    	; 0x24f2 <__addsf3>
    22a0:	dc 01       	movw	r26, r24
    22a2:	cb 01       	movw	r24, r22
    22a4:	b0 58       	subi	r27, 0x80	; 128
    22a6:	80 93 ca 20 	sts	0x20CA, r24	; 0x8020ca <gps_long>
    22aa:	90 93 cb 20 	sts	0x20CB, r25	; 0x8020cb <gps_long+0x1>
    22ae:	a0 93 cc 20 	sts	0x20CC, r26	; 0x8020cc <gps_long+0x2>
    22b2:	b0 93 cd 20 	sts	0x20CD, r27	; 0x8020cd <gps_long+0x3>
    22b6:	cd bf       	out	0x3d, r28	; 61
				break;
    22b8:	de bf       	out	0x3e, r29	; 62
    22ba:	90 c0       	rjmp	.+288    	; 0x23dc <__vector_91+0x4e2>
    22bc:	84 ec       	ldi	r24, 0xC4	; 196
			case 7:			//Sats
				sscanf(gps,"%d",&gps_sats);
    22be:	90 e2       	ldi	r25, 0x20	; 32
    22c0:	9f 93       	push	r25
    22c2:	8f 93       	push	r24
    22c4:	80 eb       	ldi	r24, 0xB0	; 176
    22c6:	90 e2       	ldi	r25, 0x20	; 32
    22c8:	9f 93       	push	r25
    22ca:	8f 93       	push	r24
    22cc:	8e e0       	ldi	r24, 0x0E	; 14
    22ce:	91 e2       	ldi	r25, 0x21	; 33
    22d0:	9f 93       	push	r25
    22d2:	8f 93       	push	r24
    22d4:	a5 d5       	rcall	.+2890   	; 0x2e20 <sscanf>
    22d6:	0f 90       	pop	r0
    22d8:	0f 90       	pop	r0
				break;
    22da:	0f 90       	pop	r0
    22dc:	0f 90       	pop	r0
    22de:	0f 90       	pop	r0
    22e0:	0f 90       	pop	r0
    22e2:	7c c0       	rjmp	.+248    	; 0x23dc <__vector_91+0x4e2>
    22e4:	ef e0       	ldi	r30, 0x0F	; 15
    22e6:	f1 e2       	ldi	r31, 0x21	; 33
    22e8:	81 e0       	ldi	r24, 0x01	; 1
    22ea:	91 91       	ld	r25, Z+
			case 9:			//Altitude
				for(uint8_t i = 0; i < 15; i++){
    22ec:	9e 32       	cpi	r25, 0x2E	; 46
					if(gps[i] == (uint8_t) '.'){
    22ee:	29 f4       	brne	.+10     	; 0x22fa <__vector_91+0x400>
    22f0:	01 c0       	rjmp	.+2      	; 0x22f4 <__vector_91+0x3fa>
    22f2:	80 e0       	ldi	r24, 0x00	; 0
    22f4:	80 93 ee 20 	sts	0x20EE, r24	; 0x8020ee <idx>
						idx = i;
    22f8:	03 c0       	rjmp	.+6      	; 0x2300 <__vector_91+0x406>
    22fa:	8f 5f       	subi	r24, 0xFF	; 255
						break;
    22fc:	8f 30       	cpi	r24, 0x0F	; 15
				break;
			case 7:			//Sats
				sscanf(gps,"%d",&gps_sats);
				break;
			case 9:			//Altitude
				for(uint8_t i = 0; i < 15; i++){
    22fe:	a9 f7       	brne	.-22     	; 0x22ea <__vector_91+0x3f0>
    2300:	20 91 ee 20 	lds	r18, 0x20EE	; 0x8020ee <idx>
					if(gps[i] == (uint8_t) '.'){
						idx = i;
						break;
					}
				}
				gps[idx] = 32;
    2304:	42 2f       	mov	r20, r18
    2306:	50 e0       	ldi	r21, 0x00	; 0
    2308:	fa 01       	movw	r30, r20
    230a:	e2 5f       	subi	r30, 0xF2	; 242
    230c:	fe 4d       	sbci	r31, 0xDE	; 222
    230e:	80 e2       	ldi	r24, 0x20	; 32
    2310:	80 83       	st	Z, r24
    2312:	2f 5f       	subi	r18, 0xFF	; 255
    2314:	2f 30       	cpi	r18, 0x0F	; 15
				for(uint8_t i = idx+1; i < 15; i++){
    2316:	f8 f4       	brcc	.+62     	; 0x2356 <__vector_91+0x45c>
    2318:	82 2f       	mov	r24, r18
    231a:	90 e0       	ldi	r25, 0x00	; 0
					if(gps[i] == 32){
    231c:	fc 01       	movw	r30, r24
    231e:	e2 5f       	subi	r30, 0xF2	; 242
    2320:	fe 4d       	sbci	r31, 0xDE	; 222
    2322:	30 81       	ld	r19, Z
    2324:	30 32       	cpi	r19, 0x20	; 32
    2326:	b9 f0       	breq	.+46     	; 0x2356 <__vector_91+0x45c>
    2328:	60 e2       	ldi	r22, 0x20	; 32
    232a:	08 c0       	rjmp	.+16     	; 0x233c <__vector_91+0x442>
						break;
					}
					dec[i-idx-1] = gps[i];
					gps[i] = 32;
    232c:	82 2f       	mov	r24, r18
    232e:	90 e0       	ldi	r25, 0x00	; 0
						break;
					}
				}
				gps[idx] = 32;
				for(uint8_t i = idx+1; i < 15; i++){
					if(gps[i] == 32){
    2330:	fc 01       	movw	r30, r24
    2332:	e2 5f       	subi	r30, 0xF2	; 242
    2334:	fe 4d       	sbci	r31, 0xDE	; 222
    2336:	30 81       	ld	r19, Z
    2338:	30 32       	cpi	r19, 0x20	; 32
    233a:	69 f0       	breq	.+26     	; 0x2356 <__vector_91+0x45c>
    233c:	fc 01       	movw	r30, r24
    233e:	e4 1b       	sub	r30, r20
						break;
					}
					dec[i-idx-1] = gps[i];
    2340:	f5 0b       	sbc	r31, r21
    2342:	e4 5e       	subi	r30, 0xE4	; 228
    2344:	fe 4d       	sbci	r31, 0xDE	; 222
    2346:	30 83       	st	Z, r19
    2348:	fc 01       	movw	r30, r24
    234a:	e2 5f       	subi	r30, 0xF2	; 242
					gps[i] = 32;
    234c:	fe 4d       	sbci	r31, 0xDE	; 222
    234e:	60 83       	st	Z, r22
    2350:	2f 5f       	subi	r18, 0xFF	; 255
						idx = i;
						break;
					}
				}
				gps[idx] = 32;
				for(uint8_t i = idx+1; i < 15; i++){
    2352:	2f 30       	cpi	r18, 0x0F	; 15
    2354:	59 f7       	brne	.-42     	; 0x232c <__vector_91+0x432>
    2356:	80 91 1d 21 	lds	r24, 0x211D	; 0x80211d <dec>
						break;
					}
					dec[i-idx-1] = gps[i];
					gps[i] = 32;
				}
				if(dec[0] == 32){
    235a:	80 32       	cpi	r24, 0x20	; 32
    235c:	19 f4       	brne	.+6      	; 0x2364 <__vector_91+0x46a>
    235e:	80 e3       	ldi	r24, 0x30	; 48
					dec[0] = '0';
    2360:	80 93 1d 21 	sts	0x211D, r24	; 0x80211d <dec>
    2364:	ce 01       	movw	r24, r28
				}
				sscanf(gps,"%ld",&val);
    2366:	01 96       	adiw	r24, 0x01	; 1
    2368:	9f 93       	push	r25
    236a:	8f 93       	push	r24
    236c:	8c ea       	ldi	r24, 0xAC	; 172
    236e:	90 e2       	ldi	r25, 0x20	; 32
    2370:	9f 93       	push	r25
    2372:	8f 93       	push	r24
    2374:	8e e0       	ldi	r24, 0x0E	; 14
    2376:	91 e2       	ldi	r25, 0x21	; 33
    2378:	9f 93       	push	r25
    237a:	8f 93       	push	r24
    237c:	51 d5       	rcall	.+2722   	; 0x2e20 <sscanf>
				sscanf(dec,"%d",&val2);
    237e:	ce 01       	movw	r24, r28
    2380:	05 96       	adiw	r24, 0x05	; 5
    2382:	9f 93       	push	r25
    2384:	8f 93       	push	r24
    2386:	80 eb       	ldi	r24, 0xB0	; 176
    2388:	90 e2       	ldi	r25, 0x20	; 32
    238a:	9f 93       	push	r25
    238c:	8f 93       	push	r24
    238e:	8d e1       	ldi	r24, 0x1D	; 29
    2390:	91 e2       	ldi	r25, 0x21	; 33
    2392:	9f 93       	push	r25
    2394:	8f 93       	push	r24
				gps_alt = (double) val + ((double) val2/10.0);
    2396:	44 d5       	rcall	.+2696   	; 0x2e20 <sscanf>
    2398:	69 81       	ldd	r22, Y+1	; 0x01
    239a:	7a 81       	ldd	r23, Y+2	; 0x02
    239c:	8b 81       	ldd	r24, Y+3	; 0x03
    239e:	9c 81       	ldd	r25, Y+4	; 0x04
    23a0:	ab d1       	rcall	.+854    	; 0x26f8 <__floatsisf>
    23a2:	6b 01       	movw	r12, r22
    23a4:	7c 01       	movw	r14, r24
    23a6:	6d 81       	ldd	r22, Y+5	; 0x05
    23a8:	7e 81       	ldd	r23, Y+6	; 0x06
    23aa:	07 2e       	mov	r0, r23
    23ac:	00 0c       	add	r0, r0
    23ae:	88 0b       	sbc	r24, r24
    23b0:	99 0b       	sbc	r25, r25
    23b2:	a2 d1       	rcall	.+836    	; 0x26f8 <__floatsisf>
    23b4:	20 e0       	ldi	r18, 0x00	; 0
    23b6:	30 e0       	ldi	r19, 0x00	; 0
    23b8:	40 e2       	ldi	r20, 0x20	; 32
    23ba:	51 e4       	ldi	r21, 0x41	; 65
    23bc:	02 d1       	rcall	.+516    	; 0x25c2 <__divsf3>
    23be:	9b 01       	movw	r18, r22
    23c0:	ac 01       	movw	r20, r24
    23c2:	c7 01       	movw	r24, r14
    23c4:	b6 01       	movw	r22, r12
    23c6:	95 d0       	rcall	.+298    	; 0x24f2 <__addsf3>
    23c8:	60 93 c6 20 	sts	0x20C6, r22	; 0x8020c6 <gps_alt>
    23cc:	70 93 c7 20 	sts	0x20C7, r23	; 0x8020c7 <gps_alt+0x1>
    23d0:	80 93 c8 20 	sts	0x20C8, r24	; 0x8020c8 <gps_alt+0x2>
    23d4:	90 93 c9 20 	sts	0x20C9, r25	; 0x8020c9 <gps_alt+0x3>
    23d8:	cd bf       	out	0x3d, r28	; 61
    23da:	de bf       	out	0x3e, r29	; 62
    23dc:	80 91 f2 20 	lds	r24, 0x20F2	; 0x8020f2 <writing>
				break;
    23e0:	88 23       	and	r24, r24
		}
	
		if(writing){
    23e2:	d1 f0       	breq	.+52     	; 0x2418 <__vector_91+0x51e>
    23e4:	10 92 ee 20 	sts	0x20EE, r1	; 0x8020ee <idx>
    23e8:	80 91 ef 20 	lds	r24, 0x20EF	; 0x8020ef <commas>
			idx = 0;
    23ec:	8f 5f       	subi	r24, 0xFF	; 255
			commas++;
    23ee:	80 93 ef 20 	sts	0x20EF, r24	; 0x8020ef <commas>
    23f2:	10 92 f0 20 	sts	0x20F0, r1	; 0x8020f0 <word_pos>
    23f6:	ee e0       	ldi	r30, 0x0E	; 14
			word_pos = 0;
    23f8:	f1 e2       	ldi	r31, 0x21	; 33
    23fa:	2d e1       	ldi	r18, 0x1D	; 29
    23fc:	31 e2       	ldi	r19, 0x21	; 33
    23fe:	80 e2       	ldi	r24, 0x20	; 32
    2400:	81 93       	st	Z+, r24
    2402:	2e 17       	cp	r18, r30
			for(uint8_t i = 0; i < 15; i++){
				gps[i] = 32;
    2404:	3f 07       	cpc	r19, r31
    2406:	e1 f7       	brne	.-8      	; 0x2400 <__vector_91+0x506>
	
		if(writing){
			idx = 0;
			commas++;
			word_pos = 0;
			for(uint8_t i = 0; i < 15; i++){
    2408:	ed e1       	ldi	r30, 0x1D	; 29
    240a:	f1 e2       	ldi	r31, 0x21	; 33
    240c:	80 e2       	ldi	r24, 0x20	; 32
				gps[i] = 32;
			}
			for(uint8_t i = 0; i < 5; i++){
				dec[i] = 32;
    240e:	80 83       	st	Z, r24
    2410:	81 83       	std	Z+1, r24	; 0x01
    2412:	82 83       	std	Z+2, r24	; 0x02
    2414:	83 83       	std	Z+3, r24	; 0x03
    2416:	84 83       	std	Z+4, r24	; 0x04
    2418:	80 91 f2 20 	lds	r24, 0x20F2	; 0x8020f2 <writing>
    241c:	88 23       	and	r24, r24
			}
		}
	}
		
	if(writing){
    241e:	09 f4       	brne	.+2      	; 0x2422 <__vector_91+0x528>
    2420:	40 c0       	rjmp	.+128    	; 0x24a2 <__vector_91+0x5a8>
    2422:	90 91 f1 20 	lds	r25, 0x20F1	; 0x8020f1 <pos>
    2426:	93 30       	cpi	r25, 0x03	; 3
		switch(pos){
    2428:	19 f0       	breq	.+6      	; 0x2430 <__vector_91+0x536>
    242a:	94 30       	cpi	r25, 0x04	; 4
    242c:	31 f0       	breq	.+12     	; 0x243a <__vector_91+0x540>
    242e:	09 c0       	rjmp	.+18     	; 0x2442 <__vector_91+0x548>
    2430:	17 34       	cpi	r17, 0x47	; 71
    2432:	39 f0       	breq	.+14     	; 0x2442 <__vector_91+0x548>
    2434:	10 92 f2 20 	sts	0x20F2, r1	; 0x8020f2 <writing>
			case 3:
				if(c != 'G'){
    2438:	04 c0       	rjmp	.+8      	; 0x2442 <__vector_91+0x548>
					writing = 0;
    243a:	17 34       	cpi	r17, 0x47	; 71
    243c:	11 f0       	breq	.+4      	; 0x2442 <__vector_91+0x548>
    243e:	10 92 f2 20 	sts	0x20F2, r1	; 0x8020f2 <writing>
				}
				break;
				
			case 4:
				if(c != 'G'){
    2442:	80 91 f0 20 	lds	r24, 0x20F0	; 0x8020f0 <word_pos>
					writing = 0;
    2446:	e8 2f       	mov	r30, r24
				}
				break;
		}
		gps[word_pos] = c;
    2448:	f0 e0       	ldi	r31, 0x00	; 0
    244a:	e2 5f       	subi	r30, 0xF2	; 242
    244c:	fe 4d       	sbci	r31, 0xDE	; 222
    244e:	10 83       	st	Z, r17
    2450:	8f 5f       	subi	r24, 0xFF	; 255
    2452:	80 93 f0 20 	sts	0x20F0, r24	; 0x8020f0 <word_pos>
		word_pos++;
    2456:	9f 5f       	subi	r25, 0xFF	; 255
    2458:	90 93 f1 20 	sts	0x20F1, r25	; 0x8020f1 <pos>
		pos++;
    245c:	22 c0       	rjmp	.+68     	; 0x24a2 <__vector_91+0x5a8>
    245e:	80 91 0e 21 	lds	r24, 0x210E	; 0x80210e <gps>
	}
}
    2462:	8e 32       	cpi	r24, 0x2E	; 46
		int32_t val = 0;
		int16_t val2 = 0;
		switch(commas){
			case 1:			//Time
				for(uint8_t i = 0; i < 15; i++){
					if(gps[i] == (uint8_t) '.'){
    2464:	09 f4       	brne	.+2      	; 0x2468 <__vector_91+0x56e>
    2466:	b1 cd       	rjmp	.-1182   	; 0x1fca <__vector_91+0xd0>
    2468:	ef e0       	ldi	r30, 0x0F	; 15
    246a:	f1 e2       	ldi	r31, 0x21	; 33
    246c:	81 e0       	ldi	r24, 0x01	; 1
    246e:	a9 cd       	rjmp	.-1198   	; 0x1fc2 <__vector_91+0xc8>
    2470:	19 82       	std	Y+1, r1	; 0x01
		}
		int32_t val = 0;
		int16_t val2 = 0;
		switch(commas){
			case 1:			//Time
				for(uint8_t i = 0; i < 15; i++){
    2472:	1a 82       	std	Y+2, r1	; 0x02
    2474:	1b 82       	std	Y+3, r1	; 0x03
	else if(c == (uint8_t) ','){
		gps[0] = 32;
		if(gps[1] == 32){
			gps[0] = '0';
		}
		int32_t val = 0;
    2476:	1c 82       	std	Y+4, r1	; 0x04
    2478:	1d 82       	std	Y+5, r1	; 0x05
    247a:	1e 82       	std	Y+6, r1	; 0x06
    247c:	80 91 ef 20 	lds	r24, 0x20EF	; 0x8020ef <commas>
		int16_t val2 = 0;
    2480:	84 30       	cpi	r24, 0x04	; 4
		switch(commas){
    2482:	09 f4       	brne	.+2      	; 0x2486 <__vector_91+0x58c>
    2484:	92 cd       	rjmp	.-1244   	; 0x1faa <__vector_91+0xb0>
    2486:	30 f4       	brcc	.+12     	; 0x2494 <__vector_91+0x59a>
    2488:	81 30       	cpi	r24, 0x01	; 1
    248a:	49 f3       	breq	.-46     	; 0x245e <__vector_91+0x564>
    248c:	82 30       	cpi	r24, 0x02	; 2
    248e:	09 f4       	brne	.+2      	; 0x2492 <__vector_91+0x598>
    2490:	92 cd       	rjmp	.-1244   	; 0x1fb6 <__vector_91+0xbc>
    2492:	a4 cf       	rjmp	.-184    	; 0x23dc <__vector_91+0x4e2>
    2494:	87 30       	cpi	r24, 0x07	; 7
    2496:	09 f4       	brne	.+2      	; 0x249a <__vector_91+0x5a0>
    2498:	11 cf       	rjmp	.-478    	; 0x22bc <__vector_91+0x3c2>
    249a:	89 30       	cpi	r24, 0x09	; 9
    249c:	09 f4       	brne	.+2      	; 0x24a0 <__vector_91+0x5a6>
    249e:	7f cd       	rjmp	.-1282   	; 0x1f9e <__vector_91+0xa4>
    24a0:	9d cf       	rjmp	.-198    	; 0x23dc <__vector_91+0x4e2>
    24a2:	26 96       	adiw	r28, 0x06	; 6
    24a4:	cd bf       	out	0x3d, r28	; 61
    24a6:	de bf       	out	0x3e, r29	; 62
		}
		gps[word_pos] = c;
		word_pos++;
		pos++;
	}
}
    24a8:	df 91       	pop	r29
    24aa:	cf 91       	pop	r28
    24ac:	ff 91       	pop	r31
    24ae:	ef 91       	pop	r30
    24b0:	bf 91       	pop	r27
    24b2:	af 91       	pop	r26
    24b4:	9f 91       	pop	r25
    24b6:	8f 91       	pop	r24
    24b8:	7f 91       	pop	r23
    24ba:	6f 91       	pop	r22
    24bc:	5f 91       	pop	r21
    24be:	4f 91       	pop	r20
    24c0:	3f 91       	pop	r19
    24c2:	2f 91       	pop	r18
    24c4:	1f 91       	pop	r17
    24c6:	ff 90       	pop	r15
    24c8:	ef 90       	pop	r14
    24ca:	df 90       	pop	r13
    24cc:	cf 90       	pop	r12
    24ce:	bf 90       	pop	r11
    24d0:	af 90       	pop	r10
    24d2:	9f 90       	pop	r9
    24d4:	8f 90       	pop	r8
    24d6:	0f 90       	pop	r0
    24d8:	0b be       	out	0x3b, r0	; 59
    24da:	0f 90       	pop	r0
    24dc:	0a be       	out	0x3a, r0	; 58
    24de:	0f 90       	pop	r0
    24e0:	09 be       	out	0x39, r0	; 57
    24e2:	0f 90       	pop	r0
    24e4:	08 be       	out	0x38, r0	; 56
    24e6:	0f 90       	pop	r0
    24e8:	0f be       	out	0x3f, r0	; 63
    24ea:	0f 90       	pop	r0
    24ec:	1f 90       	pop	r1
    24ee:	18 95       	reti

000024f0 <__subsf3>:
    24f0:	50 58       	subi	r21, 0x80	; 128

000024f2 <__addsf3>:
    24f2:	bb 27       	eor	r27, r27
    24f4:	aa 27       	eor	r26, r26
    24f6:	0e d0       	rcall	.+28     	; 0x2514 <__addsf3x>
    24f8:	9a c1       	rjmp	.+820    	; 0x282e <__fp_round>
    24fa:	8b d1       	rcall	.+790    	; 0x2812 <__fp_pscA>
    24fc:	30 f0       	brcs	.+12     	; 0x250a <__addsf3+0x18>
    24fe:	90 d1       	rcall	.+800    	; 0x2820 <__fp_pscB>
    2500:	20 f0       	brcs	.+8      	; 0x250a <__addsf3+0x18>
    2502:	31 f4       	brne	.+12     	; 0x2510 <__addsf3+0x1e>
    2504:	9f 3f       	cpi	r25, 0xFF	; 255
    2506:	11 f4       	brne	.+4      	; 0x250c <__addsf3+0x1a>
    2508:	1e f4       	brtc	.+6      	; 0x2510 <__addsf3+0x1e>
    250a:	5b c1       	rjmp	.+694    	; 0x27c2 <__fp_nan>
    250c:	0e f4       	brtc	.+2      	; 0x2510 <__addsf3+0x1e>
    250e:	e0 95       	com	r30
    2510:	e7 fb       	bst	r30, 7
    2512:	51 c1       	rjmp	.+674    	; 0x27b6 <__fp_inf>

00002514 <__addsf3x>:
    2514:	e9 2f       	mov	r30, r25
    2516:	9c d1       	rcall	.+824    	; 0x2850 <__fp_split3>
    2518:	80 f3       	brcs	.-32     	; 0x24fa <__addsf3+0x8>
    251a:	ba 17       	cp	r27, r26
    251c:	62 07       	cpc	r22, r18
    251e:	73 07       	cpc	r23, r19
    2520:	84 07       	cpc	r24, r20
    2522:	95 07       	cpc	r25, r21
    2524:	18 f0       	brcs	.+6      	; 0x252c <__addsf3x+0x18>
    2526:	71 f4       	brne	.+28     	; 0x2544 <__addsf3x+0x30>
    2528:	9e f5       	brtc	.+102    	; 0x2590 <__addsf3x+0x7c>
    252a:	b4 c1       	rjmp	.+872    	; 0x2894 <__fp_zero>
    252c:	0e f4       	brtc	.+2      	; 0x2530 <__addsf3x+0x1c>
    252e:	e0 95       	com	r30
    2530:	0b 2e       	mov	r0, r27
    2532:	ba 2f       	mov	r27, r26
    2534:	a0 2d       	mov	r26, r0
    2536:	0b 01       	movw	r0, r22
    2538:	b9 01       	movw	r22, r18
    253a:	90 01       	movw	r18, r0
    253c:	0c 01       	movw	r0, r24
    253e:	ca 01       	movw	r24, r20
    2540:	a0 01       	movw	r20, r0
    2542:	11 24       	eor	r1, r1
    2544:	ff 27       	eor	r31, r31
    2546:	59 1b       	sub	r21, r25
    2548:	99 f0       	breq	.+38     	; 0x2570 <__addsf3x+0x5c>
    254a:	59 3f       	cpi	r21, 0xF9	; 249
    254c:	50 f4       	brcc	.+20     	; 0x2562 <__addsf3x+0x4e>
    254e:	50 3e       	cpi	r21, 0xE0	; 224
    2550:	68 f1       	brcs	.+90     	; 0x25ac <__addsf3x+0x98>
    2552:	1a 16       	cp	r1, r26
    2554:	f0 40       	sbci	r31, 0x00	; 0
    2556:	a2 2f       	mov	r26, r18
    2558:	23 2f       	mov	r18, r19
    255a:	34 2f       	mov	r19, r20
    255c:	44 27       	eor	r20, r20
    255e:	58 5f       	subi	r21, 0xF8	; 248
    2560:	f3 cf       	rjmp	.-26     	; 0x2548 <__addsf3x+0x34>
    2562:	46 95       	lsr	r20
    2564:	37 95       	ror	r19
    2566:	27 95       	ror	r18
    2568:	a7 95       	ror	r26
    256a:	f0 40       	sbci	r31, 0x00	; 0
    256c:	53 95       	inc	r21
    256e:	c9 f7       	brne	.-14     	; 0x2562 <__addsf3x+0x4e>
    2570:	7e f4       	brtc	.+30     	; 0x2590 <__addsf3x+0x7c>
    2572:	1f 16       	cp	r1, r31
    2574:	ba 0b       	sbc	r27, r26
    2576:	62 0b       	sbc	r22, r18
    2578:	73 0b       	sbc	r23, r19
    257a:	84 0b       	sbc	r24, r20
    257c:	ba f0       	brmi	.+46     	; 0x25ac <__addsf3x+0x98>
    257e:	91 50       	subi	r25, 0x01	; 1
    2580:	a1 f0       	breq	.+40     	; 0x25aa <__addsf3x+0x96>
    2582:	ff 0f       	add	r31, r31
    2584:	bb 1f       	adc	r27, r27
    2586:	66 1f       	adc	r22, r22
    2588:	77 1f       	adc	r23, r23
    258a:	88 1f       	adc	r24, r24
    258c:	c2 f7       	brpl	.-16     	; 0x257e <__addsf3x+0x6a>
    258e:	0e c0       	rjmp	.+28     	; 0x25ac <__addsf3x+0x98>
    2590:	ba 0f       	add	r27, r26
    2592:	62 1f       	adc	r22, r18
    2594:	73 1f       	adc	r23, r19
    2596:	84 1f       	adc	r24, r20
    2598:	48 f4       	brcc	.+18     	; 0x25ac <__addsf3x+0x98>
    259a:	87 95       	ror	r24
    259c:	77 95       	ror	r23
    259e:	67 95       	ror	r22
    25a0:	b7 95       	ror	r27
    25a2:	f7 95       	ror	r31
    25a4:	9e 3f       	cpi	r25, 0xFE	; 254
    25a6:	08 f0       	brcs	.+2      	; 0x25aa <__addsf3x+0x96>
    25a8:	b3 cf       	rjmp	.-154    	; 0x2510 <__addsf3+0x1e>
    25aa:	93 95       	inc	r25
    25ac:	88 0f       	add	r24, r24
    25ae:	08 f0       	brcs	.+2      	; 0x25b2 <__addsf3x+0x9e>
    25b0:	99 27       	eor	r25, r25
    25b2:	ee 0f       	add	r30, r30
    25b4:	97 95       	ror	r25
    25b6:	87 95       	ror	r24
    25b8:	08 95       	ret

000025ba <__cmpsf2>:
    25ba:	d9 d0       	rcall	.+434    	; 0x276e <__fp_cmp>
    25bc:	08 f4       	brcc	.+2      	; 0x25c0 <__cmpsf2+0x6>
    25be:	81 e0       	ldi	r24, 0x01	; 1
    25c0:	08 95       	ret

000025c2 <__divsf3>:
    25c2:	0c d0       	rcall	.+24     	; 0x25dc <__divsf3x>
    25c4:	34 c1       	rjmp	.+616    	; 0x282e <__fp_round>
    25c6:	2c d1       	rcall	.+600    	; 0x2820 <__fp_pscB>
    25c8:	40 f0       	brcs	.+16     	; 0x25da <__divsf3+0x18>
    25ca:	23 d1       	rcall	.+582    	; 0x2812 <__fp_pscA>
    25cc:	30 f0       	brcs	.+12     	; 0x25da <__divsf3+0x18>
    25ce:	21 f4       	brne	.+8      	; 0x25d8 <__divsf3+0x16>
    25d0:	5f 3f       	cpi	r21, 0xFF	; 255
    25d2:	19 f0       	breq	.+6      	; 0x25da <__divsf3+0x18>
    25d4:	f0 c0       	rjmp	.+480    	; 0x27b6 <__fp_inf>
    25d6:	51 11       	cpse	r21, r1
    25d8:	5e c1       	rjmp	.+700    	; 0x2896 <__fp_szero>
    25da:	f3 c0       	rjmp	.+486    	; 0x27c2 <__fp_nan>

000025dc <__divsf3x>:
    25dc:	39 d1       	rcall	.+626    	; 0x2850 <__fp_split3>
    25de:	98 f3       	brcs	.-26     	; 0x25c6 <__divsf3+0x4>

000025e0 <__divsf3_pse>:
    25e0:	99 23       	and	r25, r25
    25e2:	c9 f3       	breq	.-14     	; 0x25d6 <__divsf3+0x14>
    25e4:	55 23       	and	r21, r21
    25e6:	b1 f3       	breq	.-20     	; 0x25d4 <__divsf3+0x12>
    25e8:	95 1b       	sub	r25, r21
    25ea:	55 0b       	sbc	r21, r21
    25ec:	bb 27       	eor	r27, r27
    25ee:	aa 27       	eor	r26, r26
    25f0:	62 17       	cp	r22, r18
    25f2:	73 07       	cpc	r23, r19
    25f4:	84 07       	cpc	r24, r20
    25f6:	38 f0       	brcs	.+14     	; 0x2606 <__divsf3_pse+0x26>
    25f8:	9f 5f       	subi	r25, 0xFF	; 255
    25fa:	5f 4f       	sbci	r21, 0xFF	; 255
    25fc:	22 0f       	add	r18, r18
    25fe:	33 1f       	adc	r19, r19
    2600:	44 1f       	adc	r20, r20
    2602:	aa 1f       	adc	r26, r26
    2604:	a9 f3       	breq	.-22     	; 0x25f0 <__divsf3_pse+0x10>
    2606:	33 d0       	rcall	.+102    	; 0x266e <__divsf3_pse+0x8e>
    2608:	0e 2e       	mov	r0, r30
    260a:	3a f0       	brmi	.+14     	; 0x261a <__divsf3_pse+0x3a>
    260c:	e0 e8       	ldi	r30, 0x80	; 128
    260e:	30 d0       	rcall	.+96     	; 0x2670 <__divsf3_pse+0x90>
    2610:	91 50       	subi	r25, 0x01	; 1
    2612:	50 40       	sbci	r21, 0x00	; 0
    2614:	e6 95       	lsr	r30
    2616:	00 1c       	adc	r0, r0
    2618:	ca f7       	brpl	.-14     	; 0x260c <__divsf3_pse+0x2c>
    261a:	29 d0       	rcall	.+82     	; 0x266e <__divsf3_pse+0x8e>
    261c:	fe 2f       	mov	r31, r30
    261e:	27 d0       	rcall	.+78     	; 0x266e <__divsf3_pse+0x8e>
    2620:	66 0f       	add	r22, r22
    2622:	77 1f       	adc	r23, r23
    2624:	88 1f       	adc	r24, r24
    2626:	bb 1f       	adc	r27, r27
    2628:	26 17       	cp	r18, r22
    262a:	37 07       	cpc	r19, r23
    262c:	48 07       	cpc	r20, r24
    262e:	ab 07       	cpc	r26, r27
    2630:	b0 e8       	ldi	r27, 0x80	; 128
    2632:	09 f0       	breq	.+2      	; 0x2636 <__divsf3_pse+0x56>
    2634:	bb 0b       	sbc	r27, r27
    2636:	80 2d       	mov	r24, r0
    2638:	bf 01       	movw	r22, r30
    263a:	ff 27       	eor	r31, r31
    263c:	93 58       	subi	r25, 0x83	; 131
    263e:	5f 4f       	sbci	r21, 0xFF	; 255
    2640:	2a f0       	brmi	.+10     	; 0x264c <__divsf3_pse+0x6c>
    2642:	9e 3f       	cpi	r25, 0xFE	; 254
    2644:	51 05       	cpc	r21, r1
    2646:	68 f0       	brcs	.+26     	; 0x2662 <__divsf3_pse+0x82>
    2648:	b6 c0       	rjmp	.+364    	; 0x27b6 <__fp_inf>
    264a:	25 c1       	rjmp	.+586    	; 0x2896 <__fp_szero>
    264c:	5f 3f       	cpi	r21, 0xFF	; 255
    264e:	ec f3       	brlt	.-6      	; 0x264a <__divsf3_pse+0x6a>
    2650:	98 3e       	cpi	r25, 0xE8	; 232
    2652:	dc f3       	brlt	.-10     	; 0x264a <__divsf3_pse+0x6a>
    2654:	86 95       	lsr	r24
    2656:	77 95       	ror	r23
    2658:	67 95       	ror	r22
    265a:	b7 95       	ror	r27
    265c:	f7 95       	ror	r31
    265e:	9f 5f       	subi	r25, 0xFF	; 255
    2660:	c9 f7       	brne	.-14     	; 0x2654 <__divsf3_pse+0x74>
    2662:	88 0f       	add	r24, r24
    2664:	91 1d       	adc	r25, r1
    2666:	96 95       	lsr	r25
    2668:	87 95       	ror	r24
    266a:	97 f9       	bld	r25, 7
    266c:	08 95       	ret
    266e:	e1 e0       	ldi	r30, 0x01	; 1
    2670:	66 0f       	add	r22, r22
    2672:	77 1f       	adc	r23, r23
    2674:	88 1f       	adc	r24, r24
    2676:	bb 1f       	adc	r27, r27
    2678:	62 17       	cp	r22, r18
    267a:	73 07       	cpc	r23, r19
    267c:	84 07       	cpc	r24, r20
    267e:	ba 07       	cpc	r27, r26
    2680:	20 f0       	brcs	.+8      	; 0x268a <__divsf3_pse+0xaa>
    2682:	62 1b       	sub	r22, r18
    2684:	73 0b       	sbc	r23, r19
    2686:	84 0b       	sbc	r24, r20
    2688:	ba 0b       	sbc	r27, r26
    268a:	ee 1f       	adc	r30, r30
    268c:	88 f7       	brcc	.-30     	; 0x2670 <__divsf3_pse+0x90>
    268e:	e0 95       	com	r30
    2690:	08 95       	ret

00002692 <__fixsfsi>:
    2692:	04 d0       	rcall	.+8      	; 0x269c <__fixunssfsi>
    2694:	68 94       	set
    2696:	b1 11       	cpse	r27, r1
    2698:	fe c0       	rjmp	.+508    	; 0x2896 <__fp_szero>
    269a:	08 95       	ret

0000269c <__fixunssfsi>:
    269c:	e1 d0       	rcall	.+450    	; 0x2860 <__fp_splitA>
    269e:	88 f0       	brcs	.+34     	; 0x26c2 <__fixunssfsi+0x26>
    26a0:	9f 57       	subi	r25, 0x7F	; 127
    26a2:	90 f0       	brcs	.+36     	; 0x26c8 <__fixunssfsi+0x2c>
    26a4:	b9 2f       	mov	r27, r25
    26a6:	99 27       	eor	r25, r25
    26a8:	b7 51       	subi	r27, 0x17	; 23
    26aa:	a0 f0       	brcs	.+40     	; 0x26d4 <__fixunssfsi+0x38>
    26ac:	d1 f0       	breq	.+52     	; 0x26e2 <__fixunssfsi+0x46>
    26ae:	66 0f       	add	r22, r22
    26b0:	77 1f       	adc	r23, r23
    26b2:	88 1f       	adc	r24, r24
    26b4:	99 1f       	adc	r25, r25
    26b6:	1a f0       	brmi	.+6      	; 0x26be <__fixunssfsi+0x22>
    26b8:	ba 95       	dec	r27
    26ba:	c9 f7       	brne	.-14     	; 0x26ae <__fixunssfsi+0x12>
    26bc:	12 c0       	rjmp	.+36     	; 0x26e2 <__fixunssfsi+0x46>
    26be:	b1 30       	cpi	r27, 0x01	; 1
    26c0:	81 f0       	breq	.+32     	; 0x26e2 <__fixunssfsi+0x46>
    26c2:	e8 d0       	rcall	.+464    	; 0x2894 <__fp_zero>
    26c4:	b1 e0       	ldi	r27, 0x01	; 1
    26c6:	08 95       	ret
    26c8:	e5 c0       	rjmp	.+458    	; 0x2894 <__fp_zero>
    26ca:	67 2f       	mov	r22, r23
    26cc:	78 2f       	mov	r23, r24
    26ce:	88 27       	eor	r24, r24
    26d0:	b8 5f       	subi	r27, 0xF8	; 248
    26d2:	39 f0       	breq	.+14     	; 0x26e2 <__fixunssfsi+0x46>
    26d4:	b9 3f       	cpi	r27, 0xF9	; 249
    26d6:	cc f3       	brlt	.-14     	; 0x26ca <__fixunssfsi+0x2e>
    26d8:	86 95       	lsr	r24
    26da:	77 95       	ror	r23
    26dc:	67 95       	ror	r22
    26de:	b3 95       	inc	r27
    26e0:	d9 f7       	brne	.-10     	; 0x26d8 <__fixunssfsi+0x3c>
    26e2:	3e f4       	brtc	.+14     	; 0x26f2 <__fixunssfsi+0x56>
    26e4:	90 95       	com	r25
    26e6:	80 95       	com	r24
    26e8:	70 95       	com	r23
    26ea:	61 95       	neg	r22
    26ec:	7f 4f       	sbci	r23, 0xFF	; 255
    26ee:	8f 4f       	sbci	r24, 0xFF	; 255
    26f0:	9f 4f       	sbci	r25, 0xFF	; 255
    26f2:	08 95       	ret

000026f4 <__floatunsisf>:
    26f4:	e8 94       	clt
    26f6:	09 c0       	rjmp	.+18     	; 0x270a <__floatsisf+0x12>

000026f8 <__floatsisf>:
    26f8:	97 fb       	bst	r25, 7
    26fa:	3e f4       	brtc	.+14     	; 0x270a <__floatsisf+0x12>
    26fc:	90 95       	com	r25
    26fe:	80 95       	com	r24
    2700:	70 95       	com	r23
    2702:	61 95       	neg	r22
    2704:	7f 4f       	sbci	r23, 0xFF	; 255
    2706:	8f 4f       	sbci	r24, 0xFF	; 255
    2708:	9f 4f       	sbci	r25, 0xFF	; 255
    270a:	99 23       	and	r25, r25
    270c:	a9 f0       	breq	.+42     	; 0x2738 <__floatsisf+0x40>
    270e:	f9 2f       	mov	r31, r25
    2710:	96 e9       	ldi	r25, 0x96	; 150
    2712:	bb 27       	eor	r27, r27
    2714:	93 95       	inc	r25
    2716:	f6 95       	lsr	r31
    2718:	87 95       	ror	r24
    271a:	77 95       	ror	r23
    271c:	67 95       	ror	r22
    271e:	b7 95       	ror	r27
    2720:	f1 11       	cpse	r31, r1
    2722:	f8 cf       	rjmp	.-16     	; 0x2714 <__floatsisf+0x1c>
    2724:	fa f4       	brpl	.+62     	; 0x2764 <__floatsisf+0x6c>
    2726:	bb 0f       	add	r27, r27
    2728:	11 f4       	brne	.+4      	; 0x272e <__floatsisf+0x36>
    272a:	60 ff       	sbrs	r22, 0
    272c:	1b c0       	rjmp	.+54     	; 0x2764 <__floatsisf+0x6c>
    272e:	6f 5f       	subi	r22, 0xFF	; 255
    2730:	7f 4f       	sbci	r23, 0xFF	; 255
    2732:	8f 4f       	sbci	r24, 0xFF	; 255
    2734:	9f 4f       	sbci	r25, 0xFF	; 255
    2736:	16 c0       	rjmp	.+44     	; 0x2764 <__floatsisf+0x6c>
    2738:	88 23       	and	r24, r24
    273a:	11 f0       	breq	.+4      	; 0x2740 <__floatsisf+0x48>
    273c:	96 e9       	ldi	r25, 0x96	; 150
    273e:	11 c0       	rjmp	.+34     	; 0x2762 <__floatsisf+0x6a>
    2740:	77 23       	and	r23, r23
    2742:	21 f0       	breq	.+8      	; 0x274c <__floatsisf+0x54>
    2744:	9e e8       	ldi	r25, 0x8E	; 142
    2746:	87 2f       	mov	r24, r23
    2748:	76 2f       	mov	r23, r22
    274a:	05 c0       	rjmp	.+10     	; 0x2756 <__floatsisf+0x5e>
    274c:	66 23       	and	r22, r22
    274e:	71 f0       	breq	.+28     	; 0x276c <__floatsisf+0x74>
    2750:	96 e8       	ldi	r25, 0x86	; 134
    2752:	86 2f       	mov	r24, r22
    2754:	70 e0       	ldi	r23, 0x00	; 0
    2756:	60 e0       	ldi	r22, 0x00	; 0
    2758:	2a f0       	brmi	.+10     	; 0x2764 <__floatsisf+0x6c>
    275a:	9a 95       	dec	r25
    275c:	66 0f       	add	r22, r22
    275e:	77 1f       	adc	r23, r23
    2760:	88 1f       	adc	r24, r24
    2762:	da f7       	brpl	.-10     	; 0x275a <__floatsisf+0x62>
    2764:	88 0f       	add	r24, r24
    2766:	96 95       	lsr	r25
    2768:	87 95       	ror	r24
    276a:	97 f9       	bld	r25, 7
    276c:	08 95       	ret

0000276e <__fp_cmp>:
    276e:	99 0f       	add	r25, r25
    2770:	00 08       	sbc	r0, r0
    2772:	55 0f       	add	r21, r21
    2774:	aa 0b       	sbc	r26, r26
    2776:	e0 e8       	ldi	r30, 0x80	; 128
    2778:	fe ef       	ldi	r31, 0xFE	; 254
    277a:	16 16       	cp	r1, r22
    277c:	17 06       	cpc	r1, r23
    277e:	e8 07       	cpc	r30, r24
    2780:	f9 07       	cpc	r31, r25
    2782:	c0 f0       	brcs	.+48     	; 0x27b4 <__fp_cmp+0x46>
    2784:	12 16       	cp	r1, r18
    2786:	13 06       	cpc	r1, r19
    2788:	e4 07       	cpc	r30, r20
    278a:	f5 07       	cpc	r31, r21
    278c:	98 f0       	brcs	.+38     	; 0x27b4 <__fp_cmp+0x46>
    278e:	62 1b       	sub	r22, r18
    2790:	73 0b       	sbc	r23, r19
    2792:	84 0b       	sbc	r24, r20
    2794:	95 0b       	sbc	r25, r21
    2796:	39 f4       	brne	.+14     	; 0x27a6 <__fp_cmp+0x38>
    2798:	0a 26       	eor	r0, r26
    279a:	61 f0       	breq	.+24     	; 0x27b4 <__fp_cmp+0x46>
    279c:	23 2b       	or	r18, r19
    279e:	24 2b       	or	r18, r20
    27a0:	25 2b       	or	r18, r21
    27a2:	21 f4       	brne	.+8      	; 0x27ac <__fp_cmp+0x3e>
    27a4:	08 95       	ret
    27a6:	0a 26       	eor	r0, r26
    27a8:	09 f4       	brne	.+2      	; 0x27ac <__fp_cmp+0x3e>
    27aa:	a1 40       	sbci	r26, 0x01	; 1
    27ac:	a6 95       	lsr	r26
    27ae:	8f ef       	ldi	r24, 0xFF	; 255
    27b0:	81 1d       	adc	r24, r1
    27b2:	81 1d       	adc	r24, r1
    27b4:	08 95       	ret

000027b6 <__fp_inf>:
    27b6:	97 f9       	bld	r25, 7
    27b8:	9f 67       	ori	r25, 0x7F	; 127
    27ba:	80 e8       	ldi	r24, 0x80	; 128
    27bc:	70 e0       	ldi	r23, 0x00	; 0
    27be:	60 e0       	ldi	r22, 0x00	; 0
    27c0:	08 95       	ret

000027c2 <__fp_nan>:
    27c2:	9f ef       	ldi	r25, 0xFF	; 255
    27c4:	80 ec       	ldi	r24, 0xC0	; 192
    27c6:	08 95       	ret

000027c8 <__fp_powser>:
    27c8:	df 93       	push	r29
    27ca:	cf 93       	push	r28
    27cc:	1f 93       	push	r17
    27ce:	0f 93       	push	r16
    27d0:	ff 92       	push	r15
    27d2:	ef 92       	push	r14
    27d4:	df 92       	push	r13
    27d6:	7b 01       	movw	r14, r22
    27d8:	8c 01       	movw	r16, r24
    27da:	68 94       	set
    27dc:	05 c0       	rjmp	.+10     	; 0x27e8 <__fp_powser+0x20>
    27de:	da 2e       	mov	r13, r26
    27e0:	ef 01       	movw	r28, r30
    27e2:	76 d0       	rcall	.+236    	; 0x28d0 <__mulsf3x>
    27e4:	fe 01       	movw	r30, r28
    27e6:	e8 94       	clt
    27e8:	a5 91       	lpm	r26, Z+
    27ea:	25 91       	lpm	r18, Z+
    27ec:	35 91       	lpm	r19, Z+
    27ee:	45 91       	lpm	r20, Z+
    27f0:	55 91       	lpm	r21, Z+
    27f2:	ae f3       	brts	.-22     	; 0x27de <__fp_powser+0x16>
    27f4:	ef 01       	movw	r28, r30
    27f6:	8e de       	rcall	.-740    	; 0x2514 <__addsf3x>
    27f8:	fe 01       	movw	r30, r28
    27fa:	97 01       	movw	r18, r14
    27fc:	a8 01       	movw	r20, r16
    27fe:	da 94       	dec	r13
    2800:	79 f7       	brne	.-34     	; 0x27e0 <__fp_powser+0x18>
    2802:	df 90       	pop	r13
    2804:	ef 90       	pop	r14
    2806:	ff 90       	pop	r15
    2808:	0f 91       	pop	r16
    280a:	1f 91       	pop	r17
    280c:	cf 91       	pop	r28
    280e:	df 91       	pop	r29
    2810:	08 95       	ret

00002812 <__fp_pscA>:
    2812:	00 24       	eor	r0, r0
    2814:	0a 94       	dec	r0
    2816:	16 16       	cp	r1, r22
    2818:	17 06       	cpc	r1, r23
    281a:	18 06       	cpc	r1, r24
    281c:	09 06       	cpc	r0, r25
    281e:	08 95       	ret

00002820 <__fp_pscB>:
    2820:	00 24       	eor	r0, r0
    2822:	0a 94       	dec	r0
    2824:	12 16       	cp	r1, r18
    2826:	13 06       	cpc	r1, r19
    2828:	14 06       	cpc	r1, r20
    282a:	05 06       	cpc	r0, r21
    282c:	08 95       	ret

0000282e <__fp_round>:
    282e:	09 2e       	mov	r0, r25
    2830:	03 94       	inc	r0
    2832:	00 0c       	add	r0, r0
    2834:	11 f4       	brne	.+4      	; 0x283a <__fp_round+0xc>
    2836:	88 23       	and	r24, r24
    2838:	52 f0       	brmi	.+20     	; 0x284e <__fp_round+0x20>
    283a:	bb 0f       	add	r27, r27
    283c:	40 f4       	brcc	.+16     	; 0x284e <__fp_round+0x20>
    283e:	bf 2b       	or	r27, r31
    2840:	11 f4       	brne	.+4      	; 0x2846 <__fp_round+0x18>
    2842:	60 ff       	sbrs	r22, 0
    2844:	04 c0       	rjmp	.+8      	; 0x284e <__fp_round+0x20>
    2846:	6f 5f       	subi	r22, 0xFF	; 255
    2848:	7f 4f       	sbci	r23, 0xFF	; 255
    284a:	8f 4f       	sbci	r24, 0xFF	; 255
    284c:	9f 4f       	sbci	r25, 0xFF	; 255
    284e:	08 95       	ret

00002850 <__fp_split3>:
    2850:	57 fd       	sbrc	r21, 7
    2852:	90 58       	subi	r25, 0x80	; 128
    2854:	44 0f       	add	r20, r20
    2856:	55 1f       	adc	r21, r21
    2858:	59 f0       	breq	.+22     	; 0x2870 <__fp_splitA+0x10>
    285a:	5f 3f       	cpi	r21, 0xFF	; 255
    285c:	71 f0       	breq	.+28     	; 0x287a <__fp_splitA+0x1a>
    285e:	47 95       	ror	r20

00002860 <__fp_splitA>:
    2860:	88 0f       	add	r24, r24
    2862:	97 fb       	bst	r25, 7
    2864:	99 1f       	adc	r25, r25
    2866:	61 f0       	breq	.+24     	; 0x2880 <__fp_splitA+0x20>
    2868:	9f 3f       	cpi	r25, 0xFF	; 255
    286a:	79 f0       	breq	.+30     	; 0x288a <__fp_splitA+0x2a>
    286c:	87 95       	ror	r24
    286e:	08 95       	ret
    2870:	12 16       	cp	r1, r18
    2872:	13 06       	cpc	r1, r19
    2874:	14 06       	cpc	r1, r20
    2876:	55 1f       	adc	r21, r21
    2878:	f2 cf       	rjmp	.-28     	; 0x285e <__fp_split3+0xe>
    287a:	46 95       	lsr	r20
    287c:	f1 df       	rcall	.-30     	; 0x2860 <__fp_splitA>
    287e:	08 c0       	rjmp	.+16     	; 0x2890 <__fp_splitA+0x30>
    2880:	16 16       	cp	r1, r22
    2882:	17 06       	cpc	r1, r23
    2884:	18 06       	cpc	r1, r24
    2886:	99 1f       	adc	r25, r25
    2888:	f1 cf       	rjmp	.-30     	; 0x286c <__fp_splitA+0xc>
    288a:	86 95       	lsr	r24
    288c:	71 05       	cpc	r23, r1
    288e:	61 05       	cpc	r22, r1
    2890:	08 94       	sec
    2892:	08 95       	ret

00002894 <__fp_zero>:
    2894:	e8 94       	clt

00002896 <__fp_szero>:
    2896:	bb 27       	eor	r27, r27
    2898:	66 27       	eor	r22, r22
    289a:	77 27       	eor	r23, r23
    289c:	cb 01       	movw	r24, r22
    289e:	97 f9       	bld	r25, 7
    28a0:	08 95       	ret

000028a2 <__gesf2>:
    28a2:	65 df       	rcall	.-310    	; 0x276e <__fp_cmp>
    28a4:	08 f4       	brcc	.+2      	; 0x28a8 <__gesf2+0x6>
    28a6:	8f ef       	ldi	r24, 0xFF	; 255
    28a8:	08 95       	ret

000028aa <inverse>:
    28aa:	9b 01       	movw	r18, r22
    28ac:	ac 01       	movw	r20, r24
    28ae:	60 e0       	ldi	r22, 0x00	; 0
    28b0:	70 e0       	ldi	r23, 0x00	; 0
    28b2:	80 e8       	ldi	r24, 0x80	; 128
    28b4:	9f e3       	ldi	r25, 0x3F	; 63
    28b6:	85 ce       	rjmp	.-758    	; 0x25c2 <__divsf3>

000028b8 <__mulsf3>:
    28b8:	0b d0       	rcall	.+22     	; 0x28d0 <__mulsf3x>
    28ba:	b9 cf       	rjmp	.-142    	; 0x282e <__fp_round>
    28bc:	aa df       	rcall	.-172    	; 0x2812 <__fp_pscA>
    28be:	28 f0       	brcs	.+10     	; 0x28ca <__mulsf3+0x12>
    28c0:	af df       	rcall	.-162    	; 0x2820 <__fp_pscB>
    28c2:	18 f0       	brcs	.+6      	; 0x28ca <__mulsf3+0x12>
    28c4:	95 23       	and	r25, r21
    28c6:	09 f0       	breq	.+2      	; 0x28ca <__mulsf3+0x12>
    28c8:	76 cf       	rjmp	.-276    	; 0x27b6 <__fp_inf>
    28ca:	7b cf       	rjmp	.-266    	; 0x27c2 <__fp_nan>
    28cc:	11 24       	eor	r1, r1
    28ce:	e3 cf       	rjmp	.-58     	; 0x2896 <__fp_szero>

000028d0 <__mulsf3x>:
    28d0:	bf df       	rcall	.-130    	; 0x2850 <__fp_split3>
    28d2:	a0 f3       	brcs	.-24     	; 0x28bc <__mulsf3+0x4>

000028d4 <__mulsf3_pse>:
    28d4:	95 9f       	mul	r25, r21
    28d6:	d1 f3       	breq	.-12     	; 0x28cc <__mulsf3+0x14>
    28d8:	95 0f       	add	r25, r21
    28da:	50 e0       	ldi	r21, 0x00	; 0
    28dc:	55 1f       	adc	r21, r21
    28de:	62 9f       	mul	r22, r18
    28e0:	f0 01       	movw	r30, r0
    28e2:	72 9f       	mul	r23, r18
    28e4:	bb 27       	eor	r27, r27
    28e6:	f0 0d       	add	r31, r0
    28e8:	b1 1d       	adc	r27, r1
    28ea:	63 9f       	mul	r22, r19
    28ec:	aa 27       	eor	r26, r26
    28ee:	f0 0d       	add	r31, r0
    28f0:	b1 1d       	adc	r27, r1
    28f2:	aa 1f       	adc	r26, r26
    28f4:	64 9f       	mul	r22, r20
    28f6:	66 27       	eor	r22, r22
    28f8:	b0 0d       	add	r27, r0
    28fa:	a1 1d       	adc	r26, r1
    28fc:	66 1f       	adc	r22, r22
    28fe:	82 9f       	mul	r24, r18
    2900:	22 27       	eor	r18, r18
    2902:	b0 0d       	add	r27, r0
    2904:	a1 1d       	adc	r26, r1
    2906:	62 1f       	adc	r22, r18
    2908:	73 9f       	mul	r23, r19
    290a:	b0 0d       	add	r27, r0
    290c:	a1 1d       	adc	r26, r1
    290e:	62 1f       	adc	r22, r18
    2910:	83 9f       	mul	r24, r19
    2912:	a0 0d       	add	r26, r0
    2914:	61 1d       	adc	r22, r1
    2916:	22 1f       	adc	r18, r18
    2918:	74 9f       	mul	r23, r20
    291a:	33 27       	eor	r19, r19
    291c:	a0 0d       	add	r26, r0
    291e:	61 1d       	adc	r22, r1
    2920:	23 1f       	adc	r18, r19
    2922:	84 9f       	mul	r24, r20
    2924:	60 0d       	add	r22, r0
    2926:	21 1d       	adc	r18, r1
    2928:	82 2f       	mov	r24, r18
    292a:	76 2f       	mov	r23, r22
    292c:	6a 2f       	mov	r22, r26
    292e:	11 24       	eor	r1, r1
    2930:	9f 57       	subi	r25, 0x7F	; 127
    2932:	50 40       	sbci	r21, 0x00	; 0
    2934:	8a f0       	brmi	.+34     	; 0x2958 <__mulsf3_pse+0x84>
    2936:	e1 f0       	breq	.+56     	; 0x2970 <__mulsf3_pse+0x9c>
    2938:	88 23       	and	r24, r24
    293a:	4a f0       	brmi	.+18     	; 0x294e <__mulsf3_pse+0x7a>
    293c:	ee 0f       	add	r30, r30
    293e:	ff 1f       	adc	r31, r31
    2940:	bb 1f       	adc	r27, r27
    2942:	66 1f       	adc	r22, r22
    2944:	77 1f       	adc	r23, r23
    2946:	88 1f       	adc	r24, r24
    2948:	91 50       	subi	r25, 0x01	; 1
    294a:	50 40       	sbci	r21, 0x00	; 0
    294c:	a9 f7       	brne	.-22     	; 0x2938 <__mulsf3_pse+0x64>
    294e:	9e 3f       	cpi	r25, 0xFE	; 254
    2950:	51 05       	cpc	r21, r1
    2952:	70 f0       	brcs	.+28     	; 0x2970 <__mulsf3_pse+0x9c>
    2954:	30 cf       	rjmp	.-416    	; 0x27b6 <__fp_inf>
    2956:	9f cf       	rjmp	.-194    	; 0x2896 <__fp_szero>
    2958:	5f 3f       	cpi	r21, 0xFF	; 255
    295a:	ec f3       	brlt	.-6      	; 0x2956 <__mulsf3_pse+0x82>
    295c:	98 3e       	cpi	r25, 0xE8	; 232
    295e:	dc f3       	brlt	.-10     	; 0x2956 <__mulsf3_pse+0x82>
    2960:	86 95       	lsr	r24
    2962:	77 95       	ror	r23
    2964:	67 95       	ror	r22
    2966:	b7 95       	ror	r27
    2968:	f7 95       	ror	r31
    296a:	e7 95       	ror	r30
    296c:	9f 5f       	subi	r25, 0xFF	; 255
    296e:	c1 f7       	brne	.-16     	; 0x2960 <__mulsf3_pse+0x8c>
    2970:	fe 2b       	or	r31, r30
    2972:	88 0f       	add	r24, r24
    2974:	91 1d       	adc	r25, r1
    2976:	96 95       	lsr	r25
    2978:	87 95       	ror	r24
    297a:	97 f9       	bld	r25, 7
    297c:	08 95       	ret

0000297e <pow>:
    297e:	fa 01       	movw	r30, r20
    2980:	ee 0f       	add	r30, r30
    2982:	ff 1f       	adc	r31, r31
    2984:	30 96       	adiw	r30, 0x00	; 0
    2986:	21 05       	cpc	r18, r1
    2988:	31 05       	cpc	r19, r1
    298a:	99 f1       	breq	.+102    	; 0x29f2 <pow+0x74>
    298c:	61 15       	cp	r22, r1
    298e:	71 05       	cpc	r23, r1
    2990:	61 f4       	brne	.+24     	; 0x29aa <pow+0x2c>
    2992:	80 38       	cpi	r24, 0x80	; 128
    2994:	bf e3       	ldi	r27, 0x3F	; 63
    2996:	9b 07       	cpc	r25, r27
    2998:	49 f1       	breq	.+82     	; 0x29ec <pow+0x6e>
    299a:	68 94       	set
    299c:	90 38       	cpi	r25, 0x80	; 128
    299e:	81 05       	cpc	r24, r1
    29a0:	61 f0       	breq	.+24     	; 0x29ba <pow+0x3c>
    29a2:	80 38       	cpi	r24, 0x80	; 128
    29a4:	bf ef       	ldi	r27, 0xFF	; 255
    29a6:	9b 07       	cpc	r25, r27
    29a8:	41 f0       	breq	.+16     	; 0x29ba <pow+0x3c>
    29aa:	99 23       	and	r25, r25
    29ac:	42 f5       	brpl	.+80     	; 0x29fe <pow+0x80>
    29ae:	ff 3f       	cpi	r31, 0xFF	; 255
    29b0:	e1 05       	cpc	r30, r1
    29b2:	31 05       	cpc	r19, r1
    29b4:	21 05       	cpc	r18, r1
    29b6:	11 f1       	breq	.+68     	; 0x29fc <pow+0x7e>
    29b8:	e8 94       	clt
    29ba:	08 94       	sec
    29bc:	e7 95       	ror	r30
    29be:	d9 01       	movw	r26, r18
    29c0:	aa 23       	and	r26, r26
    29c2:	29 f4       	brne	.+10     	; 0x29ce <pow+0x50>
    29c4:	ab 2f       	mov	r26, r27
    29c6:	be 2f       	mov	r27, r30
    29c8:	f8 5f       	subi	r31, 0xF8	; 248
    29ca:	d0 f3       	brcs	.-12     	; 0x29c0 <pow+0x42>
    29cc:	10 c0       	rjmp	.+32     	; 0x29ee <pow+0x70>
    29ce:	ff 5f       	subi	r31, 0xFF	; 255
    29d0:	70 f4       	brcc	.+28     	; 0x29ee <pow+0x70>
    29d2:	a6 95       	lsr	r26
    29d4:	e0 f7       	brcc	.-8      	; 0x29ce <pow+0x50>
    29d6:	f7 39       	cpi	r31, 0x97	; 151
    29d8:	50 f0       	brcs	.+20     	; 0x29ee <pow+0x70>
    29da:	19 f0       	breq	.+6      	; 0x29e2 <pow+0x64>
    29dc:	ff 3a       	cpi	r31, 0xAF	; 175
    29de:	38 f4       	brcc	.+14     	; 0x29ee <pow+0x70>
    29e0:	9f 77       	andi	r25, 0x7F	; 127
    29e2:	9f 93       	push	r25
    29e4:	0c d0       	rcall	.+24     	; 0x29fe <pow+0x80>
    29e6:	0f 90       	pop	r0
    29e8:	07 fc       	sbrc	r0, 7
    29ea:	90 58       	subi	r25, 0x80	; 128
    29ec:	08 95       	ret
    29ee:	3e f0       	brts	.+14     	; 0x29fe <pow+0x80>
    29f0:	e8 ce       	rjmp	.-560    	; 0x27c2 <__fp_nan>
    29f2:	60 e0       	ldi	r22, 0x00	; 0
    29f4:	70 e0       	ldi	r23, 0x00	; 0
    29f6:	80 e8       	ldi	r24, 0x80	; 128
    29f8:	9f e3       	ldi	r25, 0x3F	; 63
    29fa:	08 95       	ret
    29fc:	4f e7       	ldi	r20, 0x7F	; 127
    29fe:	9f 77       	andi	r25, 0x7F	; 127
    2a00:	5f 93       	push	r21
    2a02:	4f 93       	push	r20
    2a04:	3f 93       	push	r19
    2a06:	2f 93       	push	r18
    2a08:	80 d0       	rcall	.+256    	; 0x2b0a <log>
    2a0a:	2f 91       	pop	r18
    2a0c:	3f 91       	pop	r19
    2a0e:	4f 91       	pop	r20
    2a10:	5f 91       	pop	r21
    2a12:	52 df       	rcall	.-348    	; 0x28b8 <__mulsf3>
    2a14:	05 c0       	rjmp	.+10     	; 0x2a20 <exp>
    2a16:	19 f4       	brne	.+6      	; 0x2a1e <pow+0xa0>
    2a18:	0e f0       	brts	.+2      	; 0x2a1c <pow+0x9e>
    2a1a:	cd ce       	rjmp	.-614    	; 0x27b6 <__fp_inf>
    2a1c:	3b cf       	rjmp	.-394    	; 0x2894 <__fp_zero>
    2a1e:	d1 ce       	rjmp	.-606    	; 0x27c2 <__fp_nan>

00002a20 <exp>:
    2a20:	1f df       	rcall	.-450    	; 0x2860 <__fp_splitA>
    2a22:	c8 f3       	brcs	.-14     	; 0x2a16 <pow+0x98>
    2a24:	96 38       	cpi	r25, 0x86	; 134
    2a26:	c0 f7       	brcc	.-16     	; 0x2a18 <pow+0x9a>
    2a28:	07 f8       	bld	r0, 7
    2a2a:	0f 92       	push	r0
    2a2c:	e8 94       	clt
    2a2e:	2b e3       	ldi	r18, 0x3B	; 59
    2a30:	3a ea       	ldi	r19, 0xAA	; 170
    2a32:	48 eb       	ldi	r20, 0xB8	; 184
    2a34:	5f e7       	ldi	r21, 0x7F	; 127
    2a36:	4e df       	rcall	.-356    	; 0x28d4 <__mulsf3_pse>
    2a38:	0f 92       	push	r0
    2a3a:	0f 92       	push	r0
    2a3c:	0f 92       	push	r0
    2a3e:	4d b7       	in	r20, 0x3d	; 61
    2a40:	5e b7       	in	r21, 0x3e	; 62
    2a42:	0f 92       	push	r0
    2a44:	a2 d0       	rcall	.+324    	; 0x2b8a <modf>
    2a46:	ec ef       	ldi	r30, 0xFC	; 252
    2a48:	f1 e0       	ldi	r31, 0x01	; 1
    2a4a:	be de       	rcall	.-644    	; 0x27c8 <__fp_powser>
    2a4c:	4f 91       	pop	r20
    2a4e:	5f 91       	pop	r21
    2a50:	ef 91       	pop	r30
    2a52:	ff 91       	pop	r31
    2a54:	e5 95       	asr	r30
    2a56:	ee 1f       	adc	r30, r30
    2a58:	ff 1f       	adc	r31, r31
    2a5a:	49 f0       	breq	.+18     	; 0x2a6e <exp+0x4e>
    2a5c:	fe 57       	subi	r31, 0x7E	; 126
    2a5e:	e0 68       	ori	r30, 0x80	; 128
    2a60:	44 27       	eor	r20, r20
    2a62:	ee 0f       	add	r30, r30
    2a64:	44 1f       	adc	r20, r20
    2a66:	fa 95       	dec	r31
    2a68:	e1 f7       	brne	.-8      	; 0x2a62 <exp+0x42>
    2a6a:	41 95       	neg	r20
    2a6c:	55 0b       	sbc	r21, r21
    2a6e:	14 d0       	rcall	.+40     	; 0x2a98 <ldexp>
    2a70:	0f 90       	pop	r0
    2a72:	07 fe       	sbrs	r0, 7
    2a74:	1a cf       	rjmp	.-460    	; 0x28aa <inverse>
    2a76:	08 95       	ret

00002a78 <__fp_mpack>:
    2a78:	9f 3f       	cpi	r25, 0xFF	; 255
    2a7a:	31 f0       	breq	.+12     	; 0x2a88 <__fp_mpack_finite+0xc>

00002a7c <__fp_mpack_finite>:
    2a7c:	91 50       	subi	r25, 0x01	; 1
    2a7e:	20 f4       	brcc	.+8      	; 0x2a88 <__fp_mpack_finite+0xc>
    2a80:	87 95       	ror	r24
    2a82:	77 95       	ror	r23
    2a84:	67 95       	ror	r22
    2a86:	b7 95       	ror	r27
    2a88:	88 0f       	add	r24, r24
    2a8a:	91 1d       	adc	r25, r1
    2a8c:	96 95       	lsr	r25
    2a8e:	87 95       	ror	r24
    2a90:	97 f9       	bld	r25, 7
    2a92:	08 95       	ret
    2a94:	90 ce       	rjmp	.-736    	; 0x27b6 <__fp_inf>
    2a96:	f0 cf       	rjmp	.-32     	; 0x2a78 <__fp_mpack>

00002a98 <ldexp>:
    2a98:	e3 de       	rcall	.-570    	; 0x2860 <__fp_splitA>
    2a9a:	e8 f3       	brcs	.-6      	; 0x2a96 <__fp_mpack_finite+0x1a>
    2a9c:	99 23       	and	r25, r25
    2a9e:	d9 f3       	breq	.-10     	; 0x2a96 <__fp_mpack_finite+0x1a>
    2aa0:	94 0f       	add	r25, r20
    2aa2:	51 1d       	adc	r21, r1
    2aa4:	bb f3       	brvs	.-18     	; 0x2a94 <__fp_mpack_finite+0x18>
    2aa6:	91 50       	subi	r25, 0x01	; 1
    2aa8:	50 40       	sbci	r21, 0x00	; 0
    2aaa:	94 f0       	brlt	.+36     	; 0x2ad0 <ldexp+0x38>
    2aac:	59 f0       	breq	.+22     	; 0x2ac4 <ldexp+0x2c>
    2aae:	88 23       	and	r24, r24
    2ab0:	32 f0       	brmi	.+12     	; 0x2abe <ldexp+0x26>
    2ab2:	66 0f       	add	r22, r22
    2ab4:	77 1f       	adc	r23, r23
    2ab6:	88 1f       	adc	r24, r24
    2ab8:	91 50       	subi	r25, 0x01	; 1
    2aba:	50 40       	sbci	r21, 0x00	; 0
    2abc:	c1 f7       	brne	.-16     	; 0x2aae <ldexp+0x16>
    2abe:	9e 3f       	cpi	r25, 0xFE	; 254
    2ac0:	51 05       	cpc	r21, r1
    2ac2:	44 f7       	brge	.-48     	; 0x2a94 <__fp_mpack_finite+0x18>
    2ac4:	88 0f       	add	r24, r24
    2ac6:	91 1d       	adc	r25, r1
    2ac8:	96 95       	lsr	r25
    2aca:	87 95       	ror	r24
    2acc:	97 f9       	bld	r25, 7
    2ace:	08 95       	ret
    2ad0:	5f 3f       	cpi	r21, 0xFF	; 255
    2ad2:	ac f0       	brlt	.+42     	; 0x2afe <ldexp+0x66>
    2ad4:	98 3e       	cpi	r25, 0xE8	; 232
    2ad6:	9c f0       	brlt	.+38     	; 0x2afe <ldexp+0x66>
    2ad8:	bb 27       	eor	r27, r27
    2ada:	86 95       	lsr	r24
    2adc:	77 95       	ror	r23
    2ade:	67 95       	ror	r22
    2ae0:	b7 95       	ror	r27
    2ae2:	08 f4       	brcc	.+2      	; 0x2ae6 <ldexp+0x4e>
    2ae4:	b1 60       	ori	r27, 0x01	; 1
    2ae6:	93 95       	inc	r25
    2ae8:	c1 f7       	brne	.-16     	; 0x2ada <ldexp+0x42>
    2aea:	bb 0f       	add	r27, r27
    2aec:	58 f7       	brcc	.-42     	; 0x2ac4 <ldexp+0x2c>
    2aee:	11 f4       	brne	.+4      	; 0x2af4 <ldexp+0x5c>
    2af0:	60 ff       	sbrs	r22, 0
    2af2:	e8 cf       	rjmp	.-48     	; 0x2ac4 <ldexp+0x2c>
    2af4:	6f 5f       	subi	r22, 0xFF	; 255
    2af6:	7f 4f       	sbci	r23, 0xFF	; 255
    2af8:	8f 4f       	sbci	r24, 0xFF	; 255
    2afa:	9f 4f       	sbci	r25, 0xFF	; 255
    2afc:	e3 cf       	rjmp	.-58     	; 0x2ac4 <ldexp+0x2c>
    2afe:	cb ce       	rjmp	.-618    	; 0x2896 <__fp_szero>
    2b00:	0e f0       	brts	.+2      	; 0x2b04 <ldexp+0x6c>
    2b02:	ba cf       	rjmp	.-140    	; 0x2a78 <__fp_mpack>
    2b04:	5e ce       	rjmp	.-836    	; 0x27c2 <__fp_nan>
    2b06:	68 94       	set
    2b08:	56 ce       	rjmp	.-852    	; 0x27b6 <__fp_inf>

00002b0a <log>:
    2b0a:	aa de       	rcall	.-684    	; 0x2860 <__fp_splitA>
    2b0c:	c8 f3       	brcs	.-14     	; 0x2b00 <ldexp+0x68>
    2b0e:	99 23       	and	r25, r25
    2b10:	d1 f3       	breq	.-12     	; 0x2b06 <ldexp+0x6e>
    2b12:	c6 f3       	brts	.-16     	; 0x2b04 <ldexp+0x6c>
    2b14:	df 93       	push	r29
    2b16:	cf 93       	push	r28
    2b18:	1f 93       	push	r17
    2b1a:	0f 93       	push	r16
    2b1c:	ff 92       	push	r15
    2b1e:	c9 2f       	mov	r28, r25
    2b20:	dd 27       	eor	r29, r29
    2b22:	88 23       	and	r24, r24
    2b24:	2a f0       	brmi	.+10     	; 0x2b30 <log+0x26>
    2b26:	21 97       	sbiw	r28, 0x01	; 1
    2b28:	66 0f       	add	r22, r22
    2b2a:	77 1f       	adc	r23, r23
    2b2c:	88 1f       	adc	r24, r24
    2b2e:	da f7       	brpl	.-10     	; 0x2b26 <log+0x1c>
    2b30:	20 e0       	ldi	r18, 0x00	; 0
    2b32:	30 e0       	ldi	r19, 0x00	; 0
    2b34:	40 e8       	ldi	r20, 0x80	; 128
    2b36:	5f eb       	ldi	r21, 0xBF	; 191
    2b38:	9f e3       	ldi	r25, 0x3F	; 63
    2b3a:	88 39       	cpi	r24, 0x98	; 152
    2b3c:	20 f0       	brcs	.+8      	; 0x2b46 <log+0x3c>
    2b3e:	80 3e       	cpi	r24, 0xE0	; 224
    2b40:	30 f0       	brcs	.+12     	; 0x2b4e <log+0x44>
    2b42:	21 96       	adiw	r28, 0x01	; 1
    2b44:	8f 77       	andi	r24, 0x7F	; 127
    2b46:	d5 dc       	rcall	.-1622   	; 0x24f2 <__addsf3>
    2b48:	e4 e2       	ldi	r30, 0x24	; 36
    2b4a:	f2 e0       	ldi	r31, 0x02	; 2
    2b4c:	03 c0       	rjmp	.+6      	; 0x2b54 <log+0x4a>
    2b4e:	d1 dc       	rcall	.-1630   	; 0x24f2 <__addsf3>
    2b50:	e1 e5       	ldi	r30, 0x51	; 81
    2b52:	f2 e0       	ldi	r31, 0x02	; 2
    2b54:	39 de       	rcall	.-910    	; 0x27c8 <__fp_powser>
    2b56:	8b 01       	movw	r16, r22
    2b58:	be 01       	movw	r22, r28
    2b5a:	ec 01       	movw	r28, r24
    2b5c:	fb 2e       	mov	r15, r27
    2b5e:	6f 57       	subi	r22, 0x7F	; 127
    2b60:	71 09       	sbc	r23, r1
    2b62:	75 95       	asr	r23
    2b64:	77 1f       	adc	r23, r23
    2b66:	88 0b       	sbc	r24, r24
    2b68:	99 0b       	sbc	r25, r25
    2b6a:	c6 dd       	rcall	.-1140   	; 0x26f8 <__floatsisf>
    2b6c:	28 e1       	ldi	r18, 0x18	; 24
    2b6e:	32 e7       	ldi	r19, 0x72	; 114
    2b70:	41 e3       	ldi	r20, 0x31	; 49
    2b72:	5f e3       	ldi	r21, 0x3F	; 63
    2b74:	ad de       	rcall	.-678    	; 0x28d0 <__mulsf3x>
    2b76:	af 2d       	mov	r26, r15
    2b78:	98 01       	movw	r18, r16
    2b7a:	ae 01       	movw	r20, r28
    2b7c:	ff 90       	pop	r15
    2b7e:	0f 91       	pop	r16
    2b80:	1f 91       	pop	r17
    2b82:	cf 91       	pop	r28
    2b84:	df 91       	pop	r29
    2b86:	c6 dc       	rcall	.-1652   	; 0x2514 <__addsf3x>
    2b88:	52 ce       	rjmp	.-860    	; 0x282e <__fp_round>

00002b8a <modf>:
    2b8a:	fa 01       	movw	r30, r20
    2b8c:	dc 01       	movw	r26, r24
    2b8e:	aa 0f       	add	r26, r26
    2b90:	bb 1f       	adc	r27, r27
    2b92:	9b 01       	movw	r18, r22
    2b94:	ac 01       	movw	r20, r24
    2b96:	bf 57       	subi	r27, 0x7F	; 127
    2b98:	28 f4       	brcc	.+10     	; 0x2ba4 <modf+0x1a>
    2b9a:	22 27       	eor	r18, r18
    2b9c:	33 27       	eor	r19, r19
    2b9e:	44 27       	eor	r20, r20
    2ba0:	50 78       	andi	r21, 0x80	; 128
    2ba2:	1f c0       	rjmp	.+62     	; 0x2be2 <modf+0x58>
    2ba4:	b7 51       	subi	r27, 0x17	; 23
    2ba6:	88 f4       	brcc	.+34     	; 0x2bca <modf+0x40>
    2ba8:	ab 2f       	mov	r26, r27
    2baa:	00 24       	eor	r0, r0
    2bac:	46 95       	lsr	r20
    2bae:	37 95       	ror	r19
    2bb0:	27 95       	ror	r18
    2bb2:	01 1c       	adc	r0, r1
    2bb4:	a3 95       	inc	r26
    2bb6:	d2 f3       	brmi	.-12     	; 0x2bac <modf+0x22>
    2bb8:	00 20       	and	r0, r0
    2bba:	69 f0       	breq	.+26     	; 0x2bd6 <modf+0x4c>
    2bbc:	22 0f       	add	r18, r18
    2bbe:	33 1f       	adc	r19, r19
    2bc0:	44 1f       	adc	r20, r20
    2bc2:	b3 95       	inc	r27
    2bc4:	da f3       	brmi	.-10     	; 0x2bbc <modf+0x32>
    2bc6:	0d d0       	rcall	.+26     	; 0x2be2 <modf+0x58>
    2bc8:	93 cc       	rjmp	.-1754   	; 0x24f0 <__subsf3>
    2bca:	61 30       	cpi	r22, 0x01	; 1
    2bcc:	71 05       	cpc	r23, r1
    2bce:	a0 e8       	ldi	r26, 0x80	; 128
    2bd0:	8a 07       	cpc	r24, r26
    2bd2:	b9 46       	sbci	r27, 0x69	; 105
    2bd4:	30 f4       	brcc	.+12     	; 0x2be2 <modf+0x58>
    2bd6:	9b 01       	movw	r18, r22
    2bd8:	ac 01       	movw	r20, r24
    2bda:	66 27       	eor	r22, r22
    2bdc:	77 27       	eor	r23, r23
    2bde:	88 27       	eor	r24, r24
    2be0:	90 78       	andi	r25, 0x80	; 128
    2be2:	30 96       	adiw	r30, 0x00	; 0
    2be4:	21 f0       	breq	.+8      	; 0x2bee <modf+0x64>
    2be6:	20 83       	st	Z, r18
    2be8:	31 83       	std	Z+1, r19	; 0x01
    2bea:	42 83       	std	Z+2, r20	; 0x02
    2bec:	53 83       	std	Z+3, r21	; 0x03
    2bee:	08 95       	ret

00002bf0 <__mulsi3>:
    2bf0:	db 01       	movw	r26, r22
    2bf2:	8f 93       	push	r24
    2bf4:	9f 93       	push	r25
    2bf6:	70 d0       	rcall	.+224    	; 0x2cd8 <__muluhisi3>
    2bf8:	bf 91       	pop	r27
    2bfa:	af 91       	pop	r26
    2bfc:	a2 9f       	mul	r26, r18
    2bfe:	80 0d       	add	r24, r0
    2c00:	91 1d       	adc	r25, r1
    2c02:	a3 9f       	mul	r26, r19
    2c04:	90 0d       	add	r25, r0
    2c06:	b2 9f       	mul	r27, r18
    2c08:	90 0d       	add	r25, r0
    2c0a:	11 24       	eor	r1, r1
    2c0c:	08 95       	ret

00002c0e <__udivmodhi4>:
    2c0e:	aa 1b       	sub	r26, r26
    2c10:	bb 1b       	sub	r27, r27
    2c12:	51 e1       	ldi	r21, 0x11	; 17
    2c14:	07 c0       	rjmp	.+14     	; 0x2c24 <__udivmodhi4_ep>

00002c16 <__udivmodhi4_loop>:
    2c16:	aa 1f       	adc	r26, r26
    2c18:	bb 1f       	adc	r27, r27
    2c1a:	a6 17       	cp	r26, r22
    2c1c:	b7 07       	cpc	r27, r23
    2c1e:	10 f0       	brcs	.+4      	; 0x2c24 <__udivmodhi4_ep>
    2c20:	a6 1b       	sub	r26, r22
    2c22:	b7 0b       	sbc	r27, r23

00002c24 <__udivmodhi4_ep>:
    2c24:	88 1f       	adc	r24, r24
    2c26:	99 1f       	adc	r25, r25
    2c28:	5a 95       	dec	r21
    2c2a:	a9 f7       	brne	.-22     	; 0x2c16 <__udivmodhi4_loop>
    2c2c:	80 95       	com	r24
    2c2e:	90 95       	com	r25
    2c30:	bc 01       	movw	r22, r24
    2c32:	cd 01       	movw	r24, r26
    2c34:	08 95       	ret

00002c36 <__divmodhi4>:
    2c36:	97 fb       	bst	r25, 7
    2c38:	07 2e       	mov	r0, r23
    2c3a:	16 f4       	brtc	.+4      	; 0x2c40 <__divmodhi4+0xa>
    2c3c:	00 94       	com	r0
    2c3e:	06 d0       	rcall	.+12     	; 0x2c4c <__divmodhi4_neg1>
    2c40:	77 fd       	sbrc	r23, 7
    2c42:	08 d0       	rcall	.+16     	; 0x2c54 <__divmodhi4_neg2>
    2c44:	e4 df       	rcall	.-56     	; 0x2c0e <__udivmodhi4>
    2c46:	07 fc       	sbrc	r0, 7
    2c48:	05 d0       	rcall	.+10     	; 0x2c54 <__divmodhi4_neg2>
    2c4a:	3e f4       	brtc	.+14     	; 0x2c5a <__divmodhi4_exit>

00002c4c <__divmodhi4_neg1>:
    2c4c:	90 95       	com	r25
    2c4e:	81 95       	neg	r24
    2c50:	9f 4f       	sbci	r25, 0xFF	; 255
    2c52:	08 95       	ret

00002c54 <__divmodhi4_neg2>:
    2c54:	70 95       	com	r23
    2c56:	61 95       	neg	r22
    2c58:	7f 4f       	sbci	r23, 0xFF	; 255

00002c5a <__divmodhi4_exit>:
    2c5a:	08 95       	ret

00002c5c <__udivmodsi4>:
    2c5c:	a1 e2       	ldi	r26, 0x21	; 33
    2c5e:	1a 2e       	mov	r1, r26
    2c60:	aa 1b       	sub	r26, r26
    2c62:	bb 1b       	sub	r27, r27
    2c64:	fd 01       	movw	r30, r26
    2c66:	0d c0       	rjmp	.+26     	; 0x2c82 <__udivmodsi4_ep>

00002c68 <__udivmodsi4_loop>:
    2c68:	aa 1f       	adc	r26, r26
    2c6a:	bb 1f       	adc	r27, r27
    2c6c:	ee 1f       	adc	r30, r30
    2c6e:	ff 1f       	adc	r31, r31
    2c70:	a2 17       	cp	r26, r18
    2c72:	b3 07       	cpc	r27, r19
    2c74:	e4 07       	cpc	r30, r20
    2c76:	f5 07       	cpc	r31, r21
    2c78:	20 f0       	brcs	.+8      	; 0x2c82 <__udivmodsi4_ep>
    2c7a:	a2 1b       	sub	r26, r18
    2c7c:	b3 0b       	sbc	r27, r19
    2c7e:	e4 0b       	sbc	r30, r20
    2c80:	f5 0b       	sbc	r31, r21

00002c82 <__udivmodsi4_ep>:
    2c82:	66 1f       	adc	r22, r22
    2c84:	77 1f       	adc	r23, r23
    2c86:	88 1f       	adc	r24, r24
    2c88:	99 1f       	adc	r25, r25
    2c8a:	1a 94       	dec	r1
    2c8c:	69 f7       	brne	.-38     	; 0x2c68 <__udivmodsi4_loop>
    2c8e:	60 95       	com	r22
    2c90:	70 95       	com	r23
    2c92:	80 95       	com	r24
    2c94:	90 95       	com	r25
    2c96:	9b 01       	movw	r18, r22
    2c98:	ac 01       	movw	r20, r24
    2c9a:	bd 01       	movw	r22, r26
    2c9c:	cf 01       	movw	r24, r30
    2c9e:	08 95       	ret

00002ca0 <__divmodsi4>:
    2ca0:	05 2e       	mov	r0, r21
    2ca2:	97 fb       	bst	r25, 7
    2ca4:	16 f4       	brtc	.+4      	; 0x2caa <__divmodsi4+0xa>
    2ca6:	00 94       	com	r0
    2ca8:	0f d0       	rcall	.+30     	; 0x2cc8 <__negsi2>
    2caa:	57 fd       	sbrc	r21, 7
    2cac:	05 d0       	rcall	.+10     	; 0x2cb8 <__divmodsi4_neg2>
    2cae:	d6 df       	rcall	.-84     	; 0x2c5c <__udivmodsi4>
    2cb0:	07 fc       	sbrc	r0, 7
    2cb2:	02 d0       	rcall	.+4      	; 0x2cb8 <__divmodsi4_neg2>
    2cb4:	46 f4       	brtc	.+16     	; 0x2cc6 <__divmodsi4_exit>
    2cb6:	08 c0       	rjmp	.+16     	; 0x2cc8 <__negsi2>

00002cb8 <__divmodsi4_neg2>:
    2cb8:	50 95       	com	r21
    2cba:	40 95       	com	r20
    2cbc:	30 95       	com	r19
    2cbe:	21 95       	neg	r18
    2cc0:	3f 4f       	sbci	r19, 0xFF	; 255
    2cc2:	4f 4f       	sbci	r20, 0xFF	; 255
    2cc4:	5f 4f       	sbci	r21, 0xFF	; 255

00002cc6 <__divmodsi4_exit>:
    2cc6:	08 95       	ret

00002cc8 <__negsi2>:
    2cc8:	90 95       	com	r25
    2cca:	80 95       	com	r24
    2ccc:	70 95       	com	r23
    2cce:	61 95       	neg	r22
    2cd0:	7f 4f       	sbci	r23, 0xFF	; 255
    2cd2:	8f 4f       	sbci	r24, 0xFF	; 255
    2cd4:	9f 4f       	sbci	r25, 0xFF	; 255
    2cd6:	08 95       	ret

00002cd8 <__muluhisi3>:
    2cd8:	0f d0       	rcall	.+30     	; 0x2cf8 <__umulhisi3>
    2cda:	a5 9f       	mul	r26, r21
    2cdc:	90 0d       	add	r25, r0
    2cde:	b4 9f       	mul	r27, r20
    2ce0:	90 0d       	add	r25, r0
    2ce2:	a4 9f       	mul	r26, r20
    2ce4:	80 0d       	add	r24, r0
    2ce6:	91 1d       	adc	r25, r1
    2ce8:	11 24       	eor	r1, r1
    2cea:	08 95       	ret

00002cec <__mulshisi3>:
    2cec:	b7 ff       	sbrs	r27, 7
    2cee:	f4 cf       	rjmp	.-24     	; 0x2cd8 <__muluhisi3>

00002cf0 <__mulohisi3>:
    2cf0:	f3 df       	rcall	.-26     	; 0x2cd8 <__muluhisi3>
    2cf2:	82 1b       	sub	r24, r18
    2cf4:	93 0b       	sbc	r25, r19
    2cf6:	08 95       	ret

00002cf8 <__umulhisi3>:
    2cf8:	a2 9f       	mul	r26, r18
    2cfa:	b0 01       	movw	r22, r0
    2cfc:	b3 9f       	mul	r27, r19
    2cfe:	c0 01       	movw	r24, r0
    2d00:	a3 9f       	mul	r26, r19
    2d02:	70 0d       	add	r23, r0
    2d04:	81 1d       	adc	r24, r1
    2d06:	11 24       	eor	r1, r1
    2d08:	91 1d       	adc	r25, r1
    2d0a:	b2 9f       	mul	r27, r18
    2d0c:	70 0d       	add	r23, r0
    2d0e:	81 1d       	adc	r24, r1
    2d10:	11 24       	eor	r1, r1
    2d12:	91 1d       	adc	r25, r1
    2d14:	08 95       	ret

00002d16 <fdevopen>:
    2d16:	0f 93       	push	r16
    2d18:	1f 93       	push	r17
    2d1a:	cf 93       	push	r28
    2d1c:	df 93       	push	r29
    2d1e:	00 97       	sbiw	r24, 0x00	; 0
    2d20:	31 f4       	brne	.+12     	; 0x2d2e <fdevopen+0x18>
    2d22:	61 15       	cp	r22, r1
    2d24:	71 05       	cpc	r23, r1
    2d26:	19 f4       	brne	.+6      	; 0x2d2e <fdevopen+0x18>
    2d28:	80 e0       	ldi	r24, 0x00	; 0
    2d2a:	90 e0       	ldi	r25, 0x00	; 0
    2d2c:	39 c0       	rjmp	.+114    	; 0x2da0 <fdevopen+0x8a>
    2d2e:	8b 01       	movw	r16, r22
    2d30:	ec 01       	movw	r28, r24
    2d32:	6e e0       	ldi	r22, 0x0E	; 14
    2d34:	70 e0       	ldi	r23, 0x00	; 0
    2d36:	81 e0       	ldi	r24, 0x01	; 1
    2d38:	90 e0       	ldi	r25, 0x00	; 0
    2d3a:	47 d5       	rcall	.+2702   	; 0x37ca <calloc>
    2d3c:	fc 01       	movw	r30, r24
    2d3e:	89 2b       	or	r24, r25
    2d40:	99 f3       	breq	.-26     	; 0x2d28 <fdevopen+0x12>
    2d42:	80 e8       	ldi	r24, 0x80	; 128
    2d44:	83 83       	std	Z+3, r24	; 0x03
    2d46:	01 15       	cp	r16, r1
    2d48:	11 05       	cpc	r17, r1
    2d4a:	71 f0       	breq	.+28     	; 0x2d68 <fdevopen+0x52>
    2d4c:	02 87       	std	Z+10, r16	; 0x0a
    2d4e:	13 87       	std	Z+11, r17	; 0x0b
    2d50:	81 e8       	ldi	r24, 0x81	; 129
    2d52:	83 83       	std	Z+3, r24	; 0x03
    2d54:	80 91 86 21 	lds	r24, 0x2186	; 0x802186 <__iob>
    2d58:	90 91 87 21 	lds	r25, 0x2187	; 0x802187 <__iob+0x1>
    2d5c:	89 2b       	or	r24, r25
    2d5e:	21 f4       	brne	.+8      	; 0x2d68 <fdevopen+0x52>
    2d60:	e0 93 86 21 	sts	0x2186, r30	; 0x802186 <__iob>
    2d64:	f0 93 87 21 	sts	0x2187, r31	; 0x802187 <__iob+0x1>
    2d68:	20 97       	sbiw	r28, 0x00	; 0
    2d6a:	c9 f0       	breq	.+50     	; 0x2d9e <fdevopen+0x88>
    2d6c:	c0 87       	std	Z+8, r28	; 0x08
    2d6e:	d1 87       	std	Z+9, r29	; 0x09
    2d70:	83 81       	ldd	r24, Z+3	; 0x03
    2d72:	82 60       	ori	r24, 0x02	; 2
    2d74:	83 83       	std	Z+3, r24	; 0x03
    2d76:	80 91 88 21 	lds	r24, 0x2188	; 0x802188 <__iob+0x2>
    2d7a:	90 91 89 21 	lds	r25, 0x2189	; 0x802189 <__iob+0x3>
    2d7e:	89 2b       	or	r24, r25
    2d80:	71 f4       	brne	.+28     	; 0x2d9e <fdevopen+0x88>
    2d82:	e0 93 88 21 	sts	0x2188, r30	; 0x802188 <__iob+0x2>
    2d86:	f0 93 89 21 	sts	0x2189, r31	; 0x802189 <__iob+0x3>
    2d8a:	80 91 8a 21 	lds	r24, 0x218A	; 0x80218a <__iob+0x4>
    2d8e:	90 91 8b 21 	lds	r25, 0x218B	; 0x80218b <__iob+0x5>
    2d92:	89 2b       	or	r24, r25
    2d94:	21 f4       	brne	.+8      	; 0x2d9e <fdevopen+0x88>
    2d96:	e0 93 8a 21 	sts	0x218A, r30	; 0x80218a <__iob+0x4>
    2d9a:	f0 93 8b 21 	sts	0x218B, r31	; 0x80218b <__iob+0x5>
    2d9e:	cf 01       	movw	r24, r30
    2da0:	df 91       	pop	r29
    2da2:	cf 91       	pop	r28
    2da4:	1f 91       	pop	r17
    2da6:	0f 91       	pop	r16
    2da8:	08 95       	ret

00002daa <printf>:
    2daa:	cf 93       	push	r28
    2dac:	df 93       	push	r29
    2dae:	cd b7       	in	r28, 0x3d	; 61
    2db0:	de b7       	in	r29, 0x3e	; 62
    2db2:	ae 01       	movw	r20, r28
    2db4:	4a 5f       	subi	r20, 0xFA	; 250
    2db6:	5f 4f       	sbci	r21, 0xFF	; 255
    2db8:	fa 01       	movw	r30, r20
    2dba:	61 91       	ld	r22, Z+
    2dbc:	71 91       	ld	r23, Z+
    2dbe:	af 01       	movw	r20, r30
    2dc0:	80 91 88 21 	lds	r24, 0x2188	; 0x802188 <__iob+0x2>
    2dc4:	90 91 89 21 	lds	r25, 0x2189	; 0x802189 <__iob+0x3>
    2dc8:	46 d0       	rcall	.+140    	; 0x2e56 <vfprintf>
    2dca:	df 91       	pop	r29
    2dcc:	cf 91       	pop	r28
    2dce:	08 95       	ret

00002dd0 <sprintf>:
    2dd0:	0f 93       	push	r16
    2dd2:	1f 93       	push	r17
    2dd4:	cf 93       	push	r28
    2dd6:	df 93       	push	r29
    2dd8:	cd b7       	in	r28, 0x3d	; 61
    2dda:	de b7       	in	r29, 0x3e	; 62
    2ddc:	2e 97       	sbiw	r28, 0x0e	; 14
    2dde:	cd bf       	out	0x3d, r28	; 61
    2de0:	de bf       	out	0x3e, r29	; 62
    2de2:	0e 89       	ldd	r16, Y+22	; 0x16
    2de4:	1f 89       	ldd	r17, Y+23	; 0x17
    2de6:	86 e0       	ldi	r24, 0x06	; 6
    2de8:	8c 83       	std	Y+4, r24	; 0x04
    2dea:	09 83       	std	Y+1, r16	; 0x01
    2dec:	1a 83       	std	Y+2, r17	; 0x02
    2dee:	8f ef       	ldi	r24, 0xFF	; 255
    2df0:	9f e7       	ldi	r25, 0x7F	; 127
    2df2:	8d 83       	std	Y+5, r24	; 0x05
    2df4:	9e 83       	std	Y+6, r25	; 0x06
    2df6:	ae 01       	movw	r20, r28
    2df8:	46 5e       	subi	r20, 0xE6	; 230
    2dfa:	5f 4f       	sbci	r21, 0xFF	; 255
    2dfc:	68 8d       	ldd	r22, Y+24	; 0x18
    2dfe:	79 8d       	ldd	r23, Y+25	; 0x19
    2e00:	ce 01       	movw	r24, r28
    2e02:	01 96       	adiw	r24, 0x01	; 1
    2e04:	28 d0       	rcall	.+80     	; 0x2e56 <vfprintf>
    2e06:	ef 81       	ldd	r30, Y+7	; 0x07
    2e08:	f8 85       	ldd	r31, Y+8	; 0x08
    2e0a:	e0 0f       	add	r30, r16
    2e0c:	f1 1f       	adc	r31, r17
    2e0e:	10 82       	st	Z, r1
    2e10:	2e 96       	adiw	r28, 0x0e	; 14
    2e12:	cd bf       	out	0x3d, r28	; 61
    2e14:	de bf       	out	0x3e, r29	; 62
    2e16:	df 91       	pop	r29
    2e18:	cf 91       	pop	r28
    2e1a:	1f 91       	pop	r17
    2e1c:	0f 91       	pop	r16
    2e1e:	08 95       	ret

00002e20 <sscanf>:
    2e20:	cf 93       	push	r28
    2e22:	df 93       	push	r29
    2e24:	cd b7       	in	r28, 0x3d	; 61
    2e26:	de b7       	in	r29, 0x3e	; 62
    2e28:	2e 97       	sbiw	r28, 0x0e	; 14
    2e2a:	cd bf       	out	0x3d, r28	; 61
    2e2c:	de bf       	out	0x3e, r29	; 62
    2e2e:	85 e0       	ldi	r24, 0x05	; 5
    2e30:	8c 83       	std	Y+4, r24	; 0x04
    2e32:	8c 89       	ldd	r24, Y+20	; 0x14
    2e34:	9d 89       	ldd	r25, Y+21	; 0x15
    2e36:	89 83       	std	Y+1, r24	; 0x01
    2e38:	9a 83       	std	Y+2, r25	; 0x02
    2e3a:	ae 01       	movw	r20, r28
    2e3c:	48 5e       	subi	r20, 0xE8	; 232
    2e3e:	5f 4f       	sbci	r21, 0xFF	; 255
    2e40:	6e 89       	ldd	r22, Y+22	; 0x16
    2e42:	7f 89       	ldd	r23, Y+23	; 0x17
    2e44:	ce 01       	movw	r24, r28
    2e46:	01 96       	adiw	r24, 0x01	; 1
    2e48:	a9 d3       	rcall	.+1874   	; 0x359c <vfscanf>
    2e4a:	2e 96       	adiw	r28, 0x0e	; 14
    2e4c:	cd bf       	out	0x3d, r28	; 61
    2e4e:	de bf       	out	0x3e, r29	; 62
    2e50:	df 91       	pop	r29
    2e52:	cf 91       	pop	r28
    2e54:	08 95       	ret

00002e56 <vfprintf>:
    2e56:	2f 92       	push	r2
    2e58:	3f 92       	push	r3
    2e5a:	4f 92       	push	r4
    2e5c:	5f 92       	push	r5
    2e5e:	6f 92       	push	r6
    2e60:	7f 92       	push	r7
    2e62:	8f 92       	push	r8
    2e64:	9f 92       	push	r9
    2e66:	af 92       	push	r10
    2e68:	bf 92       	push	r11
    2e6a:	cf 92       	push	r12
    2e6c:	df 92       	push	r13
    2e6e:	ef 92       	push	r14
    2e70:	ff 92       	push	r15
    2e72:	0f 93       	push	r16
    2e74:	1f 93       	push	r17
    2e76:	cf 93       	push	r28
    2e78:	df 93       	push	r29
    2e7a:	cd b7       	in	r28, 0x3d	; 61
    2e7c:	de b7       	in	r29, 0x3e	; 62
    2e7e:	2b 97       	sbiw	r28, 0x0b	; 11
    2e80:	cd bf       	out	0x3d, r28	; 61
    2e82:	de bf       	out	0x3e, r29	; 62
    2e84:	6c 01       	movw	r12, r24
    2e86:	7b 01       	movw	r14, r22
    2e88:	8a 01       	movw	r16, r20
    2e8a:	fc 01       	movw	r30, r24
    2e8c:	16 82       	std	Z+6, r1	; 0x06
    2e8e:	17 82       	std	Z+7, r1	; 0x07
    2e90:	83 81       	ldd	r24, Z+3	; 0x03
    2e92:	81 ff       	sbrs	r24, 1
    2e94:	bf c1       	rjmp	.+894    	; 0x3214 <vfprintf+0x3be>
    2e96:	ce 01       	movw	r24, r28
    2e98:	01 96       	adiw	r24, 0x01	; 1
    2e9a:	3c 01       	movw	r6, r24
    2e9c:	f6 01       	movw	r30, r12
    2e9e:	93 81       	ldd	r25, Z+3	; 0x03
    2ea0:	f7 01       	movw	r30, r14
    2ea2:	93 fd       	sbrc	r25, 3
    2ea4:	85 91       	lpm	r24, Z+
    2ea6:	93 ff       	sbrs	r25, 3
    2ea8:	81 91       	ld	r24, Z+
    2eaa:	7f 01       	movw	r14, r30
    2eac:	88 23       	and	r24, r24
    2eae:	09 f4       	brne	.+2      	; 0x2eb2 <vfprintf+0x5c>
    2eb0:	ad c1       	rjmp	.+858    	; 0x320c <vfprintf+0x3b6>
    2eb2:	85 32       	cpi	r24, 0x25	; 37
    2eb4:	39 f4       	brne	.+14     	; 0x2ec4 <vfprintf+0x6e>
    2eb6:	93 fd       	sbrc	r25, 3
    2eb8:	85 91       	lpm	r24, Z+
    2eba:	93 ff       	sbrs	r25, 3
    2ebc:	81 91       	ld	r24, Z+
    2ebe:	7f 01       	movw	r14, r30
    2ec0:	85 32       	cpi	r24, 0x25	; 37
    2ec2:	21 f4       	brne	.+8      	; 0x2ecc <vfprintf+0x76>
    2ec4:	b6 01       	movw	r22, r12
    2ec6:	90 e0       	ldi	r25, 0x00	; 0
    2ec8:	29 d6       	rcall	.+3154   	; 0x3b1c <fputc>
    2eca:	e8 cf       	rjmp	.-48     	; 0x2e9c <vfprintf+0x46>
    2ecc:	91 2c       	mov	r9, r1
    2ece:	21 2c       	mov	r2, r1
    2ed0:	31 2c       	mov	r3, r1
    2ed2:	ff e1       	ldi	r31, 0x1F	; 31
    2ed4:	f3 15       	cp	r31, r3
    2ed6:	d8 f0       	brcs	.+54     	; 0x2f0e <vfprintf+0xb8>
    2ed8:	8b 32       	cpi	r24, 0x2B	; 43
    2eda:	79 f0       	breq	.+30     	; 0x2efa <vfprintf+0xa4>
    2edc:	38 f4       	brcc	.+14     	; 0x2eec <vfprintf+0x96>
    2ede:	80 32       	cpi	r24, 0x20	; 32
    2ee0:	79 f0       	breq	.+30     	; 0x2f00 <vfprintf+0xaa>
    2ee2:	83 32       	cpi	r24, 0x23	; 35
    2ee4:	a1 f4       	brne	.+40     	; 0x2f0e <vfprintf+0xb8>
    2ee6:	23 2d       	mov	r18, r3
    2ee8:	20 61       	ori	r18, 0x10	; 16
    2eea:	1d c0       	rjmp	.+58     	; 0x2f26 <vfprintf+0xd0>
    2eec:	8d 32       	cpi	r24, 0x2D	; 45
    2eee:	61 f0       	breq	.+24     	; 0x2f08 <vfprintf+0xb2>
    2ef0:	80 33       	cpi	r24, 0x30	; 48
    2ef2:	69 f4       	brne	.+26     	; 0x2f0e <vfprintf+0xb8>
    2ef4:	23 2d       	mov	r18, r3
    2ef6:	21 60       	ori	r18, 0x01	; 1
    2ef8:	16 c0       	rjmp	.+44     	; 0x2f26 <vfprintf+0xd0>
    2efa:	83 2d       	mov	r24, r3
    2efc:	82 60       	ori	r24, 0x02	; 2
    2efe:	38 2e       	mov	r3, r24
    2f00:	e3 2d       	mov	r30, r3
    2f02:	e4 60       	ori	r30, 0x04	; 4
    2f04:	3e 2e       	mov	r3, r30
    2f06:	2a c0       	rjmp	.+84     	; 0x2f5c <vfprintf+0x106>
    2f08:	f3 2d       	mov	r31, r3
    2f0a:	f8 60       	ori	r31, 0x08	; 8
    2f0c:	1d c0       	rjmp	.+58     	; 0x2f48 <vfprintf+0xf2>
    2f0e:	37 fc       	sbrc	r3, 7
    2f10:	2d c0       	rjmp	.+90     	; 0x2f6c <vfprintf+0x116>
    2f12:	20 ed       	ldi	r18, 0xD0	; 208
    2f14:	28 0f       	add	r18, r24
    2f16:	2a 30       	cpi	r18, 0x0A	; 10
    2f18:	40 f0       	brcs	.+16     	; 0x2f2a <vfprintf+0xd4>
    2f1a:	8e 32       	cpi	r24, 0x2E	; 46
    2f1c:	b9 f4       	brne	.+46     	; 0x2f4c <vfprintf+0xf6>
    2f1e:	36 fc       	sbrc	r3, 6
    2f20:	75 c1       	rjmp	.+746    	; 0x320c <vfprintf+0x3b6>
    2f22:	23 2d       	mov	r18, r3
    2f24:	20 64       	ori	r18, 0x40	; 64
    2f26:	32 2e       	mov	r3, r18
    2f28:	19 c0       	rjmp	.+50     	; 0x2f5c <vfprintf+0x106>
    2f2a:	36 fe       	sbrs	r3, 6
    2f2c:	06 c0       	rjmp	.+12     	; 0x2f3a <vfprintf+0xe4>
    2f2e:	8a e0       	ldi	r24, 0x0A	; 10
    2f30:	98 9e       	mul	r9, r24
    2f32:	20 0d       	add	r18, r0
    2f34:	11 24       	eor	r1, r1
    2f36:	92 2e       	mov	r9, r18
    2f38:	11 c0       	rjmp	.+34     	; 0x2f5c <vfprintf+0x106>
    2f3a:	ea e0       	ldi	r30, 0x0A	; 10
    2f3c:	2e 9e       	mul	r2, r30
    2f3e:	20 0d       	add	r18, r0
    2f40:	11 24       	eor	r1, r1
    2f42:	22 2e       	mov	r2, r18
    2f44:	f3 2d       	mov	r31, r3
    2f46:	f0 62       	ori	r31, 0x20	; 32
    2f48:	3f 2e       	mov	r3, r31
    2f4a:	08 c0       	rjmp	.+16     	; 0x2f5c <vfprintf+0x106>
    2f4c:	8c 36       	cpi	r24, 0x6C	; 108
    2f4e:	21 f4       	brne	.+8      	; 0x2f58 <vfprintf+0x102>
    2f50:	83 2d       	mov	r24, r3
    2f52:	80 68       	ori	r24, 0x80	; 128
    2f54:	38 2e       	mov	r3, r24
    2f56:	02 c0       	rjmp	.+4      	; 0x2f5c <vfprintf+0x106>
    2f58:	88 36       	cpi	r24, 0x68	; 104
    2f5a:	41 f4       	brne	.+16     	; 0x2f6c <vfprintf+0x116>
    2f5c:	f7 01       	movw	r30, r14
    2f5e:	93 fd       	sbrc	r25, 3
    2f60:	85 91       	lpm	r24, Z+
    2f62:	93 ff       	sbrs	r25, 3
    2f64:	81 91       	ld	r24, Z+
    2f66:	7f 01       	movw	r14, r30
    2f68:	81 11       	cpse	r24, r1
    2f6a:	b3 cf       	rjmp	.-154    	; 0x2ed2 <vfprintf+0x7c>
    2f6c:	98 2f       	mov	r25, r24
    2f6e:	9f 7d       	andi	r25, 0xDF	; 223
    2f70:	95 54       	subi	r25, 0x45	; 69
    2f72:	93 30       	cpi	r25, 0x03	; 3
    2f74:	28 f4       	brcc	.+10     	; 0x2f80 <vfprintf+0x12a>
    2f76:	0c 5f       	subi	r16, 0xFC	; 252
    2f78:	1f 4f       	sbci	r17, 0xFF	; 255
    2f7a:	9f e3       	ldi	r25, 0x3F	; 63
    2f7c:	99 83       	std	Y+1, r25	; 0x01
    2f7e:	0d c0       	rjmp	.+26     	; 0x2f9a <vfprintf+0x144>
    2f80:	83 36       	cpi	r24, 0x63	; 99
    2f82:	31 f0       	breq	.+12     	; 0x2f90 <vfprintf+0x13a>
    2f84:	83 37       	cpi	r24, 0x73	; 115
    2f86:	71 f0       	breq	.+28     	; 0x2fa4 <vfprintf+0x14e>
    2f88:	83 35       	cpi	r24, 0x53	; 83
    2f8a:	09 f0       	breq	.+2      	; 0x2f8e <vfprintf+0x138>
    2f8c:	55 c0       	rjmp	.+170    	; 0x3038 <vfprintf+0x1e2>
    2f8e:	20 c0       	rjmp	.+64     	; 0x2fd0 <vfprintf+0x17a>
    2f90:	f8 01       	movw	r30, r16
    2f92:	80 81       	ld	r24, Z
    2f94:	89 83       	std	Y+1, r24	; 0x01
    2f96:	0e 5f       	subi	r16, 0xFE	; 254
    2f98:	1f 4f       	sbci	r17, 0xFF	; 255
    2f9a:	88 24       	eor	r8, r8
    2f9c:	83 94       	inc	r8
    2f9e:	91 2c       	mov	r9, r1
    2fa0:	53 01       	movw	r10, r6
    2fa2:	12 c0       	rjmp	.+36     	; 0x2fc8 <vfprintf+0x172>
    2fa4:	28 01       	movw	r4, r16
    2fa6:	f2 e0       	ldi	r31, 0x02	; 2
    2fa8:	4f 0e       	add	r4, r31
    2faa:	51 1c       	adc	r5, r1
    2fac:	f8 01       	movw	r30, r16
    2fae:	a0 80       	ld	r10, Z
    2fb0:	b1 80       	ldd	r11, Z+1	; 0x01
    2fb2:	36 fe       	sbrs	r3, 6
    2fb4:	03 c0       	rjmp	.+6      	; 0x2fbc <vfprintf+0x166>
    2fb6:	69 2d       	mov	r22, r9
    2fb8:	70 e0       	ldi	r23, 0x00	; 0
    2fba:	02 c0       	rjmp	.+4      	; 0x2fc0 <vfprintf+0x16a>
    2fbc:	6f ef       	ldi	r22, 0xFF	; 255
    2fbe:	7f ef       	ldi	r23, 0xFF	; 255
    2fc0:	c5 01       	movw	r24, r10
    2fc2:	63 d5       	rcall	.+2758   	; 0x3a8a <strnlen>
    2fc4:	4c 01       	movw	r8, r24
    2fc6:	82 01       	movw	r16, r4
    2fc8:	f3 2d       	mov	r31, r3
    2fca:	ff 77       	andi	r31, 0x7F	; 127
    2fcc:	3f 2e       	mov	r3, r31
    2fce:	15 c0       	rjmp	.+42     	; 0x2ffa <vfprintf+0x1a4>
    2fd0:	28 01       	movw	r4, r16
    2fd2:	22 e0       	ldi	r18, 0x02	; 2
    2fd4:	42 0e       	add	r4, r18
    2fd6:	51 1c       	adc	r5, r1
    2fd8:	f8 01       	movw	r30, r16
    2fda:	a0 80       	ld	r10, Z
    2fdc:	b1 80       	ldd	r11, Z+1	; 0x01
    2fde:	36 fe       	sbrs	r3, 6
    2fe0:	03 c0       	rjmp	.+6      	; 0x2fe8 <vfprintf+0x192>
    2fe2:	69 2d       	mov	r22, r9
    2fe4:	70 e0       	ldi	r23, 0x00	; 0
    2fe6:	02 c0       	rjmp	.+4      	; 0x2fec <vfprintf+0x196>
    2fe8:	6f ef       	ldi	r22, 0xFF	; 255
    2fea:	7f ef       	ldi	r23, 0xFF	; 255
    2fec:	c5 01       	movw	r24, r10
    2fee:	3b d5       	rcall	.+2678   	; 0x3a66 <strnlen_P>
    2ff0:	4c 01       	movw	r8, r24
    2ff2:	f3 2d       	mov	r31, r3
    2ff4:	f0 68       	ori	r31, 0x80	; 128
    2ff6:	3f 2e       	mov	r3, r31
    2ff8:	82 01       	movw	r16, r4
    2ffa:	33 fc       	sbrc	r3, 3
    2ffc:	19 c0       	rjmp	.+50     	; 0x3030 <vfprintf+0x1da>
    2ffe:	82 2d       	mov	r24, r2
    3000:	90 e0       	ldi	r25, 0x00	; 0
    3002:	88 16       	cp	r8, r24
    3004:	99 06       	cpc	r9, r25
    3006:	a0 f4       	brcc	.+40     	; 0x3030 <vfprintf+0x1da>
    3008:	b6 01       	movw	r22, r12
    300a:	80 e2       	ldi	r24, 0x20	; 32
    300c:	90 e0       	ldi	r25, 0x00	; 0
    300e:	86 d5       	rcall	.+2828   	; 0x3b1c <fputc>
    3010:	2a 94       	dec	r2
    3012:	f5 cf       	rjmp	.-22     	; 0x2ffe <vfprintf+0x1a8>
    3014:	f5 01       	movw	r30, r10
    3016:	37 fc       	sbrc	r3, 7
    3018:	85 91       	lpm	r24, Z+
    301a:	37 fe       	sbrs	r3, 7
    301c:	81 91       	ld	r24, Z+
    301e:	5f 01       	movw	r10, r30
    3020:	b6 01       	movw	r22, r12
    3022:	90 e0       	ldi	r25, 0x00	; 0
    3024:	7b d5       	rcall	.+2806   	; 0x3b1c <fputc>
    3026:	21 10       	cpse	r2, r1
    3028:	2a 94       	dec	r2
    302a:	21 e0       	ldi	r18, 0x01	; 1
    302c:	82 1a       	sub	r8, r18
    302e:	91 08       	sbc	r9, r1
    3030:	81 14       	cp	r8, r1
    3032:	91 04       	cpc	r9, r1
    3034:	79 f7       	brne	.-34     	; 0x3014 <vfprintf+0x1be>
    3036:	e1 c0       	rjmp	.+450    	; 0x31fa <vfprintf+0x3a4>
    3038:	84 36       	cpi	r24, 0x64	; 100
    303a:	11 f0       	breq	.+4      	; 0x3040 <vfprintf+0x1ea>
    303c:	89 36       	cpi	r24, 0x69	; 105
    303e:	39 f5       	brne	.+78     	; 0x308e <vfprintf+0x238>
    3040:	f8 01       	movw	r30, r16
    3042:	37 fe       	sbrs	r3, 7
    3044:	07 c0       	rjmp	.+14     	; 0x3054 <vfprintf+0x1fe>
    3046:	60 81       	ld	r22, Z
    3048:	71 81       	ldd	r23, Z+1	; 0x01
    304a:	82 81       	ldd	r24, Z+2	; 0x02
    304c:	93 81       	ldd	r25, Z+3	; 0x03
    304e:	0c 5f       	subi	r16, 0xFC	; 252
    3050:	1f 4f       	sbci	r17, 0xFF	; 255
    3052:	08 c0       	rjmp	.+16     	; 0x3064 <vfprintf+0x20e>
    3054:	60 81       	ld	r22, Z
    3056:	71 81       	ldd	r23, Z+1	; 0x01
    3058:	07 2e       	mov	r0, r23
    305a:	00 0c       	add	r0, r0
    305c:	88 0b       	sbc	r24, r24
    305e:	99 0b       	sbc	r25, r25
    3060:	0e 5f       	subi	r16, 0xFE	; 254
    3062:	1f 4f       	sbci	r17, 0xFF	; 255
    3064:	f3 2d       	mov	r31, r3
    3066:	ff 76       	andi	r31, 0x6F	; 111
    3068:	3f 2e       	mov	r3, r31
    306a:	97 ff       	sbrs	r25, 7
    306c:	09 c0       	rjmp	.+18     	; 0x3080 <vfprintf+0x22a>
    306e:	90 95       	com	r25
    3070:	80 95       	com	r24
    3072:	70 95       	com	r23
    3074:	61 95       	neg	r22
    3076:	7f 4f       	sbci	r23, 0xFF	; 255
    3078:	8f 4f       	sbci	r24, 0xFF	; 255
    307a:	9f 4f       	sbci	r25, 0xFF	; 255
    307c:	f0 68       	ori	r31, 0x80	; 128
    307e:	3f 2e       	mov	r3, r31
    3080:	2a e0       	ldi	r18, 0x0A	; 10
    3082:	30 e0       	ldi	r19, 0x00	; 0
    3084:	a3 01       	movw	r20, r6
    3086:	9f d5       	rcall	.+2878   	; 0x3bc6 <__ultoa_invert>
    3088:	88 2e       	mov	r8, r24
    308a:	86 18       	sub	r8, r6
    308c:	44 c0       	rjmp	.+136    	; 0x3116 <vfprintf+0x2c0>
    308e:	85 37       	cpi	r24, 0x75	; 117
    3090:	31 f4       	brne	.+12     	; 0x309e <vfprintf+0x248>
    3092:	23 2d       	mov	r18, r3
    3094:	2f 7e       	andi	r18, 0xEF	; 239
    3096:	b2 2e       	mov	r11, r18
    3098:	2a e0       	ldi	r18, 0x0A	; 10
    309a:	30 e0       	ldi	r19, 0x00	; 0
    309c:	25 c0       	rjmp	.+74     	; 0x30e8 <vfprintf+0x292>
    309e:	93 2d       	mov	r25, r3
    30a0:	99 7f       	andi	r25, 0xF9	; 249
    30a2:	b9 2e       	mov	r11, r25
    30a4:	8f 36       	cpi	r24, 0x6F	; 111
    30a6:	c1 f0       	breq	.+48     	; 0x30d8 <vfprintf+0x282>
    30a8:	18 f4       	brcc	.+6      	; 0x30b0 <vfprintf+0x25a>
    30aa:	88 35       	cpi	r24, 0x58	; 88
    30ac:	79 f0       	breq	.+30     	; 0x30cc <vfprintf+0x276>
    30ae:	ae c0       	rjmp	.+348    	; 0x320c <vfprintf+0x3b6>
    30b0:	80 37       	cpi	r24, 0x70	; 112
    30b2:	19 f0       	breq	.+6      	; 0x30ba <vfprintf+0x264>
    30b4:	88 37       	cpi	r24, 0x78	; 120
    30b6:	21 f0       	breq	.+8      	; 0x30c0 <vfprintf+0x26a>
    30b8:	a9 c0       	rjmp	.+338    	; 0x320c <vfprintf+0x3b6>
    30ba:	e9 2f       	mov	r30, r25
    30bc:	e0 61       	ori	r30, 0x10	; 16
    30be:	be 2e       	mov	r11, r30
    30c0:	b4 fe       	sbrs	r11, 4
    30c2:	0d c0       	rjmp	.+26     	; 0x30de <vfprintf+0x288>
    30c4:	fb 2d       	mov	r31, r11
    30c6:	f4 60       	ori	r31, 0x04	; 4
    30c8:	bf 2e       	mov	r11, r31
    30ca:	09 c0       	rjmp	.+18     	; 0x30de <vfprintf+0x288>
    30cc:	34 fe       	sbrs	r3, 4
    30ce:	0a c0       	rjmp	.+20     	; 0x30e4 <vfprintf+0x28e>
    30d0:	29 2f       	mov	r18, r25
    30d2:	26 60       	ori	r18, 0x06	; 6
    30d4:	b2 2e       	mov	r11, r18
    30d6:	06 c0       	rjmp	.+12     	; 0x30e4 <vfprintf+0x28e>
    30d8:	28 e0       	ldi	r18, 0x08	; 8
    30da:	30 e0       	ldi	r19, 0x00	; 0
    30dc:	05 c0       	rjmp	.+10     	; 0x30e8 <vfprintf+0x292>
    30de:	20 e1       	ldi	r18, 0x10	; 16
    30e0:	30 e0       	ldi	r19, 0x00	; 0
    30e2:	02 c0       	rjmp	.+4      	; 0x30e8 <vfprintf+0x292>
    30e4:	20 e1       	ldi	r18, 0x10	; 16
    30e6:	32 e0       	ldi	r19, 0x02	; 2
    30e8:	f8 01       	movw	r30, r16
    30ea:	b7 fe       	sbrs	r11, 7
    30ec:	07 c0       	rjmp	.+14     	; 0x30fc <vfprintf+0x2a6>
    30ee:	60 81       	ld	r22, Z
    30f0:	71 81       	ldd	r23, Z+1	; 0x01
    30f2:	82 81       	ldd	r24, Z+2	; 0x02
    30f4:	93 81       	ldd	r25, Z+3	; 0x03
    30f6:	0c 5f       	subi	r16, 0xFC	; 252
    30f8:	1f 4f       	sbci	r17, 0xFF	; 255
    30fa:	06 c0       	rjmp	.+12     	; 0x3108 <vfprintf+0x2b2>
    30fc:	60 81       	ld	r22, Z
    30fe:	71 81       	ldd	r23, Z+1	; 0x01
    3100:	80 e0       	ldi	r24, 0x00	; 0
    3102:	90 e0       	ldi	r25, 0x00	; 0
    3104:	0e 5f       	subi	r16, 0xFE	; 254
    3106:	1f 4f       	sbci	r17, 0xFF	; 255
    3108:	a3 01       	movw	r20, r6
    310a:	5d d5       	rcall	.+2746   	; 0x3bc6 <__ultoa_invert>
    310c:	88 2e       	mov	r8, r24
    310e:	86 18       	sub	r8, r6
    3110:	fb 2d       	mov	r31, r11
    3112:	ff 77       	andi	r31, 0x7F	; 127
    3114:	3f 2e       	mov	r3, r31
    3116:	36 fe       	sbrs	r3, 6
    3118:	0d c0       	rjmp	.+26     	; 0x3134 <vfprintf+0x2de>
    311a:	23 2d       	mov	r18, r3
    311c:	2e 7f       	andi	r18, 0xFE	; 254
    311e:	a2 2e       	mov	r10, r18
    3120:	89 14       	cp	r8, r9
    3122:	58 f4       	brcc	.+22     	; 0x313a <vfprintf+0x2e4>
    3124:	34 fe       	sbrs	r3, 4
    3126:	0b c0       	rjmp	.+22     	; 0x313e <vfprintf+0x2e8>
    3128:	32 fc       	sbrc	r3, 2
    312a:	09 c0       	rjmp	.+18     	; 0x313e <vfprintf+0x2e8>
    312c:	83 2d       	mov	r24, r3
    312e:	8e 7e       	andi	r24, 0xEE	; 238
    3130:	a8 2e       	mov	r10, r24
    3132:	05 c0       	rjmp	.+10     	; 0x313e <vfprintf+0x2e8>
    3134:	b8 2c       	mov	r11, r8
    3136:	a3 2c       	mov	r10, r3
    3138:	03 c0       	rjmp	.+6      	; 0x3140 <vfprintf+0x2ea>
    313a:	b8 2c       	mov	r11, r8
    313c:	01 c0       	rjmp	.+2      	; 0x3140 <vfprintf+0x2ea>
    313e:	b9 2c       	mov	r11, r9
    3140:	a4 fe       	sbrs	r10, 4
    3142:	0f c0       	rjmp	.+30     	; 0x3162 <vfprintf+0x30c>
    3144:	fe 01       	movw	r30, r28
    3146:	e8 0d       	add	r30, r8
    3148:	f1 1d       	adc	r31, r1
    314a:	80 81       	ld	r24, Z
    314c:	80 33       	cpi	r24, 0x30	; 48
    314e:	21 f4       	brne	.+8      	; 0x3158 <vfprintf+0x302>
    3150:	9a 2d       	mov	r25, r10
    3152:	99 7e       	andi	r25, 0xE9	; 233
    3154:	a9 2e       	mov	r10, r25
    3156:	09 c0       	rjmp	.+18     	; 0x316a <vfprintf+0x314>
    3158:	a2 fe       	sbrs	r10, 2
    315a:	06 c0       	rjmp	.+12     	; 0x3168 <vfprintf+0x312>
    315c:	b3 94       	inc	r11
    315e:	b3 94       	inc	r11
    3160:	04 c0       	rjmp	.+8      	; 0x316a <vfprintf+0x314>
    3162:	8a 2d       	mov	r24, r10
    3164:	86 78       	andi	r24, 0x86	; 134
    3166:	09 f0       	breq	.+2      	; 0x316a <vfprintf+0x314>
    3168:	b3 94       	inc	r11
    316a:	a3 fc       	sbrc	r10, 3
    316c:	10 c0       	rjmp	.+32     	; 0x318e <vfprintf+0x338>
    316e:	a0 fe       	sbrs	r10, 0
    3170:	06 c0       	rjmp	.+12     	; 0x317e <vfprintf+0x328>
    3172:	b2 14       	cp	r11, r2
    3174:	80 f4       	brcc	.+32     	; 0x3196 <vfprintf+0x340>
    3176:	28 0c       	add	r2, r8
    3178:	92 2c       	mov	r9, r2
    317a:	9b 18       	sub	r9, r11
    317c:	0d c0       	rjmp	.+26     	; 0x3198 <vfprintf+0x342>
    317e:	b2 14       	cp	r11, r2
    3180:	58 f4       	brcc	.+22     	; 0x3198 <vfprintf+0x342>
    3182:	b6 01       	movw	r22, r12
    3184:	80 e2       	ldi	r24, 0x20	; 32
    3186:	90 e0       	ldi	r25, 0x00	; 0
    3188:	c9 d4       	rcall	.+2450   	; 0x3b1c <fputc>
    318a:	b3 94       	inc	r11
    318c:	f8 cf       	rjmp	.-16     	; 0x317e <vfprintf+0x328>
    318e:	b2 14       	cp	r11, r2
    3190:	18 f4       	brcc	.+6      	; 0x3198 <vfprintf+0x342>
    3192:	2b 18       	sub	r2, r11
    3194:	02 c0       	rjmp	.+4      	; 0x319a <vfprintf+0x344>
    3196:	98 2c       	mov	r9, r8
    3198:	21 2c       	mov	r2, r1
    319a:	a4 fe       	sbrs	r10, 4
    319c:	0f c0       	rjmp	.+30     	; 0x31bc <vfprintf+0x366>
    319e:	b6 01       	movw	r22, r12
    31a0:	80 e3       	ldi	r24, 0x30	; 48
    31a2:	90 e0       	ldi	r25, 0x00	; 0
    31a4:	bb d4       	rcall	.+2422   	; 0x3b1c <fputc>
    31a6:	a2 fe       	sbrs	r10, 2
    31a8:	16 c0       	rjmp	.+44     	; 0x31d6 <vfprintf+0x380>
    31aa:	a1 fc       	sbrc	r10, 1
    31ac:	03 c0       	rjmp	.+6      	; 0x31b4 <vfprintf+0x35e>
    31ae:	88 e7       	ldi	r24, 0x78	; 120
    31b0:	90 e0       	ldi	r25, 0x00	; 0
    31b2:	02 c0       	rjmp	.+4      	; 0x31b8 <vfprintf+0x362>
    31b4:	88 e5       	ldi	r24, 0x58	; 88
    31b6:	90 e0       	ldi	r25, 0x00	; 0
    31b8:	b6 01       	movw	r22, r12
    31ba:	0c c0       	rjmp	.+24     	; 0x31d4 <vfprintf+0x37e>
    31bc:	8a 2d       	mov	r24, r10
    31be:	86 78       	andi	r24, 0x86	; 134
    31c0:	51 f0       	breq	.+20     	; 0x31d6 <vfprintf+0x380>
    31c2:	a1 fe       	sbrs	r10, 1
    31c4:	02 c0       	rjmp	.+4      	; 0x31ca <vfprintf+0x374>
    31c6:	8b e2       	ldi	r24, 0x2B	; 43
    31c8:	01 c0       	rjmp	.+2      	; 0x31cc <vfprintf+0x376>
    31ca:	80 e2       	ldi	r24, 0x20	; 32
    31cc:	a7 fc       	sbrc	r10, 7
    31ce:	8d e2       	ldi	r24, 0x2D	; 45
    31d0:	b6 01       	movw	r22, r12
    31d2:	90 e0       	ldi	r25, 0x00	; 0
    31d4:	a3 d4       	rcall	.+2374   	; 0x3b1c <fputc>
    31d6:	89 14       	cp	r8, r9
    31d8:	30 f4       	brcc	.+12     	; 0x31e6 <vfprintf+0x390>
    31da:	b6 01       	movw	r22, r12
    31dc:	80 e3       	ldi	r24, 0x30	; 48
    31de:	90 e0       	ldi	r25, 0x00	; 0
    31e0:	9d d4       	rcall	.+2362   	; 0x3b1c <fputc>
    31e2:	9a 94       	dec	r9
    31e4:	f8 cf       	rjmp	.-16     	; 0x31d6 <vfprintf+0x380>
    31e6:	8a 94       	dec	r8
    31e8:	f3 01       	movw	r30, r6
    31ea:	e8 0d       	add	r30, r8
    31ec:	f1 1d       	adc	r31, r1
    31ee:	80 81       	ld	r24, Z
    31f0:	b6 01       	movw	r22, r12
    31f2:	90 e0       	ldi	r25, 0x00	; 0
    31f4:	93 d4       	rcall	.+2342   	; 0x3b1c <fputc>
    31f6:	81 10       	cpse	r8, r1
    31f8:	f6 cf       	rjmp	.-20     	; 0x31e6 <vfprintf+0x390>
    31fa:	22 20       	and	r2, r2
    31fc:	09 f4       	brne	.+2      	; 0x3200 <vfprintf+0x3aa>
    31fe:	4e ce       	rjmp	.-868    	; 0x2e9c <vfprintf+0x46>
    3200:	b6 01       	movw	r22, r12
    3202:	80 e2       	ldi	r24, 0x20	; 32
    3204:	90 e0       	ldi	r25, 0x00	; 0
    3206:	8a d4       	rcall	.+2324   	; 0x3b1c <fputc>
    3208:	2a 94       	dec	r2
    320a:	f7 cf       	rjmp	.-18     	; 0x31fa <vfprintf+0x3a4>
    320c:	f6 01       	movw	r30, r12
    320e:	86 81       	ldd	r24, Z+6	; 0x06
    3210:	97 81       	ldd	r25, Z+7	; 0x07
    3212:	02 c0       	rjmp	.+4      	; 0x3218 <vfprintf+0x3c2>
    3214:	8f ef       	ldi	r24, 0xFF	; 255
    3216:	9f ef       	ldi	r25, 0xFF	; 255
    3218:	2b 96       	adiw	r28, 0x0b	; 11
    321a:	cd bf       	out	0x3d, r28	; 61
    321c:	de bf       	out	0x3e, r29	; 62
    321e:	df 91       	pop	r29
    3220:	cf 91       	pop	r28
    3222:	1f 91       	pop	r17
    3224:	0f 91       	pop	r16
    3226:	ff 90       	pop	r15
    3228:	ef 90       	pop	r14
    322a:	df 90       	pop	r13
    322c:	cf 90       	pop	r12
    322e:	bf 90       	pop	r11
    3230:	af 90       	pop	r10
    3232:	9f 90       	pop	r9
    3234:	8f 90       	pop	r8
    3236:	7f 90       	pop	r7
    3238:	6f 90       	pop	r6
    323a:	5f 90       	pop	r5
    323c:	4f 90       	pop	r4
    323e:	3f 90       	pop	r3
    3240:	2f 90       	pop	r2
    3242:	08 95       	ret

00003244 <putval>:
    3244:	20 fd       	sbrc	r18, 0
    3246:	09 c0       	rjmp	.+18     	; 0x325a <putval+0x16>
    3248:	fc 01       	movw	r30, r24
    324a:	23 fd       	sbrc	r18, 3
    324c:	05 c0       	rjmp	.+10     	; 0x3258 <putval+0x14>
    324e:	22 ff       	sbrs	r18, 2
    3250:	02 c0       	rjmp	.+4      	; 0x3256 <putval+0x12>
    3252:	73 83       	std	Z+3, r23	; 0x03
    3254:	62 83       	std	Z+2, r22	; 0x02
    3256:	51 83       	std	Z+1, r21	; 0x01
    3258:	40 83       	st	Z, r20
    325a:	08 95       	ret

0000325c <mulacc>:
    325c:	44 fd       	sbrc	r20, 4
    325e:	17 c0       	rjmp	.+46     	; 0x328e <mulacc+0x32>
    3260:	46 fd       	sbrc	r20, 6
    3262:	17 c0       	rjmp	.+46     	; 0x3292 <mulacc+0x36>
    3264:	ab 01       	movw	r20, r22
    3266:	bc 01       	movw	r22, r24
    3268:	da 01       	movw	r26, r20
    326a:	fb 01       	movw	r30, r22
    326c:	aa 0f       	add	r26, r26
    326e:	bb 1f       	adc	r27, r27
    3270:	ee 1f       	adc	r30, r30
    3272:	ff 1f       	adc	r31, r31
    3274:	10 94       	com	r1
    3276:	d1 f7       	brne	.-12     	; 0x326c <mulacc+0x10>
    3278:	4a 0f       	add	r20, r26
    327a:	5b 1f       	adc	r21, r27
    327c:	6e 1f       	adc	r22, r30
    327e:	7f 1f       	adc	r23, r31
    3280:	cb 01       	movw	r24, r22
    3282:	ba 01       	movw	r22, r20
    3284:	66 0f       	add	r22, r22
    3286:	77 1f       	adc	r23, r23
    3288:	88 1f       	adc	r24, r24
    328a:	99 1f       	adc	r25, r25
    328c:	09 c0       	rjmp	.+18     	; 0x32a0 <mulacc+0x44>
    328e:	33 e0       	ldi	r19, 0x03	; 3
    3290:	01 c0       	rjmp	.+2      	; 0x3294 <mulacc+0x38>
    3292:	34 e0       	ldi	r19, 0x04	; 4
    3294:	66 0f       	add	r22, r22
    3296:	77 1f       	adc	r23, r23
    3298:	88 1f       	adc	r24, r24
    329a:	99 1f       	adc	r25, r25
    329c:	31 50       	subi	r19, 0x01	; 1
    329e:	d1 f7       	brne	.-12     	; 0x3294 <mulacc+0x38>
    32a0:	62 0f       	add	r22, r18
    32a2:	71 1d       	adc	r23, r1
    32a4:	81 1d       	adc	r24, r1
    32a6:	91 1d       	adc	r25, r1
    32a8:	08 95       	ret

000032aa <skip_spaces>:
    32aa:	0f 93       	push	r16
    32ac:	1f 93       	push	r17
    32ae:	cf 93       	push	r28
    32b0:	df 93       	push	r29
    32b2:	8c 01       	movw	r16, r24
    32b4:	c8 01       	movw	r24, r16
    32b6:	f4 d3       	rcall	.+2024   	; 0x3aa0 <fgetc>
    32b8:	ec 01       	movw	r28, r24
    32ba:	97 fd       	sbrc	r25, 7
    32bc:	06 c0       	rjmp	.+12     	; 0x32ca <skip_spaces+0x20>
    32be:	c0 d3       	rcall	.+1920   	; 0x3a40 <isspace>
    32c0:	89 2b       	or	r24, r25
    32c2:	c1 f7       	brne	.-16     	; 0x32b4 <skip_spaces+0xa>
    32c4:	b8 01       	movw	r22, r16
    32c6:	ce 01       	movw	r24, r28
    32c8:	65 d4       	rcall	.+2250   	; 0x3b94 <ungetc>
    32ca:	ce 01       	movw	r24, r28
    32cc:	df 91       	pop	r29
    32ce:	cf 91       	pop	r28
    32d0:	1f 91       	pop	r17
    32d2:	0f 91       	pop	r16
    32d4:	08 95       	ret

000032d6 <conv_int>:
    32d6:	8f 92       	push	r8
    32d8:	9f 92       	push	r9
    32da:	af 92       	push	r10
    32dc:	bf 92       	push	r11
    32de:	ef 92       	push	r14
    32e0:	ff 92       	push	r15
    32e2:	0f 93       	push	r16
    32e4:	1f 93       	push	r17
    32e6:	cf 93       	push	r28
    32e8:	df 93       	push	r29
    32ea:	8c 01       	movw	r16, r24
    32ec:	d6 2f       	mov	r29, r22
    32ee:	7a 01       	movw	r14, r20
    32f0:	b2 2e       	mov	r11, r18
    32f2:	d6 d3       	rcall	.+1964   	; 0x3aa0 <fgetc>
    32f4:	9c 01       	movw	r18, r24
    32f6:	33 27       	eor	r19, r19
    32f8:	2b 32       	cpi	r18, 0x2B	; 43
    32fa:	31 05       	cpc	r19, r1
    32fc:	31 f0       	breq	.+12     	; 0x330a <conv_int+0x34>
    32fe:	2d 32       	cpi	r18, 0x2D	; 45
    3300:	31 05       	cpc	r19, r1
    3302:	59 f4       	brne	.+22     	; 0x331a <conv_int+0x44>
    3304:	8b 2d       	mov	r24, r11
    3306:	80 68       	ori	r24, 0x80	; 128
    3308:	b8 2e       	mov	r11, r24
    330a:	d1 50       	subi	r29, 0x01	; 1
    330c:	11 f4       	brne	.+4      	; 0x3312 <conv_int+0x3c>
    330e:	80 e0       	ldi	r24, 0x00	; 0
    3310:	61 c0       	rjmp	.+194    	; 0x33d4 <conv_int+0xfe>
    3312:	c8 01       	movw	r24, r16
    3314:	c5 d3       	rcall	.+1930   	; 0x3aa0 <fgetc>
    3316:	97 fd       	sbrc	r25, 7
    3318:	fa cf       	rjmp	.-12     	; 0x330e <conv_int+0x38>
    331a:	cb 2d       	mov	r28, r11
    331c:	cd 7f       	andi	r28, 0xFD	; 253
    331e:	2b 2d       	mov	r18, r11
    3320:	20 73       	andi	r18, 0x30	; 48
    3322:	f9 f4       	brne	.+62     	; 0x3362 <conv_int+0x8c>
    3324:	80 33       	cpi	r24, 0x30	; 48
    3326:	e9 f4       	brne	.+58     	; 0x3362 <conv_int+0x8c>
    3328:	aa 24       	eor	r10, r10
    332a:	aa 94       	dec	r10
    332c:	ad 0e       	add	r10, r29
    332e:	09 f4       	brne	.+2      	; 0x3332 <conv_int+0x5c>
    3330:	3e c0       	rjmp	.+124    	; 0x33ae <conv_int+0xd8>
    3332:	c8 01       	movw	r24, r16
    3334:	b5 d3       	rcall	.+1898   	; 0x3aa0 <fgetc>
    3336:	97 fd       	sbrc	r25, 7
    3338:	3a c0       	rjmp	.+116    	; 0x33ae <conv_int+0xd8>
    333a:	9c 01       	movw	r18, r24
    333c:	2f 7d       	andi	r18, 0xDF	; 223
    333e:	33 27       	eor	r19, r19
    3340:	28 35       	cpi	r18, 0x58	; 88
    3342:	31 05       	cpc	r19, r1
    3344:	41 f4       	brne	.+16     	; 0x3356 <conv_int+0x80>
    3346:	c2 64       	ori	r28, 0x42	; 66
    3348:	d2 50       	subi	r29, 0x02	; 2
    334a:	89 f1       	breq	.+98     	; 0x33ae <conv_int+0xd8>
    334c:	c8 01       	movw	r24, r16
    334e:	a8 d3       	rcall	.+1872   	; 0x3aa0 <fgetc>
    3350:	97 ff       	sbrs	r25, 7
    3352:	07 c0       	rjmp	.+14     	; 0x3362 <conv_int+0x8c>
    3354:	2c c0       	rjmp	.+88     	; 0x33ae <conv_int+0xd8>
    3356:	b6 fe       	sbrs	r11, 6
    3358:	02 c0       	rjmp	.+4      	; 0x335e <conv_int+0x88>
    335a:	c2 60       	ori	r28, 0x02	; 2
    335c:	01 c0       	rjmp	.+2      	; 0x3360 <conv_int+0x8a>
    335e:	c2 61       	ori	r28, 0x12	; 18
    3360:	da 2d       	mov	r29, r10
    3362:	81 2c       	mov	r8, r1
    3364:	91 2c       	mov	r9, r1
    3366:	54 01       	movw	r10, r8
    3368:	20 ed       	ldi	r18, 0xD0	; 208
    336a:	28 0f       	add	r18, r24
    336c:	28 30       	cpi	r18, 0x08	; 8
    336e:	78 f0       	brcs	.+30     	; 0x338e <conv_int+0xb8>
    3370:	c4 ff       	sbrs	r28, 4
    3372:	03 c0       	rjmp	.+6      	; 0x337a <conv_int+0xa4>
    3374:	b8 01       	movw	r22, r16
    3376:	0e d4       	rcall	.+2076   	; 0x3b94 <ungetc>
    3378:	17 c0       	rjmp	.+46     	; 0x33a8 <conv_int+0xd2>
    337a:	2a 30       	cpi	r18, 0x0A	; 10
    337c:	40 f0       	brcs	.+16     	; 0x338e <conv_int+0xb8>
    337e:	c6 ff       	sbrs	r28, 6
    3380:	f9 cf       	rjmp	.-14     	; 0x3374 <conv_int+0x9e>
    3382:	2f 7d       	andi	r18, 0xDF	; 223
    3384:	3f ee       	ldi	r19, 0xEF	; 239
    3386:	32 0f       	add	r19, r18
    3388:	36 30       	cpi	r19, 0x06	; 6
    338a:	a0 f7       	brcc	.-24     	; 0x3374 <conv_int+0x9e>
    338c:	27 50       	subi	r18, 0x07	; 7
    338e:	4c 2f       	mov	r20, r28
    3390:	c5 01       	movw	r24, r10
    3392:	b4 01       	movw	r22, r8
    3394:	63 df       	rcall	.-314    	; 0x325c <mulacc>
    3396:	4b 01       	movw	r8, r22
    3398:	5c 01       	movw	r10, r24
    339a:	c2 60       	ori	r28, 0x02	; 2
    339c:	d1 50       	subi	r29, 0x01	; 1
    339e:	51 f0       	breq	.+20     	; 0x33b4 <conv_int+0xde>
    33a0:	c8 01       	movw	r24, r16
    33a2:	7e d3       	rcall	.+1788   	; 0x3aa0 <fgetc>
    33a4:	97 ff       	sbrs	r25, 7
    33a6:	e0 cf       	rjmp	.-64     	; 0x3368 <conv_int+0x92>
    33a8:	c1 fd       	sbrc	r28, 1
    33aa:	04 c0       	rjmp	.+8      	; 0x33b4 <conv_int+0xde>
    33ac:	b0 cf       	rjmp	.-160    	; 0x330e <conv_int+0x38>
    33ae:	81 2c       	mov	r8, r1
    33b0:	91 2c       	mov	r9, r1
    33b2:	54 01       	movw	r10, r8
    33b4:	c7 ff       	sbrs	r28, 7
    33b6:	08 c0       	rjmp	.+16     	; 0x33c8 <conv_int+0xf2>
    33b8:	b0 94       	com	r11
    33ba:	a0 94       	com	r10
    33bc:	90 94       	com	r9
    33be:	80 94       	com	r8
    33c0:	81 1c       	adc	r8, r1
    33c2:	91 1c       	adc	r9, r1
    33c4:	a1 1c       	adc	r10, r1
    33c6:	b1 1c       	adc	r11, r1
    33c8:	2c 2f       	mov	r18, r28
    33ca:	b5 01       	movw	r22, r10
    33cc:	a4 01       	movw	r20, r8
    33ce:	c7 01       	movw	r24, r14
    33d0:	39 df       	rcall	.-398    	; 0x3244 <putval>
    33d2:	81 e0       	ldi	r24, 0x01	; 1
    33d4:	df 91       	pop	r29
    33d6:	cf 91       	pop	r28
    33d8:	1f 91       	pop	r17
    33da:	0f 91       	pop	r16
    33dc:	ff 90       	pop	r15
    33de:	ef 90       	pop	r14
    33e0:	bf 90       	pop	r11
    33e2:	af 90       	pop	r10
    33e4:	9f 90       	pop	r9
    33e6:	8f 90       	pop	r8
    33e8:	08 95       	ret

000033ea <conv_brk>:
    33ea:	5f 92       	push	r5
    33ec:	6f 92       	push	r6
    33ee:	7f 92       	push	r7
    33f0:	8f 92       	push	r8
    33f2:	9f 92       	push	r9
    33f4:	af 92       	push	r10
    33f6:	bf 92       	push	r11
    33f8:	cf 92       	push	r12
    33fa:	df 92       	push	r13
    33fc:	ef 92       	push	r14
    33fe:	ff 92       	push	r15
    3400:	0f 93       	push	r16
    3402:	1f 93       	push	r17
    3404:	cf 93       	push	r28
    3406:	df 93       	push	r29
    3408:	cd b7       	in	r28, 0x3d	; 61
    340a:	de b7       	in	r29, 0x3e	; 62
    340c:	a0 97       	sbiw	r28, 0x20	; 32
    340e:	cd bf       	out	0x3d, r28	; 61
    3410:	de bf       	out	0x3e, r29	; 62
    3412:	5c 01       	movw	r10, r24
    3414:	96 2e       	mov	r9, r22
    3416:	7a 01       	movw	r14, r20
    3418:	f9 01       	movw	r30, r18
    341a:	8e 01       	movw	r16, r28
    341c:	0f 5f       	subi	r16, 0xFF	; 255
    341e:	1f 4f       	sbci	r17, 0xFF	; 255
    3420:	68 01       	movw	r12, r16
    3422:	80 e2       	ldi	r24, 0x20	; 32
    3424:	d8 01       	movw	r26, r16
    3426:	1d 92       	st	X+, r1
    3428:	8a 95       	dec	r24
    342a:	e9 f7       	brne	.-6      	; 0x3426 <conv_brk+0x3c>
    342c:	d5 01       	movw	r26, r10
    342e:	13 96       	adiw	r26, 0x03	; 3
    3430:	8c 90       	ld	r8, X
    3432:	80 e0       	ldi	r24, 0x00	; 0
    3434:	90 e0       	ldi	r25, 0x00	; 0
    3436:	61 2c       	mov	r6, r1
    3438:	71 2c       	mov	r7, r1
    343a:	30 e0       	ldi	r19, 0x00	; 0
    343c:	61 e0       	ldi	r22, 0x01	; 1
    343e:	70 e0       	ldi	r23, 0x00	; 0
    3440:	83 fc       	sbrc	r8, 3
    3442:	25 91       	lpm	r18, Z+
    3444:	83 fe       	sbrs	r8, 3
    3446:	21 91       	ld	r18, Z+
    3448:	8f 01       	movw	r16, r30
    344a:	52 2e       	mov	r5, r18
    344c:	21 11       	cpse	r18, r1
    344e:	03 c0       	rjmp	.+6      	; 0x3456 <conv_brk+0x6c>
    3450:	80 e0       	ldi	r24, 0x00	; 0
    3452:	90 e0       	ldi	r25, 0x00	; 0
    3454:	90 c0       	rjmp	.+288    	; 0x3576 <conv_brk+0x18c>
    3456:	2e 35       	cpi	r18, 0x5E	; 94
    3458:	11 f4       	brne	.+4      	; 0x345e <conv_brk+0x74>
    345a:	00 97       	sbiw	r24, 0x00	; 0
    345c:	51 f1       	breq	.+84     	; 0x34b2 <conv_brk+0xc8>
    345e:	43 2f       	mov	r20, r19
    3460:	50 e0       	ldi	r21, 0x00	; 0
    3462:	48 17       	cp	r20, r24
    3464:	59 07       	cpc	r21, r25
    3466:	3c f4       	brge	.+14     	; 0x3476 <conv_brk+0x8c>
    3468:	2d 35       	cpi	r18, 0x5D	; 93
    346a:	59 f1       	breq	.+86     	; 0x34c2 <conv_brk+0xd8>
    346c:	2d 32       	cpi	r18, 0x2D	; 45
    346e:	19 f4       	brne	.+6      	; 0x3476 <conv_brk+0x8c>
    3470:	77 20       	and	r7, r7
    3472:	09 f1       	breq	.+66     	; 0x34b6 <conv_brk+0xcc>
    3474:	03 c0       	rjmp	.+6      	; 0x347c <conv_brk+0x92>
    3476:	77 20       	and	r7, r7
    3478:	09 f4       	brne	.+2      	; 0x347c <conv_brk+0x92>
    347a:	68 c0       	rjmp	.+208    	; 0x354c <conv_brk+0x162>
    347c:	45 2d       	mov	r20, r5
    347e:	46 95       	lsr	r20
    3480:	46 95       	lsr	r20
    3482:	46 95       	lsr	r20
    3484:	d6 01       	movw	r26, r12
    3486:	a4 0f       	add	r26, r20
    3488:	b1 1d       	adc	r27, r1
    348a:	45 2d       	mov	r20, r5
    348c:	47 70       	andi	r20, 0x07	; 7
    348e:	8b 01       	movw	r16, r22
    3490:	02 c0       	rjmp	.+4      	; 0x3496 <conv_brk+0xac>
    3492:	00 0f       	add	r16, r16
    3494:	11 1f       	adc	r17, r17
    3496:	4a 95       	dec	r20
    3498:	e2 f7       	brpl	.-8      	; 0x3492 <conv_brk+0xa8>
    349a:	a8 01       	movw	r20, r16
    349c:	5c 91       	ld	r21, X
    349e:	45 2b       	or	r20, r21
    34a0:	4c 93       	st	X, r20
    34a2:	65 14       	cp	r6, r5
    34a4:	59 f0       	breq	.+22     	; 0x34bc <conv_brk+0xd2>
    34a6:	56 14       	cp	r5, r6
    34a8:	10 f4       	brcc	.+4      	; 0x34ae <conv_brk+0xc4>
    34aa:	53 94       	inc	r5
    34ac:	e7 cf       	rjmp	.-50     	; 0x347c <conv_brk+0x92>
    34ae:	5a 94       	dec	r5
    34b0:	e5 cf       	rjmp	.-54     	; 0x347c <conv_brk+0x92>
    34b2:	31 e0       	ldi	r19, 0x01	; 1
    34b4:	04 c0       	rjmp	.+8      	; 0x34be <conv_brk+0xd4>
    34b6:	77 24       	eor	r7, r7
    34b8:	73 94       	inc	r7
    34ba:	01 c0       	rjmp	.+2      	; 0x34be <conv_brk+0xd4>
    34bc:	71 2c       	mov	r7, r1
    34be:	01 96       	adiw	r24, 0x01	; 1
    34c0:	bf cf       	rjmp	.-130    	; 0x3440 <conv_brk+0x56>
    34c2:	77 20       	and	r7, r7
    34c4:	19 f0       	breq	.+6      	; 0x34cc <conv_brk+0xe2>
    34c6:	8e 81       	ldd	r24, Y+6	; 0x06
    34c8:	80 62       	ori	r24, 0x20	; 32
    34ca:	8e 83       	std	Y+6, r24	; 0x06
    34cc:	31 11       	cpse	r19, r1
    34ce:	03 c0       	rjmp	.+6      	; 0x34d6 <conv_brk+0xec>
    34d0:	88 24       	eor	r8, r8
    34d2:	83 94       	inc	r8
    34d4:	17 c0       	rjmp	.+46     	; 0x3504 <conv_brk+0x11a>
    34d6:	f6 01       	movw	r30, r12
    34d8:	9e 01       	movw	r18, r28
    34da:	2f 5d       	subi	r18, 0xDF	; 223
    34dc:	3f 4f       	sbci	r19, 0xFF	; 255
    34de:	80 81       	ld	r24, Z
    34e0:	80 95       	com	r24
    34e2:	81 93       	st	Z+, r24
    34e4:	2e 17       	cp	r18, r30
    34e6:	3f 07       	cpc	r19, r31
    34e8:	d1 f7       	brne	.-12     	; 0x34de <conv_brk+0xf4>
    34ea:	f2 cf       	rjmp	.-28     	; 0x34d0 <conv_brk+0xe6>
    34ec:	e1 14       	cp	r14, r1
    34ee:	f1 04       	cpc	r15, r1
    34f0:	29 f0       	breq	.+10     	; 0x34fc <conv_brk+0x112>
    34f2:	d7 01       	movw	r26, r14
    34f4:	8c 93       	st	X, r24
    34f6:	f7 01       	movw	r30, r14
    34f8:	31 96       	adiw	r30, 0x01	; 1
    34fa:	7f 01       	movw	r14, r30
    34fc:	9a 94       	dec	r9
    34fe:	81 2c       	mov	r8, r1
    3500:	99 20       	and	r9, r9
    3502:	e9 f0       	breq	.+58     	; 0x353e <conv_brk+0x154>
    3504:	c5 01       	movw	r24, r10
    3506:	cc d2       	rcall	.+1432   	; 0x3aa0 <fgetc>
    3508:	97 fd       	sbrc	r25, 7
    350a:	17 c0       	rjmp	.+46     	; 0x353a <conv_brk+0x150>
    350c:	fc 01       	movw	r30, r24
    350e:	ff 27       	eor	r31, r31
    3510:	23 e0       	ldi	r18, 0x03	; 3
    3512:	f5 95       	asr	r31
    3514:	e7 95       	ror	r30
    3516:	2a 95       	dec	r18
    3518:	e1 f7       	brne	.-8      	; 0x3512 <conv_brk+0x128>
    351a:	ec 0d       	add	r30, r12
    351c:	fd 1d       	adc	r31, r13
    351e:	20 81       	ld	r18, Z
    3520:	30 e0       	ldi	r19, 0x00	; 0
    3522:	ac 01       	movw	r20, r24
    3524:	47 70       	andi	r20, 0x07	; 7
    3526:	55 27       	eor	r21, r21
    3528:	02 c0       	rjmp	.+4      	; 0x352e <conv_brk+0x144>
    352a:	35 95       	asr	r19
    352c:	27 95       	ror	r18
    352e:	4a 95       	dec	r20
    3530:	e2 f7       	brpl	.-8      	; 0x352a <conv_brk+0x140>
    3532:	20 fd       	sbrc	r18, 0
    3534:	db cf       	rjmp	.-74     	; 0x34ec <conv_brk+0x102>
    3536:	b5 01       	movw	r22, r10
    3538:	2d d3       	rcall	.+1626   	; 0x3b94 <ungetc>
    353a:	81 10       	cpse	r8, r1
    353c:	89 cf       	rjmp	.-238    	; 0x3450 <conv_brk+0x66>
    353e:	e1 14       	cp	r14, r1
    3540:	f1 04       	cpc	r15, r1
    3542:	11 f0       	breq	.+4      	; 0x3548 <conv_brk+0x15e>
    3544:	d7 01       	movw	r26, r14
    3546:	1c 92       	st	X, r1
    3548:	c8 01       	movw	r24, r16
    354a:	15 c0       	rjmp	.+42     	; 0x3576 <conv_brk+0x18c>
    354c:	42 2f       	mov	r20, r18
    354e:	46 95       	lsr	r20
    3550:	46 95       	lsr	r20
    3552:	46 95       	lsr	r20
    3554:	d6 01       	movw	r26, r12
    3556:	a4 0f       	add	r26, r20
    3558:	b1 1d       	adc	r27, r1
    355a:	42 2f       	mov	r20, r18
    355c:	47 70       	andi	r20, 0x07	; 7
    355e:	8b 01       	movw	r16, r22
    3560:	02 c0       	rjmp	.+4      	; 0x3566 <conv_brk+0x17c>
    3562:	00 0f       	add	r16, r16
    3564:	11 1f       	adc	r17, r17
    3566:	4a 95       	dec	r20
    3568:	e2 f7       	brpl	.-8      	; 0x3562 <conv_brk+0x178>
    356a:	a8 01       	movw	r20, r16
    356c:	5c 91       	ld	r21, X
    356e:	45 2b       	or	r20, r21
    3570:	4c 93       	st	X, r20
    3572:	62 2e       	mov	r6, r18
    3574:	a4 cf       	rjmp	.-184    	; 0x34be <conv_brk+0xd4>
    3576:	a0 96       	adiw	r28, 0x20	; 32
    3578:	cd bf       	out	0x3d, r28	; 61
    357a:	de bf       	out	0x3e, r29	; 62
    357c:	df 91       	pop	r29
    357e:	cf 91       	pop	r28
    3580:	1f 91       	pop	r17
    3582:	0f 91       	pop	r16
    3584:	ff 90       	pop	r15
    3586:	ef 90       	pop	r14
    3588:	df 90       	pop	r13
    358a:	cf 90       	pop	r12
    358c:	bf 90       	pop	r11
    358e:	af 90       	pop	r10
    3590:	9f 90       	pop	r9
    3592:	8f 90       	pop	r8
    3594:	7f 90       	pop	r7
    3596:	6f 90       	pop	r6
    3598:	5f 90       	pop	r5
    359a:	08 95       	ret

0000359c <vfscanf>:
    359c:	5f 92       	push	r5
    359e:	6f 92       	push	r6
    35a0:	7f 92       	push	r7
    35a2:	8f 92       	push	r8
    35a4:	9f 92       	push	r9
    35a6:	af 92       	push	r10
    35a8:	bf 92       	push	r11
    35aa:	cf 92       	push	r12
    35ac:	df 92       	push	r13
    35ae:	ef 92       	push	r14
    35b0:	ff 92       	push	r15
    35b2:	0f 93       	push	r16
    35b4:	1f 93       	push	r17
    35b6:	cf 93       	push	r28
    35b8:	df 93       	push	r29
    35ba:	6c 01       	movw	r12, r24
    35bc:	eb 01       	movw	r28, r22
    35be:	5a 01       	movw	r10, r20
    35c0:	fc 01       	movw	r30, r24
    35c2:	16 82       	std	Z+6, r1	; 0x06
    35c4:	17 82       	std	Z+7, r1	; 0x07
    35c6:	51 2c       	mov	r5, r1
    35c8:	f6 01       	movw	r30, r12
    35ca:	e3 80       	ldd	r14, Z+3	; 0x03
    35cc:	fe 01       	movw	r30, r28
    35ce:	e3 fc       	sbrc	r14, 3
    35d0:	85 91       	lpm	r24, Z+
    35d2:	e3 fe       	sbrs	r14, 3
    35d4:	81 91       	ld	r24, Z+
    35d6:	18 2f       	mov	r17, r24
    35d8:	ef 01       	movw	r28, r30
    35da:	88 23       	and	r24, r24
    35dc:	09 f4       	brne	.+2      	; 0x35e0 <vfscanf+0x44>
    35de:	e0 c0       	rjmp	.+448    	; 0x37a0 <vfscanf+0x204>
    35e0:	90 e0       	ldi	r25, 0x00	; 0
    35e2:	2e d2       	rcall	.+1116   	; 0x3a40 <isspace>
    35e4:	89 2b       	or	r24, r25
    35e6:	19 f0       	breq	.+6      	; 0x35ee <vfscanf+0x52>
    35e8:	c6 01       	movw	r24, r12
    35ea:	5f de       	rcall	.-834    	; 0x32aa <skip_spaces>
    35ec:	ed cf       	rjmp	.-38     	; 0x35c8 <vfscanf+0x2c>
    35ee:	15 32       	cpi	r17, 0x25	; 37
    35f0:	41 f4       	brne	.+16     	; 0x3602 <vfscanf+0x66>
    35f2:	fe 01       	movw	r30, r28
    35f4:	e3 fc       	sbrc	r14, 3
    35f6:	15 91       	lpm	r17, Z+
    35f8:	e3 fe       	sbrs	r14, 3
    35fa:	11 91       	ld	r17, Z+
    35fc:	ef 01       	movw	r28, r30
    35fe:	15 32       	cpi	r17, 0x25	; 37
    3600:	71 f4       	brne	.+28     	; 0x361e <vfscanf+0x82>
    3602:	c6 01       	movw	r24, r12
    3604:	4d d2       	rcall	.+1178   	; 0x3aa0 <fgetc>
    3606:	97 fd       	sbrc	r25, 7
    3608:	c9 c0       	rjmp	.+402    	; 0x379c <vfscanf+0x200>
    360a:	41 2f       	mov	r20, r17
    360c:	50 e0       	ldi	r21, 0x00	; 0
    360e:	9c 01       	movw	r18, r24
    3610:	33 27       	eor	r19, r19
    3612:	24 17       	cp	r18, r20
    3614:	35 07       	cpc	r19, r21
    3616:	c1 f2       	breq	.-80     	; 0x35c8 <vfscanf+0x2c>
    3618:	b6 01       	movw	r22, r12
    361a:	bc d2       	rcall	.+1400   	; 0x3b94 <ungetc>
    361c:	c1 c0       	rjmp	.+386    	; 0x37a0 <vfscanf+0x204>
    361e:	1a 32       	cpi	r17, 0x2A	; 42
    3620:	39 f4       	brne	.+14     	; 0x3630 <vfscanf+0x94>
    3622:	e3 fc       	sbrc	r14, 3
    3624:	15 91       	lpm	r17, Z+
    3626:	e3 fe       	sbrs	r14, 3
    3628:	11 91       	ld	r17, Z+
    362a:	ef 01       	movw	r28, r30
    362c:	01 e0       	ldi	r16, 0x01	; 1
    362e:	01 c0       	rjmp	.+2      	; 0x3632 <vfscanf+0x96>
    3630:	00 e0       	ldi	r16, 0x00	; 0
    3632:	f1 2c       	mov	r15, r1
    3634:	20 ed       	ldi	r18, 0xD0	; 208
    3636:	21 0f       	add	r18, r17
    3638:	2a 30       	cpi	r18, 0x0A	; 10
    363a:	78 f4       	brcc	.+30     	; 0x365a <vfscanf+0xbe>
    363c:	02 60       	ori	r16, 0x02	; 2
    363e:	6f 2d       	mov	r22, r15
    3640:	70 e0       	ldi	r23, 0x00	; 0
    3642:	80 e0       	ldi	r24, 0x00	; 0
    3644:	90 e0       	ldi	r25, 0x00	; 0
    3646:	40 e2       	ldi	r20, 0x20	; 32
    3648:	09 de       	rcall	.-1006   	; 0x325c <mulacc>
    364a:	f6 2e       	mov	r15, r22
    364c:	fe 01       	movw	r30, r28
    364e:	e3 fc       	sbrc	r14, 3
    3650:	15 91       	lpm	r17, Z+
    3652:	e3 fe       	sbrs	r14, 3
    3654:	11 91       	ld	r17, Z+
    3656:	ef 01       	movw	r28, r30
    3658:	ed cf       	rjmp	.-38     	; 0x3634 <vfscanf+0x98>
    365a:	01 ff       	sbrs	r16, 1
    365c:	03 c0       	rjmp	.+6      	; 0x3664 <vfscanf+0xc8>
    365e:	f1 10       	cpse	r15, r1
    3660:	03 c0       	rjmp	.+6      	; 0x3668 <vfscanf+0xcc>
    3662:	9e c0       	rjmp	.+316    	; 0x37a0 <vfscanf+0x204>
    3664:	ff 24       	eor	r15, r15
    3666:	fa 94       	dec	r15
    3668:	18 36       	cpi	r17, 0x68	; 104
    366a:	19 f0       	breq	.+6      	; 0x3672 <vfscanf+0xd6>
    366c:	1c 36       	cpi	r17, 0x6C	; 108
    366e:	51 f0       	breq	.+20     	; 0x3684 <vfscanf+0xe8>
    3670:	10 c0       	rjmp	.+32     	; 0x3692 <vfscanf+0xf6>
    3672:	fe 01       	movw	r30, r28
    3674:	e3 fc       	sbrc	r14, 3
    3676:	15 91       	lpm	r17, Z+
    3678:	e3 fe       	sbrs	r14, 3
    367a:	11 91       	ld	r17, Z+
    367c:	ef 01       	movw	r28, r30
    367e:	18 36       	cpi	r17, 0x68	; 104
    3680:	41 f4       	brne	.+16     	; 0x3692 <vfscanf+0xf6>
    3682:	08 60       	ori	r16, 0x08	; 8
    3684:	04 60       	ori	r16, 0x04	; 4
    3686:	fe 01       	movw	r30, r28
    3688:	e3 fc       	sbrc	r14, 3
    368a:	15 91       	lpm	r17, Z+
    368c:	e3 fe       	sbrs	r14, 3
    368e:	11 91       	ld	r17, Z+
    3690:	ef 01       	movw	r28, r30
    3692:	11 23       	and	r17, r17
    3694:	09 f4       	brne	.+2      	; 0x3698 <vfscanf+0xfc>
    3696:	84 c0       	rjmp	.+264    	; 0x37a0 <vfscanf+0x204>
    3698:	61 2f       	mov	r22, r17
    369a:	70 e0       	ldi	r23, 0x00	; 0
    369c:	8e e7       	ldi	r24, 0x7E	; 126
    369e:	92 e0       	ldi	r25, 0x02	; 2
    36a0:	d7 d1       	rcall	.+942    	; 0x3a50 <strchr_P>
    36a2:	89 2b       	or	r24, r25
    36a4:	09 f4       	brne	.+2      	; 0x36a8 <vfscanf+0x10c>
    36a6:	7c c0       	rjmp	.+248    	; 0x37a0 <vfscanf+0x204>
    36a8:	00 fd       	sbrc	r16, 0
    36aa:	07 c0       	rjmp	.+14     	; 0x36ba <vfscanf+0x11e>
    36ac:	f5 01       	movw	r30, r10
    36ae:	80 80       	ld	r8, Z
    36b0:	91 80       	ldd	r9, Z+1	; 0x01
    36b2:	c5 01       	movw	r24, r10
    36b4:	02 96       	adiw	r24, 0x02	; 2
    36b6:	5c 01       	movw	r10, r24
    36b8:	02 c0       	rjmp	.+4      	; 0x36be <vfscanf+0x122>
    36ba:	81 2c       	mov	r8, r1
    36bc:	91 2c       	mov	r9, r1
    36be:	1e 36       	cpi	r17, 0x6E	; 110
    36c0:	49 f4       	brne	.+18     	; 0x36d4 <vfscanf+0x138>
    36c2:	f6 01       	movw	r30, r12
    36c4:	46 81       	ldd	r20, Z+6	; 0x06
    36c6:	57 81       	ldd	r21, Z+7	; 0x07
    36c8:	60 e0       	ldi	r22, 0x00	; 0
    36ca:	70 e0       	ldi	r23, 0x00	; 0
    36cc:	20 2f       	mov	r18, r16
    36ce:	c4 01       	movw	r24, r8
    36d0:	b9 dd       	rcall	.-1166   	; 0x3244 <putval>
    36d2:	7a cf       	rjmp	.-268    	; 0x35c8 <vfscanf+0x2c>
    36d4:	13 36       	cpi	r17, 0x63	; 99
    36d6:	a1 f4       	brne	.+40     	; 0x3700 <vfscanf+0x164>
    36d8:	01 fd       	sbrc	r16, 1
    36da:	02 c0       	rjmp	.+4      	; 0x36e0 <vfscanf+0x144>
    36dc:	ff 24       	eor	r15, r15
    36de:	f3 94       	inc	r15
    36e0:	c6 01       	movw	r24, r12
    36e2:	de d1       	rcall	.+956    	; 0x3aa0 <fgetc>
    36e4:	97 fd       	sbrc	r25, 7
    36e6:	5a c0       	rjmp	.+180    	; 0x379c <vfscanf+0x200>
    36e8:	81 14       	cp	r8, r1
    36ea:	91 04       	cpc	r9, r1
    36ec:	29 f0       	breq	.+10     	; 0x36f8 <vfscanf+0x15c>
    36ee:	f4 01       	movw	r30, r8
    36f0:	80 83       	st	Z, r24
    36f2:	c4 01       	movw	r24, r8
    36f4:	01 96       	adiw	r24, 0x01	; 1
    36f6:	4c 01       	movw	r8, r24
    36f8:	fa 94       	dec	r15
    36fa:	f1 10       	cpse	r15, r1
    36fc:	f1 cf       	rjmp	.-30     	; 0x36e0 <vfscanf+0x144>
    36fe:	4a c0       	rjmp	.+148    	; 0x3794 <vfscanf+0x1f8>
    3700:	1b 35       	cpi	r17, 0x5B	; 91
    3702:	51 f4       	brne	.+20     	; 0x3718 <vfscanf+0x17c>
    3704:	9e 01       	movw	r18, r28
    3706:	a4 01       	movw	r20, r8
    3708:	6f 2d       	mov	r22, r15
    370a:	c6 01       	movw	r24, r12
    370c:	6e de       	rcall	.-804    	; 0x33ea <conv_brk>
    370e:	ec 01       	movw	r28, r24
    3710:	89 2b       	or	r24, r25
    3712:	09 f0       	breq	.+2      	; 0x3716 <vfscanf+0x17a>
    3714:	3f c0       	rjmp	.+126    	; 0x3794 <vfscanf+0x1f8>
    3716:	39 c0       	rjmp	.+114    	; 0x378a <vfscanf+0x1ee>
    3718:	c6 01       	movw	r24, r12
    371a:	c7 dd       	rcall	.-1138   	; 0x32aa <skip_spaces>
    371c:	97 fd       	sbrc	r25, 7
    371e:	3e c0       	rjmp	.+124    	; 0x379c <vfscanf+0x200>
    3720:	1f 36       	cpi	r17, 0x6F	; 111
    3722:	49 f1       	breq	.+82     	; 0x3776 <vfscanf+0x1da>
    3724:	28 f4       	brcc	.+10     	; 0x3730 <vfscanf+0x194>
    3726:	14 36       	cpi	r17, 0x64	; 100
    3728:	21 f1       	breq	.+72     	; 0x3772 <vfscanf+0x1d6>
    372a:	19 36       	cpi	r17, 0x69	; 105
    372c:	39 f1       	breq	.+78     	; 0x377c <vfscanf+0x1e0>
    372e:	25 c0       	rjmp	.+74     	; 0x377a <vfscanf+0x1de>
    3730:	13 37       	cpi	r17, 0x73	; 115
    3732:	71 f0       	breq	.+28     	; 0x3750 <vfscanf+0x1b4>
    3734:	15 37       	cpi	r17, 0x75	; 117
    3736:	e9 f0       	breq	.+58     	; 0x3772 <vfscanf+0x1d6>
    3738:	20 c0       	rjmp	.+64     	; 0x377a <vfscanf+0x1de>
    373a:	81 14       	cp	r8, r1
    373c:	91 04       	cpc	r9, r1
    373e:	29 f0       	breq	.+10     	; 0x374a <vfscanf+0x1ae>
    3740:	f4 01       	movw	r30, r8
    3742:	60 82       	st	Z, r6
    3744:	c4 01       	movw	r24, r8
    3746:	01 96       	adiw	r24, 0x01	; 1
    3748:	4c 01       	movw	r8, r24
    374a:	fa 94       	dec	r15
    374c:	ff 20       	and	r15, r15
    374e:	59 f0       	breq	.+22     	; 0x3766 <vfscanf+0x1ca>
    3750:	c6 01       	movw	r24, r12
    3752:	a6 d1       	rcall	.+844    	; 0x3aa0 <fgetc>
    3754:	3c 01       	movw	r6, r24
    3756:	97 fd       	sbrc	r25, 7
    3758:	06 c0       	rjmp	.+12     	; 0x3766 <vfscanf+0x1ca>
    375a:	72 d1       	rcall	.+740    	; 0x3a40 <isspace>
    375c:	89 2b       	or	r24, r25
    375e:	69 f3       	breq	.-38     	; 0x373a <vfscanf+0x19e>
    3760:	b6 01       	movw	r22, r12
    3762:	c3 01       	movw	r24, r6
    3764:	17 d2       	rcall	.+1070   	; 0x3b94 <ungetc>
    3766:	81 14       	cp	r8, r1
    3768:	91 04       	cpc	r9, r1
    376a:	a1 f0       	breq	.+40     	; 0x3794 <vfscanf+0x1f8>
    376c:	f4 01       	movw	r30, r8
    376e:	10 82       	st	Z, r1
    3770:	11 c0       	rjmp	.+34     	; 0x3794 <vfscanf+0x1f8>
    3772:	00 62       	ori	r16, 0x20	; 32
    3774:	03 c0       	rjmp	.+6      	; 0x377c <vfscanf+0x1e0>
    3776:	00 61       	ori	r16, 0x10	; 16
    3778:	01 c0       	rjmp	.+2      	; 0x377c <vfscanf+0x1e0>
    377a:	00 64       	ori	r16, 0x40	; 64
    377c:	20 2f       	mov	r18, r16
    377e:	a4 01       	movw	r20, r8
    3780:	6f 2d       	mov	r22, r15
    3782:	c6 01       	movw	r24, r12
    3784:	a8 dd       	rcall	.-1200   	; 0x32d6 <conv_int>
    3786:	81 11       	cpse	r24, r1
    3788:	05 c0       	rjmp	.+10     	; 0x3794 <vfscanf+0x1f8>
    378a:	f6 01       	movw	r30, r12
    378c:	83 81       	ldd	r24, Z+3	; 0x03
    378e:	80 73       	andi	r24, 0x30	; 48
    3790:	29 f4       	brne	.+10     	; 0x379c <vfscanf+0x200>
    3792:	06 c0       	rjmp	.+12     	; 0x37a0 <vfscanf+0x204>
    3794:	00 fd       	sbrc	r16, 0
    3796:	18 cf       	rjmp	.-464    	; 0x35c8 <vfscanf+0x2c>
    3798:	53 94       	inc	r5
    379a:	16 cf       	rjmp	.-468    	; 0x35c8 <vfscanf+0x2c>
    379c:	55 20       	and	r5, r5
    379e:	19 f0       	breq	.+6      	; 0x37a6 <vfscanf+0x20a>
    37a0:	85 2d       	mov	r24, r5
    37a2:	90 e0       	ldi	r25, 0x00	; 0
    37a4:	02 c0       	rjmp	.+4      	; 0x37aa <vfscanf+0x20e>
    37a6:	8f ef       	ldi	r24, 0xFF	; 255
    37a8:	9f ef       	ldi	r25, 0xFF	; 255
    37aa:	df 91       	pop	r29
    37ac:	cf 91       	pop	r28
    37ae:	1f 91       	pop	r17
    37b0:	0f 91       	pop	r16
    37b2:	ff 90       	pop	r15
    37b4:	ef 90       	pop	r14
    37b6:	df 90       	pop	r13
    37b8:	cf 90       	pop	r12
    37ba:	bf 90       	pop	r11
    37bc:	af 90       	pop	r10
    37be:	9f 90       	pop	r9
    37c0:	8f 90       	pop	r8
    37c2:	7f 90       	pop	r7
    37c4:	6f 90       	pop	r6
    37c6:	5f 90       	pop	r5
    37c8:	08 95       	ret

000037ca <calloc>:
    37ca:	0f 93       	push	r16
    37cc:	1f 93       	push	r17
    37ce:	cf 93       	push	r28
    37d0:	df 93       	push	r29
    37d2:	86 9f       	mul	r24, r22
    37d4:	80 01       	movw	r16, r0
    37d6:	87 9f       	mul	r24, r23
    37d8:	10 0d       	add	r17, r0
    37da:	96 9f       	mul	r25, r22
    37dc:	10 0d       	add	r17, r0
    37de:	11 24       	eor	r1, r1
    37e0:	c8 01       	movw	r24, r16
    37e2:	0d d0       	rcall	.+26     	; 0x37fe <malloc>
    37e4:	ec 01       	movw	r28, r24
    37e6:	00 97       	sbiw	r24, 0x00	; 0
    37e8:	21 f0       	breq	.+8      	; 0x37f2 <calloc+0x28>
    37ea:	a8 01       	movw	r20, r16
    37ec:	60 e0       	ldi	r22, 0x00	; 0
    37ee:	70 e0       	ldi	r23, 0x00	; 0
    37f0:	45 d1       	rcall	.+650    	; 0x3a7c <memset>
    37f2:	ce 01       	movw	r24, r28
    37f4:	df 91       	pop	r29
    37f6:	cf 91       	pop	r28
    37f8:	1f 91       	pop	r17
    37fa:	0f 91       	pop	r16
    37fc:	08 95       	ret

000037fe <malloc>:
    37fe:	0f 93       	push	r16
    3800:	1f 93       	push	r17
    3802:	cf 93       	push	r28
    3804:	df 93       	push	r29
    3806:	82 30       	cpi	r24, 0x02	; 2
    3808:	91 05       	cpc	r25, r1
    380a:	10 f4       	brcc	.+4      	; 0x3810 <malloc+0x12>
    380c:	82 e0       	ldi	r24, 0x02	; 2
    380e:	90 e0       	ldi	r25, 0x00	; 0
    3810:	e0 91 8e 21 	lds	r30, 0x218E	; 0x80218e <__flp>
    3814:	f0 91 8f 21 	lds	r31, 0x218F	; 0x80218f <__flp+0x1>
    3818:	20 e0       	ldi	r18, 0x00	; 0
    381a:	30 e0       	ldi	r19, 0x00	; 0
    381c:	a0 e0       	ldi	r26, 0x00	; 0
    381e:	b0 e0       	ldi	r27, 0x00	; 0
    3820:	30 97       	sbiw	r30, 0x00	; 0
    3822:	19 f1       	breq	.+70     	; 0x386a <malloc+0x6c>
    3824:	40 81       	ld	r20, Z
    3826:	51 81       	ldd	r21, Z+1	; 0x01
    3828:	02 81       	ldd	r16, Z+2	; 0x02
    382a:	13 81       	ldd	r17, Z+3	; 0x03
    382c:	48 17       	cp	r20, r24
    382e:	59 07       	cpc	r21, r25
    3830:	c8 f0       	brcs	.+50     	; 0x3864 <malloc+0x66>
    3832:	84 17       	cp	r24, r20
    3834:	95 07       	cpc	r25, r21
    3836:	69 f4       	brne	.+26     	; 0x3852 <malloc+0x54>
    3838:	10 97       	sbiw	r26, 0x00	; 0
    383a:	31 f0       	breq	.+12     	; 0x3848 <malloc+0x4a>
    383c:	12 96       	adiw	r26, 0x02	; 2
    383e:	0c 93       	st	X, r16
    3840:	12 97       	sbiw	r26, 0x02	; 2
    3842:	13 96       	adiw	r26, 0x03	; 3
    3844:	1c 93       	st	X, r17
    3846:	27 c0       	rjmp	.+78     	; 0x3896 <malloc+0x98>
    3848:	00 93 8e 21 	sts	0x218E, r16	; 0x80218e <__flp>
    384c:	10 93 8f 21 	sts	0x218F, r17	; 0x80218f <__flp+0x1>
    3850:	22 c0       	rjmp	.+68     	; 0x3896 <malloc+0x98>
    3852:	21 15       	cp	r18, r1
    3854:	31 05       	cpc	r19, r1
    3856:	19 f0       	breq	.+6      	; 0x385e <malloc+0x60>
    3858:	42 17       	cp	r20, r18
    385a:	53 07       	cpc	r21, r19
    385c:	18 f4       	brcc	.+6      	; 0x3864 <malloc+0x66>
    385e:	9a 01       	movw	r18, r20
    3860:	bd 01       	movw	r22, r26
    3862:	ef 01       	movw	r28, r30
    3864:	df 01       	movw	r26, r30
    3866:	f8 01       	movw	r30, r16
    3868:	db cf       	rjmp	.-74     	; 0x3820 <malloc+0x22>
    386a:	21 15       	cp	r18, r1
    386c:	31 05       	cpc	r19, r1
    386e:	f9 f0       	breq	.+62     	; 0x38ae <malloc+0xb0>
    3870:	28 1b       	sub	r18, r24
    3872:	39 0b       	sbc	r19, r25
    3874:	24 30       	cpi	r18, 0x04	; 4
    3876:	31 05       	cpc	r19, r1
    3878:	80 f4       	brcc	.+32     	; 0x389a <malloc+0x9c>
    387a:	8a 81       	ldd	r24, Y+2	; 0x02
    387c:	9b 81       	ldd	r25, Y+3	; 0x03
    387e:	61 15       	cp	r22, r1
    3880:	71 05       	cpc	r23, r1
    3882:	21 f0       	breq	.+8      	; 0x388c <malloc+0x8e>
    3884:	fb 01       	movw	r30, r22
    3886:	82 83       	std	Z+2, r24	; 0x02
    3888:	93 83       	std	Z+3, r25	; 0x03
    388a:	04 c0       	rjmp	.+8      	; 0x3894 <malloc+0x96>
    388c:	80 93 8e 21 	sts	0x218E, r24	; 0x80218e <__flp>
    3890:	90 93 8f 21 	sts	0x218F, r25	; 0x80218f <__flp+0x1>
    3894:	fe 01       	movw	r30, r28
    3896:	32 96       	adiw	r30, 0x02	; 2
    3898:	44 c0       	rjmp	.+136    	; 0x3922 <malloc+0x124>
    389a:	fe 01       	movw	r30, r28
    389c:	e2 0f       	add	r30, r18
    389e:	f3 1f       	adc	r31, r19
    38a0:	81 93       	st	Z+, r24
    38a2:	91 93       	st	Z+, r25
    38a4:	22 50       	subi	r18, 0x02	; 2
    38a6:	31 09       	sbc	r19, r1
    38a8:	28 83       	st	Y, r18
    38aa:	39 83       	std	Y+1, r19	; 0x01
    38ac:	3a c0       	rjmp	.+116    	; 0x3922 <malloc+0x124>
    38ae:	20 91 8c 21 	lds	r18, 0x218C	; 0x80218c <__brkval>
    38b2:	30 91 8d 21 	lds	r19, 0x218D	; 0x80218d <__brkval+0x1>
    38b6:	23 2b       	or	r18, r19
    38b8:	41 f4       	brne	.+16     	; 0x38ca <malloc+0xcc>
    38ba:	20 91 02 20 	lds	r18, 0x2002	; 0x802002 <__malloc_heap_start>
    38be:	30 91 03 20 	lds	r19, 0x2003	; 0x802003 <__malloc_heap_start+0x1>
    38c2:	20 93 8c 21 	sts	0x218C, r18	; 0x80218c <__brkval>
    38c6:	30 93 8d 21 	sts	0x218D, r19	; 0x80218d <__brkval+0x1>
    38ca:	20 91 00 20 	lds	r18, 0x2000	; 0x802000 <__data_start>
    38ce:	30 91 01 20 	lds	r19, 0x2001	; 0x802001 <__data_start+0x1>
    38d2:	21 15       	cp	r18, r1
    38d4:	31 05       	cpc	r19, r1
    38d6:	41 f4       	brne	.+16     	; 0x38e8 <malloc+0xea>
    38d8:	2d b7       	in	r18, 0x3d	; 61
    38da:	3e b7       	in	r19, 0x3e	; 62
    38dc:	40 91 04 20 	lds	r20, 0x2004	; 0x802004 <__malloc_margin>
    38e0:	50 91 05 20 	lds	r21, 0x2005	; 0x802005 <__malloc_margin+0x1>
    38e4:	24 1b       	sub	r18, r20
    38e6:	35 0b       	sbc	r19, r21
    38e8:	e0 91 8c 21 	lds	r30, 0x218C	; 0x80218c <__brkval>
    38ec:	f0 91 8d 21 	lds	r31, 0x218D	; 0x80218d <__brkval+0x1>
    38f0:	e2 17       	cp	r30, r18
    38f2:	f3 07       	cpc	r31, r19
    38f4:	a0 f4       	brcc	.+40     	; 0x391e <malloc+0x120>
    38f6:	2e 1b       	sub	r18, r30
    38f8:	3f 0b       	sbc	r19, r31
    38fa:	28 17       	cp	r18, r24
    38fc:	39 07       	cpc	r19, r25
    38fe:	78 f0       	brcs	.+30     	; 0x391e <malloc+0x120>
    3900:	ac 01       	movw	r20, r24
    3902:	4e 5f       	subi	r20, 0xFE	; 254
    3904:	5f 4f       	sbci	r21, 0xFF	; 255
    3906:	24 17       	cp	r18, r20
    3908:	35 07       	cpc	r19, r21
    390a:	48 f0       	brcs	.+18     	; 0x391e <malloc+0x120>
    390c:	4e 0f       	add	r20, r30
    390e:	5f 1f       	adc	r21, r31
    3910:	40 93 8c 21 	sts	0x218C, r20	; 0x80218c <__brkval>
    3914:	50 93 8d 21 	sts	0x218D, r21	; 0x80218d <__brkval+0x1>
    3918:	81 93       	st	Z+, r24
    391a:	91 93       	st	Z+, r25
    391c:	02 c0       	rjmp	.+4      	; 0x3922 <malloc+0x124>
    391e:	e0 e0       	ldi	r30, 0x00	; 0
    3920:	f0 e0       	ldi	r31, 0x00	; 0
    3922:	cf 01       	movw	r24, r30
    3924:	df 91       	pop	r29
    3926:	cf 91       	pop	r28
    3928:	1f 91       	pop	r17
    392a:	0f 91       	pop	r16
    392c:	08 95       	ret

0000392e <free>:
    392e:	cf 93       	push	r28
    3930:	df 93       	push	r29
    3932:	00 97       	sbiw	r24, 0x00	; 0
    3934:	09 f4       	brne	.+2      	; 0x3938 <free+0xa>
    3936:	81 c0       	rjmp	.+258    	; 0x3a3a <free+0x10c>
    3938:	fc 01       	movw	r30, r24
    393a:	32 97       	sbiw	r30, 0x02	; 2
    393c:	12 82       	std	Z+2, r1	; 0x02
    393e:	13 82       	std	Z+3, r1	; 0x03
    3940:	a0 91 8e 21 	lds	r26, 0x218E	; 0x80218e <__flp>
    3944:	b0 91 8f 21 	lds	r27, 0x218F	; 0x80218f <__flp+0x1>
    3948:	10 97       	sbiw	r26, 0x00	; 0
    394a:	81 f4       	brne	.+32     	; 0x396c <free+0x3e>
    394c:	20 81       	ld	r18, Z
    394e:	31 81       	ldd	r19, Z+1	; 0x01
    3950:	82 0f       	add	r24, r18
    3952:	93 1f       	adc	r25, r19
    3954:	20 91 8c 21 	lds	r18, 0x218C	; 0x80218c <__brkval>
    3958:	30 91 8d 21 	lds	r19, 0x218D	; 0x80218d <__brkval+0x1>
    395c:	28 17       	cp	r18, r24
    395e:	39 07       	cpc	r19, r25
    3960:	51 f5       	brne	.+84     	; 0x39b6 <free+0x88>
    3962:	e0 93 8c 21 	sts	0x218C, r30	; 0x80218c <__brkval>
    3966:	f0 93 8d 21 	sts	0x218D, r31	; 0x80218d <__brkval+0x1>
    396a:	67 c0       	rjmp	.+206    	; 0x3a3a <free+0x10c>
    396c:	ed 01       	movw	r28, r26
    396e:	20 e0       	ldi	r18, 0x00	; 0
    3970:	30 e0       	ldi	r19, 0x00	; 0
    3972:	ce 17       	cp	r28, r30
    3974:	df 07       	cpc	r29, r31
    3976:	40 f4       	brcc	.+16     	; 0x3988 <free+0x5a>
    3978:	4a 81       	ldd	r20, Y+2	; 0x02
    397a:	5b 81       	ldd	r21, Y+3	; 0x03
    397c:	9e 01       	movw	r18, r28
    397e:	41 15       	cp	r20, r1
    3980:	51 05       	cpc	r21, r1
    3982:	f1 f0       	breq	.+60     	; 0x39c0 <free+0x92>
    3984:	ea 01       	movw	r28, r20
    3986:	f5 cf       	rjmp	.-22     	; 0x3972 <free+0x44>
    3988:	c2 83       	std	Z+2, r28	; 0x02
    398a:	d3 83       	std	Z+3, r29	; 0x03
    398c:	40 81       	ld	r20, Z
    398e:	51 81       	ldd	r21, Z+1	; 0x01
    3990:	84 0f       	add	r24, r20
    3992:	95 1f       	adc	r25, r21
    3994:	c8 17       	cp	r28, r24
    3996:	d9 07       	cpc	r29, r25
    3998:	59 f4       	brne	.+22     	; 0x39b0 <free+0x82>
    399a:	88 81       	ld	r24, Y
    399c:	99 81       	ldd	r25, Y+1	; 0x01
    399e:	84 0f       	add	r24, r20
    39a0:	95 1f       	adc	r25, r21
    39a2:	02 96       	adiw	r24, 0x02	; 2
    39a4:	80 83       	st	Z, r24
    39a6:	91 83       	std	Z+1, r25	; 0x01
    39a8:	8a 81       	ldd	r24, Y+2	; 0x02
    39aa:	9b 81       	ldd	r25, Y+3	; 0x03
    39ac:	82 83       	std	Z+2, r24	; 0x02
    39ae:	93 83       	std	Z+3, r25	; 0x03
    39b0:	21 15       	cp	r18, r1
    39b2:	31 05       	cpc	r19, r1
    39b4:	29 f4       	brne	.+10     	; 0x39c0 <free+0x92>
    39b6:	e0 93 8e 21 	sts	0x218E, r30	; 0x80218e <__flp>
    39ba:	f0 93 8f 21 	sts	0x218F, r31	; 0x80218f <__flp+0x1>
    39be:	3d c0       	rjmp	.+122    	; 0x3a3a <free+0x10c>
    39c0:	e9 01       	movw	r28, r18
    39c2:	ea 83       	std	Y+2, r30	; 0x02
    39c4:	fb 83       	std	Y+3, r31	; 0x03
    39c6:	49 91       	ld	r20, Y+
    39c8:	59 91       	ld	r21, Y+
    39ca:	c4 0f       	add	r28, r20
    39cc:	d5 1f       	adc	r29, r21
    39ce:	ec 17       	cp	r30, r28
    39d0:	fd 07       	cpc	r31, r29
    39d2:	61 f4       	brne	.+24     	; 0x39ec <free+0xbe>
    39d4:	80 81       	ld	r24, Z
    39d6:	91 81       	ldd	r25, Z+1	; 0x01
    39d8:	84 0f       	add	r24, r20
    39da:	95 1f       	adc	r25, r21
    39dc:	02 96       	adiw	r24, 0x02	; 2
    39de:	e9 01       	movw	r28, r18
    39e0:	88 83       	st	Y, r24
    39e2:	99 83       	std	Y+1, r25	; 0x01
    39e4:	82 81       	ldd	r24, Z+2	; 0x02
    39e6:	93 81       	ldd	r25, Z+3	; 0x03
    39e8:	8a 83       	std	Y+2, r24	; 0x02
    39ea:	9b 83       	std	Y+3, r25	; 0x03
    39ec:	e0 e0       	ldi	r30, 0x00	; 0
    39ee:	f0 e0       	ldi	r31, 0x00	; 0
    39f0:	12 96       	adiw	r26, 0x02	; 2
    39f2:	8d 91       	ld	r24, X+
    39f4:	9c 91       	ld	r25, X
    39f6:	13 97       	sbiw	r26, 0x03	; 3
    39f8:	00 97       	sbiw	r24, 0x00	; 0
    39fa:	19 f0       	breq	.+6      	; 0x3a02 <free+0xd4>
    39fc:	fd 01       	movw	r30, r26
    39fe:	dc 01       	movw	r26, r24
    3a00:	f7 cf       	rjmp	.-18     	; 0x39f0 <free+0xc2>
    3a02:	8d 91       	ld	r24, X+
    3a04:	9c 91       	ld	r25, X
    3a06:	11 97       	sbiw	r26, 0x01	; 1
    3a08:	9d 01       	movw	r18, r26
    3a0a:	2e 5f       	subi	r18, 0xFE	; 254
    3a0c:	3f 4f       	sbci	r19, 0xFF	; 255
    3a0e:	82 0f       	add	r24, r18
    3a10:	93 1f       	adc	r25, r19
    3a12:	20 91 8c 21 	lds	r18, 0x218C	; 0x80218c <__brkval>
    3a16:	30 91 8d 21 	lds	r19, 0x218D	; 0x80218d <__brkval+0x1>
    3a1a:	28 17       	cp	r18, r24
    3a1c:	39 07       	cpc	r19, r25
    3a1e:	69 f4       	brne	.+26     	; 0x3a3a <free+0x10c>
    3a20:	30 97       	sbiw	r30, 0x00	; 0
    3a22:	29 f4       	brne	.+10     	; 0x3a2e <free+0x100>
    3a24:	10 92 8e 21 	sts	0x218E, r1	; 0x80218e <__flp>
    3a28:	10 92 8f 21 	sts	0x218F, r1	; 0x80218f <__flp+0x1>
    3a2c:	02 c0       	rjmp	.+4      	; 0x3a32 <free+0x104>
    3a2e:	12 82       	std	Z+2, r1	; 0x02
    3a30:	13 82       	std	Z+3, r1	; 0x03
    3a32:	a0 93 8c 21 	sts	0x218C, r26	; 0x80218c <__brkval>
    3a36:	b0 93 8d 21 	sts	0x218D, r27	; 0x80218d <__brkval+0x1>
    3a3a:	df 91       	pop	r29
    3a3c:	cf 91       	pop	r28
    3a3e:	08 95       	ret

00003a40 <isspace>:
    3a40:	91 11       	cpse	r25, r1
    3a42:	1f c1       	rjmp	.+574    	; 0x3c82 <__ctype_isfalse>
    3a44:	80 32       	cpi	r24, 0x20	; 32
    3a46:	19 f0       	breq	.+6      	; 0x3a4e <isspace+0xe>
    3a48:	89 50       	subi	r24, 0x09	; 9
    3a4a:	85 50       	subi	r24, 0x05	; 5
    3a4c:	d0 f7       	brcc	.-12     	; 0x3a42 <isspace+0x2>
    3a4e:	08 95       	ret

00003a50 <strchr_P>:
    3a50:	fc 01       	movw	r30, r24
    3a52:	05 90       	lpm	r0, Z+
    3a54:	06 16       	cp	r0, r22
    3a56:	21 f0       	breq	.+8      	; 0x3a60 <strchr_P+0x10>
    3a58:	00 20       	and	r0, r0
    3a5a:	d9 f7       	brne	.-10     	; 0x3a52 <strchr_P+0x2>
    3a5c:	c0 01       	movw	r24, r0
    3a5e:	08 95       	ret
    3a60:	31 97       	sbiw	r30, 0x01	; 1
    3a62:	cf 01       	movw	r24, r30
    3a64:	08 95       	ret

00003a66 <strnlen_P>:
    3a66:	fc 01       	movw	r30, r24
    3a68:	05 90       	lpm	r0, Z+
    3a6a:	61 50       	subi	r22, 0x01	; 1
    3a6c:	70 40       	sbci	r23, 0x00	; 0
    3a6e:	01 10       	cpse	r0, r1
    3a70:	d8 f7       	brcc	.-10     	; 0x3a68 <strnlen_P+0x2>
    3a72:	80 95       	com	r24
    3a74:	90 95       	com	r25
    3a76:	8e 0f       	add	r24, r30
    3a78:	9f 1f       	adc	r25, r31
    3a7a:	08 95       	ret

00003a7c <memset>:
    3a7c:	dc 01       	movw	r26, r24
    3a7e:	01 c0       	rjmp	.+2      	; 0x3a82 <memset+0x6>
    3a80:	6d 93       	st	X+, r22
    3a82:	41 50       	subi	r20, 0x01	; 1
    3a84:	50 40       	sbci	r21, 0x00	; 0
    3a86:	e0 f7       	brcc	.-8      	; 0x3a80 <memset+0x4>
    3a88:	08 95       	ret

00003a8a <strnlen>:
    3a8a:	fc 01       	movw	r30, r24
    3a8c:	61 50       	subi	r22, 0x01	; 1
    3a8e:	70 40       	sbci	r23, 0x00	; 0
    3a90:	01 90       	ld	r0, Z+
    3a92:	01 10       	cpse	r0, r1
    3a94:	d8 f7       	brcc	.-10     	; 0x3a8c <strnlen+0x2>
    3a96:	80 95       	com	r24
    3a98:	90 95       	com	r25
    3a9a:	8e 0f       	add	r24, r30
    3a9c:	9f 1f       	adc	r25, r31
    3a9e:	08 95       	ret

00003aa0 <fgetc>:
    3aa0:	cf 93       	push	r28
    3aa2:	df 93       	push	r29
    3aa4:	ec 01       	movw	r28, r24
    3aa6:	2b 81       	ldd	r18, Y+3	; 0x03
    3aa8:	20 ff       	sbrs	r18, 0
    3aaa:	33 c0       	rjmp	.+102    	; 0x3b12 <fgetc+0x72>
    3aac:	26 ff       	sbrs	r18, 6
    3aae:	0a c0       	rjmp	.+20     	; 0x3ac4 <fgetc+0x24>
    3ab0:	2f 7b       	andi	r18, 0xBF	; 191
    3ab2:	2b 83       	std	Y+3, r18	; 0x03
    3ab4:	8e 81       	ldd	r24, Y+6	; 0x06
    3ab6:	9f 81       	ldd	r25, Y+7	; 0x07
    3ab8:	01 96       	adiw	r24, 0x01	; 1
    3aba:	8e 83       	std	Y+6, r24	; 0x06
    3abc:	9f 83       	std	Y+7, r25	; 0x07
    3abe:	8a 81       	ldd	r24, Y+2	; 0x02
    3ac0:	90 e0       	ldi	r25, 0x00	; 0
    3ac2:	29 c0       	rjmp	.+82     	; 0x3b16 <fgetc+0x76>
    3ac4:	22 ff       	sbrs	r18, 2
    3ac6:	0f c0       	rjmp	.+30     	; 0x3ae6 <fgetc+0x46>
    3ac8:	e8 81       	ld	r30, Y
    3aca:	f9 81       	ldd	r31, Y+1	; 0x01
    3acc:	80 81       	ld	r24, Z
    3ace:	08 2e       	mov	r0, r24
    3ad0:	00 0c       	add	r0, r0
    3ad2:	99 0b       	sbc	r25, r25
    3ad4:	00 97       	sbiw	r24, 0x00	; 0
    3ad6:	19 f4       	brne	.+6      	; 0x3ade <fgetc+0x3e>
    3ad8:	20 62       	ori	r18, 0x20	; 32
    3ada:	2b 83       	std	Y+3, r18	; 0x03
    3adc:	1a c0       	rjmp	.+52     	; 0x3b12 <fgetc+0x72>
    3ade:	31 96       	adiw	r30, 0x01	; 1
    3ae0:	e8 83       	st	Y, r30
    3ae2:	f9 83       	std	Y+1, r31	; 0x01
    3ae4:	0e c0       	rjmp	.+28     	; 0x3b02 <fgetc+0x62>
    3ae6:	ea 85       	ldd	r30, Y+10	; 0x0a
    3ae8:	fb 85       	ldd	r31, Y+11	; 0x0b
    3aea:	19 95       	eicall
    3aec:	97 ff       	sbrs	r25, 7
    3aee:	09 c0       	rjmp	.+18     	; 0x3b02 <fgetc+0x62>
    3af0:	2b 81       	ldd	r18, Y+3	; 0x03
    3af2:	01 96       	adiw	r24, 0x01	; 1
    3af4:	11 f0       	breq	.+4      	; 0x3afa <fgetc+0x5a>
    3af6:	80 e2       	ldi	r24, 0x20	; 32
    3af8:	01 c0       	rjmp	.+2      	; 0x3afc <fgetc+0x5c>
    3afa:	80 e1       	ldi	r24, 0x10	; 16
    3afc:	82 2b       	or	r24, r18
    3afe:	8b 83       	std	Y+3, r24	; 0x03
    3b00:	08 c0       	rjmp	.+16     	; 0x3b12 <fgetc+0x72>
    3b02:	2e 81       	ldd	r18, Y+6	; 0x06
    3b04:	3f 81       	ldd	r19, Y+7	; 0x07
    3b06:	2f 5f       	subi	r18, 0xFF	; 255
    3b08:	3f 4f       	sbci	r19, 0xFF	; 255
    3b0a:	2e 83       	std	Y+6, r18	; 0x06
    3b0c:	3f 83       	std	Y+7, r19	; 0x07
    3b0e:	99 27       	eor	r25, r25
    3b10:	02 c0       	rjmp	.+4      	; 0x3b16 <fgetc+0x76>
    3b12:	8f ef       	ldi	r24, 0xFF	; 255
    3b14:	9f ef       	ldi	r25, 0xFF	; 255
    3b16:	df 91       	pop	r29
    3b18:	cf 91       	pop	r28
    3b1a:	08 95       	ret

00003b1c <fputc>:
    3b1c:	0f 93       	push	r16
    3b1e:	1f 93       	push	r17
    3b20:	cf 93       	push	r28
    3b22:	df 93       	push	r29
    3b24:	fb 01       	movw	r30, r22
    3b26:	23 81       	ldd	r18, Z+3	; 0x03
    3b28:	21 fd       	sbrc	r18, 1
    3b2a:	03 c0       	rjmp	.+6      	; 0x3b32 <fputc+0x16>
    3b2c:	8f ef       	ldi	r24, 0xFF	; 255
    3b2e:	9f ef       	ldi	r25, 0xFF	; 255
    3b30:	2c c0       	rjmp	.+88     	; 0x3b8a <fputc+0x6e>
    3b32:	22 ff       	sbrs	r18, 2
    3b34:	16 c0       	rjmp	.+44     	; 0x3b62 <fputc+0x46>
    3b36:	46 81       	ldd	r20, Z+6	; 0x06
    3b38:	57 81       	ldd	r21, Z+7	; 0x07
    3b3a:	24 81       	ldd	r18, Z+4	; 0x04
    3b3c:	35 81       	ldd	r19, Z+5	; 0x05
    3b3e:	42 17       	cp	r20, r18
    3b40:	53 07       	cpc	r21, r19
    3b42:	44 f4       	brge	.+16     	; 0x3b54 <fputc+0x38>
    3b44:	a0 81       	ld	r26, Z
    3b46:	b1 81       	ldd	r27, Z+1	; 0x01
    3b48:	9d 01       	movw	r18, r26
    3b4a:	2f 5f       	subi	r18, 0xFF	; 255
    3b4c:	3f 4f       	sbci	r19, 0xFF	; 255
    3b4e:	20 83       	st	Z, r18
    3b50:	31 83       	std	Z+1, r19	; 0x01
    3b52:	8c 93       	st	X, r24
    3b54:	26 81       	ldd	r18, Z+6	; 0x06
    3b56:	37 81       	ldd	r19, Z+7	; 0x07
    3b58:	2f 5f       	subi	r18, 0xFF	; 255
    3b5a:	3f 4f       	sbci	r19, 0xFF	; 255
    3b5c:	26 83       	std	Z+6, r18	; 0x06
    3b5e:	37 83       	std	Z+7, r19	; 0x07
    3b60:	14 c0       	rjmp	.+40     	; 0x3b8a <fputc+0x6e>
    3b62:	8b 01       	movw	r16, r22
    3b64:	ec 01       	movw	r28, r24
    3b66:	fb 01       	movw	r30, r22
    3b68:	00 84       	ldd	r0, Z+8	; 0x08
    3b6a:	f1 85       	ldd	r31, Z+9	; 0x09
    3b6c:	e0 2d       	mov	r30, r0
    3b6e:	19 95       	eicall
    3b70:	89 2b       	or	r24, r25
    3b72:	e1 f6       	brne	.-72     	; 0x3b2c <fputc+0x10>
    3b74:	d8 01       	movw	r26, r16
    3b76:	16 96       	adiw	r26, 0x06	; 6
    3b78:	8d 91       	ld	r24, X+
    3b7a:	9c 91       	ld	r25, X
    3b7c:	17 97       	sbiw	r26, 0x07	; 7
    3b7e:	01 96       	adiw	r24, 0x01	; 1
    3b80:	16 96       	adiw	r26, 0x06	; 6
    3b82:	8d 93       	st	X+, r24
    3b84:	9c 93       	st	X, r25
    3b86:	17 97       	sbiw	r26, 0x07	; 7
    3b88:	ce 01       	movw	r24, r28
    3b8a:	df 91       	pop	r29
    3b8c:	cf 91       	pop	r28
    3b8e:	1f 91       	pop	r17
    3b90:	0f 91       	pop	r16
    3b92:	08 95       	ret

00003b94 <ungetc>:
    3b94:	fb 01       	movw	r30, r22
    3b96:	23 81       	ldd	r18, Z+3	; 0x03
    3b98:	20 ff       	sbrs	r18, 0
    3b9a:	12 c0       	rjmp	.+36     	; 0x3bc0 <ungetc+0x2c>
    3b9c:	26 fd       	sbrc	r18, 6
    3b9e:	10 c0       	rjmp	.+32     	; 0x3bc0 <ungetc+0x2c>
    3ba0:	8f 3f       	cpi	r24, 0xFF	; 255
    3ba2:	3f ef       	ldi	r19, 0xFF	; 255
    3ba4:	93 07       	cpc	r25, r19
    3ba6:	61 f0       	breq	.+24     	; 0x3bc0 <ungetc+0x2c>
    3ba8:	82 83       	std	Z+2, r24	; 0x02
    3baa:	2f 7d       	andi	r18, 0xDF	; 223
    3bac:	20 64       	ori	r18, 0x40	; 64
    3bae:	23 83       	std	Z+3, r18	; 0x03
    3bb0:	26 81       	ldd	r18, Z+6	; 0x06
    3bb2:	37 81       	ldd	r19, Z+7	; 0x07
    3bb4:	21 50       	subi	r18, 0x01	; 1
    3bb6:	31 09       	sbc	r19, r1
    3bb8:	26 83       	std	Z+6, r18	; 0x06
    3bba:	37 83       	std	Z+7, r19	; 0x07
    3bbc:	99 27       	eor	r25, r25
    3bbe:	08 95       	ret
    3bc0:	8f ef       	ldi	r24, 0xFF	; 255
    3bc2:	9f ef       	ldi	r25, 0xFF	; 255
    3bc4:	08 95       	ret

00003bc6 <__ultoa_invert>:
    3bc6:	fa 01       	movw	r30, r20
    3bc8:	aa 27       	eor	r26, r26
    3bca:	28 30       	cpi	r18, 0x08	; 8
    3bcc:	51 f1       	breq	.+84     	; 0x3c22 <__ultoa_invert+0x5c>
    3bce:	20 31       	cpi	r18, 0x10	; 16
    3bd0:	81 f1       	breq	.+96     	; 0x3c32 <__ultoa_invert+0x6c>
    3bd2:	e8 94       	clt
    3bd4:	6f 93       	push	r22
    3bd6:	6e 7f       	andi	r22, 0xFE	; 254
    3bd8:	6e 5f       	subi	r22, 0xFE	; 254
    3bda:	7f 4f       	sbci	r23, 0xFF	; 255
    3bdc:	8f 4f       	sbci	r24, 0xFF	; 255
    3bde:	9f 4f       	sbci	r25, 0xFF	; 255
    3be0:	af 4f       	sbci	r26, 0xFF	; 255
    3be2:	b1 e0       	ldi	r27, 0x01	; 1
    3be4:	3e d0       	rcall	.+124    	; 0x3c62 <__ultoa_invert+0x9c>
    3be6:	b4 e0       	ldi	r27, 0x04	; 4
    3be8:	3c d0       	rcall	.+120    	; 0x3c62 <__ultoa_invert+0x9c>
    3bea:	67 0f       	add	r22, r23
    3bec:	78 1f       	adc	r23, r24
    3bee:	89 1f       	adc	r24, r25
    3bf0:	9a 1f       	adc	r25, r26
    3bf2:	a1 1d       	adc	r26, r1
    3bf4:	68 0f       	add	r22, r24
    3bf6:	79 1f       	adc	r23, r25
    3bf8:	8a 1f       	adc	r24, r26
    3bfa:	91 1d       	adc	r25, r1
    3bfc:	a1 1d       	adc	r26, r1
    3bfe:	6a 0f       	add	r22, r26
    3c00:	71 1d       	adc	r23, r1
    3c02:	81 1d       	adc	r24, r1
    3c04:	91 1d       	adc	r25, r1
    3c06:	a1 1d       	adc	r26, r1
    3c08:	20 d0       	rcall	.+64     	; 0x3c4a <__ultoa_invert+0x84>
    3c0a:	09 f4       	brne	.+2      	; 0x3c0e <__ultoa_invert+0x48>
    3c0c:	68 94       	set
    3c0e:	3f 91       	pop	r19
    3c10:	2a e0       	ldi	r18, 0x0A	; 10
    3c12:	26 9f       	mul	r18, r22
    3c14:	11 24       	eor	r1, r1
    3c16:	30 19       	sub	r19, r0
    3c18:	30 5d       	subi	r19, 0xD0	; 208
    3c1a:	31 93       	st	Z+, r19
    3c1c:	de f6       	brtc	.-74     	; 0x3bd4 <__ultoa_invert+0xe>
    3c1e:	cf 01       	movw	r24, r30
    3c20:	08 95       	ret
    3c22:	46 2f       	mov	r20, r22
    3c24:	47 70       	andi	r20, 0x07	; 7
    3c26:	40 5d       	subi	r20, 0xD0	; 208
    3c28:	41 93       	st	Z+, r20
    3c2a:	b3 e0       	ldi	r27, 0x03	; 3
    3c2c:	0f d0       	rcall	.+30     	; 0x3c4c <__ultoa_invert+0x86>
    3c2e:	c9 f7       	brne	.-14     	; 0x3c22 <__ultoa_invert+0x5c>
    3c30:	f6 cf       	rjmp	.-20     	; 0x3c1e <__ultoa_invert+0x58>
    3c32:	46 2f       	mov	r20, r22
    3c34:	4f 70       	andi	r20, 0x0F	; 15
    3c36:	40 5d       	subi	r20, 0xD0	; 208
    3c38:	4a 33       	cpi	r20, 0x3A	; 58
    3c3a:	18 f0       	brcs	.+6      	; 0x3c42 <__ultoa_invert+0x7c>
    3c3c:	49 5d       	subi	r20, 0xD9	; 217
    3c3e:	31 fd       	sbrc	r19, 1
    3c40:	40 52       	subi	r20, 0x20	; 32
    3c42:	41 93       	st	Z+, r20
    3c44:	02 d0       	rcall	.+4      	; 0x3c4a <__ultoa_invert+0x84>
    3c46:	a9 f7       	brne	.-22     	; 0x3c32 <__ultoa_invert+0x6c>
    3c48:	ea cf       	rjmp	.-44     	; 0x3c1e <__ultoa_invert+0x58>
    3c4a:	b4 e0       	ldi	r27, 0x04	; 4
    3c4c:	a6 95       	lsr	r26
    3c4e:	97 95       	ror	r25
    3c50:	87 95       	ror	r24
    3c52:	77 95       	ror	r23
    3c54:	67 95       	ror	r22
    3c56:	ba 95       	dec	r27
    3c58:	c9 f7       	brne	.-14     	; 0x3c4c <__ultoa_invert+0x86>
    3c5a:	00 97       	sbiw	r24, 0x00	; 0
    3c5c:	61 05       	cpc	r22, r1
    3c5e:	71 05       	cpc	r23, r1
    3c60:	08 95       	ret
    3c62:	9b 01       	movw	r18, r22
    3c64:	ac 01       	movw	r20, r24
    3c66:	0a 2e       	mov	r0, r26
    3c68:	06 94       	lsr	r0
    3c6a:	57 95       	ror	r21
    3c6c:	47 95       	ror	r20
    3c6e:	37 95       	ror	r19
    3c70:	27 95       	ror	r18
    3c72:	ba 95       	dec	r27
    3c74:	c9 f7       	brne	.-14     	; 0x3c68 <__ultoa_invert+0xa2>
    3c76:	62 0f       	add	r22, r18
    3c78:	73 1f       	adc	r23, r19
    3c7a:	84 1f       	adc	r24, r20
    3c7c:	95 1f       	adc	r25, r21
    3c7e:	a0 1d       	adc	r26, r0
    3c80:	08 95       	ret

00003c82 <__ctype_isfalse>:
    3c82:	99 27       	eor	r25, r25
    3c84:	88 27       	eor	r24, r24

00003c86 <__ctype_istrue>:
    3c86:	08 95       	ret

00003c88 <_exit>:
    3c88:	f8 94       	cli

00003c8a <__stop_program>:
    3c8a:	ff cf       	rjmp	.-2      	; 0x3c8a <__stop_program>
