
SkyFire.elf:     file format elf32-avr

Sections:
Idx Name          Size      VMA       LMA       File off  Algn
  0 .text         00005e9c  00000000  00000000  00000094  2**1
                  CONTENTS, ALLOC, LOAD, READONLY, CODE
  1 .data         000000ba  00802000  00005e9c  00005f30  2**0
                  CONTENTS, ALLOC, LOAD, DATA
  2 .bss          00000154  008020ba  008020ba  00005fea  2**0
                  ALLOC
  3 .comment      0000005c  00000000  00000000  00005fea  2**0
                  CONTENTS, READONLY
  4 .note.gnu.avr.deviceinfo 00000040  00000000  00000000  00006048  2**2
                  CONTENTS, READONLY
  5 .debug_aranges 000007c0  00000000  00000000  00006088  2**3
                  CONTENTS, READONLY, DEBUGGING
  6 .debug_info   0001bcad  00000000  00000000  00006848  2**0
                  CONTENTS, READONLY, DEBUGGING
  7 .debug_abbrev 000059a1  00000000  00000000  000224f5  2**0
                  CONTENTS, READONLY, DEBUGGING
  8 .debug_line   0000cd39  00000000  00000000  00027e96  2**0
                  CONTENTS, READONLY, DEBUGGING
  9 .debug_frame  00002108  00000000  00000000  00034bd0  2**2
                  CONTENTS, READONLY, DEBUGGING
 10 .debug_str    00039202  00000000  00000000  00036cd8  2**0
                  CONTENTS, READONLY, DEBUGGING
 11 .debug_loc    000076b6  00000000  00000000  0006feda  2**0
                  CONTENTS, READONLY, DEBUGGING
 12 .debug_ranges 00000730  00000000  00000000  00077590  2**3
                  CONTENTS, READONLY, DEBUGGING
 13 .debug_macro  0000e587  00000000  00000000  00077cc0  2**0
                  CONTENTS, READONLY, DEBUGGING

Disassembly of section .text:

00000000 <__vectors>:
       0:	57 c1       	rjmp	.+686    	; 0x2b0 <__ctors_end>
       2:	00 00       	nop
       4:	7b c1       	rjmp	.+758    	; 0x2fc <__bad_interrupt>
       6:	00 00       	nop
       8:	79 c1       	rjmp	.+754    	; 0x2fc <__bad_interrupt>
       a:	00 00       	nop
       c:	77 c1       	rjmp	.+750    	; 0x2fc <__bad_interrupt>
       e:	00 00       	nop
      10:	75 c1       	rjmp	.+746    	; 0x2fc <__bad_interrupt>
      12:	00 00       	nop
      14:	73 c1       	rjmp	.+742    	; 0x2fc <__bad_interrupt>
      16:	00 00       	nop
      18:	71 c1       	rjmp	.+738    	; 0x2fc <__bad_interrupt>
      1a:	00 00       	nop
      1c:	6f c1       	rjmp	.+734    	; 0x2fc <__bad_interrupt>
      1e:	00 00       	nop
      20:	6d c1       	rjmp	.+730    	; 0x2fc <__bad_interrupt>
      22:	00 00       	nop
      24:	6b c1       	rjmp	.+726    	; 0x2fc <__bad_interrupt>
      26:	00 00       	nop
      28:	69 c1       	rjmp	.+722    	; 0x2fc <__bad_interrupt>
      2a:	00 00       	nop
      2c:	67 c1       	rjmp	.+718    	; 0x2fc <__bad_interrupt>
      2e:	00 00       	nop
      30:	65 c1       	rjmp	.+714    	; 0x2fc <__bad_interrupt>
      32:	00 00       	nop
      34:	0c 94 1e 0a 	jmp	0x143c	; 0x143c <__vector_13>
      38:	f2 c3       	rjmp	.+2020   	; 0x81e <__vector_14>
      3a:	00 00       	nop
      3c:	28 c4       	rjmp	.+2128   	; 0x88e <__vector_15>
      3e:	00 00       	nop
      40:	5e c4       	rjmp	.+2236   	; 0x8fe <__vector_16>
      42:	00 00       	nop
      44:	94 c4       	rjmp	.+2344   	; 0x96e <__vector_17>
      46:	00 00       	nop
      48:	ca c4       	rjmp	.+2452   	; 0x9de <__vector_18>
      4a:	00 00       	nop
      4c:	00 c5       	rjmp	.+2560   	; 0xa4e <__vector_19>
      4e:	00 00       	nop
      50:	36 c5       	rjmp	.+2668   	; 0xabe <__vector_20>
      52:	00 00       	nop
      54:	6c c5       	rjmp	.+2776   	; 0xb2e <__vector_21>
      56:	00 00       	nop
      58:	a2 c5       	rjmp	.+2884   	; 0xb9e <__vector_22>
      5a:	00 00       	nop
      5c:	d8 c5       	rjmp	.+2992   	; 0xc0e <__vector_23>
      5e:	00 00       	nop
      60:	4d c1       	rjmp	.+666    	; 0x2fc <__bad_interrupt>
      62:	00 00       	nop
      64:	4b c1       	rjmp	.+662    	; 0x2fc <__bad_interrupt>
      66:	00 00       	nop
      68:	49 c1       	rjmp	.+658    	; 0x2fc <__bad_interrupt>
      6a:	00 00       	nop
      6c:	47 c1       	rjmp	.+654    	; 0x2fc <__bad_interrupt>
      6e:	00 00       	nop
      70:	45 c1       	rjmp	.+650    	; 0x2fc <__bad_interrupt>
      72:	00 00       	nop
      74:	43 c1       	rjmp	.+646    	; 0x2fc <__bad_interrupt>
      76:	00 00       	nop
      78:	41 c1       	rjmp	.+642    	; 0x2fc <__bad_interrupt>
      7a:	00 00       	nop
      7c:	3f c1       	rjmp	.+638    	; 0x2fc <__bad_interrupt>
      7e:	00 00       	nop
      80:	3d c1       	rjmp	.+634    	; 0x2fc <__bad_interrupt>
      82:	00 00       	nop
      84:	3b c1       	rjmp	.+630    	; 0x2fc <__bad_interrupt>
      86:	00 00       	nop
      88:	39 c1       	rjmp	.+626    	; 0x2fc <__bad_interrupt>
      8a:	00 00       	nop
      8c:	37 c1       	rjmp	.+622    	; 0x2fc <__bad_interrupt>
      8e:	00 00       	nop
      90:	35 c1       	rjmp	.+618    	; 0x2fc <__bad_interrupt>
      92:	00 00       	nop
      94:	33 c1       	rjmp	.+614    	; 0x2fc <__bad_interrupt>
      96:	00 00       	nop
      98:	31 c1       	rjmp	.+610    	; 0x2fc <__bad_interrupt>
      9a:	00 00       	nop
      9c:	2f c1       	rjmp	.+606    	; 0x2fc <__bad_interrupt>
      9e:	00 00       	nop
      a0:	2d c1       	rjmp	.+602    	; 0x2fc <__bad_interrupt>
      a2:	00 00       	nop
      a4:	2b c1       	rjmp	.+598    	; 0x2fc <__bad_interrupt>
      a6:	00 00       	nop
      a8:	29 c1       	rjmp	.+594    	; 0x2fc <__bad_interrupt>
      aa:	00 00       	nop
      ac:	27 c1       	rjmp	.+590    	; 0x2fc <__bad_interrupt>
      ae:	00 00       	nop
      b0:	25 c1       	rjmp	.+586    	; 0x2fc <__bad_interrupt>
      b2:	00 00       	nop
      b4:	23 c1       	rjmp	.+582    	; 0x2fc <__bad_interrupt>
      b6:	00 00       	nop
      b8:	0c 94 50 0a 	jmp	0x14a0	; 0x14a0 <__vector_46>
      bc:	0c 94 e7 1f 	jmp	0x3fce	; 0x3fce <__vector_47>
      c0:	0c 94 6f 08 	jmp	0x10de	; 0x10de <__vector_48>
      c4:	0c 94 a7 08 	jmp	0x114e	; 0x114e <__vector_49>
      c8:	0c 94 df 08 	jmp	0x11be	; 0x11be <__vector_50>
      cc:	0c 94 17 09 	jmp	0x122e	; 0x122e <__vector_51>
      d0:	0c 94 4f 09 	jmp	0x129e	; 0x129e <__vector_52>
      d4:	13 c1       	rjmp	.+550    	; 0x2fc <__bad_interrupt>
      d6:	00 00       	nop
      d8:	11 c1       	rjmp	.+546    	; 0x2fc <__bad_interrupt>
      da:	00 00       	nop
      dc:	0f c1       	rjmp	.+542    	; 0x2fc <__bad_interrupt>
      de:	00 00       	nop
      e0:	0d c1       	rjmp	.+538    	; 0x2fc <__bad_interrupt>
      e2:	00 00       	nop
      e4:	0b c1       	rjmp	.+534    	; 0x2fc <__bad_interrupt>
      e6:	00 00       	nop
      e8:	0c 94 06 20 	jmp	0x400c	; 0x400c <__vector_58>
      ec:	07 c1       	rjmp	.+526    	; 0x2fc <__bad_interrupt>
      ee:	00 00       	nop
      f0:	05 c1       	rjmp	.+522    	; 0x2fc <__bad_interrupt>
      f2:	00 00       	nop
      f4:	03 c1       	rjmp	.+518    	; 0x2fc <__bad_interrupt>
      f6:	00 00       	nop
      f8:	01 c1       	rjmp	.+514    	; 0x2fc <__bad_interrupt>
      fa:	00 00       	nop
      fc:	ff c0       	rjmp	.+510    	; 0x2fc <__bad_interrupt>
      fe:	00 00       	nop
     100:	fd c0       	rjmp	.+506    	; 0x2fc <__bad_interrupt>
     102:	00 00       	nop
     104:	fb c0       	rjmp	.+502    	; 0x2fc <__bad_interrupt>
     106:	00 00       	nop
     108:	f9 c0       	rjmp	.+498    	; 0x2fc <__bad_interrupt>
     10a:	00 00       	nop
     10c:	f7 c0       	rjmp	.+494    	; 0x2fc <__bad_interrupt>
     10e:	00 00       	nop
     110:	21 c1       	rjmp	.+578    	; 0x354 <__vector_68>
     112:	00 00       	nop
     114:	65 c1       	rjmp	.+714    	; 0x3e0 <__vector_69>
     116:	00 00       	nop
     118:	a9 c1       	rjmp	.+850    	; 0x46c <__vector_70>
     11a:	00 00       	nop
     11c:	8c c2       	rjmp	.+1304   	; 0x636 <__vector_71>
     11e:	00 00       	nop
     120:	c7 c2       	rjmp	.+1422   	; 0x6b0 <__vector_72>
     122:	00 00       	nop
     124:	02 c3       	rjmp	.+1540   	; 0x72a <__vector_73>
     126:	00 00       	nop
     128:	3d c3       	rjmp	.+1658   	; 0x7a4 <__vector_74>
     12a:	00 00       	nop
     12c:	e7 c0       	rjmp	.+462    	; 0x2fc <__bad_interrupt>
     12e:	00 00       	nop
     130:	e5 c0       	rjmp	.+458    	; 0x2fc <__bad_interrupt>
     132:	00 00       	nop
     134:	a4 c5       	rjmp	.+2888   	; 0xc7e <__vector_77>
     136:	00 00       	nop
     138:	da c5       	rjmp	.+2996   	; 0xcee <__vector_78>
     13a:	00 00       	nop
     13c:	10 c6       	rjmp	.+3104   	; 0xd5e <__vector_79>
     13e:	00 00       	nop
     140:	46 c6       	rjmp	.+3212   	; 0xdce <__vector_80>
     142:	00 00       	nop
     144:	7c c6       	rjmp	.+3320   	; 0xe3e <__vector_81>
     146:	00 00       	nop
     148:	b2 c6       	rjmp	.+3428   	; 0xeae <__vector_82>
     14a:	00 00       	nop
     14c:	e8 c6       	rjmp	.+3536   	; 0xf1e <__vector_83>
     14e:	00 00       	nop
     150:	1e c7       	rjmp	.+3644   	; 0xf8e <__vector_84>
     152:	00 00       	nop
     154:	54 c7       	rjmp	.+3752   	; 0xffe <__vector_85>
     156:	00 00       	nop
     158:	8a c7       	rjmp	.+3860   	; 0x106e <__vector_86>
     15a:	00 00       	nop
     15c:	cf c0       	rjmp	.+414    	; 0x2fc <__bad_interrupt>
     15e:	00 00       	nop
     160:	cd c0       	rjmp	.+410    	; 0x2fc <__bad_interrupt>
     162:	00 00       	nop
     164:	cb c0       	rjmp	.+406    	; 0x2fc <__bad_interrupt>
     166:	00 00       	nop
     168:	c9 c0       	rjmp	.+402    	; 0x2fc <__bad_interrupt>
     16a:	00 00       	nop
     16c:	0c 94 40 20 	jmp	0x4080	; 0x4080 <__vector_91>
     170:	c5 c0       	rjmp	.+394    	; 0x2fc <__bad_interrupt>
     172:	00 00       	nop
     174:	c3 c0       	rjmp	.+390    	; 0x2fc <__bad_interrupt>
     176:	00 00       	nop
     178:	c1 c0       	rjmp	.+386    	; 0x2fc <__bad_interrupt>
     17a:	00 00       	nop
     17c:	bf c0       	rjmp	.+382    	; 0x2fc <__bad_interrupt>
     17e:	00 00       	nop
     180:	bd c0       	rjmp	.+378    	; 0x2fc <__bad_interrupt>
     182:	00 00       	nop
     184:	bb c0       	rjmp	.+374    	; 0x2fc <__bad_interrupt>
     186:	00 00       	nop
     188:	b9 c0       	rjmp	.+370    	; 0x2fc <__bad_interrupt>
     18a:	00 00       	nop
     18c:	b7 c0       	rjmp	.+366    	; 0x2fc <__bad_interrupt>
     18e:	00 00       	nop
     190:	b5 c0       	rjmp	.+362    	; 0x2fc <__bad_interrupt>
     192:	00 00       	nop
     194:	b3 c0       	rjmp	.+358    	; 0x2fc <__bad_interrupt>
     196:	00 00       	nop
     198:	b1 c0       	rjmp	.+354    	; 0x2fc <__bad_interrupt>
     19a:	00 00       	nop
     19c:	af c0       	rjmp	.+350    	; 0x2fc <__bad_interrupt>
     19e:	00 00       	nop
     1a0:	ad c0       	rjmp	.+346    	; 0x2fc <__bad_interrupt>
     1a2:	00 00       	nop
     1a4:	ab c0       	rjmp	.+342    	; 0x2fc <__bad_interrupt>
     1a6:	00 00       	nop
     1a8:	a9 c0       	rjmp	.+338    	; 0x2fc <__bad_interrupt>
     1aa:	00 00       	nop
     1ac:	a7 c0       	rjmp	.+334    	; 0x2fc <__bad_interrupt>
     1ae:	00 00       	nop
     1b0:	a5 c0       	rjmp	.+330    	; 0x2fc <__bad_interrupt>
     1b2:	00 00       	nop
     1b4:	a3 c0       	rjmp	.+326    	; 0x2fc <__bad_interrupt>
     1b6:	00 00       	nop
     1b8:	a1 c0       	rjmp	.+322    	; 0x2fc <__bad_interrupt>
     1ba:	00 00       	nop
     1bc:	9f c0       	rjmp	.+318    	; 0x2fc <__bad_interrupt>
     1be:	00 00       	nop
     1c0:	9d c0       	rjmp	.+314    	; 0x2fc <__bad_interrupt>
     1c2:	00 00       	nop
     1c4:	9b c0       	rjmp	.+310    	; 0x2fc <__bad_interrupt>
     1c6:	00 00       	nop
     1c8:	99 c0       	rjmp	.+306    	; 0x2fc <__bad_interrupt>
     1ca:	00 00       	nop
     1cc:	97 c0       	rjmp	.+302    	; 0x2fc <__bad_interrupt>
     1ce:	00 00       	nop
     1d0:	95 c0       	rjmp	.+298    	; 0x2fc <__bad_interrupt>
     1d2:	00 00       	nop
     1d4:	93 c0       	rjmp	.+294    	; 0x2fc <__bad_interrupt>
     1d6:	00 00       	nop
     1d8:	91 c0       	rjmp	.+290    	; 0x2fc <__bad_interrupt>
     1da:	00 00       	nop
     1dc:	8f c0       	rjmp	.+286    	; 0x2fc <__bad_interrupt>
     1de:	00 00       	nop
     1e0:	8d c0       	rjmp	.+282    	; 0x2fc <__bad_interrupt>
     1e2:	00 00       	nop
     1e4:	8b c0       	rjmp	.+278    	; 0x2fc <__bad_interrupt>
     1e6:	00 00       	nop
     1e8:	89 c0       	rjmp	.+274    	; 0x2fc <__bad_interrupt>
     1ea:	00 00       	nop
     1ec:	87 c0       	rjmp	.+270    	; 0x2fc <__bad_interrupt>
     1ee:	00 00       	nop
     1f0:	85 c0       	rjmp	.+266    	; 0x2fc <__bad_interrupt>
     1f2:	00 00       	nop
     1f4:	83 c0       	rjmp	.+262    	; 0x2fc <__bad_interrupt>
     1f6:	00 00       	nop
     1f8:	81 c0       	rjmp	.+258    	; 0x2fc <__bad_interrupt>
     1fa:	00 00       	nop
     1fc:	26 1f       	adc	r18, r22
     1fe:	23 1f       	adc	r18, r19
     200:	20 1f       	adc	r18, r16
     202:	2c 1f       	adc	r18, r28
     204:	1d 1f       	adc	r17, r29
     206:	1b 1f       	adc	r17, r27
     208:	2e 1f       	adc	r18, r30
     20a:	2e 1f       	adc	r18, r30
     20c:	2e 1f       	adc	r18, r30
     20e:	2e 1f       	adc	r18, r30
     210:	2e 1f       	adc	r18, r30
     212:	2e 1f       	adc	r18, r30
     214:	2e 1f       	adc	r18, r30
     216:	2e 1f       	adc	r18, r30
     218:	2e 1f       	adc	r18, r30
     21a:	2e 1f       	adc	r18, r30
     21c:	2e 1f       	adc	r18, r30
     21e:	2e 1f       	adc	r18, r30
     220:	29 1f       	adc	r18, r25
     222:	07 63       	ori	r16, 0x37	; 55
     224:	42 36       	cpi	r20, 0x62	; 98
     226:	b7 9b       	sbis	0x16, 7	; 22
     228:	d8 a7       	std	Y+40, r29	; 0x28
     22a:	1a 39       	cpi	r17, 0x9A	; 154
     22c:	68 56       	subi	r22, 0x68	; 104
     22e:	18 ae       	std	Y+56, r1	; 0x38
     230:	ba ab       	std	Y+50, r27	; 0x32
     232:	55 8c       	ldd	r5, Z+29	; 0x1d
     234:	1d 3c       	cpi	r17, 0xCD	; 205
     236:	b7 cc       	rjmp	.-1682   	; 0xfffffba6 <__eeprom_end+0xff7efba6>
     238:	57 63       	ori	r21, 0x37	; 55
     23a:	bd 6d       	ori	r27, 0xDD	; 221
     23c:	ed fd       	.word	0xfded	; ????
     23e:	75 3e       	cpi	r23, 0xE5	; 229
     240:	f6 17       	cp	r31, r22
     242:	72 31       	cpi	r23, 0x12	; 18
     244:	bf 00       	.word	0x00bf	; ????
     246:	00 00       	nop
     248:	80 3f       	cpi	r24, 0xF0	; 240
     24a:	08 00       	.word	0x0008	; ????
     24c:	00 00       	nop
     24e:	be 92       	st	-X, r11
     250:	24 49       	sbci	r18, 0x94	; 148
     252:	12 3e       	cpi	r17, 0xE2	; 226
     254:	ab aa       	std	Y+51, r10	; 0x33
     256:	aa 2a       	or	r10, r26
     258:	be cd       	rjmp	.-1156   	; 0xfffffdd6 <__eeprom_end+0xff7efdd6>
     25a:	cc cc       	rjmp	.-1640   	; 0xfffffbf4 <__eeprom_end+0xff7efbf4>
     25c:	4c 3e       	cpi	r20, 0xEC	; 236
     25e:	00 00       	nop
     260:	00 80       	ld	r0, Z
     262:	be ab       	std	Y+54, r27	; 0x36
     264:	aa aa       	std	Y+50, r10	; 0x32
     266:	aa 3e       	cpi	r26, 0xEA	; 234
     268:	00 00       	nop
     26a:	00 00       	nop
     26c:	bf 00       	.word	0x00bf	; ????
     26e:	00 00       	nop
     270:	80 3f       	cpi	r24, 0xF0	; 240
     272:	00 00       	nop
     274:	00 00       	nop
     276:	00 08       	sbc	r0, r0
     278:	41 78       	andi	r20, 0x81	; 129
     27a:	d3 bb       	out	0x13, r29	; 19
     27c:	43 87       	std	Z+11, r20	; 0x0b
     27e:	d1 13       	cpse	r29, r17
     280:	3d 19       	sub	r19, r13
     282:	0e 3c       	cpi	r16, 0xCE	; 206
     284:	c3 bd       	out	0x23, r28	; 35
     286:	42 82       	std	Z+2, r4	; 0x02
     288:	ad 2b       	or	r26, r29
     28a:	3e 68       	ori	r19, 0x8E	; 142
     28c:	ec 82       	std	Y+4, r14	; 0x04
     28e:	76 be       	out	0x36, r7	; 54
     290:	d9 8f       	std	Y+25, r29	; 0x19
     292:	e1 a9       	ldd	r30, Z+49	; 0x31
     294:	3e 4c       	sbci	r19, 0xCE	; 206
     296:	80 ef       	ldi	r24, 0xF0	; 240
     298:	ff be       	out	0x3f, r15	; 63
     29a:	01 c4       	rjmp	.+2050   	; 0xa9e <__vector_19+0x50>
     29c:	ff 7f       	andi	r31, 0xFF	; 255
     29e:	3f 00       	.word	0x003f	; ????
     2a0:	00 00       	nop
	...

000002a4 <__trampolines_end>:
     2a4:	63 64       	ori	r22, 0x43	; 67
     2a6:	69 6e       	ori	r22, 0xE9	; 233
     2a8:	6f 70       	andi	r22, 0x0F	; 15
     2aa:	73 75       	andi	r23, 0x53	; 83
     2ac:	78 58       	subi	r23, 0x88	; 136
     2ae:	5b 00       	.word	0x005b	; ????

000002b0 <__ctors_end>:
     2b0:	11 24       	eor	r1, r1
     2b2:	1f be       	out	0x3f, r1	; 63
     2b4:	cf ef       	ldi	r28, 0xFF	; 255
     2b6:	cd bf       	out	0x3d, r28	; 61
     2b8:	df e3       	ldi	r29, 0x3F	; 63
     2ba:	de bf       	out	0x3e, r29	; 62
     2bc:	00 e0       	ldi	r16, 0x00	; 0
     2be:	0c bf       	out	0x3c, r16	; 60
     2c0:	18 be       	out	0x38, r1	; 56
     2c2:	19 be       	out	0x39, r1	; 57
     2c4:	1a be       	out	0x3a, r1	; 58
     2c6:	1b be       	out	0x3b, r1	; 59

000002c8 <__do_copy_data>:
     2c8:	10 e2       	ldi	r17, 0x20	; 32
     2ca:	a0 e0       	ldi	r26, 0x00	; 0
     2cc:	b0 e2       	ldi	r27, 0x20	; 32
     2ce:	ec e9       	ldi	r30, 0x9C	; 156
     2d0:	fe e5       	ldi	r31, 0x5E	; 94
     2d2:	00 e0       	ldi	r16, 0x00	; 0
     2d4:	0b bf       	out	0x3b, r16	; 59
     2d6:	02 c0       	rjmp	.+4      	; 0x2dc <__do_copy_data+0x14>
     2d8:	07 90       	elpm	r0, Z+
     2da:	0d 92       	st	X+, r0
     2dc:	aa 3b       	cpi	r26, 0xBA	; 186
     2de:	b1 07       	cpc	r27, r17
     2e0:	d9 f7       	brne	.-10     	; 0x2d8 <__do_copy_data+0x10>
     2e2:	1b be       	out	0x3b, r1	; 59

000002e4 <__do_clear_bss>:
     2e4:	22 e2       	ldi	r18, 0x22	; 34
     2e6:	aa eb       	ldi	r26, 0xBA	; 186
     2e8:	b0 e2       	ldi	r27, 0x20	; 32
     2ea:	01 c0       	rjmp	.+2      	; 0x2ee <.do_clear_bss_start>

000002ec <.do_clear_bss_loop>:
     2ec:	1d 92       	st	X+, r1

000002ee <.do_clear_bss_start>:
     2ee:	ae 30       	cpi	r26, 0x0E	; 14
     2f0:	b2 07       	cpc	r27, r18
     2f2:	e1 f7       	brne	.-8      	; 0x2ec <.do_clear_bss_loop>
     2f4:	0e 94 2f 1f 	call	0x3e5e	; 0x3e5e <main>
     2f8:	0c 94 4c 2f 	jmp	0x5e98	; 0x5e98 <_exit>

000002fc <__bad_interrupt>:
     2fc:	81 ce       	rjmp	.-766    	; 0x0 <__vectors>

000002fe <_read>:
#elif (defined(__GNUC__) && (XMEGA || MEGA) )

int _read (int *f); // Remove GCC compiler warning

int _read (int *f)
{
     2fe:	cf 93       	push	r28
     300:	df 93       	push	r29
     302:	1f 92       	push	r1
     304:	cd b7       	in	r28, 0x3d	; 61
     306:	de b7       	in	r29, 0x3e	; 62
	char c;
	ptr_get(stdio_base,&c);
     308:	80 91 5d 21 	lds	r24, 0x215D	; 0x80215d <stdio_base>
     30c:	90 91 5e 21 	lds	r25, 0x215E	; 0x80215e <stdio_base+0x1>
     310:	e0 91 59 21 	lds	r30, 0x2159	; 0x802159 <ptr_get>
     314:	f0 91 5a 21 	lds	r31, 0x215A	; 0x80215a <ptr_get+0x1>
     318:	be 01       	movw	r22, r28
     31a:	6f 5f       	subi	r22, 0xFF	; 255
     31c:	7f 4f       	sbci	r23, 0xFF	; 255
     31e:	19 95       	eicall
	return c;
     320:	89 81       	ldd	r24, Y+1	; 0x01
}
     322:	08 2e       	mov	r0, r24
     324:	00 0c       	add	r0, r0
     326:	99 0b       	sbc	r25, r25
     328:	0f 90       	pop	r0
     32a:	df 91       	pop	r29
     32c:	cf 91       	pop	r28
     32e:	08 95       	ret

00000330 <_write>:
#elif (defined(__GNUC__) && (XMEGA || MEGA))

int _write (char c, int *f);

int _write (char c, int *f)
{
     330:	68 2f       	mov	r22, r24
	if (ptr_put(stdio_base, c) < 0) {
     332:	80 91 5d 21 	lds	r24, 0x215D	; 0x80215d <stdio_base>
     336:	90 91 5e 21 	lds	r25, 0x215E	; 0x80215e <stdio_base+0x1>
     33a:	e0 91 5b 21 	lds	r30, 0x215B	; 0x80215b <ptr_put>
     33e:	f0 91 5c 21 	lds	r31, 0x215C	; 0x80215c <ptr_put+0x1>
     342:	19 95       	eicall
     344:	99 23       	and	r25, r25
     346:	1c f0       	brlt	.+6      	; 0x34e <_write+0x1e>
		return -1;
	}
	return 1;
     348:	81 e0       	ldi	r24, 0x01	; 1
     34a:	90 e0       	ldi	r25, 0x00	; 0
     34c:	08 95       	ret
int _write (char c, int *f);

int _write (char c, int *f)
{
	if (ptr_put(stdio_base, c) < 0) {
		return -1;
     34e:	8f ef       	ldi	r24, 0xFF	; 255
     350:	9f ef       	ldi	r25, 0xFF	; 255
	}
	return 1;
}
     352:	08 95       	ret

00000354 <__vector_68>:
		cpu_irq_restore(iflags);
		return;
	}

	cpu_irq_restore(iflags);
}
     354:	1f 92       	push	r1
     356:	0f 92       	push	r0
     358:	0f b6       	in	r0, 0x3f	; 63
     35a:	0f 92       	push	r0
     35c:	11 24       	eor	r1, r1
     35e:	08 b6       	in	r0, 0x38	; 56
     360:	0f 92       	push	r0
     362:	18 be       	out	0x38, r1	; 56
     364:	09 b6       	in	r0, 0x39	; 57
     366:	0f 92       	push	r0
     368:	19 be       	out	0x39, r1	; 57
     36a:	0b b6       	in	r0, 0x3b	; 59
     36c:	0f 92       	push	r0
     36e:	1b be       	out	0x3b, r1	; 59
     370:	2f 93       	push	r18
     372:	3f 93       	push	r19
     374:	4f 93       	push	r20
     376:	5f 93       	push	r21
     378:	6f 93       	push	r22
     37a:	7f 93       	push	r23
     37c:	8f 93       	push	r24
     37e:	9f 93       	push	r25
     380:	af 93       	push	r26
     382:	bf 93       	push	r27
     384:	ef 93       	push	r30
     386:	ff 93       	push	r31
     388:	e0 91 bb 20 	lds	r30, 0x20BB	; 0x8020bb <ac_aca_callback>
     38c:	f0 91 bc 20 	lds	r31, 0x20BC	; 0x8020bc <ac_aca_callback+0x1>
     390:	30 97       	sbiw	r30, 0x00	; 0
     392:	79 f0       	breq	.+30     	; 0x3b2 <__vector_68+0x5e>
     394:	80 91 87 03 	lds	r24, 0x0387	; 0x800387 <__TEXT_REGION_LENGTH__+0x700387>
     398:	84 ff       	sbrs	r24, 4
     39a:	06 c0       	rjmp	.+12     	; 0x3a8 <__vector_68+0x54>
     39c:	40 e0       	ldi	r20, 0x00	; 0
     39e:	60 e0       	ldi	r22, 0x00	; 0
     3a0:	80 e8       	ldi	r24, 0x80	; 128
     3a2:	93 e0       	ldi	r25, 0x03	; 3
     3a4:	19 95       	eicall
     3a6:	05 c0       	rjmp	.+10     	; 0x3b2 <__vector_68+0x5e>
     3a8:	40 e8       	ldi	r20, 0x80	; 128
     3aa:	60 e0       	ldi	r22, 0x00	; 0
     3ac:	80 e8       	ldi	r24, 0x80	; 128
     3ae:	93 e0       	ldi	r25, 0x03	; 3
     3b0:	19 95       	eicall
     3b2:	ff 91       	pop	r31
     3b4:	ef 91       	pop	r30
     3b6:	bf 91       	pop	r27
     3b8:	af 91       	pop	r26
     3ba:	9f 91       	pop	r25
     3bc:	8f 91       	pop	r24
     3be:	7f 91       	pop	r23
     3c0:	6f 91       	pop	r22
     3c2:	5f 91       	pop	r21
     3c4:	4f 91       	pop	r20
     3c6:	3f 91       	pop	r19
     3c8:	2f 91       	pop	r18
     3ca:	0f 90       	pop	r0
     3cc:	0b be       	out	0x3b, r0	; 59
     3ce:	0f 90       	pop	r0
     3d0:	09 be       	out	0x39, r0	; 57
     3d2:	0f 90       	pop	r0
     3d4:	08 be       	out	0x38, r0	; 56
     3d6:	0f 90       	pop	r0
     3d8:	0f be       	out	0x3f, r0	; 63
     3da:	0f 90       	pop	r0
     3dc:	1f 90       	pop	r1
     3de:	18 95       	reti

000003e0 <__vector_69>:
     3e0:	1f 92       	push	r1
     3e2:	0f 92       	push	r0
     3e4:	0f b6       	in	r0, 0x3f	; 63
     3e6:	0f 92       	push	r0
     3e8:	11 24       	eor	r1, r1
     3ea:	08 b6       	in	r0, 0x38	; 56
     3ec:	0f 92       	push	r0
     3ee:	18 be       	out	0x38, r1	; 56
     3f0:	09 b6       	in	r0, 0x39	; 57
     3f2:	0f 92       	push	r0
     3f4:	19 be       	out	0x39, r1	; 57
     3f6:	0b b6       	in	r0, 0x3b	; 59
     3f8:	0f 92       	push	r0
     3fa:	1b be       	out	0x3b, r1	; 59
     3fc:	2f 93       	push	r18
     3fe:	3f 93       	push	r19
     400:	4f 93       	push	r20
     402:	5f 93       	push	r21
     404:	6f 93       	push	r22
     406:	7f 93       	push	r23
     408:	8f 93       	push	r24
     40a:	9f 93       	push	r25
     40c:	af 93       	push	r26
     40e:	bf 93       	push	r27
     410:	ef 93       	push	r30
     412:	ff 93       	push	r31
     414:	e0 91 bb 20 	lds	r30, 0x20BB	; 0x8020bb <ac_aca_callback>
     418:	f0 91 bc 20 	lds	r31, 0x20BC	; 0x8020bc <ac_aca_callback+0x1>
     41c:	30 97       	sbiw	r30, 0x00	; 0
     41e:	79 f0       	breq	.+30     	; 0x43e <__LOCK_REGION_LENGTH__+0x3e>
     420:	80 91 87 03 	lds	r24, 0x0387	; 0x800387 <__TEXT_REGION_LENGTH__+0x700387>
     424:	85 ff       	sbrs	r24, 5
     426:	06 c0       	rjmp	.+12     	; 0x434 <__LOCK_REGION_LENGTH__+0x34>
     428:	40 e0       	ldi	r20, 0x00	; 0
     42a:	61 e0       	ldi	r22, 0x01	; 1
     42c:	80 e8       	ldi	r24, 0x80	; 128
     42e:	93 e0       	ldi	r25, 0x03	; 3
     430:	19 95       	eicall
     432:	05 c0       	rjmp	.+10     	; 0x43e <__LOCK_REGION_LENGTH__+0x3e>
     434:	40 e8       	ldi	r20, 0x80	; 128
     436:	61 e0       	ldi	r22, 0x01	; 1
     438:	80 e8       	ldi	r24, 0x80	; 128
     43a:	93 e0       	ldi	r25, 0x03	; 3
     43c:	19 95       	eicall
     43e:	ff 91       	pop	r31
     440:	ef 91       	pop	r30
     442:	bf 91       	pop	r27
     444:	af 91       	pop	r26
     446:	9f 91       	pop	r25
     448:	8f 91       	pop	r24
     44a:	7f 91       	pop	r23
     44c:	6f 91       	pop	r22
     44e:	5f 91       	pop	r21
     450:	4f 91       	pop	r20
     452:	3f 91       	pop	r19
     454:	2f 91       	pop	r18
     456:	0f 90       	pop	r0
     458:	0b be       	out	0x3b, r0	; 59
     45a:	0f 90       	pop	r0
     45c:	09 be       	out	0x39, r0	; 57
     45e:	0f 90       	pop	r0
     460:	08 be       	out	0x38, r0	; 56
     462:	0f 90       	pop	r0
     464:	0f be       	out	0x3f, r0	; 63
     466:	0f 90       	pop	r0
     468:	1f 90       	pop	r1
     46a:	18 95       	reti

0000046c <__vector_70>:
     46c:	1f 92       	push	r1
     46e:	0f 92       	push	r0
     470:	0f b6       	in	r0, 0x3f	; 63
     472:	0f 92       	push	r0
     474:	11 24       	eor	r1, r1
     476:	08 b6       	in	r0, 0x38	; 56
     478:	0f 92       	push	r0
     47a:	18 be       	out	0x38, r1	; 56
     47c:	09 b6       	in	r0, 0x39	; 57
     47e:	0f 92       	push	r0
     480:	19 be       	out	0x39, r1	; 57
     482:	0b b6       	in	r0, 0x3b	; 59
     484:	0f 92       	push	r0
     486:	1b be       	out	0x3b, r1	; 59
     488:	2f 93       	push	r18
     48a:	3f 93       	push	r19
     48c:	4f 93       	push	r20
     48e:	5f 93       	push	r21
     490:	6f 93       	push	r22
     492:	7f 93       	push	r23
     494:	8f 93       	push	r24
     496:	9f 93       	push	r25
     498:	af 93       	push	r26
     49a:	bf 93       	push	r27
     49c:	ef 93       	push	r30
     49e:	ff 93       	push	r31
     4a0:	e0 91 bb 20 	lds	r30, 0x20BB	; 0x8020bb <ac_aca_callback>
     4a4:	f0 91 bc 20 	lds	r31, 0x20BC	; 0x8020bc <ac_aca_callback+0x1>
     4a8:	30 97       	sbiw	r30, 0x00	; 0
     4aa:	39 f0       	breq	.+14     	; 0x4ba <__vector_70+0x4e>
     4ac:	40 91 87 03 	lds	r20, 0x0387	; 0x800387 <__TEXT_REGION_LENGTH__+0x700387>
     4b0:	40 7c       	andi	r20, 0xC0	; 192
     4b2:	60 e0       	ldi	r22, 0x00	; 0
     4b4:	80 e8       	ldi	r24, 0x80	; 128
     4b6:	93 e0       	ldi	r25, 0x03	; 3
     4b8:	19 95       	eicall
     4ba:	ff 91       	pop	r31
     4bc:	ef 91       	pop	r30
     4be:	bf 91       	pop	r27
     4c0:	af 91       	pop	r26
     4c2:	9f 91       	pop	r25
     4c4:	8f 91       	pop	r24
     4c6:	7f 91       	pop	r23
     4c8:	6f 91       	pop	r22
     4ca:	5f 91       	pop	r21
     4cc:	4f 91       	pop	r20
     4ce:	3f 91       	pop	r19
     4d0:	2f 91       	pop	r18
     4d2:	0f 90       	pop	r0
     4d4:	0b be       	out	0x3b, r0	; 59
     4d6:	0f 90       	pop	r0
     4d8:	09 be       	out	0x39, r0	; 57
     4da:	0f 90       	pop	r0
     4dc:	08 be       	out	0x38, r0	; 56
     4de:	0f 90       	pop	r0
     4e0:	0f be       	out	0x3f, r0	; 63
     4e2:	0f 90       	pop	r0
     4e4:	1f 90       	pop	r1
     4e6:	18 95       	reti

000004e8 <ac_write_config>:
     4e8:	cf 92       	push	r12
     4ea:	df 92       	push	r13
     4ec:	ef 92       	push	r14
     4ee:	ff 92       	push	r15
     4f0:	0f 93       	push	r16
     4f2:	1f 93       	push	r17
     4f4:	cf 93       	push	r28
     4f6:	df 93       	push	r29
     4f8:	1f 92       	push	r1
     4fa:	cd b7       	in	r28, 0x3d	; 61
     4fc:	de b7       	in	r29, 0x3e	; 62
     4fe:	2f b7       	in	r18, 0x3f	; 63
     500:	29 83       	std	Y+1, r18	; 0x01
     502:	f8 94       	cli
     504:	c9 80       	ldd	r12, Y+1	; 0x01
     506:	80 38       	cpi	r24, 0x80	; 128
     508:	23 e0       	ldi	r18, 0x03	; 3
     50a:	92 07       	cpc	r25, r18
     50c:	d9 f4       	brne	.+54     	; 0x544 <ac_write_config+0x5c>
     50e:	7a 01       	movw	r14, r20
     510:	d6 2e       	mov	r13, r22
     512:	8c 01       	movw	r16, r24
     514:	80 91 ba 20 	lds	r24, 0x20BA	; 0x8020ba <__data_end>
     518:	81 11       	cpse	r24, r1
     51a:	04 c0       	rjmp	.+8      	; 0x524 <ac_write_config+0x3c>
     51c:	61 e0       	ldi	r22, 0x01	; 1
     51e:	81 e0       	ldi	r24, 0x01	; 1
     520:	0e 94 a7 0f 	call	0x1f4e	; 0x1f4e <sysclk_enable_module>
     524:	80 91 ba 20 	lds	r24, 0x20BA	; 0x8020ba <__data_end>
     528:	8f 5f       	subi	r24, 0xFF	; 255
     52a:	80 93 ba 20 	sts	0x20BA, r24	; 0x8020ba <__data_end>
     52e:	f7 01       	movw	r30, r14
     530:	82 81       	ldd	r24, Z+2	; 0x02
     532:	f8 01       	movw	r30, r16
     534:	85 83       	std	Z+5, r24	; 0x05
     536:	f7 01       	movw	r30, r14
     538:	83 81       	ldd	r24, Z+3	; 0x03
     53a:	f8 01       	movw	r30, r16
     53c:	86 83       	std	Z+6, r24	; 0x06
     53e:	dd 20       	and	r13, r13
     540:	19 f0       	breq	.+6      	; 0x548 <ac_write_config+0x60>
     542:	0b c0       	rjmp	.+22     	; 0x55a <ac_write_config+0x72>
     544:	cf be       	out	0x3f, r12	; 63
     546:	1d c0       	rjmp	.+58     	; 0x582 <ac_write_config+0x9a>
     548:	f7 01       	movw	r30, r14
     54a:	81 81       	ldd	r24, Z+1	; 0x01
     54c:	f8 01       	movw	r30, r16
     54e:	82 83       	std	Z+2, r24	; 0x02
     550:	f7 01       	movw	r30, r14
     552:	80 81       	ld	r24, Z
     554:	f8 01       	movw	r30, r16
     556:	80 83       	st	Z, r24
     558:	08 c0       	rjmp	.+16     	; 0x56a <ac_write_config+0x82>
     55a:	f7 01       	movw	r30, r14
     55c:	81 81       	ldd	r24, Z+1	; 0x01
     55e:	f8 01       	movw	r30, r16
     560:	83 83       	std	Z+3, r24	; 0x03
     562:	f7 01       	movw	r30, r14
     564:	80 81       	ld	r24, Z
     566:	f8 01       	movw	r30, r16
     568:	81 83       	std	Z+1, r24	; 0x01
     56a:	80 91 ba 20 	lds	r24, 0x20BA	; 0x8020ba <__data_end>
     56e:	81 50       	subi	r24, 0x01	; 1
     570:	80 93 ba 20 	sts	0x20BA, r24	; 0x8020ba <__data_end>
     574:	81 11       	cpse	r24, r1
     576:	04 c0       	rjmp	.+8      	; 0x580 <ac_write_config+0x98>
     578:	61 e0       	ldi	r22, 0x01	; 1
     57a:	81 e0       	ldi	r24, 0x01	; 1
     57c:	0e 94 bd 0f 	call	0x1f7a	; 0x1f7a <sysclk_disable_module>
     580:	cf be       	out	0x3f, r12	; 63
     582:	0f 90       	pop	r0
     584:	df 91       	pop	r29
     586:	cf 91       	pop	r28
     588:	1f 91       	pop	r17
     58a:	0f 91       	pop	r16
     58c:	ff 90       	pop	r15
     58e:	ef 90       	pop	r14
     590:	df 90       	pop	r13
     592:	cf 90       	pop	r12
     594:	08 95       	ret

00000596 <ac_enable>:
     596:	ef 92       	push	r14
     598:	ff 92       	push	r15
     59a:	0f 93       	push	r16
     59c:	1f 93       	push	r17
     59e:	cf 93       	push	r28
     5a0:	df 93       	push	r29
     5a2:	1f 92       	push	r1
     5a4:	1f 92       	push	r1
     5a6:	cd b7       	in	r28, 0x3d	; 61
     5a8:	de b7       	in	r29, 0x3e	; 62
     5aa:	2f b7       	in	r18, 0x3f	; 63
     5ac:	2a 83       	std	Y+2, r18	; 0x02
     5ae:	f8 94       	cli
     5b0:	ea 80       	ldd	r14, Y+2	; 0x02
     5b2:	80 38       	cpi	r24, 0x80	; 128
     5b4:	23 e0       	ldi	r18, 0x03	; 3
     5b6:	92 07       	cpc	r25, r18
     5b8:	09 f5       	brne	.+66     	; 0x5fc <ac_enable+0x66>
     5ba:	f6 2e       	mov	r15, r22
     5bc:	8c 01       	movw	r16, r24
     5be:	80 91 ba 20 	lds	r24, 0x20BA	; 0x8020ba <__data_end>
     5c2:	81 11       	cpse	r24, r1
     5c4:	04 c0       	rjmp	.+8      	; 0x5ce <ac_enable+0x38>
     5c6:	61 e0       	ldi	r22, 0x01	; 1
     5c8:	81 e0       	ldi	r24, 0x01	; 1
     5ca:	0e 94 a7 0f 	call	0x1f4e	; 0x1f4e <sysclk_enable_module>
     5ce:	80 91 ba 20 	lds	r24, 0x20BA	; 0x8020ba <__data_end>
     5d2:	8f 5f       	subi	r24, 0xFF	; 255
     5d4:	80 93 ba 20 	sts	0x20BA, r24	; 0x8020ba <__data_end>
     5d8:	80 91 54 21 	lds	r24, 0x2154	; 0x802154 <sleepmgr_locks+0x1>
     5dc:	8f 3f       	cpi	r24, 0xFF	; 255
     5de:	09 f4       	brne	.+2      	; 0x5e2 <ac_enable+0x4c>
     5e0:	ff cf       	rjmp	.-2      	; 0x5e0 <ac_enable+0x4a>
     5e2:	8f b7       	in	r24, 0x3f	; 63
     5e4:	89 83       	std	Y+1, r24	; 0x01
     5e6:	f8 94       	cli
     5e8:	99 81       	ldd	r25, Y+1	; 0x01
     5ea:	e3 e5       	ldi	r30, 0x53	; 83
     5ec:	f1 e2       	ldi	r31, 0x21	; 33
     5ee:	81 81       	ldd	r24, Z+1	; 0x01
     5f0:	8f 5f       	subi	r24, 0xFF	; 255
     5f2:	81 83       	std	Z+1, r24	; 0x01
     5f4:	9f bf       	out	0x3f, r25	; 63
     5f6:	ff 20       	and	r15, r15
     5f8:	19 f0       	breq	.+6      	; 0x600 <ac_enable+0x6a>
     5fa:	07 c0       	rjmp	.+14     	; 0x60a <ac_enable+0x74>
     5fc:	ef be       	out	0x3f, r14	; 63
     5fe:	0a c0       	rjmp	.+20     	; 0x614 <ac_enable+0x7e>
     600:	f8 01       	movw	r30, r16
     602:	80 81       	ld	r24, Z
     604:	81 60       	ori	r24, 0x01	; 1
     606:	80 83       	st	Z, r24
     608:	04 c0       	rjmp	.+8      	; 0x612 <ac_enable+0x7c>
     60a:	f8 01       	movw	r30, r16
     60c:	81 81       	ldd	r24, Z+1	; 0x01
     60e:	81 60       	ori	r24, 0x01	; 1
     610:	81 83       	std	Z+1, r24	; 0x01
     612:	ef be       	out	0x3f, r14	; 63
     614:	0f 90       	pop	r0
     616:	0f 90       	pop	r0
     618:	df 91       	pop	r29
     61a:	cf 91       	pop	r28
     61c:	1f 91       	pop	r17
     61e:	0f 91       	pop	r16
     620:	ff 90       	pop	r15
     622:	ef 90       	pop	r14
     624:	08 95       	ret

00000626 <ac_set_interrupt_callback>:
 * \param callback Reference to a callback function
 */
void ac_set_interrupt_callback(AC_t *ac, ac_callback_t callback)
{
#ifdef ACA
	if (ac == &ACA) {
     626:	80 38       	cpi	r24, 0x80	; 128
     628:	93 40       	sbci	r25, 0x03	; 3
     62a:	21 f4       	brne	.+8      	; 0x634 <ac_set_interrupt_callback+0xe>
		ac_aca_callback = callback;
     62c:	60 93 bb 20 	sts	0x20BB, r22	; 0x8020bb <ac_aca_callback>
     630:	70 93 bc 20 	sts	0x20BC, r23	; 0x8020bc <ac_aca_callback+0x1>
     634:	08 95       	ret

00000636 <__vector_71>:
 *
 * Calls the callback function that has been set for the ADC when the channel's
 * interrupt flag is set, if its interrupt has been enabled.
 */
ISR(ADCA_CH0_vect)
{
     636:	1f 92       	push	r1
     638:	0f 92       	push	r0
     63a:	0f b6       	in	r0, 0x3f	; 63
     63c:	0f 92       	push	r0
     63e:	11 24       	eor	r1, r1
     640:	08 b6       	in	r0, 0x38	; 56
     642:	0f 92       	push	r0
     644:	18 be       	out	0x38, r1	; 56
     646:	09 b6       	in	r0, 0x39	; 57
     648:	0f 92       	push	r0
     64a:	19 be       	out	0x39, r1	; 57
     64c:	0b b6       	in	r0, 0x3b	; 59
     64e:	0f 92       	push	r0
     650:	1b be       	out	0x3b, r1	; 59
     652:	2f 93       	push	r18
     654:	3f 93       	push	r19
     656:	4f 93       	push	r20
     658:	5f 93       	push	r21
     65a:	6f 93       	push	r22
     65c:	7f 93       	push	r23
     65e:	8f 93       	push	r24
     660:	9f 93       	push	r25
     662:	af 93       	push	r26
     664:	bf 93       	push	r27
     666:	ef 93       	push	r30
     668:	ff 93       	push	r31
	adca_callback(&ADCA, ADC_CH0, adc_get_result(&ADCA, ADC_CH0));
     66a:	40 91 24 02 	lds	r20, 0x0224	; 0x800224 <__TEXT_REGION_LENGTH__+0x700224>
     66e:	50 91 25 02 	lds	r21, 0x0225	; 0x800225 <__TEXT_REGION_LENGTH__+0x700225>
     672:	e0 91 5f 21 	lds	r30, 0x215F	; 0x80215f <adca_callback>
     676:	f0 91 60 21 	lds	r31, 0x2160	; 0x802160 <adca_callback+0x1>
     67a:	61 e0       	ldi	r22, 0x01	; 1
     67c:	80 e0       	ldi	r24, 0x00	; 0
     67e:	92 e0       	ldi	r25, 0x02	; 2
     680:	19 95       	eicall
}
     682:	ff 91       	pop	r31
     684:	ef 91       	pop	r30
     686:	bf 91       	pop	r27
     688:	af 91       	pop	r26
     68a:	9f 91       	pop	r25
     68c:	8f 91       	pop	r24
     68e:	7f 91       	pop	r23
     690:	6f 91       	pop	r22
     692:	5f 91       	pop	r21
     694:	4f 91       	pop	r20
     696:	3f 91       	pop	r19
     698:	2f 91       	pop	r18
     69a:	0f 90       	pop	r0
     69c:	0b be       	out	0x3b, r0	; 59
     69e:	0f 90       	pop	r0
     6a0:	09 be       	out	0x39, r0	; 57
     6a2:	0f 90       	pop	r0
     6a4:	08 be       	out	0x38, r0	; 56
     6a6:	0f 90       	pop	r0
     6a8:	0f be       	out	0x3f, r0	; 63
     6aa:	0f 90       	pop	r0
     6ac:	1f 90       	pop	r1
     6ae:	18 95       	reti

000006b0 <__vector_72>:
 *
 * Calls the callback function that has been set for the ADC when the channel's
 * interrupt flag is set, if its interrupt has been enabled.
 */
ISR(ADCA_CH1_vect)
{
     6b0:	1f 92       	push	r1
     6b2:	0f 92       	push	r0
     6b4:	0f b6       	in	r0, 0x3f	; 63
     6b6:	0f 92       	push	r0
     6b8:	11 24       	eor	r1, r1
     6ba:	08 b6       	in	r0, 0x38	; 56
     6bc:	0f 92       	push	r0
     6be:	18 be       	out	0x38, r1	; 56
     6c0:	09 b6       	in	r0, 0x39	; 57
     6c2:	0f 92       	push	r0
     6c4:	19 be       	out	0x39, r1	; 57
     6c6:	0b b6       	in	r0, 0x3b	; 59
     6c8:	0f 92       	push	r0
     6ca:	1b be       	out	0x3b, r1	; 59
     6cc:	2f 93       	push	r18
     6ce:	3f 93       	push	r19
     6d0:	4f 93       	push	r20
     6d2:	5f 93       	push	r21
     6d4:	6f 93       	push	r22
     6d6:	7f 93       	push	r23
     6d8:	8f 93       	push	r24
     6da:	9f 93       	push	r25
     6dc:	af 93       	push	r26
     6de:	bf 93       	push	r27
     6e0:	ef 93       	push	r30
     6e2:	ff 93       	push	r31
	adca_callback(&ADCA, ADC_CH1, adc_get_result(&ADCA, ADC_CH1));
     6e4:	40 91 2c 02 	lds	r20, 0x022C	; 0x80022c <__TEXT_REGION_LENGTH__+0x70022c>
     6e8:	50 91 2d 02 	lds	r21, 0x022D	; 0x80022d <__TEXT_REGION_LENGTH__+0x70022d>
     6ec:	e0 91 5f 21 	lds	r30, 0x215F	; 0x80215f <adca_callback>
     6f0:	f0 91 60 21 	lds	r31, 0x2160	; 0x802160 <adca_callback+0x1>
     6f4:	62 e0       	ldi	r22, 0x02	; 2
     6f6:	80 e0       	ldi	r24, 0x00	; 0
     6f8:	92 e0       	ldi	r25, 0x02	; 2
     6fa:	19 95       	eicall
}
     6fc:	ff 91       	pop	r31
     6fe:	ef 91       	pop	r30
     700:	bf 91       	pop	r27
     702:	af 91       	pop	r26
     704:	9f 91       	pop	r25
     706:	8f 91       	pop	r24
     708:	7f 91       	pop	r23
     70a:	6f 91       	pop	r22
     70c:	5f 91       	pop	r21
     70e:	4f 91       	pop	r20
     710:	3f 91       	pop	r19
     712:	2f 91       	pop	r18
     714:	0f 90       	pop	r0
     716:	0b be       	out	0x3b, r0	; 59
     718:	0f 90       	pop	r0
     71a:	09 be       	out	0x39, r0	; 57
     71c:	0f 90       	pop	r0
     71e:	08 be       	out	0x38, r0	; 56
     720:	0f 90       	pop	r0
     722:	0f be       	out	0x3f, r0	; 63
     724:	0f 90       	pop	r0
     726:	1f 90       	pop	r1
     728:	18 95       	reti

0000072a <__vector_73>:
 *
 * Calls the callback function that has been set for the ADC when the channel's
 * interrupt flag is set, if its interrupt has been enabled.
 */
ISR(ADCA_CH2_vect)
{
     72a:	1f 92       	push	r1
     72c:	0f 92       	push	r0
     72e:	0f b6       	in	r0, 0x3f	; 63
     730:	0f 92       	push	r0
     732:	11 24       	eor	r1, r1
     734:	08 b6       	in	r0, 0x38	; 56
     736:	0f 92       	push	r0
     738:	18 be       	out	0x38, r1	; 56
     73a:	09 b6       	in	r0, 0x39	; 57
     73c:	0f 92       	push	r0
     73e:	19 be       	out	0x39, r1	; 57
     740:	0b b6       	in	r0, 0x3b	; 59
     742:	0f 92       	push	r0
     744:	1b be       	out	0x3b, r1	; 59
     746:	2f 93       	push	r18
     748:	3f 93       	push	r19
     74a:	4f 93       	push	r20
     74c:	5f 93       	push	r21
     74e:	6f 93       	push	r22
     750:	7f 93       	push	r23
     752:	8f 93       	push	r24
     754:	9f 93       	push	r25
     756:	af 93       	push	r26
     758:	bf 93       	push	r27
     75a:	ef 93       	push	r30
     75c:	ff 93       	push	r31
	adca_callback(&ADCA, ADC_CH2, adc_get_result(&ADCA, ADC_CH2));
     75e:	40 91 34 02 	lds	r20, 0x0234	; 0x800234 <__TEXT_REGION_LENGTH__+0x700234>
     762:	50 91 35 02 	lds	r21, 0x0235	; 0x800235 <__TEXT_REGION_LENGTH__+0x700235>
     766:	e0 91 5f 21 	lds	r30, 0x215F	; 0x80215f <adca_callback>
     76a:	f0 91 60 21 	lds	r31, 0x2160	; 0x802160 <adca_callback+0x1>
     76e:	64 e0       	ldi	r22, 0x04	; 4
     770:	80 e0       	ldi	r24, 0x00	; 0
     772:	92 e0       	ldi	r25, 0x02	; 2
     774:	19 95       	eicall
}
     776:	ff 91       	pop	r31
     778:	ef 91       	pop	r30
     77a:	bf 91       	pop	r27
     77c:	af 91       	pop	r26
     77e:	9f 91       	pop	r25
     780:	8f 91       	pop	r24
     782:	7f 91       	pop	r23
     784:	6f 91       	pop	r22
     786:	5f 91       	pop	r21
     788:	4f 91       	pop	r20
     78a:	3f 91       	pop	r19
     78c:	2f 91       	pop	r18
     78e:	0f 90       	pop	r0
     790:	0b be       	out	0x3b, r0	; 59
     792:	0f 90       	pop	r0
     794:	09 be       	out	0x39, r0	; 57
     796:	0f 90       	pop	r0
     798:	08 be       	out	0x38, r0	; 56
     79a:	0f 90       	pop	r0
     79c:	0f be       	out	0x3f, r0	; 63
     79e:	0f 90       	pop	r0
     7a0:	1f 90       	pop	r1
     7a2:	18 95       	reti

000007a4 <__vector_74>:
 *
 * Calls the callback function that has been set for the ADC when the channel's
 * interrupt flag is set, if its interrupt has been enabled.
 */
ISR(ADCA_CH3_vect)
{
     7a4:	1f 92       	push	r1
     7a6:	0f 92       	push	r0
     7a8:	0f b6       	in	r0, 0x3f	; 63
     7aa:	0f 92       	push	r0
     7ac:	11 24       	eor	r1, r1
     7ae:	08 b6       	in	r0, 0x38	; 56
     7b0:	0f 92       	push	r0
     7b2:	18 be       	out	0x38, r1	; 56
     7b4:	09 b6       	in	r0, 0x39	; 57
     7b6:	0f 92       	push	r0
     7b8:	19 be       	out	0x39, r1	; 57
     7ba:	0b b6       	in	r0, 0x3b	; 59
     7bc:	0f 92       	push	r0
     7be:	1b be       	out	0x3b, r1	; 59
     7c0:	2f 93       	push	r18
     7c2:	3f 93       	push	r19
     7c4:	4f 93       	push	r20
     7c6:	5f 93       	push	r21
     7c8:	6f 93       	push	r22
     7ca:	7f 93       	push	r23
     7cc:	8f 93       	push	r24
     7ce:	9f 93       	push	r25
     7d0:	af 93       	push	r26
     7d2:	bf 93       	push	r27
     7d4:	ef 93       	push	r30
     7d6:	ff 93       	push	r31
	adca_callback(&ADCA, ADC_CH3, adc_get_result(&ADCA, ADC_CH3));
     7d8:	40 91 3c 02 	lds	r20, 0x023C	; 0x80023c <__TEXT_REGION_LENGTH__+0x70023c>
     7dc:	50 91 3d 02 	lds	r21, 0x023D	; 0x80023d <__TEXT_REGION_LENGTH__+0x70023d>
     7e0:	e0 91 5f 21 	lds	r30, 0x215F	; 0x80215f <adca_callback>
     7e4:	f0 91 60 21 	lds	r31, 0x2160	; 0x802160 <adca_callback+0x1>
     7e8:	68 e0       	ldi	r22, 0x08	; 8
     7ea:	80 e0       	ldi	r24, 0x00	; 0
     7ec:	92 e0       	ldi	r25, 0x02	; 2
     7ee:	19 95       	eicall
}
     7f0:	ff 91       	pop	r31
     7f2:	ef 91       	pop	r30
     7f4:	bf 91       	pop	r27
     7f6:	af 91       	pop	r26
     7f8:	9f 91       	pop	r25
     7fa:	8f 91       	pop	r24
     7fc:	7f 91       	pop	r23
     7fe:	6f 91       	pop	r22
     800:	5f 91       	pop	r21
     802:	4f 91       	pop	r20
     804:	3f 91       	pop	r19
     806:	2f 91       	pop	r18
     808:	0f 90       	pop	r0
     80a:	0b be       	out	0x3b, r0	; 59
     80c:	0f 90       	pop	r0
     80e:	09 be       	out	0x39, r0	; 57
     810:	0f 90       	pop	r0
     812:	08 be       	out	0x38, r0	; 56
     814:	0f 90       	pop	r0
     816:	0f be       	out	0x3f, r0	; 63
     818:	0f 90       	pop	r0
     81a:	1f 90       	pop	r1
     81c:	18 95       	reti

0000081e <__vector_14>:
 *
 * This function will handle interrupt on Timer Counter CO overflow and
 * call the callback function.
 */
ISR(TCC0_OVF_vect)
{
     81e:	1f 92       	push	r1
     820:	0f 92       	push	r0
     822:	0f b6       	in	r0, 0x3f	; 63
     824:	0f 92       	push	r0
     826:	11 24       	eor	r1, r1
     828:	08 b6       	in	r0, 0x38	; 56
     82a:	0f 92       	push	r0
     82c:	18 be       	out	0x38, r1	; 56
     82e:	09 b6       	in	r0, 0x39	; 57
     830:	0f 92       	push	r0
     832:	19 be       	out	0x39, r1	; 57
     834:	0b b6       	in	r0, 0x3b	; 59
     836:	0f 92       	push	r0
     838:	1b be       	out	0x3b, r1	; 59
     83a:	2f 93       	push	r18
     83c:	3f 93       	push	r19
     83e:	4f 93       	push	r20
     840:	5f 93       	push	r21
     842:	6f 93       	push	r22
     844:	7f 93       	push	r23
     846:	8f 93       	push	r24
     848:	9f 93       	push	r25
     84a:	af 93       	push	r26
     84c:	bf 93       	push	r27
     84e:	ef 93       	push	r30
     850:	ff 93       	push	r31
	if (tc_tcc0_ovf_callback) {
     852:	e0 91 ed 20 	lds	r30, 0x20ED	; 0x8020ed <tc_tcc0_ovf_callback>
     856:	f0 91 ee 20 	lds	r31, 0x20EE	; 0x8020ee <tc_tcc0_ovf_callback+0x1>
     85a:	30 97       	sbiw	r30, 0x00	; 0
     85c:	09 f0       	breq	.+2      	; 0x860 <__vector_14+0x42>
		tc_tcc0_ovf_callback();
     85e:	19 95       	eicall
	}
}
     860:	ff 91       	pop	r31
     862:	ef 91       	pop	r30
     864:	bf 91       	pop	r27
     866:	af 91       	pop	r26
     868:	9f 91       	pop	r25
     86a:	8f 91       	pop	r24
     86c:	7f 91       	pop	r23
     86e:	6f 91       	pop	r22
     870:	5f 91       	pop	r21
     872:	4f 91       	pop	r20
     874:	3f 91       	pop	r19
     876:	2f 91       	pop	r18
     878:	0f 90       	pop	r0
     87a:	0b be       	out	0x3b, r0	; 59
     87c:	0f 90       	pop	r0
     87e:	09 be       	out	0x39, r0	; 57
     880:	0f 90       	pop	r0
     882:	08 be       	out	0x38, r0	; 56
     884:	0f 90       	pop	r0
     886:	0f be       	out	0x3f, r0	; 63
     888:	0f 90       	pop	r0
     88a:	1f 90       	pop	r1
     88c:	18 95       	reti

0000088e <__vector_15>:
 *
 * This function will handle interrupt on Timer Counter CO error and
 * call the callback function.
 */
ISR(TCC0_ERR_vect)
{
     88e:	1f 92       	push	r1
     890:	0f 92       	push	r0
     892:	0f b6       	in	r0, 0x3f	; 63
     894:	0f 92       	push	r0
     896:	11 24       	eor	r1, r1
     898:	08 b6       	in	r0, 0x38	; 56
     89a:	0f 92       	push	r0
     89c:	18 be       	out	0x38, r1	; 56
     89e:	09 b6       	in	r0, 0x39	; 57
     8a0:	0f 92       	push	r0
     8a2:	19 be       	out	0x39, r1	; 57
     8a4:	0b b6       	in	r0, 0x3b	; 59
     8a6:	0f 92       	push	r0
     8a8:	1b be       	out	0x3b, r1	; 59
     8aa:	2f 93       	push	r18
     8ac:	3f 93       	push	r19
     8ae:	4f 93       	push	r20
     8b0:	5f 93       	push	r21
     8b2:	6f 93       	push	r22
     8b4:	7f 93       	push	r23
     8b6:	8f 93       	push	r24
     8b8:	9f 93       	push	r25
     8ba:	af 93       	push	r26
     8bc:	bf 93       	push	r27
     8be:	ef 93       	push	r30
     8c0:	ff 93       	push	r31
	if (tc_tcc0_err_callback) {
     8c2:	e0 91 eb 20 	lds	r30, 0x20EB	; 0x8020eb <tc_tcc0_err_callback>
     8c6:	f0 91 ec 20 	lds	r31, 0x20EC	; 0x8020ec <tc_tcc0_err_callback+0x1>
     8ca:	30 97       	sbiw	r30, 0x00	; 0
     8cc:	09 f0       	breq	.+2      	; 0x8d0 <__vector_15+0x42>
		tc_tcc0_err_callback();
     8ce:	19 95       	eicall
	}
}
     8d0:	ff 91       	pop	r31
     8d2:	ef 91       	pop	r30
     8d4:	bf 91       	pop	r27
     8d6:	af 91       	pop	r26
     8d8:	9f 91       	pop	r25
     8da:	8f 91       	pop	r24
     8dc:	7f 91       	pop	r23
     8de:	6f 91       	pop	r22
     8e0:	5f 91       	pop	r21
     8e2:	4f 91       	pop	r20
     8e4:	3f 91       	pop	r19
     8e6:	2f 91       	pop	r18
     8e8:	0f 90       	pop	r0
     8ea:	0b be       	out	0x3b, r0	; 59
     8ec:	0f 90       	pop	r0
     8ee:	09 be       	out	0x39, r0	; 57
     8f0:	0f 90       	pop	r0
     8f2:	08 be       	out	0x38, r0	; 56
     8f4:	0f 90       	pop	r0
     8f6:	0f be       	out	0x3f, r0	; 63
     8f8:	0f 90       	pop	r0
     8fa:	1f 90       	pop	r1
     8fc:	18 95       	reti

000008fe <__vector_16>:
 *
 * This function will handle interrupt on Timer Counter CO Compare/CaptureA and
 * call the callback function.
 */
ISR(TCC0_CCA_vect)
{
     8fe:	1f 92       	push	r1
     900:	0f 92       	push	r0
     902:	0f b6       	in	r0, 0x3f	; 63
     904:	0f 92       	push	r0
     906:	11 24       	eor	r1, r1
     908:	08 b6       	in	r0, 0x38	; 56
     90a:	0f 92       	push	r0
     90c:	18 be       	out	0x38, r1	; 56
     90e:	09 b6       	in	r0, 0x39	; 57
     910:	0f 92       	push	r0
     912:	19 be       	out	0x39, r1	; 57
     914:	0b b6       	in	r0, 0x3b	; 59
     916:	0f 92       	push	r0
     918:	1b be       	out	0x3b, r1	; 59
     91a:	2f 93       	push	r18
     91c:	3f 93       	push	r19
     91e:	4f 93       	push	r20
     920:	5f 93       	push	r21
     922:	6f 93       	push	r22
     924:	7f 93       	push	r23
     926:	8f 93       	push	r24
     928:	9f 93       	push	r25
     92a:	af 93       	push	r26
     92c:	bf 93       	push	r27
     92e:	ef 93       	push	r30
     930:	ff 93       	push	r31
	if (tc_tcc0_cca_callback) {
     932:	e0 91 e9 20 	lds	r30, 0x20E9	; 0x8020e9 <tc_tcc0_cca_callback>
     936:	f0 91 ea 20 	lds	r31, 0x20EA	; 0x8020ea <tc_tcc0_cca_callback+0x1>
     93a:	30 97       	sbiw	r30, 0x00	; 0
     93c:	09 f0       	breq	.+2      	; 0x940 <__vector_16+0x42>
		tc_tcc0_cca_callback();
     93e:	19 95       	eicall
	}
}
     940:	ff 91       	pop	r31
     942:	ef 91       	pop	r30
     944:	bf 91       	pop	r27
     946:	af 91       	pop	r26
     948:	9f 91       	pop	r25
     94a:	8f 91       	pop	r24
     94c:	7f 91       	pop	r23
     94e:	6f 91       	pop	r22
     950:	5f 91       	pop	r21
     952:	4f 91       	pop	r20
     954:	3f 91       	pop	r19
     956:	2f 91       	pop	r18
     958:	0f 90       	pop	r0
     95a:	0b be       	out	0x3b, r0	; 59
     95c:	0f 90       	pop	r0
     95e:	09 be       	out	0x39, r0	; 57
     960:	0f 90       	pop	r0
     962:	08 be       	out	0x38, r0	; 56
     964:	0f 90       	pop	r0
     966:	0f be       	out	0x3f, r0	; 63
     968:	0f 90       	pop	r0
     96a:	1f 90       	pop	r1
     96c:	18 95       	reti

0000096e <__vector_17>:
 *
 * This function will handle interrupt on Timer Counter CO Compare/CaptureB and
 * call the callback function.
 */
ISR(TCC0_CCB_vect)
{
     96e:	1f 92       	push	r1
     970:	0f 92       	push	r0
     972:	0f b6       	in	r0, 0x3f	; 63
     974:	0f 92       	push	r0
     976:	11 24       	eor	r1, r1
     978:	08 b6       	in	r0, 0x38	; 56
     97a:	0f 92       	push	r0
     97c:	18 be       	out	0x38, r1	; 56
     97e:	09 b6       	in	r0, 0x39	; 57
     980:	0f 92       	push	r0
     982:	19 be       	out	0x39, r1	; 57
     984:	0b b6       	in	r0, 0x3b	; 59
     986:	0f 92       	push	r0
     988:	1b be       	out	0x3b, r1	; 59
     98a:	2f 93       	push	r18
     98c:	3f 93       	push	r19
     98e:	4f 93       	push	r20
     990:	5f 93       	push	r21
     992:	6f 93       	push	r22
     994:	7f 93       	push	r23
     996:	8f 93       	push	r24
     998:	9f 93       	push	r25
     99a:	af 93       	push	r26
     99c:	bf 93       	push	r27
     99e:	ef 93       	push	r30
     9a0:	ff 93       	push	r31
	if (tc_tcc0_ccb_callback) {
     9a2:	e0 91 e7 20 	lds	r30, 0x20E7	; 0x8020e7 <tc_tcc0_ccb_callback>
     9a6:	f0 91 e8 20 	lds	r31, 0x20E8	; 0x8020e8 <tc_tcc0_ccb_callback+0x1>
     9aa:	30 97       	sbiw	r30, 0x00	; 0
     9ac:	09 f0       	breq	.+2      	; 0x9b0 <__vector_17+0x42>
		tc_tcc0_ccb_callback();
     9ae:	19 95       	eicall
	}
}
     9b0:	ff 91       	pop	r31
     9b2:	ef 91       	pop	r30
     9b4:	bf 91       	pop	r27
     9b6:	af 91       	pop	r26
     9b8:	9f 91       	pop	r25
     9ba:	8f 91       	pop	r24
     9bc:	7f 91       	pop	r23
     9be:	6f 91       	pop	r22
     9c0:	5f 91       	pop	r21
     9c2:	4f 91       	pop	r20
     9c4:	3f 91       	pop	r19
     9c6:	2f 91       	pop	r18
     9c8:	0f 90       	pop	r0
     9ca:	0b be       	out	0x3b, r0	; 59
     9cc:	0f 90       	pop	r0
     9ce:	09 be       	out	0x39, r0	; 57
     9d0:	0f 90       	pop	r0
     9d2:	08 be       	out	0x38, r0	; 56
     9d4:	0f 90       	pop	r0
     9d6:	0f be       	out	0x3f, r0	; 63
     9d8:	0f 90       	pop	r0
     9da:	1f 90       	pop	r1
     9dc:	18 95       	reti

000009de <__vector_18>:
 *
 * This function will handle interrupt on Timer Counter CO Compare/CaptureC and
 * call the callback function.
 */
ISR(TCC0_CCC_vect)
{
     9de:	1f 92       	push	r1
     9e0:	0f 92       	push	r0
     9e2:	0f b6       	in	r0, 0x3f	; 63
     9e4:	0f 92       	push	r0
     9e6:	11 24       	eor	r1, r1
     9e8:	08 b6       	in	r0, 0x38	; 56
     9ea:	0f 92       	push	r0
     9ec:	18 be       	out	0x38, r1	; 56
     9ee:	09 b6       	in	r0, 0x39	; 57
     9f0:	0f 92       	push	r0
     9f2:	19 be       	out	0x39, r1	; 57
     9f4:	0b b6       	in	r0, 0x3b	; 59
     9f6:	0f 92       	push	r0
     9f8:	1b be       	out	0x3b, r1	; 59
     9fa:	2f 93       	push	r18
     9fc:	3f 93       	push	r19
     9fe:	4f 93       	push	r20
     a00:	5f 93       	push	r21
     a02:	6f 93       	push	r22
     a04:	7f 93       	push	r23
     a06:	8f 93       	push	r24
     a08:	9f 93       	push	r25
     a0a:	af 93       	push	r26
     a0c:	bf 93       	push	r27
     a0e:	ef 93       	push	r30
     a10:	ff 93       	push	r31
	if (tc_tcc0_ccc_callback) {
     a12:	e0 91 e5 20 	lds	r30, 0x20E5	; 0x8020e5 <tc_tcc0_ccc_callback>
     a16:	f0 91 e6 20 	lds	r31, 0x20E6	; 0x8020e6 <tc_tcc0_ccc_callback+0x1>
     a1a:	30 97       	sbiw	r30, 0x00	; 0
     a1c:	09 f0       	breq	.+2      	; 0xa20 <__vector_18+0x42>
		tc_tcc0_ccc_callback();
     a1e:	19 95       	eicall
	}
}
     a20:	ff 91       	pop	r31
     a22:	ef 91       	pop	r30
     a24:	bf 91       	pop	r27
     a26:	af 91       	pop	r26
     a28:	9f 91       	pop	r25
     a2a:	8f 91       	pop	r24
     a2c:	7f 91       	pop	r23
     a2e:	6f 91       	pop	r22
     a30:	5f 91       	pop	r21
     a32:	4f 91       	pop	r20
     a34:	3f 91       	pop	r19
     a36:	2f 91       	pop	r18
     a38:	0f 90       	pop	r0
     a3a:	0b be       	out	0x3b, r0	; 59
     a3c:	0f 90       	pop	r0
     a3e:	09 be       	out	0x39, r0	; 57
     a40:	0f 90       	pop	r0
     a42:	08 be       	out	0x38, r0	; 56
     a44:	0f 90       	pop	r0
     a46:	0f be       	out	0x3f, r0	; 63
     a48:	0f 90       	pop	r0
     a4a:	1f 90       	pop	r1
     a4c:	18 95       	reti

00000a4e <__vector_19>:
 *
 * This function will handle interrupt on Timer Counter CO Compare/CaptureD and
 * call the callback function.
 */
ISR(TCC0_CCD_vect)
{
     a4e:	1f 92       	push	r1
     a50:	0f 92       	push	r0
     a52:	0f b6       	in	r0, 0x3f	; 63
     a54:	0f 92       	push	r0
     a56:	11 24       	eor	r1, r1
     a58:	08 b6       	in	r0, 0x38	; 56
     a5a:	0f 92       	push	r0
     a5c:	18 be       	out	0x38, r1	; 56
     a5e:	09 b6       	in	r0, 0x39	; 57
     a60:	0f 92       	push	r0
     a62:	19 be       	out	0x39, r1	; 57
     a64:	0b b6       	in	r0, 0x3b	; 59
     a66:	0f 92       	push	r0
     a68:	1b be       	out	0x3b, r1	; 59
     a6a:	2f 93       	push	r18
     a6c:	3f 93       	push	r19
     a6e:	4f 93       	push	r20
     a70:	5f 93       	push	r21
     a72:	6f 93       	push	r22
     a74:	7f 93       	push	r23
     a76:	8f 93       	push	r24
     a78:	9f 93       	push	r25
     a7a:	af 93       	push	r26
     a7c:	bf 93       	push	r27
     a7e:	ef 93       	push	r30
     a80:	ff 93       	push	r31
	if (tc_tcc0_ccd_callback) {
     a82:	e0 91 e3 20 	lds	r30, 0x20E3	; 0x8020e3 <tc_tcc0_ccd_callback>
     a86:	f0 91 e4 20 	lds	r31, 0x20E4	; 0x8020e4 <tc_tcc0_ccd_callback+0x1>
     a8a:	30 97       	sbiw	r30, 0x00	; 0
     a8c:	09 f0       	breq	.+2      	; 0xa90 <__vector_19+0x42>
		tc_tcc0_ccd_callback();
     a8e:	19 95       	eicall
	}
}
     a90:	ff 91       	pop	r31
     a92:	ef 91       	pop	r30
     a94:	bf 91       	pop	r27
     a96:	af 91       	pop	r26
     a98:	9f 91       	pop	r25
     a9a:	8f 91       	pop	r24
     a9c:	7f 91       	pop	r23
     a9e:	6f 91       	pop	r22
     aa0:	5f 91       	pop	r21
     aa2:	4f 91       	pop	r20
     aa4:	3f 91       	pop	r19
     aa6:	2f 91       	pop	r18
     aa8:	0f 90       	pop	r0
     aaa:	0b be       	out	0x3b, r0	; 59
     aac:	0f 90       	pop	r0
     aae:	09 be       	out	0x39, r0	; 57
     ab0:	0f 90       	pop	r0
     ab2:	08 be       	out	0x38, r0	; 56
     ab4:	0f 90       	pop	r0
     ab6:	0f be       	out	0x3f, r0	; 63
     ab8:	0f 90       	pop	r0
     aba:	1f 90       	pop	r1
     abc:	18 95       	reti

00000abe <__vector_20>:
 *
 * This function will handle interrupt on Timer Counter C1 overflow and
 * call the callback function.
 */
ISR(TCC1_OVF_vect)
{
     abe:	1f 92       	push	r1
     ac0:	0f 92       	push	r0
     ac2:	0f b6       	in	r0, 0x3f	; 63
     ac4:	0f 92       	push	r0
     ac6:	11 24       	eor	r1, r1
     ac8:	08 b6       	in	r0, 0x38	; 56
     aca:	0f 92       	push	r0
     acc:	18 be       	out	0x38, r1	; 56
     ace:	09 b6       	in	r0, 0x39	; 57
     ad0:	0f 92       	push	r0
     ad2:	19 be       	out	0x39, r1	; 57
     ad4:	0b b6       	in	r0, 0x3b	; 59
     ad6:	0f 92       	push	r0
     ad8:	1b be       	out	0x3b, r1	; 59
     ada:	2f 93       	push	r18
     adc:	3f 93       	push	r19
     ade:	4f 93       	push	r20
     ae0:	5f 93       	push	r21
     ae2:	6f 93       	push	r22
     ae4:	7f 93       	push	r23
     ae6:	8f 93       	push	r24
     ae8:	9f 93       	push	r25
     aea:	af 93       	push	r26
     aec:	bf 93       	push	r27
     aee:	ef 93       	push	r30
     af0:	ff 93       	push	r31
	if (tc_tcc1_ovf_callback) {
     af2:	e0 91 e1 20 	lds	r30, 0x20E1	; 0x8020e1 <tc_tcc1_ovf_callback>
     af6:	f0 91 e2 20 	lds	r31, 0x20E2	; 0x8020e2 <tc_tcc1_ovf_callback+0x1>
     afa:	30 97       	sbiw	r30, 0x00	; 0
     afc:	09 f0       	breq	.+2      	; 0xb00 <__vector_20+0x42>
		tc_tcc1_ovf_callback();
     afe:	19 95       	eicall
	}
}
     b00:	ff 91       	pop	r31
     b02:	ef 91       	pop	r30
     b04:	bf 91       	pop	r27
     b06:	af 91       	pop	r26
     b08:	9f 91       	pop	r25
     b0a:	8f 91       	pop	r24
     b0c:	7f 91       	pop	r23
     b0e:	6f 91       	pop	r22
     b10:	5f 91       	pop	r21
     b12:	4f 91       	pop	r20
     b14:	3f 91       	pop	r19
     b16:	2f 91       	pop	r18
     b18:	0f 90       	pop	r0
     b1a:	0b be       	out	0x3b, r0	; 59
     b1c:	0f 90       	pop	r0
     b1e:	09 be       	out	0x39, r0	; 57
     b20:	0f 90       	pop	r0
     b22:	08 be       	out	0x38, r0	; 56
     b24:	0f 90       	pop	r0
     b26:	0f be       	out	0x3f, r0	; 63
     b28:	0f 90       	pop	r0
     b2a:	1f 90       	pop	r1
     b2c:	18 95       	reti

00000b2e <__vector_21>:
 *
 * This function will handle interrupt on Timer Counter C1 error and
 * call the callback function.
 */
ISR(TCC1_ERR_vect)
{
     b2e:	1f 92       	push	r1
     b30:	0f 92       	push	r0
     b32:	0f b6       	in	r0, 0x3f	; 63
     b34:	0f 92       	push	r0
     b36:	11 24       	eor	r1, r1
     b38:	08 b6       	in	r0, 0x38	; 56
     b3a:	0f 92       	push	r0
     b3c:	18 be       	out	0x38, r1	; 56
     b3e:	09 b6       	in	r0, 0x39	; 57
     b40:	0f 92       	push	r0
     b42:	19 be       	out	0x39, r1	; 57
     b44:	0b b6       	in	r0, 0x3b	; 59
     b46:	0f 92       	push	r0
     b48:	1b be       	out	0x3b, r1	; 59
     b4a:	2f 93       	push	r18
     b4c:	3f 93       	push	r19
     b4e:	4f 93       	push	r20
     b50:	5f 93       	push	r21
     b52:	6f 93       	push	r22
     b54:	7f 93       	push	r23
     b56:	8f 93       	push	r24
     b58:	9f 93       	push	r25
     b5a:	af 93       	push	r26
     b5c:	bf 93       	push	r27
     b5e:	ef 93       	push	r30
     b60:	ff 93       	push	r31
	if (tc_tcc1_err_callback) {
     b62:	e0 91 df 20 	lds	r30, 0x20DF	; 0x8020df <tc_tcc1_err_callback>
     b66:	f0 91 e0 20 	lds	r31, 0x20E0	; 0x8020e0 <tc_tcc1_err_callback+0x1>
     b6a:	30 97       	sbiw	r30, 0x00	; 0
     b6c:	09 f0       	breq	.+2      	; 0xb70 <__vector_21+0x42>
		tc_tcc1_err_callback();
     b6e:	19 95       	eicall
	}
}
     b70:	ff 91       	pop	r31
     b72:	ef 91       	pop	r30
     b74:	bf 91       	pop	r27
     b76:	af 91       	pop	r26
     b78:	9f 91       	pop	r25
     b7a:	8f 91       	pop	r24
     b7c:	7f 91       	pop	r23
     b7e:	6f 91       	pop	r22
     b80:	5f 91       	pop	r21
     b82:	4f 91       	pop	r20
     b84:	3f 91       	pop	r19
     b86:	2f 91       	pop	r18
     b88:	0f 90       	pop	r0
     b8a:	0b be       	out	0x3b, r0	; 59
     b8c:	0f 90       	pop	r0
     b8e:	09 be       	out	0x39, r0	; 57
     b90:	0f 90       	pop	r0
     b92:	08 be       	out	0x38, r0	; 56
     b94:	0f 90       	pop	r0
     b96:	0f be       	out	0x3f, r0	; 63
     b98:	0f 90       	pop	r0
     b9a:	1f 90       	pop	r1
     b9c:	18 95       	reti

00000b9e <__vector_22>:
 *
 * This function will handle interrupt on Timer Counter C1 Compare/CaptureA and
 * call the callback function.
 */
ISR(TCC1_CCA_vect)
{
     b9e:	1f 92       	push	r1
     ba0:	0f 92       	push	r0
     ba2:	0f b6       	in	r0, 0x3f	; 63
     ba4:	0f 92       	push	r0
     ba6:	11 24       	eor	r1, r1
     ba8:	08 b6       	in	r0, 0x38	; 56
     baa:	0f 92       	push	r0
     bac:	18 be       	out	0x38, r1	; 56
     bae:	09 b6       	in	r0, 0x39	; 57
     bb0:	0f 92       	push	r0
     bb2:	19 be       	out	0x39, r1	; 57
     bb4:	0b b6       	in	r0, 0x3b	; 59
     bb6:	0f 92       	push	r0
     bb8:	1b be       	out	0x3b, r1	; 59
     bba:	2f 93       	push	r18
     bbc:	3f 93       	push	r19
     bbe:	4f 93       	push	r20
     bc0:	5f 93       	push	r21
     bc2:	6f 93       	push	r22
     bc4:	7f 93       	push	r23
     bc6:	8f 93       	push	r24
     bc8:	9f 93       	push	r25
     bca:	af 93       	push	r26
     bcc:	bf 93       	push	r27
     bce:	ef 93       	push	r30
     bd0:	ff 93       	push	r31
	if (tc_tcc1_cca_callback) {
     bd2:	e0 91 dd 20 	lds	r30, 0x20DD	; 0x8020dd <tc_tcc1_cca_callback>
     bd6:	f0 91 de 20 	lds	r31, 0x20DE	; 0x8020de <tc_tcc1_cca_callback+0x1>
     bda:	30 97       	sbiw	r30, 0x00	; 0
     bdc:	09 f0       	breq	.+2      	; 0xbe0 <__vector_22+0x42>
		tc_tcc1_cca_callback();
     bde:	19 95       	eicall
	}
}
     be0:	ff 91       	pop	r31
     be2:	ef 91       	pop	r30
     be4:	bf 91       	pop	r27
     be6:	af 91       	pop	r26
     be8:	9f 91       	pop	r25
     bea:	8f 91       	pop	r24
     bec:	7f 91       	pop	r23
     bee:	6f 91       	pop	r22
     bf0:	5f 91       	pop	r21
     bf2:	4f 91       	pop	r20
     bf4:	3f 91       	pop	r19
     bf6:	2f 91       	pop	r18
     bf8:	0f 90       	pop	r0
     bfa:	0b be       	out	0x3b, r0	; 59
     bfc:	0f 90       	pop	r0
     bfe:	09 be       	out	0x39, r0	; 57
     c00:	0f 90       	pop	r0
     c02:	08 be       	out	0x38, r0	; 56
     c04:	0f 90       	pop	r0
     c06:	0f be       	out	0x3f, r0	; 63
     c08:	0f 90       	pop	r0
     c0a:	1f 90       	pop	r1
     c0c:	18 95       	reti

00000c0e <__vector_23>:
 *
 * This function will handle interrupt on Timer Counter C1 Compare/CaptureB and
 * call the callback function.
 */
ISR(TCC1_CCB_vect)
{
     c0e:	1f 92       	push	r1
     c10:	0f 92       	push	r0
     c12:	0f b6       	in	r0, 0x3f	; 63
     c14:	0f 92       	push	r0
     c16:	11 24       	eor	r1, r1
     c18:	08 b6       	in	r0, 0x38	; 56
     c1a:	0f 92       	push	r0
     c1c:	18 be       	out	0x38, r1	; 56
     c1e:	09 b6       	in	r0, 0x39	; 57
     c20:	0f 92       	push	r0
     c22:	19 be       	out	0x39, r1	; 57
     c24:	0b b6       	in	r0, 0x3b	; 59
     c26:	0f 92       	push	r0
     c28:	1b be       	out	0x3b, r1	; 59
     c2a:	2f 93       	push	r18
     c2c:	3f 93       	push	r19
     c2e:	4f 93       	push	r20
     c30:	5f 93       	push	r21
     c32:	6f 93       	push	r22
     c34:	7f 93       	push	r23
     c36:	8f 93       	push	r24
     c38:	9f 93       	push	r25
     c3a:	af 93       	push	r26
     c3c:	bf 93       	push	r27
     c3e:	ef 93       	push	r30
     c40:	ff 93       	push	r31
	if (tc_tcc1_ccb_callback) {
     c42:	e0 91 db 20 	lds	r30, 0x20DB	; 0x8020db <tc_tcc1_ccb_callback>
     c46:	f0 91 dc 20 	lds	r31, 0x20DC	; 0x8020dc <tc_tcc1_ccb_callback+0x1>
     c4a:	30 97       	sbiw	r30, 0x00	; 0
     c4c:	09 f0       	breq	.+2      	; 0xc50 <__vector_23+0x42>
		tc_tcc1_ccb_callback();
     c4e:	19 95       	eicall
	}
}
     c50:	ff 91       	pop	r31
     c52:	ef 91       	pop	r30
     c54:	bf 91       	pop	r27
     c56:	af 91       	pop	r26
     c58:	9f 91       	pop	r25
     c5a:	8f 91       	pop	r24
     c5c:	7f 91       	pop	r23
     c5e:	6f 91       	pop	r22
     c60:	5f 91       	pop	r21
     c62:	4f 91       	pop	r20
     c64:	3f 91       	pop	r19
     c66:	2f 91       	pop	r18
     c68:	0f 90       	pop	r0
     c6a:	0b be       	out	0x3b, r0	; 59
     c6c:	0f 90       	pop	r0
     c6e:	09 be       	out	0x39, r0	; 57
     c70:	0f 90       	pop	r0
     c72:	08 be       	out	0x38, r0	; 56
     c74:	0f 90       	pop	r0
     c76:	0f be       	out	0x3f, r0	; 63
     c78:	0f 90       	pop	r0
     c7a:	1f 90       	pop	r1
     c7c:	18 95       	reti

00000c7e <__vector_77>:
 *
 * This function will handle interrupt on Timer Counter D0 overflow and
 * call the callback function.
 */
ISR(TCD0_OVF_vect)
{
     c7e:	1f 92       	push	r1
     c80:	0f 92       	push	r0
     c82:	0f b6       	in	r0, 0x3f	; 63
     c84:	0f 92       	push	r0
     c86:	11 24       	eor	r1, r1
     c88:	08 b6       	in	r0, 0x38	; 56
     c8a:	0f 92       	push	r0
     c8c:	18 be       	out	0x38, r1	; 56
     c8e:	09 b6       	in	r0, 0x39	; 57
     c90:	0f 92       	push	r0
     c92:	19 be       	out	0x39, r1	; 57
     c94:	0b b6       	in	r0, 0x3b	; 59
     c96:	0f 92       	push	r0
     c98:	1b be       	out	0x3b, r1	; 59
     c9a:	2f 93       	push	r18
     c9c:	3f 93       	push	r19
     c9e:	4f 93       	push	r20
     ca0:	5f 93       	push	r21
     ca2:	6f 93       	push	r22
     ca4:	7f 93       	push	r23
     ca6:	8f 93       	push	r24
     ca8:	9f 93       	push	r25
     caa:	af 93       	push	r26
     cac:	bf 93       	push	r27
     cae:	ef 93       	push	r30
     cb0:	ff 93       	push	r31
	if (tc_tcd0_ovf_callback) {
     cb2:	e0 91 d9 20 	lds	r30, 0x20D9	; 0x8020d9 <tc_tcd0_ovf_callback>
     cb6:	f0 91 da 20 	lds	r31, 0x20DA	; 0x8020da <tc_tcd0_ovf_callback+0x1>
     cba:	30 97       	sbiw	r30, 0x00	; 0
     cbc:	09 f0       	breq	.+2      	; 0xcc0 <__vector_77+0x42>
		tc_tcd0_ovf_callback();
     cbe:	19 95       	eicall
	}
}
     cc0:	ff 91       	pop	r31
     cc2:	ef 91       	pop	r30
     cc4:	bf 91       	pop	r27
     cc6:	af 91       	pop	r26
     cc8:	9f 91       	pop	r25
     cca:	8f 91       	pop	r24
     ccc:	7f 91       	pop	r23
     cce:	6f 91       	pop	r22
     cd0:	5f 91       	pop	r21
     cd2:	4f 91       	pop	r20
     cd4:	3f 91       	pop	r19
     cd6:	2f 91       	pop	r18
     cd8:	0f 90       	pop	r0
     cda:	0b be       	out	0x3b, r0	; 59
     cdc:	0f 90       	pop	r0
     cde:	09 be       	out	0x39, r0	; 57
     ce0:	0f 90       	pop	r0
     ce2:	08 be       	out	0x38, r0	; 56
     ce4:	0f 90       	pop	r0
     ce6:	0f be       	out	0x3f, r0	; 63
     ce8:	0f 90       	pop	r0
     cea:	1f 90       	pop	r1
     cec:	18 95       	reti

00000cee <__vector_78>:
 *
 * This function will handle interrupt on Timer Counter D0 error and
 * call the callback function.
 */
ISR(TCD0_ERR_vect)
{
     cee:	1f 92       	push	r1
     cf0:	0f 92       	push	r0
     cf2:	0f b6       	in	r0, 0x3f	; 63
     cf4:	0f 92       	push	r0
     cf6:	11 24       	eor	r1, r1
     cf8:	08 b6       	in	r0, 0x38	; 56
     cfa:	0f 92       	push	r0
     cfc:	18 be       	out	0x38, r1	; 56
     cfe:	09 b6       	in	r0, 0x39	; 57
     d00:	0f 92       	push	r0
     d02:	19 be       	out	0x39, r1	; 57
     d04:	0b b6       	in	r0, 0x3b	; 59
     d06:	0f 92       	push	r0
     d08:	1b be       	out	0x3b, r1	; 59
     d0a:	2f 93       	push	r18
     d0c:	3f 93       	push	r19
     d0e:	4f 93       	push	r20
     d10:	5f 93       	push	r21
     d12:	6f 93       	push	r22
     d14:	7f 93       	push	r23
     d16:	8f 93       	push	r24
     d18:	9f 93       	push	r25
     d1a:	af 93       	push	r26
     d1c:	bf 93       	push	r27
     d1e:	ef 93       	push	r30
     d20:	ff 93       	push	r31
	if (tc_tcd0_err_callback) {
     d22:	e0 91 d7 20 	lds	r30, 0x20D7	; 0x8020d7 <tc_tcd0_err_callback>
     d26:	f0 91 d8 20 	lds	r31, 0x20D8	; 0x8020d8 <tc_tcd0_err_callback+0x1>
     d2a:	30 97       	sbiw	r30, 0x00	; 0
     d2c:	09 f0       	breq	.+2      	; 0xd30 <__vector_78+0x42>
		tc_tcd0_err_callback();
     d2e:	19 95       	eicall
	}
}
     d30:	ff 91       	pop	r31
     d32:	ef 91       	pop	r30
     d34:	bf 91       	pop	r27
     d36:	af 91       	pop	r26
     d38:	9f 91       	pop	r25
     d3a:	8f 91       	pop	r24
     d3c:	7f 91       	pop	r23
     d3e:	6f 91       	pop	r22
     d40:	5f 91       	pop	r21
     d42:	4f 91       	pop	r20
     d44:	3f 91       	pop	r19
     d46:	2f 91       	pop	r18
     d48:	0f 90       	pop	r0
     d4a:	0b be       	out	0x3b, r0	; 59
     d4c:	0f 90       	pop	r0
     d4e:	09 be       	out	0x39, r0	; 57
     d50:	0f 90       	pop	r0
     d52:	08 be       	out	0x38, r0	; 56
     d54:	0f 90       	pop	r0
     d56:	0f be       	out	0x3f, r0	; 63
     d58:	0f 90       	pop	r0
     d5a:	1f 90       	pop	r1
     d5c:	18 95       	reti

00000d5e <__vector_79>:
 *
 * This function will handle interrupt on Timer Counter D0 Compare/CaptureA and
 * call the callback function.
 */
ISR(TCD0_CCA_vect)
{
     d5e:	1f 92       	push	r1
     d60:	0f 92       	push	r0
     d62:	0f b6       	in	r0, 0x3f	; 63
     d64:	0f 92       	push	r0
     d66:	11 24       	eor	r1, r1
     d68:	08 b6       	in	r0, 0x38	; 56
     d6a:	0f 92       	push	r0
     d6c:	18 be       	out	0x38, r1	; 56
     d6e:	09 b6       	in	r0, 0x39	; 57
     d70:	0f 92       	push	r0
     d72:	19 be       	out	0x39, r1	; 57
     d74:	0b b6       	in	r0, 0x3b	; 59
     d76:	0f 92       	push	r0
     d78:	1b be       	out	0x3b, r1	; 59
     d7a:	2f 93       	push	r18
     d7c:	3f 93       	push	r19
     d7e:	4f 93       	push	r20
     d80:	5f 93       	push	r21
     d82:	6f 93       	push	r22
     d84:	7f 93       	push	r23
     d86:	8f 93       	push	r24
     d88:	9f 93       	push	r25
     d8a:	af 93       	push	r26
     d8c:	bf 93       	push	r27
     d8e:	ef 93       	push	r30
     d90:	ff 93       	push	r31
	if (tc_tcd0_cca_callback) {
     d92:	e0 91 d5 20 	lds	r30, 0x20D5	; 0x8020d5 <tc_tcd0_cca_callback>
     d96:	f0 91 d6 20 	lds	r31, 0x20D6	; 0x8020d6 <tc_tcd0_cca_callback+0x1>
     d9a:	30 97       	sbiw	r30, 0x00	; 0
     d9c:	09 f0       	breq	.+2      	; 0xda0 <__vector_79+0x42>
		tc_tcd0_cca_callback();
     d9e:	19 95       	eicall
	}
}
     da0:	ff 91       	pop	r31
     da2:	ef 91       	pop	r30
     da4:	bf 91       	pop	r27
     da6:	af 91       	pop	r26
     da8:	9f 91       	pop	r25
     daa:	8f 91       	pop	r24
     dac:	7f 91       	pop	r23
     dae:	6f 91       	pop	r22
     db0:	5f 91       	pop	r21
     db2:	4f 91       	pop	r20
     db4:	3f 91       	pop	r19
     db6:	2f 91       	pop	r18
     db8:	0f 90       	pop	r0
     dba:	0b be       	out	0x3b, r0	; 59
     dbc:	0f 90       	pop	r0
     dbe:	09 be       	out	0x39, r0	; 57
     dc0:	0f 90       	pop	r0
     dc2:	08 be       	out	0x38, r0	; 56
     dc4:	0f 90       	pop	r0
     dc6:	0f be       	out	0x3f, r0	; 63
     dc8:	0f 90       	pop	r0
     dca:	1f 90       	pop	r1
     dcc:	18 95       	reti

00000dce <__vector_80>:
 *
 * This function will handle interrupt on Timer Counter D0 Compare/CaptureB and
 * call the callback function.
 */
ISR(TCD0_CCB_vect)
{
     dce:	1f 92       	push	r1
     dd0:	0f 92       	push	r0
     dd2:	0f b6       	in	r0, 0x3f	; 63
     dd4:	0f 92       	push	r0
     dd6:	11 24       	eor	r1, r1
     dd8:	08 b6       	in	r0, 0x38	; 56
     dda:	0f 92       	push	r0
     ddc:	18 be       	out	0x38, r1	; 56
     dde:	09 b6       	in	r0, 0x39	; 57
     de0:	0f 92       	push	r0
     de2:	19 be       	out	0x39, r1	; 57
     de4:	0b b6       	in	r0, 0x3b	; 59
     de6:	0f 92       	push	r0
     de8:	1b be       	out	0x3b, r1	; 59
     dea:	2f 93       	push	r18
     dec:	3f 93       	push	r19
     dee:	4f 93       	push	r20
     df0:	5f 93       	push	r21
     df2:	6f 93       	push	r22
     df4:	7f 93       	push	r23
     df6:	8f 93       	push	r24
     df8:	9f 93       	push	r25
     dfa:	af 93       	push	r26
     dfc:	bf 93       	push	r27
     dfe:	ef 93       	push	r30
     e00:	ff 93       	push	r31
	if (tc_tcd0_ccb_callback) {
     e02:	e0 91 d3 20 	lds	r30, 0x20D3	; 0x8020d3 <tc_tcd0_ccb_callback>
     e06:	f0 91 d4 20 	lds	r31, 0x20D4	; 0x8020d4 <tc_tcd0_ccb_callback+0x1>
     e0a:	30 97       	sbiw	r30, 0x00	; 0
     e0c:	09 f0       	breq	.+2      	; 0xe10 <__vector_80+0x42>
		tc_tcd0_ccb_callback();
     e0e:	19 95       	eicall
	}
}
     e10:	ff 91       	pop	r31
     e12:	ef 91       	pop	r30
     e14:	bf 91       	pop	r27
     e16:	af 91       	pop	r26
     e18:	9f 91       	pop	r25
     e1a:	8f 91       	pop	r24
     e1c:	7f 91       	pop	r23
     e1e:	6f 91       	pop	r22
     e20:	5f 91       	pop	r21
     e22:	4f 91       	pop	r20
     e24:	3f 91       	pop	r19
     e26:	2f 91       	pop	r18
     e28:	0f 90       	pop	r0
     e2a:	0b be       	out	0x3b, r0	; 59
     e2c:	0f 90       	pop	r0
     e2e:	09 be       	out	0x39, r0	; 57
     e30:	0f 90       	pop	r0
     e32:	08 be       	out	0x38, r0	; 56
     e34:	0f 90       	pop	r0
     e36:	0f be       	out	0x3f, r0	; 63
     e38:	0f 90       	pop	r0
     e3a:	1f 90       	pop	r1
     e3c:	18 95       	reti

00000e3e <__vector_81>:
 *
 * This function will handle interrupt on Timer Counter D0 Compare/CaptureC and
 * call the callback function.
 */
ISR(TCD0_CCC_vect)
{
     e3e:	1f 92       	push	r1
     e40:	0f 92       	push	r0
     e42:	0f b6       	in	r0, 0x3f	; 63
     e44:	0f 92       	push	r0
     e46:	11 24       	eor	r1, r1
     e48:	08 b6       	in	r0, 0x38	; 56
     e4a:	0f 92       	push	r0
     e4c:	18 be       	out	0x38, r1	; 56
     e4e:	09 b6       	in	r0, 0x39	; 57
     e50:	0f 92       	push	r0
     e52:	19 be       	out	0x39, r1	; 57
     e54:	0b b6       	in	r0, 0x3b	; 59
     e56:	0f 92       	push	r0
     e58:	1b be       	out	0x3b, r1	; 59
     e5a:	2f 93       	push	r18
     e5c:	3f 93       	push	r19
     e5e:	4f 93       	push	r20
     e60:	5f 93       	push	r21
     e62:	6f 93       	push	r22
     e64:	7f 93       	push	r23
     e66:	8f 93       	push	r24
     e68:	9f 93       	push	r25
     e6a:	af 93       	push	r26
     e6c:	bf 93       	push	r27
     e6e:	ef 93       	push	r30
     e70:	ff 93       	push	r31
	if (tc_tcd0_ccc_callback) {
     e72:	e0 91 d1 20 	lds	r30, 0x20D1	; 0x8020d1 <tc_tcd0_ccc_callback>
     e76:	f0 91 d2 20 	lds	r31, 0x20D2	; 0x8020d2 <tc_tcd0_ccc_callback+0x1>
     e7a:	30 97       	sbiw	r30, 0x00	; 0
     e7c:	09 f0       	breq	.+2      	; 0xe80 <__vector_81+0x42>
		tc_tcd0_ccc_callback();
     e7e:	19 95       	eicall
	}
}
     e80:	ff 91       	pop	r31
     e82:	ef 91       	pop	r30
     e84:	bf 91       	pop	r27
     e86:	af 91       	pop	r26
     e88:	9f 91       	pop	r25
     e8a:	8f 91       	pop	r24
     e8c:	7f 91       	pop	r23
     e8e:	6f 91       	pop	r22
     e90:	5f 91       	pop	r21
     e92:	4f 91       	pop	r20
     e94:	3f 91       	pop	r19
     e96:	2f 91       	pop	r18
     e98:	0f 90       	pop	r0
     e9a:	0b be       	out	0x3b, r0	; 59
     e9c:	0f 90       	pop	r0
     e9e:	09 be       	out	0x39, r0	; 57
     ea0:	0f 90       	pop	r0
     ea2:	08 be       	out	0x38, r0	; 56
     ea4:	0f 90       	pop	r0
     ea6:	0f be       	out	0x3f, r0	; 63
     ea8:	0f 90       	pop	r0
     eaa:	1f 90       	pop	r1
     eac:	18 95       	reti

00000eae <__vector_82>:
 *
 * This function will handle interrupt on Timer Counter D0 Compare/CaptureD and
 * call the callback function.
 */
ISR(TCD0_CCD_vect)
{
     eae:	1f 92       	push	r1
     eb0:	0f 92       	push	r0
     eb2:	0f b6       	in	r0, 0x3f	; 63
     eb4:	0f 92       	push	r0
     eb6:	11 24       	eor	r1, r1
     eb8:	08 b6       	in	r0, 0x38	; 56
     eba:	0f 92       	push	r0
     ebc:	18 be       	out	0x38, r1	; 56
     ebe:	09 b6       	in	r0, 0x39	; 57
     ec0:	0f 92       	push	r0
     ec2:	19 be       	out	0x39, r1	; 57
     ec4:	0b b6       	in	r0, 0x3b	; 59
     ec6:	0f 92       	push	r0
     ec8:	1b be       	out	0x3b, r1	; 59
     eca:	2f 93       	push	r18
     ecc:	3f 93       	push	r19
     ece:	4f 93       	push	r20
     ed0:	5f 93       	push	r21
     ed2:	6f 93       	push	r22
     ed4:	7f 93       	push	r23
     ed6:	8f 93       	push	r24
     ed8:	9f 93       	push	r25
     eda:	af 93       	push	r26
     edc:	bf 93       	push	r27
     ede:	ef 93       	push	r30
     ee0:	ff 93       	push	r31
	if (tc_tcd0_ccd_callback) {
     ee2:	e0 91 cf 20 	lds	r30, 0x20CF	; 0x8020cf <tc_tcd0_ccd_callback>
     ee6:	f0 91 d0 20 	lds	r31, 0x20D0	; 0x8020d0 <tc_tcd0_ccd_callback+0x1>
     eea:	30 97       	sbiw	r30, 0x00	; 0
     eec:	09 f0       	breq	.+2      	; 0xef0 <__vector_82+0x42>
		tc_tcd0_ccd_callback();
     eee:	19 95       	eicall
	}
}
     ef0:	ff 91       	pop	r31
     ef2:	ef 91       	pop	r30
     ef4:	bf 91       	pop	r27
     ef6:	af 91       	pop	r26
     ef8:	9f 91       	pop	r25
     efa:	8f 91       	pop	r24
     efc:	7f 91       	pop	r23
     efe:	6f 91       	pop	r22
     f00:	5f 91       	pop	r21
     f02:	4f 91       	pop	r20
     f04:	3f 91       	pop	r19
     f06:	2f 91       	pop	r18
     f08:	0f 90       	pop	r0
     f0a:	0b be       	out	0x3b, r0	; 59
     f0c:	0f 90       	pop	r0
     f0e:	09 be       	out	0x39, r0	; 57
     f10:	0f 90       	pop	r0
     f12:	08 be       	out	0x38, r0	; 56
     f14:	0f 90       	pop	r0
     f16:	0f be       	out	0x3f, r0	; 63
     f18:	0f 90       	pop	r0
     f1a:	1f 90       	pop	r1
     f1c:	18 95       	reti

00000f1e <__vector_83>:
 *
 * This function will handle interrupt on Timer Counter D1 overflow and
 * call the callback function.
 */
ISR(TCD1_OVF_vect)
{
     f1e:	1f 92       	push	r1
     f20:	0f 92       	push	r0
     f22:	0f b6       	in	r0, 0x3f	; 63
     f24:	0f 92       	push	r0
     f26:	11 24       	eor	r1, r1
     f28:	08 b6       	in	r0, 0x38	; 56
     f2a:	0f 92       	push	r0
     f2c:	18 be       	out	0x38, r1	; 56
     f2e:	09 b6       	in	r0, 0x39	; 57
     f30:	0f 92       	push	r0
     f32:	19 be       	out	0x39, r1	; 57
     f34:	0b b6       	in	r0, 0x3b	; 59
     f36:	0f 92       	push	r0
     f38:	1b be       	out	0x3b, r1	; 59
     f3a:	2f 93       	push	r18
     f3c:	3f 93       	push	r19
     f3e:	4f 93       	push	r20
     f40:	5f 93       	push	r21
     f42:	6f 93       	push	r22
     f44:	7f 93       	push	r23
     f46:	8f 93       	push	r24
     f48:	9f 93       	push	r25
     f4a:	af 93       	push	r26
     f4c:	bf 93       	push	r27
     f4e:	ef 93       	push	r30
     f50:	ff 93       	push	r31
	if (tc_tcd1_ovf_callback) {
     f52:	e0 91 cd 20 	lds	r30, 0x20CD	; 0x8020cd <tc_tcd1_ovf_callback>
     f56:	f0 91 ce 20 	lds	r31, 0x20CE	; 0x8020ce <tc_tcd1_ovf_callback+0x1>
     f5a:	30 97       	sbiw	r30, 0x00	; 0
     f5c:	09 f0       	breq	.+2      	; 0xf60 <__vector_83+0x42>
		tc_tcd1_ovf_callback();
     f5e:	19 95       	eicall
	}
}
     f60:	ff 91       	pop	r31
     f62:	ef 91       	pop	r30
     f64:	bf 91       	pop	r27
     f66:	af 91       	pop	r26
     f68:	9f 91       	pop	r25
     f6a:	8f 91       	pop	r24
     f6c:	7f 91       	pop	r23
     f6e:	6f 91       	pop	r22
     f70:	5f 91       	pop	r21
     f72:	4f 91       	pop	r20
     f74:	3f 91       	pop	r19
     f76:	2f 91       	pop	r18
     f78:	0f 90       	pop	r0
     f7a:	0b be       	out	0x3b, r0	; 59
     f7c:	0f 90       	pop	r0
     f7e:	09 be       	out	0x39, r0	; 57
     f80:	0f 90       	pop	r0
     f82:	08 be       	out	0x38, r0	; 56
     f84:	0f 90       	pop	r0
     f86:	0f be       	out	0x3f, r0	; 63
     f88:	0f 90       	pop	r0
     f8a:	1f 90       	pop	r1
     f8c:	18 95       	reti

00000f8e <__vector_84>:
 *
 * This function will handle interrupt on Timer Counter D1 error and
 * call the callback function.
 */
ISR(TCD1_ERR_vect)
{
     f8e:	1f 92       	push	r1
     f90:	0f 92       	push	r0
     f92:	0f b6       	in	r0, 0x3f	; 63
     f94:	0f 92       	push	r0
     f96:	11 24       	eor	r1, r1
     f98:	08 b6       	in	r0, 0x38	; 56
     f9a:	0f 92       	push	r0
     f9c:	18 be       	out	0x38, r1	; 56
     f9e:	09 b6       	in	r0, 0x39	; 57
     fa0:	0f 92       	push	r0
     fa2:	19 be       	out	0x39, r1	; 57
     fa4:	0b b6       	in	r0, 0x3b	; 59
     fa6:	0f 92       	push	r0
     fa8:	1b be       	out	0x3b, r1	; 59
     faa:	2f 93       	push	r18
     fac:	3f 93       	push	r19
     fae:	4f 93       	push	r20
     fb0:	5f 93       	push	r21
     fb2:	6f 93       	push	r22
     fb4:	7f 93       	push	r23
     fb6:	8f 93       	push	r24
     fb8:	9f 93       	push	r25
     fba:	af 93       	push	r26
     fbc:	bf 93       	push	r27
     fbe:	ef 93       	push	r30
     fc0:	ff 93       	push	r31
	if (tc_tcd1_err_callback) {
     fc2:	e0 91 cb 20 	lds	r30, 0x20CB	; 0x8020cb <tc_tcd1_err_callback>
     fc6:	f0 91 cc 20 	lds	r31, 0x20CC	; 0x8020cc <tc_tcd1_err_callback+0x1>
     fca:	30 97       	sbiw	r30, 0x00	; 0
     fcc:	09 f0       	breq	.+2      	; 0xfd0 <__vector_84+0x42>
		tc_tcd1_err_callback();
     fce:	19 95       	eicall
	}
}
     fd0:	ff 91       	pop	r31
     fd2:	ef 91       	pop	r30
     fd4:	bf 91       	pop	r27
     fd6:	af 91       	pop	r26
     fd8:	9f 91       	pop	r25
     fda:	8f 91       	pop	r24
     fdc:	7f 91       	pop	r23
     fde:	6f 91       	pop	r22
     fe0:	5f 91       	pop	r21
     fe2:	4f 91       	pop	r20
     fe4:	3f 91       	pop	r19
     fe6:	2f 91       	pop	r18
     fe8:	0f 90       	pop	r0
     fea:	0b be       	out	0x3b, r0	; 59
     fec:	0f 90       	pop	r0
     fee:	09 be       	out	0x39, r0	; 57
     ff0:	0f 90       	pop	r0
     ff2:	08 be       	out	0x38, r0	; 56
     ff4:	0f 90       	pop	r0
     ff6:	0f be       	out	0x3f, r0	; 63
     ff8:	0f 90       	pop	r0
     ffa:	1f 90       	pop	r1
     ffc:	18 95       	reti

00000ffe <__vector_85>:
 *
 * This function will handle interrupt on Timer Counter D1 Compare/CaptureA and
 * call the callback function.
 */
ISR(TCD1_CCA_vect)
{
     ffe:	1f 92       	push	r1
    1000:	0f 92       	push	r0
    1002:	0f b6       	in	r0, 0x3f	; 63
    1004:	0f 92       	push	r0
    1006:	11 24       	eor	r1, r1
    1008:	08 b6       	in	r0, 0x38	; 56
    100a:	0f 92       	push	r0
    100c:	18 be       	out	0x38, r1	; 56
    100e:	09 b6       	in	r0, 0x39	; 57
    1010:	0f 92       	push	r0
    1012:	19 be       	out	0x39, r1	; 57
    1014:	0b b6       	in	r0, 0x3b	; 59
    1016:	0f 92       	push	r0
    1018:	1b be       	out	0x3b, r1	; 59
    101a:	2f 93       	push	r18
    101c:	3f 93       	push	r19
    101e:	4f 93       	push	r20
    1020:	5f 93       	push	r21
    1022:	6f 93       	push	r22
    1024:	7f 93       	push	r23
    1026:	8f 93       	push	r24
    1028:	9f 93       	push	r25
    102a:	af 93       	push	r26
    102c:	bf 93       	push	r27
    102e:	ef 93       	push	r30
    1030:	ff 93       	push	r31
	if (tc_tcd1_cca_callback) {
    1032:	e0 91 c9 20 	lds	r30, 0x20C9	; 0x8020c9 <tc_tcd1_cca_callback>
    1036:	f0 91 ca 20 	lds	r31, 0x20CA	; 0x8020ca <tc_tcd1_cca_callback+0x1>
    103a:	30 97       	sbiw	r30, 0x00	; 0
    103c:	09 f0       	breq	.+2      	; 0x1040 <__vector_85+0x42>
		tc_tcd1_cca_callback();
    103e:	19 95       	eicall
	}
}
    1040:	ff 91       	pop	r31
    1042:	ef 91       	pop	r30
    1044:	bf 91       	pop	r27
    1046:	af 91       	pop	r26
    1048:	9f 91       	pop	r25
    104a:	8f 91       	pop	r24
    104c:	7f 91       	pop	r23
    104e:	6f 91       	pop	r22
    1050:	5f 91       	pop	r21
    1052:	4f 91       	pop	r20
    1054:	3f 91       	pop	r19
    1056:	2f 91       	pop	r18
    1058:	0f 90       	pop	r0
    105a:	0b be       	out	0x3b, r0	; 59
    105c:	0f 90       	pop	r0
    105e:	09 be       	out	0x39, r0	; 57
    1060:	0f 90       	pop	r0
    1062:	08 be       	out	0x38, r0	; 56
    1064:	0f 90       	pop	r0
    1066:	0f be       	out	0x3f, r0	; 63
    1068:	0f 90       	pop	r0
    106a:	1f 90       	pop	r1
    106c:	18 95       	reti

0000106e <__vector_86>:
 *
 * This function will handle interrupt on Timer Counter D1 Compare/CaptureB and
 * call the callback function.
 */
ISR(TCD1_CCB_vect)
{
    106e:	1f 92       	push	r1
    1070:	0f 92       	push	r0
    1072:	0f b6       	in	r0, 0x3f	; 63
    1074:	0f 92       	push	r0
    1076:	11 24       	eor	r1, r1
    1078:	08 b6       	in	r0, 0x38	; 56
    107a:	0f 92       	push	r0
    107c:	18 be       	out	0x38, r1	; 56
    107e:	09 b6       	in	r0, 0x39	; 57
    1080:	0f 92       	push	r0
    1082:	19 be       	out	0x39, r1	; 57
    1084:	0b b6       	in	r0, 0x3b	; 59
    1086:	0f 92       	push	r0
    1088:	1b be       	out	0x3b, r1	; 59
    108a:	2f 93       	push	r18
    108c:	3f 93       	push	r19
    108e:	4f 93       	push	r20
    1090:	5f 93       	push	r21
    1092:	6f 93       	push	r22
    1094:	7f 93       	push	r23
    1096:	8f 93       	push	r24
    1098:	9f 93       	push	r25
    109a:	af 93       	push	r26
    109c:	bf 93       	push	r27
    109e:	ef 93       	push	r30
    10a0:	ff 93       	push	r31
	if (tc_tcd1_ccb_callback) {
    10a2:	e0 91 c7 20 	lds	r30, 0x20C7	; 0x8020c7 <tc_tcd1_ccb_callback>
    10a6:	f0 91 c8 20 	lds	r31, 0x20C8	; 0x8020c8 <tc_tcd1_ccb_callback+0x1>
    10aa:	30 97       	sbiw	r30, 0x00	; 0
    10ac:	09 f0       	breq	.+2      	; 0x10b0 <__vector_86+0x42>
		tc_tcd1_ccb_callback();
    10ae:	19 95       	eicall
	}
}
    10b0:	ff 91       	pop	r31
    10b2:	ef 91       	pop	r30
    10b4:	bf 91       	pop	r27
    10b6:	af 91       	pop	r26
    10b8:	9f 91       	pop	r25
    10ba:	8f 91       	pop	r24
    10bc:	7f 91       	pop	r23
    10be:	6f 91       	pop	r22
    10c0:	5f 91       	pop	r21
    10c2:	4f 91       	pop	r20
    10c4:	3f 91       	pop	r19
    10c6:	2f 91       	pop	r18
    10c8:	0f 90       	pop	r0
    10ca:	0b be       	out	0x3b, r0	; 59
    10cc:	0f 90       	pop	r0
    10ce:	09 be       	out	0x39, r0	; 57
    10d0:	0f 90       	pop	r0
    10d2:	08 be       	out	0x38, r0	; 56
    10d4:	0f 90       	pop	r0
    10d6:	0f be       	out	0x3f, r0	; 63
    10d8:	0f 90       	pop	r0
    10da:	1f 90       	pop	r1
    10dc:	18 95       	reti

000010de <__vector_48>:
 *
 * This function will handle interrupt on Timer Counter E0 error and
 * call the callback function.
 */
ISR(TCE0_ERR_vect)
{
    10de:	1f 92       	push	r1
    10e0:	0f 92       	push	r0
    10e2:	0f b6       	in	r0, 0x3f	; 63
    10e4:	0f 92       	push	r0
    10e6:	11 24       	eor	r1, r1
    10e8:	08 b6       	in	r0, 0x38	; 56
    10ea:	0f 92       	push	r0
    10ec:	18 be       	out	0x38, r1	; 56
    10ee:	09 b6       	in	r0, 0x39	; 57
    10f0:	0f 92       	push	r0
    10f2:	19 be       	out	0x39, r1	; 57
    10f4:	0b b6       	in	r0, 0x3b	; 59
    10f6:	0f 92       	push	r0
    10f8:	1b be       	out	0x3b, r1	; 59
    10fa:	2f 93       	push	r18
    10fc:	3f 93       	push	r19
    10fe:	4f 93       	push	r20
    1100:	5f 93       	push	r21
    1102:	6f 93       	push	r22
    1104:	7f 93       	push	r23
    1106:	8f 93       	push	r24
    1108:	9f 93       	push	r25
    110a:	af 93       	push	r26
    110c:	bf 93       	push	r27
    110e:	ef 93       	push	r30
    1110:	ff 93       	push	r31
	if (tc_tce0_err_callback) {
    1112:	e0 91 c5 20 	lds	r30, 0x20C5	; 0x8020c5 <tc_tce0_err_callback>
    1116:	f0 91 c6 20 	lds	r31, 0x20C6	; 0x8020c6 <tc_tce0_err_callback+0x1>
    111a:	30 97       	sbiw	r30, 0x00	; 0
    111c:	09 f0       	breq	.+2      	; 0x1120 <__vector_48+0x42>
		tc_tce0_err_callback();
    111e:	19 95       	eicall
	}
}
    1120:	ff 91       	pop	r31
    1122:	ef 91       	pop	r30
    1124:	bf 91       	pop	r27
    1126:	af 91       	pop	r26
    1128:	9f 91       	pop	r25
    112a:	8f 91       	pop	r24
    112c:	7f 91       	pop	r23
    112e:	6f 91       	pop	r22
    1130:	5f 91       	pop	r21
    1132:	4f 91       	pop	r20
    1134:	3f 91       	pop	r19
    1136:	2f 91       	pop	r18
    1138:	0f 90       	pop	r0
    113a:	0b be       	out	0x3b, r0	; 59
    113c:	0f 90       	pop	r0
    113e:	09 be       	out	0x39, r0	; 57
    1140:	0f 90       	pop	r0
    1142:	08 be       	out	0x38, r0	; 56
    1144:	0f 90       	pop	r0
    1146:	0f be       	out	0x3f, r0	; 63
    1148:	0f 90       	pop	r0
    114a:	1f 90       	pop	r1
    114c:	18 95       	reti

0000114e <__vector_49>:
 *
 * This function will handle interrupt on Timer Counter E0 Compare/CaptureA and
 * call the callback function.
 */
ISR(TCE0_CCA_vect)
{
    114e:	1f 92       	push	r1
    1150:	0f 92       	push	r0
    1152:	0f b6       	in	r0, 0x3f	; 63
    1154:	0f 92       	push	r0
    1156:	11 24       	eor	r1, r1
    1158:	08 b6       	in	r0, 0x38	; 56
    115a:	0f 92       	push	r0
    115c:	18 be       	out	0x38, r1	; 56
    115e:	09 b6       	in	r0, 0x39	; 57
    1160:	0f 92       	push	r0
    1162:	19 be       	out	0x39, r1	; 57
    1164:	0b b6       	in	r0, 0x3b	; 59
    1166:	0f 92       	push	r0
    1168:	1b be       	out	0x3b, r1	; 59
    116a:	2f 93       	push	r18
    116c:	3f 93       	push	r19
    116e:	4f 93       	push	r20
    1170:	5f 93       	push	r21
    1172:	6f 93       	push	r22
    1174:	7f 93       	push	r23
    1176:	8f 93       	push	r24
    1178:	9f 93       	push	r25
    117a:	af 93       	push	r26
    117c:	bf 93       	push	r27
    117e:	ef 93       	push	r30
    1180:	ff 93       	push	r31
	if (tc_tce0_cca_callback) {
    1182:	e0 91 c3 20 	lds	r30, 0x20C3	; 0x8020c3 <tc_tce0_cca_callback>
    1186:	f0 91 c4 20 	lds	r31, 0x20C4	; 0x8020c4 <tc_tce0_cca_callback+0x1>
    118a:	30 97       	sbiw	r30, 0x00	; 0
    118c:	09 f0       	breq	.+2      	; 0x1190 <__vector_49+0x42>
		tc_tce0_cca_callback();
    118e:	19 95       	eicall
	}
}
    1190:	ff 91       	pop	r31
    1192:	ef 91       	pop	r30
    1194:	bf 91       	pop	r27
    1196:	af 91       	pop	r26
    1198:	9f 91       	pop	r25
    119a:	8f 91       	pop	r24
    119c:	7f 91       	pop	r23
    119e:	6f 91       	pop	r22
    11a0:	5f 91       	pop	r21
    11a2:	4f 91       	pop	r20
    11a4:	3f 91       	pop	r19
    11a6:	2f 91       	pop	r18
    11a8:	0f 90       	pop	r0
    11aa:	0b be       	out	0x3b, r0	; 59
    11ac:	0f 90       	pop	r0
    11ae:	09 be       	out	0x39, r0	; 57
    11b0:	0f 90       	pop	r0
    11b2:	08 be       	out	0x38, r0	; 56
    11b4:	0f 90       	pop	r0
    11b6:	0f be       	out	0x3f, r0	; 63
    11b8:	0f 90       	pop	r0
    11ba:	1f 90       	pop	r1
    11bc:	18 95       	reti

000011be <__vector_50>:
 *
 * This function will handle interrupt on Timer Counter E0 Compare/CaptureB and
 * call the callback function.
 */
ISR(TCE0_CCB_vect)
{
    11be:	1f 92       	push	r1
    11c0:	0f 92       	push	r0
    11c2:	0f b6       	in	r0, 0x3f	; 63
    11c4:	0f 92       	push	r0
    11c6:	11 24       	eor	r1, r1
    11c8:	08 b6       	in	r0, 0x38	; 56
    11ca:	0f 92       	push	r0
    11cc:	18 be       	out	0x38, r1	; 56
    11ce:	09 b6       	in	r0, 0x39	; 57
    11d0:	0f 92       	push	r0
    11d2:	19 be       	out	0x39, r1	; 57
    11d4:	0b b6       	in	r0, 0x3b	; 59
    11d6:	0f 92       	push	r0
    11d8:	1b be       	out	0x3b, r1	; 59
    11da:	2f 93       	push	r18
    11dc:	3f 93       	push	r19
    11de:	4f 93       	push	r20
    11e0:	5f 93       	push	r21
    11e2:	6f 93       	push	r22
    11e4:	7f 93       	push	r23
    11e6:	8f 93       	push	r24
    11e8:	9f 93       	push	r25
    11ea:	af 93       	push	r26
    11ec:	bf 93       	push	r27
    11ee:	ef 93       	push	r30
    11f0:	ff 93       	push	r31
	if (tc_tce0_ccb_callback) {
    11f2:	e0 91 c1 20 	lds	r30, 0x20C1	; 0x8020c1 <tc_tce0_ccb_callback>
    11f6:	f0 91 c2 20 	lds	r31, 0x20C2	; 0x8020c2 <tc_tce0_ccb_callback+0x1>
    11fa:	30 97       	sbiw	r30, 0x00	; 0
    11fc:	09 f0       	breq	.+2      	; 0x1200 <__vector_50+0x42>
		tc_tce0_ccb_callback();
    11fe:	19 95       	eicall
	}
}
    1200:	ff 91       	pop	r31
    1202:	ef 91       	pop	r30
    1204:	bf 91       	pop	r27
    1206:	af 91       	pop	r26
    1208:	9f 91       	pop	r25
    120a:	8f 91       	pop	r24
    120c:	7f 91       	pop	r23
    120e:	6f 91       	pop	r22
    1210:	5f 91       	pop	r21
    1212:	4f 91       	pop	r20
    1214:	3f 91       	pop	r19
    1216:	2f 91       	pop	r18
    1218:	0f 90       	pop	r0
    121a:	0b be       	out	0x3b, r0	; 59
    121c:	0f 90       	pop	r0
    121e:	09 be       	out	0x39, r0	; 57
    1220:	0f 90       	pop	r0
    1222:	08 be       	out	0x38, r0	; 56
    1224:	0f 90       	pop	r0
    1226:	0f be       	out	0x3f, r0	; 63
    1228:	0f 90       	pop	r0
    122a:	1f 90       	pop	r1
    122c:	18 95       	reti

0000122e <__vector_51>:
 *
 * This function will handle interrupt on Timer Counter E0 Compare/CaptureC and
 * call the callback function.
 */
ISR(TCE0_CCC_vect)
{
    122e:	1f 92       	push	r1
    1230:	0f 92       	push	r0
    1232:	0f b6       	in	r0, 0x3f	; 63
    1234:	0f 92       	push	r0
    1236:	11 24       	eor	r1, r1
    1238:	08 b6       	in	r0, 0x38	; 56
    123a:	0f 92       	push	r0
    123c:	18 be       	out	0x38, r1	; 56
    123e:	09 b6       	in	r0, 0x39	; 57
    1240:	0f 92       	push	r0
    1242:	19 be       	out	0x39, r1	; 57
    1244:	0b b6       	in	r0, 0x3b	; 59
    1246:	0f 92       	push	r0
    1248:	1b be       	out	0x3b, r1	; 59
    124a:	2f 93       	push	r18
    124c:	3f 93       	push	r19
    124e:	4f 93       	push	r20
    1250:	5f 93       	push	r21
    1252:	6f 93       	push	r22
    1254:	7f 93       	push	r23
    1256:	8f 93       	push	r24
    1258:	9f 93       	push	r25
    125a:	af 93       	push	r26
    125c:	bf 93       	push	r27
    125e:	ef 93       	push	r30
    1260:	ff 93       	push	r31
	if (tc_tce0_ccc_callback) {
    1262:	e0 91 bf 20 	lds	r30, 0x20BF	; 0x8020bf <tc_tce0_ccc_callback>
    1266:	f0 91 c0 20 	lds	r31, 0x20C0	; 0x8020c0 <tc_tce0_ccc_callback+0x1>
    126a:	30 97       	sbiw	r30, 0x00	; 0
    126c:	09 f0       	breq	.+2      	; 0x1270 <__vector_51+0x42>
		tc_tce0_ccc_callback();
    126e:	19 95       	eicall
	}
}
    1270:	ff 91       	pop	r31
    1272:	ef 91       	pop	r30
    1274:	bf 91       	pop	r27
    1276:	af 91       	pop	r26
    1278:	9f 91       	pop	r25
    127a:	8f 91       	pop	r24
    127c:	7f 91       	pop	r23
    127e:	6f 91       	pop	r22
    1280:	5f 91       	pop	r21
    1282:	4f 91       	pop	r20
    1284:	3f 91       	pop	r19
    1286:	2f 91       	pop	r18
    1288:	0f 90       	pop	r0
    128a:	0b be       	out	0x3b, r0	; 59
    128c:	0f 90       	pop	r0
    128e:	09 be       	out	0x39, r0	; 57
    1290:	0f 90       	pop	r0
    1292:	08 be       	out	0x38, r0	; 56
    1294:	0f 90       	pop	r0
    1296:	0f be       	out	0x3f, r0	; 63
    1298:	0f 90       	pop	r0
    129a:	1f 90       	pop	r1
    129c:	18 95       	reti

0000129e <__vector_52>:
 *
 * This function will handle interrupt on Timer Counter E0 Compare/CaptureD and
 * call the callback function.
 */
ISR(TCE0_CCD_vect)
{
    129e:	1f 92       	push	r1
    12a0:	0f 92       	push	r0
    12a2:	0f b6       	in	r0, 0x3f	; 63
    12a4:	0f 92       	push	r0
    12a6:	11 24       	eor	r1, r1
    12a8:	08 b6       	in	r0, 0x38	; 56
    12aa:	0f 92       	push	r0
    12ac:	18 be       	out	0x38, r1	; 56
    12ae:	09 b6       	in	r0, 0x39	; 57
    12b0:	0f 92       	push	r0
    12b2:	19 be       	out	0x39, r1	; 57
    12b4:	0b b6       	in	r0, 0x3b	; 59
    12b6:	0f 92       	push	r0
    12b8:	1b be       	out	0x3b, r1	; 59
    12ba:	2f 93       	push	r18
    12bc:	3f 93       	push	r19
    12be:	4f 93       	push	r20
    12c0:	5f 93       	push	r21
    12c2:	6f 93       	push	r22
    12c4:	7f 93       	push	r23
    12c6:	8f 93       	push	r24
    12c8:	9f 93       	push	r25
    12ca:	af 93       	push	r26
    12cc:	bf 93       	push	r27
    12ce:	ef 93       	push	r30
    12d0:	ff 93       	push	r31
	if (tc_tce0_ccd_callback) {
    12d2:	e0 91 bd 20 	lds	r30, 0x20BD	; 0x8020bd <tc_tce0_ccd_callback>
    12d6:	f0 91 be 20 	lds	r31, 0x20BE	; 0x8020be <tc_tce0_ccd_callback+0x1>
    12da:	30 97       	sbiw	r30, 0x00	; 0
    12dc:	09 f0       	breq	.+2      	; 0x12e0 <__vector_52+0x42>
		tc_tce0_ccd_callback();
    12de:	19 95       	eicall
	}
}
    12e0:	ff 91       	pop	r31
    12e2:	ef 91       	pop	r30
    12e4:	bf 91       	pop	r27
    12e6:	af 91       	pop	r26
    12e8:	9f 91       	pop	r25
    12ea:	8f 91       	pop	r24
    12ec:	7f 91       	pop	r23
    12ee:	6f 91       	pop	r22
    12f0:	5f 91       	pop	r21
    12f2:	4f 91       	pop	r20
    12f4:	3f 91       	pop	r19
    12f6:	2f 91       	pop	r18
    12f8:	0f 90       	pop	r0
    12fa:	0b be       	out	0x3b, r0	; 59
    12fc:	0f 90       	pop	r0
    12fe:	09 be       	out	0x39, r0	; 57
    1300:	0f 90       	pop	r0
    1302:	08 be       	out	0x38, r0	; 56
    1304:	0f 90       	pop	r0
    1306:	0f be       	out	0x3f, r0	; 63
    1308:	0f 90       	pop	r0
    130a:	1f 90       	pop	r1
    130c:	18 95       	reti

0000130e <twim_interrupt_handler>:
 * \brief Common TWI master interrupt service routine.
 *
 *  Check current status and calls the appropriate handler.
 */
static void twim_interrupt_handler(void)
{
    130e:	cf 93       	push	r28
    1310:	df 93       	push	r29
	uint8_t const master_status = transfer.bus->MASTER.STATUS;
    1312:	e0 91 ef 20 	lds	r30, 0x20EF	; 0x8020ef <transfer>
    1316:	f0 91 f0 20 	lds	r31, 0x20F0	; 0x8020f0 <transfer+0x1>
    131a:	84 81       	ldd	r24, Z+4	; 0x04

	if (master_status & TWI_MASTER_ARBLOST_bm) {
    131c:	83 ff       	sbrs	r24, 3
    131e:	08 c0       	rjmp	.+16     	; 0x1330 <twim_interrupt_handler+0x22>

		transfer.bus->MASTER.STATUS = master_status | TWI_MASTER_ARBLOST_bm;
    1320:	88 60       	ori	r24, 0x08	; 8
    1322:	84 83       	std	Z+4, r24	; 0x04
		transfer.bus->MASTER.CTRLC  = TWI_MASTER_CMD_STOP_gc;
    1324:	83 e0       	ldi	r24, 0x03	; 3
    1326:	83 83       	std	Z+3, r24	; 0x03
		transfer.status = ERR_BUSY;
    1328:	86 ef       	ldi	r24, 0xF6	; 246
    132a:	80 93 f9 20 	sts	0x20F9, r24	; 0x8020f9 <transfer+0xa>
    132e:	83 c0       	rjmp	.+262    	; 0x1436 <twim_interrupt_handler+0x128>

	} else if ((master_status & TWI_MASTER_BUSERR_bm) ||
    1330:	98 2f       	mov	r25, r24
    1332:	94 71       	andi	r25, 0x14	; 20
    1334:	31 f0       	breq	.+12     	; 0x1342 <twim_interrupt_handler+0x34>
		(master_status & TWI_MASTER_RXACK_bm)) {

		transfer.bus->MASTER.CTRLC = TWI_MASTER_CMD_STOP_gc;
    1336:	83 e0       	ldi	r24, 0x03	; 3
    1338:	83 83       	std	Z+3, r24	; 0x03
		transfer.status = ERR_IO_ERROR;
    133a:	8f ef       	ldi	r24, 0xFF	; 255
    133c:	80 93 f9 20 	sts	0x20F9, r24	; 0x8020f9 <transfer+0xa>
    1340:	7a c0       	rjmp	.+244    	; 0x1436 <twim_interrupt_handler+0x128>

	} else if (master_status & TWI_MASTER_WIF_bm) {
    1342:	86 ff       	sbrs	r24, 6
    1344:	43 c0       	rjmp	.+134    	; 0x13cc <twim_interrupt_handler+0xbe>
 *  Handles TWI transactions (master write) and responses to (N)ACK.
 */
static inline void twim_write_handler(void)
{
	TWI_t * const         bus = transfer.bus;
	twi_package_t * const pkg = transfer.pkg;
    1346:	cf ee       	ldi	r28, 0xEF	; 239
    1348:	d0 e2       	ldi	r29, 0x20	; 32
    134a:	aa 81       	ldd	r26, Y+2	; 0x02
    134c:	bb 81       	ldd	r27, Y+3	; 0x03

	if (transfer.addr_count < pkg->addr_length) {
    134e:	8c 81       	ldd	r24, Y+4	; 0x04
    1350:	9d 81       	ldd	r25, Y+5	; 0x05
    1352:	14 96       	adiw	r26, 0x04	; 4
    1354:	2d 91       	ld	r18, X+
    1356:	3c 91       	ld	r19, X
    1358:	15 97       	sbiw	r26, 0x05	; 5
    135a:	82 17       	cp	r24, r18
    135c:	93 07       	cpc	r25, r19
    135e:	6c f4       	brge	.+26     	; 0x137a <twim_interrupt_handler+0x6c>

		const uint8_t * const data = pkg->addr;
		bus->MASTER.DATA = data[transfer.addr_count++];
    1360:	9c 01       	movw	r18, r24
    1362:	2f 5f       	subi	r18, 0xFF	; 255
    1364:	3f 4f       	sbci	r19, 0xFF	; 255
    1366:	20 93 f3 20 	sts	0x20F3, r18	; 0x8020f3 <transfer+0x4>
    136a:	30 93 f4 20 	sts	0x20F4, r19	; 0x8020f4 <transfer+0x5>
    136e:	a8 0f       	add	r26, r24
    1370:	b9 1f       	adc	r27, r25
    1372:	11 96       	adiw	r26, 0x01	; 1
    1374:	8c 91       	ld	r24, X
    1376:	87 83       	std	Z+7, r24	; 0x07
    1378:	5e c0       	rjmp	.+188    	; 0x1436 <twim_interrupt_handler+0x128>

	} else if (transfer.data_count < pkg->length) {
    137a:	80 91 f5 20 	lds	r24, 0x20F5	; 0x8020f5 <transfer+0x6>
    137e:	90 91 f6 20 	lds	r25, 0x20F6	; 0x8020f6 <transfer+0x7>
    1382:	18 96       	adiw	r26, 0x08	; 8
    1384:	2d 91       	ld	r18, X+
    1386:	3c 91       	ld	r19, X
    1388:	19 97       	sbiw	r26, 0x09	; 9
    138a:	82 17       	cp	r24, r18
    138c:	93 07       	cpc	r25, r19
    138e:	c8 f4       	brcc	.+50     	; 0x13c2 <twim_interrupt_handler+0xb4>

		if (transfer.read) {
    1390:	20 91 f7 20 	lds	r18, 0x20F7	; 0x8020f7 <transfer+0x8>
    1394:	22 23       	and	r18, r18
    1396:	21 f0       	breq	.+8      	; 0x13a0 <twim_interrupt_handler+0x92>

			/* Send repeated START condition (Address|R/W=1). */

			bus->MASTER.ADDR |= 0x01;
    1398:	86 81       	ldd	r24, Z+6	; 0x06
    139a:	81 60       	ori	r24, 0x01	; 1
    139c:	86 83       	std	Z+6, r24	; 0x06
    139e:	4b c0       	rjmp	.+150    	; 0x1436 <twim_interrupt_handler+0x128>

		} else {
			const uint8_t * const data = pkg->buffer;
    13a0:	16 96       	adiw	r26, 0x06	; 6
    13a2:	2d 91       	ld	r18, X+
    13a4:	3c 91       	ld	r19, X
    13a6:	17 97       	sbiw	r26, 0x07	; 7
			bus->MASTER.DATA = data[transfer.data_count++];
    13a8:	ac 01       	movw	r20, r24
    13aa:	4f 5f       	subi	r20, 0xFF	; 255
    13ac:	5f 4f       	sbci	r21, 0xFF	; 255
    13ae:	40 93 f5 20 	sts	0x20F5, r20	; 0x8020f5 <transfer+0x6>
    13b2:	50 93 f6 20 	sts	0x20F6, r21	; 0x8020f6 <transfer+0x7>
    13b6:	d9 01       	movw	r26, r18
    13b8:	a8 0f       	add	r26, r24
    13ba:	b9 1f       	adc	r27, r25
    13bc:	8c 91       	ld	r24, X
    13be:	87 83       	std	Z+7, r24	; 0x07
    13c0:	3a c0       	rjmp	.+116    	; 0x1436 <twim_interrupt_handler+0x128>

	} else {

		/* Send STOP condition to complete the transaction. */

		bus->MASTER.CTRLC = TWI_MASTER_CMD_STOP_gc;
    13c2:	83 e0       	ldi	r24, 0x03	; 3
    13c4:	83 83       	std	Z+3, r24	; 0x03
		transfer.status = STATUS_OK;
    13c6:	10 92 f9 20 	sts	0x20F9, r1	; 0x8020f9 <transfer+0xa>
    13ca:	35 c0       	rjmp	.+106    	; 0x1436 <twim_interrupt_handler+0x128>

	} else if (master_status & TWI_MASTER_WIF_bm) {

		twim_write_handler();

	} else if (master_status & TWI_MASTER_RIF_bm) {
    13cc:	88 23       	and	r24, r24
    13ce:	84 f5       	brge	.+96     	; 0x1430 <twim_interrupt_handler+0x122>
 *  reading bytes from the TWI slave.
 */
static inline void twim_read_handler(void)
{
	TWI_t * const         bus = transfer.bus;
	twi_package_t * const pkg = transfer.pkg;
    13d0:	af ee       	ldi	r26, 0xEF	; 239
    13d2:	b0 e2       	ldi	r27, 0x20	; 32
    13d4:	12 96       	adiw	r26, 0x02	; 2
    13d6:	cd 91       	ld	r28, X+
    13d8:	dc 91       	ld	r29, X
    13da:	13 97       	sbiw	r26, 0x03	; 3

	if (transfer.data_count < pkg->length) {
    13dc:	16 96       	adiw	r26, 0x06	; 6
    13de:	8d 91       	ld	r24, X+
    13e0:	9c 91       	ld	r25, X
    13e2:	17 97       	sbiw	r26, 0x07	; 7
    13e4:	28 85       	ldd	r18, Y+8	; 0x08
    13e6:	39 85       	ldd	r19, Y+9	; 0x09
    13e8:	82 17       	cp	r24, r18
    13ea:	93 07       	cpc	r25, r19
    13ec:	d8 f4       	brcc	.+54     	; 0x1424 <twim_interrupt_handler+0x116>

		uint8_t * const data = pkg->buffer;
    13ee:	6e 81       	ldd	r22, Y+6	; 0x06
    13f0:	7f 81       	ldd	r23, Y+7	; 0x07
		data[transfer.data_count++] = bus->MASTER.DATA;
    13f2:	9c 01       	movw	r18, r24
    13f4:	2f 5f       	subi	r18, 0xFF	; 255
    13f6:	3f 4f       	sbci	r19, 0xFF	; 255
    13f8:	20 93 f5 20 	sts	0x20F5, r18	; 0x8020f5 <transfer+0x6>
    13fc:	30 93 f6 20 	sts	0x20F6, r19	; 0x8020f6 <transfer+0x7>
    1400:	47 81       	ldd	r20, Z+7	; 0x07
    1402:	db 01       	movw	r26, r22
    1404:	a8 0f       	add	r26, r24
    1406:	b9 1f       	adc	r27, r25
    1408:	4c 93       	st	X, r20

		/* If there is more to read, issue ACK and start a byte read.
		 * Otherwise, issue NACK and STOP to complete the transaction.
		 */
		if (transfer.data_count < pkg->length) {
    140a:	88 85       	ldd	r24, Y+8	; 0x08
    140c:	99 85       	ldd	r25, Y+9	; 0x09
    140e:	28 17       	cp	r18, r24
    1410:	39 07       	cpc	r19, r25
    1412:	18 f4       	brcc	.+6      	; 0x141a <twim_interrupt_handler+0x10c>

			bus->MASTER.CTRLC = TWI_MASTER_CMD_RECVTRANS_gc;
    1414:	82 e0       	ldi	r24, 0x02	; 2
    1416:	83 83       	std	Z+3, r24	; 0x03
    1418:	0e c0       	rjmp	.+28     	; 0x1436 <twim_interrupt_handler+0x128>

		} else {

			bus->MASTER.CTRLC = TWI_MASTER_ACKACT_bm | TWI_MASTER_CMD_STOP_gc;
    141a:	87 e0       	ldi	r24, 0x07	; 7
    141c:	83 83       	std	Z+3, r24	; 0x03
			transfer.status = STATUS_OK;
    141e:	10 92 f9 20 	sts	0x20F9, r1	; 0x8020f9 <transfer+0xa>
    1422:	09 c0       	rjmp	.+18     	; 0x1436 <twim_interrupt_handler+0x128>

	} else {

		/* Issue STOP and buffer overflow condition. */

		bus->MASTER.CTRLC = TWI_MASTER_CMD_STOP_gc;
    1424:	83 e0       	ldi	r24, 0x03	; 3
    1426:	83 83       	std	Z+3, r24	; 0x03
		transfer.status = ERR_NO_MEMORY;
    1428:	89 ef       	ldi	r24, 0xF9	; 249
    142a:	80 93 f9 20 	sts	0x20F9, r24	; 0x8020f9 <transfer+0xa>
    142e:	03 c0       	rjmp	.+6      	; 0x1436 <twim_interrupt_handler+0x128>

		twim_read_handler();

	} else {

		transfer.status = ERR_PROTOCOL;
    1430:	8b ef       	ldi	r24, 0xFB	; 251
    1432:	80 93 f9 20 	sts	0x20F9, r24	; 0x8020f9 <transfer+0xa>
	}
}
    1436:	df 91       	pop	r29
    1438:	cf 91       	pop	r28
    143a:	08 95       	ret

0000143c <__vector_13>:
 * parameters specified in the global \c transfer structure.
 */
static void twim_interrupt_handler(void);

#ifdef TWIC
ISR(TWIC_TWIM_vect) { twim_interrupt_handler(); }
    143c:	1f 92       	push	r1
    143e:	0f 92       	push	r0
    1440:	0f b6       	in	r0, 0x3f	; 63
    1442:	0f 92       	push	r0
    1444:	11 24       	eor	r1, r1
    1446:	08 b6       	in	r0, 0x38	; 56
    1448:	0f 92       	push	r0
    144a:	18 be       	out	0x38, r1	; 56
    144c:	09 b6       	in	r0, 0x39	; 57
    144e:	0f 92       	push	r0
    1450:	19 be       	out	0x39, r1	; 57
    1452:	0b b6       	in	r0, 0x3b	; 59
    1454:	0f 92       	push	r0
    1456:	1b be       	out	0x3b, r1	; 59
    1458:	2f 93       	push	r18
    145a:	3f 93       	push	r19
    145c:	4f 93       	push	r20
    145e:	5f 93       	push	r21
    1460:	6f 93       	push	r22
    1462:	7f 93       	push	r23
    1464:	8f 93       	push	r24
    1466:	9f 93       	push	r25
    1468:	af 93       	push	r26
    146a:	bf 93       	push	r27
    146c:	ef 93       	push	r30
    146e:	ff 93       	push	r31
    1470:	4e df       	rcall	.-356    	; 0x130e <twim_interrupt_handler>
    1472:	ff 91       	pop	r31
    1474:	ef 91       	pop	r30
    1476:	bf 91       	pop	r27
    1478:	af 91       	pop	r26
    147a:	9f 91       	pop	r25
    147c:	8f 91       	pop	r24
    147e:	7f 91       	pop	r23
    1480:	6f 91       	pop	r22
    1482:	5f 91       	pop	r21
    1484:	4f 91       	pop	r20
    1486:	3f 91       	pop	r19
    1488:	2f 91       	pop	r18
    148a:	0f 90       	pop	r0
    148c:	0b be       	out	0x3b, r0	; 59
    148e:	0f 90       	pop	r0
    1490:	09 be       	out	0x39, r0	; 57
    1492:	0f 90       	pop	r0
    1494:	08 be       	out	0x38, r0	; 56
    1496:	0f 90       	pop	r0
    1498:	0f be       	out	0x3f, r0	; 63
    149a:	0f 90       	pop	r0
    149c:	1f 90       	pop	r1
    149e:	18 95       	reti

000014a0 <__vector_46>:
#endif
#ifdef TWID
ISR(TWID_TWIM_vect) { twim_interrupt_handler(); }
#endif
#ifdef TWIE
ISR(TWIE_TWIM_vect) { twim_interrupt_handler(); }
    14a0:	1f 92       	push	r1
    14a2:	0f 92       	push	r0
    14a4:	0f b6       	in	r0, 0x3f	; 63
    14a6:	0f 92       	push	r0
    14a8:	11 24       	eor	r1, r1
    14aa:	08 b6       	in	r0, 0x38	; 56
    14ac:	0f 92       	push	r0
    14ae:	18 be       	out	0x38, r1	; 56
    14b0:	09 b6       	in	r0, 0x39	; 57
    14b2:	0f 92       	push	r0
    14b4:	19 be       	out	0x39, r1	; 57
    14b6:	0b b6       	in	r0, 0x3b	; 59
    14b8:	0f 92       	push	r0
    14ba:	1b be       	out	0x3b, r1	; 59
    14bc:	2f 93       	push	r18
    14be:	3f 93       	push	r19
    14c0:	4f 93       	push	r20
    14c2:	5f 93       	push	r21
    14c4:	6f 93       	push	r22
    14c6:	7f 93       	push	r23
    14c8:	8f 93       	push	r24
    14ca:	9f 93       	push	r25
    14cc:	af 93       	push	r26
    14ce:	bf 93       	push	r27
    14d0:	ef 93       	push	r30
    14d2:	ff 93       	push	r31
    14d4:	1c df       	rcall	.-456    	; 0x130e <twim_interrupt_handler>
    14d6:	ff 91       	pop	r31
    14d8:	ef 91       	pop	r30
    14da:	bf 91       	pop	r27
    14dc:	af 91       	pop	r26
    14de:	9f 91       	pop	r25
    14e0:	8f 91       	pop	r24
    14e2:	7f 91       	pop	r23
    14e4:	6f 91       	pop	r22
    14e6:	5f 91       	pop	r21
    14e8:	4f 91       	pop	r20
    14ea:	3f 91       	pop	r19
    14ec:	2f 91       	pop	r18
    14ee:	0f 90       	pop	r0
    14f0:	0b be       	out	0x3b, r0	; 59
    14f2:	0f 90       	pop	r0
    14f4:	09 be       	out	0x39, r0	; 57
    14f6:	0f 90       	pop	r0
    14f8:	08 be       	out	0x38, r0	; 56
    14fa:	0f 90       	pop	r0
    14fc:	0f be       	out	0x3f, r0	; 63
    14fe:	0f 90       	pop	r0
    1500:	1f 90       	pop	r1
    1502:	18 95       	reti

00001504 <usart_putchar>:

	if (baud_offset != USART_BAUD_UNDEFINED) {
		(usart)->BAUDCTRLB = (uint8_t)((uint16_t)baudctrl);
		(usart)->BAUDCTRLA = (uint8_t)((uint16_t)baudctrl >> 8);
	}
}
    1504:	fc 01       	movw	r30, r24
    1506:	91 81       	ldd	r25, Z+1	; 0x01
    1508:	95 ff       	sbrs	r25, 5
    150a:	fd cf       	rjmp	.-6      	; 0x1506 <usart_putchar+0x2>
    150c:	60 83       	st	Z, r22
    150e:	80 e0       	ldi	r24, 0x00	; 0
    1510:	90 e0       	ldi	r25, 0x00	; 0
    1512:	08 95       	ret

00001514 <usart_getchar>:
    1514:	fc 01       	movw	r30, r24
    1516:	91 81       	ldd	r25, Z+1	; 0x01
    1518:	99 23       	and	r25, r25
    151a:	ec f7       	brge	.-6      	; 0x1516 <usart_getchar+0x2>
    151c:	80 81       	ld	r24, Z
    151e:	08 95       	ret

00001520 <usart_set_baudrate>:
 * \retval true if the hardware supports the baud rate
 * \retval false if the hardware does not support the baud rate (i.e. it's
 *               either too high or too low.)
 */
bool usart_set_baudrate(USART_t *usart, uint32_t baud, uint32_t cpu_hz)
{
    1520:	4f 92       	push	r4
    1522:	5f 92       	push	r5
    1524:	6f 92       	push	r6
    1526:	7f 92       	push	r7
    1528:	8f 92       	push	r8
    152a:	9f 92       	push	r9
    152c:	af 92       	push	r10
    152e:	bf 92       	push	r11
    1530:	ef 92       	push	r14
    1532:	ff 92       	push	r15
    1534:	0f 93       	push	r16
    1536:	1f 93       	push	r17
    1538:	cf 93       	push	r28
    153a:	7c 01       	movw	r14, r24
    153c:	4a 01       	movw	r8, r20
    153e:	5b 01       	movw	r10, r22
    1540:	28 01       	movw	r4, r16
    1542:	39 01       	movw	r6, r18
	/* 8 = (2^0) * 8 * (2^0) = (2^BSCALE_MIN) * 8 * (BSEL_MIN) */
	max_rate = cpu_hz / 8;
	/* 4194304 = (2^7) * 8 * (2^12) = (2^BSCALE_MAX) * 8 * (BSEL_MAX+1) */
	min_rate = cpu_hz / 4194304;

	if (!((usart)->CTRLB & USART_CLK2X_bm)) {
    1544:	fc 01       	movw	r30, r24
    1546:	84 81       	ldd	r24, Z+4	; 0x04
    1548:	82 ff       	sbrs	r24, 2
    154a:	16 c0       	rjmp	.+44     	; 0x1578 <usart_set_baudrate+0x58>

	/*
	 * Check if the hardware supports the given baud rate
	 */
	/* 8 = (2^0) * 8 * (2^0) = (2^BSCALE_MIN) * 8 * (BSEL_MIN) */
	max_rate = cpu_hz / 8;
    154c:	d9 01       	movw	r26, r18
    154e:	c8 01       	movw	r24, r16
    1550:	68 94       	set
    1552:	12 f8       	bld	r1, 2
    1554:	b6 95       	lsr	r27
    1556:	a7 95       	ror	r26
    1558:	97 95       	ror	r25
    155a:	87 95       	ror	r24
    155c:	16 94       	lsr	r1
    155e:	d1 f7       	brne	.-12     	; 0x1554 <usart_set_baudrate+0x34>
	/* 4194304 = (2^7) * 8 * (2^12) = (2^BSCALE_MAX) * 8 * (BSEL_MAX+1) */
	min_rate = cpu_hz / 4194304;
    1560:	b9 01       	movw	r22, r18
    1562:	a8 01       	movw	r20, r16
    1564:	03 2e       	mov	r0, r19
    1566:	36 e1       	ldi	r19, 0x16	; 22
    1568:	76 95       	lsr	r23
    156a:	67 95       	ror	r22
    156c:	57 95       	ror	r21
    156e:	47 95       	ror	r20
    1570:	3a 95       	dec	r19
    1572:	d1 f7       	brne	.-12     	; 0x1568 <usart_set_baudrate+0x48>
    1574:	30 2d       	mov	r19, r0
    1576:	15 c0       	rjmp	.+42     	; 0x15a2 <usart_set_baudrate+0x82>

	if (!((usart)->CTRLB & USART_CLK2X_bm)) {
		max_rate /= 2;
    1578:	d9 01       	movw	r26, r18
    157a:	c8 01       	movw	r24, r16
    157c:	68 94       	set
    157e:	13 f8       	bld	r1, 3
    1580:	b6 95       	lsr	r27
    1582:	a7 95       	ror	r26
    1584:	97 95       	ror	r25
    1586:	87 95       	ror	r24
    1588:	16 94       	lsr	r1
    158a:	d1 f7       	brne	.-12     	; 0x1580 <usart_set_baudrate+0x60>
		min_rate /= 2;
    158c:	b9 01       	movw	r22, r18
    158e:	a8 01       	movw	r20, r16
    1590:	03 2e       	mov	r0, r19
    1592:	37 e1       	ldi	r19, 0x17	; 23
    1594:	76 95       	lsr	r23
    1596:	67 95       	ror	r22
    1598:	57 95       	ror	r21
    159a:	47 95       	ror	r20
    159c:	3a 95       	dec	r19
    159e:	d1 f7       	brne	.-12     	; 0x1594 <usart_set_baudrate+0x74>
    15a0:	30 2d       	mov	r19, r0
	}

	if ((baud > max_rate) || (baud < min_rate)) {
    15a2:	88 15       	cp	r24, r8
    15a4:	99 05       	cpc	r25, r9
    15a6:	aa 05       	cpc	r26, r10
    15a8:	bb 05       	cpc	r27, r11
    15aa:	08 f4       	brcc	.+2      	; 0x15ae <usart_set_baudrate+0x8e>
    15ac:	a6 c0       	rjmp	.+332    	; 0x16fa <usart_set_baudrate+0x1da>
    15ae:	84 16       	cp	r8, r20
    15b0:	95 06       	cpc	r9, r21
    15b2:	a6 06       	cpc	r10, r22
    15b4:	b7 06       	cpc	r11, r23
    15b6:	08 f4       	brcc	.+2      	; 0x15ba <usart_set_baudrate+0x9a>
    15b8:	a2 c0       	rjmp	.+324    	; 0x16fe <usart_set_baudrate+0x1de>
		return false;
	}

	/* Check if double speed is enabled. */
	if (!((usart)->CTRLB & USART_CLK2X_bm)) {
    15ba:	f7 01       	movw	r30, r14
    15bc:	84 81       	ldd	r24, Z+4	; 0x04
    15be:	82 fd       	sbrc	r24, 2
    15c0:	04 c0       	rjmp	.+8      	; 0x15ca <usart_set_baudrate+0xaa>
		baud *= 2;
    15c2:	88 0c       	add	r8, r8
    15c4:	99 1c       	adc	r9, r9
    15c6:	aa 1c       	adc	r10, r10
    15c8:	bb 1c       	adc	r11, r11
	}

	/* Find the lowest possible exponent. */
	limit = 0xfffU >> 4;
	ratio = cpu_hz / baud;
    15ca:	c3 01       	movw	r24, r6
    15cc:	b2 01       	movw	r22, r4
    15ce:	a5 01       	movw	r20, r10
    15d0:	94 01       	movw	r18, r8
    15d2:	0e 94 fc 26 	call	0x4df8	; 0x4df8 <__udivmodsi4>

	for (exp = -7; exp < 7; exp++) {
		if (ratio < limit) {
    15d6:	2f 3f       	cpi	r18, 0xFF	; 255
    15d8:	31 05       	cpc	r19, r1
    15da:	41 05       	cpc	r20, r1
    15dc:	51 05       	cpc	r21, r1
    15de:	08 f4       	brcc	.+2      	; 0x15e2 <usart_set_baudrate+0xc2>
    15e0:	90 c0       	rjmp	.+288    	; 0x1702 <usart_set_baudrate+0x1e2>
    15e2:	8f ef       	ldi	r24, 0xFF	; 255
    15e4:	90 e0       	ldi	r25, 0x00	; 0
    15e6:	a0 e0       	ldi	r26, 0x00	; 0
    15e8:	b0 e0       	ldi	r27, 0x00	; 0
    15ea:	c9 ef       	ldi	r28, 0xF9	; 249
    15ec:	05 c0       	rjmp	.+10     	; 0x15f8 <usart_set_baudrate+0xd8>
    15ee:	28 17       	cp	r18, r24
    15f0:	39 07       	cpc	r19, r25
    15f2:	4a 07       	cpc	r20, r26
    15f4:	5b 07       	cpc	r21, r27
    15f6:	58 f0       	brcs	.+22     	; 0x160e <usart_set_baudrate+0xee>
			break;
		}

		limit <<= 1;
    15f8:	88 0f       	add	r24, r24
    15fa:	99 1f       	adc	r25, r25
    15fc:	aa 1f       	adc	r26, r26
    15fe:	bb 1f       	adc	r27, r27

		if (exp < -3) {
    1600:	cd 3f       	cpi	r28, 0xFD	; 253
    1602:	0c f4       	brge	.+2      	; 0x1606 <usart_set_baudrate+0xe6>
			limit |= 1;
    1604:	81 60       	ori	r24, 0x01	; 1
    1606:	cf 5f       	subi	r28, 0xFF	; 255

	/* Find the lowest possible exponent. */
	limit = 0xfffU >> 4;
	ratio = cpu_hz / baud;

	for (exp = -7; exp < 7; exp++) {
    1608:	c7 30       	cpi	r28, 0x07	; 7
    160a:	89 f7       	brne	.-30     	; 0x15ee <usart_set_baudrate+0xce>
    160c:	4f c0       	rjmp	.+158    	; 0x16ac <usart_set_baudrate+0x18c>
	 * point.
	 *
	 * The formula for calculating BSEL is slightly different when exp is
	 * negative than it is when exp is positive.
	 */
	if (exp < 0) {
    160e:	cc 23       	and	r28, r28
    1610:	0c f0       	brlt	.+2      	; 0x1614 <usart_set_baudrate+0xf4>
    1612:	4c c0       	rjmp	.+152    	; 0x16ac <usart_set_baudrate+0x18c>
		/* We are supposed to subtract 1, then apply BSCALE. We want to
		 * apply BSCALE first, so we need to turn everything inside the
		 * parenthesis into a single fractional expression.
		 */
		cpu_hz -= 8 * baud;
    1614:	d5 01       	movw	r26, r10
    1616:	c4 01       	movw	r24, r8
    1618:	88 0f       	add	r24, r24
    161a:	99 1f       	adc	r25, r25
    161c:	aa 1f       	adc	r26, r26
    161e:	bb 1f       	adc	r27, r27
    1620:	88 0f       	add	r24, r24
    1622:	99 1f       	adc	r25, r25
    1624:	aa 1f       	adc	r26, r26
    1626:	bb 1f       	adc	r27, r27
    1628:	88 0f       	add	r24, r24
    162a:	99 1f       	adc	r25, r25
    162c:	aa 1f       	adc	r26, r26
    162e:	bb 1f       	adc	r27, r27
    1630:	48 1a       	sub	r4, r24
    1632:	59 0a       	sbc	r5, r25
    1634:	6a 0a       	sbc	r6, r26
    1636:	7b 0a       	sbc	r7, r27
		/* If we end up with a left-shift after taking the final
		 * divide-by-8 into account, do the shift before the divide.
		 * Otherwise, left-shift the denominator instead (effectively
		 * resulting in an overall right shift.)
		 */
		if (exp <= -3) {
    1638:	ce 3f       	cpi	r28, 0xFE	; 254
    163a:	f4 f4       	brge	.+60     	; 0x1678 <usart_set_baudrate+0x158>
			div = ((cpu_hz << (-exp - 3)) + baud / 2) / baud;
    163c:	8d ef       	ldi	r24, 0xFD	; 253
    163e:	9f ef       	ldi	r25, 0xFF	; 255
    1640:	8c 1b       	sub	r24, r28
    1642:	91 09       	sbc	r25, r1
    1644:	c7 fd       	sbrc	r28, 7
    1646:	93 95       	inc	r25
    1648:	04 c0       	rjmp	.+8      	; 0x1652 <usart_set_baudrate+0x132>
    164a:	44 0c       	add	r4, r4
    164c:	55 1c       	adc	r5, r5
    164e:	66 1c       	adc	r6, r6
    1650:	77 1c       	adc	r7, r7
    1652:	8a 95       	dec	r24
    1654:	d2 f7       	brpl	.-12     	; 0x164a <usart_set_baudrate+0x12a>
    1656:	d5 01       	movw	r26, r10
    1658:	c4 01       	movw	r24, r8
    165a:	b6 95       	lsr	r27
    165c:	a7 95       	ror	r26
    165e:	97 95       	ror	r25
    1660:	87 95       	ror	r24
    1662:	bc 01       	movw	r22, r24
    1664:	cd 01       	movw	r24, r26
    1666:	64 0d       	add	r22, r4
    1668:	75 1d       	adc	r23, r5
    166a:	86 1d       	adc	r24, r6
    166c:	97 1d       	adc	r25, r7
    166e:	a5 01       	movw	r20, r10
    1670:	94 01       	movw	r18, r8
    1672:	0e 94 fc 26 	call	0x4df8	; 0x4df8 <__udivmodsi4>
    1676:	37 c0       	rjmp	.+110    	; 0x16e6 <usart_set_baudrate+0x1c6>
		} else {
			baud <<= exp + 3;
    1678:	83 e0       	ldi	r24, 0x03	; 3
    167a:	8c 0f       	add	r24, r28
    167c:	a5 01       	movw	r20, r10
    167e:	94 01       	movw	r18, r8
    1680:	04 c0       	rjmp	.+8      	; 0x168a <usart_set_baudrate+0x16a>
    1682:	22 0f       	add	r18, r18
    1684:	33 1f       	adc	r19, r19
    1686:	44 1f       	adc	r20, r20
    1688:	55 1f       	adc	r21, r21
    168a:	8a 95       	dec	r24
    168c:	d2 f7       	brpl	.-12     	; 0x1682 <usart_set_baudrate+0x162>
			div = (cpu_hz + baud / 2) / baud;
    168e:	da 01       	movw	r26, r20
    1690:	c9 01       	movw	r24, r18
    1692:	b6 95       	lsr	r27
    1694:	a7 95       	ror	r26
    1696:	97 95       	ror	r25
    1698:	87 95       	ror	r24
    169a:	bc 01       	movw	r22, r24
    169c:	cd 01       	movw	r24, r26
    169e:	64 0d       	add	r22, r4
    16a0:	75 1d       	adc	r23, r5
    16a2:	86 1d       	adc	r24, r6
    16a4:	97 1d       	adc	r25, r7
    16a6:	0e 94 fc 26 	call	0x4df8	; 0x4df8 <__udivmodsi4>
    16aa:	1d c0       	rjmp	.+58     	; 0x16e6 <usart_set_baudrate+0x1c6>
		}
	} else {
		/* We will always do a right shift in this case, but we need to
		 * shift three extra positions because of the divide-by-8.
		 */
		baud <<= exp + 3;
    16ac:	83 e0       	ldi	r24, 0x03	; 3
    16ae:	8c 0f       	add	r24, r28
    16b0:	a5 01       	movw	r20, r10
    16b2:	94 01       	movw	r18, r8
    16b4:	04 c0       	rjmp	.+8      	; 0x16be <usart_set_baudrate+0x19e>
    16b6:	22 0f       	add	r18, r18
    16b8:	33 1f       	adc	r19, r19
    16ba:	44 1f       	adc	r20, r20
    16bc:	55 1f       	adc	r21, r21
    16be:	8a 95       	dec	r24
    16c0:	d2 f7       	brpl	.-12     	; 0x16b6 <usart_set_baudrate+0x196>
		div = (cpu_hz + baud / 2) / baud - 1;
    16c2:	da 01       	movw	r26, r20
    16c4:	c9 01       	movw	r24, r18
    16c6:	b6 95       	lsr	r27
    16c8:	a7 95       	ror	r26
    16ca:	97 95       	ror	r25
    16cc:	87 95       	ror	r24
    16ce:	bc 01       	movw	r22, r24
    16d0:	cd 01       	movw	r24, r26
    16d2:	64 0d       	add	r22, r4
    16d4:	75 1d       	adc	r23, r5
    16d6:	86 1d       	adc	r24, r6
    16d8:	97 1d       	adc	r25, r7
    16da:	0e 94 fc 26 	call	0x4df8	; 0x4df8 <__udivmodsi4>
    16de:	21 50       	subi	r18, 0x01	; 1
    16e0:	31 09       	sbc	r19, r1
    16e2:	41 09       	sbc	r20, r1
    16e4:	51 09       	sbc	r21, r1
	}

	(usart)->BAUDCTRLB = (uint8_t)(((div >> 8) & 0X0F) | (exp << 4));
    16e6:	83 2f       	mov	r24, r19
    16e8:	8f 70       	andi	r24, 0x0F	; 15
    16ea:	c2 95       	swap	r28
    16ec:	c0 7f       	andi	r28, 0xF0	; 240
    16ee:	c8 2b       	or	r28, r24
    16f0:	f7 01       	movw	r30, r14
    16f2:	c7 83       	std	Z+7, r28	; 0x07
	(usart)->BAUDCTRLA = (uint8_t)div;
    16f4:	26 83       	std	Z+6, r18	; 0x06

	return true;
    16f6:	81 e0       	ldi	r24, 0x01	; 1
    16f8:	18 c0       	rjmp	.+48     	; 0x172a <usart_set_baudrate+0x20a>
		max_rate /= 2;
		min_rate /= 2;
	}

	if ((baud > max_rate) || (baud < min_rate)) {
		return false;
    16fa:	80 e0       	ldi	r24, 0x00	; 0
    16fc:	16 c0       	rjmp	.+44     	; 0x172a <usart_set_baudrate+0x20a>
    16fe:	80 e0       	ldi	r24, 0x00	; 0
    1700:	14 c0       	rjmp	.+40     	; 0x172a <usart_set_baudrate+0x20a>
	if (exp < 0) {
		/* We are supposed to subtract 1, then apply BSCALE. We want to
		 * apply BSCALE first, so we need to turn everything inside the
		 * parenthesis into a single fractional expression.
		 */
		cpu_hz -= 8 * baud;
    1702:	d5 01       	movw	r26, r10
    1704:	c4 01       	movw	r24, r8
    1706:	88 0f       	add	r24, r24
    1708:	99 1f       	adc	r25, r25
    170a:	aa 1f       	adc	r26, r26
    170c:	bb 1f       	adc	r27, r27
    170e:	88 0f       	add	r24, r24
    1710:	99 1f       	adc	r25, r25
    1712:	aa 1f       	adc	r26, r26
    1714:	bb 1f       	adc	r27, r27
    1716:	88 0f       	add	r24, r24
    1718:	99 1f       	adc	r25, r25
    171a:	aa 1f       	adc	r26, r26
    171c:	bb 1f       	adc	r27, r27
    171e:	48 1a       	sub	r4, r24
    1720:	59 0a       	sbc	r5, r25
    1722:	6a 0a       	sbc	r6, r26
    1724:	7b 0a       	sbc	r7, r27

	/* Find the lowest possible exponent. */
	limit = 0xfffU >> 4;
	ratio = cpu_hz / baud;

	for (exp = -7; exp < 7; exp++) {
    1726:	c9 ef       	ldi	r28, 0xF9	; 249
    1728:	89 cf       	rjmp	.-238    	; 0x163c <usart_set_baudrate+0x11c>

	(usart)->BAUDCTRLB = (uint8_t)(((div >> 8) & 0X0F) | (exp << 4));
	(usart)->BAUDCTRLA = (uint8_t)div;

	return true;
}
    172a:	cf 91       	pop	r28
    172c:	1f 91       	pop	r17
    172e:	0f 91       	pop	r16
    1730:	ff 90       	pop	r15
    1732:	ef 90       	pop	r14
    1734:	bf 90       	pop	r11
    1736:	af 90       	pop	r10
    1738:	9f 90       	pop	r9
    173a:	8f 90       	pop	r8
    173c:	7f 90       	pop	r7
    173e:	6f 90       	pop	r6
    1740:	5f 90       	pop	r5
    1742:	4f 90       	pop	r4
    1744:	08 95       	ret

00001746 <usart_init_rs232>:
 *
 * \retval true if the initialization was successfull
 * \retval false if the initialization failed (error in baud rate calculation)
 */
bool usart_init_rs232(USART_t *usart, const usart_rs232_options_t *opt)
{
    1746:	0f 93       	push	r16
    1748:	1f 93       	push	r17
    174a:	cf 93       	push	r28
    174c:	df 93       	push	r29
    174e:	ec 01       	movw	r28, r24
    1750:	8b 01       	movw	r16, r22
 *
 * \param module Pointer to the module's base address.
 */
static inline void sysclk_enable_peripheral_clock(const volatile void *module)
{
	if (module == NULL) {
    1752:	00 97       	sbiw	r24, 0x00	; 0
    1754:	09 f4       	brne	.+2      	; 0x1758 <usart_init_rs232+0x12>
    1756:	be c0       	rjmp	.+380    	; 0x18d4 <usart_init_rs232+0x18e>
		Assert(false);
	}
#ifdef AES
	else if (module == &AES) {
    1758:	80 3c       	cpi	r24, 0xC0	; 192
    175a:	91 05       	cpc	r25, r1
    175c:	21 f4       	brne	.+8      	; 0x1766 <usart_init_rs232+0x20>
		sysclk_enable_module(SYSCLK_PORT_GEN, SYSCLK_AES);
    175e:	60 e1       	ldi	r22, 0x10	; 16
    1760:	80 e0       	ldi	r24, 0x00	; 0
    1762:	f5 d3       	rcall	.+2026   	; 0x1f4e <sysclk_enable_module>
    1764:	b7 c0       	rjmp	.+366    	; 0x18d4 <usart_init_rs232+0x18e>
	else if (module == &EBI) {
		sysclk_enable_module(SYSCLK_PORT_GEN, SYSCLK_EBI);
	}
#endif
#ifdef RTC
	else if (module == &RTC) {
    1766:	c1 15       	cp	r28, r1
    1768:	84 e0       	ldi	r24, 0x04	; 4
    176a:	d8 07       	cpc	r29, r24
    176c:	21 f4       	brne	.+8      	; 0x1776 <usart_init_rs232+0x30>
		sysclk_enable_module(SYSCLK_PORT_GEN, SYSCLK_RTC);
    176e:	64 e0       	ldi	r22, 0x04	; 4
    1770:	80 e0       	ldi	r24, 0x00	; 0
    1772:	ed d3       	rcall	.+2010   	; 0x1f4e <sysclk_enable_module>
    1774:	af c0       	rjmp	.+350    	; 0x18d4 <usart_init_rs232+0x18e>
	}
#endif
#ifdef EVSYS
	else if (module == &EVSYS) {
    1776:	c0 38       	cpi	r28, 0x80	; 128
    1778:	e1 e0       	ldi	r30, 0x01	; 1
    177a:	de 07       	cpc	r29, r30
    177c:	21 f4       	brne	.+8      	; 0x1786 <usart_init_rs232+0x40>
		sysclk_enable_module(SYSCLK_PORT_GEN, SYSCLK_EVSYS);
    177e:	62 e0       	ldi	r22, 0x02	; 2
    1780:	80 e0       	ldi	r24, 0x00	; 0
    1782:	e5 d3       	rcall	.+1994   	; 0x1f4e <sysclk_enable_module>
    1784:	a7 c0       	rjmp	.+334    	; 0x18d4 <usart_init_rs232+0x18e>
	}
#endif
#ifdef DMA
	else if (module == &DMA) {
    1786:	c1 15       	cp	r28, r1
    1788:	f1 e0       	ldi	r31, 0x01	; 1
    178a:	df 07       	cpc	r29, r31
		sysclk_enable_module(SYSCLK_PORT_GEN, SYSCLK_DMA);
    178c:	21 f4       	brne	.+8      	; 0x1796 <usart_init_rs232+0x50>
    178e:	61 e0       	ldi	r22, 0x01	; 1
    1790:	80 e0       	ldi	r24, 0x00	; 0
    1792:	dd d3       	rcall	.+1978   	; 0x1f4e <sysclk_enable_module>
    1794:	9f c0       	rjmp	.+318    	; 0x18d4 <usart_init_rs232+0x18e>
	else if (module == &EDMA) {
		sysclk_enable_module(SYSCLK_PORT_GEN, SYSCLK_EDMA);
	}
#endif
#ifdef ACA
	else if (module == &ACA) {
    1796:	c0 38       	cpi	r28, 0x80	; 128
    1798:	83 e0       	ldi	r24, 0x03	; 3
    179a:	d8 07       	cpc	r29, r24
		sysclk_enable_module(SYSCLK_PORT_A, SYSCLK_AC);
    179c:	21 f4       	brne	.+8      	; 0x17a6 <usart_init_rs232+0x60>
    179e:	61 e0       	ldi	r22, 0x01	; 1
    17a0:	81 e0       	ldi	r24, 0x01	; 1
    17a2:	d5 d3       	rcall	.+1962   	; 0x1f4e <sysclk_enable_module>
    17a4:	97 c0       	rjmp	.+302    	; 0x18d4 <usart_init_rs232+0x18e>
	else if (module == &ACB) {
		sysclk_enable_module(SYSCLK_PORT_B, SYSCLK_AC);
	}
#endif
#ifdef ADCA
	else if (module == &ADCA) {
    17a6:	c1 15       	cp	r28, r1
    17a8:	e2 e0       	ldi	r30, 0x02	; 2
    17aa:	de 07       	cpc	r29, r30
		sysclk_enable_module(SYSCLK_PORT_A, SYSCLK_ADC);
    17ac:	21 f4       	brne	.+8      	; 0x17b6 <usart_init_rs232+0x70>
    17ae:	62 e0       	ldi	r22, 0x02	; 2
    17b0:	81 e0       	ldi	r24, 0x01	; 1
    17b2:	cd d3       	rcall	.+1946   	; 0x1f4e <sysclk_enable_module>
    17b4:	8f c0       	rjmp	.+286    	; 0x18d4 <usart_init_rs232+0x18e>
	}
#endif
// Workaround for bad XMEGA D header file
#if !XMEGA_D
#ifdef DACB
	else if (module == &DACB) {
    17b6:	c0 32       	cpi	r28, 0x20	; 32
    17b8:	f3 e0       	ldi	r31, 0x03	; 3
    17ba:	df 07       	cpc	r29, r31
		sysclk_enable_module(SYSCLK_PORT_B, SYSCLK_DAC);
    17bc:	21 f4       	brne	.+8      	; 0x17c6 <usart_init_rs232+0x80>
    17be:	64 e0       	ldi	r22, 0x04	; 4
    17c0:	82 e0       	ldi	r24, 0x02	; 2
    17c2:	c5 d3       	rcall	.+1930   	; 0x1f4e <sysclk_enable_module>
	}
#endif
#endif // Workaround end
#ifdef TCC0
	else if (module == &TCC0) {
    17c4:	87 c0       	rjmp	.+270    	; 0x18d4 <usart_init_rs232+0x18e>
    17c6:	c1 15       	cp	r28, r1
    17c8:	88 e0       	ldi	r24, 0x08	; 8
    17ca:	d8 07       	cpc	r29, r24
		sysclk_enable_module(SYSCLK_PORT_C, SYSCLK_TC0);
    17cc:	21 f4       	brne	.+8      	; 0x17d6 <usart_init_rs232+0x90>
    17ce:	61 e0       	ldi	r22, 0x01	; 1
    17d0:	83 e0       	ldi	r24, 0x03	; 3
    17d2:	bd d3       	rcall	.+1914   	; 0x1f4e <sysclk_enable_module>
	}
#endif
#ifdef TCD0
	else if (module == &TCD0) {
    17d4:	7f c0       	rjmp	.+254    	; 0x18d4 <usart_init_rs232+0x18e>
    17d6:	c1 15       	cp	r28, r1
    17d8:	e9 e0       	ldi	r30, 0x09	; 9
    17da:	de 07       	cpc	r29, r30
		sysclk_enable_module(SYSCLK_PORT_D, SYSCLK_TC0);
    17dc:	21 f4       	brne	.+8      	; 0x17e6 <usart_init_rs232+0xa0>
    17de:	61 e0       	ldi	r22, 0x01	; 1
    17e0:	84 e0       	ldi	r24, 0x04	; 4
    17e2:	b5 d3       	rcall	.+1898   	; 0x1f4e <sysclk_enable_module>
	}
#endif
#ifdef TCE0
	else if (module == &TCE0) {
    17e4:	77 c0       	rjmp	.+238    	; 0x18d4 <usart_init_rs232+0x18e>
    17e6:	c1 15       	cp	r28, r1
    17e8:	fa e0       	ldi	r31, 0x0A	; 10
    17ea:	df 07       	cpc	r29, r31
		sysclk_enable_module(SYSCLK_PORT_E, SYSCLK_TC0);
    17ec:	21 f4       	brne	.+8      	; 0x17f6 <usart_init_rs232+0xb0>
    17ee:	61 e0       	ldi	r22, 0x01	; 1
    17f0:	85 e0       	ldi	r24, 0x05	; 5
    17f2:	ad d3       	rcall	.+1882   	; 0x1f4e <sysclk_enable_module>
	else if (module == &TCF0) {
		sysclk_enable_module(SYSCLK_PORT_F, SYSCLK_TC0);
	}
#endif
#ifdef TCC1
	else if (module == &TCC1) {
    17f4:	6f c0       	rjmp	.+222    	; 0x18d4 <usart_init_rs232+0x18e>
    17f6:	c0 34       	cpi	r28, 0x40	; 64
    17f8:	88 e0       	ldi	r24, 0x08	; 8
    17fa:	d8 07       	cpc	r29, r24
		sysclk_enable_module(SYSCLK_PORT_C, SYSCLK_TC1);
    17fc:	21 f4       	brne	.+8      	; 0x1806 <usart_init_rs232+0xc0>
    17fe:	62 e0       	ldi	r22, 0x02	; 2
    1800:	83 e0       	ldi	r24, 0x03	; 3
    1802:	a5 d3       	rcall	.+1866   	; 0x1f4e <sysclk_enable_module>
	}
#endif
#ifdef TCD1
	else if (module == &TCD1) {
    1804:	67 c0       	rjmp	.+206    	; 0x18d4 <usart_init_rs232+0x18e>
    1806:	c0 34       	cpi	r28, 0x40	; 64
    1808:	e9 e0       	ldi	r30, 0x09	; 9
		sysclk_enable_module(SYSCLK_PORT_D, SYSCLK_TC1);
    180a:	de 07       	cpc	r29, r30
    180c:	21 f4       	brne	.+8      	; 0x1816 <usart_init_rs232+0xd0>
    180e:	62 e0       	ldi	r22, 0x02	; 2
    1810:	84 e0       	ldi	r24, 0x04	; 4
    1812:	9d d3       	rcall	.+1850   	; 0x1f4e <sysclk_enable_module>
	else if (module == &TCD5) {
		sysclk_enable_module(SYSCLK_PORT_D, SYSCLK_TC5);
	}
#endif
#ifdef HIRESC
	else if (module == &HIRESC) {
    1814:	5f c0       	rjmp	.+190    	; 0x18d4 <usart_init_rs232+0x18e>
    1816:	c0 39       	cpi	r28, 0x90	; 144
    1818:	f8 e0       	ldi	r31, 0x08	; 8
			sysclk_enable_module(SYSCLK_PORT_C, SYSCLK_HIRES);
    181a:	df 07       	cpc	r29, r31
    181c:	21 f4       	brne	.+8      	; 0x1826 <usart_init_rs232+0xe0>
    181e:	64 e0       	ldi	r22, 0x04	; 4
    1820:	83 e0       	ldi	r24, 0x03	; 3
    1822:	95 d3       	rcall	.+1834   	; 0x1f4e <sysclk_enable_module>
	}
#endif
#ifdef HIRESD
	else if (module == &HIRESD) {
    1824:	57 c0       	rjmp	.+174    	; 0x18d4 <usart_init_rs232+0x18e>
    1826:	c0 39       	cpi	r28, 0x90	; 144
    1828:	89 e0       	ldi	r24, 0x09	; 9
		sysclk_enable_module(SYSCLK_PORT_D, SYSCLK_HIRES);
    182a:	d8 07       	cpc	r29, r24
    182c:	21 f4       	brne	.+8      	; 0x1836 <usart_init_rs232+0xf0>
    182e:	64 e0       	ldi	r22, 0x04	; 4
    1830:	84 e0       	ldi	r24, 0x04	; 4
    1832:	8d d3       	rcall	.+1818   	; 0x1f4e <sysclk_enable_module>
	}
#endif
#ifdef HIRESE
	else if (module == &HIRESE) {
    1834:	4f c0       	rjmp	.+158    	; 0x18d4 <usart_init_rs232+0x18e>
    1836:	c0 39       	cpi	r28, 0x90	; 144
    1838:	ea e0       	ldi	r30, 0x0A	; 10
		sysclk_enable_module(SYSCLK_PORT_E, SYSCLK_HIRES);
    183a:	de 07       	cpc	r29, r30
    183c:	21 f4       	brne	.+8      	; 0x1846 <usart_init_rs232+0x100>
    183e:	64 e0       	ldi	r22, 0x04	; 4
    1840:	85 e0       	ldi	r24, 0x05	; 5
	else if (module == &HIRESF) {
		sysclk_enable_module(SYSCLK_PORT_F, SYSCLK_HIRES);
	}
#endif
#ifdef SPIC
	else if (module == &SPIC) {
    1842:	85 d3       	rcall	.+1802   	; 0x1f4e <sysclk_enable_module>
    1844:	47 c0       	rjmp	.+142    	; 0x18d4 <usart_init_rs232+0x18e>
    1846:	c0 3c       	cpi	r28, 0xC0	; 192
    1848:	f8 e0       	ldi	r31, 0x08	; 8
		sysclk_enable_module(SYSCLK_PORT_C, SYSCLK_SPI);
    184a:	df 07       	cpc	r29, r31
    184c:	21 f4       	brne	.+8      	; 0x1856 <usart_init_rs232+0x110>
    184e:	68 e0       	ldi	r22, 0x08	; 8
    1850:	83 e0       	ldi	r24, 0x03	; 3
	}
#endif
#ifdef SPID
	else if (module == &SPID) {
    1852:	7d d3       	rcall	.+1786   	; 0x1f4e <sysclk_enable_module>
    1854:	3f c0       	rjmp	.+126    	; 0x18d4 <usart_init_rs232+0x18e>
    1856:	c0 3c       	cpi	r28, 0xC0	; 192
    1858:	89 e0       	ldi	r24, 0x09	; 9
		sysclk_enable_module(SYSCLK_PORT_D, SYSCLK_SPI);
    185a:	d8 07       	cpc	r29, r24
    185c:	21 f4       	brne	.+8      	; 0x1866 <usart_init_rs232+0x120>
    185e:	68 e0       	ldi	r22, 0x08	; 8
    1860:	84 e0       	ldi	r24, 0x04	; 4
	else if (module == &SPIF) {
		sysclk_enable_module(SYSCLK_PORT_F, SYSCLK_SPI);
	}
#endif
#ifdef USARTC0
	else if (module == &USARTC0) {
    1862:	75 d3       	rcall	.+1770   	; 0x1f4e <sysclk_enable_module>
    1864:	37 c0       	rjmp	.+110    	; 0x18d4 <usart_init_rs232+0x18e>
    1866:	c0 3a       	cpi	r28, 0xA0	; 160
    1868:	e8 e0       	ldi	r30, 0x08	; 8
		sysclk_enable_module(SYSCLK_PORT_C, SYSCLK_USART0);
    186a:	de 07       	cpc	r29, r30
    186c:	21 f4       	brne	.+8      	; 0x1876 <usart_init_rs232+0x130>
    186e:	60 e1       	ldi	r22, 0x10	; 16
    1870:	83 e0       	ldi	r24, 0x03	; 3
	}
#endif
#ifdef USARTD0
	else if (module == &USARTD0) {
    1872:	6d d3       	rcall	.+1754   	; 0x1f4e <sysclk_enable_module>
    1874:	2f c0       	rjmp	.+94     	; 0x18d4 <usart_init_rs232+0x18e>
    1876:	c0 3a       	cpi	r28, 0xA0	; 160
    1878:	f9 e0       	ldi	r31, 0x09	; 9
		sysclk_enable_module(SYSCLK_PORT_D, SYSCLK_USART0);
    187a:	df 07       	cpc	r29, r31
    187c:	21 f4       	brne	.+8      	; 0x1886 <usart_init_rs232+0x140>
    187e:	60 e1       	ldi	r22, 0x10	; 16
    1880:	84 e0       	ldi	r24, 0x04	; 4
	}
#endif
#ifdef USARTE0
	else if (module == &USARTE0) {
    1882:	65 d3       	rcall	.+1738   	; 0x1f4e <sysclk_enable_module>
    1884:	27 c0       	rjmp	.+78     	; 0x18d4 <usart_init_rs232+0x18e>
    1886:	c0 3a       	cpi	r28, 0xA0	; 160
		sysclk_enable_module(SYSCLK_PORT_E, SYSCLK_USART0);
    1888:	8a e0       	ldi	r24, 0x0A	; 10
    188a:	d8 07       	cpc	r29, r24
    188c:	21 f4       	brne	.+8      	; 0x1896 <usart_init_rs232+0x150>
    188e:	60 e1       	ldi	r22, 0x10	; 16
    1890:	85 e0       	ldi	r24, 0x05	; 5
	else if (module == &USARTF0) {
		sysclk_enable_module(SYSCLK_PORT_F, SYSCLK_USART0);
	}
#endif
#ifdef USARTC1
	else if (module == &USARTC1) {
    1892:	5d d3       	rcall	.+1722   	; 0x1f4e <sysclk_enable_module>
    1894:	1f c0       	rjmp	.+62     	; 0x18d4 <usart_init_rs232+0x18e>
    1896:	c0 3b       	cpi	r28, 0xB0	; 176
		sysclk_enable_module(SYSCLK_PORT_C, SYSCLK_USART1);
    1898:	e8 e0       	ldi	r30, 0x08	; 8
    189a:	de 07       	cpc	r29, r30
    189c:	21 f4       	brne	.+8      	; 0x18a6 <usart_init_rs232+0x160>
    189e:	60 e2       	ldi	r22, 0x20	; 32
    18a0:	83 e0       	ldi	r24, 0x03	; 3
	}
#endif
#ifdef USARTD1
	else if (module == &USARTD1) {
    18a2:	55 d3       	rcall	.+1706   	; 0x1f4e <sysclk_enable_module>
    18a4:	17 c0       	rjmp	.+46     	; 0x18d4 <usart_init_rs232+0x18e>
    18a6:	c0 3b       	cpi	r28, 0xB0	; 176
		sysclk_enable_module(SYSCLK_PORT_D, SYSCLK_USART1);
    18a8:	f9 e0       	ldi	r31, 0x09	; 9
    18aa:	df 07       	cpc	r29, r31
    18ac:	21 f4       	brne	.+8      	; 0x18b6 <usart_init_rs232+0x170>
    18ae:	60 e2       	ldi	r22, 0x20	; 32
    18b0:	84 e0       	ldi	r24, 0x04	; 4
	else if (module == &USARTF1) {
		sysclk_enable_module(SYSCLK_PORT_F, SYSCLK_USART1);
	}
#endif
#ifdef TWIC
	else if (module == &TWIC) {
    18b2:	4d d3       	rcall	.+1690   	; 0x1f4e <sysclk_enable_module>
    18b4:	0f c0       	rjmp	.+30     	; 0x18d4 <usart_init_rs232+0x18e>
    18b6:	c0 38       	cpi	r28, 0x80	; 128
    18b8:	84 e0       	ldi	r24, 0x04	; 4
		sysclk_enable_module(SYSCLK_PORT_C, SYSCLK_TWI);
    18ba:	d8 07       	cpc	r29, r24
    18bc:	21 f4       	brne	.+8      	; 0x18c6 <usart_init_rs232+0x180>
    18be:	60 e4       	ldi	r22, 0x40	; 64
    18c0:	83 e0       	ldi	r24, 0x03	; 3
    18c2:	45 d3       	rcall	.+1674   	; 0x1f4e <sysclk_enable_module>
	else if (module == &TWID) {
		sysclk_enable_module(SYSCLK_PORT_D, SYSCLK_TWI);
	}
#endif
#ifdef TWIE
	else if (module == &TWIE) {
    18c4:	07 c0       	rjmp	.+14     	; 0x18d4 <usart_init_rs232+0x18e>
    18c6:	c0 3a       	cpi	r28, 0xA0	; 160
    18c8:	e4 e0       	ldi	r30, 0x04	; 4
    18ca:	de 07       	cpc	r29, r30
		sysclk_enable_module(SYSCLK_PORT_E, SYSCLK_TWI);
    18cc:	19 f4       	brne	.+6      	; 0x18d4 <usart_init_rs232+0x18e>
    18ce:	60 e4       	ldi	r22, 0x40	; 64
    18d0:	85 e0       	ldi	r24, 0x05	; 5
 * - 0x2        : IrDA mode.
 * - 0x3        : Master SPI mode.
 */
static inline void usart_set_mode(USART_t *usart, USART_CMODE_t usartmode)
{
	(usart)->CTRLC = ((usart)->CTRLC & (~USART_CMODE_gm)) | usartmode;
    18d2:	3d d3       	rcall	.+1658   	; 0x1f4e <sysclk_enable_module>
    18d4:	8d 81       	ldd	r24, Y+5	; 0x05
    18d6:	8f 73       	andi	r24, 0x3F	; 63
 *  \param twoStopBits Enable two stop bit mode. Use bool type.
 */
static inline void usart_format_set(USART_t *usart, USART_CHSIZE_t charSize,
		USART_PMODE_t parityMode, bool twoStopBits)
{
	(usart)->CTRLC = (uint8_t)charSize | parityMode
    18d8:	8d 83       	std	Y+5, r24	; 0x05
    18da:	f8 01       	movw	r30, r16
    18dc:	95 81       	ldd	r25, Z+5	; 0x05
    18de:	84 81       	ldd	r24, Z+4	; 0x04
    18e0:	89 2b       	or	r24, r25
    18e2:	96 81       	ldd	r25, Z+6	; 0x06
    18e4:	91 11       	cpse	r25, r1
    18e6:	98 e0       	ldi	r25, 0x08	; 8
    18e8:	89 2b       	or	r24, r25
	bool result;
	sysclk_enable_peripheral_clock(usart);
	usart_set_mode(usart, USART_CMODE_ASYNCHRONOUS_gc);
	usart_format_set(usart, opt->charlength, opt->paritytype,
			opt->stopbits);
	result = usart_set_baudrate(usart, opt->baudrate, sysclk_get_per_hz());
    18ea:	8d 83       	std	Y+5, r24	; 0x05
    18ec:	f8 01       	movw	r30, r16
    18ee:	40 81       	ld	r20, Z
    18f0:	51 81       	ldd	r21, Z+1	; 0x01
    18f2:	62 81       	ldd	r22, Z+2	; 0x02
    18f4:	73 81       	ldd	r23, Z+3	; 0x03
    18f6:	00 e0       	ldi	r16, 0x00	; 0
    18f8:	18 e4       	ldi	r17, 0x48	; 72
    18fa:	28 ee       	ldi	r18, 0xE8	; 232
    18fc:	31 e0       	ldi	r19, 0x01	; 1
    18fe:	ce 01       	movw	r24, r28
    1900:	0f de       	rcall	.-994    	; 0x1520 <usart_set_baudrate>
 *
 * \param usart Pointer to the USART module.
 */
static inline void usart_tx_enable(USART_t *usart)
{
	(usart)->CTRLB |= USART_TXEN_bm;
    1902:	9c 81       	ldd	r25, Y+4	; 0x04
    1904:	98 60       	ori	r25, 0x08	; 8
    1906:	9c 83       	std	Y+4, r25	; 0x04
 *
 * \param usart Pointer to the USART module
 */
static inline void usart_rx_enable(USART_t *usart)
{
	(usart)->CTRLB |= USART_RXEN_bm;
    1908:	9c 81       	ldd	r25, Y+4	; 0x04
    190a:	90 61       	ori	r25, 0x10	; 16
    190c:	9c 83       	std	Y+4, r25	; 0x04
	usart_tx_enable(usart);
	usart_rx_enable(usart);
	
	return result;
}
    190e:	df 91       	pop	r29
    1910:	cf 91       	pop	r28
    1912:	1f 91       	pop	r17
    1914:	0f 91       	pop	r16
    1916:	08 95       	ret

00001918 <imu_heading>:
	return bno055_euler.p;
}

double imu_heading()
{
	return bno055_euler.h;
    1918:	60 91 7c 21 	lds	r22, 0x217C	; 0x80217c <bno055_euler>
    191c:	70 91 7d 21 	lds	r23, 0x217D	; 0x80217d <bno055_euler+0x1>
    1920:	80 91 7e 21 	lds	r24, 0x217E	; 0x80217e <bno055_euler+0x2>
    1924:	90 91 7f 21 	lds	r25, 0x217F	; 0x80217f <bno055_euler+0x3>
}
    1928:	08 95       	ret

0000192a <cam_switch>:
	PORTA.DIR |= PIN3_bm; // Sets A3 to output
	cam_switch();
}

void cam_switch(void){
	PORTA.OUT ^= PIN3_bm; // Changes A3 from high to low or vice-versa
    192a:	e0 e0       	ldi	r30, 0x00	; 0
    192c:	f6 e0       	ldi	r31, 0x06	; 6
    192e:	94 81       	ldd	r25, Z+4	; 0x04
    1930:	88 e0       	ldi	r24, 0x08	; 8
    1932:	89 27       	eor	r24, r25
    1934:	84 83       	std	Z+4, r24	; 0x04
    1936:	08 95       	ret

00001938 <cam_init>:

#include "spy_cam.h"
#include <asf.h>

void cam_init(void){
	PORTA.DIR |= PIN3_bm; // Sets A3 to output
    1938:	e0 e0       	ldi	r30, 0x00	; 0
    193a:	f6 e0       	ldi	r31, 0x06	; 6
    193c:	80 81       	ld	r24, Z
    193e:	88 60       	ori	r24, 0x08	; 8
    1940:	80 83       	st	Z, r24
	cam_switch();
    1942:	f3 cf       	rjmp	.-26     	; 0x192a <cam_switch>
    1944:	08 95       	ret

00001946 <thermistor_init>:
    1946:	ff 92       	push	r15
    1948:	0f 93       	push	r16
    194a:	1f 93       	push	r17
    194c:	cf 93       	push	r28
    194e:	df 93       	push	r29
    1950:	62 e0       	ldi	r22, 0x02	; 2
    1952:	81 e0       	ldi	r24, 0x01	; 1
    1954:	fc d2       	rcall	.+1528   	; 0x1f4e <sysclk_enable_module>
    1956:	c0 e0       	ldi	r28, 0x00	; 0
    1958:	d2 e0       	ldi	r29, 0x02	; 2
    195a:	ff 24       	eor	r15, r15
    195c:	f3 94       	inc	r15
    195e:	f8 82       	st	Y, r15
    1960:	19 82       	std	Y+1, r1	; 0x01
    1962:	80 e1       	ldi	r24, 0x10	; 16
    1964:	8a 83       	std	Y+2, r24	; 0x02
    1966:	85 e0       	ldi	r24, 0x05	; 5
    1968:	8c 83       	std	Y+4, r24	; 0x04
    196a:	61 e2       	ldi	r22, 0x21	; 33
    196c:	70 e0       	ldi	r23, 0x00	; 0
    196e:	82 e0       	ldi	r24, 0x02	; 2
    1970:	19 d3       	rcall	.+1586   	; 0x1fa4 <nvm_read_byte>
    1972:	08 2f       	mov	r16, r24
    1974:	10 e0       	ldi	r17, 0x00	; 0
    1976:	10 2f       	mov	r17, r16
    1978:	00 27       	eor	r16, r16
    197a:	60 e2       	ldi	r22, 0x20	; 32
    197c:	70 e0       	ldi	r23, 0x00	; 0
    197e:	82 e0       	ldi	r24, 0x02	; 2
    1980:	11 d3       	rcall	.+1570   	; 0x1fa4 <nvm_read_byte>
    1982:	08 2b       	or	r16, r24
    1984:	0c 87       	std	Y+12, r16	; 0x0c
    1986:	1d 87       	std	Y+13, r17	; 0x0d
    1988:	f8 a2       	std	Y+32, r15	; 0x20
    198a:	19 a2       	std	Y+33, r1	; 0x21
    198c:	df 91       	pop	r29
    198e:	cf 91       	pop	r28
    1990:	1f 91       	pop	r17
    1992:	0f 91       	pop	r16
    1994:	ff 90       	pop	r15
    1996:	08 95       	ret

00001998 <thermistor_read>:
    1998:	e0 e0       	ldi	r30, 0x00	; 0
    199a:	f2 e0       	ldi	r31, 0x02	; 2
    199c:	80 a1       	ldd	r24, Z+32	; 0x20
    199e:	80 68       	ori	r24, 0x80	; 128
    19a0:	80 a3       	std	Z+32, r24	; 0x20
    19a2:	83 a1       	ldd	r24, Z+35	; 0x23
    19a4:	88 23       	and	r24, r24
    19a6:	e9 f3       	breq	.-6      	; 0x19a2 <thermistor_read+0xa>
    19a8:	80 91 24 02 	lds	r24, 0x0224	; 0x800224 <__TEXT_REGION_LENGTH__+0x700224>
    19ac:	90 91 25 02 	lds	r25, 0x0225	; 0x800225 <__TEXT_REGION_LENGTH__+0x700225>
    19b0:	08 95       	ret

000019b2 <gps_uart_init>:

#include <asf.h>
#include <string.h>
#include "mt3339.h"

void gps_uart_init(void){
    19b2:	cf 93       	push	r28
    19b4:	df 93       	push	r29
    19b6:	cd b7       	in	r28, 0x3d	; 61
    19b8:	de b7       	in	r29, 0x3e	; 62
    19ba:	27 97       	sbiw	r28, 0x07	; 7
    19bc:	cd bf       	out	0x3d, r28	; 61
    19be:	de bf       	out	0x3e, r29	; 62
		sysclk_enable_module(SYSCLK_PORT_C, SYSCLK_USART1);
	}
#endif
#ifdef USARTD1
	else if (module == &USARTD1) {
		sysclk_enable_module(SYSCLK_PORT_D, SYSCLK_USART1);
    19c0:	60 e2       	ldi	r22, 0x20	; 32
    19c2:	84 e0       	ldi	r24, 0x04	; 4
    19c4:	c4 d2       	rcall	.+1416   	; 0x1f4e <sysclk_enable_module>
		.charlength =	GPS_TERMINAL_SERIAL_CHAR_LEN,
		.paritytype =	GPS_TERMINAL_SERIAL_PARITY,
		.stopbits	=	GPS_TERMINAL_SERIAL_STOP_BIT
	};
	
	GPS_TERMINAL_PORT.DIR |= GPS_TERMINAL_TX_PIN; // Puts pin to output
    19c6:	e0 e6       	ldi	r30, 0x60	; 96
    19c8:	f6 e0       	ldi	r31, 0x06	; 6
    19ca:	80 81       	ld	r24, Z
    19cc:	80 68       	ori	r24, 0x80	; 128
    19ce:	80 83       	st	Z, r24
static inline bool usart_serial_init(usart_if usart, const
		usart_serial_options_t *options)
{
	// USART options.
	usart_rs232_options_t usart_rs232_options;
	usart_rs232_options.charlength   = options->charlength;
    19d0:	e6 e0       	ldi	r30, 0x06	; 6
    19d2:	f0 e2       	ldi	r31, 0x20	; 32
    19d4:	84 81       	ldd	r24, Z+4	; 0x04
    19d6:	8d 83       	std	Y+5, r24	; 0x05
	usart_rs232_options.paritytype   = options->paritytype;
    19d8:	85 81       	ldd	r24, Z+5	; 0x05
    19da:	8e 83       	std	Y+6, r24	; 0x06
	usart_rs232_options.stopbits     = options->stopbits;
    19dc:	86 81       	ldd	r24, Z+6	; 0x06
    19de:	8f 83       	std	Y+7, r24	; 0x07
	usart_rs232_options.baudrate     = options->baudrate;
    19e0:	80 81       	ld	r24, Z
    19e2:	91 81       	ldd	r25, Z+1	; 0x01
    19e4:	a2 81       	ldd	r26, Z+2	; 0x02
    19e6:	b3 81       	ldd	r27, Z+3	; 0x03
    19e8:	89 83       	std	Y+1, r24	; 0x01
    19ea:	9a 83       	std	Y+2, r25	; 0x02
    19ec:	ab 83       	std	Y+3, r26	; 0x03
    19ee:	bc 83       	std	Y+4, r27	; 0x04
		sysclk_enable_module(SYSCLK_PORT_D,PR_USART0_bm);
	}
#endif
#ifdef USARTD1
	if((uint16_t)usart == (uint16_t)&USARTD1) {
		sysclk_enable_module(SYSCLK_PORT_D,PR_USART1_bm);
    19f0:	60 e2       	ldi	r22, 0x20	; 32
    19f2:	84 e0       	ldi	r24, 0x04	; 4
    19f4:	ac d2       	rcall	.+1368   	; 0x1f4e <sysclk_enable_module>
#ifdef USARTF1
	if((uint16_t)usart == (uint16_t)&USARTF1) {
		sysclk_enable_module(SYSCLK_PORT_F,PR_USART1_bm);
	}
#endif
	if (usart_init_rs232(usart, &usart_rs232_options)) {
    19f6:	be 01       	movw	r22, r28
    19f8:	6f 5f       	subi	r22, 0xFF	; 255
    19fa:	7f 4f       	sbci	r23, 0xFF	; 255
    19fc:	80 eb       	ldi	r24, 0xB0	; 176
    19fe:	99 e0       	ldi	r25, 0x09	; 9
    1a00:	a2 de       	rcall	.-700    	; 0x1746 <usart_init_rs232>
	
	usart_serial_init(GPS_TERMINAL_SERIAL,&gps_config);
}
    1a02:	27 96       	adiw	r28, 0x07	; 7
    1a04:	cd bf       	out	0x3d, r28	; 61
    1a06:	de bf       	out	0x3e, r29	; 62
    1a08:	df 91       	pop	r29
    1a0a:	cf 91       	pop	r28
    1a0c:	08 95       	ret

00001a0e <__portable_avr_delay_cycles>:
 *
 * @{
 */
__always_optimize
static inline void __portable_avr_delay_cycles(unsigned long n)
{
    1a0e:	04 c0       	rjmp	.+8      	; 0x1a18 <__portable_avr_delay_cycles+0xa>
	while (n) {
		barrier();
		n--;
    1a10:	61 50       	subi	r22, 0x01	; 1
    1a12:	71 09       	sbc	r23, r1
    1a14:	81 09       	sbc	r24, r1
    1a16:	91 09       	sbc	r25, r1
 * @{
 */
__always_optimize
static inline void __portable_avr_delay_cycles(unsigned long n)
{
	while (n) {
    1a18:	61 15       	cp	r22, r1
    1a1a:	71 05       	cpc	r23, r1
    1a1c:	81 05       	cpc	r24, r1
    1a1e:	91 05       	cpc	r25, r1
    1a20:	b9 f7       	brne	.-18     	; 0x1a10 <__portable_avr_delay_cycles+0x2>
    1a22:	08 95       	ret

00001a24 <flip_ms5607>:
	
	return rx_data;
}

void flip_ms5607(void){
	MS5607_PORT.OUT ^= MS5607_PIN;
    1a24:	e0 e4       	ldi	r30, 0x40	; 64
    1a26:	f6 e0       	ldi	r31, 0x06	; 6
    1a28:	94 81       	ldd	r25, Z+4	; 0x04
    1a2a:	80 e1       	ldi	r24, 0x10	; 16
    1a2c:	89 27       	eor	r24, r25
    1a2e:	84 83       	std	Z+4, r24	; 0x04
    1a30:	08 95       	ret

00001a32 <ms5607_init>:
#include <asf.h>
#include "ms5607.h"
#include "spi_controller.h"

void ms5607_init(void){
	PORTC.OUT |= 0x10; // makes the 4th pin on Port C be set on high (0b00010000)
    1a32:	e0 e4       	ldi	r30, 0x40	; 64
    1a34:	f6 e0       	ldi	r31, 0x06	; 6
    1a36:	84 81       	ldd	r24, Z+4	; 0x04
    1a38:	80 61       	ori	r24, 0x10	; 16
    1a3a:	84 83       	std	Z+4, r24	; 0x04
	
	// Resets the ms5607
	flip_ms5607();
    1a3c:	f3 df       	rcall	.-26     	; 0x1a24 <flip_ms5607>
	spi_write(CMD_MS5607_RESET);
    1a3e:	8e e1       	ldi	r24, 0x1E	; 30
    1a40:	b9 d0       	rcall	.+370    	; 0x1bb4 <spi_write>
	delay_ms(3);
    1a42:	60 e8       	ldi	r22, 0x80	; 128
    1a44:	7e e3       	ldi	r23, 0x3E	; 62
    1a46:	80 e0       	ldi	r24, 0x00	; 0
    1a48:	90 e0       	ldi	r25, 0x00	; 0
	flip_ms5607();
    1a4a:	e1 df       	rcall	.-62     	; 0x1a0e <__portable_avr_delay_cycles>
    1a4c:	eb df       	rcall	.-42     	; 0x1a24 <flip_ms5607>
	delay_ms(2);
    1a4e:	6b ea       	ldi	r22, 0xAB	; 171
    1a50:	79 e2       	ldi	r23, 0x29	; 41
    1a52:	80 e0       	ldi	r24, 0x00	; 0
    1a54:	90 e0       	ldi	r25, 0x00	; 0
    1a56:	db cf       	rjmp	.-74     	; 0x1a0e <__portable_avr_delay_cycles>
    1a58:	08 95       	ret

00001a5a <ms5607_read>:
}

uint16_t ms5607_read(uint16_t comm)
{
    1a5a:	cf 93       	push	r28
    1a5c:	df 93       	push	r29
    1a5e:	c8 2f       	mov	r28, r24
	uint16_t rx_data = 0; // temporary 16-bit value
	flip_ms5607(); // select our spi device
    1a60:	e1 df       	rcall	.-62     	; 0x1a24 <flip_ms5607>
	spi_write(comm); // write a specified command to ask for data
    1a62:	8c 2f       	mov	r24, r28
	
	/*typecast this expression from an 8-bit to a 16-bit and shift it 8 bits to the left
	  meaning the returned value is now in the upper 8 bits rx_data*/
	rx_data = (uint16_t)spi_read()<<8; 
    1a64:	a7 d0       	rcall	.+334    	; 0x1bb4 <spi_write>
    1a66:	97 d0       	rcall	.+302    	; 0x1b96 <spi_read>
    1a68:	c8 2f       	mov	r28, r24
    1a6a:	d0 e0       	ldi	r29, 0x00	; 0
    1a6c:	dc 2f       	mov	r29, r28
	
	// OR the second byte with the 16-bit variable, the returned value is now in the lower 8 bits of 'rx_data'
	rx_data |= spi_read(); 
    1a6e:	cc 27       	eor	r28, r28
    1a70:	92 d0       	rcall	.+292    	; 0x1b96 <spi_read>
    1a72:	c8 2b       	or	r28, r24
	
	flip_ms5607(); // end spi exchange
    1a74:	d7 df       	rcall	.-82     	; 0x1a24 <flip_ms5607>
    1a76:	ce 01       	movw	r24, r28
	
	return rx_data; // return the 16-bit value
}
    1a78:	df 91       	pop	r29
    1a7a:	cf 91       	pop	r28
    1a7c:	08 95       	ret

00001a7e <ms5607_convert_d1>:
    1a7e:	cf 93       	push	r28

uint32_t ms5607_convert_d1(void)
{
    1a80:	df 93       	push	r29
    1a82:	00 d0       	rcall	.+0      	; 0x1a84 <ms5607_convert_d1+0x6>
    1a84:	1f 92       	push	r1
    1a86:	cd b7       	in	r28, 0x3d	; 61
    1a88:	de b7       	in	r29, 0x3e	; 62
	volatile uint32_t rx_data = 0; // temporary 16-bit value
    1a8a:	19 82       	std	Y+1, r1	; 0x01
    1a8c:	1a 82       	std	Y+2, r1	; 0x02
    1a8e:	1b 82       	std	Y+3, r1	; 0x03
    1a90:	1c 82       	std	Y+4, r1	; 0x04
	// CONVERT D1
	flip_ms5607(); // select our spi device
    1a92:	c8 df       	rcall	.-112    	; 0x1a24 <flip_ms5607>
	spi_write(CMD_MS5607_D1_4096); // write a specified command to ask for data
    1a94:	88 e4       	ldi	r24, 0x48	; 72
    1a96:	8e d0       	rcall	.+284    	; 0x1bb4 <spi_write>
	delay_ms(10);
    1a98:	66 e5       	ldi	r22, 0x56	; 86
    1a9a:	70 ed       	ldi	r23, 0xD0	; 208
    1a9c:	80 e0       	ldi	r24, 0x00	; 0
    1a9e:	90 e0       	ldi	r25, 0x00	; 0
	flip_ms5607();
    1aa0:	b6 df       	rcall	.-148    	; 0x1a0e <__portable_avr_delay_cycles>
	
	flip_ms5607();
    1aa2:	c0 df       	rcall	.-128    	; 0x1a24 <flip_ms5607>
    1aa4:	bf df       	rcall	.-130    	; 0x1a24 <flip_ms5607>
	spi_write(CMD_MS5607_READ_ADC);
    1aa6:	80 e0       	ldi	r24, 0x00	; 0
    1aa8:	85 d0       	rcall	.+266    	; 0x1bb4 <spi_write>
    1aaa:	75 d0       	rcall	.+234    	; 0x1b96 <spi_read>
	rx_data  = (uint32_t) spi_read()<<16;
    1aac:	90 e0       	ldi	r25, 0x00	; 0
    1aae:	a0 e0       	ldi	r26, 0x00	; 0
    1ab0:	b0 e0       	ldi	r27, 0x00	; 0
    1ab2:	dc 01       	movw	r26, r24
    1ab4:	99 27       	eor	r25, r25
    1ab6:	88 27       	eor	r24, r24
    1ab8:	89 83       	std	Y+1, r24	; 0x01
    1aba:	9a 83       	std	Y+2, r25	; 0x02
    1abc:	ab 83       	std	Y+3, r26	; 0x03
    1abe:	bc 83       	std	Y+4, r27	; 0x04
    1ac0:	6a d0       	rcall	.+212    	; 0x1b96 <spi_read>
	rx_data |= (uint32_t) spi_read()<<8;
    1ac2:	49 81       	ldd	r20, Y+1	; 0x01
    1ac4:	5a 81       	ldd	r21, Y+2	; 0x02
    1ac6:	6b 81       	ldd	r22, Y+3	; 0x03
    1ac8:	7c 81       	ldd	r23, Y+4	; 0x04
    1aca:	58 2b       	or	r21, r24
    1acc:	49 83       	std	Y+1, r20	; 0x01
    1ace:	5a 83       	std	Y+2, r21	; 0x02
    1ad0:	6b 83       	std	Y+3, r22	; 0x03
    1ad2:	7c 83       	std	Y+4, r23	; 0x04
    1ad4:	60 d0       	rcall	.+192    	; 0x1b96 <spi_read>
	rx_data |= spi_read();
    1ad6:	49 81       	ldd	r20, Y+1	; 0x01
    1ad8:	5a 81       	ldd	r21, Y+2	; 0x02
    1ada:	6b 81       	ldd	r22, Y+3	; 0x03
    1adc:	7c 81       	ldd	r23, Y+4	; 0x04
    1ade:	48 2b       	or	r20, r24
    1ae0:	49 83       	std	Y+1, r20	; 0x01
    1ae2:	5a 83       	std	Y+2, r21	; 0x02
    1ae4:	6b 83       	std	Y+3, r22	; 0x03
    1ae6:	7c 83       	std	Y+4, r23	; 0x04
    1ae8:	9d df       	rcall	.-198    	; 0x1a24 <flip_ms5607>
	flip_ms5607();
    1aea:	69 81       	ldd	r22, Y+1	; 0x01
    1aec:	7a 81       	ldd	r23, Y+2	; 0x02
	
	return rx_data;
    1aee:	8b 81       	ldd	r24, Y+3	; 0x03
    1af0:	9c 81       	ldd	r25, Y+4	; 0x04
    1af2:	24 96       	adiw	r28, 0x04	; 4
    1af4:	cd bf       	out	0x3d, r28	; 61
}
    1af6:	de bf       	out	0x3e, r29	; 62
    1af8:	df 91       	pop	r29
    1afa:	cf 91       	pop	r28
    1afc:	08 95       	ret

00001afe <ms5607_convert_d2>:
    1afe:	cf 93       	push	r28
    1b00:	df 93       	push	r29

uint32_t ms5607_convert_d2(void)
{
    1b02:	00 d0       	rcall	.+0      	; 0x1b04 <ms5607_convert_d2+0x6>
    1b04:	1f 92       	push	r1
    1b06:	cd b7       	in	r28, 0x3d	; 61
    1b08:	de b7       	in	r29, 0x3e	; 62
	volatile uint32_t rx_data = 0; // temporary 16-bit value
    1b0a:	19 82       	std	Y+1, r1	; 0x01
    1b0c:	1a 82       	std	Y+2, r1	; 0x02
    1b0e:	1b 82       	std	Y+3, r1	; 0x03
    1b10:	1c 82       	std	Y+4, r1	; 0x04
	// CONVERT D2
	flip_ms5607(); // select our spi device
    1b12:	88 df       	rcall	.-240    	; 0x1a24 <flip_ms5607>
	spi_write(CMD_MS5607_D2_4096); // write a specified command to ask for data
    1b14:	88 e5       	ldi	r24, 0x58	; 88
    1b16:	4e d0       	rcall	.+156    	; 0x1bb4 <spi_write>
	delay_ms(10);
    1b18:	66 e5       	ldi	r22, 0x56	; 86
    1b1a:	70 ed       	ldi	r23, 0xD0	; 208
    1b1c:	80 e0       	ldi	r24, 0x00	; 0
    1b1e:	90 e0       	ldi	r25, 0x00	; 0
	flip_ms5607();
    1b20:	76 df       	rcall	.-276    	; 0x1a0e <__portable_avr_delay_cycles>
	
	flip_ms5607();
    1b22:	80 df       	rcall	.-256    	; 0x1a24 <flip_ms5607>
    1b24:	7f df       	rcall	.-258    	; 0x1a24 <flip_ms5607>
	spi_write(CMD_MS5607_READ_ADC);
    1b26:	80 e0       	ldi	r24, 0x00	; 0
    1b28:	45 d0       	rcall	.+138    	; 0x1bb4 <spi_write>
    1b2a:	35 d0       	rcall	.+106    	; 0x1b96 <spi_read>
	rx_data  = (uint32_t) spi_read()<<16;
    1b2c:	90 e0       	ldi	r25, 0x00	; 0
    1b2e:	a0 e0       	ldi	r26, 0x00	; 0
    1b30:	b0 e0       	ldi	r27, 0x00	; 0
    1b32:	dc 01       	movw	r26, r24
    1b34:	99 27       	eor	r25, r25
    1b36:	88 27       	eor	r24, r24
    1b38:	89 83       	std	Y+1, r24	; 0x01
    1b3a:	9a 83       	std	Y+2, r25	; 0x02
    1b3c:	ab 83       	std	Y+3, r26	; 0x03
    1b3e:	bc 83       	std	Y+4, r27	; 0x04
    1b40:	2a d0       	rcall	.+84     	; 0x1b96 <spi_read>
	rx_data |= (uint32_t) spi_read()<<8;
    1b42:	49 81       	ldd	r20, Y+1	; 0x01
    1b44:	5a 81       	ldd	r21, Y+2	; 0x02
    1b46:	6b 81       	ldd	r22, Y+3	; 0x03
    1b48:	7c 81       	ldd	r23, Y+4	; 0x04
    1b4a:	58 2b       	or	r21, r24
    1b4c:	49 83       	std	Y+1, r20	; 0x01
    1b4e:	5a 83       	std	Y+2, r21	; 0x02
    1b50:	6b 83       	std	Y+3, r22	; 0x03
    1b52:	7c 83       	std	Y+4, r23	; 0x04
    1b54:	20 d0       	rcall	.+64     	; 0x1b96 <spi_read>
	rx_data |= spi_read();
    1b56:	49 81       	ldd	r20, Y+1	; 0x01
    1b58:	5a 81       	ldd	r21, Y+2	; 0x02
    1b5a:	6b 81       	ldd	r22, Y+3	; 0x03
    1b5c:	7c 81       	ldd	r23, Y+4	; 0x04
    1b5e:	48 2b       	or	r20, r24
    1b60:	49 83       	std	Y+1, r20	; 0x01
    1b62:	5a 83       	std	Y+2, r21	; 0x02
    1b64:	6b 83       	std	Y+3, r22	; 0x03
    1b66:	7c 83       	std	Y+4, r23	; 0x04
    1b68:	5d df       	rcall	.-326    	; 0x1a24 <flip_ms5607>
	flip_ms5607();
    1b6a:	69 81       	ldd	r22, Y+1	; 0x01
    1b6c:	7a 81       	ldd	r23, Y+2	; 0x02
	
	return rx_data;
    1b6e:	8b 81       	ldd	r24, Y+3	; 0x03
    1b70:	9c 81       	ldd	r25, Y+4	; 0x04
    1b72:	24 96       	adiw	r28, 0x04	; 4
    1b74:	cd bf       	out	0x3d, r28	; 61
}
    1b76:	de bf       	out	0x3e, r29	; 62
    1b78:	df 91       	pop	r29
    1b7a:	cf 91       	pop	r28
    1b7c:	08 95       	ret

00001b7e <spi_init>:
    1b7e:	e0 e4       	ldi	r30, 0x40	; 64
    1b80:	f6 e0       	ldi	r31, 0x06	; 6
    1b82:	80 81       	ld	r24, Z
    1b84:	80 6b       	ori	r24, 0xB0	; 176
    1b86:	80 83       	st	Z, r24
    1b88:	68 e0       	ldi	r22, 0x08	; 8
    1b8a:	83 e0       	ldi	r24, 0x03	; 3
    1b8c:	e0 d1       	rcall	.+960    	; 0x1f4e <sysclk_enable_module>
    1b8e:	8c e5       	ldi	r24, 0x5C	; 92
    1b90:	80 93 c0 08 	sts	0x08C0, r24	; 0x8008c0 <__TEXT_REGION_LENGTH__+0x7008c0>
    1b94:	08 95       	ret

00001b96 <spi_read>:
    1b96:	9f b7       	in	r25, 0x3f	; 63
    1b98:	f8 94       	cli
    1b9a:	8f ef       	ldi	r24, 0xFF	; 255
    1b9c:	80 93 c3 08 	sts	0x08C3, r24	; 0x8008c3 <__TEXT_REGION_LENGTH__+0x7008c3>
    1ba0:	e0 ec       	ldi	r30, 0xC0	; 192
    1ba2:	f8 e0       	ldi	r31, 0x08	; 8
    1ba4:	82 81       	ldd	r24, Z+2	; 0x02
    1ba6:	88 23       	and	r24, r24
    1ba8:	ec f7       	brge	.-6      	; 0x1ba4 <spi_read+0xe>
    1baa:	78 94       	sei
    1bac:	9f bf       	out	0x3f, r25	; 63
    1bae:	80 91 c3 08 	lds	r24, 0x08C3	; 0x8008c3 <__TEXT_REGION_LENGTH__+0x7008c3>
    1bb2:	08 95       	ret

00001bb4 <spi_write>:
    1bb4:	9f b7       	in	r25, 0x3f	; 63
    1bb6:	f8 94       	cli
    1bb8:	80 93 c3 08 	sts	0x08C3, r24	; 0x8008c3 <__TEXT_REGION_LENGTH__+0x7008c3>
    1bbc:	e0 ec       	ldi	r30, 0xC0	; 192
    1bbe:	f8 e0       	ldi	r31, 0x08	; 8
    1bc0:	82 81       	ldd	r24, Z+2	; 0x02
    1bc2:	88 23       	and	r24, r24
    1bc4:	ec f7       	brge	.-6      	; 0x1bc0 <spi_write+0xc>
    1bc6:	78 94       	sei
    1bc8:	9f bf       	out	0x3f, r25	; 63
    1bca:	08 95       	ret

00001bcc <usart_serial_getchar>:
 * \param usart   Base address of the USART instance.
 * \param data   Data to read
 *
 */
static inline void usart_serial_getchar(usart_if usart, uint8_t *data)
{
    1bcc:	cf 93       	push	r28
    1bce:	df 93       	push	r29
    1bd0:	eb 01       	movw	r28, r22
	*data = usart_getchar(usart);
    1bd2:	a0 dc       	rcall	.-1728   	; 0x1514 <usart_getchar>
    1bd4:	88 83       	st	Y, r24
}
    1bd6:	df 91       	pop	r29
    1bd8:	cf 91       	pop	r28
    1bda:	08 95       	ret

00001bdc <usart_serial_putchar>:
 *
 * \return Status code
 */
static inline enum status_code usart_serial_putchar(usart_if usart, uint8_t c)
{
	return usart_putchar(usart, c);
    1bdc:	93 cc       	rjmp	.-1754   	; 0x1504 <usart_putchar>
}
    1bde:	08 95       	ret

00001be0 <data_terminal_init>:
#include <asf.h>
#include <string.h>
#include "data_logger.h"

void data_terminal_init()
{
    1be0:	cf 93       	push	r28
    1be2:	df 93       	push	r29
    1be4:	cd b7       	in	r28, 0x3d	; 61
    1be6:	de b7       	in	r29, 0x3e	; 62
    1be8:	27 97       	sbiw	r28, 0x07	; 7
    1bea:	cd bf       	out	0x3d, r28	; 61
    1bec:	de bf       	out	0x3e, r29	; 62
		sysclk_enable_module(SYSCLK_PORT_D, SYSCLK_USART0);
	}
#endif
#ifdef USARTE0
	else if (module == &USARTE0) {
		sysclk_enable_module(SYSCLK_PORT_E, SYSCLK_USART0);
    1bee:	60 e1       	ldi	r22, 0x10	; 16
    1bf0:	85 e0       	ldi	r24, 0x05	; 5
    1bf2:	ad d1       	rcall	.+858    	; 0x1f4e <sysclk_enable_module>
		.charlength =	UART_TERMINAL_SERIAL_CHAR_LEN,
		.paritytype =	UART_TERMINAL_SERIAL_PARITY,
		.stopbits	=	UART_TERMINAL_SERIAL_STOP_BIT
	};
	
	UART_TERMINAL_PORT.DIR |= UART_TERMINAL_TX_PIN;	// set the USART transmit pin to output
    1bf4:	e0 e8       	ldi	r30, 0x80	; 128
    1bf6:	f6 e0       	ldi	r31, 0x06	; 6
    1bf8:	80 81       	ld	r24, Z
    1bfa:	88 60       	ori	r24, 0x08	; 8
    1bfc:	80 83       	st	Z, r24
 * \param opt         Options needed to set up RS232 communication (see \ref usart_options_t).
 *
 */
static inline void stdio_serial_init(volatile void *usart, const usart_serial_options_t *opt)
{
	stdio_base = (void *)usart;
    1bfe:	80 ea       	ldi	r24, 0xA0	; 160
    1c00:	9a e0       	ldi	r25, 0x0A	; 10
    1c02:	80 93 5d 21 	sts	0x215D, r24	; 0x80215d <stdio_base>
    1c06:	90 93 5e 21 	sts	0x215E, r25	; 0x80215e <stdio_base+0x1>
	ptr_put = (int (*)(void volatile*,char))&usart_serial_putchar;
    1c0a:	8e ee       	ldi	r24, 0xEE	; 238
    1c0c:	9d e0       	ldi	r25, 0x0D	; 13
    1c0e:	80 93 5b 21 	sts	0x215B, r24	; 0x80215b <ptr_put>
    1c12:	90 93 5c 21 	sts	0x215C, r25	; 0x80215c <ptr_put+0x1>
	ptr_get = (void (*)(void volatile*,char*))&usart_serial_getchar;
    1c16:	86 ee       	ldi	r24, 0xE6	; 230
    1c18:	9d e0       	ldi	r25, 0x0D	; 13
    1c1a:	80 93 59 21 	sts	0x2159, r24	; 0x802159 <ptr_get>
    1c1e:	90 93 5a 21 	sts	0x215A, r25	; 0x80215a <ptr_get+0x1>
static inline bool usart_serial_init(usart_if usart, const
		usart_serial_options_t *options)
{
	// USART options.
	usart_rs232_options_t usart_rs232_options;
	usart_rs232_options.charlength   = options->charlength;
    1c22:	ed e0       	ldi	r30, 0x0D	; 13
    1c24:	f0 e2       	ldi	r31, 0x20	; 32
    1c26:	84 81       	ldd	r24, Z+4	; 0x04
    1c28:	8d 83       	std	Y+5, r24	; 0x05
	usart_rs232_options.paritytype   = options->paritytype;
    1c2a:	85 81       	ldd	r24, Z+5	; 0x05
    1c2c:	8e 83       	std	Y+6, r24	; 0x06
	usart_rs232_options.stopbits     = options->stopbits;
    1c2e:	86 81       	ldd	r24, Z+6	; 0x06
    1c30:	8f 83       	std	Y+7, r24	; 0x07
	usart_rs232_options.baudrate     = options->baudrate;
    1c32:	80 81       	ld	r24, Z
    1c34:	91 81       	ldd	r25, Z+1	; 0x01
    1c36:	a2 81       	ldd	r26, Z+2	; 0x02
    1c38:	b3 81       	ldd	r27, Z+3	; 0x03
    1c3a:	89 83       	std	Y+1, r24	; 0x01
    1c3c:	9a 83       	std	Y+2, r25	; 0x02
    1c3e:	ab 83       	std	Y+3, r26	; 0x03
    1c40:	bc 83       	std	Y+4, r27	; 0x04
		sysclk_enable_module(SYSCLK_PORT_D,PR_USART1_bm);
	}
#endif
#ifdef USARTE0
	if((uint16_t)usart == (uint16_t)&USARTE0) {
		sysclk_enable_module(SYSCLK_PORT_E,PR_USART0_bm);
    1c42:	60 e1       	ldi	r22, 0x10	; 16
    1c44:	85 e0       	ldi	r24, 0x05	; 5
    1c46:	83 d1       	rcall	.+774    	; 0x1f4e <sysclk_enable_module>
#ifdef USARTF1
	if((uint16_t)usart == (uint16_t)&USARTF1) {
		sysclk_enable_module(SYSCLK_PORT_F,PR_USART1_bm);
	}
#endif
	if (usart_init_rs232(usart, &usart_rs232_options)) {
    1c48:	be 01       	movw	r22, r28
    1c4a:	6f 5f       	subi	r22, 0xFF	; 255
    1c4c:	7f 4f       	sbci	r23, 0xFF	; 255
    1c4e:	80 ea       	ldi	r24, 0xA0	; 160
    1c50:	9a e0       	ldi	r25, 0x0A	; 10
    1c52:	79 dd       	rcall	.-1294   	; 0x1746 <usart_init_rs232>
# endif

# if defined(__GNUC__)
#  if (XMEGA || MEGA_RF)
	// For AVR GCC libc print redirection uses fdevopen.
	fdevopen((int (*)(char, FILE*))(_write),(int (*)(FILE*))(_read));
    1c54:	6f e7       	ldi	r22, 0x7F	; 127
    1c56:	71 e0       	ldi	r23, 0x01	; 1
    1c58:	88 e9       	ldi	r24, 0x98	; 152
    1c5a:	91 e0       	ldi	r25, 0x01	; 1
    1c5c:	0e 94 93 27 	call	0x4f26	; 0x4f26 <fdevopen>
	
	//usart_serial_init(UART_TERMINAL_SERIAL, &usart_config);
	stdio_serial_init(UART_TERMINAL_SERIAL, &usart_config); // function maps the serial output to printf, not necessary to know how it works
}
    1c60:	27 96       	adiw	r28, 0x07	; 7
    1c62:	cd bf       	out	0x3d, r28	; 61
    1c64:	de bf       	out	0x3e, r29	; 62
    1c66:	df 91       	pop	r29
    1c68:	cf 91       	pop	r28
    1c6a:	08 95       	ret

00001c6c <voltage_init>:
#include "voltage.h"
#include <asf.h>


void voltage_init(void)
{
    1c6c:	ff 92       	push	r15
    1c6e:	0f 93       	push	r16
    1c70:	1f 93       	push	r17
    1c72:	cf 93       	push	r28
    1c74:	df 93       	push	r29
		sysclk_enable_module(SYSCLK_PORT_B, SYSCLK_AC);
	}
#endif
#ifdef ADCA
	else if (module == &ADCA) {
		sysclk_enable_module(SYSCLK_PORT_A, SYSCLK_ADC);
    1c76:	62 e0       	ldi	r22, 0x02	; 2
    1c78:	81 e0       	ldi	r24, 0x01	; 1
    1c7a:	69 d1       	rcall	.+722    	; 0x1f4e <sysclk_enable_module>
	sysclk_enable_peripheral_clock(&VOLTAGE_SERIAL);
	VOLTAGE_SERIAL.CTRLA = 0x01; // enable the ADC
    1c7c:	c0 e0       	ldi	r28, 0x00	; 0
    1c7e:	d2 e0       	ldi	r29, 0x02	; 2
    1c80:	ff 24       	eor	r15, r15
    1c82:	f3 94       	inc	r15
    1c84:	f8 82       	st	Y, r15
	VOLTAGE_SERIAL.CTRLB = 0x00; // unsigned 12 bit mode
    1c86:	19 82       	std	Y+1, r1	; 0x01
	VOLTAGE_SERIAL.REFCTRL = 0x10; // voltage Reference of Vcc/1.6V
    1c88:	80 e1       	ldi	r24, 0x10	; 16
    1c8a:	8a 83       	std	Y+2, r24	; 0x02
	VOLTAGE_SERIAL.PRESCALER = 0x05; // prescaler of DIV128 on the clock
    1c8c:	85 e0       	ldi	r24, 0x05	; 5
    1c8e:	8c 83       	std	Y+4, r24	; 0x04
 *
 * \param address Byte offset into the signature row
 */
static inline uint8_t nvm_read_production_signature_row(uint8_t address)
{
	return nvm_read_byte(NVM_CMD_READ_CALIB_ROW_gc, address);
    1c90:	61 e2       	ldi	r22, 0x21	; 33
    1c92:	70 e0       	ldi	r23, 0x00	; 0
    1c94:	82 e0       	ldi	r24, 0x02	; 2
    1c96:	86 d1       	rcall	.+780    	; 0x1fa4 <nvm_read_byte>
	uint16_t data;

	switch (cal) {
#ifdef ADCA
	case ADC_CAL_ADCA:
		data = nvm_read_production_signature_row(ADCACAL1);
    1c98:	08 2f       	mov	r16, r24
    1c9a:	10 e0       	ldi	r17, 0x00	; 0
		data <<= 8;
    1c9c:	10 2f       	mov	r17, r16
    1c9e:	00 27       	eor	r16, r16
    1ca0:	60 e2       	ldi	r22, 0x20	; 32
    1ca2:	70 e0       	ldi	r23, 0x00	; 0
    1ca4:	82 e0       	ldi	r24, 0x02	; 2
    1ca6:	7e d1       	rcall	.+764    	; 0x1fa4 <nvm_read_byte>
		data |= nvm_read_production_signature_row(ADCACAL0);
    1ca8:	08 2b       	or	r16, r24
	VOLTAGE_SERIAL.CAL = adc_get_calibration_data(ADC_CAL_ADCA); // retrieve stored calibration data about the ADC
    1caa:	0c 87       	std	Y+12, r16	; 0x0c
    1cac:	1d 87       	std	Y+13, r17	; 0x0d
	
	VOLTAGE_SERIAL.VOLTAGE_CHANNEL.CTRL = 0x01; // single ended input
    1cae:	f8 a6       	std	Y+40, r15	; 0x28
	VOLTAGE_SERIAL.VOLTAGE_CHANNEL.MUXCTRL = VOLTAGE_PIN; // reading ADCA pin 0
    1cb0:	19 a6       	std	Y+41, r1	; 0x29
}
    1cb2:	df 91       	pop	r29
    1cb4:	cf 91       	pop	r28
    1cb6:	1f 91       	pop	r17
    1cb8:	0f 91       	pop	r16
    1cba:	ff 90       	pop	r15
    1cbc:	08 95       	ret

00001cbe <voltage_read>:

uint16_t voltage_read(void)
{
	VOLTAGE_SERIAL.VOLTAGE_CHANNEL.CTRL |= 0x80; // start the conversion
    1cbe:	e0 e0       	ldi	r30, 0x00	; 0
    1cc0:	f2 e0       	ldi	r31, 0x02	; 2
    1cc2:	80 a5       	ldd	r24, Z+40	; 0x28
    1cc4:	80 68       	ori	r24, 0x80	; 128
    1cc6:	80 a7       	std	Z+40, r24	; 0x28
	while(!(VOLTAGE_SERIAL.VOLTAGE_CHANNEL.INTFLAGS)); // wait until the conversion is done
    1cc8:	83 a5       	ldd	r24, Z+43	; 0x2b
    1cca:	88 23       	and	r24, r24
    1ccc:	e9 f3       	breq	.-6      	; 0x1cc8 <voltage_read+0xa>
	return VOLTAGE_SERIAL.VOLTAGE_CHANNEL.RES; // return the 12-bit result as a uint16_t
    1cce:	80 91 2c 02 	lds	r24, 0x022C	; 0x80022c <__TEXT_REGION_LENGTH__+0x70022c>
    1cd2:	90 91 2d 02 	lds	r25, 0x022D	; 0x80022d <__TEXT_REGION_LENGTH__+0x70022d>
    1cd6:	08 95       	ret

00001cd8 <rb16_write>:
	}
	else
	{
		buffer->tail = (buffer->tail + move_distance) % buffer->array_length; //Modulus is so that we don't point to above the buffer's location
	}
}
    1cd8:	cf 93       	push	r28
    1cda:	df 93       	push	r29
    1cdc:	fc 01       	movw	r30, r24
    1cde:	41 15       	cp	r20, r1
    1ce0:	51 05       	cpc	r21, r1
    1ce2:	b1 f1       	breq	.+108    	; 0x1d50 <rb16_write+0x78>
    1ce4:	80 e0       	ldi	r24, 0x00	; 0
    1ce6:	90 e0       	ldi	r25, 0x00	; 0
    1ce8:	20 e0       	ldi	r18, 0x00	; 0
    1cea:	88 0f       	add	r24, r24
    1cec:	99 1f       	adc	r25, r25
    1cee:	db 01       	movw	r26, r22
    1cf0:	a8 0f       	add	r26, r24
    1cf2:	b9 1f       	adc	r27, r25
    1cf4:	8d 91       	ld	r24, X+
    1cf6:	9c 91       	ld	r25, X
    1cf8:	a2 81       	ldd	r26, Z+2	; 0x02
    1cfa:	b3 81       	ldd	r27, Z+3	; 0x03
    1cfc:	aa 0f       	add	r26, r26
    1cfe:	bb 1f       	adc	r27, r27
    1d00:	c6 81       	ldd	r28, Z+6	; 0x06
    1d02:	d7 81       	ldd	r29, Z+7	; 0x07
    1d04:	ac 0f       	add	r26, r28
    1d06:	bd 1f       	adc	r27, r29
    1d08:	8d 93       	st	X+, r24
    1d0a:	9c 93       	st	X, r25
    1d0c:	82 81       	ldd	r24, Z+2	; 0x02
    1d0e:	93 81       	ldd	r25, Z+3	; 0x03
    1d10:	01 96       	adiw	r24, 0x01	; 1
    1d12:	82 83       	std	Z+2, r24	; 0x02
    1d14:	93 83       	std	Z+3, r25	; 0x03
    1d16:	a0 81       	ld	r26, Z
    1d18:	b1 81       	ldd	r27, Z+1	; 0x01
    1d1a:	8a 17       	cp	r24, r26
    1d1c:	9b 07       	cpc	r25, r27
    1d1e:	11 f4       	brne	.+4      	; 0x1d24 <rb16_write+0x4c>
    1d20:	12 82       	std	Z+2, r1	; 0x02
    1d22:	13 82       	std	Z+3, r1	; 0x03
    1d24:	82 81       	ldd	r24, Z+2	; 0x02
    1d26:	93 81       	ldd	r25, Z+3	; 0x03
    1d28:	c4 81       	ldd	r28, Z+4	; 0x04
    1d2a:	d5 81       	ldd	r29, Z+5	; 0x05
    1d2c:	8c 17       	cp	r24, r28
    1d2e:	9d 07       	cpc	r25, r29
    1d30:	49 f4       	brne	.+18     	; 0x1d44 <rb16_write+0x6c>
    1d32:	01 96       	adiw	r24, 0x01	; 1
    1d34:	a8 17       	cp	r26, r24
    1d36:	b9 07       	cpc	r27, r25
    1d38:	19 f0       	breq	.+6      	; 0x1d40 <rb16_write+0x68>
    1d3a:	84 83       	std	Z+4, r24	; 0x04
    1d3c:	95 83       	std	Z+5, r25	; 0x05
    1d3e:	02 c0       	rjmp	.+4      	; 0x1d44 <rb16_write+0x6c>
    1d40:	14 82       	std	Z+4, r1	; 0x04
    1d42:	15 82       	std	Z+5, r1	; 0x05
    1d44:	2f 5f       	subi	r18, 0xFF	; 255
    1d46:	82 2f       	mov	r24, r18
    1d48:	90 e0       	ldi	r25, 0x00	; 0
    1d4a:	84 17       	cp	r24, r20
    1d4c:	95 07       	cpc	r25, r21
    1d4e:	68 f2       	brcs	.-102    	; 0x1cea <rb16_write+0x12>
    1d50:	df 91       	pop	r29
    1d52:	cf 91       	pop	r28
    1d54:	08 95       	ret

00001d56 <rb16_init>:
    1d56:	fc 01       	movw	r30, r24
    1d58:	12 82       	std	Z+2, r1	; 0x02
    1d5a:	13 82       	std	Z+3, r1	; 0x03
    1d5c:	14 82       	std	Z+4, r1	; 0x04
    1d5e:	15 82       	std	Z+5, r1	; 0x05
    1d60:	66 83       	std	Z+6, r22	; 0x06
    1d62:	77 83       	std	Z+7, r23	; 0x07
    1d64:	40 83       	st	Z, r20
    1d66:	51 83       	std	Z+1, r21	; 0x01
    1d68:	08 95       	ret

00001d6a <rb16_get_nth>:
    1d6a:	dc 01       	movw	r26, r24
    1d6c:	12 96       	adiw	r26, 0x02	; 2
    1d6e:	ed 91       	ld	r30, X+
    1d70:	fc 91       	ld	r31, X
    1d72:	13 97       	sbiw	r26, 0x03	; 3
    1d74:	cb 01       	movw	r24, r22
    1d76:	01 96       	adiw	r24, 0x01	; 1
    1d78:	e8 17       	cp	r30, r24
    1d7a:	f9 07       	cpc	r31, r25
    1d7c:	78 f0       	brcs	.+30     	; 0x1d9c <rb16_get_nth+0x32>
    1d7e:	e1 50       	subi	r30, 0x01	; 1
    1d80:	f0 48       	sbci	r31, 0x80	; 128
    1d82:	e6 1b       	sub	r30, r22
    1d84:	f7 0b       	sbc	r31, r23
    1d86:	ee 0f       	add	r30, r30
    1d88:	ff 1f       	adc	r31, r31
    1d8a:	16 96       	adiw	r26, 0x06	; 6
    1d8c:	8d 91       	ld	r24, X+
    1d8e:	9c 91       	ld	r25, X
    1d90:	17 97       	sbiw	r26, 0x07	; 7
    1d92:	e8 0f       	add	r30, r24
    1d94:	f9 1f       	adc	r31, r25
    1d96:	80 81       	ld	r24, Z
    1d98:	91 81       	ldd	r25, Z+1	; 0x01
    1d9a:	08 95       	ret
    1d9c:	2d 91       	ld	r18, X+
    1d9e:	3c 91       	ld	r19, X
    1da0:	11 97       	sbiw	r26, 0x01	; 1
    1da2:	e2 0f       	add	r30, r18
    1da4:	f3 1f       	adc	r31, r19
    1da6:	e1 50       	subi	r30, 0x01	; 1
    1da8:	f0 48       	sbci	r31, 0x80	; 128
    1daa:	e6 1b       	sub	r30, r22
    1dac:	f7 0b       	sbc	r31, r23
    1dae:	ee 0f       	add	r30, r30
    1db0:	ff 1f       	adc	r31, r31
    1db2:	16 96       	adiw	r26, 0x06	; 6
    1db4:	8d 91       	ld	r24, X+
    1db6:	9c 91       	ld	r25, X
    1db8:	17 97       	sbiw	r26, 0x07	; 7
    1dba:	e8 0f       	add	r30, r24
    1dbc:	f9 1f       	adc	r31, r25
    1dbe:	80 81       	ld	r24, Z
    1dc0:	91 81       	ldd	r25, Z+1	; 0x01
    1dc2:	08 95       	ret

00001dc4 <rb32_write>:
    1dc4:	cf 92       	push	r12
    1dc6:	df 92       	push	r13
    1dc8:	ef 92       	push	r14
    1dca:	ff 92       	push	r15
    1dcc:	cf 93       	push	r28
    1dce:	df 93       	push	r29
    1dd0:	fc 01       	movw	r30, r24
    1dd2:	41 15       	cp	r20, r1
    1dd4:	51 05       	cpc	r21, r1
    1dd6:	09 f4       	brne	.+2      	; 0x1dda <rb32_write+0x16>
    1dd8:	3f c0       	rjmp	.+126    	; 0x1e58 <rb32_write+0x94>
    1dda:	80 e0       	ldi	r24, 0x00	; 0
    1ddc:	90 e0       	ldi	r25, 0x00	; 0
    1dde:	20 e0       	ldi	r18, 0x00	; 0
    1de0:	88 0f       	add	r24, r24
    1de2:	99 1f       	adc	r25, r25
    1de4:	88 0f       	add	r24, r24
    1de6:	99 1f       	adc	r25, r25
    1de8:	db 01       	movw	r26, r22
    1dea:	a8 0f       	add	r26, r24
    1dec:	b9 1f       	adc	r27, r25
    1dee:	cd 90       	ld	r12, X+
    1df0:	dd 90       	ld	r13, X+
    1df2:	ed 90       	ld	r14, X+
    1df4:	fc 90       	ld	r15, X
    1df6:	a2 81       	ldd	r26, Z+2	; 0x02
    1df8:	b3 81       	ldd	r27, Z+3	; 0x03
    1dfa:	aa 0f       	add	r26, r26
    1dfc:	bb 1f       	adc	r27, r27
    1dfe:	aa 0f       	add	r26, r26
    1e00:	bb 1f       	adc	r27, r27
    1e02:	86 81       	ldd	r24, Z+6	; 0x06
    1e04:	97 81       	ldd	r25, Z+7	; 0x07
    1e06:	a8 0f       	add	r26, r24
    1e08:	b9 1f       	adc	r27, r25
    1e0a:	cd 92       	st	X+, r12
    1e0c:	dd 92       	st	X+, r13
    1e0e:	ed 92       	st	X+, r14
    1e10:	fc 92       	st	X, r15
    1e12:	13 97       	sbiw	r26, 0x03	; 3
    1e14:	82 81       	ldd	r24, Z+2	; 0x02
    1e16:	93 81       	ldd	r25, Z+3	; 0x03
    1e18:	01 96       	adiw	r24, 0x01	; 1
    1e1a:	82 83       	std	Z+2, r24	; 0x02
    1e1c:	93 83       	std	Z+3, r25	; 0x03
    1e1e:	a0 81       	ld	r26, Z
    1e20:	b1 81       	ldd	r27, Z+1	; 0x01
    1e22:	8a 17       	cp	r24, r26
    1e24:	9b 07       	cpc	r25, r27
    1e26:	11 f4       	brne	.+4      	; 0x1e2c <rb32_write+0x68>
    1e28:	12 82       	std	Z+2, r1	; 0x02
    1e2a:	13 82       	std	Z+3, r1	; 0x03
    1e2c:	82 81       	ldd	r24, Z+2	; 0x02
    1e2e:	93 81       	ldd	r25, Z+3	; 0x03
    1e30:	c4 81       	ldd	r28, Z+4	; 0x04
    1e32:	d5 81       	ldd	r29, Z+5	; 0x05
    1e34:	8c 17       	cp	r24, r28
    1e36:	9d 07       	cpc	r25, r29
    1e38:	49 f4       	brne	.+18     	; 0x1e4c <rb32_write+0x88>
    1e3a:	01 96       	adiw	r24, 0x01	; 1
    1e3c:	a8 17       	cp	r26, r24
    1e3e:	b9 07       	cpc	r27, r25
    1e40:	19 f0       	breq	.+6      	; 0x1e48 <rb32_write+0x84>
    1e42:	84 83       	std	Z+4, r24	; 0x04
    1e44:	95 83       	std	Z+5, r25	; 0x05
    1e46:	02 c0       	rjmp	.+4      	; 0x1e4c <rb32_write+0x88>
    1e48:	14 82       	std	Z+4, r1	; 0x04
    1e4a:	15 82       	std	Z+5, r1	; 0x05
    1e4c:	2f 5f       	subi	r18, 0xFF	; 255
    1e4e:	82 2f       	mov	r24, r18
    1e50:	90 e0       	ldi	r25, 0x00	; 0
    1e52:	84 17       	cp	r24, r20
    1e54:	95 07       	cpc	r25, r21
    1e56:	20 f2       	brcs	.-120    	; 0x1de0 <rb32_write+0x1c>
    1e58:	df 91       	pop	r29
    1e5a:	cf 91       	pop	r28
    1e5c:	ff 90       	pop	r15
    1e5e:	ef 90       	pop	r14
    1e60:	df 90       	pop	r13
    1e62:	cf 90       	pop	r12
    1e64:	08 95       	ret

00001e66 <rb32_init>:
    1e66:	fc 01       	movw	r30, r24
    1e68:	12 82       	std	Z+2, r1	; 0x02
    1e6a:	13 82       	std	Z+3, r1	; 0x03
    1e6c:	14 82       	std	Z+4, r1	; 0x04
    1e6e:	15 82       	std	Z+5, r1	; 0x05
    1e70:	66 83       	std	Z+6, r22	; 0x06
    1e72:	77 83       	std	Z+7, r23	; 0x07
    1e74:	40 83       	st	Z, r20
    1e76:	51 83       	std	Z+1, r21	; 0x01
    1e78:	08 95       	ret

00001e7a <rb32_get_nth>:
	}
}

int32_t rb32_get_nth(RingBuffer32_t* buffer, uint16_t index)
//Returns the nth newest value in the RingBuffer
{
    1e7a:	dc 01       	movw	r26, r24
	//Does not do bounds checking, so be careful in usage
	//	Verify index < rb16_length() to guard against requesting a value beyond what the buffer currently stores
	//	Verify index < buffer->array_length to guard against requesting a value from some random memory location
	
	//Most recent value is in head - 1
	if (index + 1 <= buffer->head) //Value is between zero and buffer->head
    1e7c:	12 96       	adiw	r26, 0x02	; 2
    1e7e:	ed 91       	ld	r30, X+
    1e80:	fc 91       	ld	r31, X
    1e82:	13 97       	sbiw	r26, 0x03	; 3
    1e84:	cb 01       	movw	r24, r22
    1e86:	01 96       	adiw	r24, 0x01	; 1
    1e88:	e8 17       	cp	r30, r24
    1e8a:	f9 07       	cpc	r31, r25
    1e8c:	98 f0       	brcs	.+38     	; 0x1eb4 <rb32_get_nth+0x3a>
		return buffer->buffer[buffer->head - index - 1];
    1e8e:	e1 50       	subi	r30, 0x01	; 1
    1e90:	f0 4c       	sbci	r31, 0xC0	; 192
    1e92:	e6 1b       	sub	r30, r22
    1e94:	f7 0b       	sbc	r31, r23
    1e96:	ee 0f       	add	r30, r30
    1e98:	ff 1f       	adc	r31, r31
    1e9a:	ee 0f       	add	r30, r30
    1e9c:	ff 1f       	adc	r31, r31
    1e9e:	16 96       	adiw	r26, 0x06	; 6
    1ea0:	8d 91       	ld	r24, X+
    1ea2:	9c 91       	ld	r25, X
    1ea4:	17 97       	sbiw	r26, 0x07	; 7
    1ea6:	e8 0f       	add	r30, r24
    1ea8:	f9 1f       	adc	r31, r25
    1eaa:	60 81       	ld	r22, Z
    1eac:	71 81       	ldd	r23, Z+1	; 0x01
    1eae:	82 81       	ldd	r24, Z+2	; 0x02
    1eb0:	93 81       	ldd	r25, Z+3	; 0x03
    1eb2:	08 95       	ret
	else
		return buffer->buffer[buffer->array_length - 1 - index + buffer->head];
    1eb4:	2d 91       	ld	r18, X+
    1eb6:	3c 91       	ld	r19, X
    1eb8:	11 97       	sbiw	r26, 0x01	; 1
    1eba:	e2 0f       	add	r30, r18
    1ebc:	f3 1f       	adc	r31, r19
    1ebe:	e1 50       	subi	r30, 0x01	; 1
    1ec0:	f0 4c       	sbci	r31, 0xC0	; 192
    1ec2:	e6 1b       	sub	r30, r22
    1ec4:	f7 0b       	sbc	r31, r23
    1ec6:	ee 0f       	add	r30, r30
    1ec8:	ff 1f       	adc	r31, r31
    1eca:	ee 0f       	add	r30, r30
    1ecc:	ff 1f       	adc	r31, r31
    1ece:	16 96       	adiw	r26, 0x06	; 6
    1ed0:	8d 91       	ld	r24, X+
    1ed2:	9c 91       	ld	r25, X
    1ed4:	17 97       	sbiw	r26, 0x07	; 7
    1ed6:	e8 0f       	add	r30, r24
    1ed8:	f9 1f       	adc	r31, r25
    1eda:	60 81       	ld	r22, Z
    1edc:	71 81       	ldd	r23, Z+1	; 0x01
    1ede:	82 81       	ldd	r24, Z+2	; 0x02
    1ee0:	93 81       	ldd	r25, Z+3	; 0x03
}
    1ee2:	08 95       	ret

00001ee4 <sysclk_init>:
#  include <nvm.h>
#endif


void sysclk_init(void)
{
    1ee4:	cf 93       	push	r28
    1ee6:	df 93       	push	r29
    1ee8:	1f 92       	push	r1
    1eea:	1f 92       	push	r1
    1eec:	cd b7       	in	r28, 0x3d	; 61
    1eee:	de b7       	in	r29, 0x3e	; 62
#endif
	bool need_rc2mhz = false;

	/* Turn off all peripheral clocks that can be turned off. */
	for (i = 0; i <= SYSCLK_PORT_F; i++) {
		*(reg++) = 0xff;
    1ef0:	8f ef       	ldi	r24, 0xFF	; 255
    1ef2:	80 93 70 00 	sts	0x0070, r24	; 0x800070 <__TEXT_REGION_LENGTH__+0x700070>
    1ef6:	80 93 71 00 	sts	0x0071, r24	; 0x800071 <__TEXT_REGION_LENGTH__+0x700071>
    1efa:	80 93 72 00 	sts	0x0072, r24	; 0x800072 <__TEXT_REGION_LENGTH__+0x700072>
    1efe:	80 93 73 00 	sts	0x0073, r24	; 0x800073 <__TEXT_REGION_LENGTH__+0x700073>
    1f02:	80 93 74 00 	sts	0x0074, r24	; 0x800074 <__TEXT_REGION_LENGTH__+0x700074>
    1f06:	80 93 75 00 	sts	0x0075, r24	; 0x800075 <__TEXT_REGION_LENGTH__+0x700075>
    1f0a:	80 93 76 00 	sts	0x0076, r24	; 0x800076 <__TEXT_REGION_LENGTH__+0x700076>

typedef uint8_t irqflags_t;

static inline irqflags_t cpu_irq_save(void)
{
	volatile irqflags_t flags = SREG;
    1f0e:	8f b7       	in	r24, 0x3f	; 63
    1f10:	8a 83       	std	Y+2, r24	; 0x02
	cpu_irq_disable();
    1f12:	f8 94       	cli
	return flags;
    1f14:	9a 81       	ldd	r25, Y+2	; 0x02
	irqflags_t flags;

	Assert(id != OSC_ID_USBSOF);

	flags = cpu_irq_save();
	OSC.CTRL |= id;
    1f16:	e0 e5       	ldi	r30, 0x50	; 80
    1f18:	f0 e0       	ldi	r31, 0x00	; 0
    1f1a:	80 81       	ld	r24, Z
    1f1c:	82 60       	ori	r24, 0x02	; 2
    1f1e:	80 83       	st	Z, r24
}

static inline void cpu_irq_restore(irqflags_t flags)
{
	barrier();
	SREG = flags;
    1f20:	9f bf       	out	0x3f, r25	; 63

static inline bool osc_is_ready(uint8_t id)
{
	Assert(id != OSC_ID_USBSOF);

	return OSC.STATUS & id;
    1f22:	81 81       	ldd	r24, Z+1	; 0x01
 *
 * \param id A number identifying the oscillator to wait for.
 */
static inline void osc_wait_ready(uint8_t id)
{
	while (!osc_is_ready(id)) {
    1f24:	81 ff       	sbrs	r24, 1
    1f26:	fd cf       	rjmp	.-6      	; 0x1f22 <sysclk_init+0x3e>
		default:
			//unhandled_case(CONFIG_SYSCLK_SOURCE);
			return;
		}

		ccp_write_io((uint8_t *)&CLK.CTRL, CONFIG_SYSCLK_SOURCE);
    1f28:	61 e0       	ldi	r22, 0x01	; 1
    1f2a:	80 e4       	ldi	r24, 0x40	; 64
    1f2c:	90 e0       	ldi	r25, 0x00	; 0
    1f2e:	44 d0       	rcall	.+136    	; 0x1fb8 <ccp_write_io>

typedef uint8_t irqflags_t;

static inline irqflags_t cpu_irq_save(void)
{
	volatile irqflags_t flags = SREG;
    1f30:	8f b7       	in	r24, 0x3f	; 63
    1f32:	89 83       	std	Y+1, r24	; 0x01
	cpu_irq_disable();
    1f34:	f8 94       	cli
	return flags;
    1f36:	99 81       	ldd	r25, Y+1	; 0x01
	irqflags_t flags;

	Assert(id != OSC_ID_USBSOF);

	flags = cpu_irq_save();
	OSC.CTRL &= ~id;
    1f38:	e0 e5       	ldi	r30, 0x50	; 80
    1f3a:	f0 e0       	ldi	r31, 0x00	; 0
    1f3c:	80 81       	ld	r24, Z
    1f3e:	8e 7f       	andi	r24, 0xFE	; 254
    1f40:	80 83       	st	Z, r24
}

static inline void cpu_irq_restore(irqflags_t flags)
{
	barrier();
	SREG = flags;
    1f42:	9f bf       	out	0x3f, r25	; 63
	}

#ifdef CONFIG_RTC_SOURCE
	sysclk_rtcsrc_enable(CONFIG_RTC_SOURCE);
#endif
}
    1f44:	0f 90       	pop	r0
    1f46:	0f 90       	pop	r0
    1f48:	df 91       	pop	r29
    1f4a:	cf 91       	pop	r28
    1f4c:	08 95       	ret

00001f4e <sysclk_enable_module>:

void sysclk_enable_module(enum sysclk_port_id port, uint8_t id)
{
    1f4e:	cf 93       	push	r28
    1f50:	df 93       	push	r29
    1f52:	1f 92       	push	r1
    1f54:	cd b7       	in	r28, 0x3d	; 61
    1f56:	de b7       	in	r29, 0x3e	; 62

typedef uint8_t irqflags_t;

static inline irqflags_t cpu_irq_save(void)
{
	volatile irqflags_t flags = SREG;
    1f58:	9f b7       	in	r25, 0x3f	; 63
    1f5a:	99 83       	std	Y+1, r25	; 0x01
	cpu_irq_disable();
    1f5c:	f8 94       	cli
	return flags;
    1f5e:	99 81       	ldd	r25, Y+1	; 0x01
	irqflags_t flags = cpu_irq_save();

	*((uint8_t *)&PR.PRGEN + port) &= ~id;
    1f60:	e8 2f       	mov	r30, r24
    1f62:	f0 e0       	ldi	r31, 0x00	; 0
    1f64:	e0 59       	subi	r30, 0x90	; 144
    1f66:	ff 4f       	sbci	r31, 0xFF	; 255
    1f68:	60 95       	com	r22
    1f6a:	80 81       	ld	r24, Z
    1f6c:	68 23       	and	r22, r24
    1f6e:	60 83       	st	Z, r22
}

static inline void cpu_irq_restore(irqflags_t flags)
{
	barrier();
	SREG = flags;
    1f70:	9f bf       	out	0x3f, r25	; 63

	cpu_irq_restore(flags);
}
    1f72:	0f 90       	pop	r0
    1f74:	df 91       	pop	r29
    1f76:	cf 91       	pop	r28
    1f78:	08 95       	ret

00001f7a <sysclk_disable_module>:

void sysclk_disable_module(enum sysclk_port_id port, uint8_t id)
{
    1f7a:	cf 93       	push	r28
    1f7c:	df 93       	push	r29
    1f7e:	1f 92       	push	r1
    1f80:	cd b7       	in	r28, 0x3d	; 61
    1f82:	de b7       	in	r29, 0x3e	; 62

typedef uint8_t irqflags_t;

static inline irqflags_t cpu_irq_save(void)
{
	volatile irqflags_t flags = SREG;
    1f84:	9f b7       	in	r25, 0x3f	; 63
    1f86:	99 83       	std	Y+1, r25	; 0x01
	cpu_irq_disable();
    1f88:	f8 94       	cli
	return flags;
    1f8a:	99 81       	ldd	r25, Y+1	; 0x01
	irqflags_t flags = cpu_irq_save();

	*((uint8_t *)&PR.PRGEN + port) |= id;
    1f8c:	e8 2f       	mov	r30, r24
    1f8e:	f0 e0       	ldi	r31, 0x00	; 0
    1f90:	e0 59       	subi	r30, 0x90	; 144
    1f92:	ff 4f       	sbci	r31, 0xFF	; 255
    1f94:	80 81       	ld	r24, Z
    1f96:	68 2b       	or	r22, r24
    1f98:	60 83       	st	Z, r22
}

static inline void cpu_irq_restore(irqflags_t flags)
{
	barrier();
	SREG = flags;
    1f9a:	9f bf       	out	0x3f, r25	; 63

	cpu_irq_restore(flags);
}
    1f9c:	0f 90       	pop	r0
    1f9e:	df 91       	pop	r29
    1fa0:	cf 91       	pop	r28
    1fa2:	08 95       	ret

00001fa4 <nvm_read_byte>:
#endif

#ifndef __DOXYGEN__
	PUBLIC_FUNCTION(nvm_read_byte)
#if defined(__GNUC__)
	lds r20, NVM_CMD          ; Store NVM command register
    1fa4:	40 91 ca 01 	lds	r20, 0x01CA	; 0x8001ca <__TEXT_REGION_LENGTH__+0x7001ca>
	mov ZL, r22               ; Load byte index into low byte of Z.
    1fa8:	e6 2f       	mov	r30, r22
	mov ZH, r23               ; Load high byte into Z.
    1faa:	f7 2f       	mov	r31, r23
	sts NVM_CMD, r24          ; Load prepared command into NVM Command register.
    1fac:	80 93 ca 01 	sts	0x01CA, r24	; 0x8001ca <__TEXT_REGION_LENGTH__+0x7001ca>
	lpm r24, Z                ; Perform an LPM to read out byte
    1fb0:	84 91       	lpm	r24, Z
	sts NVM_CMD, r20          ; Restore NVM command register
    1fb2:	40 93 ca 01 	sts	0x01CA, r20	; 0x8001ca <__TEXT_REGION_LENGTH__+0x7001ca>
	sts NVM_CMD, r16          ; Load prepared command into NVM Command register.
	lpm r16, Z                ; Perform an LPM to read out byte
	sts NVM_CMD, r20          ; Restore NVM command register
#endif

	ret
    1fb6:	08 95       	ret

00001fb8 <ccp_write_io>:

	PUBLIC_FUNCTION(ccp_write_io)

#if defined(__GNUC__)

	out     RAMPZ, r1               // Reset bits 23:16 of Z
    1fb8:	1b be       	out	0x3b, r1	; 59
	movw    r30, r24                // Load addr into Z
    1fba:	fc 01       	movw	r30, r24
	ldi     r18, CCP_IOREG          // Load magic CCP value
    1fbc:	28 ed       	ldi	r18, 0xD8	; 216
	out     CCP, r18                // Start CCP handshake
    1fbe:	24 bf       	out	0x34, r18	; 52
	st      Z, r22                  // Write value to I/O register
    1fc0:	60 83       	st	Z, r22
	ret                             // Return to caller
    1fc2:	08 95       	ret

00001fc4 <__portable_avr_delay_cycles>:
	ac_enable(&ACA, 0);

}

void release(void){
	servo_release();
    1fc4:	04 c0       	rjmp	.+8      	; 0x1fce <__portable_avr_delay_cycles+0xa>
    1fc6:	61 50       	subi	r22, 0x01	; 1
    1fc8:	71 09       	sbc	r23, r1
    1fca:	81 09       	sbc	r24, r1
    1fcc:	91 09       	sbc	r25, r1
    1fce:	61 15       	cp	r22, r1
    1fd0:	71 05       	cpc	r23, r1
    1fd2:	81 05       	cpc	r24, r1
    1fd4:	91 05       	cpc	r25, r1
    1fd6:	b9 f7       	brne	.-18     	; 0x1fc6 <__portable_avr_delay_cycles+0x2>
    1fd8:	08 95       	ret

00001fda <hall_sensor_measure>:
    1fda:	80 91 3c 21 	lds	r24, 0x213C	; 0x80213c <ticks_per_sec>
    1fde:	90 91 3d 21 	lds	r25, 0x213D	; 0x80213d <ticks_per_sec+0x1>
    1fe2:	01 96       	adiw	r24, 0x01	; 1
    1fe4:	80 93 3c 21 	sts	0x213C, r24	; 0x80213c <ticks_per_sec>
    1fe8:	90 93 3d 21 	sts	0x213D, r25	; 0x80213d <ticks_per_sec+0x1>
    1fec:	08 95       	ret

00001fee <pressure_init>:
    1fee:	cf 93       	push	r28
    1ff0:	df 93       	push	r29
    1ff2:	1f dd       	rcall	.-1474   	; 0x1a32 <ms5607_init>
    1ff4:	82 ea       	ldi	r24, 0xA2	; 162
    1ff6:	90 e0       	ldi	r25, 0x00	; 0
    1ff8:	30 dd       	rcall	.-1440   	; 0x1a5a <ms5607_read>
    1ffa:	c3 e4       	ldi	r28, 0x43	; 67
    1ffc:	d1 e2       	ldi	r29, 0x21	; 33
    1ffe:	88 83       	st	Y, r24
    2000:	99 83       	std	Y+1, r25	; 0x01
    2002:	84 ea       	ldi	r24, 0xA4	; 164
    2004:	90 e0       	ldi	r25, 0x00	; 0
    2006:	29 dd       	rcall	.-1454   	; 0x1a5a <ms5607_read>
    2008:	8a 83       	std	Y+2, r24	; 0x02
    200a:	9b 83       	std	Y+3, r25	; 0x03
    200c:	86 ea       	ldi	r24, 0xA6	; 166
    200e:	90 e0       	ldi	r25, 0x00	; 0
    2010:	24 dd       	rcall	.-1464   	; 0x1a5a <ms5607_read>
    2012:	8c 83       	std	Y+4, r24	; 0x04
    2014:	9d 83       	std	Y+5, r25	; 0x05
    2016:	88 ea       	ldi	r24, 0xA8	; 168
    2018:	90 e0       	ldi	r25, 0x00	; 0
    201a:	1f dd       	rcall	.-1474   	; 0x1a5a <ms5607_read>
    201c:	8e 83       	std	Y+6, r24	; 0x06
    201e:	9f 83       	std	Y+7, r25	; 0x07
    2020:	8a ea       	ldi	r24, 0xAA	; 170
    2022:	90 e0       	ldi	r25, 0x00	; 0
    2024:	1a dd       	rcall	.-1484   	; 0x1a5a <ms5607_read>
    2026:	88 87       	std	Y+8, r24	; 0x08
    2028:	99 87       	std	Y+9, r25	; 0x09
    202a:	8c ea       	ldi	r24, 0xAC	; 172
    202c:	90 e0       	ldi	r25, 0x00	; 0
    202e:	15 dd       	rcall	.-1494   	; 0x1a5a <ms5607_read>
    2030:	8a 87       	std	Y+10, r24	; 0x0a
    2032:	9b 87       	std	Y+11, r25	; 0x0b
    2034:	9f 93       	push	r25
    2036:	8f 93       	push	r24
    2038:	89 85       	ldd	r24, Y+9	; 0x09
    203a:	8f 93       	push	r24
    203c:	88 85       	ldd	r24, Y+8	; 0x08
    203e:	8f 93       	push	r24
    2040:	8f 81       	ldd	r24, Y+7	; 0x07
    2042:	8f 93       	push	r24
    2044:	8e 81       	ldd	r24, Y+6	; 0x06
    2046:	8f 93       	push	r24
    2048:	8d 81       	ldd	r24, Y+5	; 0x05
    204a:	8f 93       	push	r24
    204c:	8c 81       	ldd	r24, Y+4	; 0x04
    204e:	8f 93       	push	r24
    2050:	8b 81       	ldd	r24, Y+3	; 0x03
    2052:	8f 93       	push	r24
    2054:	8a 81       	ldd	r24, Y+2	; 0x02
    2056:	8f 93       	push	r24
    2058:	89 81       	ldd	r24, Y+1	; 0x01
    205a:	8f 93       	push	r24
    205c:	88 81       	ld	r24, Y
    205e:	8f 93       	push	r24
    2060:	8a e4       	ldi	r24, 0x4A	; 74
    2062:	90 e2       	ldi	r25, 0x20	; 32
    2064:	9f 93       	push	r25
    2066:	8f 93       	push	r24
    2068:	0e 94 dd 27 	call	0x4fba	; 0x4fba <printf>
    206c:	8d b7       	in	r24, 0x3d	; 61
    206e:	9e b7       	in	r25, 0x3e	; 62
    2070:	0e 96       	adiw	r24, 0x0e	; 14
    2072:	8d bf       	out	0x3d, r24	; 61
    2074:	9e bf       	out	0x3e, r25	; 62
    2076:	df 91       	pop	r29
    2078:	cf 91       	pop	r28
    207a:	08 95       	ret

0000207c <gps_init>:
    207c:	9a dc       	rcall	.-1740   	; 0x19b2 <gps_uart_init>
    207e:	6b ea       	ldi	r22, 0xAB	; 171
    2080:	79 e2       	ldi	r23, 0x29	; 41
    2082:	80 e0       	ldi	r24, 0x00	; 0
    2084:	90 e0       	ldi	r25, 0x00	; 0
    2086:	9e df       	rcall	.-196    	; 0x1fc4 <__portable_avr_delay_cycles>
    2088:	80 e3       	ldi	r24, 0x30	; 48
    208a:	80 93 b3 09 	sts	0x09B3, r24	; 0x8009b3 <__TEXT_REGION_LENGTH__+0x7009b3>
    208e:	08 95       	ret

00002090 <hall_sensor_init>:
    2090:	cf 93       	push	r28
    2092:	df 93       	push	r29
    2094:	00 d0       	rcall	.+0      	; 0x2096 <hall_sensor_init+0x6>
    2096:	1f 92       	push	r1
    2098:	cd b7       	in	r28, 0x3d	; 61
    209a:	de b7       	in	r29, 0x3e	; 62
    209c:	84 e0       	ldi	r24, 0x04	; 4
    209e:	fe 01       	movw	r30, r28
    20a0:	31 96       	adiw	r30, 0x01	; 1
    20a2:	df 01       	movw	r26, r30
    20a4:	98 2f       	mov	r25, r24
    20a6:	1d 92       	st	X+, r1
    20a8:	9a 95       	dec	r25
    20aa:	e9 f7       	brne	.-6      	; 0x20a6 <hall_sensor_init+0x16>
    20ac:	89 83       	std	Y+1, r24	; 0x01
    20ae:	8e e3       	ldi	r24, 0x3E	; 62
    20b0:	8b 83       	std	Y+3, r24	; 0x03
    20b2:	8f e2       	ldi	r24, 0x2F	; 47
    20b4:	8a 83       	std	Y+2, r24	; 0x02
    20b6:	e0 e8       	ldi	r30, 0x80	; 128
    20b8:	f3 e0       	ldi	r31, 0x03	; 3
    20ba:	80 81       	ld	r24, Z
    20bc:	88 60       	ori	r24, 0x08	; 8
    20be:	80 83       	st	Z, r24
    20c0:	6d ee       	ldi	r22, 0xED	; 237
    20c2:	7f e0       	ldi	r23, 0x0F	; 15
    20c4:	80 e8       	ldi	r24, 0x80	; 128
    20c6:	93 e0       	ldi	r25, 0x03	; 3
    20c8:	0e 94 13 03 	call	0x626	; 0x626 <ac_set_interrupt_callback>
    20cc:	89 81       	ldd	r24, Y+1	; 0x01
    20ce:	98 2f       	mov	r25, r24
    20d0:	90 6c       	ori	r25, 0xC0	; 192
    20d2:	99 83       	std	Y+1, r25	; 0x01
    20d4:	9c 81       	ldd	r25, Y+4	; 0x04
    20d6:	29 2f       	mov	r18, r25
    20d8:	20 73       	andi	r18, 0x30	; 48
    20da:	21 f0       	breq	.+8      	; 0x20e4 <hall_sensor_init+0x54>
    20dc:	9c 7f       	andi	r25, 0xFC	; 252
    20de:	92 60       	ori	r25, 0x02	; 2
    20e0:	9c 83       	std	Y+4, r25	; 0x04
    20e2:	03 c0       	rjmp	.+6      	; 0x20ea <hall_sensor_init+0x5a>
    20e4:	8f 70       	andi	r24, 0x0F	; 15
    20e6:	80 6e       	ori	r24, 0xE0	; 224
    20e8:	89 83       	std	Y+1, r24	; 0x01
    20ea:	ae 01       	movw	r20, r28
    20ec:	4f 5f       	subi	r20, 0xFF	; 255
    20ee:	5f 4f       	sbci	r21, 0xFF	; 255
    20f0:	60 e0       	ldi	r22, 0x00	; 0
    20f2:	80 e8       	ldi	r24, 0x80	; 128
    20f4:	93 e0       	ldi	r25, 0x03	; 3
    20f6:	0e 94 74 02 	call	0x4e8	; 0x4e8 <ac_write_config>
    20fa:	60 e0       	ldi	r22, 0x00	; 0
    20fc:	80 e8       	ldi	r24, 0x80	; 128
    20fe:	93 e0       	ldi	r25, 0x03	; 3
    2100:	0e 94 cb 02 	call	0x596	; 0x596 <ac_enable>
    2104:	24 96       	adiw	r28, 0x04	; 4
    2106:	cd bf       	out	0x3d, r28	; 61
    2108:	de bf       	out	0x3e, r29	; 62
    210a:	df 91       	pop	r29
    210c:	cf 91       	pop	r28
    210e:	08 95       	ret

00002110 <get_pressure>:
    2110:	4f 92       	push	r4
    2112:	5f 92       	push	r5
    2114:	6f 92       	push	r6
    2116:	7f 92       	push	r7
    2118:	8f 92       	push	r8
    211a:	9f 92       	push	r9
    211c:	af 92       	push	r10
    211e:	bf 92       	push	r11
    2120:	cf 92       	push	r12
    2122:	df 92       	push	r13
    2124:	ef 92       	push	r14
    2126:	ff 92       	push	r15
    2128:	cf 93       	push	r28
    212a:	df 93       	push	r29
    212c:	a8 dc       	rcall	.-1712   	; 0x1a7e <ms5607_convert_d1>
    212e:	6b 01       	movw	r12, r22
    2130:	7c 01       	movw	r14, r24
    2132:	e5 dc       	rcall	.-1590   	; 0x1afe <ms5607_convert_d2>
    2134:	0e 94 48 24 	call	0x4890	; 0x4890 <__floatunsisf>
    2138:	4b 01       	movw	r8, r22
    213a:	5c 01       	movw	r10, r24
    213c:	c3 e4       	ldi	r28, 0x43	; 67
    213e:	d1 e2       	ldi	r29, 0x21	; 33
    2140:	68 85       	ldd	r22, Y+8	; 0x08
    2142:	79 85       	ldd	r23, Y+9	; 0x09
    2144:	80 e0       	ldi	r24, 0x00	; 0
    2146:	90 e0       	ldi	r25, 0x00	; 0
    2148:	0e 94 48 24 	call	0x4890	; 0x4890 <__floatunsisf>
    214c:	20 e0       	ldi	r18, 0x00	; 0
    214e:	30 e0       	ldi	r19, 0x00	; 0
    2150:	40 e8       	ldi	r20, 0x80	; 128
    2152:	53 e4       	ldi	r21, 0x43	; 67
    2154:	0e 94 fe 24 	call	0x49fc	; 0x49fc <__mulsf3>
    2158:	9b 01       	movw	r18, r22
    215a:	ac 01       	movw	r20, r24
    215c:	c5 01       	movw	r24, r10
    215e:	b4 01       	movw	r22, r8
    2160:	0e 94 46 23 	call	0x468c	; 0x468c <__subsf3>
    2164:	4b 01       	movw	r8, r22
    2166:	5c 01       	movw	r10, r24
    2168:	6c 81       	ldd	r22, Y+4	; 0x04
    216a:	7d 81       	ldd	r23, Y+5	; 0x05
    216c:	80 e0       	ldi	r24, 0x00	; 0
    216e:	90 e0       	ldi	r25, 0x00	; 0
    2170:	0e 94 48 24 	call	0x4890	; 0x4890 <__floatunsisf>
    2174:	a5 01       	movw	r20, r10
    2176:	94 01       	movw	r18, r8
    2178:	0e 94 fe 24 	call	0x49fc	; 0x49fc <__mulsf3>
    217c:	20 e0       	ldi	r18, 0x00	; 0
    217e:	30 e0       	ldi	r19, 0x00	; 0
    2180:	40 e0       	ldi	r20, 0x00	; 0
    2182:	5c e3       	ldi	r21, 0x3C	; 60
    2184:	0e 94 fe 24 	call	0x49fc	; 0x49fc <__mulsf3>
    2188:	2b 01       	movw	r4, r22
    218a:	3c 01       	movw	r6, r24
    218c:	68 81       	ld	r22, Y
    218e:	79 81       	ldd	r23, Y+1	; 0x01
    2190:	80 e0       	ldi	r24, 0x00	; 0
    2192:	90 e0       	ldi	r25, 0x00	; 0
    2194:	0e 94 48 24 	call	0x4890	; 0x4890 <__floatunsisf>
    2198:	20 e0       	ldi	r18, 0x00	; 0
    219a:	30 e0       	ldi	r19, 0x00	; 0
    219c:	40 e8       	ldi	r20, 0x80	; 128
    219e:	57 e4       	ldi	r21, 0x47	; 71
    21a0:	0e 94 fe 24 	call	0x49fc	; 0x49fc <__mulsf3>
    21a4:	9b 01       	movw	r18, r22
    21a6:	ac 01       	movw	r20, r24
    21a8:	c3 01       	movw	r24, r6
    21aa:	b2 01       	movw	r22, r4
    21ac:	0e 94 47 23 	call	0x468e	; 0x468e <__addsf3>
    21b0:	2b 01       	movw	r4, r22
    21b2:	3c 01       	movw	r6, r24
    21b4:	c7 01       	movw	r24, r14
    21b6:	b6 01       	movw	r22, r12
    21b8:	0e 94 48 24 	call	0x4890	; 0x4890 <__floatunsisf>
    21bc:	9b 01       	movw	r18, r22
    21be:	ac 01       	movw	r20, r24
    21c0:	c3 01       	movw	r24, r6
    21c2:	b2 01       	movw	r22, r4
    21c4:	0e 94 fe 24 	call	0x49fc	; 0x49fc <__mulsf3>
    21c8:	20 e0       	ldi	r18, 0x00	; 0
    21ca:	30 e0       	ldi	r19, 0x00	; 0
    21cc:	40 e0       	ldi	r20, 0x00	; 0
    21ce:	55 e3       	ldi	r21, 0x35	; 53
    21d0:	0e 94 fe 24 	call	0x49fc	; 0x49fc <__mulsf3>
    21d4:	6b 01       	movw	r12, r22
    21d6:	7c 01       	movw	r14, r24
    21d8:	6e 81       	ldd	r22, Y+6	; 0x06
    21da:	7f 81       	ldd	r23, Y+7	; 0x07
    21dc:	80 e0       	ldi	r24, 0x00	; 0
    21de:	90 e0       	ldi	r25, 0x00	; 0
    21e0:	0e 94 48 24 	call	0x4890	; 0x4890 <__floatunsisf>
    21e4:	a5 01       	movw	r20, r10
    21e6:	94 01       	movw	r18, r8
    21e8:	0e 94 fe 24 	call	0x49fc	; 0x49fc <__mulsf3>
    21ec:	20 e0       	ldi	r18, 0x00	; 0
    21ee:	30 e0       	ldi	r19, 0x00	; 0
    21f0:	40 e8       	ldi	r20, 0x80	; 128
    21f2:	5c e3       	ldi	r21, 0x3C	; 60
    21f4:	0e 94 fe 24 	call	0x49fc	; 0x49fc <__mulsf3>
    21f8:	4b 01       	movw	r8, r22
    21fa:	5c 01       	movw	r10, r24
    21fc:	6a 81       	ldd	r22, Y+2	; 0x02
    21fe:	7b 81       	ldd	r23, Y+3	; 0x03
    2200:	80 e0       	ldi	r24, 0x00	; 0
    2202:	90 e0       	ldi	r25, 0x00	; 0
    2204:	0e 94 48 24 	call	0x4890	; 0x4890 <__floatunsisf>
    2208:	20 e0       	ldi	r18, 0x00	; 0
    220a:	30 e0       	ldi	r19, 0x00	; 0
    220c:	40 e0       	ldi	r20, 0x00	; 0
    220e:	58 e4       	ldi	r21, 0x48	; 72
    2210:	0e 94 fe 24 	call	0x49fc	; 0x49fc <__mulsf3>
    2214:	9b 01       	movw	r18, r22
    2216:	ac 01       	movw	r20, r24
    2218:	c5 01       	movw	r24, r10
    221a:	b4 01       	movw	r22, r8
    221c:	0e 94 47 23 	call	0x468e	; 0x468e <__addsf3>
    2220:	9b 01       	movw	r18, r22
    2222:	ac 01       	movw	r20, r24
    2224:	c7 01       	movw	r24, r14
    2226:	b6 01       	movw	r22, r12
    2228:	0e 94 46 23 	call	0x468c	; 0x468c <__subsf3>
    222c:	20 e0       	ldi	r18, 0x00	; 0
    222e:	30 e0       	ldi	r19, 0x00	; 0
    2230:	40 e0       	ldi	r20, 0x00	; 0
    2232:	58 e3       	ldi	r21, 0x38	; 56
    2234:	0e 94 fe 24 	call	0x49fc	; 0x49fc <__mulsf3>
    2238:	df 91       	pop	r29
    223a:	cf 91       	pop	r28
    223c:	ff 90       	pop	r15
    223e:	ef 90       	pop	r14
    2240:	df 90       	pop	r13
    2242:	cf 90       	pop	r12
    2244:	bf 90       	pop	r11
    2246:	af 90       	pop	r10
    2248:	9f 90       	pop	r9
    224a:	8f 90       	pop	r8
    224c:	7f 90       	pop	r7
    224e:	6f 90       	pop	r6
    2250:	5f 90       	pop	r5
    2252:	4f 90       	pop	r4
    2254:	08 95       	ret

00002256 <get_altitude>:
    2256:	4f 92       	push	r4
    2258:	5f 92       	push	r5
    225a:	6f 92       	push	r6
    225c:	7f 92       	push	r7
    225e:	8f 92       	push	r8
    2260:	9f 92       	push	r9
    2262:	af 92       	push	r10
    2264:	bf 92       	push	r11
    2266:	cf 92       	push	r12
    2268:	df 92       	push	r13
    226a:	ef 92       	push	r14
    226c:	ff 92       	push	r15
    226e:	2b 01       	movw	r4, r22
    2270:	3c 01       	movw	r6, r24
    2272:	c0 90 1f 20 	lds	r12, 0x201F	; 0x80201f <L>
    2276:	d0 90 20 20 	lds	r13, 0x2020	; 0x802020 <L+0x1>
    227a:	e0 90 21 20 	lds	r14, 0x2021	; 0x802021 <L+0x2>
    227e:	f0 90 22 20 	lds	r15, 0x2022	; 0x802022 <L+0x3>
    2282:	20 91 23 20 	lds	r18, 0x2023	; 0x802023 <R>
    2286:	30 91 24 20 	lds	r19, 0x2024	; 0x802024 <R+0x1>
    228a:	40 91 25 20 	lds	r20, 0x2025	; 0x802025 <R+0x2>
    228e:	50 91 26 20 	lds	r21, 0x2026	; 0x802026 <R+0x3>
    2292:	c7 01       	movw	r24, r14
    2294:	b6 01       	movw	r22, r12
    2296:	0e 94 fe 24 	call	0x49fc	; 0x49fc <__mulsf3>
    229a:	20 91 1b 20 	lds	r18, 0x201B	; 0x80201b <g_0>
    229e:	30 91 1c 20 	lds	r19, 0x201C	; 0x80201c <g_0+0x1>
    22a2:	40 91 1d 20 	lds	r20, 0x201D	; 0x80201d <g_0+0x2>
    22a6:	50 91 1e 20 	lds	r21, 0x201E	; 0x80201e <g_0+0x3>
    22aa:	0e 94 af 23 	call	0x475e	; 0x475e <__divsf3>
    22ae:	4b 01       	movw	r8, r22
    22b0:	5c 01       	movw	r10, r24
    22b2:	a3 01       	movw	r20, r6
    22b4:	92 01       	movw	r18, r4
    22b6:	60 91 2b 20 	lds	r22, 0x202B	; 0x80202b <ground_p>
    22ba:	70 91 2c 20 	lds	r23, 0x202C	; 0x80202c <ground_p+0x1>
    22be:	80 91 2d 20 	lds	r24, 0x202D	; 0x80202d <ground_p+0x2>
    22c2:	90 91 2e 20 	lds	r25, 0x202E	; 0x80202e <ground_p+0x3>
    22c6:	0e 94 af 23 	call	0x475e	; 0x475e <__divsf3>
    22ca:	a5 01       	movw	r20, r10
    22cc:	94 01       	movw	r18, r8
    22ce:	0e 94 61 25 	call	0x4ac2	; 0x4ac2 <pow>
    22d2:	20 e0       	ldi	r18, 0x00	; 0
    22d4:	30 e0       	ldi	r19, 0x00	; 0
    22d6:	40 e8       	ldi	r20, 0x80	; 128
    22d8:	5f e3       	ldi	r21, 0x3F	; 63
    22da:	0e 94 46 23 	call	0x468c	; 0x468c <__subsf3>
    22de:	20 91 27 20 	lds	r18, 0x2027	; 0x802027 <ground_t>
    22e2:	30 91 28 20 	lds	r19, 0x2028	; 0x802028 <ground_t+0x1>
    22e6:	40 91 29 20 	lds	r20, 0x2029	; 0x802029 <ground_t+0x2>
    22ea:	50 91 2a 20 	lds	r21, 0x202A	; 0x80202a <ground_t+0x3>
    22ee:	0e 94 fe 24 	call	0x49fc	; 0x49fc <__mulsf3>
    22f2:	a7 01       	movw	r20, r14
    22f4:	96 01       	movw	r18, r12
    22f6:	0e 94 af 23 	call	0x475e	; 0x475e <__divsf3>
    22fa:	ff 90       	pop	r15
    22fc:	ef 90       	pop	r14
    22fe:	df 90       	pop	r13
    2300:	cf 90       	pop	r12
    2302:	bf 90       	pop	r11
    2304:	af 90       	pop	r10
    2306:	9f 90       	pop	r9
    2308:	8f 90       	pop	r8
    230a:	7f 90       	pop	r7
    230c:	6f 90       	pop	r6
    230e:	5f 90       	pop	r5
    2310:	4f 90       	pop	r4
    2312:	08 95       	ret

00002314 <get_voltage>:
    2314:	cf 92       	push	r12
    2316:	df 92       	push	r13
    2318:	ef 92       	push	r14
    231a:	ff 92       	push	r15
    231c:	d0 dc       	rcall	.-1632   	; 0x1cbe <voltage_read>
    231e:	bc 01       	movw	r22, r24
    2320:	80 e0       	ldi	r24, 0x00	; 0
    2322:	90 e0       	ldi	r25, 0x00	; 0
    2324:	0e 94 48 24 	call	0x4890	; 0x4890 <__floatunsisf>
    2328:	23 e4       	ldi	r18, 0x43	; 67
    232a:	3e e2       	ldi	r19, 0x2E	; 46
    232c:	42 e0       	ldi	r20, 0x02	; 2
    232e:	5a e3       	ldi	r21, 0x3A	; 58
    2330:	0e 94 fe 24 	call	0x49fc	; 0x49fc <__mulsf3>
    2334:	24 ee       	ldi	r18, 0xE4	; 228
    2336:	3a e5       	ldi	r19, 0x5A	; 90
    2338:	45 ec       	ldi	r20, 0xC5	; 197
    233a:	5d e3       	ldi	r21, 0x3D	; 61
    233c:	0e 94 46 23 	call	0x468c	; 0x468c <__subsf3>
    2340:	6b 01       	movw	r12, r22
    2342:	7c 01       	movw	r14, r24
    2344:	2b e2       	ldi	r18, 0x2B	; 43
    2346:	35 eb       	ldi	r19, 0xB5	; 181
    2348:	42 e1       	ldi	r20, 0x12	; 18
    234a:	50 e4       	ldi	r21, 0x40	; 64
    234c:	0e 94 fe 24 	call	0x49fc	; 0x49fc <__mulsf3>
    2350:	9b 01       	movw	r18, r22
    2352:	ac 01       	movw	r20, r24
    2354:	c7 01       	movw	r24, r14
    2356:	b6 01       	movw	r22, r12
    2358:	0e 94 47 23 	call	0x468e	; 0x468e <__addsf3>
    235c:	ff 90       	pop	r15
    235e:	ef 90       	pop	r14
    2360:	df 90       	pop	r13
    2362:	cf 90       	pop	r12
    2364:	08 95       	ret

00002366 <diff>:
    2366:	2f 92       	push	r2
    2368:	3f 92       	push	r3
    236a:	4f 92       	push	r4
    236c:	5f 92       	push	r5
    236e:	6f 92       	push	r6
    2370:	7f 92       	push	r7
    2372:	8f 92       	push	r8
    2374:	9f 92       	push	r9
    2376:	af 92       	push	r10
    2378:	bf 92       	push	r11
    237a:	cf 92       	push	r12
    237c:	df 92       	push	r13
    237e:	ef 92       	push	r14
    2380:	ff 92       	push	r15
    2382:	0f 93       	push	r16
    2384:	1f 93       	push	r17
    2386:	cf 93       	push	r28
    2388:	df 93       	push	r29
    238a:	00 d0       	rcall	.+0      	; 0x238c <diff+0x26>
    238c:	00 d0       	rcall	.+0      	; 0x238e <diff+0x28>
    238e:	cd b7       	in	r28, 0x3d	; 61
    2390:	de b7       	in	r29, 0x3e	; 62
    2392:	6c 01       	movw	r12, r24
    2394:	80 91 14 20 	lds	r24, 0x2014	; 0x802014 <data_samples>
    2398:	88 23       	and	r24, r24
    239a:	09 f4       	brne	.+2      	; 0x239e <diff+0x38>
    239c:	6c c0       	rjmp	.+216    	; 0x2476 <diff+0x110>
    239e:	00 e0       	ldi	r16, 0x00	; 0
    23a0:	10 e0       	ldi	r17, 0x00	; 0
    23a2:	41 2c       	mov	r4, r1
    23a4:	51 2c       	mov	r5, r1
    23a6:	32 01       	movw	r6, r4
    23a8:	86 2e       	mov	r8, r22
    23aa:	91 2c       	mov	r9, r1
    23ac:	a1 2c       	mov	r10, r1
    23ae:	b1 2c       	mov	r11, r1
    23b0:	89 82       	std	Y+1, r8	; 0x01
    23b2:	9a 82       	std	Y+2, r9	; 0x02
    23b4:	ab 82       	std	Y+3, r10	; 0x03
    23b6:	bc 82       	std	Y+4, r11	; 0x04
    23b8:	b8 01       	movw	r22, r16
    23ba:	c6 01       	movw	r24, r12
    23bc:	d6 dc       	rcall	.-1620   	; 0x1d6a <rb16_get_nth>
    23be:	5c 01       	movw	r10, r24
    23c0:	18 01       	movw	r2, r16
    23c2:	2f ef       	ldi	r18, 0xFF	; 255
    23c4:	22 1a       	sub	r2, r18
    23c6:	32 0a       	sbc	r3, r18
    23c8:	b1 01       	movw	r22, r2
    23ca:	c6 01       	movw	r24, r12
    23cc:	ce dc       	rcall	.-1636   	; 0x1d6a <rb16_get_nth>
    23ce:	7c 01       	movw	r14, r24
    23d0:	b8 01       	movw	r22, r16
    23d2:	6e 5f       	subi	r22, 0xFE	; 254
    23d4:	7f 4f       	sbci	r23, 0xFF	; 255
    23d6:	c6 01       	movw	r24, r12
    23d8:	c8 dc       	rcall	.-1648   	; 0x1d6a <rb16_get_nth>
    23da:	a5 01       	movw	r20, r10
    23dc:	bb 0c       	add	r11, r11
    23de:	66 0b       	sbc	r22, r22
    23e0:	77 0b       	sbc	r23, r23
    23e2:	8a 01       	movw	r16, r20
    23e4:	9b 01       	movw	r18, r22
    23e6:	00 0f       	add	r16, r16
    23e8:	11 1f       	adc	r17, r17
    23ea:	22 1f       	adc	r18, r18
    23ec:	33 1f       	adc	r19, r19
    23ee:	40 0f       	add	r20, r16
    23f0:	51 1f       	adc	r21, r17
    23f2:	62 1f       	adc	r22, r18
    23f4:	73 1f       	adc	r23, r19
    23f6:	87 01       	movw	r16, r14
    23f8:	ff 0c       	add	r15, r15
    23fa:	22 0b       	sbc	r18, r18
    23fc:	33 0b       	sbc	r19, r19
    23fe:	78 01       	movw	r14, r16
    2400:	89 01       	movw	r16, r18
    2402:	ee 0c       	add	r14, r14
    2404:	ff 1c       	adc	r15, r15
    2406:	00 1f       	adc	r16, r16
    2408:	11 1f       	adc	r17, r17
    240a:	ee 0c       	add	r14, r14
    240c:	ff 1c       	adc	r15, r15
    240e:	00 1f       	adc	r16, r16
    2410:	11 1f       	adc	r17, r17
    2412:	4a 01       	movw	r8, r20
    2414:	5b 01       	movw	r10, r22
    2416:	8e 18       	sub	r8, r14
    2418:	9f 08       	sbc	r9, r15
    241a:	a0 0a       	sbc	r10, r16
    241c:	b1 0a       	sbc	r11, r17
    241e:	ac 01       	movw	r20, r24
    2420:	99 0f       	add	r25, r25
    2422:	66 0b       	sbc	r22, r22
    2424:	77 0b       	sbc	r23, r23
    2426:	d5 01       	movw	r26, r10
    2428:	c4 01       	movw	r24, r8
    242a:	84 0f       	add	r24, r20
    242c:	95 1f       	adc	r25, r21
    242e:	a6 1f       	adc	r26, r22
    2430:	b7 1f       	adc	r27, r23
    2432:	9c 01       	movw	r18, r24
    2434:	ad 01       	movw	r20, r26
    2436:	69 81       	ldd	r22, Y+1	; 0x01
    2438:	7a 81       	ldd	r23, Y+2	; 0x02
    243a:	8b 81       	ldd	r24, Y+3	; 0x03
    243c:	9c 81       	ldd	r25, Y+4	; 0x04
    243e:	0e 94 c6 26 	call	0x4d8c	; 0x4d8c <__mulsi3>
    2442:	0e 94 4a 24 	call	0x4894	; 0x4894 <__floatsisf>
    2446:	20 e0       	ldi	r18, 0x00	; 0
    2448:	30 e0       	ldi	r19, 0x00	; 0
    244a:	40 e0       	ldi	r20, 0x00	; 0
    244c:	5f e3       	ldi	r21, 0x3F	; 63
    244e:	0e 94 fe 24 	call	0x49fc	; 0x49fc <__mulsf3>
    2452:	9b 01       	movw	r18, r22
    2454:	ac 01       	movw	r20, r24
    2456:	c3 01       	movw	r24, r6
    2458:	b2 01       	movw	r22, r4
    245a:	0e 94 47 23 	call	0x468e	; 0x468e <__addsf3>
    245e:	2b 01       	movw	r4, r22
    2460:	3c 01       	movw	r6, r24
    2462:	80 91 14 20 	lds	r24, 0x2014	; 0x802014 <data_samples>
    2466:	81 01       	movw	r16, r2
    2468:	28 2f       	mov	r18, r24
    246a:	30 e0       	ldi	r19, 0x00	; 0
    246c:	22 16       	cp	r2, r18
    246e:	33 06       	cpc	r3, r19
    2470:	08 f4       	brcc	.+2      	; 0x2474 <diff+0x10e>
    2472:	a2 cf       	rjmp	.-188    	; 0x23b8 <diff+0x52>
    2474:	03 c0       	rjmp	.+6      	; 0x247c <diff+0x116>
    2476:	41 2c       	mov	r4, r1
    2478:	51 2c       	mov	r5, r1
    247a:	32 01       	movw	r6, r4
    247c:	68 2f       	mov	r22, r24
    247e:	70 e0       	ldi	r23, 0x00	; 0
    2480:	80 e0       	ldi	r24, 0x00	; 0
    2482:	90 e0       	ldi	r25, 0x00	; 0
    2484:	0e 94 4a 24 	call	0x4894	; 0x4894 <__floatsisf>
    2488:	9b 01       	movw	r18, r22
    248a:	ac 01       	movw	r20, r24
    248c:	c3 01       	movw	r24, r6
    248e:	b2 01       	movw	r22, r4
    2490:	0e 94 af 23 	call	0x475e	; 0x475e <__divsf3>
    2494:	20 e0       	ldi	r18, 0x00	; 0
    2496:	30 e0       	ldi	r19, 0x00	; 0
    2498:	48 ec       	ldi	r20, 0xC8	; 200
    249a:	52 e4       	ldi	r21, 0x42	; 66
    249c:	0e 94 af 23 	call	0x475e	; 0x475e <__divsf3>
    24a0:	26 96       	adiw	r28, 0x06	; 6
    24a2:	cd bf       	out	0x3d, r28	; 61
    24a4:	de bf       	out	0x3e, r29	; 62
    24a6:	df 91       	pop	r29
    24a8:	cf 91       	pop	r28
    24aa:	1f 91       	pop	r17
    24ac:	0f 91       	pop	r16
    24ae:	ff 90       	pop	r15
    24b0:	ef 90       	pop	r14
    24b2:	df 90       	pop	r13
    24b4:	cf 90       	pop	r12
    24b6:	bf 90       	pop	r11
    24b8:	af 90       	pop	r10
    24ba:	9f 90       	pop	r9
    24bc:	8f 90       	pop	r8
    24be:	7f 90       	pop	r7
    24c0:	6f 90       	pop	r6
    24c2:	5f 90       	pop	r5
    24c4:	4f 90       	pop	r4
    24c6:	3f 90       	pop	r3
    24c8:	2f 90       	pop	r2
    24ca:	08 95       	ret

000024cc <data_check>:
    24cc:	3f 92       	push	r3
    24ce:	4f 92       	push	r4
    24d0:	5f 92       	push	r5
    24d2:	6f 92       	push	r6
    24d4:	7f 92       	push	r7
    24d6:	8f 92       	push	r8
    24d8:	9f 92       	push	r9
    24da:	af 92       	push	r10
    24dc:	bf 92       	push	r11
    24de:	cf 92       	push	r12
    24e0:	df 92       	push	r13
    24e2:	ef 92       	push	r14
    24e4:	ff 92       	push	r15
    24e6:	0f 93       	push	r16
    24e8:	1f 93       	push	r17
    24ea:	cf 93       	push	r28
    24ec:	df 93       	push	r29
    24ee:	00 d0       	rcall	.+0      	; 0x24f0 <data_check+0x24>
    24f0:	00 d0       	rcall	.+0      	; 0x24f2 <data_check+0x26>
    24f2:	cd b7       	in	r28, 0x3d	; 61
    24f4:	de b7       	in	r29, 0x3e	; 62
    24f6:	8c 01       	movw	r16, r24
    24f8:	19 82       	std	Y+1, r1	; 0x01
    24fa:	1a 82       	std	Y+2, r1	; 0x02
    24fc:	c1 2c       	mov	r12, r1
    24fe:	d1 2c       	mov	r13, r1
    2500:	76 01       	movw	r14, r12
    2502:	69 81       	ldd	r22, Y+1	; 0x01
    2504:	7a 81       	ldd	r23, Y+2	; 0x02
    2506:	c8 01       	movw	r24, r16
    2508:	b8 dc       	rcall	.-1680   	; 0x1e7a <rb32_get_nth>
    250a:	4b 01       	movw	r8, r22
    250c:	5c 01       	movw	r10, r24
    250e:	21 e6       	ldi	r18, 0x61	; 97
    2510:	82 1a       	sub	r8, r18
    2512:	2e ea       	ldi	r18, 0xAE	; 174
    2514:	92 0a       	sbc	r9, r18
    2516:	2a e0       	ldi	r18, 0x0A	; 10
    2518:	a2 0a       	sbc	r10, r18
    251a:	b1 08       	sbc	r11, r1
    251c:	2f e7       	ldi	r18, 0x7F	; 127
    251e:	82 16       	cp	r8, r18
    2520:	2a e1       	ldi	r18, 0x1A	; 26
    2522:	92 06       	cpc	r9, r18
    2524:	26 e0       	ldi	r18, 0x06	; 6
    2526:	a2 06       	cpc	r10, r18
    2528:	b1 04       	cpc	r11, r1
    252a:	80 f4       	brcc	.+32     	; 0x254c <data_check+0x80>
    252c:	0e 94 4a 24 	call	0x4894	; 0x4894 <__floatsisf>
    2530:	20 e0       	ldi	r18, 0x00	; 0
    2532:	30 e0       	ldi	r19, 0x00	; 0
    2534:	40 ea       	ldi	r20, 0xA0	; 160
    2536:	50 e4       	ldi	r21, 0x40	; 64
    2538:	0e 94 af 23 	call	0x475e	; 0x475e <__divsf3>
    253c:	9b 01       	movw	r18, r22
    253e:	ac 01       	movw	r20, r24
    2540:	c7 01       	movw	r24, r14
    2542:	b6 01       	movw	r22, r12
    2544:	0e 94 47 23 	call	0x468e	; 0x468e <__addsf3>
    2548:	6b 01       	movw	r12, r22
    254a:	7c 01       	movw	r14, r24
    254c:	89 81       	ldd	r24, Y+1	; 0x01
    254e:	9a 81       	ldd	r25, Y+2	; 0x02
    2550:	01 96       	adiw	r24, 0x01	; 1
    2552:	89 83       	std	Y+1, r24	; 0x01
    2554:	9a 83       	std	Y+2, r25	; 0x02
    2556:	05 97       	sbiw	r24, 0x05	; 5
    2558:	a1 f6       	brne	.-88     	; 0x2502 <data_check+0x36>
    255a:	19 82       	std	Y+1, r1	; 0x01
    255c:	1a 82       	std	Y+2, r1	; 0x02
    255e:	81 2c       	mov	r8, r1
    2560:	91 2c       	mov	r9, r1
    2562:	54 01       	movw	r10, r8
    2564:	69 81       	ldd	r22, Y+1	; 0x01
    2566:	7a 81       	ldd	r23, Y+2	; 0x02
    2568:	c8 01       	movw	r24, r16
    256a:	87 dc       	rcall	.-1778   	; 0x1e7a <rb32_get_nth>
    256c:	2b 01       	movw	r4, r22
    256e:	3c 01       	movw	r6, r24
    2570:	21 e6       	ldi	r18, 0x61	; 97
    2572:	42 1a       	sub	r4, r18
    2574:	2e ea       	ldi	r18, 0xAE	; 174
    2576:	52 0a       	sbc	r5, r18
    2578:	2a e0       	ldi	r18, 0x0A	; 10
    257a:	62 0a       	sbc	r6, r18
    257c:	71 08       	sbc	r7, r1
    257e:	2f e7       	ldi	r18, 0x7F	; 127
    2580:	42 16       	cp	r4, r18
    2582:	2a e1       	ldi	r18, 0x1A	; 26
    2584:	52 06       	cpc	r5, r18
    2586:	26 e0       	ldi	r18, 0x06	; 6
    2588:	62 06       	cpc	r6, r18
    258a:	71 04       	cpc	r7, r1
    258c:	90 f4       	brcc	.+36     	; 0x25b2 <data_check+0xe6>
    258e:	0e 94 4a 24 	call	0x4894	; 0x4894 <__floatsisf>
    2592:	a7 01       	movw	r20, r14
    2594:	96 01       	movw	r18, r12
    2596:	0e 94 46 23 	call	0x468c	; 0x468c <__subsf3>
    259a:	9b 01       	movw	r18, r22
    259c:	ac 01       	movw	r20, r24
    259e:	0e 94 fe 24 	call	0x49fc	; 0x49fc <__mulsf3>
    25a2:	9b 01       	movw	r18, r22
    25a4:	ac 01       	movw	r20, r24
    25a6:	c5 01       	movw	r24, r10
    25a8:	b4 01       	movw	r22, r8
    25aa:	0e 94 47 23 	call	0x468e	; 0x468e <__addsf3>
    25ae:	4b 01       	movw	r8, r22
    25b0:	5c 01       	movw	r10, r24
    25b2:	89 81       	ldd	r24, Y+1	; 0x01
    25b4:	9a 81       	ldd	r25, Y+2	; 0x02
    25b6:	01 96       	adiw	r24, 0x01	; 1
    25b8:	89 83       	std	Y+1, r24	; 0x01
    25ba:	9a 83       	std	Y+2, r25	; 0x02
    25bc:	05 97       	sbiw	r24, 0x05	; 5
    25be:	91 f6       	brne	.-92     	; 0x2564 <data_check+0x98>
    25c0:	20 e0       	ldi	r18, 0x00	; 0
    25c2:	30 e0       	ldi	r19, 0x00	; 0
    25c4:	40 e8       	ldi	r20, 0x80	; 128
    25c6:	5e e3       	ldi	r21, 0x3E	; 62
    25c8:	c5 01       	movw	r24, r10
    25ca:	b4 01       	movw	r22, r8
    25cc:	0e 94 fe 24 	call	0x49fc	; 0x49fc <__mulsf3>
    25d0:	69 83       	std	Y+1, r22	; 0x01
    25d2:	7a 83       	std	Y+2, r23	; 0x02
    25d4:	8b 83       	std	Y+3, r24	; 0x03
    25d6:	9c 83       	std	Y+4, r25	; 0x04
    25d8:	1d 82       	std	Y+5, r1	; 0x05
    25da:	1e 82       	std	Y+6, r1	; 0x06
    25dc:	31 2c       	mov	r3, r1
    25de:	41 2c       	mov	r4, r1
    25e0:	51 2c       	mov	r5, r1
    25e2:	32 01       	movw	r6, r4
    25e4:	6d 81       	ldd	r22, Y+5	; 0x05
    25e6:	7e 81       	ldd	r23, Y+6	; 0x06
    25e8:	c8 01       	movw	r24, r16
    25ea:	47 dc       	rcall	.-1906   	; 0x1e7a <rb32_get_nth>
    25ec:	4b 01       	movw	r8, r22
    25ee:	5c 01       	movw	r10, r24
    25f0:	21 e6       	ldi	r18, 0x61	; 97
    25f2:	82 1a       	sub	r8, r18
    25f4:	2e ea       	ldi	r18, 0xAE	; 174
    25f6:	92 0a       	sbc	r9, r18
    25f8:	2a e0       	ldi	r18, 0x0A	; 10
    25fa:	a2 0a       	sbc	r10, r18
    25fc:	b1 08       	sbc	r11, r1
    25fe:	2f e7       	ldi	r18, 0x7F	; 127
    2600:	82 16       	cp	r8, r18
    2602:	2a e1       	ldi	r18, 0x1A	; 26
    2604:	92 06       	cpc	r9, r18
    2606:	26 e0       	ldi	r18, 0x06	; 6
    2608:	a2 06       	cpc	r10, r18
    260a:	b1 04       	cpc	r11, r1
    260c:	50 f5       	brcc	.+84     	; 0x2662 <data_check+0x196>
    260e:	0e 94 4a 24 	call	0x4894	; 0x4894 <__floatsisf>
    2612:	4b 01       	movw	r8, r22
    2614:	5c 01       	movw	r10, r24
    2616:	a7 01       	movw	r20, r14
    2618:	96 01       	movw	r18, r12
    261a:	0e 94 46 23 	call	0x468c	; 0x468c <__subsf3>
    261e:	0e 94 17 24 	call	0x482e	; 0x482e <__fixsfsi>
    2622:	9b 01       	movw	r18, r22
    2624:	77 23       	and	r23, r23
    2626:	24 f4       	brge	.+8      	; 0x2630 <data_check+0x164>
    2628:	22 27       	eor	r18, r18
    262a:	33 27       	eor	r19, r19
    262c:	26 1b       	sub	r18, r22
    262e:	37 0b       	sbc	r19, r23
    2630:	b9 01       	movw	r22, r18
    2632:	33 0f       	add	r19, r19
    2634:	88 0b       	sbc	r24, r24
    2636:	99 0b       	sbc	r25, r25
    2638:	0e 94 4a 24 	call	0x4894	; 0x4894 <__floatsisf>
    263c:	9b 01       	movw	r18, r22
    263e:	ac 01       	movw	r20, r24
    2640:	69 81       	ldd	r22, Y+1	; 0x01
    2642:	7a 81       	ldd	r23, Y+2	; 0x02
    2644:	8b 81       	ldd	r24, Y+3	; 0x03
    2646:	9c 81       	ldd	r25, Y+4	; 0x04
    2648:	0e 94 fa 24 	call	0x49f4	; 0x49f4 <__gesf2>
    264c:	88 23       	and	r24, r24
    264e:	4c f0       	brlt	.+18     	; 0x2662 <data_check+0x196>
    2650:	a5 01       	movw	r20, r10
    2652:	94 01       	movw	r18, r8
    2654:	c3 01       	movw	r24, r6
    2656:	b2 01       	movw	r22, r4
    2658:	0e 94 47 23 	call	0x468e	; 0x468e <__addsf3>
    265c:	2b 01       	movw	r4, r22
    265e:	3c 01       	movw	r6, r24
    2660:	33 94       	inc	r3
    2662:	8d 81       	ldd	r24, Y+5	; 0x05
    2664:	9e 81       	ldd	r25, Y+6	; 0x06
    2666:	01 96       	adiw	r24, 0x01	; 1
    2668:	8d 83       	std	Y+5, r24	; 0x05
    266a:	9e 83       	std	Y+6, r25	; 0x06
    266c:	05 97       	sbiw	r24, 0x05	; 5
    266e:	09 f0       	breq	.+2      	; 0x2672 <data_check+0x1a6>
    2670:	b9 cf       	rjmp	.-142    	; 0x25e4 <data_check+0x118>
    2672:	33 20       	and	r3, r3
    2674:	69 f0       	breq	.+26     	; 0x2690 <data_check+0x1c4>
    2676:	63 2d       	mov	r22, r3
    2678:	70 e0       	ldi	r23, 0x00	; 0
    267a:	80 e0       	ldi	r24, 0x00	; 0
    267c:	90 e0       	ldi	r25, 0x00	; 0
    267e:	0e 94 48 24 	call	0x4890	; 0x4890 <__floatunsisf>
    2682:	9b 01       	movw	r18, r22
    2684:	ac 01       	movw	r20, r24
    2686:	c3 01       	movw	r24, r6
    2688:	b2 01       	movw	r22, r4
    268a:	0e 94 af 23 	call	0x475e	; 0x475e <__divsf3>
    268e:	04 c0       	rjmp	.+8      	; 0x2698 <data_check+0x1cc>
    2690:	60 e0       	ldi	r22, 0x00	; 0
    2692:	70 e0       	ldi	r23, 0x00	; 0
    2694:	80 e8       	ldi	r24, 0x80	; 128
    2696:	9f eb       	ldi	r25, 0xBF	; 191
    2698:	26 96       	adiw	r28, 0x06	; 6
    269a:	cd bf       	out	0x3d, r28	; 61
    269c:	de bf       	out	0x3e, r29	; 62
    269e:	df 91       	pop	r29
    26a0:	cf 91       	pop	r28
    26a2:	1f 91       	pop	r17
    26a4:	0f 91       	pop	r16
    26a6:	ff 90       	pop	r15
    26a8:	ef 90       	pop	r14
    26aa:	df 90       	pop	r13
    26ac:	cf 90       	pop	r12
    26ae:	bf 90       	pop	r11
    26b0:	af 90       	pop	r10
    26b2:	9f 90       	pop	r9
    26b4:	8f 90       	pop	r8
    26b6:	7f 90       	pop	r7
    26b8:	6f 90       	pop	r6
    26ba:	5f 90       	pop	r5
    26bc:	4f 90       	pop	r4
    26be:	3f 90       	pop	r3
    26c0:	08 95       	ret

000026c2 <data_collect>:
    26c2:	af 92       	push	r10
    26c4:	bf 92       	push	r11
    26c6:	cf 92       	push	r12
    26c8:	df 92       	push	r13
    26ca:	ef 92       	push	r14
    26cc:	ff 92       	push	r15
    26ce:	0f 93       	push	r16
    26d0:	1f 93       	push	r17
    26d2:	cf 93       	push	r28
    26d4:	df 93       	push	r29
    26d6:	00 d0       	rcall	.+0      	; 0x26d8 <data_collect+0x16>
    26d8:	00 d0       	rcall	.+0      	; 0x26da <data_collect+0x18>
    26da:	cd b7       	in	r28, 0x3d	; 61
    26dc:	de b7       	in	r29, 0x3e	; 62
    26de:	5c 01       	movw	r10, r24
    26e0:	8b 01       	movw	r16, r22
    26e2:	16 dd       	rcall	.-1492   	; 0x2110 <get_pressure>
    26e4:	20 e0       	ldi	r18, 0x00	; 0
    26e6:	30 e0       	ldi	r19, 0x00	; 0
    26e8:	40 e2       	ldi	r20, 0x20	; 32
    26ea:	51 e4       	ldi	r21, 0x41	; 65
    26ec:	0e 94 fe 24 	call	0x49fc	; 0x49fc <__mulsf3>
    26f0:	0e 94 17 24 	call	0x482e	; 0x482e <__fixsfsi>
    26f4:	69 83       	std	Y+1, r22	; 0x01
    26f6:	7a 83       	std	Y+2, r23	; 0x02
    26f8:	8b 83       	std	Y+3, r24	; 0x03
    26fa:	9c 83       	std	Y+4, r25	; 0x04
    26fc:	41 e0       	ldi	r20, 0x01	; 1
    26fe:	50 e0       	ldi	r21, 0x00	; 0
    2700:	be 01       	movw	r22, r28
    2702:	6f 5f       	subi	r22, 0xFF	; 255
    2704:	7f 4f       	sbci	r23, 0xFF	; 255
    2706:	c8 01       	movw	r24, r16
    2708:	5d db       	rcall	.-2374   	; 0x1dc4 <rb32_write>
    270a:	c8 01       	movw	r24, r16
    270c:	df de       	rcall	.-578    	; 0x24cc <data_check>
    270e:	20 e0       	ldi	r18, 0x00	; 0
    2710:	30 e0       	ldi	r19, 0x00	; 0
    2712:	40 e2       	ldi	r20, 0x20	; 32
    2714:	51 e4       	ldi	r21, 0x41	; 65
    2716:	0e 94 af 23 	call	0x475e	; 0x475e <__divsf3>
    271a:	6b 01       	movw	r12, r22
    271c:	7c 01       	movw	r14, r24
    271e:	20 e0       	ldi	r18, 0x00	; 0
    2720:	30 e0       	ldi	r19, 0x00	; 0
    2722:	40 e8       	ldi	r20, 0x80	; 128
    2724:	5f eb       	ldi	r21, 0xBF	; 191
    2726:	0e 94 ab 23 	call	0x4756	; 0x4756 <__cmpsf2>
    272a:	88 23       	and	r24, r24
    272c:	d1 f1       	breq	.+116    	; 0x27a2 <data_collect+0xe0>
    272e:	c0 92 2c 21 	sts	0x212C, r12	; 0x80212c <press>
    2732:	d0 92 2d 21 	sts	0x212D, r13	; 0x80212d <press+0x1>
    2736:	e0 92 2e 21 	sts	0x212E, r14	; 0x80212e <press+0x2>
    273a:	f0 92 2f 21 	sts	0x212F, r15	; 0x80212f <press+0x3>
    273e:	c7 01       	movw	r24, r14
    2740:	b6 01       	movw	r22, r12
    2742:	89 dd       	rcall	.-1262   	; 0x2256 <get_altitude>
    2744:	60 93 24 21 	sts	0x2124, r22	; 0x802124 <alt>
    2748:	70 93 25 21 	sts	0x2125, r23	; 0x802125 <alt+0x1>
    274c:	80 93 26 21 	sts	0x2126, r24	; 0x802126 <alt+0x2>
    2750:	90 93 27 21 	sts	0x2127, r25	; 0x802127 <alt+0x3>
    2754:	60 91 24 21 	lds	r22, 0x2124	; 0x802124 <alt>
    2758:	70 91 25 21 	lds	r23, 0x2125	; 0x802125 <alt+0x1>
    275c:	80 91 26 21 	lds	r24, 0x2126	; 0x802126 <alt+0x2>
    2760:	90 91 27 21 	lds	r25, 0x2127	; 0x802127 <alt+0x3>
    2764:	20 e0       	ldi	r18, 0x00	; 0
    2766:	30 e0       	ldi	r19, 0x00	; 0
    2768:	48 ec       	ldi	r20, 0xC8	; 200
    276a:	52 e4       	ldi	r21, 0x42	; 66
    276c:	0e 94 fe 24 	call	0x49fc	; 0x49fc <__mulsf3>
    2770:	0e 94 17 24 	call	0x482e	; 0x482e <__fixsfsi>
    2774:	6d 83       	std	Y+5, r22	; 0x05
    2776:	7e 83       	std	Y+6, r23	; 0x06
    2778:	41 e0       	ldi	r20, 0x01	; 1
    277a:	50 e0       	ldi	r21, 0x00	; 0
    277c:	be 01       	movw	r22, r28
    277e:	6b 5f       	subi	r22, 0xFB	; 251
    2780:	7f 4f       	sbci	r23, 0xFF	; 255
    2782:	c5 01       	movw	r24, r10
    2784:	a9 da       	rcall	.-2734   	; 0x1cd8 <rb16_write>
    2786:	60 91 17 20 	lds	r22, 0x2017	; 0x802017 <rate>
    278a:	70 91 18 20 	lds	r23, 0x2018	; 0x802018 <rate+0x1>
    278e:	c5 01       	movw	r24, r10
    2790:	ea dd       	rcall	.-1068   	; 0x2366 <diff>
    2792:	60 93 1c 21 	sts	0x211C, r22	; 0x80211c <velocity>
    2796:	70 93 1d 21 	sts	0x211D, r23	; 0x80211d <velocity+0x1>
    279a:	80 93 1e 21 	sts	0x211E, r24	; 0x80211e <velocity+0x2>
    279e:	90 93 1f 21 	sts	0x211F, r25	; 0x80211f <velocity+0x3>
    27a2:	fa d8       	rcall	.-3596   	; 0x1998 <thermistor_read>
    27a4:	8d 83       	std	Y+5, r24	; 0x05
    27a6:	9e 83       	std	Y+6, r25	; 0x06
    27a8:	83 e3       	ldi	r24, 0x33	; 51
    27aa:	93 e1       	ldi	r25, 0x13	; 19
    27ac:	a5 e9       	ldi	r26, 0x95	; 149
    27ae:	b3 e4       	ldi	r27, 0x43	; 67
    27b0:	80 93 28 21 	sts	0x2128, r24	; 0x802128 <temp>
    27b4:	90 93 29 21 	sts	0x2129, r25	; 0x802129 <temp+0x1>
    27b8:	a0 93 2a 21 	sts	0x212A, r26	; 0x80212a <temp+0x2>
    27bc:	b0 93 2b 21 	sts	0x212B, r27	; 0x80212b <temp+0x3>
    27c0:	a9 dd       	rcall	.-1198   	; 0x2314 <get_voltage>
    27c2:	60 93 20 21 	sts	0x2120, r22	; 0x802120 <volt>
    27c6:	70 93 21 21 	sts	0x2121, r23	; 0x802121 <volt+0x1>
    27ca:	80 93 22 21 	sts	0x2122, r24	; 0x802122 <volt+0x2>
    27ce:	90 93 23 21 	sts	0x2123, r25	; 0x802123 <volt+0x3>
    27d2:	26 96       	adiw	r28, 0x06	; 6
    27d4:	cd bf       	out	0x3d, r28	; 61
    27d6:	de bf       	out	0x3e, r29	; 62
    27d8:	df 91       	pop	r29
    27da:	cf 91       	pop	r28
    27dc:	1f 91       	pop	r17
    27de:	0f 91       	pop	r16
    27e0:	ff 90       	pop	r15
    27e2:	ef 90       	pop	r14
    27e4:	df 90       	pop	r13
    27e6:	cf 90       	pop	r12
    27e8:	bf 90       	pop	r11
    27ea:	af 90       	pop	r10
    27ec:	08 95       	ret

000027ee <state_check>:
    27ee:	80 91 52 21 	lds	r24, 0x2152	; 0x802152 <state>
    27f2:	81 30       	cpi	r24, 0x01	; 1
    27f4:	81 f1       	breq	.+96     	; 0x2856 <state_check+0x68>
    27f6:	38 f0       	brcs	.+14     	; 0x2806 <state_check+0x18>
    27f8:	82 30       	cpi	r24, 0x02	; 2
    27fa:	09 f4       	brne	.+2      	; 0x27fe <state_check+0x10>
    27fc:	55 c0       	rjmp	.+170    	; 0x28a8 <state_check+0xba>
    27fe:	83 30       	cpi	r24, 0x03	; 3
    2800:	09 f4       	brne	.+2      	; 0x2804 <state_check+0x16>
    2802:	fc c0       	rjmp	.+504    	; 0x29fc <state_check+0x20e>
    2804:	7c c0       	rjmp	.+248    	; 0x28fe <state_check+0x110>
    2806:	60 91 1c 21 	lds	r22, 0x211C	; 0x80211c <velocity>
    280a:	70 91 1d 21 	lds	r23, 0x211D	; 0x80211d <velocity+0x1>
    280e:	80 91 1e 21 	lds	r24, 0x211E	; 0x80211e <velocity+0x2>
    2812:	90 91 1f 21 	lds	r25, 0x211F	; 0x80211f <velocity+0x3>
    2816:	20 e0       	ldi	r18, 0x00	; 0
    2818:	30 e0       	ldi	r19, 0x00	; 0
    281a:	40 e4       	ldi	r20, 0x40	; 64
    281c:	50 e4       	ldi	r21, 0x40	; 64
    281e:	0e 94 ab 23 	call	0x4756	; 0x4756 <__cmpsf2>
    2822:	88 23       	and	r24, r24
    2824:	0c f0       	brlt	.+2      	; 0x2828 <state_check+0x3a>
    2826:	ea c0       	rjmp	.+468    	; 0x29fc <state_check+0x20e>
    2828:	60 91 24 21 	lds	r22, 0x2124	; 0x802124 <alt>
    282c:	70 91 25 21 	lds	r23, 0x2125	; 0x802125 <alt+0x1>
    2830:	80 91 26 21 	lds	r24, 0x2126	; 0x802126 <alt+0x2>
    2834:	90 91 27 21 	lds	r25, 0x2127	; 0x802127 <alt+0x3>
    2838:	20 e0       	ldi	r18, 0x00	; 0
    283a:	30 e0       	ldi	r19, 0x00	; 0
    283c:	41 ee       	ldi	r20, 0xE1	; 225
    283e:	53 e4       	ldi	r21, 0x43	; 67
    2840:	0e 94 fa 24 	call	0x49f4	; 0x49f4 <__gesf2>
    2844:	18 16       	cp	r1, r24
    2846:	0c f0       	brlt	.+2      	; 0x284a <state_check+0x5c>
    2848:	d9 c0       	rjmp	.+434    	; 0x29fc <state_check+0x20e>
    284a:	80 91 52 21 	lds	r24, 0x2152	; 0x802152 <state>
    284e:	8f 5f       	subi	r24, 0xFF	; 255
    2850:	80 93 52 21 	sts	0x2152, r24	; 0x802152 <state>
    2854:	08 95       	ret
    2856:	60 91 1c 21 	lds	r22, 0x211C	; 0x80211c <velocity>
    285a:	70 91 1d 21 	lds	r23, 0x211D	; 0x80211d <velocity+0x1>
    285e:	80 91 1e 21 	lds	r24, 0x211E	; 0x80211e <velocity+0x2>
    2862:	90 91 1f 21 	lds	r25, 0x211F	; 0x80211f <velocity+0x3>
    2866:	20 e0       	ldi	r18, 0x00	; 0
    2868:	30 e0       	ldi	r19, 0x00	; 0
    286a:	40 e4       	ldi	r20, 0x40	; 64
    286c:	50 e4       	ldi	r21, 0x40	; 64
    286e:	0e 94 ab 23 	call	0x4756	; 0x4756 <__cmpsf2>
    2872:	88 23       	and	r24, r24
    2874:	84 f4       	brge	.+32     	; 0x2896 <state_check+0xa8>
    2876:	60 91 24 21 	lds	r22, 0x2124	; 0x802124 <alt>
    287a:	70 91 25 21 	lds	r23, 0x2125	; 0x802125 <alt+0x1>
    287e:	80 91 26 21 	lds	r24, 0x2126	; 0x802126 <alt+0x2>
    2882:	90 91 27 21 	lds	r25, 0x2127	; 0x802127 <alt+0x3>
    2886:	20 e0       	ldi	r18, 0x00	; 0
    2888:	30 e0       	ldi	r19, 0x00	; 0
    288a:	41 ee       	ldi	r20, 0xE1	; 225
    288c:	53 e4       	ldi	r21, 0x43	; 67
    288e:	0e 94 ab 23 	call	0x4756	; 0x4756 <__cmpsf2>
    2892:	88 23       	and	r24, r24
    2894:	1c f0       	brlt	.+6      	; 0x289c <state_check+0xae>
    2896:	81 e0       	ldi	r24, 0x01	; 1
    2898:	80 93 51 21 	sts	0x2151, r24	; 0x802151 <released>
    289c:	80 91 52 21 	lds	r24, 0x2152	; 0x802152 <state>
    28a0:	8f 5f       	subi	r24, 0xFF	; 255
    28a2:	80 93 52 21 	sts	0x2152, r24	; 0x802152 <state>
    28a6:	08 95       	ret
    28a8:	60 91 1c 21 	lds	r22, 0x211C	; 0x80211c <velocity>
    28ac:	70 91 1d 21 	lds	r23, 0x211D	; 0x80211d <velocity+0x1>
    28b0:	80 91 1e 21 	lds	r24, 0x211E	; 0x80211e <velocity+0x2>
    28b4:	90 91 1f 21 	lds	r25, 0x211F	; 0x80211f <velocity+0x3>
    28b8:	0e 94 17 24 	call	0x482e	; 0x482e <__fixsfsi>
    28bc:	9b 01       	movw	r18, r22
    28be:	77 23       	and	r23, r23
    28c0:	24 f4       	brge	.+8      	; 0x28ca <state_check+0xdc>
    28c2:	22 27       	eor	r18, r18
    28c4:	33 27       	eor	r19, r19
    28c6:	26 1b       	sub	r18, r22
    28c8:	37 0b       	sbc	r19, r23
    28ca:	23 30       	cpi	r18, 0x03	; 3
    28cc:	31 05       	cpc	r19, r1
    28ce:	8c f0       	brlt	.+34     	; 0x28f2 <state_check+0x104>
    28d0:	60 91 24 21 	lds	r22, 0x2124	; 0x802124 <alt>
    28d4:	70 91 25 21 	lds	r23, 0x2125	; 0x802125 <alt+0x1>
    28d8:	80 91 26 21 	lds	r24, 0x2126	; 0x802126 <alt+0x2>
    28dc:	90 91 27 21 	lds	r25, 0x2127	; 0x802127 <alt+0x3>
    28e0:	20 e0       	ldi	r18, 0x00	; 0
    28e2:	30 e0       	ldi	r19, 0x00	; 0
    28e4:	40 e2       	ldi	r20, 0x20	; 32
    28e6:	51 e4       	ldi	r21, 0x41	; 65
    28e8:	0e 94 ab 23 	call	0x4756	; 0x4756 <__cmpsf2>
    28ec:	88 23       	and	r24, r24
    28ee:	0c f0       	brlt	.+2      	; 0x28f2 <state_check+0x104>
    28f0:	85 c0       	rjmp	.+266    	; 0x29fc <state_check+0x20e>
    28f2:	80 91 52 21 	lds	r24, 0x2152	; 0x802152 <state>
    28f6:	8f 5f       	subi	r24, 0xFF	; 255
    28f8:	80 93 52 21 	sts	0x2152, r24	; 0x802152 <state>
    28fc:	08 95       	ret
    28fe:	60 91 1c 21 	lds	r22, 0x211C	; 0x80211c <velocity>
    2902:	70 91 1d 21 	lds	r23, 0x211D	; 0x80211d <velocity+0x1>
    2906:	80 91 1e 21 	lds	r24, 0x211E	; 0x80211e <velocity+0x2>
    290a:	90 91 1f 21 	lds	r25, 0x211F	; 0x80211f <velocity+0x3>
    290e:	20 e0       	ldi	r18, 0x00	; 0
    2910:	30 e0       	ldi	r19, 0x00	; 0
    2912:	40 e4       	ldi	r20, 0x40	; 64
    2914:	50 e4       	ldi	r21, 0x40	; 64
    2916:	0e 94 fa 24 	call	0x49f4	; 0x49f4 <__gesf2>
    291a:	18 16       	cp	r1, r24
    291c:	14 f4       	brge	.+4      	; 0x2922 <state_check+0x134>
    291e:	10 92 52 21 	sts	0x2152, r1	; 0x802152 <state>
    2922:	60 91 24 21 	lds	r22, 0x2124	; 0x802124 <alt>
    2926:	70 91 25 21 	lds	r23, 0x2125	; 0x802125 <alt+0x1>
    292a:	80 91 26 21 	lds	r24, 0x2126	; 0x802126 <alt+0x2>
    292e:	90 91 27 21 	lds	r25, 0x2127	; 0x802127 <alt+0x3>
    2932:	20 e0       	ldi	r18, 0x00	; 0
    2934:	30 e0       	ldi	r19, 0x00	; 0
    2936:	41 ee       	ldi	r20, 0xE1	; 225
    2938:	53 e4       	ldi	r21, 0x43	; 67
    293a:	0e 94 fa 24 	call	0x49f4	; 0x49f4 <__gesf2>
    293e:	18 16       	cp	r1, r24
    2940:	9c f4       	brge	.+38     	; 0x2968 <state_check+0x17a>
    2942:	60 91 1c 21 	lds	r22, 0x211C	; 0x80211c <velocity>
    2946:	70 91 1d 21 	lds	r23, 0x211D	; 0x80211d <velocity+0x1>
    294a:	80 91 1e 21 	lds	r24, 0x211E	; 0x80211e <velocity+0x2>
    294e:	90 91 1f 21 	lds	r25, 0x211F	; 0x80211f <velocity+0x3>
    2952:	20 e0       	ldi	r18, 0x00	; 0
    2954:	30 e0       	ldi	r19, 0x00	; 0
    2956:	40 e4       	ldi	r20, 0x40	; 64
    2958:	50 e4       	ldi	r21, 0x40	; 64
    295a:	0e 94 ab 23 	call	0x4756	; 0x4756 <__cmpsf2>
    295e:	88 23       	and	r24, r24
    2960:	1c f4       	brge	.+6      	; 0x2968 <state_check+0x17a>
    2962:	81 e0       	ldi	r24, 0x01	; 1
    2964:	80 93 52 21 	sts	0x2152, r24	; 0x802152 <state>
    2968:	60 91 24 21 	lds	r22, 0x2124	; 0x802124 <alt>
    296c:	70 91 25 21 	lds	r23, 0x2125	; 0x802125 <alt+0x1>
    2970:	80 91 26 21 	lds	r24, 0x2126	; 0x802126 <alt+0x2>
    2974:	90 91 27 21 	lds	r25, 0x2127	; 0x802127 <alt+0x3>
    2978:	20 e0       	ldi	r18, 0x00	; 0
    297a:	30 e0       	ldi	r19, 0x00	; 0
    297c:	41 ee       	ldi	r20, 0xE1	; 225
    297e:	53 e4       	ldi	r21, 0x43	; 67
    2980:	0e 94 ab 23 	call	0x4756	; 0x4756 <__cmpsf2>
    2984:	88 23       	and	r24, r24
    2986:	9c f4       	brge	.+38     	; 0x29ae <state_check+0x1c0>
    2988:	60 91 1c 21 	lds	r22, 0x211C	; 0x80211c <velocity>
    298c:	70 91 1d 21 	lds	r23, 0x211D	; 0x80211d <velocity+0x1>
    2990:	80 91 1e 21 	lds	r24, 0x211E	; 0x80211e <velocity+0x2>
    2994:	90 91 1f 21 	lds	r25, 0x211F	; 0x80211f <velocity+0x3>
    2998:	20 e0       	ldi	r18, 0x00	; 0
    299a:	30 e0       	ldi	r19, 0x00	; 0
    299c:	40 e4       	ldi	r20, 0x40	; 64
    299e:	50 e4       	ldi	r21, 0x40	; 64
    29a0:	0e 94 ab 23 	call	0x4756	; 0x4756 <__cmpsf2>
    29a4:	88 23       	and	r24, r24
    29a6:	1c f4       	brge	.+6      	; 0x29ae <state_check+0x1c0>
    29a8:	82 e0       	ldi	r24, 0x02	; 2
    29aa:	80 93 52 21 	sts	0x2152, r24	; 0x802152 <state>
    29ae:	60 91 1c 21 	lds	r22, 0x211C	; 0x80211c <velocity>
    29b2:	70 91 1d 21 	lds	r23, 0x211D	; 0x80211d <velocity+0x1>
    29b6:	80 91 1e 21 	lds	r24, 0x211E	; 0x80211e <velocity+0x2>
    29ba:	90 91 1f 21 	lds	r25, 0x211F	; 0x80211f <velocity+0x3>
    29be:	0e 94 17 24 	call	0x482e	; 0x482e <__fixsfsi>
    29c2:	9b 01       	movw	r18, r22
    29c4:	77 23       	and	r23, r23
    29c6:	24 f4       	brge	.+8      	; 0x29d0 <state_check+0x1e2>
    29c8:	22 27       	eor	r18, r18
    29ca:	33 27       	eor	r19, r19
    29cc:	26 1b       	sub	r18, r22
    29ce:	37 0b       	sbc	r19, r23
    29d0:	23 30       	cpi	r18, 0x03	; 3
    29d2:	31 05       	cpc	r19, r1
    29d4:	9c f4       	brge	.+38     	; 0x29fc <state_check+0x20e>
    29d6:	60 91 24 21 	lds	r22, 0x2124	; 0x802124 <alt>
    29da:	70 91 25 21 	lds	r23, 0x2125	; 0x802125 <alt+0x1>
    29de:	80 91 26 21 	lds	r24, 0x2126	; 0x802126 <alt+0x2>
    29e2:	90 91 27 21 	lds	r25, 0x2127	; 0x802127 <alt+0x3>
    29e6:	20 e0       	ldi	r18, 0x00	; 0
    29e8:	30 e0       	ldi	r19, 0x00	; 0
    29ea:	40 e2       	ldi	r20, 0x20	; 32
    29ec:	51 e4       	ldi	r21, 0x41	; 65
    29ee:	0e 94 ab 23 	call	0x4756	; 0x4756 <__cmpsf2>
    29f2:	88 23       	and	r24, r24
    29f4:	1c f4       	brge	.+6      	; 0x29fc <state_check+0x20e>
    29f6:	83 e0       	ldi	r24, 0x03	; 3
    29f8:	80 93 52 21 	sts	0x2152, r24	; 0x802152 <state>
    29fc:	08 95       	ret

000029fe <release_servo_init>:
    29fe:	61 e0       	ldi	r22, 0x01	; 1
    2a00:	84 e0       	ldi	r24, 0x04	; 4
    2a02:	a5 da       	rcall	.-2742   	; 0x1f4e <sysclk_enable_module>
    2a04:	64 e0       	ldi	r22, 0x04	; 4
    2a06:	84 e0       	ldi	r24, 0x04	; 4
    2a08:	a2 da       	rcall	.-2748   	; 0x1f4e <sysclk_enable_module>
    2a0a:	e0 e6       	ldi	r30, 0x60	; 96
    2a0c:	f6 e0       	ldi	r31, 0x06	; 6
    2a0e:	80 81       	ld	r24, Z
    2a10:	87 60       	ori	r24, 0x07	; 7
    2a12:	80 83       	st	Z, r24
    2a14:	e0 e0       	ldi	r30, 0x00	; 0
    2a16:	f9 e0       	ldi	r31, 0x09	; 9
    2a18:	85 e0       	ldi	r24, 0x05	; 5
    2a1a:	80 83       	st	Z, r24
    2a1c:	83 e1       	ldi	r24, 0x13	; 19
    2a1e:	81 83       	std	Z+1, r24	; 0x01
    2a20:	80 e1       	ldi	r24, 0x10	; 16
    2a22:	97 e2       	ldi	r25, 0x27	; 39
    2a24:	86 a3       	std	Z+38, r24	; 0x26
    2a26:	97 a3       	std	Z+39, r25	; 0x27
    2a28:	86 a1       	ldd	r24, Z+38	; 0x26
    2a2a:	97 a1       	ldd	r25, Z+39	; 0x27
    2a2c:	88 55       	subi	r24, 0x58	; 88
    2a2e:	92 40       	sbci	r25, 0x02	; 2
    2a30:	80 a7       	std	Z+40, r24	; 0x28
    2a32:	91 a7       	std	Z+41, r25	; 0x29
    2a34:	86 a1       	ldd	r24, Z+38	; 0x26
    2a36:	97 a1       	ldd	r25, Z+39	; 0x27
    2a38:	8e 5e       	subi	r24, 0xEE	; 238
    2a3a:	92 40       	sbci	r25, 0x02	; 2
    2a3c:	82 a7       	std	Z+42, r24	; 0x2a
    2a3e:	93 a7       	std	Z+43, r25	; 0x2b
    2a40:	86 a1       	ldd	r24, Z+38	; 0x26
    2a42:	97 a1       	ldd	r25, Z+39	; 0x27
    2a44:	8e 5e       	subi	r24, 0xEE	; 238
    2a46:	92 40       	sbci	r25, 0x02	; 2
    2a48:	84 a7       	std	Z+44, r24	; 0x2c
    2a4a:	95 a7       	std	Z+45, r25	; 0x2d
    2a4c:	08 95       	ret

00002a4e <servo_timer_init>:
    2a4e:	e0 e0       	ldi	r30, 0x00	; 0
    2a50:	f6 e0       	ldi	r31, 0x06	; 6
    2a52:	80 81       	ld	r24, Z
    2a54:	84 60       	ori	r24, 0x04	; 4
    2a56:	80 83       	st	Z, r24
    2a58:	84 81       	ldd	r24, Z+4	; 0x04
    2a5a:	84 60       	ori	r24, 0x04	; 4
    2a5c:	84 83       	std	Z+4, r24	; 0x04
    2a5e:	08 95       	ret

00002a60 <servo_pid>:
    2a60:	8f 92       	push	r8
    2a62:	9f 92       	push	r9
    2a64:	af 92       	push	r10
    2a66:	bf 92       	push	r11
    2a68:	cf 92       	push	r12
    2a6a:	df 92       	push	r13
    2a6c:	ef 92       	push	r14
    2a6e:	ff 92       	push	r15
    2a70:	0f 93       	push	r16
    2a72:	1f 93       	push	r17
    2a74:	cf 93       	push	r28
    2a76:	df 93       	push	r29
    2a78:	7c 01       	movw	r14, r24
    2a7a:	c0 e0       	ldi	r28, 0x00	; 0
    2a7c:	d0 e0       	ldi	r29, 0x00	; 0
    2a7e:	00 e0       	ldi	r16, 0x00	; 0
    2a80:	10 e0       	ldi	r17, 0x00	; 0
    2a82:	be 01       	movw	r22, r28
    2a84:	c7 01       	movw	r24, r14
    2a86:	71 d9       	rcall	.-3358   	; 0x1d6a <rb16_get_nth>
    2a88:	08 0f       	add	r16, r24
    2a8a:	19 1f       	adc	r17, r25
    2a8c:	21 96       	adiw	r28, 0x01	; 1
    2a8e:	ca 30       	cpi	r28, 0x0A	; 10
    2a90:	d1 05       	cpc	r29, r1
    2a92:	b9 f7       	brne	.-18     	; 0x2a82 <servo_pid+0x22>
    2a94:	60 e0       	ldi	r22, 0x00	; 0
    2a96:	70 e0       	ldi	r23, 0x00	; 0
    2a98:	c7 01       	movw	r24, r14
    2a9a:	67 d9       	rcall	.-3378   	; 0x1d6a <rb16_get_nth>
    2a9c:	ec 01       	movw	r28, r24
    2a9e:	60 91 17 20 	lds	r22, 0x2017	; 0x802017 <rate>
    2aa2:	70 91 18 20 	lds	r23, 0x2018	; 0x802018 <rate+0x1>
    2aa6:	c7 01       	movw	r24, r14
    2aa8:	5e dc       	rcall	.-1860   	; 0x2366 <diff>
    2aaa:	6b 01       	movw	r12, r22
    2aac:	7c 01       	movw	r14, r24
    2aae:	be 01       	movw	r22, r28
    2ab0:	dd 0f       	add	r29, r29
    2ab2:	88 0b       	sbc	r24, r24
    2ab4:	99 0b       	sbc	r25, r25
    2ab6:	0e 94 4a 24 	call	0x4894	; 0x4894 <__floatsisf>
    2aba:	20 e0       	ldi	r18, 0x00	; 0
    2abc:	30 e0       	ldi	r19, 0x00	; 0
    2abe:	a9 01       	movw	r20, r18
    2ac0:	0e 94 fe 24 	call	0x49fc	; 0x49fc <__mulsf3>
    2ac4:	20 e0       	ldi	r18, 0x00	; 0
    2ac6:	30 e0       	ldi	r19, 0x00	; 0
    2ac8:	48 ec       	ldi	r20, 0xC8	; 200
    2aca:	52 e4       	ldi	r21, 0x42	; 66
    2acc:	0e 94 af 23 	call	0x475e	; 0x475e <__divsf3>
    2ad0:	4b 01       	movw	r8, r22
    2ad2:	5c 01       	movw	r10, r24
    2ad4:	b8 01       	movw	r22, r16
    2ad6:	11 0f       	add	r17, r17
    2ad8:	88 0b       	sbc	r24, r24
    2ada:	99 0b       	sbc	r25, r25
    2adc:	0e 94 4a 24 	call	0x4894	; 0x4894 <__floatsisf>
    2ae0:	20 e0       	ldi	r18, 0x00	; 0
    2ae2:	30 e0       	ldi	r19, 0x00	; 0
    2ae4:	a9 01       	movw	r20, r18
    2ae6:	0e 94 fe 24 	call	0x49fc	; 0x49fc <__mulsf3>
    2aea:	20 e0       	ldi	r18, 0x00	; 0
    2aec:	30 e0       	ldi	r19, 0x00	; 0
    2aee:	48 ec       	ldi	r20, 0xC8	; 200
    2af0:	52 e4       	ldi	r21, 0x42	; 66
    2af2:	0e 94 af 23 	call	0x475e	; 0x475e <__divsf3>
    2af6:	9b 01       	movw	r18, r22
    2af8:	ac 01       	movw	r20, r24
    2afa:	c5 01       	movw	r24, r10
    2afc:	b4 01       	movw	r22, r8
    2afe:	0e 94 47 23 	call	0x468e	; 0x468e <__addsf3>
    2b02:	4b 01       	movw	r8, r22
    2b04:	5c 01       	movw	r10, r24
    2b06:	20 e0       	ldi	r18, 0x00	; 0
    2b08:	30 e0       	ldi	r19, 0x00	; 0
    2b0a:	a9 01       	movw	r20, r18
    2b0c:	c7 01       	movw	r24, r14
    2b0e:	b6 01       	movw	r22, r12
    2b10:	0e 94 fe 24 	call	0x49fc	; 0x49fc <__mulsf3>
    2b14:	9b 01       	movw	r18, r22
    2b16:	ac 01       	movw	r20, r24
    2b18:	c5 01       	movw	r24, r10
    2b1a:	b4 01       	movw	r22, r8
    2b1c:	0e 94 47 23 	call	0x468e	; 0x468e <__addsf3>
    2b20:	20 e0       	ldi	r18, 0x00	; 0
    2b22:	30 e8       	ldi	r19, 0x80	; 128
    2b24:	4b eb       	ldi	r20, 0xBB	; 187
    2b26:	54 e4       	ldi	r21, 0x44	; 68
    2b28:	0e 94 47 23 	call	0x468e	; 0x468e <__addsf3>
    2b2c:	0e 94 1c 24 	call	0x4838	; 0x4838 <__fixunssfsi>
    2b30:	60 93 19 20 	sts	0x2019, r22	; 0x802019 <servo_pulse>
    2b34:	70 93 1a 20 	sts	0x201A, r23	; 0x80201a <servo_pulse+0x1>
    2b38:	60 91 19 20 	lds	r22, 0x2019	; 0x802019 <servo_pulse>
    2b3c:	70 91 1a 20 	lds	r23, 0x201A	; 0x80201a <servo_pulse+0x1>
    2b40:	80 e0       	ldi	r24, 0x00	; 0
    2b42:	90 e0       	ldi	r25, 0x00	; 0
    2b44:	0e 94 48 24 	call	0x4890	; 0x4890 <__floatunsisf>
    2b48:	20 e0       	ldi	r18, 0x00	; 0
    2b4a:	30 e0       	ldi	r19, 0x00	; 0
    2b4c:	4a e7       	ldi	r20, 0x7A	; 122
    2b4e:	54 e4       	ldi	r21, 0x44	; 68
    2b50:	0e 94 af 23 	call	0x475e	; 0x475e <__divsf3>
    2b54:	20 e0       	ldi	r18, 0x00	; 0
    2b56:	30 e0       	ldi	r19, 0x00	; 0
    2b58:	4a ef       	ldi	r20, 0xFA	; 250
    2b5a:	53 e4       	ldi	r21, 0x43	; 67
    2b5c:	0e 94 fe 24 	call	0x49fc	; 0x49fc <__mulsf3>
    2b60:	0e 94 1c 24 	call	0x4838	; 0x4838 <__fixunssfsi>
    2b64:	e0 e0       	ldi	r30, 0x00	; 0
    2b66:	f9 e0       	ldi	r31, 0x09	; 9
    2b68:	62 a7       	std	Z+42, r22	; 0x2a
    2b6a:	73 a7       	std	Z+43, r23	; 0x2b
    2b6c:	64 a7       	std	Z+44, r22	; 0x2c
    2b6e:	75 a7       	std	Z+45, r23	; 0x2d
    2b70:	df 91       	pop	r29
    2b72:	cf 91       	pop	r28
    2b74:	1f 91       	pop	r17
    2b76:	0f 91       	pop	r16
    2b78:	ff 90       	pop	r15
    2b7a:	ef 90       	pop	r14
    2b7c:	df 90       	pop	r13
    2b7e:	cf 90       	pop	r12
    2b80:	bf 90       	pop	r11
    2b82:	af 90       	pop	r10
    2b84:	9f 90       	pop	r9
    2b86:	8f 90       	pop	r8
    2b88:	08 95       	ret

00002b8a <clock_init>:
    2b8a:	61 e0       	ldi	r22, 0x01	; 1
    2b8c:	85 e0       	ldi	r24, 0x05	; 5
    2b8e:	df d9       	rcall	.-3138   	; 0x1f4e <sysclk_enable_module>
    2b90:	e0 e0       	ldi	r30, 0x00	; 0
    2b92:	fa e0       	ldi	r31, 0x0A	; 10
    2b94:	87 e0       	ldi	r24, 0x07	; 7
    2b96:	80 83       	st	Z, r24
    2b98:	81 e1       	ldi	r24, 0x11	; 17
    2b9a:	9a e7       	ldi	r25, 0x7A	; 122
    2b9c:	86 a3       	std	Z+38, r24	; 0x26
    2b9e:	97 a3       	std	Z+39, r25	; 0x27
    2ba0:	81 e0       	ldi	r24, 0x01	; 1
    2ba2:	86 83       	std	Z+6, r24	; 0x06
    2ba4:	08 95       	ret

00002ba6 <calc_rpm>:
    2ba6:	cf 92       	push	r12
    2ba8:	df 92       	push	r13
    2baa:	ef 92       	push	r14
    2bac:	ff 92       	push	r15
    2bae:	80 91 3c 21 	lds	r24, 0x213C	; 0x80213c <ticks_per_sec>
    2bb2:	90 91 3d 21 	lds	r25, 0x213D	; 0x80213d <ticks_per_sec+0x1>
    2bb6:	c0 90 fe 20 	lds	r12, 0x20FE	; 0x8020fe <rpm>
    2bba:	d0 90 ff 20 	lds	r13, 0x20FF	; 0x8020ff <rpm+0x1>
    2bbe:	e0 90 00 21 	lds	r14, 0x2100	; 0x802100 <rpm+0x2>
    2bc2:	f0 90 01 21 	lds	r15, 0x2101	; 0x802101 <rpm+0x3>
    2bc6:	2c e3       	ldi	r18, 0x3C	; 60
    2bc8:	28 9f       	mul	r18, r24
    2bca:	b0 01       	movw	r22, r0
    2bcc:	29 9f       	mul	r18, r25
    2bce:	70 0d       	add	r23, r0
    2bd0:	11 24       	eor	r1, r1
    2bd2:	80 e0       	ldi	r24, 0x00	; 0
    2bd4:	90 e0       	ldi	r25, 0x00	; 0
    2bd6:	0e 94 48 24 	call	0x4890	; 0x4890 <__floatunsisf>
    2bda:	a7 01       	movw	r20, r14
    2bdc:	96 01       	movw	r18, r12
    2bde:	0e 94 47 23 	call	0x468e	; 0x468e <__addsf3>
    2be2:	20 e0       	ldi	r18, 0x00	; 0
    2be4:	30 e0       	ldi	r19, 0x00	; 0
    2be6:	40 e0       	ldi	r20, 0x00	; 0
    2be8:	5f e3       	ldi	r21, 0x3F	; 63
    2bea:	0e 94 fe 24 	call	0x49fc	; 0x49fc <__mulsf3>
    2bee:	60 93 fe 20 	sts	0x20FE, r22	; 0x8020fe <rpm>
    2bf2:	70 93 ff 20 	sts	0x20FF, r23	; 0x8020ff <rpm+0x1>
    2bf6:	80 93 00 21 	sts	0x2100, r24	; 0x802100 <rpm+0x2>
    2bfa:	90 93 01 21 	sts	0x2101, r25	; 0x802101 <rpm+0x3>
    2bfe:	10 92 3c 21 	sts	0x213C, r1	; 0x80213c <ticks_per_sec>
    2c02:	10 92 3d 21 	sts	0x213D, r1	; 0x80213d <ticks_per_sec+0x1>
    2c06:	ff 90       	pop	r15
    2c08:	ef 90       	pop	r14
    2c0a:	df 90       	pop	r13
    2c0c:	cf 90       	pop	r12
    2c0e:	08 95       	ret

00002c10 <cali_alt>:
    2c10:	cf 93       	push	r28
    2c12:	df 93       	push	r29
    2c14:	1f 92       	push	r1
    2c16:	1f 92       	push	r1
    2c18:	cd b7       	in	r28, 0x3d	; 61
    2c1a:	de b7       	in	r29, 0x3e	; 62
    2c1c:	80 91 2c 21 	lds	r24, 0x212C	; 0x80212c <press>
    2c20:	90 91 2d 21 	lds	r25, 0x212D	; 0x80212d <press+0x1>
    2c24:	a0 91 2e 21 	lds	r26, 0x212E	; 0x80212e <press+0x2>
    2c28:	b0 91 2f 21 	lds	r27, 0x212F	; 0x80212f <press+0x3>
    2c2c:	80 93 2b 20 	sts	0x202B, r24	; 0x80202b <ground_p>
    2c30:	90 93 2c 20 	sts	0x202C, r25	; 0x80202c <ground_p+0x1>
    2c34:	a0 93 2d 20 	sts	0x202D, r26	; 0x80202d <ground_p+0x2>
    2c38:	b0 93 2e 20 	sts	0x202E, r27	; 0x80202e <ground_p+0x3>
    2c3c:	0e 94 cc 0c 	call	0x1998	; 0x1998 <thermistor_read>
    2c40:	89 83       	std	Y+1, r24	; 0x01
    2c42:	9a 83       	std	Y+2, r25	; 0x02
    2c44:	83 e3       	ldi	r24, 0x33	; 51
    2c46:	93 e1       	ldi	r25, 0x13	; 19
    2c48:	a5 e9       	ldi	r26, 0x95	; 149
    2c4a:	b3 e4       	ldi	r27, 0x43	; 67
    2c4c:	80 93 27 20 	sts	0x2027, r24	; 0x802027 <ground_t>
    2c50:	90 93 28 20 	sts	0x2028, r25	; 0x802028 <ground_t+0x1>
    2c54:	a0 93 29 20 	sts	0x2029, r26	; 0x802029 <ground_t+0x2>
    2c58:	b0 93 2a 20 	sts	0x202A, r27	; 0x80202a <ground_t+0x3>
    2c5c:	0f 90       	pop	r0
    2c5e:	0f 90       	pop	r0
    2c60:	df 91       	pop	r29
    2c62:	cf 91       	pop	r28
    2c64:	08 95       	ret

00002c66 <cali_ang>:
    2c66:	0e 94 8c 0c 	call	0x1918	; 0x1918 <imu_heading>
    2c6a:	60 93 3e 21 	sts	0x213E, r22	; 0x80213e <ref_yaw>
    2c6e:	70 93 3f 21 	sts	0x213F, r23	; 0x80213f <ref_yaw+0x1>
    2c72:	80 93 40 21 	sts	0x2140, r24	; 0x802140 <ref_yaw+0x2>
    2c76:	90 93 41 21 	sts	0x2141, r25	; 0x802141 <ref_yaw+0x3>
    2c7a:	08 95       	ret

00002c7c <calibrate>:
    2c7c:	c9 df       	rcall	.-110    	; 0x2c10 <cali_alt>
    2c7e:	f3 cf       	rjmp	.-26     	; 0x2c66 <cali_ang>
    2c80:	08 95       	ret

00002c82 <servo_release>:
    2c82:	e0 e0       	ldi	r30, 0x00	; 0
    2c84:	f9 e0       	ldi	r31, 0x09	; 9
    2c86:	86 a1       	ldd	r24, Z+38	; 0x26
    2c88:	97 a1       	ldd	r25, Z+39	; 0x27
    2c8a:	88 5e       	subi	r24, 0xE8	; 232
    2c8c:	93 40       	sbci	r25, 0x03	; 3
    2c8e:	80 a7       	std	Z+40, r24	; 0x28
    2c90:	91 a7       	std	Z+41, r25	; 0x29
    2c92:	81 e0       	ldi	r24, 0x01	; 1
    2c94:	80 93 51 21 	sts	0x2151, r24	; 0x802151 <released>
    2c98:	08 95       	ret

00002c9a <servo_close>:

	released = 1;
}

void servo_close(void){
	TCD0.CCA = TCD0.PER - 600;
    2c9a:	e0 e0       	ldi	r30, 0x00	; 0
    2c9c:	f9 e0       	ldi	r31, 0x09	; 9
    2c9e:	86 a1       	ldd	r24, Z+38	; 0x26
    2ca0:	97 a1       	ldd	r25, Z+39	; 0x27
    2ca2:	88 55       	subi	r24, 0x58	; 88
    2ca4:	92 40       	sbci	r25, 0x02	; 2
    2ca6:	80 a7       	std	Z+40, r24	; 0x28
    2ca8:	91 a7       	std	Z+41, r25	; 0x29

	released = 0;
    2caa:	10 92 51 21 	sts	0x2151, r1	; 0x802151 <released>
    2cae:	08 95       	ret

00002cb0 <packet>:
}

void packet(void){
    2cb0:	2f 92       	push	r2
    2cb2:	3f 92       	push	r3
    2cb4:	4f 92       	push	r4
    2cb6:	5f 92       	push	r5
    2cb8:	6f 92       	push	r6
    2cba:	7f 92       	push	r7
    2cbc:	8f 92       	push	r8
    2cbe:	9f 92       	push	r9
    2cc0:	af 92       	push	r10
    2cc2:	bf 92       	push	r11
    2cc4:	cf 92       	push	r12
    2cc6:	df 92       	push	r13
    2cc8:	ef 92       	push	r14
    2cca:	ff 92       	push	r15
    2ccc:	0f 93       	push	r16
    2cce:	1f 93       	push	r17
    2cd0:	cf 93       	push	r28
    2cd2:	df 93       	push	r29
    2cd4:	cd b7       	in	r28, 0x3d	; 61
    2cd6:	de b7       	in	r29, 0x3e	; 62
    2cd8:	e9 97       	sbiw	r28, 0x39	; 57
    2cda:	cd bf       	out	0x3d, r28	; 61
    2cdc:	de bf       	out	0x3e, r29	; 62
	//XBEE_spi_write(str);
	packets++;
    2cde:	80 91 30 21 	lds	r24, 0x2130	; 0x802130 <packets>
    2ce2:	90 91 31 21 	lds	r25, 0x2131	; 0x802131 <packets+0x1>
    2ce6:	01 96       	adiw	r24, 0x01	; 1
    2ce8:	80 93 30 21 	sts	0x2130, r24	; 0x802130 <packets>
    2cec:	90 93 31 21 	sts	0x2131, r25	; 0x802131 <packets+0x1>
	sprintf(str,format,timer/10,timer%10,packets,
    2cf0:	60 91 fa 20 	lds	r22, 0x20FA	; 0x8020fa <angle>
    2cf4:	70 91 fb 20 	lds	r23, 0x20FB	; 0x8020fb <angle+0x1>
    2cf8:	80 91 fc 20 	lds	r24, 0x20FC	; 0x8020fc <angle+0x2>
    2cfc:	90 91 fd 20 	lds	r25, 0x20FD	; 0x8020fd <angle+0x3>
    2d00:	20 91 52 21 	lds	r18, 0x2152	; 0x802152 <state>
    2d04:	29 83       	std	Y+1, r18	; 0x01
    2d06:	40 90 fe 20 	lds	r4, 0x20FE	; 0x8020fe <rpm>
    2d0a:	50 90 ff 20 	lds	r5, 0x20FF	; 0x8020ff <rpm+0x1>
    2d0e:	60 90 00 21 	lds	r6, 0x2100	; 0x802100 <rpm+0x2>
    2d12:	70 90 01 21 	lds	r7, 0x2101	; 0x802101 <rpm+0x3>
    2d16:	80 90 02 21 	lds	r8, 0x2102	; 0x802102 <roll>
    2d1a:	90 90 03 21 	lds	r9, 0x2103	; 0x802103 <roll+0x1>
    2d1e:	a0 90 04 21 	lds	r10, 0x2104	; 0x802104 <roll+0x2>
    2d22:	b0 90 05 21 	lds	r11, 0x2105	; 0x802105 <roll+0x3>
    2d26:	c0 90 06 21 	lds	r12, 0x2106	; 0x802106 <pitch>
    2d2a:	d0 90 07 21 	lds	r13, 0x2107	; 0x802107 <pitch+0x1>
    2d2e:	e0 90 08 21 	lds	r14, 0x2108	; 0x802108 <pitch+0x2>
    2d32:	f0 90 09 21 	lds	r15, 0x2109	; 0x802109 <pitch+0x3>
    2d36:	40 91 0a 21 	lds	r20, 0x210A	; 0x80210a <gps_sats>
    2d3a:	50 91 0b 21 	lds	r21, 0x210B	; 0x80210b <gps_sats+0x1>
    2d3e:	48 af       	std	Y+56, r20	; 0x38
    2d40:	59 af       	std	Y+57, r21	; 0x39
	(int16_t) (alt),						(int32_t) press,							(int16_t) (temp-273.15),				(int16_t)volt,
	(int16_t) (((int32_t)gps_t)/10000),		(int16_t) ((((int32_t)gps_t)%10000)/100),	(int16_t) (((int32_t)gps_t)%100),
	(int16_t) gps_lat,						((int32_t) (gps_lat*1000000))%1000000,		(int16_t) gps_long,						(int32_t)(abs(((int32_t)(gps_long*1000000))%1000000)),
	(int16_t) gps_alt,						((int16_t) (gps_alt)*10)%10,				gps_sats,
    2d42:	20 91 0c 21 	lds	r18, 0x210C	; 0x80210c <gps_alt>
    2d46:	30 91 0d 21 	lds	r19, 0x210D	; 0x80210d <gps_alt+0x1>
    2d4a:	40 91 0e 21 	lds	r20, 0x210E	; 0x80210e <gps_alt+0x2>
    2d4e:	50 91 0f 21 	lds	r21, 0x210F	; 0x80210f <gps_alt+0x3>
    2d52:	2a 83       	std	Y+2, r18	; 0x02
    2d54:	3b 83       	std	Y+3, r19	; 0x03
    2d56:	4c 83       	std	Y+4, r20	; 0x04
    2d58:	5d 83       	std	Y+5, r21	; 0x05
}

void packet(void){
	//XBEE_spi_write(str);
	packets++;
	sprintf(str,format,timer/10,timer%10,packets,
    2d5a:	20 91 0c 21 	lds	r18, 0x210C	; 0x80210c <gps_alt>
    2d5e:	30 91 0d 21 	lds	r19, 0x210D	; 0x80210d <gps_alt+0x1>
    2d62:	40 91 0e 21 	lds	r20, 0x210E	; 0x80210e <gps_alt+0x2>
    2d66:	50 91 0f 21 	lds	r21, 0x210F	; 0x80210f <gps_alt+0x3>
    2d6a:	2e 83       	std	Y+6, r18	; 0x06
    2d6c:	3f 83       	std	Y+7, r19	; 0x07
    2d6e:	48 87       	std	Y+8, r20	; 0x08
    2d70:	59 87       	std	Y+9, r21	; 0x09
	(int16_t) (alt),						(int32_t) press,							(int16_t) (temp-273.15),				(int16_t)volt,
	(int16_t) (((int32_t)gps_t)/10000),		(int16_t) ((((int32_t)gps_t)%10000)/100),	(int16_t) (((int32_t)gps_t)%100),
	(int16_t) gps_lat,						((int32_t) (gps_lat*1000000))%1000000,		(int16_t) gps_long,						(int32_t)(abs(((int32_t)(gps_long*1000000))%1000000)),
    2d72:	20 91 10 21 	lds	r18, 0x2110	; 0x802110 <gps_long>
    2d76:	30 91 11 21 	lds	r19, 0x2111	; 0x802111 <gps_long+0x1>
    2d7a:	40 91 12 21 	lds	r20, 0x2112	; 0x802112 <gps_long+0x2>
    2d7e:	50 91 13 21 	lds	r21, 0x2113	; 0x802113 <gps_long+0x3>
    2d82:	2a 87       	std	Y+10, r18	; 0x0a
    2d84:	3b 87       	std	Y+11, r19	; 0x0b
    2d86:	4c 87       	std	Y+12, r20	; 0x0c
    2d88:	5d 87       	std	Y+13, r21	; 0x0d
}

void packet(void){
	//XBEE_spi_write(str);
	packets++;
	sprintf(str,format,timer/10,timer%10,packets,
    2d8a:	20 91 10 21 	lds	r18, 0x2110	; 0x802110 <gps_long>
    2d8e:	30 91 11 21 	lds	r19, 0x2111	; 0x802111 <gps_long+0x1>
    2d92:	40 91 12 21 	lds	r20, 0x2112	; 0x802112 <gps_long+0x2>
    2d96:	50 91 13 21 	lds	r21, 0x2113	; 0x802113 <gps_long+0x3>
    2d9a:	2e 87       	std	Y+14, r18	; 0x0e
    2d9c:	3f 87       	std	Y+15, r19	; 0x0f
    2d9e:	48 8b       	std	Y+16, r20	; 0x10
    2da0:	59 8b       	std	Y+17, r21	; 0x11
	(int16_t) (alt),						(int32_t) press,							(int16_t) (temp-273.15),				(int16_t)volt,
	(int16_t) (((int32_t)gps_t)/10000),		(int16_t) ((((int32_t)gps_t)%10000)/100),	(int16_t) (((int32_t)gps_t)%100),
	(int16_t) gps_lat,						((int32_t) (gps_lat*1000000))%1000000,		(int16_t) gps_long,						(int32_t)(abs(((int32_t)(gps_long*1000000))%1000000)),
    2da2:	20 91 14 21 	lds	r18, 0x2114	; 0x802114 <gps_lat>
    2da6:	30 91 15 21 	lds	r19, 0x2115	; 0x802115 <gps_lat+0x1>
    2daa:	40 91 16 21 	lds	r20, 0x2116	; 0x802116 <gps_lat+0x2>
    2dae:	50 91 17 21 	lds	r21, 0x2117	; 0x802117 <gps_lat+0x3>
    2db2:	2a 8b       	std	Y+18, r18	; 0x12
    2db4:	3b 8b       	std	Y+19, r19	; 0x13
    2db6:	4c 8b       	std	Y+20, r20	; 0x14
    2db8:	5d 8b       	std	Y+21, r21	; 0x15
}

void packet(void){
	//XBEE_spi_write(str);
	packets++;
	sprintf(str,format,timer/10,timer%10,packets,
    2dba:	20 91 14 21 	lds	r18, 0x2114	; 0x802114 <gps_lat>
    2dbe:	30 91 15 21 	lds	r19, 0x2115	; 0x802115 <gps_lat+0x1>
    2dc2:	40 91 16 21 	lds	r20, 0x2116	; 0x802116 <gps_lat+0x2>
    2dc6:	50 91 17 21 	lds	r21, 0x2117	; 0x802117 <gps_lat+0x3>
    2dca:	2e 8b       	std	Y+22, r18	; 0x16
    2dcc:	3f 8b       	std	Y+23, r19	; 0x17
    2dce:	48 8f       	std	Y+24, r20	; 0x18
    2dd0:	59 8f       	std	Y+25, r21	; 0x19
	(int16_t) (alt),						(int32_t) press,							(int16_t) (temp-273.15),				(int16_t)volt,
	(int16_t) (((int32_t)gps_t)/10000),		(int16_t) ((((int32_t)gps_t)%10000)/100),	(int16_t) (((int32_t)gps_t)%100),
    2dd2:	20 91 18 21 	lds	r18, 0x2118	; 0x802118 <gps_t>
    2dd6:	30 91 19 21 	lds	r19, 0x2119	; 0x802119 <gps_t+0x1>
    2dda:	40 91 1a 21 	lds	r20, 0x211A	; 0x80211a <gps_t+0x2>
    2dde:	50 91 1b 21 	lds	r21, 0x211B	; 0x80211b <gps_t+0x3>
    2de2:	2a 8f       	std	Y+26, r18	; 0x1a
    2de4:	3b 8f       	std	Y+27, r19	; 0x1b
    2de6:	4c 8f       	std	Y+28, r20	; 0x1c
    2de8:	5d 8f       	std	Y+29, r21	; 0x1d
    2dea:	20 91 18 21 	lds	r18, 0x2118	; 0x802118 <gps_t>
    2dee:	30 91 19 21 	lds	r19, 0x2119	; 0x802119 <gps_t+0x1>
    2df2:	40 91 1a 21 	lds	r20, 0x211A	; 0x80211a <gps_t+0x2>
    2df6:	50 91 1b 21 	lds	r21, 0x211B	; 0x80211b <gps_t+0x3>
    2dfa:	2e 8f       	std	Y+30, r18	; 0x1e
    2dfc:	3f 8f       	std	Y+31, r19	; 0x1f
    2dfe:	48 a3       	std	Y+32, r20	; 0x20
    2e00:	59 a3       	std	Y+33, r21	; 0x21
    2e02:	20 91 18 21 	lds	r18, 0x2118	; 0x802118 <gps_t>
    2e06:	30 91 19 21 	lds	r19, 0x2119	; 0x802119 <gps_t+0x1>
    2e0a:	40 91 1a 21 	lds	r20, 0x211A	; 0x80211a <gps_t+0x2>
    2e0e:	50 91 1b 21 	lds	r21, 0x211B	; 0x80211b <gps_t+0x3>
    2e12:	2a a3       	std	Y+34, r18	; 0x22
    2e14:	3b a3       	std	Y+35, r19	; 0x23
    2e16:	4c a3       	std	Y+36, r20	; 0x24
    2e18:	5d a3       	std	Y+37, r21	; 0x25
}

void packet(void){
	//XBEE_spi_write(str);
	packets++;
	sprintf(str,format,timer/10,timer%10,packets,
    2e1a:	20 91 20 21 	lds	r18, 0x2120	; 0x802120 <volt>
    2e1e:	30 91 21 21 	lds	r19, 0x2121	; 0x802121 <volt+0x1>
    2e22:	40 91 22 21 	lds	r20, 0x2122	; 0x802122 <volt+0x2>
    2e26:	50 91 23 21 	lds	r21, 0x2123	; 0x802123 <volt+0x3>
    2e2a:	2e a3       	std	Y+38, r18	; 0x26
    2e2c:	3f a3       	std	Y+39, r19	; 0x27
    2e2e:	48 a7       	std	Y+40, r20	; 0x28
    2e30:	59 a7       	std	Y+41, r21	; 0x29
	(int16_t) (alt),						(int32_t) press,							(int16_t) (temp-273.15),				(int16_t)volt,
    2e32:	20 91 28 21 	lds	r18, 0x2128	; 0x802128 <temp>
    2e36:	30 91 29 21 	lds	r19, 0x2129	; 0x802129 <temp+0x1>
    2e3a:	40 91 2a 21 	lds	r20, 0x212A	; 0x80212a <temp+0x2>
    2e3e:	50 91 2b 21 	lds	r21, 0x212B	; 0x80212b <temp+0x3>
    2e42:	2a a7       	std	Y+42, r18	; 0x2a
    2e44:	3b a7       	std	Y+43, r19	; 0x2b
    2e46:	4c a7       	std	Y+44, r20	; 0x2c
    2e48:	5d a7       	std	Y+45, r21	; 0x2d
}

void packet(void){
	//XBEE_spi_write(str);
	packets++;
	sprintf(str,format,timer/10,timer%10,packets,
    2e4a:	20 91 2c 21 	lds	r18, 0x212C	; 0x80212c <press>
    2e4e:	30 91 2d 21 	lds	r19, 0x212D	; 0x80212d <press+0x1>
    2e52:	40 91 2e 21 	lds	r20, 0x212E	; 0x80212e <press+0x2>
    2e56:	50 91 2f 21 	lds	r21, 0x212F	; 0x80212f <press+0x3>
    2e5a:	2e a7       	std	Y+46, r18	; 0x2e
    2e5c:	3f a7       	std	Y+47, r19	; 0x2f
    2e5e:	48 ab       	std	Y+48, r20	; 0x30
    2e60:	59 ab       	std	Y+49, r21	; 0x31
    2e62:	20 91 24 21 	lds	r18, 0x2124	; 0x802124 <alt>
    2e66:	30 91 25 21 	lds	r19, 0x2125	; 0x802125 <alt+0x1>
    2e6a:	40 91 26 21 	lds	r20, 0x2126	; 0x802126 <alt+0x2>
    2e6e:	50 91 27 21 	lds	r21, 0x2127	; 0x802127 <alt+0x3>
    2e72:	2a ab       	std	Y+50, r18	; 0x32
    2e74:	3b ab       	std	Y+51, r19	; 0x33
    2e76:	4c ab       	std	Y+52, r20	; 0x34
    2e78:	5d ab       	std	Y+53, r21	; 0x35
    2e7a:	00 91 30 21 	lds	r16, 0x2130	; 0x802130 <packets>
    2e7e:	10 91 31 21 	lds	r17, 0x2131	; 0x802131 <packets+0x1>
    2e82:	20 90 34 21 	lds	r2, 0x2134	; 0x802134 <timer>
    2e86:	30 90 35 21 	lds	r3, 0x2135	; 0x802135 <timer+0x1>
    2e8a:	40 91 34 21 	lds	r20, 0x2134	; 0x802134 <timer>
    2e8e:	50 91 35 21 	lds	r21, 0x2135	; 0x802135 <timer+0x1>
    2e92:	4e ab       	std	Y+54, r20	; 0x36
    2e94:	5f ab       	std	Y+55, r21	; 0x37
    2e96:	0e 94 17 24 	call	0x482e	; 0x482e <__fixsfsi>
    2e9a:	7f 93       	push	r23
    2e9c:	6f 93       	push	r22
    2e9e:	1f 92       	push	r1
    2ea0:	59 81       	ldd	r21, Y+1	; 0x01
    2ea2:	5f 93       	push	r21
    2ea4:	c3 01       	movw	r24, r6
    2ea6:	b2 01       	movw	r22, r4
    2ea8:	0e 94 17 24 	call	0x482e	; 0x482e <__fixsfsi>
    2eac:	7f 93       	push	r23
    2eae:	6f 93       	push	r22
    2eb0:	c5 01       	movw	r24, r10
    2eb2:	b4 01       	movw	r22, r8
    2eb4:	0e 94 17 24 	call	0x482e	; 0x482e <__fixsfsi>
    2eb8:	7f 93       	push	r23
    2eba:	6f 93       	push	r22
    2ebc:	c7 01       	movw	r24, r14
    2ebe:	b6 01       	movw	r22, r12
    2ec0:	0e 94 17 24 	call	0x482e	; 0x482e <__fixsfsi>
    2ec4:	7f 93       	push	r23
    2ec6:	6f 93       	push	r22
    2ec8:	89 ad       	ldd	r24, Y+57	; 0x39
    2eca:	8f 93       	push	r24
    2ecc:	98 ad       	ldd	r25, Y+56	; 0x38
    2ece:	9f 93       	push	r25
    2ed0:	6a 81       	ldd	r22, Y+2	; 0x02
    2ed2:	7b 81       	ldd	r23, Y+3	; 0x03
    2ed4:	8c 81       	ldd	r24, Y+4	; 0x04
    2ed6:	9d 81       	ldd	r25, Y+5	; 0x05
    2ed8:	0e 94 17 24 	call	0x482e	; 0x482e <__fixsfsi>
    2edc:	9b 01       	movw	r18, r22
    2ede:	22 0f       	add	r18, r18
    2ee0:	33 1f       	adc	r19, r19
    2ee2:	66 0f       	add	r22, r22
    2ee4:	77 1f       	adc	r23, r23
    2ee6:	66 0f       	add	r22, r22
    2ee8:	77 1f       	adc	r23, r23
    2eea:	66 0f       	add	r22, r22
    2eec:	77 1f       	adc	r23, r23
    2eee:	c9 01       	movw	r24, r18
    2ef0:	86 0f       	add	r24, r22
    2ef2:	97 1f       	adc	r25, r23
    2ef4:	6a e0       	ldi	r22, 0x0A	; 10
    2ef6:	70 e0       	ldi	r23, 0x00	; 0
    2ef8:	0e 94 e9 26 	call	0x4dd2	; 0x4dd2 <__divmodhi4>
    2efc:	9f 93       	push	r25
    2efe:	8f 93       	push	r24
    2f00:	6e 81       	ldd	r22, Y+6	; 0x06
    2f02:	7f 81       	ldd	r23, Y+7	; 0x07
    2f04:	88 85       	ldd	r24, Y+8	; 0x08
    2f06:	99 85       	ldd	r25, Y+9	; 0x09
    2f08:	0e 94 17 24 	call	0x482e	; 0x482e <__fixsfsi>
    2f0c:	7f 93       	push	r23
    2f0e:	6f 93       	push	r22
    2f10:	20 e0       	ldi	r18, 0x00	; 0
    2f12:	34 e2       	ldi	r19, 0x24	; 36
    2f14:	44 e7       	ldi	r20, 0x74	; 116
    2f16:	59 e4       	ldi	r21, 0x49	; 73
    2f18:	6a 85       	ldd	r22, Y+10	; 0x0a
    2f1a:	7b 85       	ldd	r23, Y+11	; 0x0b
    2f1c:	8c 85       	ldd	r24, Y+12	; 0x0c
    2f1e:	9d 85       	ldd	r25, Y+13	; 0x0d
    2f20:	0e 94 fe 24 	call	0x49fc	; 0x49fc <__mulsf3>
    2f24:	0e 94 17 24 	call	0x482e	; 0x482e <__fixsfsi>
    2f28:	20 e4       	ldi	r18, 0x40	; 64
    2f2a:	32 e4       	ldi	r19, 0x42	; 66
    2f2c:	4f e0       	ldi	r20, 0x0F	; 15
    2f2e:	50 e0       	ldi	r21, 0x00	; 0
    2f30:	0e 94 1e 27 	call	0x4e3c	; 0x4e3c <__divmodsi4>
    2f34:	9b 01       	movw	r18, r22
    2f36:	77 23       	and	r23, r23
    2f38:	24 f4       	brge	.+8      	; 0x2f42 <packet+0x292>
    2f3a:	22 27       	eor	r18, r18
    2f3c:	33 27       	eor	r19, r19
    2f3e:	26 1b       	sub	r18, r22
    2f40:	37 0b       	sbc	r19, r23
    2f42:	c9 01       	movw	r24, r18
    2f44:	33 0f       	add	r19, r19
    2f46:	aa 0b       	sbc	r26, r26
    2f48:	bb 0b       	sbc	r27, r27
    2f4a:	bf 93       	push	r27
    2f4c:	af 93       	push	r26
    2f4e:	9f 93       	push	r25
    2f50:	8f 93       	push	r24
    2f52:	6e 85       	ldd	r22, Y+14	; 0x0e
    2f54:	7f 85       	ldd	r23, Y+15	; 0x0f
    2f56:	88 89       	ldd	r24, Y+16	; 0x10
    2f58:	99 89       	ldd	r25, Y+17	; 0x11
    2f5a:	0e 94 17 24 	call	0x482e	; 0x482e <__fixsfsi>
    2f5e:	7f 93       	push	r23
    2f60:	6f 93       	push	r22
    2f62:	20 e0       	ldi	r18, 0x00	; 0
    2f64:	34 e2       	ldi	r19, 0x24	; 36
    2f66:	44 e7       	ldi	r20, 0x74	; 116
    2f68:	59 e4       	ldi	r21, 0x49	; 73
    2f6a:	6a 89       	ldd	r22, Y+18	; 0x12
    2f6c:	7b 89       	ldd	r23, Y+19	; 0x13
    2f6e:	8c 89       	ldd	r24, Y+20	; 0x14
    2f70:	9d 89       	ldd	r25, Y+21	; 0x15
    2f72:	0e 94 fe 24 	call	0x49fc	; 0x49fc <__mulsf3>
    2f76:	0e 94 17 24 	call	0x482e	; 0x482e <__fixsfsi>
    2f7a:	20 e4       	ldi	r18, 0x40	; 64
    2f7c:	32 e4       	ldi	r19, 0x42	; 66
    2f7e:	4f e0       	ldi	r20, 0x0F	; 15
    2f80:	50 e0       	ldi	r21, 0x00	; 0
    2f82:	0e 94 1e 27 	call	0x4e3c	; 0x4e3c <__divmodsi4>
    2f86:	9f 93       	push	r25
    2f88:	8f 93       	push	r24
    2f8a:	7f 93       	push	r23
    2f8c:	6f 93       	push	r22
    2f8e:	6e 89       	ldd	r22, Y+22	; 0x16
    2f90:	7f 89       	ldd	r23, Y+23	; 0x17
    2f92:	88 8d       	ldd	r24, Y+24	; 0x18
    2f94:	99 8d       	ldd	r25, Y+25	; 0x19
    2f96:	0e 94 17 24 	call	0x482e	; 0x482e <__fixsfsi>
    2f9a:	7f 93       	push	r23
    2f9c:	6f 93       	push	r22
    2f9e:	6a 8d       	ldd	r22, Y+26	; 0x1a
    2fa0:	7b 8d       	ldd	r23, Y+27	; 0x1b
    2fa2:	8c 8d       	ldd	r24, Y+28	; 0x1c
    2fa4:	9d 8d       	ldd	r25, Y+29	; 0x1d
    2fa6:	0e 94 17 24 	call	0x482e	; 0x482e <__fixsfsi>
    2faa:	0f 2e       	mov	r0, r31
    2fac:	f4 e6       	ldi	r31, 0x64	; 100
    2fae:	cf 2e       	mov	r12, r31
    2fb0:	d1 2c       	mov	r13, r1
    2fb2:	e1 2c       	mov	r14, r1
    2fb4:	f1 2c       	mov	r15, r1
    2fb6:	f0 2d       	mov	r31, r0
    2fb8:	a7 01       	movw	r20, r14
    2fba:	96 01       	movw	r18, r12
    2fbc:	0e 94 1e 27 	call	0x4e3c	; 0x4e3c <__divmodsi4>
    2fc0:	7f 93       	push	r23
    2fc2:	6f 93       	push	r22
    2fc4:	6e 8d       	ldd	r22, Y+30	; 0x1e
    2fc6:	7f 8d       	ldd	r23, Y+31	; 0x1f
    2fc8:	88 a1       	ldd	r24, Y+32	; 0x20
    2fca:	99 a1       	ldd	r25, Y+33	; 0x21
    2fcc:	0e 94 17 24 	call	0x482e	; 0x482e <__fixsfsi>
    2fd0:	0f 2e       	mov	r0, r31
    2fd2:	f0 e1       	ldi	r31, 0x10	; 16
    2fd4:	8f 2e       	mov	r8, r31
    2fd6:	f7 e2       	ldi	r31, 0x27	; 39
    2fd8:	9f 2e       	mov	r9, r31
    2fda:	a1 2c       	mov	r10, r1
    2fdc:	b1 2c       	mov	r11, r1
    2fde:	f0 2d       	mov	r31, r0
    2fe0:	a5 01       	movw	r20, r10
    2fe2:	94 01       	movw	r18, r8
    2fe4:	0e 94 1e 27 	call	0x4e3c	; 0x4e3c <__divmodsi4>
    2fe8:	a7 01       	movw	r20, r14
    2fea:	96 01       	movw	r18, r12
    2fec:	0e 94 1e 27 	call	0x4e3c	; 0x4e3c <__divmodsi4>
    2ff0:	3f 93       	push	r19
    2ff2:	2f 93       	push	r18
    2ff4:	6a a1       	ldd	r22, Y+34	; 0x22
    2ff6:	7b a1       	ldd	r23, Y+35	; 0x23
    2ff8:	8c a1       	ldd	r24, Y+36	; 0x24
    2ffa:	9d a1       	ldd	r25, Y+37	; 0x25
    2ffc:	0e 94 17 24 	call	0x482e	; 0x482e <__fixsfsi>
    3000:	a5 01       	movw	r20, r10
    3002:	94 01       	movw	r18, r8
    3004:	0e 94 1e 27 	call	0x4e3c	; 0x4e3c <__divmodsi4>
    3008:	3f 93       	push	r19
    300a:	2f 93       	push	r18
    300c:	6e a1       	ldd	r22, Y+38	; 0x26
    300e:	7f a1       	ldd	r23, Y+39	; 0x27
    3010:	88 a5       	ldd	r24, Y+40	; 0x28
    3012:	99 a5       	ldd	r25, Y+41	; 0x29
    3014:	0e 94 17 24 	call	0x482e	; 0x482e <__fixsfsi>
    3018:	7f 93       	push	r23
    301a:	6f 93       	push	r22
    301c:	23 e3       	ldi	r18, 0x33	; 51
    301e:	33 e9       	ldi	r19, 0x93	; 147
    3020:	48 e8       	ldi	r20, 0x88	; 136
    3022:	53 e4       	ldi	r21, 0x43	; 67
    3024:	6a a5       	ldd	r22, Y+42	; 0x2a
    3026:	7b a5       	ldd	r23, Y+43	; 0x2b
    3028:	8c a5       	ldd	r24, Y+44	; 0x2c
    302a:	9d a5       	ldd	r25, Y+45	; 0x2d
    302c:	0e 94 46 23 	call	0x468c	; 0x468c <__subsf3>
    3030:	0e 94 17 24 	call	0x482e	; 0x482e <__fixsfsi>
    3034:	7f 93       	push	r23
    3036:	6f 93       	push	r22
    3038:	6e a5       	ldd	r22, Y+46	; 0x2e
    303a:	7f a5       	ldd	r23, Y+47	; 0x2f
    303c:	88 a9       	ldd	r24, Y+48	; 0x30
    303e:	99 a9       	ldd	r25, Y+49	; 0x31
    3040:	0e 94 17 24 	call	0x482e	; 0x482e <__fixsfsi>
    3044:	9f 93       	push	r25
    3046:	8f 93       	push	r24
    3048:	7f 93       	push	r23
    304a:	6f 93       	push	r22
    304c:	6a a9       	ldd	r22, Y+50	; 0x32
    304e:	7b a9       	ldd	r23, Y+51	; 0x33
    3050:	8c a9       	ldd	r24, Y+52	; 0x34
    3052:	9d a9       	ldd	r25, Y+53	; 0x35
    3054:	0e 94 17 24 	call	0x482e	; 0x482e <__fixsfsi>
    3058:	7f 93       	push	r23
    305a:	6f 93       	push	r22
    305c:	1f 93       	push	r17
    305e:	0f 93       	push	r16
    3060:	91 01       	movw	r18, r2
    3062:	ad ec       	ldi	r26, 0xCD	; 205
    3064:	bc ec       	ldi	r27, 0xCC	; 204
    3066:	0e 94 43 27 	call	0x4e86	; 0x4e86 <__umulhisi3>
    306a:	96 95       	lsr	r25
    306c:	87 95       	ror	r24
    306e:	96 95       	lsr	r25
    3070:	87 95       	ror	r24
    3072:	96 95       	lsr	r25
    3074:	87 95       	ror	r24
    3076:	9c 01       	movw	r18, r24
    3078:	22 0f       	add	r18, r18
    307a:	33 1f       	adc	r19, r19
    307c:	88 0f       	add	r24, r24
    307e:	99 1f       	adc	r25, r25
    3080:	88 0f       	add	r24, r24
    3082:	99 1f       	adc	r25, r25
    3084:	88 0f       	add	r24, r24
    3086:	99 1f       	adc	r25, r25
    3088:	82 0f       	add	r24, r18
    308a:	93 1f       	adc	r25, r19
    308c:	28 1a       	sub	r2, r24
    308e:	39 0a       	sbc	r3, r25
    3090:	3f 92       	push	r3
    3092:	2f 92       	push	r2
    3094:	2e a9       	ldd	r18, Y+54	; 0x36
    3096:	3f a9       	ldd	r19, Y+55	; 0x37
    3098:	0e 94 43 27 	call	0x4e86	; 0x4e86 <__umulhisi3>
    309c:	96 95       	lsr	r25
    309e:	87 95       	ror	r24
    30a0:	96 95       	lsr	r25
    30a2:	87 95       	ror	r24
    30a4:	96 95       	lsr	r25
    30a6:	87 95       	ror	r24
    30a8:	9f 93       	push	r25
    30aa:	8f 93       	push	r24
    30ac:	80 91 16 20 	lds	r24, 0x2016	; 0x802016 <format+0x1>
    30b0:	8f 93       	push	r24
    30b2:	80 91 15 20 	lds	r24, 0x2015	; 0x802015 <format>
    30b6:	8f 93       	push	r24
    30b8:	20 ea       	ldi	r18, 0xA0	; 160
    30ba:	31 e2       	ldi	r19, 0x21	; 33
    30bc:	3f 93       	push	r19
    30be:	2f 93       	push	r18
    30c0:	0e 94 f0 27 	call	0x4fe0	; 0x4fe0 <sprintf>
	(int16_t) (((int32_t)gps_t)/10000),		(int16_t) ((((int32_t)gps_t)%10000)/100),	(int16_t) (((int32_t)gps_t)%100),
	(int16_t) gps_lat,						((int32_t) (gps_lat*1000000))%1000000,		(int16_t) gps_long,						(int32_t)(abs(((int32_t)(gps_long*1000000))%1000000)),
	(int16_t) gps_alt,						((int16_t) (gps_alt)*10)%10,				gps_sats,
	(int16_t) pitch,						(int16_t) roll,								(int16_t) rpm,
	state,									(int16_t) angle); // Data Logging Test
	printf(str);
    30c4:	cd bf       	out	0x3d, r28	; 61
    30c6:	de bf       	out	0x3e, r29	; 62
    30c8:	20 ea       	ldi	r18, 0xA0	; 160
    30ca:	31 e2       	ldi	r19, 0x21	; 33
    30cc:	3f 93       	push	r19
    30ce:	2f 93       	push	r18
    30d0:	0e 94 dd 27 	call	0x4fba	; 0x4fba <printf>
}
    30d4:	0f 90       	pop	r0
    30d6:	0f 90       	pop	r0
    30d8:	e9 96       	adiw	r28, 0x39	; 57
    30da:	cd bf       	out	0x3d, r28	; 61
    30dc:	de bf       	out	0x3e, r29	; 62
    30de:	df 91       	pop	r29
    30e0:	cf 91       	pop	r28
    30e2:	1f 91       	pop	r17
    30e4:	0f 91       	pop	r16
    30e6:	ff 90       	pop	r15
    30e8:	ef 90       	pop	r14
    30ea:	df 90       	pop	r13
    30ec:	cf 90       	pop	r12
    30ee:	bf 90       	pop	r11
    30f0:	af 90       	pop	r10
    30f2:	9f 90       	pop	r9
    30f4:	8f 90       	pop	r8
    30f6:	7f 90       	pop	r7
    30f8:	6f 90       	pop	r6
    30fa:	5f 90       	pop	r5
    30fc:	4f 90       	pop	r4
    30fe:	3f 90       	pop	r3
    3100:	2f 90       	pop	r2
    3102:	08 95       	ret

00003104 <eeprom_write_const>:

void eeprom_write_const(void){
    3104:	4f 92       	push	r4
    3106:	5f 92       	push	r5
    3108:	6f 92       	push	r6
    310a:	7f 92       	push	r7
    310c:	8f 92       	push	r8
    310e:	9f 92       	push	r9
    3110:	af 92       	push	r10
    3112:	bf 92       	push	r11
    3114:	cf 92       	push	r12
    3116:	df 92       	push	r13
    3118:	ef 92       	push	r14
    311a:	ff 92       	push	r15
    311c:	0f 93       	push	r16
    311e:	1f 93       	push	r17
    3120:	cf 93       	push	r28
    3122:	df 93       	push	r29
    3124:	cd b7       	in	r28, 0x3d	; 61
    3126:	de b7       	in	r29, 0x3e	; 62
    3128:	a0 97       	sbiw	r28, 0x20	; 32
    312a:	cd bf       	out	0x3d, r28	; 61
    312c:	de bf       	out	0x3e, r29	; 62
	uint64_t p = 0;
	uint64_t t = 0;

	memcpy(&p, &ground_p, 8);
    312e:	ab e2       	ldi	r26, 0x2B	; 43
    3130:	b0 e2       	ldi	r27, 0x20	; 32
    3132:	fc 91       	ld	r31, X
    3134:	11 96       	adiw	r26, 0x01	; 1
    3136:	5c 90       	ld	r5, X
    3138:	11 97       	sbiw	r26, 0x01	; 1
    313a:	12 96       	adiw	r26, 0x02	; 2
    313c:	6c 90       	ld	r6, X
    313e:	12 97       	sbiw	r26, 0x02	; 2
    3140:	13 96       	adiw	r26, 0x03	; 3
    3142:	7c 90       	ld	r7, X
    3144:	13 97       	sbiw	r26, 0x03	; 3
    3146:	14 96       	adiw	r26, 0x04	; 4
    3148:	8c 90       	ld	r8, X
    314a:	14 97       	sbiw	r26, 0x04	; 4
    314c:	15 96       	adiw	r26, 0x05	; 5
    314e:	9c 90       	ld	r9, X
    3150:	15 97       	sbiw	r26, 0x05	; 5
    3152:	16 96       	adiw	r26, 0x06	; 6
    3154:	ac 90       	ld	r10, X
    3156:	16 97       	sbiw	r26, 0x06	; 6
    3158:	17 96       	adiw	r26, 0x07	; 7
    315a:	4c 90       	ld	r4, X
	memcpy(&t, &ground_t, 8);
    315c:	a7 e2       	ldi	r26, 0x27	; 39
    315e:	b0 e2       	ldi	r27, 0x20	; 32
    3160:	ec 91       	ld	r30, X
    3162:	11 96       	adiw	r26, 0x01	; 1
    3164:	bc 90       	ld	r11, X
    3166:	11 97       	sbiw	r26, 0x01	; 1
    3168:	12 96       	adiw	r26, 0x02	; 2
    316a:	cc 90       	ld	r12, X
    316c:	12 97       	sbiw	r26, 0x02	; 2
    316e:	13 96       	adiw	r26, 0x03	; 3
    3170:	dc 90       	ld	r13, X
    3172:	13 97       	sbiw	r26, 0x03	; 3
    3174:	14 96       	adiw	r26, 0x04	; 4
    3176:	ec 90       	ld	r14, X
    3178:	14 97       	sbiw	r26, 0x04	; 4
    317a:	15 96       	adiw	r26, 0x05	; 5
    317c:	fc 90       	ld	r15, X
    317e:	15 97       	sbiw	r26, 0x05	; 5
    3180:	16 96       	adiw	r26, 0x06	; 6
    3182:	1c 91       	ld	r17, X
    3184:	16 97       	sbiw	r26, 0x06	; 6
    3186:	17 96       	adiw	r26, 0x07	; 7
    3188:	ac 91       	ld	r26, X

	uint8_t data[] = {p & 0xFF, (p >> 8) & 0xFF, (p >> 16) & 0xFF, (p >> 24) & 0xFF, (p >> 32) & 0xFF, (p >> 40) & 0xFF, (p >> 48) & 0xFF, p >> 56,
    318a:	f9 83       	std	Y+1, r31	; 0x01
    318c:	2f 2f       	mov	r18, r31
    318e:	35 2d       	mov	r19, r5
    3190:	46 2d       	mov	r20, r6
    3192:	57 2d       	mov	r21, r7
    3194:	68 2d       	mov	r22, r8
    3196:	79 2d       	mov	r23, r9
    3198:	8a 2d       	mov	r24, r10
    319a:	94 2d       	mov	r25, r4
    319c:	08 e0       	ldi	r16, 0x08	; 8
    319e:	0e 94 77 27 	call	0x4eee	; 0x4eee <__lshrdi3>
    31a2:	2a 83       	std	Y+2, r18	; 0x02
    31a4:	2f 2f       	mov	r18, r31
    31a6:	35 2d       	mov	r19, r5
    31a8:	46 2d       	mov	r20, r6
    31aa:	57 2d       	mov	r21, r7
    31ac:	68 2d       	mov	r22, r8
    31ae:	79 2d       	mov	r23, r9
    31b0:	8a 2d       	mov	r24, r10
    31b2:	94 2d       	mov	r25, r4
    31b4:	00 e1       	ldi	r16, 0x10	; 16
    31b6:	0e 94 77 27 	call	0x4eee	; 0x4eee <__lshrdi3>
    31ba:	2b 83       	std	Y+3, r18	; 0x03
    31bc:	2f 2f       	mov	r18, r31
    31be:	35 2d       	mov	r19, r5
    31c0:	46 2d       	mov	r20, r6
    31c2:	57 2d       	mov	r21, r7
    31c4:	68 2d       	mov	r22, r8
    31c6:	79 2d       	mov	r23, r9
    31c8:	8a 2d       	mov	r24, r10
    31ca:	94 2d       	mov	r25, r4
    31cc:	08 e1       	ldi	r16, 0x18	; 24
    31ce:	0e 94 77 27 	call	0x4eee	; 0x4eee <__lshrdi3>
    31d2:	2c 83       	std	Y+4, r18	; 0x04
    31d4:	2f 2f       	mov	r18, r31
    31d6:	35 2d       	mov	r19, r5
    31d8:	46 2d       	mov	r20, r6
    31da:	57 2d       	mov	r21, r7
    31dc:	68 2d       	mov	r22, r8
    31de:	79 2d       	mov	r23, r9
    31e0:	8a 2d       	mov	r24, r10
    31e2:	94 2d       	mov	r25, r4
    31e4:	00 e2       	ldi	r16, 0x20	; 32
    31e6:	0e 94 77 27 	call	0x4eee	; 0x4eee <__lshrdi3>
    31ea:	2d 83       	std	Y+5, r18	; 0x05
    31ec:	2f 2f       	mov	r18, r31
    31ee:	35 2d       	mov	r19, r5
    31f0:	46 2d       	mov	r20, r6
    31f2:	57 2d       	mov	r21, r7
    31f4:	68 2d       	mov	r22, r8
    31f6:	79 2d       	mov	r23, r9
    31f8:	8a 2d       	mov	r24, r10
    31fa:	94 2d       	mov	r25, r4
    31fc:	08 e2       	ldi	r16, 0x28	; 40
    31fe:	0e 94 77 27 	call	0x4eee	; 0x4eee <__lshrdi3>
    3202:	2e 83       	std	Y+6, r18	; 0x06
    3204:	2f 2f       	mov	r18, r31
    3206:	35 2d       	mov	r19, r5
    3208:	46 2d       	mov	r20, r6
    320a:	57 2d       	mov	r21, r7
    320c:	68 2d       	mov	r22, r8
    320e:	79 2d       	mov	r23, r9
    3210:	8a 2d       	mov	r24, r10
    3212:	94 2d       	mov	r25, r4
    3214:	00 e3       	ldi	r16, 0x30	; 48
    3216:	0e 94 77 27 	call	0x4eee	; 0x4eee <__lshrdi3>
    321a:	2f 83       	std	Y+7, r18	; 0x07
    321c:	2f 2f       	mov	r18, r31
    321e:	35 2d       	mov	r19, r5
    3220:	46 2d       	mov	r20, r6
    3222:	57 2d       	mov	r21, r7
    3224:	68 2d       	mov	r22, r8
    3226:	79 2d       	mov	r23, r9
    3228:	8a 2d       	mov	r24, r10
    322a:	94 2d       	mov	r25, r4
    322c:	08 e3       	ldi	r16, 0x38	; 56
    322e:	0e 94 77 27 	call	0x4eee	; 0x4eee <__lshrdi3>
    3232:	28 87       	std	Y+8, r18	; 0x08
    3234:	e9 87       	std	Y+9, r30	; 0x09
    3236:	2e 2f       	mov	r18, r30
    3238:	3b 2d       	mov	r19, r11
    323a:	4c 2d       	mov	r20, r12
    323c:	5d 2d       	mov	r21, r13
    323e:	6e 2d       	mov	r22, r14
    3240:	7f 2d       	mov	r23, r15
    3242:	81 2f       	mov	r24, r17
    3244:	9a 2f       	mov	r25, r26
    3246:	08 e0       	ldi	r16, 0x08	; 8
    3248:	0e 94 77 27 	call	0x4eee	; 0x4eee <__lshrdi3>
    324c:	2a 87       	std	Y+10, r18	; 0x0a
    324e:	2e 2f       	mov	r18, r30
    3250:	3b 2d       	mov	r19, r11
    3252:	4c 2d       	mov	r20, r12
    3254:	5d 2d       	mov	r21, r13
    3256:	6e 2d       	mov	r22, r14
    3258:	7f 2d       	mov	r23, r15
    325a:	81 2f       	mov	r24, r17
    325c:	9a 2f       	mov	r25, r26
    325e:	00 e1       	ldi	r16, 0x10	; 16
    3260:	0e 94 77 27 	call	0x4eee	; 0x4eee <__lshrdi3>
    3264:	2b 87       	std	Y+11, r18	; 0x0b
    3266:	2e 2f       	mov	r18, r30
    3268:	3b 2d       	mov	r19, r11
    326a:	4c 2d       	mov	r20, r12
    326c:	5d 2d       	mov	r21, r13
    326e:	6e 2d       	mov	r22, r14
    3270:	7f 2d       	mov	r23, r15
    3272:	81 2f       	mov	r24, r17
    3274:	9a 2f       	mov	r25, r26
    3276:	08 e1       	ldi	r16, 0x18	; 24
    3278:	0e 94 77 27 	call	0x4eee	; 0x4eee <__lshrdi3>
    327c:	2c 87       	std	Y+12, r18	; 0x0c
    327e:	2e 2f       	mov	r18, r30
    3280:	3b 2d       	mov	r19, r11
    3282:	4c 2d       	mov	r20, r12
    3284:	5d 2d       	mov	r21, r13
    3286:	6e 2d       	mov	r22, r14
    3288:	7f 2d       	mov	r23, r15
    328a:	81 2f       	mov	r24, r17
    328c:	9a 2f       	mov	r25, r26
    328e:	00 e2       	ldi	r16, 0x20	; 32
    3290:	0e 94 77 27 	call	0x4eee	; 0x4eee <__lshrdi3>
    3294:	2d 87       	std	Y+13, r18	; 0x0d
    3296:	2e 2f       	mov	r18, r30
    3298:	3b 2d       	mov	r19, r11
    329a:	4c 2d       	mov	r20, r12
    329c:	5d 2d       	mov	r21, r13
    329e:	6e 2d       	mov	r22, r14
    32a0:	7f 2d       	mov	r23, r15
    32a2:	81 2f       	mov	r24, r17
    32a4:	9a 2f       	mov	r25, r26
    32a6:	08 e2       	ldi	r16, 0x28	; 40
    32a8:	0e 94 77 27 	call	0x4eee	; 0x4eee <__lshrdi3>
    32ac:	2e 87       	std	Y+14, r18	; 0x0e
    32ae:	2e 2f       	mov	r18, r30
    32b0:	3b 2d       	mov	r19, r11
    32b2:	4c 2d       	mov	r20, r12
    32b4:	5d 2d       	mov	r21, r13
    32b6:	6e 2d       	mov	r22, r14
    32b8:	7f 2d       	mov	r23, r15
    32ba:	81 2f       	mov	r24, r17
    32bc:	9a 2f       	mov	r25, r26
    32be:	00 e3       	ldi	r16, 0x30	; 48
    32c0:	0e 94 77 27 	call	0x4eee	; 0x4eee <__lshrdi3>
    32c4:	2f 87       	std	Y+15, r18	; 0x0f
    32c6:	2e 2f       	mov	r18, r30
    32c8:	3b 2d       	mov	r19, r11
    32ca:	4c 2d       	mov	r20, r12
    32cc:	5d 2d       	mov	r21, r13
    32ce:	6e 2d       	mov	r22, r14
    32d0:	7f 2d       	mov	r23, r15
    32d2:	81 2f       	mov	r24, r17
    32d4:	9a 2f       	mov	r25, r26
    32d6:	08 e3       	ldi	r16, 0x38	; 56
    32d8:	0e 94 77 27 	call	0x4eee	; 0x4eee <__lshrdi3>
    32dc:	28 8b       	std	Y+16, r18	; 0x10
					  t & 0xFF, (t >> 8) & 0xFF, (t >> 16) & 0xFF, (t >> 24) & 0xFF, (t >> 32) & 0xFF, (t >> 40) & 0xFF, (t >> 48) & 0xFF, t >> 56,};
	uint8_t addresses[] = {	GROUND_PRESS_ADDR0, GROUND_PRESS_ADDR1, GROUND_PRESS_ADDR2, GROUND_PRESS_ADDR3, GROUND_PRESS_ADDR4, GROUND_PRESS_ADDR5, GROUND_PRESS_ADDR6, GROUND_PRESS_ADDR7,
    32de:	80 e1       	ldi	r24, 0x10	; 16
    32e0:	ef e2       	ldi	r30, 0x2F	; 47
    32e2:	f0 e2       	ldi	r31, 0x20	; 32
    32e4:	de 01       	movw	r26, r28
    32e6:	51 96       	adiw	r26, 0x11	; 17
    32e8:	01 90       	ld	r0, Z+
    32ea:	0d 92       	st	X+, r0
    32ec:	8a 95       	dec	r24
    32ee:	e1 f7       	brne	.-8      	; 0x32e8 <eeprom_write_const+0x1e4>
							GROUND_TEMP_ADDR0,  GROUND_TEMP_ADDR1,  GROUND_TEMP_ADDR2,  GROUND_TEMP_ADDR3,  GROUND_TEMP_ADDR4,  GROUND_TEMP_ADDR5,  GROUND_TEMP_ADDR6,  GROUND_TEMP_ADDR7};

	NVM.CMD = LOAD_BUFFER_CMD;
    32f0:	83 e3       	ldi	r24, 0x33	; 51
    32f2:	80 93 ca 01 	sts	0x01CA, r24	; 0x8001ca <__TEXT_REGION_LENGTH__+0x7001ca>
    32f6:	fe 01       	movw	r30, r28
    32f8:	71 96       	adiw	r30, 0x11	; 17
    32fa:	ce 01       	movw	r24, r28
    32fc:	01 96       	adiw	r24, 0x01	; 1
    32fe:	ae 01       	movw	r20, r28
    3300:	4f 5d       	subi	r20, 0xDF	; 223
    3302:	5f 4f       	sbci	r21, 0xFF	; 255
	for(uint8_t i = 0; i < 16; i++){
		NVM.ADDR0 = addresses[i];
    3304:	60 ec       	ldi	r22, 0xC0	; 192
    3306:	71 e0       	ldi	r23, 0x01	; 1
    3308:	21 91       	ld	r18, Z+
    330a:	db 01       	movw	r26, r22
    330c:	2c 93       	st	X, r18
		NVM.DATA0 = data[i];
    330e:	dc 01       	movw	r26, r24
    3310:	2d 91       	ld	r18, X+
    3312:	cd 01       	movw	r24, r26
    3314:	db 01       	movw	r26, r22
    3316:	14 96       	adiw	r26, 0x04	; 4
    3318:	2c 93       	st	X, r18
					  t & 0xFF, (t >> 8) & 0xFF, (t >> 16) & 0xFF, (t >> 24) & 0xFF, (t >> 32) & 0xFF, (t >> 40) & 0xFF, (t >> 48) & 0xFF, t >> 56,};
	uint8_t addresses[] = {	GROUND_PRESS_ADDR0, GROUND_PRESS_ADDR1, GROUND_PRESS_ADDR2, GROUND_PRESS_ADDR3, GROUND_PRESS_ADDR4, GROUND_PRESS_ADDR5, GROUND_PRESS_ADDR6, GROUND_PRESS_ADDR7,
							GROUND_TEMP_ADDR0,  GROUND_TEMP_ADDR1,  GROUND_TEMP_ADDR2,  GROUND_TEMP_ADDR3,  GROUND_TEMP_ADDR4,  GROUND_TEMP_ADDR5,  GROUND_TEMP_ADDR6,  GROUND_TEMP_ADDR7};

	NVM.CMD = LOAD_BUFFER_CMD;
	for(uint8_t i = 0; i < 16; i++){
    331a:	e4 17       	cp	r30, r20
    331c:	f5 07       	cpc	r31, r21
    331e:	a1 f7       	brne	.-24     	; 0x3308 <eeprom_write_const+0x204>
		NVM.ADDR0 = addresses[i];
		NVM.DATA0 = data[i];
	}

	// Erases and writes the page buffer
	NVM.CMD = ATOMIC_WRITE_CMD;
    3320:	e0 ec       	ldi	r30, 0xC0	; 192
    3322:	f1 e0       	ldi	r31, 0x01	; 1
    3324:	85 e3       	ldi	r24, 0x35	; 53
    3326:	82 87       	std	Z+10, r24	; 0x0a
	NVM.ADDR0 = EEPROM_PAGE & 0xFF;
    3328:	10 82       	st	Z, r1
	NVM.ADDR1 = EEPROM_PAGE >> 8;
    332a:	80 e1       	ldi	r24, 0x10	; 16
    332c:	81 83       	std	Z+1, r24	; 0x01
	CCP = CCP_IOREG_MODE;
    332e:	88 ed       	ldi	r24, 0xD8	; 216
    3330:	84 bf       	out	0x34, r24	; 52
	NVM.CTRLA = CTRLA_CMDEX_BYTE;
    3332:	81 e0       	ldi	r24, 0x01	; 1
    3334:	83 87       	std	Z+11, r24	; 0x0b
	while(NVM.STATUS>>7);
    3336:	87 85       	ldd	r24, Z+15	; 0x0f
    3338:	88 23       	and	r24, r24
    333a:	ec f3       	brlt	.-6      	; 0x3336 <eeprom_write_const+0x232>
}
    333c:	a0 96       	adiw	r28, 0x20	; 32
    333e:	cd bf       	out	0x3d, r28	; 61
    3340:	de bf       	out	0x3e, r29	; 62
    3342:	df 91       	pop	r29
    3344:	cf 91       	pop	r28
    3346:	1f 91       	pop	r17
    3348:	0f 91       	pop	r16
    334a:	ff 90       	pop	r15
    334c:	ef 90       	pop	r14
    334e:	df 90       	pop	r13
    3350:	cf 90       	pop	r12
    3352:	bf 90       	pop	r11
    3354:	af 90       	pop	r10
    3356:	9f 90       	pop	r9
    3358:	8f 90       	pop	r8
    335a:	7f 90       	pop	r7
    335c:	6f 90       	pop	r6
    335e:	5f 90       	pop	r5
    3360:	4f 90       	pop	r4
    3362:	08 95       	ret

00003364 <eeprom_write>:

void eeprom_write(void){
    3364:	0f 93       	push	r16
    3366:	1f 93       	push	r17
    3368:	cf 93       	push	r28
    336a:	df 93       	push	r29
    336c:	cd b7       	in	r28, 0x3d	; 61
    336e:	de b7       	in	r29, 0x3e	; 62
    3370:	a1 97       	sbiw	r28, 0x21	; 33
    3372:	cd bf       	out	0x3d, r28	; 61
    3374:	de bf       	out	0x3e, r29	; 62
	uint16_t a = (uint16_t) ((int16_t) alt); // creates an unsigned int of the altitude
    3376:	60 91 24 21 	lds	r22, 0x2124	; 0x802124 <alt>
    337a:	70 91 25 21 	lds	r23, 0x2125	; 0x802125 <alt+0x1>
    337e:	80 91 26 21 	lds	r24, 0x2126	; 0x802126 <alt+0x2>
    3382:	90 91 27 21 	lds	r25, 0x2127	; 0x802127 <alt+0x3>
    3386:	0e 94 17 24 	call	0x482e	; 0x482e <__fixsfsi>
    338a:	16 2f       	mov	r17, r22
    338c:	07 2f       	mov	r16, r23
	uint16_t v = (uint16_t) ((int16_t) velocity);
    338e:	60 91 1c 21 	lds	r22, 0x211C	; 0x80211c <velocity>
    3392:	70 91 1d 21 	lds	r23, 0x211D	; 0x80211d <velocity+0x1>
    3396:	80 91 1e 21 	lds	r24, 0x211E	; 0x80211e <velocity+0x2>
    339a:	90 91 1f 21 	lds	r25, 0x211F	; 0x80211f <velocity+0x3>
    339e:	0e 94 17 24 	call	0x482e	; 0x482e <__fixsfsi>
    33a2:	26 2f       	mov	r18, r22
    33a4:	37 2f       	mov	r19, r23

	check_write = (check_write + 1) % 100;
    33a6:	80 91 36 21 	lds	r24, 0x2136	; 0x802136 <check_write>
    33aa:	90 e0       	ldi	r25, 0x00	; 0
    33ac:	01 96       	adiw	r24, 0x01	; 1
    33ae:	64 e6       	ldi	r22, 0x64	; 100
    33b0:	70 e0       	ldi	r23, 0x00	; 0
    33b2:	0e 94 e9 26 	call	0x4dd2	; 0x4dd2 <__divmodhi4>
    33b6:	80 93 36 21 	sts	0x2136, r24	; 0x802136 <check_write>

	// saves data and addresses in array
	volatile uint8_t data[] = {a >> 8, a & 0xFF, packets >> 8, packets & 0xFF, timer >> 8, timer & 0xFF, v >> 8, v & 0xFF, check_write, check_write, state};
    33ba:	a0 91 30 21 	lds	r26, 0x2130	; 0x802130 <packets>
    33be:	b0 91 31 21 	lds	r27, 0x2131	; 0x802131 <packets+0x1>
    33c2:	e0 91 30 21 	lds	r30, 0x2130	; 0x802130 <packets>
    33c6:	f0 91 31 21 	lds	r31, 0x2131	; 0x802131 <packets+0x1>
    33ca:	60 91 34 21 	lds	r22, 0x2134	; 0x802134 <timer>
    33ce:	70 91 35 21 	lds	r23, 0x2135	; 0x802135 <timer+0x1>
    33d2:	40 91 34 21 	lds	r20, 0x2134	; 0x802134 <timer>
    33d6:	50 91 35 21 	lds	r21, 0x2135	; 0x802135 <timer+0x1>
    33da:	90 91 52 21 	lds	r25, 0x2152	; 0x802152 <state>
    33de:	09 83       	std	Y+1, r16	; 0x01
    33e0:	1a 83       	std	Y+2, r17	; 0x02
    33e2:	bb 83       	std	Y+3, r27	; 0x03
    33e4:	ec 83       	std	Y+4, r30	; 0x04
    33e6:	7d 83       	std	Y+5, r23	; 0x05
    33e8:	4e 83       	std	Y+6, r20	; 0x06
    33ea:	3f 83       	std	Y+7, r19	; 0x07
    33ec:	28 87       	std	Y+8, r18	; 0x08
    33ee:	89 87       	std	Y+9, r24	; 0x09
    33f0:	8a 87       	std	Y+10, r24	; 0x0a
    33f2:	9b 87       	std	Y+11, r25	; 0x0b
    33f4:	8b e0       	ldi	r24, 0x0B	; 11
    33f6:	fe 01       	movw	r30, r28
    33f8:	31 96       	adiw	r30, 0x01	; 1
    33fa:	de 01       	movw	r26, r28
    33fc:	1c 96       	adiw	r26, 0x0c	; 12
    33fe:	01 90       	ld	r0, Z+
    3400:	0d 92       	st	X+, r0
    3402:	8a 95       	dec	r24
    3404:	e1 f7       	brne	.-8      	; 0x33fe <eeprom_write+0x9a>
	volatile uint8_t addresses[] = {ALT_ADDR_BYTE1, ALT_ADDR_BYTE0, PACKET_ADDR_BYTE1, PACKET_ADDR_BYTE0, TIME_ADDR_BYTE1, TIME_ADDR_BYTE0, VEL_ADDR_BYTE1, VEL_ADDR_BYTE0, CHECK_WRITE_BYTE0, CHECK_WRITE_BYTE1, STATE_BYTE};
    3406:	8b e0       	ldi	r24, 0x0B	; 11
    3408:	ef e3       	ldi	r30, 0x3F	; 63
    340a:	f0 e2       	ldi	r31, 0x20	; 32
    340c:	de 01       	movw	r26, r28
    340e:	57 96       	adiw	r26, 0x17	; 23
    3410:	01 90       	ld	r0, Z+
    3412:	0d 92       	st	X+, r0
    3414:	8a 95       	dec	r24
    3416:	e1 f7       	brne	.-8      	; 0x3410 <eeprom_write+0xac>

	// Writes the NVM Registers to write the buffer
	NVM.CMD = LOAD_BUFFER_CMD;
    3418:	83 e3       	ldi	r24, 0x33	; 51
    341a:	80 93 ca 01 	sts	0x01CA, r24	; 0x8001ca <__TEXT_REGION_LENGTH__+0x7001ca>
    341e:	80 e0       	ldi	r24, 0x00	; 0
    3420:	90 e0       	ldi	r25, 0x00	; 0
	for(uint8_t i = 0; i < 10; i++){
		NVM.ADDR0 = addresses[i];
    3422:	e0 ec       	ldi	r30, 0xC0	; 192
    3424:	f1 e0       	ldi	r31, 0x01	; 1
    3426:	a7 e1       	ldi	r26, 0x17	; 23
    3428:	b0 e0       	ldi	r27, 0x00	; 0
    342a:	ac 0f       	add	r26, r28
    342c:	bd 1f       	adc	r27, r29
    342e:	a8 0f       	add	r26, r24
    3430:	b9 1f       	adc	r27, r25
    3432:	2c 91       	ld	r18, X
    3434:	20 83       	st	Z, r18
		NVM.DATA0 = data[i];
    3436:	ac e0       	ldi	r26, 0x0C	; 12
    3438:	b0 e0       	ldi	r27, 0x00	; 0
    343a:	ac 0f       	add	r26, r28
    343c:	bd 1f       	adc	r27, r29
    343e:	a8 0f       	add	r26, r24
    3440:	b9 1f       	adc	r27, r25
    3442:	2c 91       	ld	r18, X
    3444:	24 83       	std	Z+4, r18	; 0x04
    3446:	01 96       	adiw	r24, 0x01	; 1
	volatile uint8_t data[] = {a >> 8, a & 0xFF, packets >> 8, packets & 0xFF, timer >> 8, timer & 0xFF, v >> 8, v & 0xFF, check_write, check_write, state};
	volatile uint8_t addresses[] = {ALT_ADDR_BYTE1, ALT_ADDR_BYTE0, PACKET_ADDR_BYTE1, PACKET_ADDR_BYTE0, TIME_ADDR_BYTE1, TIME_ADDR_BYTE0, VEL_ADDR_BYTE1, VEL_ADDR_BYTE0, CHECK_WRITE_BYTE0, CHECK_WRITE_BYTE1, STATE_BYTE};

	// Writes the NVM Registers to write the buffer
	NVM.CMD = LOAD_BUFFER_CMD;
	for(uint8_t i = 0; i < 10; i++){
    3448:	8a 30       	cpi	r24, 0x0A	; 10
    344a:	91 05       	cpc	r25, r1
    344c:	61 f7       	brne	.-40     	; 0x3426 <eeprom_write+0xc2>
		NVM.ADDR0 = addresses[i];
		NVM.DATA0 = data[i];
	}

	// Erases and writes the page buffer
	NVM.CMD = ATOMIC_WRITE_CMD;
    344e:	e0 ec       	ldi	r30, 0xC0	; 192
    3450:	f1 e0       	ldi	r31, 0x01	; 1
    3452:	85 e3       	ldi	r24, 0x35	; 53
    3454:	82 87       	std	Z+10, r24	; 0x0a
	NVM.ADDR0 = EEPROM_PAGE & 0xFF;
    3456:	10 82       	st	Z, r1
	NVM.ADDR1 = EEPROM_PAGE >> 8;
    3458:	80 e1       	ldi	r24, 0x10	; 16
    345a:	81 83       	std	Z+1, r24	; 0x01
	CCP = CCP_IOREG_MODE;
    345c:	88 ed       	ldi	r24, 0xD8	; 216
    345e:	84 bf       	out	0x34, r24	; 52
	NVM.CTRLA = CTRLA_CMDEX_BYTE;
    3460:	81 e0       	ldi	r24, 0x01	; 1
    3462:	83 87       	std	Z+11, r24	; 0x0b
	while(NVM.STATUS>>7);
    3464:	87 85       	ldd	r24, Z+15	; 0x0f
    3466:	88 23       	and	r24, r24
    3468:	ec f3       	brlt	.-6      	; 0x3464 <eeprom_write+0x100>
}
    346a:	a1 96       	adiw	r28, 0x21	; 33
    346c:	cd bf       	out	0x3d, r28	; 61
    346e:	de bf       	out	0x3e, r29	; 62
    3470:	df 91       	pop	r29
    3472:	cf 91       	pop	r28
    3474:	1f 91       	pop	r17
    3476:	0f 91       	pop	r16
    3478:	08 95       	ret

0000347a <time_update>:
	TCE0.CTRLA = 0x07; // divisor set to 1024 0x07
	TCE0.PER = 31249; // 1 Hz
	TCE0.INTCTRLA = TC_OVFINTLVL_LO_gc; // CCA int flag Lo level
}

void time_update(void){
    347a:	2f 92       	push	r2
    347c:	3f 92       	push	r3
    347e:	4f 92       	push	r4
    3480:	5f 92       	push	r5
    3482:	6f 92       	push	r6
    3484:	7f 92       	push	r7
    3486:	8f 92       	push	r8
    3488:	9f 92       	push	r9
    348a:	af 92       	push	r10
    348c:	bf 92       	push	r11
    348e:	cf 92       	push	r12
    3490:	df 92       	push	r13
    3492:	ef 92       	push	r14
    3494:	ff 92       	push	r15
    3496:	0f 93       	push	r16
    3498:	1f 93       	push	r17
    349a:	cf 93       	push	r28
    349c:	df 93       	push	r29
    349e:	cd b7       	in	r28, 0x3d	; 61
    34a0:	de b7       	in	r29, 0x3e	; 62
    34a2:	ef 97       	sbiw	r28, 0x3f	; 63
    34a4:	cd bf       	out	0x3d, r28	; 61
    34a6:	de bf       	out	0x3e, r29	; 62
	//packets++;
	
	packets++;
    34a8:	80 91 30 21 	lds	r24, 0x2130	; 0x802130 <packets>
    34ac:	90 91 31 21 	lds	r25, 0x2131	; 0x802131 <packets+0x1>
    34b0:	01 96       	adiw	r24, 0x01	; 1
    34b2:	80 93 30 21 	sts	0x2130, r24	; 0x802130 <packets>
    34b6:	90 93 31 21 	sts	0x2131, r25	; 0x802131 <packets+0x1>
	sprintf(str,format,timer,packets,
    34ba:	60 91 fa 20 	lds	r22, 0x20FA	; 0x8020fa <angle>
    34be:	70 91 fb 20 	lds	r23, 0x20FB	; 0x8020fb <angle+0x1>
    34c2:	80 91 fc 20 	lds	r24, 0x20FC	; 0x8020fc <angle+0x2>
    34c6:	90 91 fd 20 	lds	r25, 0x20FD	; 0x8020fd <angle+0x3>
    34ca:	20 91 52 21 	lds	r18, 0x2152	; 0x802152 <state>
    34ce:	29 83       	std	Y+1, r18	; 0x01
    34d0:	40 90 fe 20 	lds	r4, 0x20FE	; 0x8020fe <rpm>
    34d4:	50 90 ff 20 	lds	r5, 0x20FF	; 0x8020ff <rpm+0x1>
    34d8:	60 90 00 21 	lds	r6, 0x2100	; 0x802100 <rpm+0x2>
    34dc:	70 90 01 21 	lds	r7, 0x2101	; 0x802101 <rpm+0x3>
    34e0:	80 90 02 21 	lds	r8, 0x2102	; 0x802102 <roll>
    34e4:	90 90 03 21 	lds	r9, 0x2103	; 0x802103 <roll+0x1>
    34e8:	a0 90 04 21 	lds	r10, 0x2104	; 0x802104 <roll+0x2>
    34ec:	b0 90 05 21 	lds	r11, 0x2105	; 0x802105 <roll+0x3>
    34f0:	c0 90 06 21 	lds	r12, 0x2106	; 0x802106 <pitch>
    34f4:	d0 90 07 21 	lds	r13, 0x2107	; 0x802107 <pitch+0x1>
    34f8:	e0 90 08 21 	lds	r14, 0x2108	; 0x802108 <pitch+0x2>
    34fc:	f0 90 09 21 	lds	r15, 0x2109	; 0x802109 <pitch+0x3>
    3500:	40 91 0a 21 	lds	r20, 0x210A	; 0x80210a <gps_sats>
    3504:	50 91 0b 21 	lds	r21, 0x210B	; 0x80210b <gps_sats+0x1>
    3508:	4e af       	std	Y+62, r20	; 0x3e
    350a:	5f af       	std	Y+63, r21	; 0x3f
	(int16_t) (alt),						(int32_t) press,							(int16_t) (temp-273.15),  ((int16_t) (temp*10-2731.5))%10, 		(int16_t)volt, ((int16_t) (volt *10)) %10, 
	(int16_t) (((int32_t)gps_t)/10000),		(int16_t) ((((int32_t)gps_t)%10000)/100),	(int16_t) (((int32_t)gps_t)%100),
	(int16_t) gps_lat,						((int32_t) (gps_lat*1000000))%1000000,		(int16_t) gps_long,						(int32_t)(abs(((int32_t)(gps_long*1000000))%1000000)),
	(int16_t) gps_alt,						((int16_t) (gps_alt)*10)%10,				gps_sats,
    350c:	20 91 0c 21 	lds	r18, 0x210C	; 0x80210c <gps_alt>
    3510:	30 91 0d 21 	lds	r19, 0x210D	; 0x80210d <gps_alt+0x1>
    3514:	40 91 0e 21 	lds	r20, 0x210E	; 0x80210e <gps_alt+0x2>
    3518:	50 91 0f 21 	lds	r21, 0x210F	; 0x80210f <gps_alt+0x3>
    351c:	2a 83       	std	Y+2, r18	; 0x02
    351e:	3b 83       	std	Y+3, r19	; 0x03
    3520:	4c 83       	std	Y+4, r20	; 0x04
    3522:	5d 83       	std	Y+5, r21	; 0x05

void time_update(void){
	//packets++;
	
	packets++;
	sprintf(str,format,timer,packets,
    3524:	20 91 0c 21 	lds	r18, 0x210C	; 0x80210c <gps_alt>
    3528:	30 91 0d 21 	lds	r19, 0x210D	; 0x80210d <gps_alt+0x1>
    352c:	40 91 0e 21 	lds	r20, 0x210E	; 0x80210e <gps_alt+0x2>
    3530:	50 91 0f 21 	lds	r21, 0x210F	; 0x80210f <gps_alt+0x3>
    3534:	2e 83       	std	Y+6, r18	; 0x06
    3536:	3f 83       	std	Y+7, r19	; 0x07
    3538:	48 87       	std	Y+8, r20	; 0x08
    353a:	59 87       	std	Y+9, r21	; 0x09
	(int16_t) (alt),						(int32_t) press,							(int16_t) (temp-273.15),  ((int16_t) (temp*10-2731.5))%10, 		(int16_t)volt, ((int16_t) (volt *10)) %10, 
	(int16_t) (((int32_t)gps_t)/10000),		(int16_t) ((((int32_t)gps_t)%10000)/100),	(int16_t) (((int32_t)gps_t)%100),
	(int16_t) gps_lat,						((int32_t) (gps_lat*1000000))%1000000,		(int16_t) gps_long,						(int32_t)(abs(((int32_t)(gps_long*1000000))%1000000)),
    353c:	20 91 10 21 	lds	r18, 0x2110	; 0x802110 <gps_long>
    3540:	30 91 11 21 	lds	r19, 0x2111	; 0x802111 <gps_long+0x1>
    3544:	40 91 12 21 	lds	r20, 0x2112	; 0x802112 <gps_long+0x2>
    3548:	50 91 13 21 	lds	r21, 0x2113	; 0x802113 <gps_long+0x3>
    354c:	2a 87       	std	Y+10, r18	; 0x0a
    354e:	3b 87       	std	Y+11, r19	; 0x0b
    3550:	4c 87       	std	Y+12, r20	; 0x0c
    3552:	5d 87       	std	Y+13, r21	; 0x0d

void time_update(void){
	//packets++;
	
	packets++;
	sprintf(str,format,timer,packets,
    3554:	20 91 10 21 	lds	r18, 0x2110	; 0x802110 <gps_long>
    3558:	30 91 11 21 	lds	r19, 0x2111	; 0x802111 <gps_long+0x1>
    355c:	40 91 12 21 	lds	r20, 0x2112	; 0x802112 <gps_long+0x2>
    3560:	50 91 13 21 	lds	r21, 0x2113	; 0x802113 <gps_long+0x3>
    3564:	2e 87       	std	Y+14, r18	; 0x0e
    3566:	3f 87       	std	Y+15, r19	; 0x0f
    3568:	48 8b       	std	Y+16, r20	; 0x10
    356a:	59 8b       	std	Y+17, r21	; 0x11
	(int16_t) (alt),						(int32_t) press,							(int16_t) (temp-273.15),  ((int16_t) (temp*10-2731.5))%10, 		(int16_t)volt, ((int16_t) (volt *10)) %10, 
	(int16_t) (((int32_t)gps_t)/10000),		(int16_t) ((((int32_t)gps_t)%10000)/100),	(int16_t) (((int32_t)gps_t)%100),
	(int16_t) gps_lat,						((int32_t) (gps_lat*1000000))%1000000,		(int16_t) gps_long,						(int32_t)(abs(((int32_t)(gps_long*1000000))%1000000)),
    356c:	20 91 14 21 	lds	r18, 0x2114	; 0x802114 <gps_lat>
    3570:	30 91 15 21 	lds	r19, 0x2115	; 0x802115 <gps_lat+0x1>
    3574:	40 91 16 21 	lds	r20, 0x2116	; 0x802116 <gps_lat+0x2>
    3578:	50 91 17 21 	lds	r21, 0x2117	; 0x802117 <gps_lat+0x3>
    357c:	2a 8b       	std	Y+18, r18	; 0x12
    357e:	3b 8b       	std	Y+19, r19	; 0x13
    3580:	4c 8b       	std	Y+20, r20	; 0x14
    3582:	5d 8b       	std	Y+21, r21	; 0x15

void time_update(void){
	//packets++;
	
	packets++;
	sprintf(str,format,timer,packets,
    3584:	20 91 14 21 	lds	r18, 0x2114	; 0x802114 <gps_lat>
    3588:	30 91 15 21 	lds	r19, 0x2115	; 0x802115 <gps_lat+0x1>
    358c:	40 91 16 21 	lds	r20, 0x2116	; 0x802116 <gps_lat+0x2>
    3590:	50 91 17 21 	lds	r21, 0x2117	; 0x802117 <gps_lat+0x3>
    3594:	2e 8b       	std	Y+22, r18	; 0x16
    3596:	3f 8b       	std	Y+23, r19	; 0x17
    3598:	48 8f       	std	Y+24, r20	; 0x18
    359a:	59 8f       	std	Y+25, r21	; 0x19
	(int16_t) (alt),						(int32_t) press,							(int16_t) (temp-273.15),  ((int16_t) (temp*10-2731.5))%10, 		(int16_t)volt, ((int16_t) (volt *10)) %10, 
	(int16_t) (((int32_t)gps_t)/10000),		(int16_t) ((((int32_t)gps_t)%10000)/100),	(int16_t) (((int32_t)gps_t)%100),
    359c:	20 91 18 21 	lds	r18, 0x2118	; 0x802118 <gps_t>
    35a0:	30 91 19 21 	lds	r19, 0x2119	; 0x802119 <gps_t+0x1>
    35a4:	40 91 1a 21 	lds	r20, 0x211A	; 0x80211a <gps_t+0x2>
    35a8:	50 91 1b 21 	lds	r21, 0x211B	; 0x80211b <gps_t+0x3>
    35ac:	2a 8f       	std	Y+26, r18	; 0x1a
    35ae:	3b 8f       	std	Y+27, r19	; 0x1b
    35b0:	4c 8f       	std	Y+28, r20	; 0x1c
    35b2:	5d 8f       	std	Y+29, r21	; 0x1d
    35b4:	20 91 18 21 	lds	r18, 0x2118	; 0x802118 <gps_t>
    35b8:	30 91 19 21 	lds	r19, 0x2119	; 0x802119 <gps_t+0x1>
    35bc:	40 91 1a 21 	lds	r20, 0x211A	; 0x80211a <gps_t+0x2>
    35c0:	50 91 1b 21 	lds	r21, 0x211B	; 0x80211b <gps_t+0x3>
    35c4:	2e 8f       	std	Y+30, r18	; 0x1e
    35c6:	3f 8f       	std	Y+31, r19	; 0x1f
    35c8:	48 a3       	std	Y+32, r20	; 0x20
    35ca:	59 a3       	std	Y+33, r21	; 0x21
    35cc:	20 91 18 21 	lds	r18, 0x2118	; 0x802118 <gps_t>
    35d0:	30 91 19 21 	lds	r19, 0x2119	; 0x802119 <gps_t+0x1>
    35d4:	40 91 1a 21 	lds	r20, 0x211A	; 0x80211a <gps_t+0x2>
    35d8:	50 91 1b 21 	lds	r21, 0x211B	; 0x80211b <gps_t+0x3>
    35dc:	2a a3       	std	Y+34, r18	; 0x22
    35de:	3b a3       	std	Y+35, r19	; 0x23
    35e0:	4c a3       	std	Y+36, r20	; 0x24
    35e2:	5d a3       	std	Y+37, r21	; 0x25
void time_update(void){
	//packets++;
	
	packets++;
	sprintf(str,format,timer,packets,
	(int16_t) (alt),						(int32_t) press,							(int16_t) (temp-273.15),  ((int16_t) (temp*10-2731.5))%10, 		(int16_t)volt, ((int16_t) (volt *10)) %10, 
    35e4:	20 91 20 21 	lds	r18, 0x2120	; 0x802120 <volt>
    35e8:	30 91 21 21 	lds	r19, 0x2121	; 0x802121 <volt+0x1>
    35ec:	40 91 22 21 	lds	r20, 0x2122	; 0x802122 <volt+0x2>
    35f0:	50 91 23 21 	lds	r21, 0x2123	; 0x802123 <volt+0x3>
    35f4:	2e a3       	std	Y+38, r18	; 0x26
    35f6:	3f a3       	std	Y+39, r19	; 0x27
    35f8:	48 a7       	std	Y+40, r20	; 0x28
    35fa:	59 a7       	std	Y+41, r21	; 0x29

void time_update(void){
	//packets++;
	
	packets++;
	sprintf(str,format,timer,packets,
    35fc:	20 91 20 21 	lds	r18, 0x2120	; 0x802120 <volt>
    3600:	30 91 21 21 	lds	r19, 0x2121	; 0x802121 <volt+0x1>
    3604:	40 91 22 21 	lds	r20, 0x2122	; 0x802122 <volt+0x2>
    3608:	50 91 23 21 	lds	r21, 0x2123	; 0x802123 <volt+0x3>
    360c:	2a a7       	std	Y+42, r18	; 0x2a
    360e:	3b a7       	std	Y+43, r19	; 0x2b
    3610:	4c a7       	std	Y+44, r20	; 0x2c
    3612:	5d a7       	std	Y+45, r21	; 0x2d
	(int16_t) (alt),						(int32_t) press,							(int16_t) (temp-273.15),  ((int16_t) (temp*10-2731.5))%10, 		(int16_t)volt, ((int16_t) (volt *10)) %10, 
    3614:	20 91 28 21 	lds	r18, 0x2128	; 0x802128 <temp>
    3618:	30 91 29 21 	lds	r19, 0x2129	; 0x802129 <temp+0x1>
    361c:	40 91 2a 21 	lds	r20, 0x212A	; 0x80212a <temp+0x2>
    3620:	50 91 2b 21 	lds	r21, 0x212B	; 0x80212b <temp+0x3>
    3624:	2e a7       	std	Y+46, r18	; 0x2e
    3626:	3f a7       	std	Y+47, r19	; 0x2f
    3628:	48 ab       	std	Y+48, r20	; 0x30
    362a:	59 ab       	std	Y+49, r21	; 0x31
    362c:	20 91 28 21 	lds	r18, 0x2128	; 0x802128 <temp>
    3630:	30 91 29 21 	lds	r19, 0x2129	; 0x802129 <temp+0x1>
    3634:	40 91 2a 21 	lds	r20, 0x212A	; 0x80212a <temp+0x2>
    3638:	50 91 2b 21 	lds	r21, 0x212B	; 0x80212b <temp+0x3>
    363c:	2a ab       	std	Y+50, r18	; 0x32
    363e:	3b ab       	std	Y+51, r19	; 0x33
    3640:	4c ab       	std	Y+52, r20	; 0x34
    3642:	5d ab       	std	Y+53, r21	; 0x35

void time_update(void){
	//packets++;
	
	packets++;
	sprintf(str,format,timer,packets,
    3644:	20 91 2c 21 	lds	r18, 0x212C	; 0x80212c <press>
    3648:	30 91 2d 21 	lds	r19, 0x212D	; 0x80212d <press+0x1>
    364c:	40 91 2e 21 	lds	r20, 0x212E	; 0x80212e <press+0x2>
    3650:	50 91 2f 21 	lds	r21, 0x212F	; 0x80212f <press+0x3>
    3654:	2e ab       	std	Y+54, r18	; 0x36
    3656:	3f ab       	std	Y+55, r19	; 0x37
    3658:	48 af       	std	Y+56, r20	; 0x38
    365a:	59 af       	std	Y+57, r21	; 0x39
    365c:	20 91 24 21 	lds	r18, 0x2124	; 0x802124 <alt>
    3660:	30 91 25 21 	lds	r19, 0x2125	; 0x802125 <alt+0x1>
    3664:	40 91 26 21 	lds	r20, 0x2126	; 0x802126 <alt+0x2>
    3668:	50 91 27 21 	lds	r21, 0x2127	; 0x802127 <alt+0x3>
    366c:	2a af       	std	Y+58, r18	; 0x3a
    366e:	3b af       	std	Y+59, r19	; 0x3b
    3670:	4c af       	std	Y+60, r20	; 0x3c
    3672:	5d af       	std	Y+61, r21	; 0x3d
    3674:	20 90 30 21 	lds	r2, 0x2130	; 0x802130 <packets>
    3678:	30 90 31 21 	lds	r3, 0x2131	; 0x802131 <packets+0x1>
    367c:	00 91 34 21 	lds	r16, 0x2134	; 0x802134 <timer>
    3680:	10 91 35 21 	lds	r17, 0x2135	; 0x802135 <timer+0x1>
    3684:	0e 94 17 24 	call	0x482e	; 0x482e <__fixsfsi>
    3688:	7f 93       	push	r23
    368a:	6f 93       	push	r22
    368c:	1f 92       	push	r1
    368e:	39 81       	ldd	r19, Y+1	; 0x01
    3690:	3f 93       	push	r19
    3692:	c3 01       	movw	r24, r6
    3694:	b2 01       	movw	r22, r4
    3696:	0e 94 17 24 	call	0x482e	; 0x482e <__fixsfsi>
    369a:	7f 93       	push	r23
    369c:	6f 93       	push	r22
    369e:	c5 01       	movw	r24, r10
    36a0:	b4 01       	movw	r22, r8
    36a2:	0e 94 17 24 	call	0x482e	; 0x482e <__fixsfsi>
    36a6:	7f 93       	push	r23
    36a8:	6f 93       	push	r22
    36aa:	c7 01       	movw	r24, r14
    36ac:	b6 01       	movw	r22, r12
    36ae:	0e 94 17 24 	call	0x482e	; 0x482e <__fixsfsi>
    36b2:	7f 93       	push	r23
    36b4:	6f 93       	push	r22
    36b6:	4f ad       	ldd	r20, Y+63	; 0x3f
    36b8:	4f 93       	push	r20
    36ba:	5e ad       	ldd	r21, Y+62	; 0x3e
    36bc:	5f 93       	push	r21
    36be:	6a 81       	ldd	r22, Y+2	; 0x02
    36c0:	7b 81       	ldd	r23, Y+3	; 0x03
    36c2:	8c 81       	ldd	r24, Y+4	; 0x04
    36c4:	9d 81       	ldd	r25, Y+5	; 0x05
    36c6:	0e 94 17 24 	call	0x482e	; 0x482e <__fixsfsi>
    36ca:	9b 01       	movw	r18, r22
    36cc:	22 0f       	add	r18, r18
    36ce:	33 1f       	adc	r19, r19
    36d0:	66 0f       	add	r22, r22
    36d2:	77 1f       	adc	r23, r23
    36d4:	66 0f       	add	r22, r22
    36d6:	77 1f       	adc	r23, r23
    36d8:	66 0f       	add	r22, r22
    36da:	77 1f       	adc	r23, r23
    36dc:	c9 01       	movw	r24, r18
    36de:	86 0f       	add	r24, r22
    36e0:	97 1f       	adc	r25, r23
    36e2:	6a e0       	ldi	r22, 0x0A	; 10
    36e4:	70 e0       	ldi	r23, 0x00	; 0
    36e6:	0e 94 e9 26 	call	0x4dd2	; 0x4dd2 <__divmodhi4>
    36ea:	9f 93       	push	r25
    36ec:	8f 93       	push	r24
    36ee:	6e 81       	ldd	r22, Y+6	; 0x06
    36f0:	7f 81       	ldd	r23, Y+7	; 0x07
    36f2:	88 85       	ldd	r24, Y+8	; 0x08
    36f4:	99 85       	ldd	r25, Y+9	; 0x09
    36f6:	0e 94 17 24 	call	0x482e	; 0x482e <__fixsfsi>
    36fa:	7f 93       	push	r23
    36fc:	6f 93       	push	r22
    36fe:	20 e0       	ldi	r18, 0x00	; 0
    3700:	34 e2       	ldi	r19, 0x24	; 36
    3702:	44 e7       	ldi	r20, 0x74	; 116
    3704:	59 e4       	ldi	r21, 0x49	; 73
    3706:	6a 85       	ldd	r22, Y+10	; 0x0a
    3708:	7b 85       	ldd	r23, Y+11	; 0x0b
    370a:	8c 85       	ldd	r24, Y+12	; 0x0c
    370c:	9d 85       	ldd	r25, Y+13	; 0x0d
    370e:	0e 94 fe 24 	call	0x49fc	; 0x49fc <__mulsf3>
    3712:	0e 94 17 24 	call	0x482e	; 0x482e <__fixsfsi>
    3716:	20 e4       	ldi	r18, 0x40	; 64
    3718:	32 e4       	ldi	r19, 0x42	; 66
    371a:	4f e0       	ldi	r20, 0x0F	; 15
    371c:	50 e0       	ldi	r21, 0x00	; 0
    371e:	0e 94 1e 27 	call	0x4e3c	; 0x4e3c <__divmodsi4>
    3722:	9b 01       	movw	r18, r22
    3724:	77 23       	and	r23, r23
    3726:	24 f4       	brge	.+8      	; 0x3730 <time_update+0x2b6>
    3728:	22 27       	eor	r18, r18
    372a:	33 27       	eor	r19, r19
    372c:	26 1b       	sub	r18, r22
    372e:	37 0b       	sbc	r19, r23
    3730:	c9 01       	movw	r24, r18
    3732:	33 0f       	add	r19, r19
    3734:	aa 0b       	sbc	r26, r26
    3736:	bb 0b       	sbc	r27, r27
    3738:	bf 93       	push	r27
    373a:	af 93       	push	r26
    373c:	9f 93       	push	r25
    373e:	8f 93       	push	r24
    3740:	6e 85       	ldd	r22, Y+14	; 0x0e
    3742:	7f 85       	ldd	r23, Y+15	; 0x0f
    3744:	88 89       	ldd	r24, Y+16	; 0x10
    3746:	99 89       	ldd	r25, Y+17	; 0x11
    3748:	0e 94 17 24 	call	0x482e	; 0x482e <__fixsfsi>
    374c:	7f 93       	push	r23
    374e:	6f 93       	push	r22
    3750:	20 e0       	ldi	r18, 0x00	; 0
    3752:	34 e2       	ldi	r19, 0x24	; 36
    3754:	44 e7       	ldi	r20, 0x74	; 116
    3756:	59 e4       	ldi	r21, 0x49	; 73
    3758:	6a 89       	ldd	r22, Y+18	; 0x12
    375a:	7b 89       	ldd	r23, Y+19	; 0x13
    375c:	8c 89       	ldd	r24, Y+20	; 0x14
    375e:	9d 89       	ldd	r25, Y+21	; 0x15
    3760:	0e 94 fe 24 	call	0x49fc	; 0x49fc <__mulsf3>
    3764:	0e 94 17 24 	call	0x482e	; 0x482e <__fixsfsi>
    3768:	20 e4       	ldi	r18, 0x40	; 64
    376a:	32 e4       	ldi	r19, 0x42	; 66
    376c:	4f e0       	ldi	r20, 0x0F	; 15
    376e:	50 e0       	ldi	r21, 0x00	; 0
    3770:	0e 94 1e 27 	call	0x4e3c	; 0x4e3c <__divmodsi4>
    3774:	9f 93       	push	r25
    3776:	8f 93       	push	r24
    3778:	7f 93       	push	r23
    377a:	6f 93       	push	r22
    377c:	6e 89       	ldd	r22, Y+22	; 0x16
    377e:	7f 89       	ldd	r23, Y+23	; 0x17
    3780:	88 8d       	ldd	r24, Y+24	; 0x18
    3782:	99 8d       	ldd	r25, Y+25	; 0x19
    3784:	0e 94 17 24 	call	0x482e	; 0x482e <__fixsfsi>
    3788:	7f 93       	push	r23
    378a:	6f 93       	push	r22
    378c:	6a 8d       	ldd	r22, Y+26	; 0x1a
    378e:	7b 8d       	ldd	r23, Y+27	; 0x1b
    3790:	8c 8d       	ldd	r24, Y+28	; 0x1c
    3792:	9d 8d       	ldd	r25, Y+29	; 0x1d
    3794:	0e 94 17 24 	call	0x482e	; 0x482e <__fixsfsi>
    3798:	0f 2e       	mov	r0, r31
    379a:	f4 e6       	ldi	r31, 0x64	; 100
    379c:	cf 2e       	mov	r12, r31
    379e:	d1 2c       	mov	r13, r1
    37a0:	e1 2c       	mov	r14, r1
    37a2:	f1 2c       	mov	r15, r1
    37a4:	f0 2d       	mov	r31, r0
    37a6:	a7 01       	movw	r20, r14
    37a8:	96 01       	movw	r18, r12
    37aa:	0e 94 1e 27 	call	0x4e3c	; 0x4e3c <__divmodsi4>
    37ae:	7f 93       	push	r23
    37b0:	6f 93       	push	r22
    37b2:	6e 8d       	ldd	r22, Y+30	; 0x1e
    37b4:	7f 8d       	ldd	r23, Y+31	; 0x1f
    37b6:	88 a1       	ldd	r24, Y+32	; 0x20
    37b8:	99 a1       	ldd	r25, Y+33	; 0x21
    37ba:	0e 94 17 24 	call	0x482e	; 0x482e <__fixsfsi>
    37be:	0f 2e       	mov	r0, r31
    37c0:	f0 e1       	ldi	r31, 0x10	; 16
    37c2:	8f 2e       	mov	r8, r31
    37c4:	f7 e2       	ldi	r31, 0x27	; 39
    37c6:	9f 2e       	mov	r9, r31
    37c8:	a1 2c       	mov	r10, r1
    37ca:	b1 2c       	mov	r11, r1
    37cc:	f0 2d       	mov	r31, r0
    37ce:	a5 01       	movw	r20, r10
    37d0:	94 01       	movw	r18, r8
    37d2:	0e 94 1e 27 	call	0x4e3c	; 0x4e3c <__divmodsi4>
    37d6:	a7 01       	movw	r20, r14
    37d8:	96 01       	movw	r18, r12
    37da:	0e 94 1e 27 	call	0x4e3c	; 0x4e3c <__divmodsi4>
    37de:	3f 93       	push	r19
    37e0:	2f 93       	push	r18
    37e2:	6a a1       	ldd	r22, Y+34	; 0x22
    37e4:	7b a1       	ldd	r23, Y+35	; 0x23
    37e6:	8c a1       	ldd	r24, Y+36	; 0x24
    37e8:	9d a1       	ldd	r25, Y+37	; 0x25
    37ea:	0e 94 17 24 	call	0x482e	; 0x482e <__fixsfsi>
    37ee:	a5 01       	movw	r20, r10
    37f0:	94 01       	movw	r18, r8
    37f2:	0e 94 1e 27 	call	0x4e3c	; 0x4e3c <__divmodsi4>
    37f6:	3f 93       	push	r19
    37f8:	2f 93       	push	r18
    37fa:	20 e0       	ldi	r18, 0x00	; 0
    37fc:	30 e0       	ldi	r19, 0x00	; 0
    37fe:	40 e2       	ldi	r20, 0x20	; 32
    3800:	51 e4       	ldi	r21, 0x41	; 65
    3802:	6e a1       	ldd	r22, Y+38	; 0x26
    3804:	7f a1       	ldd	r23, Y+39	; 0x27
    3806:	88 a5       	ldd	r24, Y+40	; 0x28
    3808:	99 a5       	ldd	r25, Y+41	; 0x29
    380a:	0e 94 fe 24 	call	0x49fc	; 0x49fc <__mulsf3>
    380e:	0e 94 17 24 	call	0x482e	; 0x482e <__fixsfsi>
    3812:	cb 01       	movw	r24, r22
    3814:	6a e0       	ldi	r22, 0x0A	; 10
    3816:	70 e0       	ldi	r23, 0x00	; 0
    3818:	0e 94 e9 26 	call	0x4dd2	; 0x4dd2 <__divmodhi4>
    381c:	9f 93       	push	r25
    381e:	8f 93       	push	r24
    3820:	6a a5       	ldd	r22, Y+42	; 0x2a
    3822:	7b a5       	ldd	r23, Y+43	; 0x2b
    3824:	8c a5       	ldd	r24, Y+44	; 0x2c
    3826:	9d a5       	ldd	r25, Y+45	; 0x2d
    3828:	0e 94 17 24 	call	0x482e	; 0x482e <__fixsfsi>
    382c:	7f 93       	push	r23
    382e:	6f 93       	push	r22
    3830:	20 e0       	ldi	r18, 0x00	; 0
    3832:	30 e0       	ldi	r19, 0x00	; 0
    3834:	40 e2       	ldi	r20, 0x20	; 32
    3836:	51 e4       	ldi	r21, 0x41	; 65
    3838:	6e a5       	ldd	r22, Y+46	; 0x2e
    383a:	7f a5       	ldd	r23, Y+47	; 0x2f
    383c:	88 a9       	ldd	r24, Y+48	; 0x30
    383e:	99 a9       	ldd	r25, Y+49	; 0x31
    3840:	0e 94 fe 24 	call	0x49fc	; 0x49fc <__mulsf3>
    3844:	20 e0       	ldi	r18, 0x00	; 0
    3846:	38 eb       	ldi	r19, 0xB8	; 184
    3848:	4a e2       	ldi	r20, 0x2A	; 42
    384a:	55 e4       	ldi	r21, 0x45	; 69
    384c:	1f d7       	rcall	.+3646   	; 0x468c <__subsf3>
    384e:	ef d7       	rcall	.+4062   	; 0x482e <__fixsfsi>
    3850:	cb 01       	movw	r24, r22
    3852:	6a e0       	ldi	r22, 0x0A	; 10
    3854:	70 e0       	ldi	r23, 0x00	; 0
    3856:	0e 94 e9 26 	call	0x4dd2	; 0x4dd2 <__divmodhi4>
    385a:	9f 93       	push	r25
    385c:	8f 93       	push	r24
    385e:	23 e3       	ldi	r18, 0x33	; 51
    3860:	33 e9       	ldi	r19, 0x93	; 147
    3862:	48 e8       	ldi	r20, 0x88	; 136
    3864:	53 e4       	ldi	r21, 0x43	; 67
    3866:	6a a9       	ldd	r22, Y+50	; 0x32
    3868:	7b a9       	ldd	r23, Y+51	; 0x33
    386a:	8c a9       	ldd	r24, Y+52	; 0x34
    386c:	9d a9       	ldd	r25, Y+53	; 0x35
    386e:	0e d7       	rcall	.+3612   	; 0x468c <__subsf3>
    3870:	de d7       	rcall	.+4028   	; 0x482e <__fixsfsi>
    3872:	7f 93       	push	r23
    3874:	6f 93       	push	r22
    3876:	6e a9       	ldd	r22, Y+54	; 0x36
    3878:	7f a9       	ldd	r23, Y+55	; 0x37
    387a:	88 ad       	ldd	r24, Y+56	; 0x38
    387c:	99 ad       	ldd	r25, Y+57	; 0x39
    387e:	d7 d7       	rcall	.+4014   	; 0x482e <__fixsfsi>
    3880:	9f 93       	push	r25
    3882:	8f 93       	push	r24
    3884:	7f 93       	push	r23
    3886:	6f 93       	push	r22
    3888:	6a ad       	ldd	r22, Y+58	; 0x3a
    388a:	7b ad       	ldd	r23, Y+59	; 0x3b
    388c:	8c ad       	ldd	r24, Y+60	; 0x3c
    388e:	9d ad       	ldd	r25, Y+61	; 0x3d
    3890:	ce d7       	rcall	.+3996   	; 0x482e <__fixsfsi>
    3892:	7f 93       	push	r23
    3894:	6f 93       	push	r22
    3896:	3f 92       	push	r3
    3898:	2f 92       	push	r2
    389a:	1f 93       	push	r17
    389c:	0f 93       	push	r16
    389e:	80 91 16 20 	lds	r24, 0x2016	; 0x802016 <format+0x1>
    38a2:	8f 93       	push	r24
    38a4:	80 91 15 20 	lds	r24, 0x2015	; 0x802015 <format>
    38a8:	8f 93       	push	r24
    38aa:	80 ea       	ldi	r24, 0xA0	; 160
    38ac:	91 e2       	ldi	r25, 0x21	; 33
    38ae:	9f 93       	push	r25
    38b0:	8f 93       	push	r24
    38b2:	0e 94 f0 27 	call	0x4fe0	; 0x4fe0 <sprintf>
	(int16_t) (((int32_t)gps_t)/10000),		(int16_t) ((((int32_t)gps_t)%10000)/100),	(int16_t) (((int32_t)gps_t)%100),
	(int16_t) gps_lat,						((int32_t) (gps_lat*1000000))%1000000,		(int16_t) gps_long,						(int32_t)(abs(((int32_t)(gps_long*1000000))%1000000)),
	(int16_t) gps_alt,						((int16_t) (gps_alt)*10)%10,				gps_sats,
	(int16_t) pitch,						(int16_t) roll,								(int16_t) rpm,
	state,									(int16_t) angle); // Data Logging Test
	printf(str);
    38b6:	cd bf       	out	0x3d, r28	; 61
    38b8:	de bf       	out	0x3e, r29	; 62
    38ba:	80 ea       	ldi	r24, 0xA0	; 160
    38bc:	91 e2       	ldi	r25, 0x21	; 33
    38be:	9f 93       	push	r25
    38c0:	8f 93       	push	r24
    38c2:	0e 94 dd 27 	call	0x4fba	; 0x4fba <printf>
	
	//printf("%i.%i, %i, %li, %i\n", timer/10, timer%10, (int16_t) alt, (int32_t) press, (int16_t) velocity);
	eeprom_write();
    38c6:	4e dd       	rcall	.-1380   	; 0x3364 <eeprom_write>

	time_flag = 0;
    38c8:	10 92 50 21 	sts	0x2150, r1	; 0x802150 <time_flag>
}
    38cc:	0f 90       	pop	r0
    38ce:	0f 90       	pop	r0
    38d0:	ef 96       	adiw	r28, 0x3f	; 63
    38d2:	cd bf       	out	0x3d, r28	; 61
    38d4:	de bf       	out	0x3e, r29	; 62
    38d6:	df 91       	pop	r29
    38d8:	cf 91       	pop	r28
    38da:	1f 91       	pop	r17
    38dc:	0f 91       	pop	r16
    38de:	ff 90       	pop	r15
    38e0:	ef 90       	pop	r14
    38e2:	df 90       	pop	r13
    38e4:	cf 90       	pop	r12
    38e6:	bf 90       	pop	r11
    38e8:	af 90       	pop	r10
    38ea:	9f 90       	pop	r9
    38ec:	8f 90       	pop	r8
    38ee:	7f 90       	pop	r7
    38f0:	6f 90       	pop	r6
    38f2:	5f 90       	pop	r5
    38f4:	4f 90       	pop	r4
    38f6:	3f 90       	pop	r3
    38f8:	2f 90       	pop	r2
    38fa:	08 95       	ret

000038fc <eeprom_read>:
	CCP = CCP_IOREG_MODE;
	NVM.CTRLA = CTRLA_CMDEX_BYTE;
	while(NVM.STATUS>>7);
}

uint8_t	eeprom_read(uint16_t address){
    38fc:	cf 93       	push	r28
    38fe:	df 93       	push	r29
	NVM.CMD = READ_EEPROM;
    3900:	c0 ec       	ldi	r28, 0xC0	; 192
    3902:	d1 e0       	ldi	r29, 0x01	; 1
    3904:	26 e0       	ldi	r18, 0x06	; 6
    3906:	2a 87       	std	Y+10, r18	; 0x0a
	NVM.ADDR0 = address & 0xFF;
    3908:	88 83       	st	Y, r24
	NVM.ADDR1 = address >> 8;
    390a:	99 83       	std	Y+1, r25	; 0x01
	CCP = CCP_IOREG_MODE;
    390c:	88 ed       	ldi	r24, 0xD8	; 216
    390e:	84 bf       	out	0x34, r24	; 52
	NVM.CTRLA = CTRLA_CMDEX_BYTE;
    3910:	81 e0       	ldi	r24, 0x01	; 1
    3912:	8b 87       	std	Y+11, r24	; 0x0b
	delay_ms(1);
    3914:	66 ed       	ldi	r22, 0xD6	; 214
    3916:	74 e1       	ldi	r23, 0x14	; 20
    3918:	80 e0       	ldi	r24, 0x00	; 0
    391a:	90 e0       	ldi	r25, 0x00	; 0
    391c:	0e 94 e2 0f 	call	0x1fc4	; 0x1fc4 <__portable_avr_delay_cycles>
	uint8_t byte = NVM.DATA0;
    3920:	8c 81       	ldd	r24, Y+4	; 0x04
	return byte;
}
    3922:	df 91       	pop	r29
    3924:	cf 91       	pop	r28
    3926:	08 95       	ret

00003928 <system_init>:
	}
}


// Sensor functions
void system_init(void){
    3928:	2f 92       	push	r2
    392a:	3f 92       	push	r3
    392c:	4f 92       	push	r4
    392e:	5f 92       	push	r5
    3930:	6f 92       	push	r6
    3932:	7f 92       	push	r7
    3934:	8f 92       	push	r8
    3936:	9f 92       	push	r9
    3938:	af 92       	push	r10
    393a:	bf 92       	push	r11
    393c:	cf 92       	push	r12
    393e:	df 92       	push	r13
    3940:	ef 92       	push	r14
    3942:	ff 92       	push	r15
    3944:	0f 93       	push	r16
    3946:	1f 93       	push	r17
    3948:	cf 93       	push	r28
    394a:	df 93       	push	r29
    394c:	cd b7       	in	r28, 0x3d	; 61
    394e:	de b7       	in	r29, 0x3e	; 62
    3950:	29 97       	sbiw	r28, 0x09	; 9
    3952:	cd bf       	out	0x3d, r28	; 61
    3954:	de bf       	out	0x3e, r29	; 62
	// Initialization of systems
	sysclk_init(); // initializes the system clock
    3956:	0e 94 72 0f 	call	0x1ee4	; 0x1ee4 <sysclk_init>
	delay_ms(2); // delays the rest of the processes to ensure a started clock
    395a:	6b ea       	ldi	r22, 0xAB	; 171
    395c:	79 e2       	ldi	r23, 0x29	; 41
    395e:	80 e0       	ldi	r24, 0x00	; 0
    3960:	90 e0       	ldi	r25, 0x00	; 0
    3962:	0e 94 e2 0f 	call	0x1fc4	; 0x1fc4 <__portable_avr_delay_cycles>
	sei();
    3966:	78 94       	sei

	// Initialization of pins
	PORTC.DIR = 0xBC; // makes Port C have pins, 7, 5, 4, 3, and 2 be output (0b10111100)
    3968:	8c eb       	ldi	r24, 0xBC	; 188
    396a:	80 93 40 06 	sts	0x0640, r24	; 0x800640 <__TEXT_REGION_LENGTH__+0x700640>
	PMIC.CTRL = PMIC_LOLVLEN_bm | PMIC_MEDLVLEN_bm | PMIC_HILVLEN_bm; // enables lo level interrupts
    396e:	87 e0       	ldi	r24, 0x07	; 7
    3970:	80 93 a2 00 	sts	0x00A2, r24	; 0x8000a2 <__TEXT_REGION_LENGTH__+0x7000a2>

	// Driver Initialization
	cam_init();
    3974:	0e 94 9c 0c 	call	0x1938	; 0x1938 <cam_init>
	data_terminal_init();
    3978:	0e 94 f0 0d 	call	0x1be0	; 0x1be0 <data_terminal_init>
	delay_ms(500);
    397c:	6b ea       	ldi	r22, 0xAB	; 171
    397e:	70 eb       	ldi	r23, 0xB0	; 176
    3980:	88 e2       	ldi	r24, 0x28	; 40
    3982:	90 e0       	ldi	r25, 0x00	; 0
    3984:	0e 94 e2 0f 	call	0x1fc4	; 0x1fc4 <__portable_avr_delay_cycles>

	(*GPS_TERMINAL_SERIAL).CTRLA = USART_RXCINTLVL_HI_gc;
}

void xbee_init(void){
	USARTE0.CTRLA = USART_RXCINTLVL_MED_gc;
    3988:	80 e2       	ldi	r24, 0x20	; 32
    398a:	80 93 a3 0a 	sts	0x0AA3, r24	; 0x800aa3 <__TEXT_REGION_LENGTH__+0x700aa3>
	// Driver Initialization
	cam_init();
	data_terminal_init();
	delay_ms(500);
	xbee_init();
	gps_init();
    398e:	0e 94 3e 10 	call	0x207c	; 0x207c <gps_init>
	//buzzer_init();
	//delay_ms(100);

	hall_sensor_init();
    3992:	0e 94 48 10 	call	0x2090	; 0x2090 <hall_sensor_init>
	thermistor_init();
    3996:	0e 94 a3 0c 	call	0x1946	; 0x1946 <thermistor_init>
	voltage_init();
    399a:	0e 94 36 0e 	call	0x1c6c	; 0x1c6c <voltage_init>
	spi_init();
    399e:	0e 94 bf 0d 	call	0x1b7e	; 0x1b7e <spi_init>
	pressure_init();
    39a2:	0e 94 f7 0f 	call	0x1fee	; 0x1fee <pressure_init>
	//bno_init();
	cam_switch();
    39a6:	0e 94 95 0c 	call	0x192a	; 0x192a <cam_switch>
	clock_init();
    39aa:	ef d8       	rcall	.-3618   	; 0x2b8a <clock_init>

	release_servo_init();
    39ac:	28 d8       	rcall	.-4016   	; 0x29fe <release_servo_init>
	servo_timer_init();
    39ae:	4f d8       	rcall	.-3938   	; 0x2a4e <servo_timer_init>
    39b0:	82 e0       	ldi	r24, 0x02	; 2

	// Check EEPROM

	volatile uint8_t b1 = eeprom_read(EEPROM_PAGE|CHECK_WRITE_BYTE0);
    39b2:	90 e1       	ldi	r25, 0x10	; 16
    39b4:	a3 df       	rcall	.-186    	; 0x38fc <eeprom_read>
    39b6:	89 83       	std	Y+1, r24	; 0x01
    39b8:	8f e1       	ldi	r24, 0x1F	; 31
	volatile uint8_t b2 = eeprom_read(EEPROM_PAGE|CHECK_WRITE_BYTE1);
    39ba:	90 e1       	ldi	r25, 0x10	; 16
    39bc:	9f df       	rcall	.-194    	; 0x38fc <eeprom_read>
    39be:	8a 83       	std	Y+2, r24	; 0x02
    39c0:	99 81       	ldd	r25, Y+1	; 0x01

	if((b1 == b2) && (b1 != 0xFF)){
    39c2:	8a 81       	ldd	r24, Y+2	; 0x02
    39c4:	98 13       	cpse	r25, r24
    39c6:	d3 c1       	rjmp	.+934    	; 0x3d6e <system_init+0x446>
    39c8:	89 81       	ldd	r24, Y+1	; 0x01
    39ca:	8f 3f       	cpi	r24, 0xFF	; 255
    39cc:	09 f4       	brne	.+2      	; 0x39d0 <system_init+0xa8>
    39ce:	cf c1       	rjmp	.+926    	; 0x3d6e <system_init+0x446>
		//printf("Reading EEPROM\n");
		uint64_t p =  ((uint64_t) eeprom_read(EEPROM_PAGE|GROUND_PRESS_ADDR7)<<56 | (uint64_t) eeprom_read(EEPROM_PAGE|GROUND_PRESS_ADDR6)<<48 |
    39d0:	80 e1       	ldi	r24, 0x10	; 16
    39d2:	90 e1       	ldi	r25, 0x10	; 16
    39d4:	93 df       	rcall	.-218    	; 0x38fc <eeprom_read>
    39d6:	18 2f       	mov	r17, r24
    39d8:	8f e0       	ldi	r24, 0x0F	; 15
    39da:	90 e1       	ldi	r25, 0x10	; 16
    39dc:	8f df       	rcall	.-226    	; 0x38fc <eeprom_read>
    39de:	b8 2f       	mov	r27, r24
    39e0:	21 2f       	mov	r18, r17
    39e2:	30 e0       	ldi	r19, 0x00	; 0
    39e4:	40 e0       	ldi	r20, 0x00	; 0
    39e6:	50 e0       	ldi	r21, 0x00	; 0
    39e8:	60 e0       	ldi	r22, 0x00	; 0
    39ea:	70 e0       	ldi	r23, 0x00	; 0
    39ec:	80 e0       	ldi	r24, 0x00	; 0
    39ee:	90 e0       	ldi	r25, 0x00	; 0
    39f0:	08 e3       	ldi	r16, 0x38	; 56
    39f2:	0e 94 5c 27 	call	0x4eb8	; 0x4eb8 <__ashldi3>
    39f6:	12 2f       	mov	r17, r18
    39f8:	c3 2e       	mov	r12, r19
    39fa:	f4 2e       	mov	r15, r20
    39fc:	a5 2f       	mov	r26, r21
    39fe:	f6 2f       	mov	r31, r22
    3a00:	e7 2f       	mov	r30, r23
    3a02:	d8 2e       	mov	r13, r24
    3a04:	e9 2e       	mov	r14, r25
    3a06:	2b 2f       	mov	r18, r27
    3a08:	30 e0       	ldi	r19, 0x00	; 0
    3a0a:	40 e0       	ldi	r20, 0x00	; 0
    3a0c:	50 e0       	ldi	r21, 0x00	; 0
    3a0e:	60 e0       	ldi	r22, 0x00	; 0
    3a10:	70 e0       	ldi	r23, 0x00	; 0
    3a12:	80 e0       	ldi	r24, 0x00	; 0
    3a14:	90 e0       	ldi	r25, 0x00	; 0
    3a16:	00 e3       	ldi	r16, 0x30	; 48
    3a18:	0e 94 5c 27 	call	0x4eb8	; 0x4eb8 <__ashldi3>
    3a1c:	12 2b       	or	r17, r18
    3a1e:	c3 2a       	or	r12, r19
    3a20:	f4 2a       	or	r15, r20
    3a22:	9a 2e       	mov	r9, r26
    3a24:	95 2a       	or	r9, r21
    3a26:	af 2e       	mov	r10, r31
    3a28:	a6 2a       	or	r10, r22
    3a2a:	be 2e       	mov	r11, r30
    3a2c:	b7 2a       	or	r11, r23
    3a2e:	d8 2a       	or	r13, r24
    3a30:	e9 2a       	or	r14, r25
					   (uint64_t) eeprom_read(EEPROM_PAGE|GROUND_PRESS_ADDR5)<<40 | (uint64_t) eeprom_read(EEPROM_PAGE|GROUND_PRESS_ADDR4)<<32 |
    3a32:	8e e0       	ldi	r24, 0x0E	; 14
    3a34:	90 e1       	ldi	r25, 0x10	; 16
    3a36:	62 df       	rcall	.-316    	; 0x38fc <eeprom_read>
    3a38:	08 2f       	mov	r16, r24
    3a3a:	8d e0       	ldi	r24, 0x0D	; 13
    3a3c:	90 e1       	ldi	r25, 0x10	; 16
    3a3e:	5e df       	rcall	.-324    	; 0x38fc <eeprom_read>
    3a40:	28 2e       	mov	r2, r24
					   (uint64_t) eeprom_read(EEPROM_PAGE|GROUND_PRESS_ADDR3)<<24 | (uint64_t) eeprom_read(EEPROM_PAGE|GROUND_PRESS_ADDR2)<<16 |
    3a42:	8c e0       	ldi	r24, 0x0C	; 12
    3a44:	90 e1       	ldi	r25, 0x10	; 16
    3a46:	5a df       	rcall	.-332    	; 0x38fc <eeprom_read>
    3a48:	38 2e       	mov	r3, r24
    3a4a:	8b e0       	ldi	r24, 0x0B	; 11
    3a4c:	90 e1       	ldi	r25, 0x10	; 16
    3a4e:	56 df       	rcall	.-340    	; 0x38fc <eeprom_read>
    3a50:	48 2e       	mov	r4, r24
					   (uint64_t) eeprom_read(EEPROM_PAGE|GROUND_PRESS_ADDR1)<<8  | (uint64_t) eeprom_read(EEPROM_PAGE|GROUND_PRESS_ADDR0));
    3a52:	8a e0       	ldi	r24, 0x0A	; 10
    3a54:	90 e1       	ldi	r25, 0x10	; 16
    3a56:	52 df       	rcall	.-348    	; 0x38fc <eeprom_read>
    3a58:	58 2e       	mov	r5, r24
    3a5a:	89 e0       	ldi	r24, 0x09	; 9
    3a5c:	90 e1       	ldi	r25, 0x10	; 16
    3a5e:	4e df       	rcall	.-356    	; 0x38fc <eeprom_read>
    3a60:	68 2e       	mov	r6, r24
    3a62:	20 2f       	mov	r18, r16
    3a64:	30 e0       	ldi	r19, 0x00	; 0
    3a66:	40 e0       	ldi	r20, 0x00	; 0
    3a68:	50 e0       	ldi	r21, 0x00	; 0
    3a6a:	60 e0       	ldi	r22, 0x00	; 0
    3a6c:	70 e0       	ldi	r23, 0x00	; 0
    3a6e:	80 e0       	ldi	r24, 0x00	; 0
    3a70:	90 e0       	ldi	r25, 0x00	; 0
    3a72:	08 e2       	ldi	r16, 0x28	; 40
    3a74:	0e 94 5c 27 	call	0x4eb8	; 0x4eb8 <__ashldi3>
    3a78:	16 29       	or	r17, r6
    3a7a:	12 2b       	or	r17, r18
    3a7c:	c3 2a       	or	r12, r19
    3a7e:	f4 2a       	or	r15, r20
    3a80:	a5 2f       	mov	r26, r21
    3a82:	a9 29       	or	r26, r9
    3a84:	f6 2f       	mov	r31, r22
    3a86:	fa 29       	or	r31, r10
    3a88:	e7 2f       	mov	r30, r23
    3a8a:	eb 29       	or	r30, r11
    3a8c:	d8 2a       	or	r13, r24
    3a8e:	e9 2a       	or	r14, r25
    3a90:	22 2d       	mov	r18, r2
    3a92:	30 e0       	ldi	r19, 0x00	; 0
    3a94:	40 e0       	ldi	r20, 0x00	; 0
    3a96:	50 e0       	ldi	r21, 0x00	; 0
    3a98:	60 e0       	ldi	r22, 0x00	; 0
    3a9a:	70 e0       	ldi	r23, 0x00	; 0
    3a9c:	80 e0       	ldi	r24, 0x00	; 0
    3a9e:	90 e0       	ldi	r25, 0x00	; 0
    3aa0:	00 e2       	ldi	r16, 0x20	; 32
    3aa2:	0e 94 5c 27 	call	0x4eb8	; 0x4eb8 <__ashldi3>
    3aa6:	12 2b       	or	r17, r18
    3aa8:	c3 2a       	or	r12, r19
    3aaa:	f4 2a       	or	r15, r20
    3aac:	a5 2b       	or	r26, r21
    3aae:	f6 2b       	or	r31, r22
    3ab0:	e7 2b       	or	r30, r23
    3ab2:	d8 2a       	or	r13, r24
    3ab4:	e9 2a       	or	r14, r25
    3ab6:	23 2d       	mov	r18, r3
    3ab8:	30 e0       	ldi	r19, 0x00	; 0
    3aba:	40 e0       	ldi	r20, 0x00	; 0
    3abc:	50 e0       	ldi	r21, 0x00	; 0
    3abe:	60 e0       	ldi	r22, 0x00	; 0
    3ac0:	70 e0       	ldi	r23, 0x00	; 0
    3ac2:	80 e0       	ldi	r24, 0x00	; 0
    3ac4:	90 e0       	ldi	r25, 0x00	; 0
    3ac6:	08 e1       	ldi	r16, 0x18	; 24
    3ac8:	0e 94 5c 27 	call	0x4eb8	; 0x4eb8 <__ashldi3>
    3acc:	12 2b       	or	r17, r18
    3ace:	c3 2a       	or	r12, r19
    3ad0:	f4 2a       	or	r15, r20
    3ad2:	a5 2b       	or	r26, r21
    3ad4:	f6 2b       	or	r31, r22
    3ad6:	e7 2b       	or	r30, r23
    3ad8:	d8 2a       	or	r13, r24
    3ada:	e9 2a       	or	r14, r25
    3adc:	24 2d       	mov	r18, r4
    3ade:	30 e0       	ldi	r19, 0x00	; 0
    3ae0:	40 e0       	ldi	r20, 0x00	; 0
    3ae2:	50 e0       	ldi	r21, 0x00	; 0
    3ae4:	60 e0       	ldi	r22, 0x00	; 0
    3ae6:	70 e0       	ldi	r23, 0x00	; 0
    3ae8:	80 e0       	ldi	r24, 0x00	; 0
    3aea:	90 e0       	ldi	r25, 0x00	; 0
    3aec:	00 e1       	ldi	r16, 0x10	; 16
    3aee:	0e 94 5c 27 	call	0x4eb8	; 0x4eb8 <__ashldi3>
    3af2:	12 2b       	or	r17, r18
    3af4:	c3 2a       	or	r12, r19
    3af6:	f4 2a       	or	r15, r20
    3af8:	a5 2b       	or	r26, r21
    3afa:	f6 2b       	or	r31, r22
    3afc:	e7 2b       	or	r30, r23
    3afe:	d8 2a       	or	r13, r24
    3b00:	e9 2a       	or	r14, r25
    3b02:	25 2d       	mov	r18, r5
    3b04:	30 e0       	ldi	r19, 0x00	; 0
    3b06:	40 e0       	ldi	r20, 0x00	; 0
    3b08:	50 e0       	ldi	r21, 0x00	; 0
    3b0a:	60 e0       	ldi	r22, 0x00	; 0
    3b0c:	70 e0       	ldi	r23, 0x00	; 0
    3b0e:	80 e0       	ldi	r24, 0x00	; 0
    3b10:	90 e0       	ldi	r25, 0x00	; 0
    3b12:	08 e0       	ldi	r16, 0x08	; 8
    3b14:	0e 94 5c 27 	call	0x4eb8	; 0x4eb8 <__ashldi3>
    3b18:	61 2e       	mov	r6, r17
    3b1a:	62 2a       	or	r6, r18
    3b1c:	7c 2c       	mov	r7, r12
    3b1e:	73 2a       	or	r7, r19
    3b20:	8f 2c       	mov	r8, r15
    3b22:	84 2a       	or	r8, r20
    3b24:	9a 2e       	mov	r9, r26
    3b26:	95 2a       	or	r9, r21
    3b28:	af 2e       	mov	r10, r31
    3b2a:	a6 2a       	or	r10, r22
    3b2c:	be 2e       	mov	r11, r30
    3b2e:	b7 2a       	or	r11, r23
    3b30:	d8 2a       	or	r13, r24
    3b32:	e9 2a       	or	r14, r25
		uint64_t t =  ((uint64_t) eeprom_read(EEPROM_PAGE|GROUND_TEMP_ADDR7)<<56  | (uint64_t) eeprom_read(EEPROM_PAGE|GROUND_TEMP_ADDR6)<<48 |
    3b34:	89 e1       	ldi	r24, 0x19	; 25
    3b36:	90 e1       	ldi	r25, 0x10	; 16
    3b38:	e1 de       	rcall	.-574    	; 0x38fc <eeprom_read>
    3b3a:	18 2f       	mov	r17, r24
    3b3c:	88 e1       	ldi	r24, 0x18	; 24
    3b3e:	90 e1       	ldi	r25, 0x10	; 16
    3b40:	dd de       	rcall	.-582    	; 0x38fc <eeprom_read>
    3b42:	48 2e       	mov	r4, r24
    3b44:	21 2f       	mov	r18, r17
    3b46:	30 e0       	ldi	r19, 0x00	; 0
    3b48:	40 e0       	ldi	r20, 0x00	; 0
    3b4a:	50 e0       	ldi	r21, 0x00	; 0
    3b4c:	60 e0       	ldi	r22, 0x00	; 0
    3b4e:	70 e0       	ldi	r23, 0x00	; 0
    3b50:	80 e0       	ldi	r24, 0x00	; 0
    3b52:	90 e0       	ldi	r25, 0x00	; 0
    3b54:	08 e3       	ldi	r16, 0x38	; 56
    3b56:	0e 94 5c 27 	call	0x4eb8	; 0x4eb8 <__ashldi3>
    3b5a:	c2 2e       	mov	r12, r18
    3b5c:	53 2e       	mov	r5, r19
    3b5e:	b4 2f       	mov	r27, r20
    3b60:	a5 2f       	mov	r26, r21
    3b62:	f6 2f       	mov	r31, r22
    3b64:	e7 2f       	mov	r30, r23
    3b66:	f8 2e       	mov	r15, r24
    3b68:	19 2f       	mov	r17, r25
    3b6a:	24 2d       	mov	r18, r4
    3b6c:	30 e0       	ldi	r19, 0x00	; 0
    3b6e:	40 e0       	ldi	r20, 0x00	; 0
    3b70:	50 e0       	ldi	r21, 0x00	; 0
    3b72:	60 e0       	ldi	r22, 0x00	; 0
    3b74:	70 e0       	ldi	r23, 0x00	; 0
    3b76:	80 e0       	ldi	r24, 0x00	; 0
    3b78:	90 e0       	ldi	r25, 0x00	; 0
    3b7a:	00 e3       	ldi	r16, 0x30	; 48
    3b7c:	0e 94 5c 27 	call	0x4eb8	; 0x4eb8 <__ashldi3>
    3b80:	c2 2a       	or	r12, r18
    3b82:	53 2a       	or	r5, r19
    3b84:	59 86       	std	Y+9, r5	; 0x09
    3b86:	2b 2e       	mov	r2, r27
    3b88:	24 2a       	or	r2, r20
    3b8a:	3a 2e       	mov	r3, r26
    3b8c:	35 2a       	or	r3, r21
    3b8e:	4f 2e       	mov	r4, r31
    3b90:	46 2a       	or	r4, r22
    3b92:	5e 2e       	mov	r5, r30
    3b94:	57 2a       	or	r5, r23
    3b96:	f8 2a       	or	r15, r24
					   (uint64_t) eeprom_read(EEPROM_PAGE|GROUND_TEMP_ADDR5)<<40  | (uint64_t) eeprom_read(EEPROM_PAGE|GROUND_TEMP_ADDR4)<<32 |
    3b98:	19 2b       	or	r17, r25
    3b9a:	87 e1       	ldi	r24, 0x17	; 23
    3b9c:	90 e1       	ldi	r25, 0x10	; 16
    3b9e:	ae de       	rcall	.-676    	; 0x38fc <eeprom_read>
    3ba0:	08 2f       	mov	r16, r24
    3ba2:	86 e1       	ldi	r24, 0x16	; 22
    3ba4:	90 e1       	ldi	r25, 0x10	; 16
    3ba6:	aa de       	rcall	.-684    	; 0x38fc <eeprom_read>
					   (uint64_t) eeprom_read(EEPROM_PAGE|GROUND_TEMP_ADDR3)<<24  | (uint64_t) eeprom_read(EEPROM_PAGE|GROUND_TEMP_ADDR2)<<16 |
    3ba8:	8d 83       	std	Y+5, r24	; 0x05
    3baa:	85 e1       	ldi	r24, 0x15	; 21
    3bac:	90 e1       	ldi	r25, 0x10	; 16
    3bae:	a6 de       	rcall	.-692    	; 0x38fc <eeprom_read>
    3bb0:	8e 83       	std	Y+6, r24	; 0x06
    3bb2:	84 e1       	ldi	r24, 0x14	; 20
    3bb4:	90 e1       	ldi	r25, 0x10	; 16
    3bb6:	a2 de       	rcall	.-700    	; 0x38fc <eeprom_read>
    3bb8:	8f 83       	std	Y+7, r24	; 0x07
    3bba:	83 e1       	ldi	r24, 0x13	; 19
					   (uint64_t) eeprom_read(EEPROM_PAGE|GROUND_TEMP_ADDR1)<<8   | (uint64_t) eeprom_read(EEPROM_PAGE|GROUND_TEMP_ADDR0));
    3bbc:	90 e1       	ldi	r25, 0x10	; 16
    3bbe:	9e de       	rcall	.-708    	; 0x38fc <eeprom_read>
    3bc0:	88 87       	std	Y+8, r24	; 0x08
    3bc2:	82 e1       	ldi	r24, 0x12	; 18
    3bc4:	90 e1       	ldi	r25, 0x10	; 16
    3bc6:	9a de       	rcall	.-716    	; 0x38fc <eeprom_read>
    3bc8:	e8 2f       	mov	r30, r24
    3bca:	ab e2       	ldi	r26, 0x2B	; 43
    3bcc:	b0 e2       	ldi	r27, 0x20	; 32
    3bce:	6c 92       	st	X, r6
		memcpy(&ground_p, &p, 8);
    3bd0:	11 96       	adiw	r26, 0x01	; 1
    3bd2:	7c 92       	st	X, r7
    3bd4:	11 97       	sbiw	r26, 0x01	; 1
    3bd6:	12 96       	adiw	r26, 0x02	; 2
    3bd8:	8c 92       	st	X, r8
    3bda:	12 97       	sbiw	r26, 0x02	; 2
    3bdc:	13 96       	adiw	r26, 0x03	; 3
    3bde:	9c 92       	st	X, r9
    3be0:	13 97       	sbiw	r26, 0x03	; 3
    3be2:	14 96       	adiw	r26, 0x04	; 4
    3be4:	ac 92       	st	X, r10
    3be6:	14 97       	sbiw	r26, 0x04	; 4
    3be8:	15 96       	adiw	r26, 0x05	; 5
    3bea:	bc 92       	st	X, r11
    3bec:	15 97       	sbiw	r26, 0x05	; 5
    3bee:	16 96       	adiw	r26, 0x06	; 6
    3bf0:	dc 92       	st	X, r13
    3bf2:	16 97       	sbiw	r26, 0x06	; 6
    3bf4:	17 96       	adiw	r26, 0x07	; 7
    3bf6:	ec 92       	st	X, r14
    3bf8:	a7 e2       	ldi	r26, 0x27	; 39
    3bfa:	b0 e2       	ldi	r27, 0x20	; 32
    3bfc:	20 2f       	mov	r18, r16
		memcpy(&ground_t, &t, 8);
    3bfe:	30 e0       	ldi	r19, 0x00	; 0
    3c00:	40 e0       	ldi	r20, 0x00	; 0
    3c02:	50 e0       	ldi	r21, 0x00	; 0
    3c04:	60 e0       	ldi	r22, 0x00	; 0
    3c06:	70 e0       	ldi	r23, 0x00	; 0
    3c08:	80 e0       	ldi	r24, 0x00	; 0
    3c0a:	90 e0       	ldi	r25, 0x00	; 0
    3c0c:	08 e2       	ldi	r16, 0x28	; 40
    3c0e:	0e 94 5c 27 	call	0x4eb8	; 0x4eb8 <__ashldi3>
    3c12:	ce 2a       	or	r12, r30
    3c14:	c2 2a       	or	r12, r18
    3c16:	b9 84       	ldd	r11, Y+9	; 0x09
    3c18:	b3 2a       	or	r11, r19
    3c1a:	d4 2e       	mov	r13, r20
    3c1c:	d2 28       	or	r13, r2
    3c1e:	e5 2e       	mov	r14, r21
    3c20:	e3 28       	or	r14, r3
    3c22:	f6 2f       	mov	r31, r22
    3c24:	f4 29       	or	r31, r4
    3c26:	e7 2f       	mov	r30, r23
    3c28:	e5 29       	or	r30, r5
    3c2a:	f8 2a       	or	r15, r24
    3c2c:	19 2b       	or	r17, r25
    3c2e:	2d 81       	ldd	r18, Y+5	; 0x05
    3c30:	30 e0       	ldi	r19, 0x00	; 0
    3c32:	40 e0       	ldi	r20, 0x00	; 0
    3c34:	50 e0       	ldi	r21, 0x00	; 0
    3c36:	60 e0       	ldi	r22, 0x00	; 0
    3c38:	70 e0       	ldi	r23, 0x00	; 0
    3c3a:	80 e0       	ldi	r24, 0x00	; 0
    3c3c:	90 e0       	ldi	r25, 0x00	; 0
    3c3e:	00 e2       	ldi	r16, 0x20	; 32
    3c40:	0e 94 5c 27 	call	0x4eb8	; 0x4eb8 <__ashldi3>
    3c44:	c2 2a       	or	r12, r18
    3c46:	b3 2a       	or	r11, r19
    3c48:	d4 2a       	or	r13, r20
    3c4a:	e5 2a       	or	r14, r21
    3c4c:	f6 2b       	or	r31, r22
    3c4e:	e7 2b       	or	r30, r23
    3c50:	f8 2a       	or	r15, r24
    3c52:	19 2b       	or	r17, r25
    3c54:	2e 81       	ldd	r18, Y+6	; 0x06
    3c56:	30 e0       	ldi	r19, 0x00	; 0
    3c58:	40 e0       	ldi	r20, 0x00	; 0
    3c5a:	50 e0       	ldi	r21, 0x00	; 0
    3c5c:	60 e0       	ldi	r22, 0x00	; 0
    3c5e:	70 e0       	ldi	r23, 0x00	; 0
    3c60:	80 e0       	ldi	r24, 0x00	; 0
    3c62:	90 e0       	ldi	r25, 0x00	; 0
    3c64:	08 e1       	ldi	r16, 0x18	; 24
    3c66:	0e 94 5c 27 	call	0x4eb8	; 0x4eb8 <__ashldi3>
    3c6a:	c2 2a       	or	r12, r18
    3c6c:	b3 2a       	or	r11, r19
    3c6e:	d4 2a       	or	r13, r20
    3c70:	e5 2a       	or	r14, r21
    3c72:	f6 2b       	or	r31, r22
    3c74:	e7 2b       	or	r30, r23
    3c76:	f8 2a       	or	r15, r24
    3c78:	19 2b       	or	r17, r25
    3c7a:	2f 81       	ldd	r18, Y+7	; 0x07
    3c7c:	30 e0       	ldi	r19, 0x00	; 0
    3c7e:	40 e0       	ldi	r20, 0x00	; 0
    3c80:	50 e0       	ldi	r21, 0x00	; 0
    3c82:	60 e0       	ldi	r22, 0x00	; 0
    3c84:	70 e0       	ldi	r23, 0x00	; 0
    3c86:	80 e0       	ldi	r24, 0x00	; 0
    3c88:	90 e0       	ldi	r25, 0x00	; 0
    3c8a:	00 e1       	ldi	r16, 0x10	; 16
    3c8c:	0e 94 5c 27 	call	0x4eb8	; 0x4eb8 <__ashldi3>
    3c90:	c2 2a       	or	r12, r18
    3c92:	b3 2a       	or	r11, r19
    3c94:	d4 2a       	or	r13, r20
    3c96:	e5 2a       	or	r14, r21
    3c98:	f6 2b       	or	r31, r22
    3c9a:	e7 2b       	or	r30, r23
    3c9c:	f8 2a       	or	r15, r24
    3c9e:	19 2b       	or	r17, r25
    3ca0:	28 85       	ldd	r18, Y+8	; 0x08
    3ca2:	30 e0       	ldi	r19, 0x00	; 0
    3ca4:	40 e0       	ldi	r20, 0x00	; 0
    3ca6:	50 e0       	ldi	r21, 0x00	; 0
    3ca8:	60 e0       	ldi	r22, 0x00	; 0
    3caa:	70 e0       	ldi	r23, 0x00	; 0
    3cac:	80 e0       	ldi	r24, 0x00	; 0
    3cae:	90 e0       	ldi	r25, 0x00	; 0
    3cb0:	08 e0       	ldi	r16, 0x08	; 8
    3cb2:	0e 94 5c 27 	call	0x4eb8	; 0x4eb8 <__ashldi3>
    3cb6:	2c 29       	or	r18, r12
    3cb8:	2c 93       	st	X, r18
    3cba:	3b 29       	or	r19, r11
    3cbc:	11 96       	adiw	r26, 0x01	; 1
    3cbe:	3c 93       	st	X, r19
    3cc0:	11 97       	sbiw	r26, 0x01	; 1
    3cc2:	4d 29       	or	r20, r13
    3cc4:	12 96       	adiw	r26, 0x02	; 2
    3cc6:	4c 93       	st	X, r20
    3cc8:	12 97       	sbiw	r26, 0x02	; 2
    3cca:	5e 29       	or	r21, r14
    3ccc:	13 96       	adiw	r26, 0x03	; 3
    3cce:	5c 93       	st	X, r21
    3cd0:	13 97       	sbiw	r26, 0x03	; 3
    3cd2:	6f 2b       	or	r22, r31
    3cd4:	14 96       	adiw	r26, 0x04	; 4
    3cd6:	6c 93       	st	X, r22
    3cd8:	14 97       	sbiw	r26, 0x04	; 4
    3cda:	7e 2b       	or	r23, r30
    3cdc:	15 96       	adiw	r26, 0x05	; 5
    3cde:	7c 93       	st	X, r23
    3ce0:	15 97       	sbiw	r26, 0x05	; 5
    3ce2:	8f 29       	or	r24, r15
    3ce4:	16 96       	adiw	r26, 0x06	; 6
    3ce6:	8c 93       	st	X, r24
    3ce8:	16 97       	sbiw	r26, 0x06	; 6
    3cea:	91 2b       	or	r25, r17
    3cec:	17 96       	adiw	r26, 0x07	; 7
    3cee:	9c 93       	st	X, r25

		alt = (double) ((int16_t) (eeprom_read(EEPROM_PAGE|ALT_ADDR_BYTE1)<<8 | eeprom_read(EEPROM_PAGE|ALT_ADDR_BYTE0)));
    3cf0:	81 e0       	ldi	r24, 0x01	; 1
    3cf2:	90 e1       	ldi	r25, 0x10	; 16
    3cf4:	03 de       	rcall	.-1018   	; 0x38fc <eeprom_read>
    3cf6:	18 2f       	mov	r17, r24
    3cf8:	80 e0       	ldi	r24, 0x00	; 0
    3cfa:	90 e1       	ldi	r25, 0x10	; 16
    3cfc:	ff dd       	rcall	.-1026   	; 0x38fc <eeprom_read>
    3cfe:	61 2f       	mov	r22, r17
    3d00:	70 e0       	ldi	r23, 0x00	; 0
    3d02:	76 2f       	mov	r23, r22
    3d04:	66 27       	eor	r22, r22
    3d06:	68 2b       	or	r22, r24
    3d08:	07 2e       	mov	r0, r23
    3d0a:	00 0c       	add	r0, r0
    3d0c:	88 0b       	sbc	r24, r24
    3d0e:	99 0b       	sbc	r25, r25
    3d10:	c1 d5       	rcall	.+2946   	; 0x4894 <__floatsisf>
    3d12:	60 93 24 21 	sts	0x2124, r22	; 0x802124 <alt>
    3d16:	70 93 25 21 	sts	0x2125, r23	; 0x802125 <alt+0x1>
    3d1a:	80 93 26 21 	sts	0x2126, r24	; 0x802126 <alt+0x2>
    3d1e:	90 93 27 21 	sts	0x2127, r25	; 0x802127 <alt+0x3>
		timer = (uint16_t) (eeprom_read(EEPROM_PAGE|TIME_ADDR_BYTE1)<<8 | eeprom_read(EEPROM_PAGE|TIME_ADDR_BYTE0));
    3d22:	87 e0       	ldi	r24, 0x07	; 7
    3d24:	90 e1       	ldi	r25, 0x10	; 16
    3d26:	ea dd       	rcall	.-1068   	; 0x38fc <eeprom_read>
    3d28:	18 2f       	mov	r17, r24
    3d2a:	86 e0       	ldi	r24, 0x06	; 6
    3d2c:	90 e1       	ldi	r25, 0x10	; 16
    3d2e:	e6 dd       	rcall	.-1076   	; 0x38fc <eeprom_read>
    3d30:	21 2f       	mov	r18, r17
    3d32:	30 e0       	ldi	r19, 0x00	; 0
    3d34:	32 2f       	mov	r19, r18
    3d36:	22 27       	eor	r18, r18
    3d38:	28 2b       	or	r18, r24
    3d3a:	20 93 34 21 	sts	0x2134, r18	; 0x802134 <timer>
    3d3e:	30 93 35 21 	sts	0x2135, r19	; 0x802135 <timer+0x1>
		packets = (uint16_t) (eeprom_read(EEPROM_PAGE|PACKET_ADDR_BYTE1)<<8 | eeprom_read(EEPROM_PAGE|PACKET_ADDR_BYTE0));
    3d42:	84 e0       	ldi	r24, 0x04	; 4
    3d44:	90 e1       	ldi	r25, 0x10	; 16
    3d46:	da dd       	rcall	.-1100   	; 0x38fc <eeprom_read>
    3d48:	18 2f       	mov	r17, r24
    3d4a:	83 e0       	ldi	r24, 0x03	; 3
    3d4c:	90 e1       	ldi	r25, 0x10	; 16
    3d4e:	d6 dd       	rcall	.-1108   	; 0x38fc <eeprom_read>
    3d50:	21 2f       	mov	r18, r17
    3d52:	30 e0       	ldi	r19, 0x00	; 0
    3d54:	32 2f       	mov	r19, r18
    3d56:	22 27       	eor	r18, r18
    3d58:	28 2b       	or	r18, r24
    3d5a:	20 93 30 21 	sts	0x2130, r18	; 0x802130 <packets>
    3d5e:	30 93 31 21 	sts	0x2131, r19	; 0x802131 <packets+0x1>
    3d62:	85 e0       	ldi	r24, 0x05	; 5
    3d64:	90 e1       	ldi	r25, 0x10	; 16
		state = eeprom_read(EEPROM_PAGE|STATE_BYTE);
    3d66:	ca dd       	rcall	.-1132   	; 0x38fc <eeprom_read>
    3d68:	80 93 52 21 	sts	0x2152, r24	; 0x802152 <state>
    3d6c:	1d c0       	rjmp	.+58     	; 0x3da8 <system_init+0x480>
    3d6e:	0e 94 88 10 	call	0x2110	; 0x2110 <get_pressure>
	// Check EEPROM

	volatile uint8_t b1 = eeprom_read(EEPROM_PAGE|CHECK_WRITE_BYTE0);
	volatile uint8_t b2 = eeprom_read(EEPROM_PAGE|CHECK_WRITE_BYTE1);

	if((b1 == b2) && (b1 != 0xFF)){
    3d72:	60 93 2b 20 	sts	0x202B, r22	; 0x80202b <ground_p>
		state = eeprom_read(EEPROM_PAGE|STATE_BYTE);
		//printf("Ground Pressure: %li\nGround Temperature: %i\n", (int32_t) ground_p, (int16_t) ground_t);
	}
	else{
		// Initialization of variables
		ground_p = get_pressure();
    3d76:	70 93 2c 20 	sts	0x202C, r23	; 0x80202c <ground_p+0x1>
    3d7a:	80 93 2d 20 	sts	0x202D, r24	; 0x80202d <ground_p+0x2>
    3d7e:	90 93 2e 20 	sts	0x202E, r25	; 0x80202e <ground_p+0x3>
    3d82:	0e 94 cc 0c 	call	0x1998	; 0x1998 <thermistor_read>
	return val;	// returns pressure in Pa
}

double get_temperature(void){
	double val = 298.15; // Change to 25 degrees C
	volatile uint16_t reading = thermistor_read();
    3d86:	8b 83       	std	Y+3, r24	; 0x03
    3d88:	9c 83       	std	Y+4, r25	; 0x04
    3d8a:	83 e3       	ldi	r24, 0x33	; 51
    3d8c:	93 e1       	ldi	r25, 0x13	; 19
		//printf("Ground Pressure: %li\nGround Temperature: %i\n", (int32_t) ground_p, (int16_t) ground_t);
	}
	else{
		// Initialization of variables
		ground_p = get_pressure();
		ground_t = get_temperature();
    3d8e:	a5 e9       	ldi	r26, 0x95	; 149
    3d90:	b3 e4       	ldi	r27, 0x43	; 67
    3d92:	80 93 27 20 	sts	0x2027, r24	; 0x802027 <ground_t>
    3d96:	90 93 28 20 	sts	0x2028, r25	; 0x802028 <ground_t+0x1>
    3d9a:	a0 93 29 20 	sts	0x2029, r26	; 0x802029 <ground_t+0x2>
    3d9e:	b0 93 2a 20 	sts	0x202A, r27	; 0x80202a <ground_t+0x3>
    3da2:	10 92 52 21 	sts	0x2152, r1	; 0x802152 <state>
		state = 0;
    3da6:	ae d9       	rcall	.-3236   	; 0x3104 <eeprom_write_const>
    3da8:	0e 94 f7 13 	call	0x27ee	; 0x27ee <state_check>
		eeprom_write_const();
    3dac:	29 96       	adiw	r28, 0x09	; 9
	}

	state_check();
    3dae:	cd bf       	out	0x3d, r28	; 61
    3db0:	de bf       	out	0x3e, r29	; 62
}
    3db2:	df 91       	pop	r29
    3db4:	cf 91       	pop	r28
    3db6:	1f 91       	pop	r17
    3db8:	0f 91       	pop	r16
    3dba:	ff 90       	pop	r15
    3dbc:	ef 90       	pop	r14
    3dbe:	df 90       	pop	r13
    3dc0:	cf 90       	pop	r12
    3dc2:	bf 90       	pop	r11
    3dc4:	af 90       	pop	r10
    3dc6:	9f 90       	pop	r9
    3dc8:	8f 90       	pop	r8
    3dca:	7f 90       	pop	r7
    3dcc:	6f 90       	pop	r6
    3dce:	5f 90       	pop	r5
    3dd0:	4f 90       	pop	r4
    3dd2:	3f 90       	pop	r3
    3dd4:	2f 90       	pop	r2
    3dd6:	08 95       	ret

00003dd8 <eeprom_erase>:
    3dd8:	83 e3       	ldi	r24, 0x33	; 51
    3dda:	80 93 ca 01 	sts	0x01CA, r24	; 0x8001ca <__TEXT_REGION_LENGTH__+0x7001ca>
	return byte;
}

void eeprom_erase(void){
	NVM.CMD = LOAD_BUFFER_CMD;
	for(uint8_t i = 0; i < 32; i++){
    3dde:	80 e0       	ldi	r24, 0x00	; 0
		NVM.ADDR0 = i;
    3de0:	e0 ec       	ldi	r30, 0xC0	; 192
    3de2:	f1 e0       	ldi	r31, 0x01	; 1
		NVM.DATA0 = 0xFF;
    3de4:	9f ef       	ldi	r25, 0xFF	; 255
}

void eeprom_erase(void){
	NVM.CMD = LOAD_BUFFER_CMD;
	for(uint8_t i = 0; i < 32; i++){
		NVM.ADDR0 = i;
    3de6:	80 83       	st	Z, r24
		NVM.DATA0 = 0xFF;
    3de8:	94 83       	std	Z+4, r25	; 0x04
	return byte;
}

void eeprom_erase(void){
	NVM.CMD = LOAD_BUFFER_CMD;
	for(uint8_t i = 0; i < 32; i++){
    3dea:	8f 5f       	subi	r24, 0xFF	; 255
    3dec:	80 32       	cpi	r24, 0x20	; 32
    3dee:	d9 f7       	brne	.-10     	; 0x3de6 <eeprom_erase+0xe>
		NVM.ADDR0 = i;
		NVM.DATA0 = 0xFF;
	}

	NVM.CMD = ERASE_EEPROM;
    3df0:	e0 ec       	ldi	r30, 0xC0	; 192
    3df2:	f1 e0       	ldi	r31, 0x01	; 1
    3df4:	80 e3       	ldi	r24, 0x30	; 48
    3df6:	82 87       	std	Z+10, r24	; 0x0a
	CCP = CCP_IOREG_MODE;
    3df8:	88 ed       	ldi	r24, 0xD8	; 216
    3dfa:	84 bf       	out	0x34, r24	; 52
	NVM.CTRLA = CTRLA_CMDEX_BYTE;
    3dfc:	81 e0       	ldi	r24, 0x01	; 1
    3dfe:	83 87       	std	Z+11, r24	; 0x0b
	while(NVM.STATUS>>7);
    3e00:	87 85       	ldd	r24, Z+15	; 0x0f
    3e02:	88 23       	and	r24, r24
    3e04:	ec f3       	brlt	.-6      	; 0x3e00 <eeprom_erase+0x28>
}
    3e06:	08 95       	ret

00003e08 <reset>:
			break;
	}
}

void reset(void){
	eeprom_erase();
    3e08:	e7 df       	rcall	.-50     	; 0x3dd8 <eeprom_erase>

	uint8_t oldInterruptState = SREG;	// no real need to store the interrupt context as the reset will pre-empt its restoration
    3e0a:	8f b7       	in	r24, 0x3f	; 63
	cli();		                        // Disable interrupts
    3e0c:	f8 94       	cli

	CCP = 0xD8;							// Configuration change protection: allow protected IO regiser write
    3e0e:	98 ed       	ldi	r25, 0xD8	; 216
    3e10:	94 bf       	out	0x34, r25	; 52
	RST.CTRL = RST_SWRST_bm;			// Request software reset by writing to protected IO register
    3e12:	91 e0       	ldi	r25, 0x01	; 1
    3e14:	90 93 79 00 	sts	0x0079, r25	; 0x800079 <__TEXT_REGION_LENGTH__+0x700079>

	SREG=oldInterruptState;
    3e18:	8f bf       	out	0x3f, r24	; 63
    3e1a:	08 95       	ret

00003e1c <command>:
static void hall_sensor_measure(AC_t *ac, uint8_t channel, enum ac_status_t status){
	ticks_per_sec++;
}

void command(uint8_t c){
	switch(c){
    3e1c:	90 e0       	ldi	r25, 0x00	; 0
    3e1e:	fc 01       	movw	r30, r24
    3e20:	e1 56       	subi	r30, 0x61	; 97
    3e22:	f1 09       	sbc	r31, r1
    3e24:	e3 31       	cpi	r30, 0x13	; 19
    3e26:	f1 05       	cpc	r31, r1
    3e28:	c8 f4       	brcc	.+50     	; 0x3e5c <command+0x40>
    3e2a:	88 27       	eor	r24, r24
    3e2c:	e2 50       	subi	r30, 0x02	; 2
    3e2e:	ff 4f       	sbci	r31, 0xFF	; 255
    3e30:	8f 4f       	sbci	r24, 0xFF	; 255
    3e32:	0c 94 3a 27 	jmp	0x4e74	; 0x4e74 <__tablejump2__>
		case RESET:
			reset();
    3e36:	e8 cf       	rjmp	.-48     	; 0x3e08 <reset>
			break;
    3e38:	08 95       	ret
		case CALIBRATE:
			calibrate();
    3e3a:	0c 94 3e 16 	jmp	0x2c7c	; 0x2c7c <calibrate>
			break;
    3e3e:	08 95       	ret
		case CALIBRATE_ALTITUDE:
			cali_alt();
    3e40:	0c 94 08 16 	jmp	0x2c10	; 0x2c10 <cali_alt>
			break;
    3e44:	08 95       	ret
		case CALIBRATE_ANGLE:
			cali_ang();
    3e46:	0c 94 33 16 	jmp	0x2c66	; 0x2c66 <cali_ang>
			break;
    3e4a:	08 95       	ret
		case SERVO_RELEASE:
			servo_release();
    3e4c:	0c 94 41 16 	jmp	0x2c82	; 0x2c82 <servo_release>
			break;
    3e50:	08 95       	ret
		case SERVO_CLOSE:
			servo_close();
    3e52:	0c 94 4d 16 	jmp	0x2c9a	; 0x2c9a <servo_close>
			break;
    3e56:	08 95       	ret
		case PACKET:
			packet();
    3e58:	0c 94 58 16 	jmp	0x2cb0	; 0x2cb0 <packet>
    3e5c:	08 95       	ret

00003e5e <main>:

char* format = "5343,%i,%i,%i,%li,%i.%i,%i.%i,%02i:%02i:%02i,%i.%li,%i.%li,%i.%i,%i,%i,%i,%i,%i,%i\n";


////////////////////////////// Functions ///////////////////////////////
int main(void){
    3e5e:	cf 93       	push	r28
    3e60:	df 93       	push	r29
    3e62:	cd b7       	in	r28, 0x3d	; 61
    3e64:	de b7       	in	r29, 0x3e	; 62
    3e66:	c8 56       	subi	r28, 0x68	; 104
    3e68:	d1 09       	sbc	r29, r1
    3e6a:	cd bf       	out	0x3d, r28	; 61
    3e6c:	de bf       	out	0x3e, r29	; 62
	system_init();
    3e6e:	5c dd       	rcall	.-1352   	; 0x3928 <system_init>
	//delay_ms(100);

	PORTD.DIR |= PIN3_bm;
    3e70:	e0 e6       	ldi	r30, 0x60	; 96
    3e72:	f6 e0       	ldi	r31, 0x06	; 6
    3e74:	80 81       	ld	r24, Z
    3e76:	88 60       	ori	r24, 0x08	; 8
    3e78:	80 83       	st	Z, r24
	PORTD.OUT |= PIN3_bm;
    3e7a:	84 81       	ldd	r24, Z+4	; 0x04
    3e7c:	88 60       	ori	r24, 0x08	; 8
    3e7e:	84 83       	std	Z+4, r24	; 0x04

	//printf("Initialized\n");
	//buzzer_init();

	int16_t alt_array[] = {0,0,0,0,0,0,0,0,0,0};
    3e80:	14 e1       	ldi	r17, 0x14	; 20
    3e82:	be 01       	movw	r22, r28
    3e84:	6f 5f       	subi	r22, 0xFF	; 255
    3e86:	7f 4f       	sbci	r23, 0xFF	; 255
    3e88:	fb 01       	movw	r30, r22
    3e8a:	81 2f       	mov	r24, r17
    3e8c:	11 92       	st	Z+, r1
    3e8e:	8a 95       	dec	r24
    3e90:	e9 f7       	brne	.-6      	; 0x3e8c <main+0x2e>
	RingBuffer16_t altitudes;	// in centimeters
	rb16_init(&altitudes, alt_array, (uint16_t) 10);
    3e92:	4a e0       	ldi	r20, 0x0A	; 10
    3e94:	50 e0       	ldi	r21, 0x00	; 0
    3e96:	ce 01       	movw	r24, r28
    3e98:	45 96       	adiw	r24, 0x15	; 21
    3e9a:	0e 94 ab 0e 	call	0x1d56	; 0x1d56 <rb16_init>

	int32_t press_array[] = {0,0,0,0,0,0,0,0,0,0};
    3e9e:	be 01       	movw	r22, r28
    3ea0:	63 5e       	subi	r22, 0xE3	; 227
    3ea2:	7f 4f       	sbci	r23, 0xFF	; 255
    3ea4:	88 e2       	ldi	r24, 0x28	; 40
    3ea6:	fb 01       	movw	r30, r22
    3ea8:	11 92       	st	Z+, r1
    3eaa:	8a 95       	dec	r24
    3eac:	e9 f7       	brne	.-6      	; 0x3ea8 <main+0x4a>
	RingBuffer32_t pressures;	// in Pascals / 10
	rb32_init(&pressures, press_array, (uint16_t) 10);
    3eae:	4a e0       	ldi	r20, 0x0A	; 10
    3eb0:	50 e0       	ldi	r21, 0x00	; 0
    3eb2:	ce 01       	movw	r24, r28
    3eb4:	8b 5b       	subi	r24, 0xBB	; 187
    3eb6:	9f 4f       	sbci	r25, 0xFF	; 255
    3eb8:	0e 94 33 0f 	call	0x1e66	; 0x1e66 <rb32_init>

	int16_t direct_array[] = {0,0,0,0,0,0,0,0,0,0};
    3ebc:	be 01       	movw	r22, r28
    3ebe:	63 5b       	subi	r22, 0xB3	; 179
    3ec0:	7f 4f       	sbci	r23, 0xFF	; 255
    3ec2:	fb 01       	movw	r30, r22
    3ec4:	11 92       	st	Z+, r1
    3ec6:	1a 95       	dec	r17
    3ec8:	e9 f7       	brne	.-6      	; 0x3ec4 <main+0x66>
	RingBuffer16_t directions;	// in hundredths degrees
	rb16_init(&directions, direct_array, (uint16_t) 10);
    3eca:	4a e0       	ldi	r20, 0x0A	; 10
    3ecc:	50 e0       	ldi	r21, 0x00	; 0
    3ece:	ce 01       	movw	r24, r28
    3ed0:	8f 59       	subi	r24, 0x9F	; 159
    3ed2:	9f 4f       	sbci	r25, 0xFF	; 255
    3ed4:	0e 94 ab 0e 	call	0x1d56	; 0x1d56 <rb16_init>

	uint8_t cam_initialized = 0;
	uint8_t buzzer_initialized = 0;
    3ed8:	00 e0       	ldi	r16, 0x00	; 0

	int16_t direct_array[] = {0,0,0,0,0,0,0,0,0,0};
	RingBuffer16_t directions;	// in hundredths degrees
	rb16_init(&directions, direct_array, (uint16_t) 10);

	uint8_t cam_initialized = 0;
    3eda:	10 e0       	ldi	r17, 0x00	; 0


	while(1){
		//printf("In Loop\n");
		// Check Sensors
		data_collect(&altitudes,&pressures);
    3edc:	be 01       	movw	r22, r28
    3ede:	6b 5b       	subi	r22, 0xBB	; 187
    3ee0:	7f 4f       	sbci	r23, 0xFF	; 255
    3ee2:	ce 01       	movw	r24, r28
    3ee4:	45 96       	adiw	r24, 0x15	; 21
    3ee6:	0e 94 61 13 	call	0x26c2	; 0x26c2 <data_collect>

		state_check();
    3eea:	0e 94 f7 13 	call	0x27ee	; 0x27ee <state_check>

		// IMU Check
		//imu_read();

		//Gives each flight state their unique tasks
		switch(state){
    3eee:	80 91 52 21 	lds	r24, 0x2152	; 0x802152 <state>
    3ef2:	81 30       	cpi	r24, 0x01	; 1
    3ef4:	31 f0       	breq	.+12     	; 0x3f02 <main+0xa4>
    3ef6:	c8 f1       	brcs	.+114    	; 0x3f6a <main+0x10c>
    3ef8:	82 30       	cpi	r24, 0x02	; 2
    3efa:	39 f0       	breq	.+14     	; 0x3f0a <main+0xac>
    3efc:	83 30       	cpi	r24, 0x03	; 3
    3efe:	79 f1       	breq	.+94     	; 0x3f5e <main+0x100>
    3f00:	32 c0       	rjmp	.+100    	; 0x3f66 <main+0x108>
			case 0:
				break;
			case 1:
				if(!cam_initialized){
    3f02:	11 11       	cpse	r17, r1
    3f04:	32 c0       	rjmp	.+100    	; 0x3f6a <main+0x10c>
					cam_initialized = 1;
    3f06:	11 e0       	ldi	r17, 0x01	; 1
    3f08:	30 c0       	rjmp	.+96     	; 0x3f6a <main+0x10c>
					//cam_switch();
				}
				break;
			case 2:
				if(!cam_initialized){
    3f0a:	11 11       	cpse	r17, r1
    3f0c:	01 c0       	rjmp	.+2      	; 0x3f10 <main+0xb2>
					cam_initialized = 1;
    3f0e:	11 e0       	ldi	r17, 0x01	; 1
					//cam_switch();
				}
				if(abs(alt-450)<EPSILON_ALTITUDE){
    3f10:	60 91 24 21 	lds	r22, 0x2124	; 0x802124 <alt>
    3f14:	70 91 25 21 	lds	r23, 0x2125	; 0x802125 <alt+0x1>
    3f18:	80 91 26 21 	lds	r24, 0x2126	; 0x802126 <alt+0x2>
    3f1c:	90 91 27 21 	lds	r25, 0x2127	; 0x802127 <alt+0x3>
    3f20:	20 e0       	ldi	r18, 0x00	; 0
    3f22:	30 e0       	ldi	r19, 0x00	; 0
    3f24:	41 ee       	ldi	r20, 0xE1	; 225
    3f26:	53 e4       	ldi	r21, 0x43	; 67
    3f28:	b1 d3       	rcall	.+1890   	; 0x468c <__subsf3>
    3f2a:	81 d4       	rcall	.+2306   	; 0x482e <__fixsfsi>
    3f2c:	9b 01       	movw	r18, r22
    3f2e:	77 23       	and	r23, r23
    3f30:	24 f4       	brge	.+8      	; 0x3f3a <main+0xdc>
    3f32:	22 27       	eor	r18, r18
    3f34:	33 27       	eor	r19, r19
    3f36:	26 1b       	sub	r18, r22
    3f38:	37 0b       	sbc	r19, r23
    3f3a:	2a 30       	cpi	r18, 0x0A	; 10
    3f3c:	31 05       	cpc	r19, r1
    3f3e:	2c f4       	brge	.+10     	; 0x3f4a <main+0xec>
	ac_enable(&ACA, 0);

}

void release(void){
	servo_release();
    3f40:	0e 94 41 16 	call	0x2c82	; 0x2c82 <servo_release>
					cam_initialized = 1;
					//cam_switch();
				}
				if(abs(alt-450)<EPSILON_ALTITUDE){
					release();				// Releases the payload
					hall_sensor_init();		// Starts hall effect sensor to read rpm
    3f44:	0e 94 48 10 	call	0x2090	; 0x2090 <hall_sensor_init>
    3f48:	10 c0       	rjmp	.+32     	; 0x3f6a <main+0x10c>
				}
				else if(released){
    3f4a:	80 91 51 21 	lds	r24, 0x2151	; 0x802151 <released>
    3f4e:	88 23       	and	r24, r24
    3f50:	61 f0       	breq	.+24     	; 0x3f6a <main+0x10c>
					servo_pid(&directions);	// Updates the PID
    3f52:	ce 01       	movw	r24, r28
    3f54:	8f 59       	subi	r24, 0x9F	; 159
    3f56:	9f 4f       	sbci	r25, 0xFF	; 255
    3f58:	0e 94 30 15 	call	0x2a60	; 0x2a60 <servo_pid>
    3f5c:	06 c0       	rjmp	.+12     	; 0x3f6a <main+0x10c>
				}
				break;
			case 3:
				if(!buzzer_initialized){
    3f5e:	01 11       	cpse	r16, r1
    3f60:	04 c0       	rjmp	.+8      	; 0x3f6a <main+0x10c>
					//buzzer_init();
					buzzer_initialized = 1;
    3f62:	01 e0       	ldi	r16, 0x01	; 1
    3f64:	02 c0       	rjmp	.+4      	; 0x3f6a <main+0x10c>
				}
				break;
			default:
				state_check();
    3f66:	0e 94 f7 13 	call	0x27ee	; 0x27ee <state_check>
				break;
		}

		if(time_flag){
    3f6a:	80 91 50 21 	lds	r24, 0x2150	; 0x802150 <time_flag>
    3f6e:	88 23       	and	r24, r24
			calc_rpm();
    3f70:	29 f0       	breq	.+10     	; 0x3f7c <main+0x11e>
    3f72:	0e 94 d3 15 	call	0x2ba6	; 0x2ba6 <calc_rpm>
			time_update();
    3f76:	81 da       	rcall	.-2814   	; 0x347a <time_update>
			time_flag = 0;
    3f78:	10 92 50 21 	sts	0x2150, r1	; 0x802150 <time_flag>
		}
		if(xbee_flag){
    3f7c:	80 91 4f 21 	lds	r24, 0x214F	; 0x80214f <xbee_flag>
    3f80:	88 23       	and	r24, r24
			command(xbee_comm);
    3f82:	39 f0       	breq	.+14     	; 0x3f92 <main+0x134>
    3f84:	80 91 42 21 	lds	r24, 0x2142	; 0x802142 <xbee_comm>
    3f88:	49 df       	rcall	.-366    	; 0x3e1c <command>
			xbee_comm = 0;
    3f8a:	10 92 42 21 	sts	0x2142, r1	; 0x802142 <xbee_comm>
			xbee_flag = 0;
    3f8e:	10 92 4f 21 	sts	0x214F, r1	; 0x80214f <xbee_flag>
		}

		data_packets++;
    3f92:	80 91 32 21 	lds	r24, 0x2132	; 0x802132 <data_packets>
    3f96:	90 91 33 21 	lds	r25, 0x2133	; 0x802133 <data_packets+0x1>
    3f9a:	01 96       	adiw	r24, 0x01	; 1
    3f9c:	80 93 32 21 	sts	0x2132, r24	; 0x802132 <data_packets>
    3fa0:	90 93 33 21 	sts	0x2133, r25	; 0x802133 <data_packets+0x1>
		if(timer != 0){
    3fa4:	80 91 34 21 	lds	r24, 0x2134	; 0x802134 <timer>
    3fa8:	90 91 35 21 	lds	r25, 0x2135	; 0x802135 <timer+0x1>
    3fac:	89 2b       	or	r24, r25
    3fae:	09 f4       	brne	.+2      	; 0x3fb2 <main+0x154>
    3fb0:	95 cf       	rjmp	.-214    	; 0x3edc <main+0x7e>
			rate = data_packets / timer;
    3fb2:	80 91 32 21 	lds	r24, 0x2132	; 0x802132 <data_packets>
    3fb6:	90 91 33 21 	lds	r25, 0x2133	; 0x802133 <data_packets+0x1>
    3fba:	60 91 34 21 	lds	r22, 0x2134	; 0x802134 <timer>
    3fbe:	70 91 35 21 	lds	r23, 0x2135	; 0x802135 <timer+0x1>
    3fc2:	f3 d6       	rcall	.+3558   	; 0x4daa <__udivmodhi4>
    3fc4:	60 93 17 20 	sts	0x2017, r22	; 0x802017 <rate>
    3fc8:	70 93 18 20 	sts	0x2018, r23	; 0x802018 <rate+0x1>
    3fcc:	87 cf       	rjmp	.-242    	; 0x3edc <main+0x7e>

00003fce <__vector_47>:
	NVM.CTRLA = CTRLA_CMDEX_BYTE;
	while(NVM.STATUS>>7);
}


ISR(TCE0_OVF_vect){
    3fce:	1f 92       	push	r1
    3fd0:	0f 92       	push	r0
    3fd2:	0f b6       	in	r0, 0x3f	; 63
    3fd4:	0f 92       	push	r0
    3fd6:	11 24       	eor	r1, r1
    3fd8:	08 b6       	in	r0, 0x38	; 56
    3fda:	0f 92       	push	r0
    3fdc:	18 be       	out	0x38, r1	; 56
    3fde:	8f 93       	push	r24
    3fe0:	9f 93       	push	r25
	timer++;
    3fe2:	80 91 34 21 	lds	r24, 0x2134	; 0x802134 <timer>
    3fe6:	90 91 35 21 	lds	r25, 0x2135	; 0x802135 <timer+0x1>
    3fea:	01 96       	adiw	r24, 0x01	; 1
    3fec:	80 93 34 21 	sts	0x2134, r24	; 0x802134 <timer>
    3ff0:	90 93 35 21 	sts	0x2135, r25	; 0x802135 <timer+0x1>
	time_flag = 1;
    3ff4:	81 e0       	ldi	r24, 0x01	; 1
    3ff6:	80 93 50 21 	sts	0x2150, r24	; 0x802150 <time_flag>
}
    3ffa:	9f 91       	pop	r25
    3ffc:	8f 91       	pop	r24
    3ffe:	0f 90       	pop	r0
    4000:	08 be       	out	0x38, r0	; 56
    4002:	0f 90       	pop	r0
    4004:	0f be       	out	0x3f, r0	; 63
    4006:	0f 90       	pop	r0
    4008:	1f 90       	pop	r1
    400a:	18 95       	reti

0000400c <__vector_58>:


ISR(USARTE0_RXC_vect){
    400c:	1f 92       	push	r1
    400e:	0f 92       	push	r0
    4010:	0f b6       	in	r0, 0x3f	; 63
    4012:	0f 92       	push	r0
    4014:	11 24       	eor	r1, r1
    4016:	08 b6       	in	r0, 0x38	; 56
    4018:	0f 92       	push	r0
    401a:	18 be       	out	0x38, r1	; 56
    401c:	09 b6       	in	r0, 0x39	; 57
    401e:	0f 92       	push	r0
    4020:	19 be       	out	0x39, r1	; 57
    4022:	0b b6       	in	r0, 0x3b	; 59
    4024:	0f 92       	push	r0
    4026:	1b be       	out	0x3b, r1	; 59
    4028:	2f 93       	push	r18
    402a:	3f 93       	push	r19
    402c:	4f 93       	push	r20
    402e:	5f 93       	push	r21
    4030:	6f 93       	push	r22
    4032:	7f 93       	push	r23
    4034:	8f 93       	push	r24
    4036:	9f 93       	push	r25
    4038:	af 93       	push	r26
    403a:	bf 93       	push	r27
    403c:	ef 93       	push	r30
    403e:	ff 93       	push	r31
	xbee_comm = usart_getchar(UART_TERMINAL_SERIAL);
    4040:	80 ea       	ldi	r24, 0xA0	; 160
    4042:	9a e0       	ldi	r25, 0x0A	; 10
    4044:	0e 94 8a 0a 	call	0x1514	; 0x1514 <usart_getchar>
    4048:	80 93 42 21 	sts	0x2142, r24	; 0x802142 <xbee_comm>
	xbee_flag = 1;
    404c:	81 e0       	ldi	r24, 0x01	; 1
    404e:	80 93 4f 21 	sts	0x214F, r24	; 0x80214f <xbee_flag>
}
    4052:	ff 91       	pop	r31
    4054:	ef 91       	pop	r30
    4056:	bf 91       	pop	r27
    4058:	af 91       	pop	r26
    405a:	9f 91       	pop	r25
    405c:	8f 91       	pop	r24
    405e:	7f 91       	pop	r23
    4060:	6f 91       	pop	r22
    4062:	5f 91       	pop	r21
    4064:	4f 91       	pop	r20
    4066:	3f 91       	pop	r19
    4068:	2f 91       	pop	r18
    406a:	0f 90       	pop	r0
    406c:	0b be       	out	0x3b, r0	; 59
    406e:	0f 90       	pop	r0
    4070:	09 be       	out	0x39, r0	; 57
    4072:	0f 90       	pop	r0
    4074:	08 be       	out	0x38, r0	; 56
    4076:	0f 90       	pop	r0
    4078:	0f be       	out	0x3f, r0	; 63
    407a:	0f 90       	pop	r0
    407c:	1f 90       	pop	r1
    407e:	18 95       	reti

00004080 <__vector_91>:


// GPS recording
ISR(USARTD1_RXC_vect){
    4080:	1f 92       	push	r1
    4082:	0f 92       	push	r0
    4084:	0f b6       	in	r0, 0x3f	; 63
    4086:	0f 92       	push	r0
    4088:	11 24       	eor	r1, r1
    408a:	08 b6       	in	r0, 0x38	; 56
    408c:	0f 92       	push	r0
    408e:	18 be       	out	0x38, r1	; 56
    4090:	09 b6       	in	r0, 0x39	; 57
    4092:	0f 92       	push	r0
    4094:	19 be       	out	0x39, r1	; 57
    4096:	0a b6       	in	r0, 0x3a	; 58
    4098:	0f 92       	push	r0
    409a:	1a be       	out	0x3a, r1	; 58
    409c:	0b b6       	in	r0, 0x3b	; 59
    409e:	0f 92       	push	r0
    40a0:	1b be       	out	0x3b, r1	; 59
    40a2:	8f 92       	push	r8
    40a4:	9f 92       	push	r9
    40a6:	af 92       	push	r10
    40a8:	bf 92       	push	r11
    40aa:	cf 92       	push	r12
    40ac:	df 92       	push	r13
    40ae:	ef 92       	push	r14
    40b0:	ff 92       	push	r15
    40b2:	1f 93       	push	r17
    40b4:	2f 93       	push	r18
    40b6:	3f 93       	push	r19
    40b8:	4f 93       	push	r20
    40ba:	5f 93       	push	r21
    40bc:	6f 93       	push	r22
    40be:	7f 93       	push	r23
    40c0:	8f 93       	push	r24
    40c2:	9f 93       	push	r25
    40c4:	af 93       	push	r26
    40c6:	bf 93       	push	r27
    40c8:	ef 93       	push	r30
    40ca:	ff 93       	push	r31
    40cc:	cf 93       	push	r28
    40ce:	df 93       	push	r29
    40d0:	00 d0       	rcall	.+0      	; 0x40d2 <__vector_91+0x52>
    40d2:	00 d0       	rcall	.+0      	; 0x40d4 <__vector_91+0x54>
    40d4:	cd b7       	in	r28, 0x3d	; 61
    40d6:	de b7       	in	r29, 0x3e	; 62
	uint8_t c = usart_getchar(GPS_TERMINAL_SERIAL);
    40d8:	80 eb       	ldi	r24, 0xB0	; 176
    40da:	99 e0       	ldi	r25, 0x09	; 9
    40dc:	0e 94 8a 0a 	call	0x1514	; 0x1514 <usart_getchar>
    40e0:	18 2f       	mov	r17, r24
	//printf("%c",c);

	if(c == (uint8_t) '$'){
    40e2:	84 32       	cpi	r24, 0x24	; 36
    40e4:	51 f4       	brne	.+20     	; 0x40fa <__vector_91+0x7a>
		writing = 1;
    40e6:	81 e0       	ldi	r24, 0x01	; 1
    40e8:	80 93 3b 21 	sts	0x213B, r24	; 0x80213b <writing>
		pos = 0;
    40ec:	10 92 3a 21 	sts	0x213A, r1	; 0x80213a <pos>
		word_pos = 0;
    40f0:	10 92 39 21 	sts	0x2139, r1	; 0x802139 <word_pos>
		commas = 0;
    40f4:	10 92 38 21 	sts	0x2138, r1	; 0x802138 <commas>
    40f8:	5a c2       	rjmp	.+1204   	; 0x45ae <__vector_91+0x52e>
	}
	else if(c == (uint8_t) '*'){
    40fa:	8a 32       	cpi	r24, 0x2A	; 42
    40fc:	29 f4       	brne	.+10     	; 0x4108 <__vector_91+0x88>
		commas = 0;
    40fe:	10 92 38 21 	sts	0x2138, r1	; 0x802138 <commas>
		writing = 0;
    4102:	10 92 3b 21 	sts	0x213B, r1	; 0x80213b <writing>
    4106:	53 c2       	rjmp	.+1190   	; 0x45ae <__vector_91+0x52e>
	}
	else if(c == (uint8_t) ','){
    4108:	8c 32       	cpi	r24, 0x2C	; 44
    410a:	09 f0       	breq	.+2      	; 0x410e <__vector_91+0x8e>
    410c:	50 c2       	rjmp	.+1184   	; 0x45ae <__vector_91+0x52e>
		gps[0] = 32;
    410e:	ec e8       	ldi	r30, 0x8C	; 140
    4110:	f1 e2       	ldi	r31, 0x21	; 33
    4112:	80 e2       	ldi	r24, 0x20	; 32
    4114:	80 83       	st	Z, r24
		if(gps[1] == 32){
    4116:	81 81       	ldd	r24, Z+1	; 0x01
    4118:	80 32       	cpi	r24, 0x20	; 32
    411a:	09 f0       	breq	.+2      	; 0x411e <__vector_91+0x9e>
    411c:	77 c2       	rjmp	.+1262   	; 0x460c <__vector_91+0x58c>
			gps[0] = '0';
    411e:	80 e3       	ldi	r24, 0x30	; 48
    4120:	80 93 8c 21 	sts	0x218C, r24	; 0x80218c <gps>
    4124:	73 c2       	rjmp	.+1254   	; 0x460c <__vector_91+0x58c>
			case 7:			//Sats
				sscanf(gps,"%d",&gps_sats);
				break;
			case 9:			//Altitude
				for(uint8_t i = 0; i < 15; i++){
					if(gps[i] == (uint8_t) '.'){
    4126:	80 91 8c 21 	lds	r24, 0x218C	; 0x80218c <gps>
    412a:	8e 32       	cpi	r24, 0x2E	; 46
    412c:	09 f0       	breq	.+2      	; 0x4130 <__vector_91+0xb0>
    412e:	a3 c1       	rjmp	.+838    	; 0x4476 <__vector_91+0x3f6>
    4130:	a9 c1       	rjmp	.+850    	; 0x4484 <__vector_91+0x404>
				sscanf(dec,"%d",&val2);
				gps_lat = val/100 + ((double)(val%100) + ((double)(val2))/10000) / 60.0;
				break;
			case 4:			//Longitude
				for(uint8_t i = 0; i < 15; i++){
					if(gps[i] == (uint8_t) '.'){
    4132:	80 91 8c 21 	lds	r24, 0x218C	; 0x80218c <gps>
    4136:	8e 32       	cpi	r24, 0x2E	; 46
    4138:	09 f0       	breq	.+2      	; 0x413c <__vector_91+0xbc>
    413a:	ef c0       	rjmp	.+478    	; 0x431a <__vector_91+0x29a>
    413c:	f5 c0       	rjmp	.+490    	; 0x4328 <__vector_91+0x2a8>
				sscanf(gps,"%ld",&val);
				gps_t = (double) val;
				break;
			case 2:			//Latitude
				for(uint8_t i = 0; i < 15; i++){
					if(gps[i] == (uint8_t) '.'){
    413e:	80 91 8c 21 	lds	r24, 0x218C	; 0x80218c <gps>
    4142:	8e 32       	cpi	r24, 0x2E	; 46
    4144:	09 f0       	breq	.+2      	; 0x4148 <__vector_91+0xc8>
    4146:	52 c0       	rjmp	.+164    	; 0x41ec <__vector_91+0x16c>
    4148:	58 c0       	rjmp	.+176    	; 0x41fa <__vector_91+0x17a>
		int32_t val = 0;
		int16_t val2 = 0;
		switch(commas){
			case 1:			//Time
				for(uint8_t i = 0; i < 15; i++){
					if(gps[i] == (uint8_t) '.'){
    414a:	91 91       	ld	r25, Z+
    414c:	9e 32       	cpi	r25, 0x2E	; 46
    414e:	29 f4       	brne	.+10     	; 0x415a <__vector_91+0xda>
    4150:	01 c0       	rjmp	.+2      	; 0x4154 <__vector_91+0xd4>
    4152:	80 e0       	ldi	r24, 0x00	; 0
						idx = i;
    4154:	80 93 37 21 	sts	0x2137, r24	; 0x802137 <idx>
						break;
    4158:	03 c0       	rjmp	.+6      	; 0x4160 <__vector_91+0xe0>
		}
		int32_t val = 0;
		int16_t val2 = 0;
		switch(commas){
			case 1:			//Time
				for(uint8_t i = 0; i < 15; i++){
    415a:	8f 5f       	subi	r24, 0xFF	; 255
    415c:	8f 30       	cpi	r24, 0x0F	; 15
    415e:	a9 f7       	brne	.-22     	; 0x414a <__vector_91+0xca>
					if(gps[i] == (uint8_t) '.'){
						idx = i;
						break;
					}
				}
				gps[idx] = 32;
    4160:	e0 91 37 21 	lds	r30, 0x2137	; 0x802137 <idx>
    4164:	f0 e0       	ldi	r31, 0x00	; 0
    4166:	e4 57       	subi	r30, 0x74	; 116
    4168:	fe 4d       	sbci	r31, 0xDE	; 222
    416a:	80 e2       	ldi	r24, 0x20	; 32
    416c:	80 83       	st	Z, r24
				for(uint8_t i = idx+1; i < 15; i++){
    416e:	20 91 37 21 	lds	r18, 0x2137	; 0x802137 <idx>
    4172:	2f 5f       	subi	r18, 0xFF	; 255
    4174:	2f 30       	cpi	r18, 0x0F	; 15
    4176:	c8 f4       	brcc	.+50     	; 0x41aa <__vector_91+0x12a>
					if(gps[i] == 32){
    4178:	82 2f       	mov	r24, r18
    417a:	90 e0       	ldi	r25, 0x00	; 0
    417c:	fc 01       	movw	r30, r24
    417e:	e4 57       	subi	r30, 0x74	; 116
    4180:	fe 4d       	sbci	r31, 0xDE	; 222
    4182:	30 81       	ld	r19, Z
    4184:	30 32       	cpi	r19, 0x20	; 32
    4186:	89 f0       	breq	.+34     	; 0x41aa <__vector_91+0x12a>
						break;
					}
					gps[i] = 32;
    4188:	40 e2       	ldi	r20, 0x20	; 32
    418a:	08 c0       	rjmp	.+16     	; 0x419c <__vector_91+0x11c>
						break;
					}
				}
				gps[idx] = 32;
				for(uint8_t i = idx+1; i < 15; i++){
					if(gps[i] == 32){
    418c:	82 2f       	mov	r24, r18
    418e:	90 e0       	ldi	r25, 0x00	; 0
    4190:	fc 01       	movw	r30, r24
    4192:	e4 57       	subi	r30, 0x74	; 116
    4194:	fe 4d       	sbci	r31, 0xDE	; 222
    4196:	30 81       	ld	r19, Z
    4198:	30 32       	cpi	r19, 0x20	; 32
    419a:	39 f0       	breq	.+14     	; 0x41aa <__vector_91+0x12a>
						break;
					}
					gps[i] = 32;
    419c:	fc 01       	movw	r30, r24
    419e:	e4 57       	subi	r30, 0x74	; 116
    41a0:	fe 4d       	sbci	r31, 0xDE	; 222
    41a2:	40 83       	st	Z, r20
						idx = i;
						break;
					}
				}
				gps[idx] = 32;
				for(uint8_t i = idx+1; i < 15; i++){
    41a4:	2f 5f       	subi	r18, 0xFF	; 255
    41a6:	2f 30       	cpi	r18, 0x0F	; 15
    41a8:	89 f7       	brne	.-30     	; 0x418c <__vector_91+0x10c>
					if(gps[i] == 32){
						break;
					}
					gps[i] = 32;
				}
				sscanf(gps,"%ld",&val);
    41aa:	ce 01       	movw	r24, r28
    41ac:	01 96       	adiw	r24, 0x01	; 1
    41ae:	9f 93       	push	r25
    41b0:	8f 93       	push	r24
    41b2:	8e e5       	ldi	r24, 0x5E	; 94
    41b4:	90 e2       	ldi	r25, 0x20	; 32
    41b6:	9f 93       	push	r25
    41b8:	8f 93       	push	r24
    41ba:	8c e8       	ldi	r24, 0x8C	; 140
    41bc:	91 e2       	ldi	r25, 0x21	; 33
    41be:	9f 93       	push	r25
    41c0:	8f 93       	push	r24
    41c2:	36 d7       	rcall	.+3692   	; 0x5030 <sscanf>
				gps_t = (double) val;
    41c4:	69 81       	ldd	r22, Y+1	; 0x01
    41c6:	7a 81       	ldd	r23, Y+2	; 0x02
    41c8:	8b 81       	ldd	r24, Y+3	; 0x03
    41ca:	9c 81       	ldd	r25, Y+4	; 0x04
    41cc:	63 d3       	rcall	.+1734   	; 0x4894 <__floatsisf>
    41ce:	60 93 18 21 	sts	0x2118, r22	; 0x802118 <gps_t>
    41d2:	70 93 19 21 	sts	0x2119, r23	; 0x802119 <gps_t+0x1>
    41d6:	80 93 1a 21 	sts	0x211A, r24	; 0x80211a <gps_t+0x2>
    41da:	90 93 1b 21 	sts	0x211B, r25	; 0x80211b <gps_t+0x3>
				break;
    41de:	0f 90       	pop	r0
    41e0:	0f 90       	pop	r0
    41e2:	0f 90       	pop	r0
    41e4:	0f 90       	pop	r0
    41e6:	0f 90       	pop	r0
    41e8:	0f 90       	pop	r0
    41ea:	c3 c1       	rjmp	.+902    	; 0x4572 <__vector_91+0x4f2>
    41ec:	ed e8       	ldi	r30, 0x8D	; 141
    41ee:	f1 e2       	ldi	r31, 0x21	; 33
			case 2:			//Latitude
				for(uint8_t i = 0; i < 15; i++){
    41f0:	81 e0       	ldi	r24, 0x01	; 1
					if(gps[i] == (uint8_t) '.'){
    41f2:	91 91       	ld	r25, Z+
    41f4:	9e 32       	cpi	r25, 0x2E	; 46
    41f6:	29 f4       	brne	.+10     	; 0x4202 <__vector_91+0x182>
    41f8:	01 c0       	rjmp	.+2      	; 0x41fc <__vector_91+0x17c>
    41fa:	80 e0       	ldi	r24, 0x00	; 0
						idx = i;
    41fc:	80 93 37 21 	sts	0x2137, r24	; 0x802137 <idx>
						break;
    4200:	03 c0       	rjmp	.+6      	; 0x4208 <__vector_91+0x188>
				}
				sscanf(gps,"%ld",&val);
				gps_t = (double) val;
				break;
			case 2:			//Latitude
				for(uint8_t i = 0; i < 15; i++){
    4202:	8f 5f       	subi	r24, 0xFF	; 255
    4204:	8f 30       	cpi	r24, 0x0F	; 15
    4206:	a9 f7       	brne	.-22     	; 0x41f2 <__vector_91+0x172>
					if(gps[i] == (uint8_t) '.'){
						idx = i;
						break;
					}
				}
				gps[idx] = 32;
    4208:	e0 91 37 21 	lds	r30, 0x2137	; 0x802137 <idx>
    420c:	f0 e0       	ldi	r31, 0x00	; 0
    420e:	e4 57       	subi	r30, 0x74	; 116
    4210:	fe 4d       	sbci	r31, 0xDE	; 222
    4212:	80 e2       	ldi	r24, 0x20	; 32
    4214:	80 83       	st	Z, r24
				for(uint8_t i = idx+1; i < 15; i++){
    4216:	20 91 37 21 	lds	r18, 0x2137	; 0x802137 <idx>
    421a:	2f 5f       	subi	r18, 0xFF	; 255
    421c:	2f 30       	cpi	r18, 0x0F	; 15
    421e:	08 f5       	brcc	.+66     	; 0x4262 <__vector_91+0x1e2>
					if(gps[i] == 32){
    4220:	82 2f       	mov	r24, r18
    4222:	90 e0       	ldi	r25, 0x00	; 0
    4224:	fc 01       	movw	r30, r24
    4226:	e4 57       	subi	r30, 0x74	; 116
    4228:	fe 4d       	sbci	r31, 0xDE	; 222
    422a:	30 81       	ld	r19, Z
    422c:	30 32       	cpi	r19, 0x20	; 32
    422e:	c9 f0       	breq	.+50     	; 0x4262 <__vector_91+0x1e2>
						break;
					}
					dec[i-idx-1] = gps[i];
					gps[i] = 32;
    4230:	50 e2       	ldi	r21, 0x20	; 32
    4232:	08 c0       	rjmp	.+16     	; 0x4244 <__vector_91+0x1c4>
						break;
					}
				}
				gps[idx] = 32;
				for(uint8_t i = idx+1; i < 15; i++){
					if(gps[i] == 32){
    4234:	82 2f       	mov	r24, r18
    4236:	90 e0       	ldi	r25, 0x00	; 0
    4238:	fc 01       	movw	r30, r24
    423a:	e4 57       	subi	r30, 0x74	; 116
    423c:	fe 4d       	sbci	r31, 0xDE	; 222
    423e:	30 81       	ld	r19, Z
    4240:	30 32       	cpi	r19, 0x20	; 32
    4242:	79 f0       	breq	.+30     	; 0x4262 <__vector_91+0x1e2>
						break;
					}
					dec[i-idx-1] = gps[i];
    4244:	40 91 37 21 	lds	r20, 0x2137	; 0x802137 <idx>
    4248:	fc 01       	movw	r30, r24
    424a:	e4 1b       	sub	r30, r20
    424c:	f1 09       	sbc	r31, r1
    424e:	e6 56       	subi	r30, 0x66	; 102
    4250:	fe 4d       	sbci	r31, 0xDE	; 222
    4252:	30 83       	st	Z, r19
					gps[i] = 32;
    4254:	fc 01       	movw	r30, r24
    4256:	e4 57       	subi	r30, 0x74	; 116
    4258:	fe 4d       	sbci	r31, 0xDE	; 222
    425a:	50 83       	st	Z, r21
						idx = i;
						break;
					}
				}
				gps[idx] = 32;
				for(uint8_t i = idx+1; i < 15; i++){
    425c:	2f 5f       	subi	r18, 0xFF	; 255
    425e:	2f 30       	cpi	r18, 0x0F	; 15
    4260:	49 f7       	brne	.-46     	; 0x4234 <__vector_91+0x1b4>
						break;
					}
					dec[i-idx-1] = gps[i];
					gps[i] = 32;
				}
				if(dec[0] == 32){
    4262:	80 91 9b 21 	lds	r24, 0x219B	; 0x80219b <dec>
    4266:	80 32       	cpi	r24, 0x20	; 32
    4268:	19 f4       	brne	.+6      	; 0x4270 <__vector_91+0x1f0>
					dec[0] = '0';
    426a:	80 e3       	ldi	r24, 0x30	; 48
    426c:	80 93 9b 21 	sts	0x219B, r24	; 0x80219b <dec>
				}
				sscanf(gps,"%ld",&val);
    4270:	ce 01       	movw	r24, r28
    4272:	01 96       	adiw	r24, 0x01	; 1
    4274:	9f 93       	push	r25
    4276:	8f 93       	push	r24
    4278:	8e e5       	ldi	r24, 0x5E	; 94
    427a:	90 e2       	ldi	r25, 0x20	; 32
    427c:	9f 93       	push	r25
    427e:	8f 93       	push	r24
    4280:	8c e8       	ldi	r24, 0x8C	; 140
    4282:	91 e2       	ldi	r25, 0x21	; 33
    4284:	9f 93       	push	r25
    4286:	8f 93       	push	r24
    4288:	d3 d6       	rcall	.+3494   	; 0x5030 <sscanf>
				sscanf(dec,"%d",&val2);
    428a:	ce 01       	movw	r24, r28
    428c:	05 96       	adiw	r24, 0x05	; 5
    428e:	9f 93       	push	r25
    4290:	8f 93       	push	r24
    4292:	82 e6       	ldi	r24, 0x62	; 98
    4294:	90 e2       	ldi	r25, 0x20	; 32
    4296:	9f 93       	push	r25
    4298:	8f 93       	push	r24
    429a:	8b e9       	ldi	r24, 0x9B	; 155
    429c:	91 e2       	ldi	r25, 0x21	; 33
    429e:	9f 93       	push	r25
    42a0:	8f 93       	push	r24
    42a2:	c6 d6       	rcall	.+3468   	; 0x5030 <sscanf>
				gps_lat = val/100 + ((double)(val%100) + ((double)(val2))/10000) / 60.0;
    42a4:	89 80       	ldd	r8, Y+1	; 0x01
    42a6:	9a 80       	ldd	r9, Y+2	; 0x02
    42a8:	ab 80       	ldd	r10, Y+3	; 0x03
    42aa:	bc 80       	ldd	r11, Y+4	; 0x04
    42ac:	6d 81       	ldd	r22, Y+5	; 0x05
    42ae:	7e 81       	ldd	r23, Y+6	; 0x06
    42b0:	07 2e       	mov	r0, r23
    42b2:	00 0c       	add	r0, r0
    42b4:	88 0b       	sbc	r24, r24
    42b6:	99 0b       	sbc	r25, r25
    42b8:	ed d2       	rcall	.+1498   	; 0x4894 <__floatsisf>
    42ba:	20 e0       	ldi	r18, 0x00	; 0
    42bc:	30 e4       	ldi	r19, 0x40	; 64
    42be:	4c e1       	ldi	r20, 0x1C	; 28
    42c0:	56 e4       	ldi	r21, 0x46	; 70
    42c2:	4d d2       	rcall	.+1178   	; 0x475e <__divsf3>
    42c4:	6b 01       	movw	r12, r22
    42c6:	7c 01       	movw	r14, r24
    42c8:	c5 01       	movw	r24, r10
    42ca:	b4 01       	movw	r22, r8
    42cc:	24 e6       	ldi	r18, 0x64	; 100
    42ce:	30 e0       	ldi	r19, 0x00	; 0
    42d0:	40 e0       	ldi	r20, 0x00	; 0
    42d2:	50 e0       	ldi	r21, 0x00	; 0
    42d4:	b3 d5       	rcall	.+2918   	; 0x4e3c <__divmodsi4>
    42d6:	49 01       	movw	r8, r18
    42d8:	5a 01       	movw	r10, r20
    42da:	dc d2       	rcall	.+1464   	; 0x4894 <__floatsisf>
    42dc:	9b 01       	movw	r18, r22
    42de:	ac 01       	movw	r20, r24
    42e0:	c7 01       	movw	r24, r14
    42e2:	b6 01       	movw	r22, r12
    42e4:	d4 d1       	rcall	.+936    	; 0x468e <__addsf3>
    42e6:	20 e0       	ldi	r18, 0x00	; 0
    42e8:	30 e0       	ldi	r19, 0x00	; 0
    42ea:	40 e7       	ldi	r20, 0x70	; 112
    42ec:	52 e4       	ldi	r21, 0x42	; 66
    42ee:	37 d2       	rcall	.+1134   	; 0x475e <__divsf3>
    42f0:	6b 01       	movw	r12, r22
    42f2:	7c 01       	movw	r14, r24
    42f4:	c5 01       	movw	r24, r10
    42f6:	b4 01       	movw	r22, r8
    42f8:	cd d2       	rcall	.+1434   	; 0x4894 <__floatsisf>
    42fa:	9b 01       	movw	r18, r22
    42fc:	ac 01       	movw	r20, r24
    42fe:	c7 01       	movw	r24, r14
    4300:	b6 01       	movw	r22, r12
    4302:	c5 d1       	rcall	.+906    	; 0x468e <__addsf3>
    4304:	60 93 14 21 	sts	0x2114, r22	; 0x802114 <gps_lat>
    4308:	70 93 15 21 	sts	0x2115, r23	; 0x802115 <gps_lat+0x1>
    430c:	80 93 16 21 	sts	0x2116, r24	; 0x802116 <gps_lat+0x2>
    4310:	90 93 17 21 	sts	0x2117, r25	; 0x802117 <gps_lat+0x3>
				break;
    4314:	cd bf       	out	0x3d, r28	; 61
    4316:	de bf       	out	0x3e, r29	; 62
    4318:	2c c1       	rjmp	.+600    	; 0x4572 <__vector_91+0x4f2>
    431a:	ed e8       	ldi	r30, 0x8D	; 141
    431c:	f1 e2       	ldi	r31, 0x21	; 33
			case 4:			//Longitude
				for(uint8_t i = 0; i < 15; i++){
    431e:	81 e0       	ldi	r24, 0x01	; 1
					if(gps[i] == (uint8_t) '.'){
    4320:	91 91       	ld	r25, Z+
    4322:	9e 32       	cpi	r25, 0x2E	; 46
    4324:	29 f4       	brne	.+10     	; 0x4330 <__vector_91+0x2b0>
    4326:	01 c0       	rjmp	.+2      	; 0x432a <__vector_91+0x2aa>
    4328:	80 e0       	ldi	r24, 0x00	; 0
						idx = i;
    432a:	80 93 37 21 	sts	0x2137, r24	; 0x802137 <idx>
						break;
    432e:	03 c0       	rjmp	.+6      	; 0x4336 <__vector_91+0x2b6>
				sscanf(gps,"%ld",&val);
				sscanf(dec,"%d",&val2);
				gps_lat = val/100 + ((double)(val%100) + ((double)(val2))/10000) / 60.0;
				break;
			case 4:			//Longitude
				for(uint8_t i = 0; i < 15; i++){
    4330:	8f 5f       	subi	r24, 0xFF	; 255
    4332:	8f 30       	cpi	r24, 0x0F	; 15
    4334:	a9 f7       	brne	.-22     	; 0x4320 <__vector_91+0x2a0>
					if(gps[i] == (uint8_t) '.'){
						idx = i;
						break;
					}
				}
				gps[idx] = 32;
    4336:	e0 91 37 21 	lds	r30, 0x2137	; 0x802137 <idx>
    433a:	f0 e0       	ldi	r31, 0x00	; 0
    433c:	e4 57       	subi	r30, 0x74	; 116
    433e:	fe 4d       	sbci	r31, 0xDE	; 222
    4340:	80 e2       	ldi	r24, 0x20	; 32
    4342:	80 83       	st	Z, r24
				for(uint8_t i = idx+1; i < 15; i++){
    4344:	20 91 37 21 	lds	r18, 0x2137	; 0x802137 <idx>
    4348:	2f 5f       	subi	r18, 0xFF	; 255
    434a:	2f 30       	cpi	r18, 0x0F	; 15
    434c:	08 f5       	brcc	.+66     	; 0x4390 <__vector_91+0x310>
					if(gps[i] == 32){
    434e:	82 2f       	mov	r24, r18
    4350:	90 e0       	ldi	r25, 0x00	; 0
    4352:	fc 01       	movw	r30, r24
    4354:	e4 57       	subi	r30, 0x74	; 116
    4356:	fe 4d       	sbci	r31, 0xDE	; 222
    4358:	30 81       	ld	r19, Z
    435a:	30 32       	cpi	r19, 0x20	; 32
    435c:	c9 f0       	breq	.+50     	; 0x4390 <__vector_91+0x310>
						break;
					}
					dec[i-idx-1] = gps[i];
					gps[i] = 32;
    435e:	50 e2       	ldi	r21, 0x20	; 32
    4360:	08 c0       	rjmp	.+16     	; 0x4372 <__vector_91+0x2f2>
						break;
					}
				}
				gps[idx] = 32;
				for(uint8_t i = idx+1; i < 15; i++){
					if(gps[i] == 32){
    4362:	82 2f       	mov	r24, r18
    4364:	90 e0       	ldi	r25, 0x00	; 0
    4366:	fc 01       	movw	r30, r24
    4368:	e4 57       	subi	r30, 0x74	; 116
    436a:	fe 4d       	sbci	r31, 0xDE	; 222
    436c:	30 81       	ld	r19, Z
    436e:	30 32       	cpi	r19, 0x20	; 32
    4370:	79 f0       	breq	.+30     	; 0x4390 <__vector_91+0x310>
						break;
					}
					dec[i-idx-1] = gps[i];
    4372:	40 91 37 21 	lds	r20, 0x2137	; 0x802137 <idx>
    4376:	fc 01       	movw	r30, r24
    4378:	e4 1b       	sub	r30, r20
    437a:	f1 09       	sbc	r31, r1
    437c:	e6 56       	subi	r30, 0x66	; 102
    437e:	fe 4d       	sbci	r31, 0xDE	; 222
    4380:	30 83       	st	Z, r19
					gps[i] = 32;
    4382:	fc 01       	movw	r30, r24
    4384:	e4 57       	subi	r30, 0x74	; 116
    4386:	fe 4d       	sbci	r31, 0xDE	; 222
    4388:	50 83       	st	Z, r21
						idx = i;
						break;
					}
				}
				gps[idx] = 32;
				for(uint8_t i = idx+1; i < 15; i++){
    438a:	2f 5f       	subi	r18, 0xFF	; 255
    438c:	2f 30       	cpi	r18, 0x0F	; 15
    438e:	49 f7       	brne	.-46     	; 0x4362 <__vector_91+0x2e2>
						break;
					}
					dec[i-idx-1] = gps[i];
					gps[i] = 32;
				}
				if(dec[0] == 32){
    4390:	80 91 9b 21 	lds	r24, 0x219B	; 0x80219b <dec>
    4394:	80 32       	cpi	r24, 0x20	; 32
    4396:	19 f4       	brne	.+6      	; 0x439e <__vector_91+0x31e>
					dec[0] = '0';
    4398:	80 e3       	ldi	r24, 0x30	; 48
    439a:	80 93 9b 21 	sts	0x219B, r24	; 0x80219b <dec>
				}
				sscanf(gps,"%ld",&val);
    439e:	ce 01       	movw	r24, r28
    43a0:	01 96       	adiw	r24, 0x01	; 1
    43a2:	9f 93       	push	r25
    43a4:	8f 93       	push	r24
    43a6:	8e e5       	ldi	r24, 0x5E	; 94
    43a8:	90 e2       	ldi	r25, 0x20	; 32
    43aa:	9f 93       	push	r25
    43ac:	8f 93       	push	r24
    43ae:	8c e8       	ldi	r24, 0x8C	; 140
    43b0:	91 e2       	ldi	r25, 0x21	; 33
    43b2:	9f 93       	push	r25
    43b4:	8f 93       	push	r24
    43b6:	3c d6       	rcall	.+3192   	; 0x5030 <sscanf>
				sscanf(dec,"%d",&val2);
    43b8:	ce 01       	movw	r24, r28
    43ba:	05 96       	adiw	r24, 0x05	; 5
    43bc:	9f 93       	push	r25
    43be:	8f 93       	push	r24
    43c0:	82 e6       	ldi	r24, 0x62	; 98
    43c2:	90 e2       	ldi	r25, 0x20	; 32
    43c4:	9f 93       	push	r25
    43c6:	8f 93       	push	r24
    43c8:	8b e9       	ldi	r24, 0x9B	; 155
    43ca:	91 e2       	ldi	r25, 0x21	; 33
    43cc:	9f 93       	push	r25
    43ce:	8f 93       	push	r24
    43d0:	2f d6       	rcall	.+3166   	; 0x5030 <sscanf>
				gps_long = -(val/100 + ((double)(val%100) + ((double)(val2))/10000) / 60.0);
    43d2:	89 80       	ldd	r8, Y+1	; 0x01
    43d4:	9a 80       	ldd	r9, Y+2	; 0x02
    43d6:	ab 80       	ldd	r10, Y+3	; 0x03
    43d8:	bc 80       	ldd	r11, Y+4	; 0x04
    43da:	6d 81       	ldd	r22, Y+5	; 0x05
    43dc:	7e 81       	ldd	r23, Y+6	; 0x06
    43de:	07 2e       	mov	r0, r23
    43e0:	00 0c       	add	r0, r0
    43e2:	88 0b       	sbc	r24, r24
    43e4:	99 0b       	sbc	r25, r25
    43e6:	56 d2       	rcall	.+1196   	; 0x4894 <__floatsisf>
    43e8:	20 e0       	ldi	r18, 0x00	; 0
    43ea:	30 e4       	ldi	r19, 0x40	; 64
    43ec:	4c e1       	ldi	r20, 0x1C	; 28
    43ee:	56 e4       	ldi	r21, 0x46	; 70
    43f0:	b6 d1       	rcall	.+876    	; 0x475e <__divsf3>
    43f2:	6b 01       	movw	r12, r22
    43f4:	7c 01       	movw	r14, r24
    43f6:	c5 01       	movw	r24, r10
    43f8:	b4 01       	movw	r22, r8
    43fa:	24 e6       	ldi	r18, 0x64	; 100
    43fc:	30 e0       	ldi	r19, 0x00	; 0
    43fe:	40 e0       	ldi	r20, 0x00	; 0
    4400:	50 e0       	ldi	r21, 0x00	; 0
    4402:	1c d5       	rcall	.+2616   	; 0x4e3c <__divmodsi4>
    4404:	49 01       	movw	r8, r18
    4406:	5a 01       	movw	r10, r20
    4408:	45 d2       	rcall	.+1162   	; 0x4894 <__floatsisf>
    440a:	9b 01       	movw	r18, r22
    440c:	ac 01       	movw	r20, r24
    440e:	c7 01       	movw	r24, r14
    4410:	b6 01       	movw	r22, r12
    4412:	3d d1       	rcall	.+634    	; 0x468e <__addsf3>
    4414:	20 e0       	ldi	r18, 0x00	; 0
    4416:	30 e0       	ldi	r19, 0x00	; 0
    4418:	40 e7       	ldi	r20, 0x70	; 112
    441a:	52 e4       	ldi	r21, 0x42	; 66
    441c:	a0 d1       	rcall	.+832    	; 0x475e <__divsf3>
    441e:	6b 01       	movw	r12, r22
    4420:	7c 01       	movw	r14, r24
    4422:	c5 01       	movw	r24, r10
    4424:	b4 01       	movw	r22, r8
    4426:	36 d2       	rcall	.+1132   	; 0x4894 <__floatsisf>
    4428:	9b 01       	movw	r18, r22
    442a:	ac 01       	movw	r20, r24
    442c:	c7 01       	movw	r24, r14
    442e:	b6 01       	movw	r22, r12
    4430:	2e d1       	rcall	.+604    	; 0x468e <__addsf3>
    4432:	dc 01       	movw	r26, r24
    4434:	cb 01       	movw	r24, r22
    4436:	b0 58       	subi	r27, 0x80	; 128
    4438:	80 93 10 21 	sts	0x2110, r24	; 0x802110 <gps_long>
    443c:	90 93 11 21 	sts	0x2111, r25	; 0x802111 <gps_long+0x1>
    4440:	a0 93 12 21 	sts	0x2112, r26	; 0x802112 <gps_long+0x2>
    4444:	b0 93 13 21 	sts	0x2113, r27	; 0x802113 <gps_long+0x3>
    4448:	cd bf       	out	0x3d, r28	; 61
				break;
    444a:	de bf       	out	0x3e, r29	; 62
    444c:	92 c0       	rjmp	.+292    	; 0x4572 <__vector_91+0x4f2>
    444e:	8a e0       	ldi	r24, 0x0A	; 10
			case 7:			//Sats
				sscanf(gps,"%d",&gps_sats);
    4450:	91 e2       	ldi	r25, 0x21	; 33
    4452:	9f 93       	push	r25
    4454:	8f 93       	push	r24
    4456:	82 e6       	ldi	r24, 0x62	; 98
    4458:	90 e2       	ldi	r25, 0x20	; 32
    445a:	9f 93       	push	r25
    445c:	8f 93       	push	r24
    445e:	8c e8       	ldi	r24, 0x8C	; 140
    4460:	91 e2       	ldi	r25, 0x21	; 33
    4462:	9f 93       	push	r25
    4464:	8f 93       	push	r24
    4466:	e4 d5       	rcall	.+3016   	; 0x5030 <sscanf>
    4468:	0f 90       	pop	r0
    446a:	0f 90       	pop	r0
				break;
    446c:	0f 90       	pop	r0
    446e:	0f 90       	pop	r0
    4470:	0f 90       	pop	r0
    4472:	0f 90       	pop	r0
    4474:	7e c0       	rjmp	.+252    	; 0x4572 <__vector_91+0x4f2>
    4476:	ed e8       	ldi	r30, 0x8D	; 141
    4478:	f1 e2       	ldi	r31, 0x21	; 33
    447a:	81 e0       	ldi	r24, 0x01	; 1
    447c:	91 91       	ld	r25, Z+
			case 9:			//Altitude
				for(uint8_t i = 0; i < 15; i++){
    447e:	9e 32       	cpi	r25, 0x2E	; 46
					if(gps[i] == (uint8_t) '.'){
    4480:	29 f4       	brne	.+10     	; 0x448c <__vector_91+0x40c>
    4482:	01 c0       	rjmp	.+2      	; 0x4486 <__vector_91+0x406>
    4484:	80 e0       	ldi	r24, 0x00	; 0
    4486:	80 93 37 21 	sts	0x2137, r24	; 0x802137 <idx>
						idx = i;
    448a:	03 c0       	rjmp	.+6      	; 0x4492 <__vector_91+0x412>
    448c:	8f 5f       	subi	r24, 0xFF	; 255
						break;
    448e:	8f 30       	cpi	r24, 0x0F	; 15
				break;
			case 7:			//Sats
				sscanf(gps,"%d",&gps_sats);
				break;
			case 9:			//Altitude
				for(uint8_t i = 0; i < 15; i++){
    4490:	a9 f7       	brne	.-22     	; 0x447c <__vector_91+0x3fc>
    4492:	e0 91 37 21 	lds	r30, 0x2137	; 0x802137 <idx>
					if(gps[i] == (uint8_t) '.'){
						idx = i;
						break;
					}
				}
				gps[idx] = 32;
    4496:	f0 e0       	ldi	r31, 0x00	; 0
    4498:	e4 57       	subi	r30, 0x74	; 116
    449a:	fe 4d       	sbci	r31, 0xDE	; 222
    449c:	80 e2       	ldi	r24, 0x20	; 32
    449e:	80 83       	st	Z, r24
    44a0:	20 91 37 21 	lds	r18, 0x2137	; 0x802137 <idx>
				for(uint8_t i = idx+1; i < 15; i++){
    44a4:	2f 5f       	subi	r18, 0xFF	; 255
    44a6:	2f 30       	cpi	r18, 0x0F	; 15
    44a8:	08 f5       	brcc	.+66     	; 0x44ec <__vector_91+0x46c>
    44aa:	82 2f       	mov	r24, r18
    44ac:	90 e0       	ldi	r25, 0x00	; 0
					if(gps[i] == 32){
    44ae:	fc 01       	movw	r30, r24
    44b0:	e4 57       	subi	r30, 0x74	; 116
    44b2:	fe 4d       	sbci	r31, 0xDE	; 222
    44b4:	30 81       	ld	r19, Z
    44b6:	30 32       	cpi	r19, 0x20	; 32
    44b8:	c9 f0       	breq	.+50     	; 0x44ec <__vector_91+0x46c>
    44ba:	50 e2       	ldi	r21, 0x20	; 32
    44bc:	08 c0       	rjmp	.+16     	; 0x44ce <__vector_91+0x44e>
						break;
					}
					dec[i-idx-1] = gps[i];
					gps[i] = 32;
    44be:	82 2f       	mov	r24, r18
    44c0:	90 e0       	ldi	r25, 0x00	; 0
						break;
					}
				}
				gps[idx] = 32;
				for(uint8_t i = idx+1; i < 15; i++){
					if(gps[i] == 32){
    44c2:	fc 01       	movw	r30, r24
    44c4:	e4 57       	subi	r30, 0x74	; 116
    44c6:	fe 4d       	sbci	r31, 0xDE	; 222
    44c8:	30 81       	ld	r19, Z
    44ca:	30 32       	cpi	r19, 0x20	; 32
    44cc:	79 f0       	breq	.+30     	; 0x44ec <__vector_91+0x46c>
    44ce:	40 91 37 21 	lds	r20, 0x2137	; 0x802137 <idx>
						break;
					}
					dec[i-idx-1] = gps[i];
    44d2:	fc 01       	movw	r30, r24
    44d4:	e4 1b       	sub	r30, r20
    44d6:	f1 09       	sbc	r31, r1
    44d8:	e6 56       	subi	r30, 0x66	; 102
    44da:	fe 4d       	sbci	r31, 0xDE	; 222
    44dc:	30 83       	st	Z, r19
    44de:	fc 01       	movw	r30, r24
    44e0:	e4 57       	subi	r30, 0x74	; 116
					gps[i] = 32;
    44e2:	fe 4d       	sbci	r31, 0xDE	; 222
    44e4:	50 83       	st	Z, r21
    44e6:	2f 5f       	subi	r18, 0xFF	; 255
						idx = i;
						break;
					}
				}
				gps[idx] = 32;
				for(uint8_t i = idx+1; i < 15; i++){
    44e8:	2f 30       	cpi	r18, 0x0F	; 15
    44ea:	49 f7       	brne	.-46     	; 0x44be <__vector_91+0x43e>
    44ec:	80 91 9b 21 	lds	r24, 0x219B	; 0x80219b <dec>
						break;
					}
					dec[i-idx-1] = gps[i];
					gps[i] = 32;
				}
				if(dec[0] == 32){
    44f0:	80 32       	cpi	r24, 0x20	; 32
    44f2:	19 f4       	brne	.+6      	; 0x44fa <__vector_91+0x47a>
    44f4:	80 e3       	ldi	r24, 0x30	; 48
					dec[0] = '0';
    44f6:	80 93 9b 21 	sts	0x219B, r24	; 0x80219b <dec>
    44fa:	ce 01       	movw	r24, r28
				}
				sscanf(gps,"%ld",&val);
    44fc:	01 96       	adiw	r24, 0x01	; 1
    44fe:	9f 93       	push	r25
    4500:	8f 93       	push	r24
    4502:	8e e5       	ldi	r24, 0x5E	; 94
    4504:	90 e2       	ldi	r25, 0x20	; 32
    4506:	9f 93       	push	r25
    4508:	8f 93       	push	r24
    450a:	8c e8       	ldi	r24, 0x8C	; 140
    450c:	91 e2       	ldi	r25, 0x21	; 33
    450e:	9f 93       	push	r25
    4510:	8f 93       	push	r24
    4512:	8e d5       	rcall	.+2844   	; 0x5030 <sscanf>
				sscanf(dec,"%d",&val2);
    4514:	ce 01       	movw	r24, r28
    4516:	05 96       	adiw	r24, 0x05	; 5
    4518:	9f 93       	push	r25
    451a:	8f 93       	push	r24
    451c:	82 e6       	ldi	r24, 0x62	; 98
    451e:	90 e2       	ldi	r25, 0x20	; 32
    4520:	9f 93       	push	r25
    4522:	8f 93       	push	r24
    4524:	8b e9       	ldi	r24, 0x9B	; 155
    4526:	91 e2       	ldi	r25, 0x21	; 33
    4528:	9f 93       	push	r25
    452a:	8f 93       	push	r24
				gps_alt = (double) val + ((double) val2/10.0);
    452c:	81 d5       	rcall	.+2818   	; 0x5030 <sscanf>
    452e:	69 81       	ldd	r22, Y+1	; 0x01
    4530:	7a 81       	ldd	r23, Y+2	; 0x02
    4532:	8b 81       	ldd	r24, Y+3	; 0x03
    4534:	9c 81       	ldd	r25, Y+4	; 0x04
    4536:	ae d1       	rcall	.+860    	; 0x4894 <__floatsisf>
    4538:	6b 01       	movw	r12, r22
    453a:	7c 01       	movw	r14, r24
    453c:	6d 81       	ldd	r22, Y+5	; 0x05
    453e:	7e 81       	ldd	r23, Y+6	; 0x06
    4540:	07 2e       	mov	r0, r23
    4542:	00 0c       	add	r0, r0
    4544:	88 0b       	sbc	r24, r24
    4546:	99 0b       	sbc	r25, r25
    4548:	a5 d1       	rcall	.+842    	; 0x4894 <__floatsisf>
    454a:	20 e0       	ldi	r18, 0x00	; 0
    454c:	30 e0       	ldi	r19, 0x00	; 0
    454e:	40 e2       	ldi	r20, 0x20	; 32
    4550:	51 e4       	ldi	r21, 0x41	; 65
    4552:	05 d1       	rcall	.+522    	; 0x475e <__divsf3>
    4554:	9b 01       	movw	r18, r22
    4556:	ac 01       	movw	r20, r24
    4558:	c7 01       	movw	r24, r14
    455a:	b6 01       	movw	r22, r12
    455c:	98 d0       	rcall	.+304    	; 0x468e <__addsf3>
    455e:	60 93 0c 21 	sts	0x210C, r22	; 0x80210c <gps_alt>
    4562:	70 93 0d 21 	sts	0x210D, r23	; 0x80210d <gps_alt+0x1>
    4566:	80 93 0e 21 	sts	0x210E, r24	; 0x80210e <gps_alt+0x2>
    456a:	90 93 0f 21 	sts	0x210F, r25	; 0x80210f <gps_alt+0x3>
    456e:	cd bf       	out	0x3d, r28	; 61
    4570:	de bf       	out	0x3e, r29	; 62
    4572:	80 91 3b 21 	lds	r24, 0x213B	; 0x80213b <writing>
				break;
    4576:	88 23       	and	r24, r24
		}

		if(writing){
    4578:	d1 f0       	breq	.+52     	; 0x45ae <__vector_91+0x52e>
    457a:	10 92 37 21 	sts	0x2137, r1	; 0x802137 <idx>
    457e:	80 91 38 21 	lds	r24, 0x2138	; 0x802138 <commas>
			idx = 0;
    4582:	8f 5f       	subi	r24, 0xFF	; 255
			commas++;
    4584:	80 93 38 21 	sts	0x2138, r24	; 0x802138 <commas>
    4588:	10 92 39 21 	sts	0x2139, r1	; 0x802139 <word_pos>
    458c:	ec e8       	ldi	r30, 0x8C	; 140
			word_pos = 0;
    458e:	f1 e2       	ldi	r31, 0x21	; 33
    4590:	2b e9       	ldi	r18, 0x9B	; 155
    4592:	31 e2       	ldi	r19, 0x21	; 33
    4594:	80 e2       	ldi	r24, 0x20	; 32
    4596:	81 93       	st	Z+, r24
    4598:	2e 17       	cp	r18, r30
			for(uint8_t i = 0; i < 15; i++){
				gps[i] = 32;
    459a:	3f 07       	cpc	r19, r31
    459c:	e1 f7       	brne	.-8      	; 0x4596 <__vector_91+0x516>

		if(writing){
			idx = 0;
			commas++;
			word_pos = 0;
			for(uint8_t i = 0; i < 15; i++){
    459e:	eb e9       	ldi	r30, 0x9B	; 155
    45a0:	f1 e2       	ldi	r31, 0x21	; 33
    45a2:	80 e2       	ldi	r24, 0x20	; 32
				gps[i] = 32;
			}
			for(uint8_t i = 0; i < 5; i++){
				dec[i] = 32;
    45a4:	80 83       	st	Z, r24
    45a6:	81 83       	std	Z+1, r24	; 0x01
    45a8:	82 83       	std	Z+2, r24	; 0x02
    45aa:	83 83       	std	Z+3, r24	; 0x03
    45ac:	84 83       	std	Z+4, r24	; 0x04
    45ae:	80 91 3b 21 	lds	r24, 0x213B	; 0x80213b <writing>
    45b2:	88 23       	and	r24, r24
			}
		}
	}

	if(writing){
    45b4:	09 f4       	brne	.+2      	; 0x45b8 <__vector_91+0x538>
    45b6:	43 c0       	rjmp	.+134    	; 0x463e <__vector_91+0x5be>
    45b8:	80 91 3a 21 	lds	r24, 0x213A	; 0x80213a <pos>
    45bc:	83 30       	cpi	r24, 0x03	; 3
		switch(pos){
    45be:	19 f0       	breq	.+6      	; 0x45c6 <__vector_91+0x546>
    45c0:	84 30       	cpi	r24, 0x04	; 4
    45c2:	31 f0       	breq	.+12     	; 0x45d0 <__vector_91+0x550>
    45c4:	09 c0       	rjmp	.+18     	; 0x45d8 <__vector_91+0x558>
    45c6:	17 34       	cpi	r17, 0x47	; 71
    45c8:	39 f0       	breq	.+14     	; 0x45d8 <__vector_91+0x558>
    45ca:	10 92 3b 21 	sts	0x213B, r1	; 0x80213b <writing>
			case 3:
				if(c != 'G'){
    45ce:	04 c0       	rjmp	.+8      	; 0x45d8 <__vector_91+0x558>
					writing = 0;
    45d0:	17 34       	cpi	r17, 0x47	; 71
    45d2:	11 f0       	breq	.+4      	; 0x45d8 <__vector_91+0x558>
    45d4:	10 92 3b 21 	sts	0x213B, r1	; 0x80213b <writing>
				}
				break;

			case 4:
				if(c != 'G'){
    45d8:	e0 91 39 21 	lds	r30, 0x2139	; 0x802139 <word_pos>
					writing = 0;
    45dc:	f0 e0       	ldi	r31, 0x00	; 0
				}
				break;
		}
		gps[word_pos] = c;
    45de:	e4 57       	subi	r30, 0x74	; 116
    45e0:	fe 4d       	sbci	r31, 0xDE	; 222
    45e2:	10 83       	st	Z, r17
    45e4:	80 91 39 21 	lds	r24, 0x2139	; 0x802139 <word_pos>
    45e8:	8f 5f       	subi	r24, 0xFF	; 255
		word_pos++;
    45ea:	80 93 39 21 	sts	0x2139, r24	; 0x802139 <word_pos>
    45ee:	80 91 3a 21 	lds	r24, 0x213A	; 0x80213a <pos>
    45f2:	8f 5f       	subi	r24, 0xFF	; 255
		pos++;
    45f4:	80 93 3a 21 	sts	0x213A, r24	; 0x80213a <pos>
    45f8:	22 c0       	rjmp	.+68     	; 0x463e <__vector_91+0x5be>
    45fa:	80 91 8c 21 	lds	r24, 0x218C	; 0x80218c <gps>
	}
    45fe:	8e 32       	cpi	r24, 0x2E	; 46
		int32_t val = 0;
		int16_t val2 = 0;
		switch(commas){
			case 1:			//Time
				for(uint8_t i = 0; i < 15; i++){
					if(gps[i] == (uint8_t) '.'){
    4600:	09 f4       	brne	.+2      	; 0x4604 <__vector_91+0x584>
    4602:	a7 cd       	rjmp	.-1202   	; 0x4152 <__vector_91+0xd2>
    4604:	ed e8       	ldi	r30, 0x8D	; 141
    4606:	f1 e2       	ldi	r31, 0x21	; 33
    4608:	81 e0       	ldi	r24, 0x01	; 1
    460a:	9f cd       	rjmp	.-1218   	; 0x414a <__vector_91+0xca>
    460c:	19 82       	std	Y+1, r1	; 0x01
		}
		int32_t val = 0;
		int16_t val2 = 0;
		switch(commas){
			case 1:			//Time
				for(uint8_t i = 0; i < 15; i++){
    460e:	1a 82       	std	Y+2, r1	; 0x02
    4610:	1b 82       	std	Y+3, r1	; 0x03
	else if(c == (uint8_t) ','){
		gps[0] = 32;
		if(gps[1] == 32){
			gps[0] = '0';
		}
		int32_t val = 0;
    4612:	1c 82       	std	Y+4, r1	; 0x04
    4614:	1d 82       	std	Y+5, r1	; 0x05
    4616:	1e 82       	std	Y+6, r1	; 0x06
    4618:	80 91 38 21 	lds	r24, 0x2138	; 0x802138 <commas>
		int16_t val2 = 0;
    461c:	84 30       	cpi	r24, 0x04	; 4
		switch(commas){
    461e:	09 f4       	brne	.+2      	; 0x4622 <__vector_91+0x5a2>
    4620:	88 cd       	rjmp	.-1264   	; 0x4132 <__vector_91+0xb2>
    4622:	30 f4       	brcc	.+12     	; 0x4630 <__vector_91+0x5b0>
    4624:	81 30       	cpi	r24, 0x01	; 1
    4626:	49 f3       	breq	.-46     	; 0x45fa <__vector_91+0x57a>
    4628:	82 30       	cpi	r24, 0x02	; 2
    462a:	09 f4       	brne	.+2      	; 0x462e <__vector_91+0x5ae>
    462c:	88 cd       	rjmp	.-1264   	; 0x413e <__vector_91+0xbe>
    462e:	a1 cf       	rjmp	.-190    	; 0x4572 <__vector_91+0x4f2>
    4630:	87 30       	cpi	r24, 0x07	; 7
    4632:	09 f4       	brne	.+2      	; 0x4636 <__vector_91+0x5b6>
    4634:	0c cf       	rjmp	.-488    	; 0x444e <__vector_91+0x3ce>
    4636:	89 30       	cpi	r24, 0x09	; 9
    4638:	09 f4       	brne	.+2      	; 0x463c <__vector_91+0x5bc>
    463a:	75 cd       	rjmp	.-1302   	; 0x4126 <__vector_91+0xa6>
    463c:	9a cf       	rjmp	.-204    	; 0x4572 <__vector_91+0x4f2>
    463e:	26 96       	adiw	r28, 0x06	; 6
    4640:	cd bf       	out	0x3d, r28	; 61
    4642:	de bf       	out	0x3e, r29	; 62
		}
		gps[word_pos] = c;
		word_pos++;
		pos++;
	}
    4644:	df 91       	pop	r29
    4646:	cf 91       	pop	r28
    4648:	ff 91       	pop	r31
    464a:	ef 91       	pop	r30
    464c:	bf 91       	pop	r27
    464e:	af 91       	pop	r26
    4650:	9f 91       	pop	r25
    4652:	8f 91       	pop	r24
    4654:	7f 91       	pop	r23
    4656:	6f 91       	pop	r22
    4658:	5f 91       	pop	r21
    465a:	4f 91       	pop	r20
    465c:	3f 91       	pop	r19
    465e:	2f 91       	pop	r18
    4660:	1f 91       	pop	r17
    4662:	ff 90       	pop	r15
    4664:	ef 90       	pop	r14
    4666:	df 90       	pop	r13
    4668:	cf 90       	pop	r12
    466a:	bf 90       	pop	r11
    466c:	af 90       	pop	r10
    466e:	9f 90       	pop	r9
    4670:	8f 90       	pop	r8
    4672:	0f 90       	pop	r0
    4674:	0b be       	out	0x3b, r0	; 59
    4676:	0f 90       	pop	r0
    4678:	0a be       	out	0x3a, r0	; 58
    467a:	0f 90       	pop	r0
    467c:	09 be       	out	0x39, r0	; 57
    467e:	0f 90       	pop	r0
    4680:	08 be       	out	0x38, r0	; 56
    4682:	0f 90       	pop	r0
    4684:	0f be       	out	0x3f, r0	; 63
    4686:	0f 90       	pop	r0
    4688:	1f 90       	pop	r1
    468a:	18 95       	reti

0000468c <__subsf3>:
    468c:	50 58       	subi	r21, 0x80	; 128

0000468e <__addsf3>:
    468e:	bb 27       	eor	r27, r27
    4690:	aa 27       	eor	r26, r26
    4692:	0e d0       	rcall	.+28     	; 0x46b0 <__addsf3x>
    4694:	75 c1       	rjmp	.+746    	; 0x4980 <__fp_round>
    4696:	66 d1       	rcall	.+716    	; 0x4964 <__fp_pscA>
    4698:	30 f0       	brcs	.+12     	; 0x46a6 <__addsf3+0x18>
    469a:	6b d1       	rcall	.+726    	; 0x4972 <__fp_pscB>
    469c:	20 f0       	brcs	.+8      	; 0x46a6 <__addsf3+0x18>
    469e:	31 f4       	brne	.+12     	; 0x46ac <__addsf3+0x1e>
    46a0:	9f 3f       	cpi	r25, 0xFF	; 255
    46a2:	11 f4       	brne	.+4      	; 0x46a8 <__addsf3+0x1a>
    46a4:	1e f4       	brtc	.+6      	; 0x46ac <__addsf3+0x1e>
    46a6:	5b c1       	rjmp	.+694    	; 0x495e <__fp_nan>
    46a8:	0e f4       	brtc	.+2      	; 0x46ac <__addsf3+0x1e>
    46aa:	e0 95       	com	r30
    46ac:	e7 fb       	bst	r30, 7
    46ae:	51 c1       	rjmp	.+674    	; 0x4952 <__fp_inf>

000046b0 <__addsf3x>:
    46b0:	e9 2f       	mov	r30, r25
    46b2:	77 d1       	rcall	.+750    	; 0x49a2 <__fp_split3>
    46b4:	80 f3       	brcs	.-32     	; 0x4696 <__addsf3+0x8>
    46b6:	ba 17       	cp	r27, r26
    46b8:	62 07       	cpc	r22, r18
    46ba:	73 07       	cpc	r23, r19
    46bc:	84 07       	cpc	r24, r20
    46be:	95 07       	cpc	r25, r21
    46c0:	18 f0       	brcs	.+6      	; 0x46c8 <__addsf3x+0x18>
    46c2:	71 f4       	brne	.+28     	; 0x46e0 <__addsf3x+0x30>
    46c4:	9e f5       	brtc	.+102    	; 0x472c <__addsf3x+0x7c>
    46c6:	8f c1       	rjmp	.+798    	; 0x49e6 <__fp_zero>
    46c8:	0e f4       	brtc	.+2      	; 0x46cc <__addsf3x+0x1c>
    46ca:	e0 95       	com	r30
    46cc:	0b 2e       	mov	r0, r27
    46ce:	ba 2f       	mov	r27, r26
    46d0:	a0 2d       	mov	r26, r0
    46d2:	0b 01       	movw	r0, r22
    46d4:	b9 01       	movw	r22, r18
    46d6:	90 01       	movw	r18, r0
    46d8:	0c 01       	movw	r0, r24
    46da:	ca 01       	movw	r24, r20
    46dc:	a0 01       	movw	r20, r0
    46de:	11 24       	eor	r1, r1
    46e0:	ff 27       	eor	r31, r31
    46e2:	59 1b       	sub	r21, r25
    46e4:	99 f0       	breq	.+38     	; 0x470c <__addsf3x+0x5c>
    46e6:	59 3f       	cpi	r21, 0xF9	; 249
    46e8:	50 f4       	brcc	.+20     	; 0x46fe <__addsf3x+0x4e>
    46ea:	50 3e       	cpi	r21, 0xE0	; 224
    46ec:	68 f1       	brcs	.+90     	; 0x4748 <__addsf3x+0x98>
    46ee:	1a 16       	cp	r1, r26
    46f0:	f0 40       	sbci	r31, 0x00	; 0
    46f2:	a2 2f       	mov	r26, r18
    46f4:	23 2f       	mov	r18, r19
    46f6:	34 2f       	mov	r19, r20
    46f8:	44 27       	eor	r20, r20
    46fa:	58 5f       	subi	r21, 0xF8	; 248
    46fc:	f3 cf       	rjmp	.-26     	; 0x46e4 <__addsf3x+0x34>
    46fe:	46 95       	lsr	r20
    4700:	37 95       	ror	r19
    4702:	27 95       	ror	r18
    4704:	a7 95       	ror	r26
    4706:	f0 40       	sbci	r31, 0x00	; 0
    4708:	53 95       	inc	r21
    470a:	c9 f7       	brne	.-14     	; 0x46fe <__addsf3x+0x4e>
    470c:	7e f4       	brtc	.+30     	; 0x472c <__addsf3x+0x7c>
    470e:	1f 16       	cp	r1, r31
    4710:	ba 0b       	sbc	r27, r26
    4712:	62 0b       	sbc	r22, r18
    4714:	73 0b       	sbc	r23, r19
    4716:	84 0b       	sbc	r24, r20
    4718:	ba f0       	brmi	.+46     	; 0x4748 <__addsf3x+0x98>
    471a:	91 50       	subi	r25, 0x01	; 1
    471c:	a1 f0       	breq	.+40     	; 0x4746 <__addsf3x+0x96>
    471e:	ff 0f       	add	r31, r31
    4720:	bb 1f       	adc	r27, r27
    4722:	66 1f       	adc	r22, r22
    4724:	77 1f       	adc	r23, r23
    4726:	88 1f       	adc	r24, r24
    4728:	c2 f7       	brpl	.-16     	; 0x471a <__addsf3x+0x6a>
    472a:	0e c0       	rjmp	.+28     	; 0x4748 <__addsf3x+0x98>
    472c:	ba 0f       	add	r27, r26
    472e:	62 1f       	adc	r22, r18
    4730:	73 1f       	adc	r23, r19
    4732:	84 1f       	adc	r24, r20
    4734:	48 f4       	brcc	.+18     	; 0x4748 <__addsf3x+0x98>
    4736:	87 95       	ror	r24
    4738:	77 95       	ror	r23
    473a:	67 95       	ror	r22
    473c:	b7 95       	ror	r27
    473e:	f7 95       	ror	r31
    4740:	9e 3f       	cpi	r25, 0xFE	; 254
    4742:	08 f0       	brcs	.+2      	; 0x4746 <__addsf3x+0x96>
    4744:	b3 cf       	rjmp	.-154    	; 0x46ac <__addsf3+0x1e>
    4746:	93 95       	inc	r25
    4748:	88 0f       	add	r24, r24
    474a:	08 f0       	brcs	.+2      	; 0x474e <__addsf3x+0x9e>
    474c:	99 27       	eor	r25, r25
    474e:	ee 0f       	add	r30, r30
    4750:	97 95       	ror	r25
    4752:	87 95       	ror	r24
    4754:	08 95       	ret

00004756 <__cmpsf2>:
    4756:	d9 d0       	rcall	.+434    	; 0x490a <__fp_cmp>
    4758:	08 f4       	brcc	.+2      	; 0x475c <__cmpsf2+0x6>
    475a:	81 e0       	ldi	r24, 0x01	; 1
    475c:	08 95       	ret

0000475e <__divsf3>:
    475e:	0c d0       	rcall	.+24     	; 0x4778 <__divsf3x>
    4760:	0f c1       	rjmp	.+542    	; 0x4980 <__fp_round>
    4762:	07 d1       	rcall	.+526    	; 0x4972 <__fp_pscB>
    4764:	40 f0       	brcs	.+16     	; 0x4776 <__divsf3+0x18>
    4766:	fe d0       	rcall	.+508    	; 0x4964 <__fp_pscA>
    4768:	30 f0       	brcs	.+12     	; 0x4776 <__divsf3+0x18>
    476a:	21 f4       	brne	.+8      	; 0x4774 <__divsf3+0x16>
    476c:	5f 3f       	cpi	r21, 0xFF	; 255
    476e:	19 f0       	breq	.+6      	; 0x4776 <__divsf3+0x18>
    4770:	f0 c0       	rjmp	.+480    	; 0x4952 <__fp_inf>
    4772:	51 11       	cpse	r21, r1
    4774:	39 c1       	rjmp	.+626    	; 0x49e8 <__fp_szero>
    4776:	f3 c0       	rjmp	.+486    	; 0x495e <__fp_nan>

00004778 <__divsf3x>:
    4778:	14 d1       	rcall	.+552    	; 0x49a2 <__fp_split3>
    477a:	98 f3       	brcs	.-26     	; 0x4762 <__divsf3+0x4>

0000477c <__divsf3_pse>:
    477c:	99 23       	and	r25, r25
    477e:	c9 f3       	breq	.-14     	; 0x4772 <__divsf3+0x14>
    4780:	55 23       	and	r21, r21
    4782:	b1 f3       	breq	.-20     	; 0x4770 <__divsf3+0x12>
    4784:	95 1b       	sub	r25, r21
    4786:	55 0b       	sbc	r21, r21
    4788:	bb 27       	eor	r27, r27
    478a:	aa 27       	eor	r26, r26
    478c:	62 17       	cp	r22, r18
    478e:	73 07       	cpc	r23, r19
    4790:	84 07       	cpc	r24, r20
    4792:	38 f0       	brcs	.+14     	; 0x47a2 <__divsf3_pse+0x26>
    4794:	9f 5f       	subi	r25, 0xFF	; 255
    4796:	5f 4f       	sbci	r21, 0xFF	; 255
    4798:	22 0f       	add	r18, r18
    479a:	33 1f       	adc	r19, r19
    479c:	44 1f       	adc	r20, r20
    479e:	aa 1f       	adc	r26, r26
    47a0:	a9 f3       	breq	.-22     	; 0x478c <__divsf3_pse+0x10>
    47a2:	33 d0       	rcall	.+102    	; 0x480a <__divsf3_pse+0x8e>
    47a4:	0e 2e       	mov	r0, r30
    47a6:	3a f0       	brmi	.+14     	; 0x47b6 <__divsf3_pse+0x3a>
    47a8:	e0 e8       	ldi	r30, 0x80	; 128
    47aa:	30 d0       	rcall	.+96     	; 0x480c <__divsf3_pse+0x90>
    47ac:	91 50       	subi	r25, 0x01	; 1
    47ae:	50 40       	sbci	r21, 0x00	; 0
    47b0:	e6 95       	lsr	r30
    47b2:	00 1c       	adc	r0, r0
    47b4:	ca f7       	brpl	.-14     	; 0x47a8 <__divsf3_pse+0x2c>
    47b6:	29 d0       	rcall	.+82     	; 0x480a <__divsf3_pse+0x8e>
    47b8:	fe 2f       	mov	r31, r30
    47ba:	27 d0       	rcall	.+78     	; 0x480a <__divsf3_pse+0x8e>
    47bc:	66 0f       	add	r22, r22
    47be:	77 1f       	adc	r23, r23
    47c0:	88 1f       	adc	r24, r24
    47c2:	bb 1f       	adc	r27, r27
    47c4:	26 17       	cp	r18, r22
    47c6:	37 07       	cpc	r19, r23
    47c8:	48 07       	cpc	r20, r24
    47ca:	ab 07       	cpc	r26, r27
    47cc:	b0 e8       	ldi	r27, 0x80	; 128
    47ce:	09 f0       	breq	.+2      	; 0x47d2 <__divsf3_pse+0x56>
    47d0:	bb 0b       	sbc	r27, r27
    47d2:	80 2d       	mov	r24, r0
    47d4:	bf 01       	movw	r22, r30
    47d6:	ff 27       	eor	r31, r31
    47d8:	93 58       	subi	r25, 0x83	; 131
    47da:	5f 4f       	sbci	r21, 0xFF	; 255
    47dc:	2a f0       	brmi	.+10     	; 0x47e8 <__divsf3_pse+0x6c>
    47de:	9e 3f       	cpi	r25, 0xFE	; 254
    47e0:	51 05       	cpc	r21, r1
    47e2:	68 f0       	brcs	.+26     	; 0x47fe <__divsf3_pse+0x82>
    47e4:	b6 c0       	rjmp	.+364    	; 0x4952 <__fp_inf>
    47e6:	00 c1       	rjmp	.+512    	; 0x49e8 <__fp_szero>
    47e8:	5f 3f       	cpi	r21, 0xFF	; 255
    47ea:	ec f3       	brlt	.-6      	; 0x47e6 <__divsf3_pse+0x6a>
    47ec:	98 3e       	cpi	r25, 0xE8	; 232
    47ee:	dc f3       	brlt	.-10     	; 0x47e6 <__divsf3_pse+0x6a>
    47f0:	86 95       	lsr	r24
    47f2:	77 95       	ror	r23
    47f4:	67 95       	ror	r22
    47f6:	b7 95       	ror	r27
    47f8:	f7 95       	ror	r31
    47fa:	9f 5f       	subi	r25, 0xFF	; 255
    47fc:	c9 f7       	brne	.-14     	; 0x47f0 <__divsf3_pse+0x74>
    47fe:	88 0f       	add	r24, r24
    4800:	91 1d       	adc	r25, r1
    4802:	96 95       	lsr	r25
    4804:	87 95       	ror	r24
    4806:	97 f9       	bld	r25, 7
    4808:	08 95       	ret
    480a:	e1 e0       	ldi	r30, 0x01	; 1
    480c:	66 0f       	add	r22, r22
    480e:	77 1f       	adc	r23, r23
    4810:	88 1f       	adc	r24, r24
    4812:	bb 1f       	adc	r27, r27
    4814:	62 17       	cp	r22, r18
    4816:	73 07       	cpc	r23, r19
    4818:	84 07       	cpc	r24, r20
    481a:	ba 07       	cpc	r27, r26
    481c:	20 f0       	brcs	.+8      	; 0x4826 <__divsf3_pse+0xaa>
    481e:	62 1b       	sub	r22, r18
    4820:	73 0b       	sbc	r23, r19
    4822:	84 0b       	sbc	r24, r20
    4824:	ba 0b       	sbc	r27, r26
    4826:	ee 1f       	adc	r30, r30
    4828:	88 f7       	brcc	.-30     	; 0x480c <__divsf3_pse+0x90>
    482a:	e0 95       	com	r30
    482c:	08 95       	ret

0000482e <__fixsfsi>:
    482e:	04 d0       	rcall	.+8      	; 0x4838 <__fixunssfsi>
    4830:	68 94       	set
    4832:	b1 11       	cpse	r27, r1
    4834:	d9 c0       	rjmp	.+434    	; 0x49e8 <__fp_szero>
    4836:	08 95       	ret

00004838 <__fixunssfsi>:
    4838:	bc d0       	rcall	.+376    	; 0x49b2 <__fp_splitA>
    483a:	88 f0       	brcs	.+34     	; 0x485e <__fixunssfsi+0x26>
    483c:	9f 57       	subi	r25, 0x7F	; 127
    483e:	90 f0       	brcs	.+36     	; 0x4864 <__fixunssfsi+0x2c>
    4840:	b9 2f       	mov	r27, r25
    4842:	99 27       	eor	r25, r25
    4844:	b7 51       	subi	r27, 0x17	; 23
    4846:	a0 f0       	brcs	.+40     	; 0x4870 <__fixunssfsi+0x38>
    4848:	d1 f0       	breq	.+52     	; 0x487e <__fixunssfsi+0x46>
    484a:	66 0f       	add	r22, r22
    484c:	77 1f       	adc	r23, r23
    484e:	88 1f       	adc	r24, r24
    4850:	99 1f       	adc	r25, r25
    4852:	1a f0       	brmi	.+6      	; 0x485a <__fixunssfsi+0x22>
    4854:	ba 95       	dec	r27
    4856:	c9 f7       	brne	.-14     	; 0x484a <__fixunssfsi+0x12>
    4858:	12 c0       	rjmp	.+36     	; 0x487e <__fixunssfsi+0x46>
    485a:	b1 30       	cpi	r27, 0x01	; 1
    485c:	81 f0       	breq	.+32     	; 0x487e <__fixunssfsi+0x46>
    485e:	c3 d0       	rcall	.+390    	; 0x49e6 <__fp_zero>
    4860:	b1 e0       	ldi	r27, 0x01	; 1
    4862:	08 95       	ret
    4864:	c0 c0       	rjmp	.+384    	; 0x49e6 <__fp_zero>
    4866:	67 2f       	mov	r22, r23
    4868:	78 2f       	mov	r23, r24
    486a:	88 27       	eor	r24, r24
    486c:	b8 5f       	subi	r27, 0xF8	; 248
    486e:	39 f0       	breq	.+14     	; 0x487e <__fixunssfsi+0x46>
    4870:	b9 3f       	cpi	r27, 0xF9	; 249
    4872:	cc f3       	brlt	.-14     	; 0x4866 <__fixunssfsi+0x2e>
    4874:	86 95       	lsr	r24
    4876:	77 95       	ror	r23
    4878:	67 95       	ror	r22
    487a:	b3 95       	inc	r27
    487c:	d9 f7       	brne	.-10     	; 0x4874 <__fixunssfsi+0x3c>
    487e:	3e f4       	brtc	.+14     	; 0x488e <__fixunssfsi+0x56>
    4880:	90 95       	com	r25
    4882:	80 95       	com	r24
    4884:	70 95       	com	r23
    4886:	61 95       	neg	r22
    4888:	7f 4f       	sbci	r23, 0xFF	; 255
    488a:	8f 4f       	sbci	r24, 0xFF	; 255
    488c:	9f 4f       	sbci	r25, 0xFF	; 255
    488e:	08 95       	ret

00004890 <__floatunsisf>:
    4890:	e8 94       	clt
    4892:	09 c0       	rjmp	.+18     	; 0x48a6 <__floatsisf+0x12>

00004894 <__floatsisf>:
    4894:	97 fb       	bst	r25, 7
    4896:	3e f4       	brtc	.+14     	; 0x48a6 <__floatsisf+0x12>
    4898:	90 95       	com	r25
    489a:	80 95       	com	r24
    489c:	70 95       	com	r23
    489e:	61 95       	neg	r22
    48a0:	7f 4f       	sbci	r23, 0xFF	; 255
    48a2:	8f 4f       	sbci	r24, 0xFF	; 255
    48a4:	9f 4f       	sbci	r25, 0xFF	; 255
    48a6:	99 23       	and	r25, r25
    48a8:	a9 f0       	breq	.+42     	; 0x48d4 <__floatsisf+0x40>
    48aa:	f9 2f       	mov	r31, r25
    48ac:	96 e9       	ldi	r25, 0x96	; 150
    48ae:	bb 27       	eor	r27, r27
    48b0:	93 95       	inc	r25
    48b2:	f6 95       	lsr	r31
    48b4:	87 95       	ror	r24
    48b6:	77 95       	ror	r23
    48b8:	67 95       	ror	r22
    48ba:	b7 95       	ror	r27
    48bc:	f1 11       	cpse	r31, r1
    48be:	f8 cf       	rjmp	.-16     	; 0x48b0 <__floatsisf+0x1c>
    48c0:	fa f4       	brpl	.+62     	; 0x4900 <__floatsisf+0x6c>
    48c2:	bb 0f       	add	r27, r27
    48c4:	11 f4       	brne	.+4      	; 0x48ca <__floatsisf+0x36>
    48c6:	60 ff       	sbrs	r22, 0
    48c8:	1b c0       	rjmp	.+54     	; 0x4900 <__floatsisf+0x6c>
    48ca:	6f 5f       	subi	r22, 0xFF	; 255
    48cc:	7f 4f       	sbci	r23, 0xFF	; 255
    48ce:	8f 4f       	sbci	r24, 0xFF	; 255
    48d0:	9f 4f       	sbci	r25, 0xFF	; 255
    48d2:	16 c0       	rjmp	.+44     	; 0x4900 <__floatsisf+0x6c>
    48d4:	88 23       	and	r24, r24
    48d6:	11 f0       	breq	.+4      	; 0x48dc <__floatsisf+0x48>
    48d8:	96 e9       	ldi	r25, 0x96	; 150
    48da:	11 c0       	rjmp	.+34     	; 0x48fe <__floatsisf+0x6a>
    48dc:	77 23       	and	r23, r23
    48de:	21 f0       	breq	.+8      	; 0x48e8 <__floatsisf+0x54>
    48e0:	9e e8       	ldi	r25, 0x8E	; 142
    48e2:	87 2f       	mov	r24, r23
    48e4:	76 2f       	mov	r23, r22
    48e6:	05 c0       	rjmp	.+10     	; 0x48f2 <__floatsisf+0x5e>
    48e8:	66 23       	and	r22, r22
    48ea:	71 f0       	breq	.+28     	; 0x4908 <__floatsisf+0x74>
    48ec:	96 e8       	ldi	r25, 0x86	; 134
    48ee:	86 2f       	mov	r24, r22
    48f0:	70 e0       	ldi	r23, 0x00	; 0
    48f2:	60 e0       	ldi	r22, 0x00	; 0
    48f4:	2a f0       	brmi	.+10     	; 0x4900 <__floatsisf+0x6c>
    48f6:	9a 95       	dec	r25
    48f8:	66 0f       	add	r22, r22
    48fa:	77 1f       	adc	r23, r23
    48fc:	88 1f       	adc	r24, r24
    48fe:	da f7       	brpl	.-10     	; 0x48f6 <__floatsisf+0x62>
    4900:	88 0f       	add	r24, r24
    4902:	96 95       	lsr	r25
    4904:	87 95       	ror	r24
    4906:	97 f9       	bld	r25, 7
    4908:	08 95       	ret

0000490a <__fp_cmp>:
    490a:	99 0f       	add	r25, r25
    490c:	00 08       	sbc	r0, r0
    490e:	55 0f       	add	r21, r21
    4910:	aa 0b       	sbc	r26, r26
    4912:	e0 e8       	ldi	r30, 0x80	; 128
    4914:	fe ef       	ldi	r31, 0xFE	; 254
    4916:	16 16       	cp	r1, r22
    4918:	17 06       	cpc	r1, r23
    491a:	e8 07       	cpc	r30, r24
    491c:	f9 07       	cpc	r31, r25
    491e:	c0 f0       	brcs	.+48     	; 0x4950 <__fp_cmp+0x46>
    4920:	12 16       	cp	r1, r18
    4922:	13 06       	cpc	r1, r19
    4924:	e4 07       	cpc	r30, r20
    4926:	f5 07       	cpc	r31, r21
    4928:	98 f0       	brcs	.+38     	; 0x4950 <__fp_cmp+0x46>
    492a:	62 1b       	sub	r22, r18
    492c:	73 0b       	sbc	r23, r19
    492e:	84 0b       	sbc	r24, r20
    4930:	95 0b       	sbc	r25, r21
    4932:	39 f4       	brne	.+14     	; 0x4942 <__fp_cmp+0x38>
    4934:	0a 26       	eor	r0, r26
    4936:	61 f0       	breq	.+24     	; 0x4950 <__fp_cmp+0x46>
    4938:	23 2b       	or	r18, r19
    493a:	24 2b       	or	r18, r20
    493c:	25 2b       	or	r18, r21
    493e:	21 f4       	brne	.+8      	; 0x4948 <__fp_cmp+0x3e>
    4940:	08 95       	ret
    4942:	0a 26       	eor	r0, r26
    4944:	09 f4       	brne	.+2      	; 0x4948 <__fp_cmp+0x3e>
    4946:	a1 40       	sbci	r26, 0x01	; 1
    4948:	a6 95       	lsr	r26
    494a:	8f ef       	ldi	r24, 0xFF	; 255
    494c:	81 1d       	adc	r24, r1
    494e:	81 1d       	adc	r24, r1
    4950:	08 95       	ret

00004952 <__fp_inf>:
    4952:	97 f9       	bld	r25, 7
    4954:	9f 67       	ori	r25, 0x7F	; 127
    4956:	80 e8       	ldi	r24, 0x80	; 128
    4958:	70 e0       	ldi	r23, 0x00	; 0
    495a:	60 e0       	ldi	r22, 0x00	; 0
    495c:	08 95       	ret

0000495e <__fp_nan>:
    495e:	9f ef       	ldi	r25, 0xFF	; 255
    4960:	80 ec       	ldi	r24, 0xC0	; 192
    4962:	08 95       	ret

00004964 <__fp_pscA>:
    4964:	00 24       	eor	r0, r0
    4966:	0a 94       	dec	r0
    4968:	16 16       	cp	r1, r22
    496a:	17 06       	cpc	r1, r23
    496c:	18 06       	cpc	r1, r24
    496e:	09 06       	cpc	r0, r25
    4970:	08 95       	ret

00004972 <__fp_pscB>:
    4972:	00 24       	eor	r0, r0
    4974:	0a 94       	dec	r0
    4976:	12 16       	cp	r1, r18
    4978:	13 06       	cpc	r1, r19
    497a:	14 06       	cpc	r1, r20
    497c:	05 06       	cpc	r0, r21
    497e:	08 95       	ret

00004980 <__fp_round>:
    4980:	09 2e       	mov	r0, r25
    4982:	03 94       	inc	r0
    4984:	00 0c       	add	r0, r0
    4986:	11 f4       	brne	.+4      	; 0x498c <__fp_round+0xc>
    4988:	88 23       	and	r24, r24
    498a:	52 f0       	brmi	.+20     	; 0x49a0 <__fp_round+0x20>
    498c:	bb 0f       	add	r27, r27
    498e:	40 f4       	brcc	.+16     	; 0x49a0 <__fp_round+0x20>
    4990:	bf 2b       	or	r27, r31
    4992:	11 f4       	brne	.+4      	; 0x4998 <__fp_round+0x18>
    4994:	60 ff       	sbrs	r22, 0
    4996:	04 c0       	rjmp	.+8      	; 0x49a0 <__fp_round+0x20>
    4998:	6f 5f       	subi	r22, 0xFF	; 255
    499a:	7f 4f       	sbci	r23, 0xFF	; 255
    499c:	8f 4f       	sbci	r24, 0xFF	; 255
    499e:	9f 4f       	sbci	r25, 0xFF	; 255
    49a0:	08 95       	ret

000049a2 <__fp_split3>:
    49a2:	57 fd       	sbrc	r21, 7
    49a4:	90 58       	subi	r25, 0x80	; 128
    49a6:	44 0f       	add	r20, r20
    49a8:	55 1f       	adc	r21, r21
    49aa:	59 f0       	breq	.+22     	; 0x49c2 <__fp_splitA+0x10>
    49ac:	5f 3f       	cpi	r21, 0xFF	; 255
    49ae:	71 f0       	breq	.+28     	; 0x49cc <__fp_splitA+0x1a>
    49b0:	47 95       	ror	r20

000049b2 <__fp_splitA>:
    49b2:	88 0f       	add	r24, r24
    49b4:	97 fb       	bst	r25, 7
    49b6:	99 1f       	adc	r25, r25
    49b8:	61 f0       	breq	.+24     	; 0x49d2 <__fp_splitA+0x20>
    49ba:	9f 3f       	cpi	r25, 0xFF	; 255
    49bc:	79 f0       	breq	.+30     	; 0x49dc <__fp_splitA+0x2a>
    49be:	87 95       	ror	r24
    49c0:	08 95       	ret
    49c2:	12 16       	cp	r1, r18
    49c4:	13 06       	cpc	r1, r19
    49c6:	14 06       	cpc	r1, r20
    49c8:	55 1f       	adc	r21, r21
    49ca:	f2 cf       	rjmp	.-28     	; 0x49b0 <__fp_split3+0xe>
    49cc:	46 95       	lsr	r20
    49ce:	f1 df       	rcall	.-30     	; 0x49b2 <__fp_splitA>
    49d0:	08 c0       	rjmp	.+16     	; 0x49e2 <__fp_splitA+0x30>
    49d2:	16 16       	cp	r1, r22
    49d4:	17 06       	cpc	r1, r23
    49d6:	18 06       	cpc	r1, r24
    49d8:	99 1f       	adc	r25, r25
    49da:	f1 cf       	rjmp	.-30     	; 0x49be <__fp_splitA+0xc>
    49dc:	86 95       	lsr	r24
    49de:	71 05       	cpc	r23, r1
    49e0:	61 05       	cpc	r22, r1
    49e2:	08 94       	sec
    49e4:	08 95       	ret

000049e6 <__fp_zero>:
    49e6:	e8 94       	clt

000049e8 <__fp_szero>:
    49e8:	bb 27       	eor	r27, r27
    49ea:	66 27       	eor	r22, r22
    49ec:	77 27       	eor	r23, r23
    49ee:	cb 01       	movw	r24, r22
    49f0:	97 f9       	bld	r25, 7
    49f2:	08 95       	ret

000049f4 <__gesf2>:
    49f4:	8a df       	rcall	.-236    	; 0x490a <__fp_cmp>
    49f6:	08 f4       	brcc	.+2      	; 0x49fa <__gesf2+0x6>
    49f8:	8f ef       	ldi	r24, 0xFF	; 255
    49fa:	08 95       	ret

000049fc <__mulsf3>:
    49fc:	0b d0       	rcall	.+22     	; 0x4a14 <__mulsf3x>
    49fe:	c0 cf       	rjmp	.-128    	; 0x4980 <__fp_round>
    4a00:	b1 df       	rcall	.-158    	; 0x4964 <__fp_pscA>
    4a02:	28 f0       	brcs	.+10     	; 0x4a0e <__mulsf3+0x12>
    4a04:	b6 df       	rcall	.-148    	; 0x4972 <__fp_pscB>
    4a06:	18 f0       	brcs	.+6      	; 0x4a0e <__mulsf3+0x12>
    4a08:	95 23       	and	r25, r21
    4a0a:	09 f0       	breq	.+2      	; 0x4a0e <__mulsf3+0x12>
    4a0c:	a2 cf       	rjmp	.-188    	; 0x4952 <__fp_inf>
    4a0e:	a7 cf       	rjmp	.-178    	; 0x495e <__fp_nan>
    4a10:	11 24       	eor	r1, r1
    4a12:	ea cf       	rjmp	.-44     	; 0x49e8 <__fp_szero>

00004a14 <__mulsf3x>:
    4a14:	c6 df       	rcall	.-116    	; 0x49a2 <__fp_split3>
    4a16:	a0 f3       	brcs	.-24     	; 0x4a00 <__mulsf3+0x4>

00004a18 <__mulsf3_pse>:
    4a18:	95 9f       	mul	r25, r21
    4a1a:	d1 f3       	breq	.-12     	; 0x4a10 <__mulsf3+0x14>
    4a1c:	95 0f       	add	r25, r21
    4a1e:	50 e0       	ldi	r21, 0x00	; 0
    4a20:	55 1f       	adc	r21, r21
    4a22:	62 9f       	mul	r22, r18
    4a24:	f0 01       	movw	r30, r0
    4a26:	72 9f       	mul	r23, r18
    4a28:	bb 27       	eor	r27, r27
    4a2a:	f0 0d       	add	r31, r0
    4a2c:	b1 1d       	adc	r27, r1
    4a2e:	63 9f       	mul	r22, r19
    4a30:	aa 27       	eor	r26, r26
    4a32:	f0 0d       	add	r31, r0
    4a34:	b1 1d       	adc	r27, r1
    4a36:	aa 1f       	adc	r26, r26
    4a38:	64 9f       	mul	r22, r20
    4a3a:	66 27       	eor	r22, r22
    4a3c:	b0 0d       	add	r27, r0
    4a3e:	a1 1d       	adc	r26, r1
    4a40:	66 1f       	adc	r22, r22
    4a42:	82 9f       	mul	r24, r18
    4a44:	22 27       	eor	r18, r18
    4a46:	b0 0d       	add	r27, r0
    4a48:	a1 1d       	adc	r26, r1
    4a4a:	62 1f       	adc	r22, r18
    4a4c:	73 9f       	mul	r23, r19
    4a4e:	b0 0d       	add	r27, r0
    4a50:	a1 1d       	adc	r26, r1
    4a52:	62 1f       	adc	r22, r18
    4a54:	83 9f       	mul	r24, r19
    4a56:	a0 0d       	add	r26, r0
    4a58:	61 1d       	adc	r22, r1
    4a5a:	22 1f       	adc	r18, r18
    4a5c:	74 9f       	mul	r23, r20
    4a5e:	33 27       	eor	r19, r19
    4a60:	a0 0d       	add	r26, r0
    4a62:	61 1d       	adc	r22, r1
    4a64:	23 1f       	adc	r18, r19
    4a66:	84 9f       	mul	r24, r20
    4a68:	60 0d       	add	r22, r0
    4a6a:	21 1d       	adc	r18, r1
    4a6c:	82 2f       	mov	r24, r18
    4a6e:	76 2f       	mov	r23, r22
    4a70:	6a 2f       	mov	r22, r26
    4a72:	11 24       	eor	r1, r1
    4a74:	9f 57       	subi	r25, 0x7F	; 127
    4a76:	50 40       	sbci	r21, 0x00	; 0
    4a78:	8a f0       	brmi	.+34     	; 0x4a9c <__mulsf3_pse+0x84>
    4a7a:	e1 f0       	breq	.+56     	; 0x4ab4 <__mulsf3_pse+0x9c>
    4a7c:	88 23       	and	r24, r24
    4a7e:	4a f0       	brmi	.+18     	; 0x4a92 <__mulsf3_pse+0x7a>
    4a80:	ee 0f       	add	r30, r30
    4a82:	ff 1f       	adc	r31, r31
    4a84:	bb 1f       	adc	r27, r27
    4a86:	66 1f       	adc	r22, r22
    4a88:	77 1f       	adc	r23, r23
    4a8a:	88 1f       	adc	r24, r24
    4a8c:	91 50       	subi	r25, 0x01	; 1
    4a8e:	50 40       	sbci	r21, 0x00	; 0
    4a90:	a9 f7       	brne	.-22     	; 0x4a7c <__mulsf3_pse+0x64>
    4a92:	9e 3f       	cpi	r25, 0xFE	; 254
    4a94:	51 05       	cpc	r21, r1
    4a96:	70 f0       	brcs	.+28     	; 0x4ab4 <__mulsf3_pse+0x9c>
    4a98:	5c cf       	rjmp	.-328    	; 0x4952 <__fp_inf>
    4a9a:	a6 cf       	rjmp	.-180    	; 0x49e8 <__fp_szero>
    4a9c:	5f 3f       	cpi	r21, 0xFF	; 255
    4a9e:	ec f3       	brlt	.-6      	; 0x4a9a <__mulsf3_pse+0x82>
    4aa0:	98 3e       	cpi	r25, 0xE8	; 232
    4aa2:	dc f3       	brlt	.-10     	; 0x4a9a <__mulsf3_pse+0x82>
    4aa4:	86 95       	lsr	r24
    4aa6:	77 95       	ror	r23
    4aa8:	67 95       	ror	r22
    4aaa:	b7 95       	ror	r27
    4aac:	f7 95       	ror	r31
    4aae:	e7 95       	ror	r30
    4ab0:	9f 5f       	subi	r25, 0xFF	; 255
    4ab2:	c1 f7       	brne	.-16     	; 0x4aa4 <__mulsf3_pse+0x8c>
    4ab4:	fe 2b       	or	r31, r30
    4ab6:	88 0f       	add	r24, r24
    4ab8:	91 1d       	adc	r25, r1
    4aba:	96 95       	lsr	r25
    4abc:	87 95       	ror	r24
    4abe:	97 f9       	bld	r25, 7
    4ac0:	08 95       	ret

00004ac2 <pow>:
    4ac2:	fa 01       	movw	r30, r20
    4ac4:	ee 0f       	add	r30, r30
    4ac6:	ff 1f       	adc	r31, r31
    4ac8:	30 96       	adiw	r30, 0x00	; 0
    4aca:	21 05       	cpc	r18, r1
    4acc:	31 05       	cpc	r19, r1
    4ace:	99 f1       	breq	.+102    	; 0x4b36 <pow+0x74>
    4ad0:	61 15       	cp	r22, r1
    4ad2:	71 05       	cpc	r23, r1
    4ad4:	61 f4       	brne	.+24     	; 0x4aee <pow+0x2c>
    4ad6:	80 38       	cpi	r24, 0x80	; 128
    4ad8:	bf e3       	ldi	r27, 0x3F	; 63
    4ada:	9b 07       	cpc	r25, r27
    4adc:	49 f1       	breq	.+82     	; 0x4b30 <pow+0x6e>
    4ade:	68 94       	set
    4ae0:	90 38       	cpi	r25, 0x80	; 128
    4ae2:	81 05       	cpc	r24, r1
    4ae4:	61 f0       	breq	.+24     	; 0x4afe <pow+0x3c>
    4ae6:	80 38       	cpi	r24, 0x80	; 128
    4ae8:	bf ef       	ldi	r27, 0xFF	; 255
    4aea:	9b 07       	cpc	r25, r27
    4aec:	41 f0       	breq	.+16     	; 0x4afe <pow+0x3c>
    4aee:	99 23       	and	r25, r25
    4af0:	42 f5       	brpl	.+80     	; 0x4b42 <pow+0x80>
    4af2:	ff 3f       	cpi	r31, 0xFF	; 255
    4af4:	e1 05       	cpc	r30, r1
    4af6:	31 05       	cpc	r19, r1
    4af8:	21 05       	cpc	r18, r1
    4afa:	11 f1       	breq	.+68     	; 0x4b40 <pow+0x7e>
    4afc:	e8 94       	clt
    4afe:	08 94       	sec
    4b00:	e7 95       	ror	r30
    4b02:	d9 01       	movw	r26, r18
    4b04:	aa 23       	and	r26, r26
    4b06:	29 f4       	brne	.+10     	; 0x4b12 <pow+0x50>
    4b08:	ab 2f       	mov	r26, r27
    4b0a:	be 2f       	mov	r27, r30
    4b0c:	f8 5f       	subi	r31, 0xF8	; 248
    4b0e:	d0 f3       	brcs	.-12     	; 0x4b04 <pow+0x42>
    4b10:	10 c0       	rjmp	.+32     	; 0x4b32 <pow+0x70>
    4b12:	ff 5f       	subi	r31, 0xFF	; 255
    4b14:	70 f4       	brcc	.+28     	; 0x4b32 <pow+0x70>
    4b16:	a6 95       	lsr	r26
    4b18:	e0 f7       	brcc	.-8      	; 0x4b12 <pow+0x50>
    4b1a:	f7 39       	cpi	r31, 0x97	; 151
    4b1c:	50 f0       	brcs	.+20     	; 0x4b32 <pow+0x70>
    4b1e:	19 f0       	breq	.+6      	; 0x4b26 <pow+0x64>
    4b20:	ff 3a       	cpi	r31, 0xAF	; 175
    4b22:	38 f4       	brcc	.+14     	; 0x4b32 <pow+0x70>
    4b24:	9f 77       	andi	r25, 0x7F	; 127
    4b26:	9f 93       	push	r25
    4b28:	0c d0       	rcall	.+24     	; 0x4b42 <pow+0x80>
    4b2a:	0f 90       	pop	r0
    4b2c:	07 fc       	sbrc	r0, 7
    4b2e:	90 58       	subi	r25, 0x80	; 128
    4b30:	08 95       	ret
    4b32:	3e f0       	brts	.+14     	; 0x4b42 <pow+0x80>
    4b34:	14 cf       	rjmp	.-472    	; 0x495e <__fp_nan>
    4b36:	60 e0       	ldi	r22, 0x00	; 0
    4b38:	70 e0       	ldi	r23, 0x00	; 0
    4b3a:	80 e8       	ldi	r24, 0x80	; 128
    4b3c:	9f e3       	ldi	r25, 0x3F	; 63
    4b3e:	08 95       	ret
    4b40:	4f e7       	ldi	r20, 0x7F	; 127
    4b42:	9f 77       	andi	r25, 0x7F	; 127
    4b44:	5f 93       	push	r21
    4b46:	4f 93       	push	r20
    4b48:	3f 93       	push	r19
    4b4a:	2f 93       	push	r18
    4b4c:	9e d0       	rcall	.+316    	; 0x4c8a <log>
    4b4e:	2f 91       	pop	r18
    4b50:	3f 91       	pop	r19
    4b52:	4f 91       	pop	r20
    4b54:	5f 91       	pop	r21
    4b56:	52 df       	rcall	.-348    	; 0x49fc <__mulsf3>
    4b58:	05 c0       	rjmp	.+10     	; 0x4b64 <exp>
    4b5a:	19 f4       	brne	.+6      	; 0x4b62 <pow+0xa0>
    4b5c:	0e f0       	brts	.+2      	; 0x4b60 <pow+0x9e>
    4b5e:	f9 ce       	rjmp	.-526    	; 0x4952 <__fp_inf>
    4b60:	42 cf       	rjmp	.-380    	; 0x49e6 <__fp_zero>
    4b62:	fd ce       	rjmp	.-518    	; 0x495e <__fp_nan>

00004b64 <exp>:
    4b64:	26 df       	rcall	.-436    	; 0x49b2 <__fp_splitA>
    4b66:	c8 f3       	brcs	.-14     	; 0x4b5a <pow+0x98>
    4b68:	96 38       	cpi	r25, 0x86	; 134
    4b6a:	c0 f7       	brcc	.-16     	; 0x4b5c <pow+0x9a>
    4b6c:	07 f8       	bld	r0, 7
    4b6e:	0f 92       	push	r0
    4b70:	e8 94       	clt
    4b72:	2b e3       	ldi	r18, 0x3B	; 59
    4b74:	3a ea       	ldi	r19, 0xAA	; 170
    4b76:	48 eb       	ldi	r20, 0xB8	; 184
    4b78:	5f e7       	ldi	r21, 0x7F	; 127
    4b7a:	4e df       	rcall	.-356    	; 0x4a18 <__mulsf3_pse>
    4b7c:	0f 92       	push	r0
    4b7e:	0f 92       	push	r0
    4b80:	0f 92       	push	r0
    4b82:	4d b7       	in	r20, 0x3d	; 61
    4b84:	5e b7       	in	r21, 0x3e	; 62
    4b86:	0f 92       	push	r0
    4b88:	c0 d0       	rcall	.+384    	; 0x4d0a <modf>
    4b8a:	e2 e2       	ldi	r30, 0x22	; 34
    4b8c:	f2 e0       	ldi	r31, 0x02	; 2
    4b8e:	16 d0       	rcall	.+44     	; 0x4bbc <__fp_powser>
    4b90:	4f 91       	pop	r20
    4b92:	5f 91       	pop	r21
    4b94:	ef 91       	pop	r30
    4b96:	ff 91       	pop	r31
    4b98:	e5 95       	asr	r30
    4b9a:	ee 1f       	adc	r30, r30
    4b9c:	ff 1f       	adc	r31, r31
    4b9e:	49 f0       	breq	.+18     	; 0x4bb2 <exp+0x4e>
    4ba0:	fe 57       	subi	r31, 0x7E	; 126
    4ba2:	e0 68       	ori	r30, 0x80	; 128
    4ba4:	44 27       	eor	r20, r20
    4ba6:	ee 0f       	add	r30, r30
    4ba8:	44 1f       	adc	r20, r20
    4baa:	fa 95       	dec	r31
    4bac:	e1 f7       	brne	.-8      	; 0x4ba6 <exp+0x42>
    4bae:	41 95       	neg	r20
    4bb0:	55 0b       	sbc	r21, r21
    4bb2:	32 d0       	rcall	.+100    	; 0x4c18 <ldexp>
    4bb4:	0f 90       	pop	r0
    4bb6:	07 fe       	sbrs	r0, 7
    4bb8:	26 c0       	rjmp	.+76     	; 0x4c06 <inverse>
    4bba:	08 95       	ret

00004bbc <__fp_powser>:
    4bbc:	df 93       	push	r29
    4bbe:	cf 93       	push	r28
    4bc0:	1f 93       	push	r17
    4bc2:	0f 93       	push	r16
    4bc4:	ff 92       	push	r15
    4bc6:	ef 92       	push	r14
    4bc8:	df 92       	push	r13
    4bca:	7b 01       	movw	r14, r22
    4bcc:	8c 01       	movw	r16, r24
    4bce:	68 94       	set
    4bd0:	05 c0       	rjmp	.+10     	; 0x4bdc <__fp_powser+0x20>
    4bd2:	da 2e       	mov	r13, r26
    4bd4:	ef 01       	movw	r28, r30
    4bd6:	1e df       	rcall	.-452    	; 0x4a14 <__mulsf3x>
    4bd8:	fe 01       	movw	r30, r28
    4bda:	e8 94       	clt
    4bdc:	a5 91       	lpm	r26, Z+
    4bde:	25 91       	lpm	r18, Z+
    4be0:	35 91       	lpm	r19, Z+
    4be2:	45 91       	lpm	r20, Z+
    4be4:	55 91       	lpm	r21, Z+
    4be6:	ae f3       	brts	.-22     	; 0x4bd2 <__fp_powser+0x16>
    4be8:	ef 01       	movw	r28, r30
    4bea:	62 dd       	rcall	.-1340   	; 0x46b0 <__addsf3x>
    4bec:	fe 01       	movw	r30, r28
    4bee:	97 01       	movw	r18, r14
    4bf0:	a8 01       	movw	r20, r16
    4bf2:	da 94       	dec	r13
    4bf4:	79 f7       	brne	.-34     	; 0x4bd4 <__fp_powser+0x18>
    4bf6:	df 90       	pop	r13
    4bf8:	ef 90       	pop	r14
    4bfa:	ff 90       	pop	r15
    4bfc:	0f 91       	pop	r16
    4bfe:	1f 91       	pop	r17
    4c00:	cf 91       	pop	r28
    4c02:	df 91       	pop	r29
    4c04:	08 95       	ret

00004c06 <inverse>:
    4c06:	9b 01       	movw	r18, r22
    4c08:	ac 01       	movw	r20, r24
    4c0a:	60 e0       	ldi	r22, 0x00	; 0
    4c0c:	70 e0       	ldi	r23, 0x00	; 0
    4c0e:	80 e8       	ldi	r24, 0x80	; 128
    4c10:	9f e3       	ldi	r25, 0x3F	; 63
    4c12:	a5 cd       	rjmp	.-1206   	; 0x475e <__divsf3>
    4c14:	9e ce       	rjmp	.-708    	; 0x4952 <__fp_inf>
    4c16:	ac c0       	rjmp	.+344    	; 0x4d70 <__fp_mpack>

00004c18 <ldexp>:
    4c18:	cc de       	rcall	.-616    	; 0x49b2 <__fp_splitA>
    4c1a:	e8 f3       	brcs	.-6      	; 0x4c16 <inverse+0x10>
    4c1c:	99 23       	and	r25, r25
    4c1e:	d9 f3       	breq	.-10     	; 0x4c16 <inverse+0x10>
    4c20:	94 0f       	add	r25, r20
    4c22:	51 1d       	adc	r21, r1
    4c24:	bb f3       	brvs	.-18     	; 0x4c14 <inverse+0xe>
    4c26:	91 50       	subi	r25, 0x01	; 1
    4c28:	50 40       	sbci	r21, 0x00	; 0
    4c2a:	94 f0       	brlt	.+36     	; 0x4c50 <ldexp+0x38>
    4c2c:	59 f0       	breq	.+22     	; 0x4c44 <ldexp+0x2c>
    4c2e:	88 23       	and	r24, r24
    4c30:	32 f0       	brmi	.+12     	; 0x4c3e <ldexp+0x26>
    4c32:	66 0f       	add	r22, r22
    4c34:	77 1f       	adc	r23, r23
    4c36:	88 1f       	adc	r24, r24
    4c38:	91 50       	subi	r25, 0x01	; 1
    4c3a:	50 40       	sbci	r21, 0x00	; 0
    4c3c:	c1 f7       	brne	.-16     	; 0x4c2e <ldexp+0x16>
    4c3e:	9e 3f       	cpi	r25, 0xFE	; 254
    4c40:	51 05       	cpc	r21, r1
    4c42:	44 f7       	brge	.-48     	; 0x4c14 <inverse+0xe>
    4c44:	88 0f       	add	r24, r24
    4c46:	91 1d       	adc	r25, r1
    4c48:	96 95       	lsr	r25
    4c4a:	87 95       	ror	r24
    4c4c:	97 f9       	bld	r25, 7
    4c4e:	08 95       	ret
    4c50:	5f 3f       	cpi	r21, 0xFF	; 255
    4c52:	ac f0       	brlt	.+42     	; 0x4c7e <ldexp+0x66>
    4c54:	98 3e       	cpi	r25, 0xE8	; 232
    4c56:	9c f0       	brlt	.+38     	; 0x4c7e <ldexp+0x66>
    4c58:	bb 27       	eor	r27, r27
    4c5a:	86 95       	lsr	r24
    4c5c:	77 95       	ror	r23
    4c5e:	67 95       	ror	r22
    4c60:	b7 95       	ror	r27
    4c62:	08 f4       	brcc	.+2      	; 0x4c66 <ldexp+0x4e>
    4c64:	b1 60       	ori	r27, 0x01	; 1
    4c66:	93 95       	inc	r25
    4c68:	c1 f7       	brne	.-16     	; 0x4c5a <ldexp+0x42>
    4c6a:	bb 0f       	add	r27, r27
    4c6c:	58 f7       	brcc	.-42     	; 0x4c44 <ldexp+0x2c>
    4c6e:	11 f4       	brne	.+4      	; 0x4c74 <ldexp+0x5c>
    4c70:	60 ff       	sbrs	r22, 0
    4c72:	e8 cf       	rjmp	.-48     	; 0x4c44 <ldexp+0x2c>
    4c74:	6f 5f       	subi	r22, 0xFF	; 255
    4c76:	7f 4f       	sbci	r23, 0xFF	; 255
    4c78:	8f 4f       	sbci	r24, 0xFF	; 255
    4c7a:	9f 4f       	sbci	r25, 0xFF	; 255
    4c7c:	e3 cf       	rjmp	.-58     	; 0x4c44 <ldexp+0x2c>
    4c7e:	b4 ce       	rjmp	.-664    	; 0x49e8 <__fp_szero>
    4c80:	0e f0       	brts	.+2      	; 0x4c84 <ldexp+0x6c>
    4c82:	76 c0       	rjmp	.+236    	; 0x4d70 <__fp_mpack>
    4c84:	6c ce       	rjmp	.-808    	; 0x495e <__fp_nan>
    4c86:	68 94       	set
    4c88:	64 ce       	rjmp	.-824    	; 0x4952 <__fp_inf>

00004c8a <log>:
    4c8a:	93 de       	rcall	.-730    	; 0x49b2 <__fp_splitA>
    4c8c:	c8 f3       	brcs	.-14     	; 0x4c80 <ldexp+0x68>
    4c8e:	99 23       	and	r25, r25
    4c90:	d1 f3       	breq	.-12     	; 0x4c86 <ldexp+0x6e>
    4c92:	c6 f3       	brts	.-16     	; 0x4c84 <ldexp+0x6c>
    4c94:	df 93       	push	r29
    4c96:	cf 93       	push	r28
    4c98:	1f 93       	push	r17
    4c9a:	0f 93       	push	r16
    4c9c:	ff 92       	push	r15
    4c9e:	c9 2f       	mov	r28, r25
    4ca0:	dd 27       	eor	r29, r29
    4ca2:	88 23       	and	r24, r24
    4ca4:	2a f0       	brmi	.+10     	; 0x4cb0 <log+0x26>
    4ca6:	21 97       	sbiw	r28, 0x01	; 1
    4ca8:	66 0f       	add	r22, r22
    4caa:	77 1f       	adc	r23, r23
    4cac:	88 1f       	adc	r24, r24
    4cae:	da f7       	brpl	.-10     	; 0x4ca6 <log+0x1c>
    4cb0:	20 e0       	ldi	r18, 0x00	; 0
    4cb2:	30 e0       	ldi	r19, 0x00	; 0
    4cb4:	40 e8       	ldi	r20, 0x80	; 128
    4cb6:	5f eb       	ldi	r21, 0xBF	; 191
    4cb8:	9f e3       	ldi	r25, 0x3F	; 63
    4cba:	88 39       	cpi	r24, 0x98	; 152
    4cbc:	20 f0       	brcs	.+8      	; 0x4cc6 <log+0x3c>
    4cbe:	80 3e       	cpi	r24, 0xE0	; 224
    4cc0:	30 f0       	brcs	.+12     	; 0x4cce <log+0x44>
    4cc2:	21 96       	adiw	r28, 0x01	; 1
    4cc4:	8f 77       	andi	r24, 0x7F	; 127
    4cc6:	e3 dc       	rcall	.-1594   	; 0x468e <__addsf3>
    4cc8:	ea e4       	ldi	r30, 0x4A	; 74
    4cca:	f2 e0       	ldi	r31, 0x02	; 2
    4ccc:	03 c0       	rjmp	.+6      	; 0x4cd4 <log+0x4a>
    4cce:	df dc       	rcall	.-1602   	; 0x468e <__addsf3>
    4cd0:	e7 e7       	ldi	r30, 0x77	; 119
    4cd2:	f2 e0       	ldi	r31, 0x02	; 2
    4cd4:	73 df       	rcall	.-282    	; 0x4bbc <__fp_powser>
    4cd6:	8b 01       	movw	r16, r22
    4cd8:	be 01       	movw	r22, r28
    4cda:	ec 01       	movw	r28, r24
    4cdc:	fb 2e       	mov	r15, r27
    4cde:	6f 57       	subi	r22, 0x7F	; 127
    4ce0:	71 09       	sbc	r23, r1
    4ce2:	75 95       	asr	r23
    4ce4:	77 1f       	adc	r23, r23
    4ce6:	88 0b       	sbc	r24, r24
    4ce8:	99 0b       	sbc	r25, r25
    4cea:	d4 dd       	rcall	.-1112   	; 0x4894 <__floatsisf>
    4cec:	28 e1       	ldi	r18, 0x18	; 24
    4cee:	32 e7       	ldi	r19, 0x72	; 114
    4cf0:	41 e3       	ldi	r20, 0x31	; 49
    4cf2:	5f e3       	ldi	r21, 0x3F	; 63
    4cf4:	8f de       	rcall	.-738    	; 0x4a14 <__mulsf3x>
    4cf6:	af 2d       	mov	r26, r15
    4cf8:	98 01       	movw	r18, r16
    4cfa:	ae 01       	movw	r20, r28
    4cfc:	ff 90       	pop	r15
    4cfe:	0f 91       	pop	r16
    4d00:	1f 91       	pop	r17
    4d02:	cf 91       	pop	r28
    4d04:	df 91       	pop	r29
    4d06:	d4 dc       	rcall	.-1624   	; 0x46b0 <__addsf3x>
    4d08:	3b ce       	rjmp	.-906    	; 0x4980 <__fp_round>

00004d0a <modf>:
    4d0a:	fa 01       	movw	r30, r20
    4d0c:	dc 01       	movw	r26, r24
    4d0e:	aa 0f       	add	r26, r26
    4d10:	bb 1f       	adc	r27, r27
    4d12:	9b 01       	movw	r18, r22
    4d14:	ac 01       	movw	r20, r24
    4d16:	bf 57       	subi	r27, 0x7F	; 127
    4d18:	28 f4       	brcc	.+10     	; 0x4d24 <modf+0x1a>
    4d1a:	22 27       	eor	r18, r18
    4d1c:	33 27       	eor	r19, r19
    4d1e:	44 27       	eor	r20, r20
    4d20:	50 78       	andi	r21, 0x80	; 128
    4d22:	1f c0       	rjmp	.+62     	; 0x4d62 <modf+0x58>
    4d24:	b7 51       	subi	r27, 0x17	; 23
    4d26:	88 f4       	brcc	.+34     	; 0x4d4a <modf+0x40>
    4d28:	ab 2f       	mov	r26, r27
    4d2a:	00 24       	eor	r0, r0
    4d2c:	46 95       	lsr	r20
    4d2e:	37 95       	ror	r19
    4d30:	27 95       	ror	r18
    4d32:	01 1c       	adc	r0, r1
    4d34:	a3 95       	inc	r26
    4d36:	d2 f3       	brmi	.-12     	; 0x4d2c <modf+0x22>
    4d38:	00 20       	and	r0, r0
    4d3a:	69 f0       	breq	.+26     	; 0x4d56 <modf+0x4c>
    4d3c:	22 0f       	add	r18, r18
    4d3e:	33 1f       	adc	r19, r19
    4d40:	44 1f       	adc	r20, r20
    4d42:	b3 95       	inc	r27
    4d44:	da f3       	brmi	.-10     	; 0x4d3c <modf+0x32>
    4d46:	0d d0       	rcall	.+26     	; 0x4d62 <modf+0x58>
    4d48:	a1 cc       	rjmp	.-1726   	; 0x468c <__subsf3>
    4d4a:	61 30       	cpi	r22, 0x01	; 1
    4d4c:	71 05       	cpc	r23, r1
    4d4e:	a0 e8       	ldi	r26, 0x80	; 128
    4d50:	8a 07       	cpc	r24, r26
    4d52:	b9 46       	sbci	r27, 0x69	; 105
    4d54:	30 f4       	brcc	.+12     	; 0x4d62 <modf+0x58>
    4d56:	9b 01       	movw	r18, r22
    4d58:	ac 01       	movw	r20, r24
    4d5a:	66 27       	eor	r22, r22
    4d5c:	77 27       	eor	r23, r23
    4d5e:	88 27       	eor	r24, r24
    4d60:	90 78       	andi	r25, 0x80	; 128
    4d62:	30 96       	adiw	r30, 0x00	; 0
    4d64:	21 f0       	breq	.+8      	; 0x4d6e <modf+0x64>
    4d66:	20 83       	st	Z, r18
    4d68:	31 83       	std	Z+1, r19	; 0x01
    4d6a:	42 83       	std	Z+2, r20	; 0x02
    4d6c:	53 83       	std	Z+3, r21	; 0x03
    4d6e:	08 95       	ret

00004d70 <__fp_mpack>:
    4d70:	9f 3f       	cpi	r25, 0xFF	; 255
    4d72:	31 f0       	breq	.+12     	; 0x4d80 <__fp_mpack_finite+0xc>

00004d74 <__fp_mpack_finite>:
    4d74:	91 50       	subi	r25, 0x01	; 1
    4d76:	20 f4       	brcc	.+8      	; 0x4d80 <__fp_mpack_finite+0xc>
    4d78:	87 95       	ror	r24
    4d7a:	77 95       	ror	r23
    4d7c:	67 95       	ror	r22
    4d7e:	b7 95       	ror	r27
    4d80:	88 0f       	add	r24, r24
    4d82:	91 1d       	adc	r25, r1
    4d84:	96 95       	lsr	r25
    4d86:	87 95       	ror	r24
    4d88:	97 f9       	bld	r25, 7
    4d8a:	08 95       	ret

00004d8c <__mulsi3>:
    4d8c:	db 01       	movw	r26, r22
    4d8e:	8f 93       	push	r24
    4d90:	9f 93       	push	r25
    4d92:	88 d0       	rcall	.+272    	; 0x4ea4 <__muluhisi3>
    4d94:	bf 91       	pop	r27
    4d96:	af 91       	pop	r26
    4d98:	a2 9f       	mul	r26, r18
    4d9a:	80 0d       	add	r24, r0
    4d9c:	91 1d       	adc	r25, r1
    4d9e:	a3 9f       	mul	r26, r19
    4da0:	90 0d       	add	r25, r0
    4da2:	b2 9f       	mul	r27, r18
    4da4:	90 0d       	add	r25, r0
    4da6:	11 24       	eor	r1, r1
    4da8:	08 95       	ret

00004daa <__udivmodhi4>:
    4daa:	aa 1b       	sub	r26, r26
    4dac:	bb 1b       	sub	r27, r27
    4dae:	51 e1       	ldi	r21, 0x11	; 17
    4db0:	07 c0       	rjmp	.+14     	; 0x4dc0 <__udivmodhi4_ep>

00004db2 <__udivmodhi4_loop>:
    4db2:	aa 1f       	adc	r26, r26
    4db4:	bb 1f       	adc	r27, r27
    4db6:	a6 17       	cp	r26, r22
    4db8:	b7 07       	cpc	r27, r23
    4dba:	10 f0       	brcs	.+4      	; 0x4dc0 <__udivmodhi4_ep>
    4dbc:	a6 1b       	sub	r26, r22
    4dbe:	b7 0b       	sbc	r27, r23

00004dc0 <__udivmodhi4_ep>:
    4dc0:	88 1f       	adc	r24, r24
    4dc2:	99 1f       	adc	r25, r25
    4dc4:	5a 95       	dec	r21
    4dc6:	a9 f7       	brne	.-22     	; 0x4db2 <__udivmodhi4_loop>
    4dc8:	80 95       	com	r24
    4dca:	90 95       	com	r25
    4dcc:	bc 01       	movw	r22, r24
    4dce:	cd 01       	movw	r24, r26
    4dd0:	08 95       	ret

00004dd2 <__divmodhi4>:
    4dd2:	97 fb       	bst	r25, 7
    4dd4:	07 2e       	mov	r0, r23
    4dd6:	16 f4       	brtc	.+4      	; 0x4ddc <__divmodhi4+0xa>
    4dd8:	00 94       	com	r0
    4dda:	06 d0       	rcall	.+12     	; 0x4de8 <__divmodhi4_neg1>
    4ddc:	77 fd       	sbrc	r23, 7
    4dde:	08 d0       	rcall	.+16     	; 0x4df0 <__divmodhi4_neg2>
    4de0:	e4 df       	rcall	.-56     	; 0x4daa <__udivmodhi4>
    4de2:	07 fc       	sbrc	r0, 7
    4de4:	05 d0       	rcall	.+10     	; 0x4df0 <__divmodhi4_neg2>
    4de6:	3e f4       	brtc	.+14     	; 0x4df6 <__divmodhi4_exit>

00004de8 <__divmodhi4_neg1>:
    4de8:	90 95       	com	r25
    4dea:	81 95       	neg	r24
    4dec:	9f 4f       	sbci	r25, 0xFF	; 255
    4dee:	08 95       	ret

00004df0 <__divmodhi4_neg2>:
    4df0:	70 95       	com	r23
    4df2:	61 95       	neg	r22
    4df4:	7f 4f       	sbci	r23, 0xFF	; 255

00004df6 <__divmodhi4_exit>:
    4df6:	08 95       	ret

00004df8 <__udivmodsi4>:
    4df8:	a1 e2       	ldi	r26, 0x21	; 33
    4dfa:	1a 2e       	mov	r1, r26
    4dfc:	aa 1b       	sub	r26, r26
    4dfe:	bb 1b       	sub	r27, r27
    4e00:	fd 01       	movw	r30, r26
    4e02:	0d c0       	rjmp	.+26     	; 0x4e1e <__udivmodsi4_ep>

00004e04 <__udivmodsi4_loop>:
    4e04:	aa 1f       	adc	r26, r26
    4e06:	bb 1f       	adc	r27, r27
    4e08:	ee 1f       	adc	r30, r30
    4e0a:	ff 1f       	adc	r31, r31
    4e0c:	a2 17       	cp	r26, r18
    4e0e:	b3 07       	cpc	r27, r19
    4e10:	e4 07       	cpc	r30, r20
    4e12:	f5 07       	cpc	r31, r21
    4e14:	20 f0       	brcs	.+8      	; 0x4e1e <__udivmodsi4_ep>
    4e16:	a2 1b       	sub	r26, r18
    4e18:	b3 0b       	sbc	r27, r19
    4e1a:	e4 0b       	sbc	r30, r20
    4e1c:	f5 0b       	sbc	r31, r21

00004e1e <__udivmodsi4_ep>:
    4e1e:	66 1f       	adc	r22, r22
    4e20:	77 1f       	adc	r23, r23
    4e22:	88 1f       	adc	r24, r24
    4e24:	99 1f       	adc	r25, r25
    4e26:	1a 94       	dec	r1
    4e28:	69 f7       	brne	.-38     	; 0x4e04 <__udivmodsi4_loop>
    4e2a:	60 95       	com	r22
    4e2c:	70 95       	com	r23
    4e2e:	80 95       	com	r24
    4e30:	90 95       	com	r25
    4e32:	9b 01       	movw	r18, r22
    4e34:	ac 01       	movw	r20, r24
    4e36:	bd 01       	movw	r22, r26
    4e38:	cf 01       	movw	r24, r30
    4e3a:	08 95       	ret

00004e3c <__divmodsi4>:
    4e3c:	05 2e       	mov	r0, r21
    4e3e:	97 fb       	bst	r25, 7
    4e40:	16 f4       	brtc	.+4      	; 0x4e46 <__divmodsi4+0xa>
    4e42:	00 94       	com	r0
    4e44:	0f d0       	rcall	.+30     	; 0x4e64 <__negsi2>
    4e46:	57 fd       	sbrc	r21, 7
    4e48:	05 d0       	rcall	.+10     	; 0x4e54 <__divmodsi4_neg2>
    4e4a:	d6 df       	rcall	.-84     	; 0x4df8 <__udivmodsi4>
    4e4c:	07 fc       	sbrc	r0, 7
    4e4e:	02 d0       	rcall	.+4      	; 0x4e54 <__divmodsi4_neg2>
    4e50:	46 f4       	brtc	.+16     	; 0x4e62 <__divmodsi4_exit>
    4e52:	08 c0       	rjmp	.+16     	; 0x4e64 <__negsi2>

00004e54 <__divmodsi4_neg2>:
    4e54:	50 95       	com	r21
    4e56:	40 95       	com	r20
    4e58:	30 95       	com	r19
    4e5a:	21 95       	neg	r18
    4e5c:	3f 4f       	sbci	r19, 0xFF	; 255
    4e5e:	4f 4f       	sbci	r20, 0xFF	; 255
    4e60:	5f 4f       	sbci	r21, 0xFF	; 255

00004e62 <__divmodsi4_exit>:
    4e62:	08 95       	ret

00004e64 <__negsi2>:
    4e64:	90 95       	com	r25
    4e66:	80 95       	com	r24
    4e68:	70 95       	com	r23
    4e6a:	61 95       	neg	r22
    4e6c:	7f 4f       	sbci	r23, 0xFF	; 255
    4e6e:	8f 4f       	sbci	r24, 0xFF	; 255
    4e70:	9f 4f       	sbci	r25, 0xFF	; 255
    4e72:	08 95       	ret

00004e74 <__tablejump2__>:
    4e74:	ee 0f       	add	r30, r30
    4e76:	ff 1f       	adc	r31, r31
    4e78:	88 1f       	adc	r24, r24
    4e7a:	8b bf       	out	0x3b, r24	; 59
    4e7c:	07 90       	elpm	r0, Z+
    4e7e:	f6 91       	elpm	r31, Z
    4e80:	e0 2d       	mov	r30, r0
    4e82:	1b be       	out	0x3b, r1	; 59
    4e84:	19 94       	eijmp

00004e86 <__umulhisi3>:
    4e86:	a2 9f       	mul	r26, r18
    4e88:	b0 01       	movw	r22, r0
    4e8a:	b3 9f       	mul	r27, r19
    4e8c:	c0 01       	movw	r24, r0
    4e8e:	a3 9f       	mul	r26, r19
    4e90:	70 0d       	add	r23, r0
    4e92:	81 1d       	adc	r24, r1
    4e94:	11 24       	eor	r1, r1
    4e96:	91 1d       	adc	r25, r1
    4e98:	b2 9f       	mul	r27, r18
    4e9a:	70 0d       	add	r23, r0
    4e9c:	81 1d       	adc	r24, r1
    4e9e:	11 24       	eor	r1, r1
    4ea0:	91 1d       	adc	r25, r1
    4ea2:	08 95       	ret

00004ea4 <__muluhisi3>:
    4ea4:	f0 df       	rcall	.-32     	; 0x4e86 <__umulhisi3>
    4ea6:	a5 9f       	mul	r26, r21
    4ea8:	90 0d       	add	r25, r0
    4eaa:	b4 9f       	mul	r27, r20
    4eac:	90 0d       	add	r25, r0
    4eae:	a4 9f       	mul	r26, r20
    4eb0:	80 0d       	add	r24, r0
    4eb2:	91 1d       	adc	r25, r1
    4eb4:	11 24       	eor	r1, r1
    4eb6:	08 95       	ret

00004eb8 <__ashldi3>:
    4eb8:	0f 93       	push	r16
    4eba:	08 30       	cpi	r16, 0x08	; 8
    4ebc:	90 f0       	brcs	.+36     	; 0x4ee2 <__ashldi3+0x2a>
    4ebe:	98 2f       	mov	r25, r24
    4ec0:	87 2f       	mov	r24, r23
    4ec2:	76 2f       	mov	r23, r22
    4ec4:	65 2f       	mov	r22, r21
    4ec6:	54 2f       	mov	r21, r20
    4ec8:	43 2f       	mov	r20, r19
    4eca:	32 2f       	mov	r19, r18
    4ecc:	22 27       	eor	r18, r18
    4ece:	08 50       	subi	r16, 0x08	; 8
    4ed0:	f4 cf       	rjmp	.-24     	; 0x4eba <__ashldi3+0x2>
    4ed2:	22 0f       	add	r18, r18
    4ed4:	33 1f       	adc	r19, r19
    4ed6:	44 1f       	adc	r20, r20
    4ed8:	55 1f       	adc	r21, r21
    4eda:	66 1f       	adc	r22, r22
    4edc:	77 1f       	adc	r23, r23
    4ede:	88 1f       	adc	r24, r24
    4ee0:	99 1f       	adc	r25, r25
    4ee2:	0a 95       	dec	r16
    4ee4:	b2 f7       	brpl	.-20     	; 0x4ed2 <__ashldi3+0x1a>
    4ee6:	0f 91       	pop	r16
    4ee8:	08 95       	ret

00004eea <__ashrdi3>:
    4eea:	97 fb       	bst	r25, 7
    4eec:	10 f8       	bld	r1, 0

00004eee <__lshrdi3>:
    4eee:	16 94       	lsr	r1
    4ef0:	00 08       	sbc	r0, r0
    4ef2:	0f 93       	push	r16
    4ef4:	08 30       	cpi	r16, 0x08	; 8
    4ef6:	98 f0       	brcs	.+38     	; 0x4f1e <__lshrdi3+0x30>
    4ef8:	08 50       	subi	r16, 0x08	; 8
    4efa:	23 2f       	mov	r18, r19
    4efc:	34 2f       	mov	r19, r20
    4efe:	45 2f       	mov	r20, r21
    4f00:	56 2f       	mov	r21, r22
    4f02:	67 2f       	mov	r22, r23
    4f04:	78 2f       	mov	r23, r24
    4f06:	89 2f       	mov	r24, r25
    4f08:	90 2d       	mov	r25, r0
    4f0a:	f4 cf       	rjmp	.-24     	; 0x4ef4 <__lshrdi3+0x6>
    4f0c:	05 94       	asr	r0
    4f0e:	97 95       	ror	r25
    4f10:	87 95       	ror	r24
    4f12:	77 95       	ror	r23
    4f14:	67 95       	ror	r22
    4f16:	57 95       	ror	r21
    4f18:	47 95       	ror	r20
    4f1a:	37 95       	ror	r19
    4f1c:	27 95       	ror	r18
    4f1e:	0a 95       	dec	r16
    4f20:	aa f7       	brpl	.-22     	; 0x4f0c <__lshrdi3+0x1e>
    4f22:	0f 91       	pop	r16
    4f24:	08 95       	ret

00004f26 <fdevopen>:
    4f26:	0f 93       	push	r16
    4f28:	1f 93       	push	r17
    4f2a:	cf 93       	push	r28
    4f2c:	df 93       	push	r29
    4f2e:	00 97       	sbiw	r24, 0x00	; 0
    4f30:	31 f4       	brne	.+12     	; 0x4f3e <fdevopen+0x18>
    4f32:	61 15       	cp	r22, r1
    4f34:	71 05       	cpc	r23, r1
    4f36:	19 f4       	brne	.+6      	; 0x4f3e <fdevopen+0x18>
    4f38:	80 e0       	ldi	r24, 0x00	; 0
    4f3a:	90 e0       	ldi	r25, 0x00	; 0
    4f3c:	39 c0       	rjmp	.+114    	; 0x4fb0 <fdevopen+0x8a>
    4f3e:	8b 01       	movw	r16, r22
    4f40:	ec 01       	movw	r28, r24
    4f42:	6e e0       	ldi	r22, 0x0E	; 14
    4f44:	70 e0       	ldi	r23, 0x00	; 0
    4f46:	81 e0       	ldi	r24, 0x01	; 1
    4f48:	90 e0       	ldi	r25, 0x00	; 0
    4f4a:	47 d5       	rcall	.+2702   	; 0x59da <calloc>
    4f4c:	fc 01       	movw	r30, r24
    4f4e:	89 2b       	or	r24, r25
    4f50:	99 f3       	breq	.-26     	; 0x4f38 <fdevopen+0x12>
    4f52:	80 e8       	ldi	r24, 0x80	; 128
    4f54:	83 83       	std	Z+3, r24	; 0x03
    4f56:	01 15       	cp	r16, r1
    4f58:	11 05       	cpc	r17, r1
    4f5a:	71 f0       	breq	.+28     	; 0x4f78 <fdevopen+0x52>
    4f5c:	02 87       	std	Z+10, r16	; 0x0a
    4f5e:	13 87       	std	Z+11, r17	; 0x0b
    4f60:	81 e8       	ldi	r24, 0x81	; 129
    4f62:	83 83       	std	Z+3, r24	; 0x03
    4f64:	80 91 04 22 	lds	r24, 0x2204	; 0x802204 <__iob>
    4f68:	90 91 05 22 	lds	r25, 0x2205	; 0x802205 <__iob+0x1>
    4f6c:	89 2b       	or	r24, r25
    4f6e:	21 f4       	brne	.+8      	; 0x4f78 <fdevopen+0x52>
    4f70:	e0 93 04 22 	sts	0x2204, r30	; 0x802204 <__iob>
    4f74:	f0 93 05 22 	sts	0x2205, r31	; 0x802205 <__iob+0x1>
    4f78:	20 97       	sbiw	r28, 0x00	; 0
    4f7a:	c9 f0       	breq	.+50     	; 0x4fae <fdevopen+0x88>
    4f7c:	c0 87       	std	Z+8, r28	; 0x08
    4f7e:	d1 87       	std	Z+9, r29	; 0x09
    4f80:	83 81       	ldd	r24, Z+3	; 0x03
    4f82:	82 60       	ori	r24, 0x02	; 2
    4f84:	83 83       	std	Z+3, r24	; 0x03
    4f86:	80 91 06 22 	lds	r24, 0x2206	; 0x802206 <__iob+0x2>
    4f8a:	90 91 07 22 	lds	r25, 0x2207	; 0x802207 <__iob+0x3>
    4f8e:	89 2b       	or	r24, r25
    4f90:	71 f4       	brne	.+28     	; 0x4fae <fdevopen+0x88>
    4f92:	e0 93 06 22 	sts	0x2206, r30	; 0x802206 <__iob+0x2>
    4f96:	f0 93 07 22 	sts	0x2207, r31	; 0x802207 <__iob+0x3>
    4f9a:	80 91 08 22 	lds	r24, 0x2208	; 0x802208 <__iob+0x4>
    4f9e:	90 91 09 22 	lds	r25, 0x2209	; 0x802209 <__iob+0x5>
    4fa2:	89 2b       	or	r24, r25
    4fa4:	21 f4       	brne	.+8      	; 0x4fae <fdevopen+0x88>
    4fa6:	e0 93 08 22 	sts	0x2208, r30	; 0x802208 <__iob+0x4>
    4faa:	f0 93 09 22 	sts	0x2209, r31	; 0x802209 <__iob+0x5>
    4fae:	cf 01       	movw	r24, r30
    4fb0:	df 91       	pop	r29
    4fb2:	cf 91       	pop	r28
    4fb4:	1f 91       	pop	r17
    4fb6:	0f 91       	pop	r16
    4fb8:	08 95       	ret

00004fba <printf>:
    4fba:	cf 93       	push	r28
    4fbc:	df 93       	push	r29
    4fbe:	cd b7       	in	r28, 0x3d	; 61
    4fc0:	de b7       	in	r29, 0x3e	; 62
    4fc2:	ae 01       	movw	r20, r28
    4fc4:	4a 5f       	subi	r20, 0xFA	; 250
    4fc6:	5f 4f       	sbci	r21, 0xFF	; 255
    4fc8:	fa 01       	movw	r30, r20
    4fca:	61 91       	ld	r22, Z+
    4fcc:	71 91       	ld	r23, Z+
    4fce:	af 01       	movw	r20, r30
    4fd0:	80 91 06 22 	lds	r24, 0x2206	; 0x802206 <__iob+0x2>
    4fd4:	90 91 07 22 	lds	r25, 0x2207	; 0x802207 <__iob+0x3>
    4fd8:	46 d0       	rcall	.+140    	; 0x5066 <vfprintf>
    4fda:	df 91       	pop	r29
    4fdc:	cf 91       	pop	r28
    4fde:	08 95       	ret

00004fe0 <sprintf>:
    4fe0:	0f 93       	push	r16
    4fe2:	1f 93       	push	r17
    4fe4:	cf 93       	push	r28
    4fe6:	df 93       	push	r29
    4fe8:	cd b7       	in	r28, 0x3d	; 61
    4fea:	de b7       	in	r29, 0x3e	; 62
    4fec:	2e 97       	sbiw	r28, 0x0e	; 14
    4fee:	cd bf       	out	0x3d, r28	; 61
    4ff0:	de bf       	out	0x3e, r29	; 62
    4ff2:	0e 89       	ldd	r16, Y+22	; 0x16
    4ff4:	1f 89       	ldd	r17, Y+23	; 0x17
    4ff6:	86 e0       	ldi	r24, 0x06	; 6
    4ff8:	8c 83       	std	Y+4, r24	; 0x04
    4ffa:	09 83       	std	Y+1, r16	; 0x01
    4ffc:	1a 83       	std	Y+2, r17	; 0x02
    4ffe:	8f ef       	ldi	r24, 0xFF	; 255
    5000:	9f e7       	ldi	r25, 0x7F	; 127
    5002:	8d 83       	std	Y+5, r24	; 0x05
    5004:	9e 83       	std	Y+6, r25	; 0x06
    5006:	ae 01       	movw	r20, r28
    5008:	46 5e       	subi	r20, 0xE6	; 230
    500a:	5f 4f       	sbci	r21, 0xFF	; 255
    500c:	68 8d       	ldd	r22, Y+24	; 0x18
    500e:	79 8d       	ldd	r23, Y+25	; 0x19
    5010:	ce 01       	movw	r24, r28
    5012:	01 96       	adiw	r24, 0x01	; 1
    5014:	28 d0       	rcall	.+80     	; 0x5066 <vfprintf>
    5016:	ef 81       	ldd	r30, Y+7	; 0x07
    5018:	f8 85       	ldd	r31, Y+8	; 0x08
    501a:	e0 0f       	add	r30, r16
    501c:	f1 1f       	adc	r31, r17
    501e:	10 82       	st	Z, r1
    5020:	2e 96       	adiw	r28, 0x0e	; 14
    5022:	cd bf       	out	0x3d, r28	; 61
    5024:	de bf       	out	0x3e, r29	; 62
    5026:	df 91       	pop	r29
    5028:	cf 91       	pop	r28
    502a:	1f 91       	pop	r17
    502c:	0f 91       	pop	r16
    502e:	08 95       	ret

00005030 <sscanf>:
    5030:	cf 93       	push	r28
    5032:	df 93       	push	r29
    5034:	cd b7       	in	r28, 0x3d	; 61
    5036:	de b7       	in	r29, 0x3e	; 62
    5038:	2e 97       	sbiw	r28, 0x0e	; 14
    503a:	cd bf       	out	0x3d, r28	; 61
    503c:	de bf       	out	0x3e, r29	; 62
    503e:	85 e0       	ldi	r24, 0x05	; 5
    5040:	8c 83       	std	Y+4, r24	; 0x04
    5042:	8c 89       	ldd	r24, Y+20	; 0x14
    5044:	9d 89       	ldd	r25, Y+21	; 0x15
    5046:	89 83       	std	Y+1, r24	; 0x01
    5048:	9a 83       	std	Y+2, r25	; 0x02
    504a:	ae 01       	movw	r20, r28
    504c:	48 5e       	subi	r20, 0xE8	; 232
    504e:	5f 4f       	sbci	r21, 0xFF	; 255
    5050:	6e 89       	ldd	r22, Y+22	; 0x16
    5052:	7f 89       	ldd	r23, Y+23	; 0x17
    5054:	ce 01       	movw	r24, r28
    5056:	01 96       	adiw	r24, 0x01	; 1
    5058:	a9 d3       	rcall	.+1874   	; 0x57ac <vfscanf>
    505a:	2e 96       	adiw	r28, 0x0e	; 14
    505c:	cd bf       	out	0x3d, r28	; 61
    505e:	de bf       	out	0x3e, r29	; 62
    5060:	df 91       	pop	r29
    5062:	cf 91       	pop	r28
    5064:	08 95       	ret

00005066 <vfprintf>:
    5066:	2f 92       	push	r2
    5068:	3f 92       	push	r3
    506a:	4f 92       	push	r4
    506c:	5f 92       	push	r5
    506e:	6f 92       	push	r6
    5070:	7f 92       	push	r7
    5072:	8f 92       	push	r8
    5074:	9f 92       	push	r9
    5076:	af 92       	push	r10
    5078:	bf 92       	push	r11
    507a:	cf 92       	push	r12
    507c:	df 92       	push	r13
    507e:	ef 92       	push	r14
    5080:	ff 92       	push	r15
    5082:	0f 93       	push	r16
    5084:	1f 93       	push	r17
    5086:	cf 93       	push	r28
    5088:	df 93       	push	r29
    508a:	cd b7       	in	r28, 0x3d	; 61
    508c:	de b7       	in	r29, 0x3e	; 62
    508e:	2b 97       	sbiw	r28, 0x0b	; 11
    5090:	cd bf       	out	0x3d, r28	; 61
    5092:	de bf       	out	0x3e, r29	; 62
    5094:	6c 01       	movw	r12, r24
    5096:	7b 01       	movw	r14, r22
    5098:	8a 01       	movw	r16, r20
    509a:	fc 01       	movw	r30, r24
    509c:	16 82       	std	Z+6, r1	; 0x06
    509e:	17 82       	std	Z+7, r1	; 0x07
    50a0:	83 81       	ldd	r24, Z+3	; 0x03
    50a2:	81 ff       	sbrs	r24, 1
    50a4:	bf c1       	rjmp	.+894    	; 0x5424 <vfprintf+0x3be>
    50a6:	ce 01       	movw	r24, r28
    50a8:	01 96       	adiw	r24, 0x01	; 1
    50aa:	3c 01       	movw	r6, r24
    50ac:	f6 01       	movw	r30, r12
    50ae:	93 81       	ldd	r25, Z+3	; 0x03
    50b0:	f7 01       	movw	r30, r14
    50b2:	93 fd       	sbrc	r25, 3
    50b4:	85 91       	lpm	r24, Z+
    50b6:	93 ff       	sbrs	r25, 3
    50b8:	81 91       	ld	r24, Z+
    50ba:	7f 01       	movw	r14, r30
    50bc:	88 23       	and	r24, r24
    50be:	09 f4       	brne	.+2      	; 0x50c2 <vfprintf+0x5c>
    50c0:	ad c1       	rjmp	.+858    	; 0x541c <vfprintf+0x3b6>
    50c2:	85 32       	cpi	r24, 0x25	; 37
    50c4:	39 f4       	brne	.+14     	; 0x50d4 <vfprintf+0x6e>
    50c6:	93 fd       	sbrc	r25, 3
    50c8:	85 91       	lpm	r24, Z+
    50ca:	93 ff       	sbrs	r25, 3
    50cc:	81 91       	ld	r24, Z+
    50ce:	7f 01       	movw	r14, r30
    50d0:	85 32       	cpi	r24, 0x25	; 37
    50d2:	21 f4       	brne	.+8      	; 0x50dc <vfprintf+0x76>
    50d4:	b6 01       	movw	r22, r12
    50d6:	90 e0       	ldi	r25, 0x00	; 0
    50d8:	29 d6       	rcall	.+3154   	; 0x5d2c <fputc>
    50da:	e8 cf       	rjmp	.-48     	; 0x50ac <vfprintf+0x46>
    50dc:	91 2c       	mov	r9, r1
    50de:	21 2c       	mov	r2, r1
    50e0:	31 2c       	mov	r3, r1
    50e2:	ff e1       	ldi	r31, 0x1F	; 31
    50e4:	f3 15       	cp	r31, r3
    50e6:	d8 f0       	brcs	.+54     	; 0x511e <vfprintf+0xb8>
    50e8:	8b 32       	cpi	r24, 0x2B	; 43
    50ea:	79 f0       	breq	.+30     	; 0x510a <vfprintf+0xa4>
    50ec:	38 f4       	brcc	.+14     	; 0x50fc <vfprintf+0x96>
    50ee:	80 32       	cpi	r24, 0x20	; 32
    50f0:	79 f0       	breq	.+30     	; 0x5110 <vfprintf+0xaa>
    50f2:	83 32       	cpi	r24, 0x23	; 35
    50f4:	a1 f4       	brne	.+40     	; 0x511e <vfprintf+0xb8>
    50f6:	23 2d       	mov	r18, r3
    50f8:	20 61       	ori	r18, 0x10	; 16
    50fa:	1d c0       	rjmp	.+58     	; 0x5136 <vfprintf+0xd0>
    50fc:	8d 32       	cpi	r24, 0x2D	; 45
    50fe:	61 f0       	breq	.+24     	; 0x5118 <vfprintf+0xb2>
    5100:	80 33       	cpi	r24, 0x30	; 48
    5102:	69 f4       	brne	.+26     	; 0x511e <vfprintf+0xb8>
    5104:	23 2d       	mov	r18, r3
    5106:	21 60       	ori	r18, 0x01	; 1
    5108:	16 c0       	rjmp	.+44     	; 0x5136 <vfprintf+0xd0>
    510a:	83 2d       	mov	r24, r3
    510c:	82 60       	ori	r24, 0x02	; 2
    510e:	38 2e       	mov	r3, r24
    5110:	e3 2d       	mov	r30, r3
    5112:	e4 60       	ori	r30, 0x04	; 4
    5114:	3e 2e       	mov	r3, r30
    5116:	2a c0       	rjmp	.+84     	; 0x516c <vfprintf+0x106>
    5118:	f3 2d       	mov	r31, r3
    511a:	f8 60       	ori	r31, 0x08	; 8
    511c:	1d c0       	rjmp	.+58     	; 0x5158 <vfprintf+0xf2>
    511e:	37 fc       	sbrc	r3, 7
    5120:	2d c0       	rjmp	.+90     	; 0x517c <vfprintf+0x116>
    5122:	20 ed       	ldi	r18, 0xD0	; 208
    5124:	28 0f       	add	r18, r24
    5126:	2a 30       	cpi	r18, 0x0A	; 10
    5128:	40 f0       	brcs	.+16     	; 0x513a <vfprintf+0xd4>
    512a:	8e 32       	cpi	r24, 0x2E	; 46
    512c:	b9 f4       	brne	.+46     	; 0x515c <vfprintf+0xf6>
    512e:	36 fc       	sbrc	r3, 6
    5130:	75 c1       	rjmp	.+746    	; 0x541c <vfprintf+0x3b6>
    5132:	23 2d       	mov	r18, r3
    5134:	20 64       	ori	r18, 0x40	; 64
    5136:	32 2e       	mov	r3, r18
    5138:	19 c0       	rjmp	.+50     	; 0x516c <vfprintf+0x106>
    513a:	36 fe       	sbrs	r3, 6
    513c:	06 c0       	rjmp	.+12     	; 0x514a <vfprintf+0xe4>
    513e:	8a e0       	ldi	r24, 0x0A	; 10
    5140:	98 9e       	mul	r9, r24
    5142:	20 0d       	add	r18, r0
    5144:	11 24       	eor	r1, r1
    5146:	92 2e       	mov	r9, r18
    5148:	11 c0       	rjmp	.+34     	; 0x516c <vfprintf+0x106>
    514a:	ea e0       	ldi	r30, 0x0A	; 10
    514c:	2e 9e       	mul	r2, r30
    514e:	20 0d       	add	r18, r0
    5150:	11 24       	eor	r1, r1
    5152:	22 2e       	mov	r2, r18
    5154:	f3 2d       	mov	r31, r3
    5156:	f0 62       	ori	r31, 0x20	; 32
    5158:	3f 2e       	mov	r3, r31
    515a:	08 c0       	rjmp	.+16     	; 0x516c <vfprintf+0x106>
    515c:	8c 36       	cpi	r24, 0x6C	; 108
    515e:	21 f4       	brne	.+8      	; 0x5168 <vfprintf+0x102>
    5160:	83 2d       	mov	r24, r3
    5162:	80 68       	ori	r24, 0x80	; 128
    5164:	38 2e       	mov	r3, r24
    5166:	02 c0       	rjmp	.+4      	; 0x516c <vfprintf+0x106>
    5168:	88 36       	cpi	r24, 0x68	; 104
    516a:	41 f4       	brne	.+16     	; 0x517c <vfprintf+0x116>
    516c:	f7 01       	movw	r30, r14
    516e:	93 fd       	sbrc	r25, 3
    5170:	85 91       	lpm	r24, Z+
    5172:	93 ff       	sbrs	r25, 3
    5174:	81 91       	ld	r24, Z+
    5176:	7f 01       	movw	r14, r30
    5178:	81 11       	cpse	r24, r1
    517a:	b3 cf       	rjmp	.-154    	; 0x50e2 <vfprintf+0x7c>
    517c:	98 2f       	mov	r25, r24
    517e:	9f 7d       	andi	r25, 0xDF	; 223
    5180:	95 54       	subi	r25, 0x45	; 69
    5182:	93 30       	cpi	r25, 0x03	; 3
    5184:	28 f4       	brcc	.+10     	; 0x5190 <vfprintf+0x12a>
    5186:	0c 5f       	subi	r16, 0xFC	; 252
    5188:	1f 4f       	sbci	r17, 0xFF	; 255
    518a:	9f e3       	ldi	r25, 0x3F	; 63
    518c:	99 83       	std	Y+1, r25	; 0x01
    518e:	0d c0       	rjmp	.+26     	; 0x51aa <vfprintf+0x144>
    5190:	83 36       	cpi	r24, 0x63	; 99
    5192:	31 f0       	breq	.+12     	; 0x51a0 <vfprintf+0x13a>
    5194:	83 37       	cpi	r24, 0x73	; 115
    5196:	71 f0       	breq	.+28     	; 0x51b4 <vfprintf+0x14e>
    5198:	83 35       	cpi	r24, 0x53	; 83
    519a:	09 f0       	breq	.+2      	; 0x519e <vfprintf+0x138>
    519c:	55 c0       	rjmp	.+170    	; 0x5248 <vfprintf+0x1e2>
    519e:	20 c0       	rjmp	.+64     	; 0x51e0 <vfprintf+0x17a>
    51a0:	f8 01       	movw	r30, r16
    51a2:	80 81       	ld	r24, Z
    51a4:	89 83       	std	Y+1, r24	; 0x01
    51a6:	0e 5f       	subi	r16, 0xFE	; 254
    51a8:	1f 4f       	sbci	r17, 0xFF	; 255
    51aa:	88 24       	eor	r8, r8
    51ac:	83 94       	inc	r8
    51ae:	91 2c       	mov	r9, r1
    51b0:	53 01       	movw	r10, r6
    51b2:	12 c0       	rjmp	.+36     	; 0x51d8 <vfprintf+0x172>
    51b4:	28 01       	movw	r4, r16
    51b6:	f2 e0       	ldi	r31, 0x02	; 2
    51b8:	4f 0e       	add	r4, r31
    51ba:	51 1c       	adc	r5, r1
    51bc:	f8 01       	movw	r30, r16
    51be:	a0 80       	ld	r10, Z
    51c0:	b1 80       	ldd	r11, Z+1	; 0x01
    51c2:	36 fe       	sbrs	r3, 6
    51c4:	03 c0       	rjmp	.+6      	; 0x51cc <vfprintf+0x166>
    51c6:	69 2d       	mov	r22, r9
    51c8:	70 e0       	ldi	r23, 0x00	; 0
    51ca:	02 c0       	rjmp	.+4      	; 0x51d0 <vfprintf+0x16a>
    51cc:	6f ef       	ldi	r22, 0xFF	; 255
    51ce:	7f ef       	ldi	r23, 0xFF	; 255
    51d0:	c5 01       	movw	r24, r10
    51d2:	63 d5       	rcall	.+2758   	; 0x5c9a <strnlen>
    51d4:	4c 01       	movw	r8, r24
    51d6:	82 01       	movw	r16, r4
    51d8:	f3 2d       	mov	r31, r3
    51da:	ff 77       	andi	r31, 0x7F	; 127
    51dc:	3f 2e       	mov	r3, r31
    51de:	15 c0       	rjmp	.+42     	; 0x520a <vfprintf+0x1a4>
    51e0:	28 01       	movw	r4, r16
    51e2:	22 e0       	ldi	r18, 0x02	; 2
    51e4:	42 0e       	add	r4, r18
    51e6:	51 1c       	adc	r5, r1
    51e8:	f8 01       	movw	r30, r16
    51ea:	a0 80       	ld	r10, Z
    51ec:	b1 80       	ldd	r11, Z+1	; 0x01
    51ee:	36 fe       	sbrs	r3, 6
    51f0:	03 c0       	rjmp	.+6      	; 0x51f8 <vfprintf+0x192>
    51f2:	69 2d       	mov	r22, r9
    51f4:	70 e0       	ldi	r23, 0x00	; 0
    51f6:	02 c0       	rjmp	.+4      	; 0x51fc <vfprintf+0x196>
    51f8:	6f ef       	ldi	r22, 0xFF	; 255
    51fa:	7f ef       	ldi	r23, 0xFF	; 255
    51fc:	c5 01       	movw	r24, r10
    51fe:	3b d5       	rcall	.+2678   	; 0x5c76 <strnlen_P>
    5200:	4c 01       	movw	r8, r24
    5202:	f3 2d       	mov	r31, r3
    5204:	f0 68       	ori	r31, 0x80	; 128
    5206:	3f 2e       	mov	r3, r31
    5208:	82 01       	movw	r16, r4
    520a:	33 fc       	sbrc	r3, 3
    520c:	19 c0       	rjmp	.+50     	; 0x5240 <vfprintf+0x1da>
    520e:	82 2d       	mov	r24, r2
    5210:	90 e0       	ldi	r25, 0x00	; 0
    5212:	88 16       	cp	r8, r24
    5214:	99 06       	cpc	r9, r25
    5216:	a0 f4       	brcc	.+40     	; 0x5240 <vfprintf+0x1da>
    5218:	b6 01       	movw	r22, r12
    521a:	80 e2       	ldi	r24, 0x20	; 32
    521c:	90 e0       	ldi	r25, 0x00	; 0
    521e:	86 d5       	rcall	.+2828   	; 0x5d2c <fputc>
    5220:	2a 94       	dec	r2
    5222:	f5 cf       	rjmp	.-22     	; 0x520e <vfprintf+0x1a8>
    5224:	f5 01       	movw	r30, r10
    5226:	37 fc       	sbrc	r3, 7
    5228:	85 91       	lpm	r24, Z+
    522a:	37 fe       	sbrs	r3, 7
    522c:	81 91       	ld	r24, Z+
    522e:	5f 01       	movw	r10, r30
    5230:	b6 01       	movw	r22, r12
    5232:	90 e0       	ldi	r25, 0x00	; 0
    5234:	7b d5       	rcall	.+2806   	; 0x5d2c <fputc>
    5236:	21 10       	cpse	r2, r1
    5238:	2a 94       	dec	r2
    523a:	21 e0       	ldi	r18, 0x01	; 1
    523c:	82 1a       	sub	r8, r18
    523e:	91 08       	sbc	r9, r1
    5240:	81 14       	cp	r8, r1
    5242:	91 04       	cpc	r9, r1
    5244:	79 f7       	brne	.-34     	; 0x5224 <vfprintf+0x1be>
    5246:	e1 c0       	rjmp	.+450    	; 0x540a <vfprintf+0x3a4>
    5248:	84 36       	cpi	r24, 0x64	; 100
    524a:	11 f0       	breq	.+4      	; 0x5250 <vfprintf+0x1ea>
    524c:	89 36       	cpi	r24, 0x69	; 105
    524e:	39 f5       	brne	.+78     	; 0x529e <vfprintf+0x238>
    5250:	f8 01       	movw	r30, r16
    5252:	37 fe       	sbrs	r3, 7
    5254:	07 c0       	rjmp	.+14     	; 0x5264 <vfprintf+0x1fe>
    5256:	60 81       	ld	r22, Z
    5258:	71 81       	ldd	r23, Z+1	; 0x01
    525a:	82 81       	ldd	r24, Z+2	; 0x02
    525c:	93 81       	ldd	r25, Z+3	; 0x03
    525e:	0c 5f       	subi	r16, 0xFC	; 252
    5260:	1f 4f       	sbci	r17, 0xFF	; 255
    5262:	08 c0       	rjmp	.+16     	; 0x5274 <vfprintf+0x20e>
    5264:	60 81       	ld	r22, Z
    5266:	71 81       	ldd	r23, Z+1	; 0x01
    5268:	07 2e       	mov	r0, r23
    526a:	00 0c       	add	r0, r0
    526c:	88 0b       	sbc	r24, r24
    526e:	99 0b       	sbc	r25, r25
    5270:	0e 5f       	subi	r16, 0xFE	; 254
    5272:	1f 4f       	sbci	r17, 0xFF	; 255
    5274:	f3 2d       	mov	r31, r3
    5276:	ff 76       	andi	r31, 0x6F	; 111
    5278:	3f 2e       	mov	r3, r31
    527a:	97 ff       	sbrs	r25, 7
    527c:	09 c0       	rjmp	.+18     	; 0x5290 <vfprintf+0x22a>
    527e:	90 95       	com	r25
    5280:	80 95       	com	r24
    5282:	70 95       	com	r23
    5284:	61 95       	neg	r22
    5286:	7f 4f       	sbci	r23, 0xFF	; 255
    5288:	8f 4f       	sbci	r24, 0xFF	; 255
    528a:	9f 4f       	sbci	r25, 0xFF	; 255
    528c:	f0 68       	ori	r31, 0x80	; 128
    528e:	3f 2e       	mov	r3, r31
    5290:	2a e0       	ldi	r18, 0x0A	; 10
    5292:	30 e0       	ldi	r19, 0x00	; 0
    5294:	a3 01       	movw	r20, r6
    5296:	9f d5       	rcall	.+2878   	; 0x5dd6 <__ultoa_invert>
    5298:	88 2e       	mov	r8, r24
    529a:	86 18       	sub	r8, r6
    529c:	44 c0       	rjmp	.+136    	; 0x5326 <vfprintf+0x2c0>
    529e:	85 37       	cpi	r24, 0x75	; 117
    52a0:	31 f4       	brne	.+12     	; 0x52ae <vfprintf+0x248>
    52a2:	23 2d       	mov	r18, r3
    52a4:	2f 7e       	andi	r18, 0xEF	; 239
    52a6:	b2 2e       	mov	r11, r18
    52a8:	2a e0       	ldi	r18, 0x0A	; 10
    52aa:	30 e0       	ldi	r19, 0x00	; 0
    52ac:	25 c0       	rjmp	.+74     	; 0x52f8 <vfprintf+0x292>
    52ae:	93 2d       	mov	r25, r3
    52b0:	99 7f       	andi	r25, 0xF9	; 249
    52b2:	b9 2e       	mov	r11, r25
    52b4:	8f 36       	cpi	r24, 0x6F	; 111
    52b6:	c1 f0       	breq	.+48     	; 0x52e8 <vfprintf+0x282>
    52b8:	18 f4       	brcc	.+6      	; 0x52c0 <vfprintf+0x25a>
    52ba:	88 35       	cpi	r24, 0x58	; 88
    52bc:	79 f0       	breq	.+30     	; 0x52dc <vfprintf+0x276>
    52be:	ae c0       	rjmp	.+348    	; 0x541c <vfprintf+0x3b6>
    52c0:	80 37       	cpi	r24, 0x70	; 112
    52c2:	19 f0       	breq	.+6      	; 0x52ca <vfprintf+0x264>
    52c4:	88 37       	cpi	r24, 0x78	; 120
    52c6:	21 f0       	breq	.+8      	; 0x52d0 <vfprintf+0x26a>
    52c8:	a9 c0       	rjmp	.+338    	; 0x541c <vfprintf+0x3b6>
    52ca:	e9 2f       	mov	r30, r25
    52cc:	e0 61       	ori	r30, 0x10	; 16
    52ce:	be 2e       	mov	r11, r30
    52d0:	b4 fe       	sbrs	r11, 4
    52d2:	0d c0       	rjmp	.+26     	; 0x52ee <vfprintf+0x288>
    52d4:	fb 2d       	mov	r31, r11
    52d6:	f4 60       	ori	r31, 0x04	; 4
    52d8:	bf 2e       	mov	r11, r31
    52da:	09 c0       	rjmp	.+18     	; 0x52ee <vfprintf+0x288>
    52dc:	34 fe       	sbrs	r3, 4
    52de:	0a c0       	rjmp	.+20     	; 0x52f4 <vfprintf+0x28e>
    52e0:	29 2f       	mov	r18, r25
    52e2:	26 60       	ori	r18, 0x06	; 6
    52e4:	b2 2e       	mov	r11, r18
    52e6:	06 c0       	rjmp	.+12     	; 0x52f4 <vfprintf+0x28e>
    52e8:	28 e0       	ldi	r18, 0x08	; 8
    52ea:	30 e0       	ldi	r19, 0x00	; 0
    52ec:	05 c0       	rjmp	.+10     	; 0x52f8 <vfprintf+0x292>
    52ee:	20 e1       	ldi	r18, 0x10	; 16
    52f0:	30 e0       	ldi	r19, 0x00	; 0
    52f2:	02 c0       	rjmp	.+4      	; 0x52f8 <vfprintf+0x292>
    52f4:	20 e1       	ldi	r18, 0x10	; 16
    52f6:	32 e0       	ldi	r19, 0x02	; 2
    52f8:	f8 01       	movw	r30, r16
    52fa:	b7 fe       	sbrs	r11, 7
    52fc:	07 c0       	rjmp	.+14     	; 0x530c <vfprintf+0x2a6>
    52fe:	60 81       	ld	r22, Z
    5300:	71 81       	ldd	r23, Z+1	; 0x01
    5302:	82 81       	ldd	r24, Z+2	; 0x02
    5304:	93 81       	ldd	r25, Z+3	; 0x03
    5306:	0c 5f       	subi	r16, 0xFC	; 252
    5308:	1f 4f       	sbci	r17, 0xFF	; 255
    530a:	06 c0       	rjmp	.+12     	; 0x5318 <vfprintf+0x2b2>
    530c:	60 81       	ld	r22, Z
    530e:	71 81       	ldd	r23, Z+1	; 0x01
    5310:	80 e0       	ldi	r24, 0x00	; 0
    5312:	90 e0       	ldi	r25, 0x00	; 0
    5314:	0e 5f       	subi	r16, 0xFE	; 254
    5316:	1f 4f       	sbci	r17, 0xFF	; 255
    5318:	a3 01       	movw	r20, r6
    531a:	5d d5       	rcall	.+2746   	; 0x5dd6 <__ultoa_invert>
    531c:	88 2e       	mov	r8, r24
    531e:	86 18       	sub	r8, r6
    5320:	fb 2d       	mov	r31, r11
    5322:	ff 77       	andi	r31, 0x7F	; 127
    5324:	3f 2e       	mov	r3, r31
    5326:	36 fe       	sbrs	r3, 6
    5328:	0d c0       	rjmp	.+26     	; 0x5344 <vfprintf+0x2de>
    532a:	23 2d       	mov	r18, r3
    532c:	2e 7f       	andi	r18, 0xFE	; 254
    532e:	a2 2e       	mov	r10, r18
    5330:	89 14       	cp	r8, r9
    5332:	58 f4       	brcc	.+22     	; 0x534a <vfprintf+0x2e4>
    5334:	34 fe       	sbrs	r3, 4
    5336:	0b c0       	rjmp	.+22     	; 0x534e <vfprintf+0x2e8>
    5338:	32 fc       	sbrc	r3, 2
    533a:	09 c0       	rjmp	.+18     	; 0x534e <vfprintf+0x2e8>
    533c:	83 2d       	mov	r24, r3
    533e:	8e 7e       	andi	r24, 0xEE	; 238
    5340:	a8 2e       	mov	r10, r24
    5342:	05 c0       	rjmp	.+10     	; 0x534e <vfprintf+0x2e8>
    5344:	b8 2c       	mov	r11, r8
    5346:	a3 2c       	mov	r10, r3
    5348:	03 c0       	rjmp	.+6      	; 0x5350 <vfprintf+0x2ea>
    534a:	b8 2c       	mov	r11, r8
    534c:	01 c0       	rjmp	.+2      	; 0x5350 <vfprintf+0x2ea>
    534e:	b9 2c       	mov	r11, r9
    5350:	a4 fe       	sbrs	r10, 4
    5352:	0f c0       	rjmp	.+30     	; 0x5372 <vfprintf+0x30c>
    5354:	fe 01       	movw	r30, r28
    5356:	e8 0d       	add	r30, r8
    5358:	f1 1d       	adc	r31, r1
    535a:	80 81       	ld	r24, Z
    535c:	80 33       	cpi	r24, 0x30	; 48
    535e:	21 f4       	brne	.+8      	; 0x5368 <vfprintf+0x302>
    5360:	9a 2d       	mov	r25, r10
    5362:	99 7e       	andi	r25, 0xE9	; 233
    5364:	a9 2e       	mov	r10, r25
    5366:	09 c0       	rjmp	.+18     	; 0x537a <vfprintf+0x314>
    5368:	a2 fe       	sbrs	r10, 2
    536a:	06 c0       	rjmp	.+12     	; 0x5378 <vfprintf+0x312>
    536c:	b3 94       	inc	r11
    536e:	b3 94       	inc	r11
    5370:	04 c0       	rjmp	.+8      	; 0x537a <vfprintf+0x314>
    5372:	8a 2d       	mov	r24, r10
    5374:	86 78       	andi	r24, 0x86	; 134
    5376:	09 f0       	breq	.+2      	; 0x537a <vfprintf+0x314>
    5378:	b3 94       	inc	r11
    537a:	a3 fc       	sbrc	r10, 3
    537c:	10 c0       	rjmp	.+32     	; 0x539e <vfprintf+0x338>
    537e:	a0 fe       	sbrs	r10, 0
    5380:	06 c0       	rjmp	.+12     	; 0x538e <vfprintf+0x328>
    5382:	b2 14       	cp	r11, r2
    5384:	80 f4       	brcc	.+32     	; 0x53a6 <vfprintf+0x340>
    5386:	28 0c       	add	r2, r8
    5388:	92 2c       	mov	r9, r2
    538a:	9b 18       	sub	r9, r11
    538c:	0d c0       	rjmp	.+26     	; 0x53a8 <vfprintf+0x342>
    538e:	b2 14       	cp	r11, r2
    5390:	58 f4       	brcc	.+22     	; 0x53a8 <vfprintf+0x342>
    5392:	b6 01       	movw	r22, r12
    5394:	80 e2       	ldi	r24, 0x20	; 32
    5396:	90 e0       	ldi	r25, 0x00	; 0
    5398:	c9 d4       	rcall	.+2450   	; 0x5d2c <fputc>
    539a:	b3 94       	inc	r11
    539c:	f8 cf       	rjmp	.-16     	; 0x538e <vfprintf+0x328>
    539e:	b2 14       	cp	r11, r2
    53a0:	18 f4       	brcc	.+6      	; 0x53a8 <vfprintf+0x342>
    53a2:	2b 18       	sub	r2, r11
    53a4:	02 c0       	rjmp	.+4      	; 0x53aa <vfprintf+0x344>
    53a6:	98 2c       	mov	r9, r8
    53a8:	21 2c       	mov	r2, r1
    53aa:	a4 fe       	sbrs	r10, 4
    53ac:	0f c0       	rjmp	.+30     	; 0x53cc <vfprintf+0x366>
    53ae:	b6 01       	movw	r22, r12
    53b0:	80 e3       	ldi	r24, 0x30	; 48
    53b2:	90 e0       	ldi	r25, 0x00	; 0
    53b4:	bb d4       	rcall	.+2422   	; 0x5d2c <fputc>
    53b6:	a2 fe       	sbrs	r10, 2
    53b8:	16 c0       	rjmp	.+44     	; 0x53e6 <vfprintf+0x380>
    53ba:	a1 fc       	sbrc	r10, 1
    53bc:	03 c0       	rjmp	.+6      	; 0x53c4 <vfprintf+0x35e>
    53be:	88 e7       	ldi	r24, 0x78	; 120
    53c0:	90 e0       	ldi	r25, 0x00	; 0
    53c2:	02 c0       	rjmp	.+4      	; 0x53c8 <vfprintf+0x362>
    53c4:	88 e5       	ldi	r24, 0x58	; 88
    53c6:	90 e0       	ldi	r25, 0x00	; 0
    53c8:	b6 01       	movw	r22, r12
    53ca:	0c c0       	rjmp	.+24     	; 0x53e4 <vfprintf+0x37e>
    53cc:	8a 2d       	mov	r24, r10
    53ce:	86 78       	andi	r24, 0x86	; 134
    53d0:	51 f0       	breq	.+20     	; 0x53e6 <vfprintf+0x380>
    53d2:	a1 fe       	sbrs	r10, 1
    53d4:	02 c0       	rjmp	.+4      	; 0x53da <vfprintf+0x374>
    53d6:	8b e2       	ldi	r24, 0x2B	; 43
    53d8:	01 c0       	rjmp	.+2      	; 0x53dc <vfprintf+0x376>
    53da:	80 e2       	ldi	r24, 0x20	; 32
    53dc:	a7 fc       	sbrc	r10, 7
    53de:	8d e2       	ldi	r24, 0x2D	; 45
    53e0:	b6 01       	movw	r22, r12
    53e2:	90 e0       	ldi	r25, 0x00	; 0
    53e4:	a3 d4       	rcall	.+2374   	; 0x5d2c <fputc>
    53e6:	89 14       	cp	r8, r9
    53e8:	30 f4       	brcc	.+12     	; 0x53f6 <vfprintf+0x390>
    53ea:	b6 01       	movw	r22, r12
    53ec:	80 e3       	ldi	r24, 0x30	; 48
    53ee:	90 e0       	ldi	r25, 0x00	; 0
    53f0:	9d d4       	rcall	.+2362   	; 0x5d2c <fputc>
    53f2:	9a 94       	dec	r9
    53f4:	f8 cf       	rjmp	.-16     	; 0x53e6 <vfprintf+0x380>
    53f6:	8a 94       	dec	r8
    53f8:	f3 01       	movw	r30, r6
    53fa:	e8 0d       	add	r30, r8
    53fc:	f1 1d       	adc	r31, r1
    53fe:	80 81       	ld	r24, Z
    5400:	b6 01       	movw	r22, r12
    5402:	90 e0       	ldi	r25, 0x00	; 0
    5404:	93 d4       	rcall	.+2342   	; 0x5d2c <fputc>
    5406:	81 10       	cpse	r8, r1
    5408:	f6 cf       	rjmp	.-20     	; 0x53f6 <vfprintf+0x390>
    540a:	22 20       	and	r2, r2
    540c:	09 f4       	brne	.+2      	; 0x5410 <vfprintf+0x3aa>
    540e:	4e ce       	rjmp	.-868    	; 0x50ac <vfprintf+0x46>
    5410:	b6 01       	movw	r22, r12
    5412:	80 e2       	ldi	r24, 0x20	; 32
    5414:	90 e0       	ldi	r25, 0x00	; 0
    5416:	8a d4       	rcall	.+2324   	; 0x5d2c <fputc>
    5418:	2a 94       	dec	r2
    541a:	f7 cf       	rjmp	.-18     	; 0x540a <vfprintf+0x3a4>
    541c:	f6 01       	movw	r30, r12
    541e:	86 81       	ldd	r24, Z+6	; 0x06
    5420:	97 81       	ldd	r25, Z+7	; 0x07
    5422:	02 c0       	rjmp	.+4      	; 0x5428 <vfprintf+0x3c2>
    5424:	8f ef       	ldi	r24, 0xFF	; 255
    5426:	9f ef       	ldi	r25, 0xFF	; 255
    5428:	2b 96       	adiw	r28, 0x0b	; 11
    542a:	cd bf       	out	0x3d, r28	; 61
    542c:	de bf       	out	0x3e, r29	; 62
    542e:	df 91       	pop	r29
    5430:	cf 91       	pop	r28
    5432:	1f 91       	pop	r17
    5434:	0f 91       	pop	r16
    5436:	ff 90       	pop	r15
    5438:	ef 90       	pop	r14
    543a:	df 90       	pop	r13
    543c:	cf 90       	pop	r12
    543e:	bf 90       	pop	r11
    5440:	af 90       	pop	r10
    5442:	9f 90       	pop	r9
    5444:	8f 90       	pop	r8
    5446:	7f 90       	pop	r7
    5448:	6f 90       	pop	r6
    544a:	5f 90       	pop	r5
    544c:	4f 90       	pop	r4
    544e:	3f 90       	pop	r3
    5450:	2f 90       	pop	r2
    5452:	08 95       	ret

00005454 <putval>:
    5454:	20 fd       	sbrc	r18, 0
    5456:	09 c0       	rjmp	.+18     	; 0x546a <putval+0x16>
    5458:	fc 01       	movw	r30, r24
    545a:	23 fd       	sbrc	r18, 3
    545c:	05 c0       	rjmp	.+10     	; 0x5468 <putval+0x14>
    545e:	22 ff       	sbrs	r18, 2
    5460:	02 c0       	rjmp	.+4      	; 0x5466 <putval+0x12>
    5462:	73 83       	std	Z+3, r23	; 0x03
    5464:	62 83       	std	Z+2, r22	; 0x02
    5466:	51 83       	std	Z+1, r21	; 0x01
    5468:	40 83       	st	Z, r20
    546a:	08 95       	ret

0000546c <mulacc>:
    546c:	44 fd       	sbrc	r20, 4
    546e:	17 c0       	rjmp	.+46     	; 0x549e <mulacc+0x32>
    5470:	46 fd       	sbrc	r20, 6
    5472:	17 c0       	rjmp	.+46     	; 0x54a2 <mulacc+0x36>
    5474:	ab 01       	movw	r20, r22
    5476:	bc 01       	movw	r22, r24
    5478:	da 01       	movw	r26, r20
    547a:	fb 01       	movw	r30, r22
    547c:	aa 0f       	add	r26, r26
    547e:	bb 1f       	adc	r27, r27
    5480:	ee 1f       	adc	r30, r30
    5482:	ff 1f       	adc	r31, r31
    5484:	10 94       	com	r1
    5486:	d1 f7       	brne	.-12     	; 0x547c <mulacc+0x10>
    5488:	4a 0f       	add	r20, r26
    548a:	5b 1f       	adc	r21, r27
    548c:	6e 1f       	adc	r22, r30
    548e:	7f 1f       	adc	r23, r31
    5490:	cb 01       	movw	r24, r22
    5492:	ba 01       	movw	r22, r20
    5494:	66 0f       	add	r22, r22
    5496:	77 1f       	adc	r23, r23
    5498:	88 1f       	adc	r24, r24
    549a:	99 1f       	adc	r25, r25
    549c:	09 c0       	rjmp	.+18     	; 0x54b0 <mulacc+0x44>
    549e:	33 e0       	ldi	r19, 0x03	; 3
    54a0:	01 c0       	rjmp	.+2      	; 0x54a4 <mulacc+0x38>
    54a2:	34 e0       	ldi	r19, 0x04	; 4
    54a4:	66 0f       	add	r22, r22
    54a6:	77 1f       	adc	r23, r23
    54a8:	88 1f       	adc	r24, r24
    54aa:	99 1f       	adc	r25, r25
    54ac:	31 50       	subi	r19, 0x01	; 1
    54ae:	d1 f7       	brne	.-12     	; 0x54a4 <mulacc+0x38>
    54b0:	62 0f       	add	r22, r18
    54b2:	71 1d       	adc	r23, r1
    54b4:	81 1d       	adc	r24, r1
    54b6:	91 1d       	adc	r25, r1
    54b8:	08 95       	ret

000054ba <skip_spaces>:
    54ba:	0f 93       	push	r16
    54bc:	1f 93       	push	r17
    54be:	cf 93       	push	r28
    54c0:	df 93       	push	r29
    54c2:	8c 01       	movw	r16, r24
    54c4:	c8 01       	movw	r24, r16
    54c6:	f4 d3       	rcall	.+2024   	; 0x5cb0 <fgetc>
    54c8:	ec 01       	movw	r28, r24
    54ca:	97 fd       	sbrc	r25, 7
    54cc:	06 c0       	rjmp	.+12     	; 0x54da <skip_spaces+0x20>
    54ce:	c0 d3       	rcall	.+1920   	; 0x5c50 <isspace>
    54d0:	89 2b       	or	r24, r25
    54d2:	c1 f7       	brne	.-16     	; 0x54c4 <skip_spaces+0xa>
    54d4:	b8 01       	movw	r22, r16
    54d6:	ce 01       	movw	r24, r28
    54d8:	65 d4       	rcall	.+2250   	; 0x5da4 <ungetc>
    54da:	ce 01       	movw	r24, r28
    54dc:	df 91       	pop	r29
    54de:	cf 91       	pop	r28
    54e0:	1f 91       	pop	r17
    54e2:	0f 91       	pop	r16
    54e4:	08 95       	ret

000054e6 <conv_int>:
    54e6:	8f 92       	push	r8
    54e8:	9f 92       	push	r9
    54ea:	af 92       	push	r10
    54ec:	bf 92       	push	r11
    54ee:	ef 92       	push	r14
    54f0:	ff 92       	push	r15
    54f2:	0f 93       	push	r16
    54f4:	1f 93       	push	r17
    54f6:	cf 93       	push	r28
    54f8:	df 93       	push	r29
    54fa:	8c 01       	movw	r16, r24
    54fc:	d6 2f       	mov	r29, r22
    54fe:	7a 01       	movw	r14, r20
    5500:	b2 2e       	mov	r11, r18
    5502:	d6 d3       	rcall	.+1964   	; 0x5cb0 <fgetc>
    5504:	9c 01       	movw	r18, r24
    5506:	33 27       	eor	r19, r19
    5508:	2b 32       	cpi	r18, 0x2B	; 43
    550a:	31 05       	cpc	r19, r1
    550c:	31 f0       	breq	.+12     	; 0x551a <conv_int+0x34>
    550e:	2d 32       	cpi	r18, 0x2D	; 45
    5510:	31 05       	cpc	r19, r1
    5512:	59 f4       	brne	.+22     	; 0x552a <conv_int+0x44>
    5514:	8b 2d       	mov	r24, r11
    5516:	80 68       	ori	r24, 0x80	; 128
    5518:	b8 2e       	mov	r11, r24
    551a:	d1 50       	subi	r29, 0x01	; 1
    551c:	11 f4       	brne	.+4      	; 0x5522 <conv_int+0x3c>
    551e:	80 e0       	ldi	r24, 0x00	; 0
    5520:	61 c0       	rjmp	.+194    	; 0x55e4 <conv_int+0xfe>
    5522:	c8 01       	movw	r24, r16
    5524:	c5 d3       	rcall	.+1930   	; 0x5cb0 <fgetc>
    5526:	97 fd       	sbrc	r25, 7
    5528:	fa cf       	rjmp	.-12     	; 0x551e <conv_int+0x38>
    552a:	cb 2d       	mov	r28, r11
    552c:	cd 7f       	andi	r28, 0xFD	; 253
    552e:	2b 2d       	mov	r18, r11
    5530:	20 73       	andi	r18, 0x30	; 48
    5532:	f9 f4       	brne	.+62     	; 0x5572 <conv_int+0x8c>
    5534:	80 33       	cpi	r24, 0x30	; 48
    5536:	e9 f4       	brne	.+58     	; 0x5572 <conv_int+0x8c>
    5538:	aa 24       	eor	r10, r10
    553a:	aa 94       	dec	r10
    553c:	ad 0e       	add	r10, r29
    553e:	09 f4       	brne	.+2      	; 0x5542 <conv_int+0x5c>
    5540:	3e c0       	rjmp	.+124    	; 0x55be <conv_int+0xd8>
    5542:	c8 01       	movw	r24, r16
    5544:	b5 d3       	rcall	.+1898   	; 0x5cb0 <fgetc>
    5546:	97 fd       	sbrc	r25, 7
    5548:	3a c0       	rjmp	.+116    	; 0x55be <conv_int+0xd8>
    554a:	9c 01       	movw	r18, r24
    554c:	2f 7d       	andi	r18, 0xDF	; 223
    554e:	33 27       	eor	r19, r19
    5550:	28 35       	cpi	r18, 0x58	; 88
    5552:	31 05       	cpc	r19, r1
    5554:	41 f4       	brne	.+16     	; 0x5566 <conv_int+0x80>
    5556:	c2 64       	ori	r28, 0x42	; 66
    5558:	d2 50       	subi	r29, 0x02	; 2
    555a:	89 f1       	breq	.+98     	; 0x55be <conv_int+0xd8>
    555c:	c8 01       	movw	r24, r16
    555e:	a8 d3       	rcall	.+1872   	; 0x5cb0 <fgetc>
    5560:	97 ff       	sbrs	r25, 7
    5562:	07 c0       	rjmp	.+14     	; 0x5572 <conv_int+0x8c>
    5564:	2c c0       	rjmp	.+88     	; 0x55be <conv_int+0xd8>
    5566:	b6 fe       	sbrs	r11, 6
    5568:	02 c0       	rjmp	.+4      	; 0x556e <conv_int+0x88>
    556a:	c2 60       	ori	r28, 0x02	; 2
    556c:	01 c0       	rjmp	.+2      	; 0x5570 <conv_int+0x8a>
    556e:	c2 61       	ori	r28, 0x12	; 18
    5570:	da 2d       	mov	r29, r10
    5572:	81 2c       	mov	r8, r1
    5574:	91 2c       	mov	r9, r1
    5576:	54 01       	movw	r10, r8
    5578:	20 ed       	ldi	r18, 0xD0	; 208
    557a:	28 0f       	add	r18, r24
    557c:	28 30       	cpi	r18, 0x08	; 8
    557e:	78 f0       	brcs	.+30     	; 0x559e <conv_int+0xb8>
    5580:	c4 ff       	sbrs	r28, 4
    5582:	03 c0       	rjmp	.+6      	; 0x558a <conv_int+0xa4>
    5584:	b8 01       	movw	r22, r16
    5586:	0e d4       	rcall	.+2076   	; 0x5da4 <ungetc>
    5588:	17 c0       	rjmp	.+46     	; 0x55b8 <conv_int+0xd2>
    558a:	2a 30       	cpi	r18, 0x0A	; 10
    558c:	40 f0       	brcs	.+16     	; 0x559e <conv_int+0xb8>
    558e:	c6 ff       	sbrs	r28, 6
    5590:	f9 cf       	rjmp	.-14     	; 0x5584 <conv_int+0x9e>
    5592:	2f 7d       	andi	r18, 0xDF	; 223
    5594:	3f ee       	ldi	r19, 0xEF	; 239
    5596:	32 0f       	add	r19, r18
    5598:	36 30       	cpi	r19, 0x06	; 6
    559a:	a0 f7       	brcc	.-24     	; 0x5584 <conv_int+0x9e>
    559c:	27 50       	subi	r18, 0x07	; 7
    559e:	4c 2f       	mov	r20, r28
    55a0:	c5 01       	movw	r24, r10
    55a2:	b4 01       	movw	r22, r8
    55a4:	63 df       	rcall	.-314    	; 0x546c <mulacc>
    55a6:	4b 01       	movw	r8, r22
    55a8:	5c 01       	movw	r10, r24
    55aa:	c2 60       	ori	r28, 0x02	; 2
    55ac:	d1 50       	subi	r29, 0x01	; 1
    55ae:	51 f0       	breq	.+20     	; 0x55c4 <conv_int+0xde>
    55b0:	c8 01       	movw	r24, r16
    55b2:	7e d3       	rcall	.+1788   	; 0x5cb0 <fgetc>
    55b4:	97 ff       	sbrs	r25, 7
    55b6:	e0 cf       	rjmp	.-64     	; 0x5578 <conv_int+0x92>
    55b8:	c1 fd       	sbrc	r28, 1
    55ba:	04 c0       	rjmp	.+8      	; 0x55c4 <conv_int+0xde>
    55bc:	b0 cf       	rjmp	.-160    	; 0x551e <conv_int+0x38>
    55be:	81 2c       	mov	r8, r1
    55c0:	91 2c       	mov	r9, r1
    55c2:	54 01       	movw	r10, r8
    55c4:	c7 ff       	sbrs	r28, 7
    55c6:	08 c0       	rjmp	.+16     	; 0x55d8 <conv_int+0xf2>
    55c8:	b0 94       	com	r11
    55ca:	a0 94       	com	r10
    55cc:	90 94       	com	r9
    55ce:	80 94       	com	r8
    55d0:	81 1c       	adc	r8, r1
    55d2:	91 1c       	adc	r9, r1
    55d4:	a1 1c       	adc	r10, r1
    55d6:	b1 1c       	adc	r11, r1
    55d8:	2c 2f       	mov	r18, r28
    55da:	b5 01       	movw	r22, r10
    55dc:	a4 01       	movw	r20, r8
    55de:	c7 01       	movw	r24, r14
    55e0:	39 df       	rcall	.-398    	; 0x5454 <putval>
    55e2:	81 e0       	ldi	r24, 0x01	; 1
    55e4:	df 91       	pop	r29
    55e6:	cf 91       	pop	r28
    55e8:	1f 91       	pop	r17
    55ea:	0f 91       	pop	r16
    55ec:	ff 90       	pop	r15
    55ee:	ef 90       	pop	r14
    55f0:	bf 90       	pop	r11
    55f2:	af 90       	pop	r10
    55f4:	9f 90       	pop	r9
    55f6:	8f 90       	pop	r8
    55f8:	08 95       	ret

000055fa <conv_brk>:
    55fa:	5f 92       	push	r5
    55fc:	6f 92       	push	r6
    55fe:	7f 92       	push	r7
    5600:	8f 92       	push	r8
    5602:	9f 92       	push	r9
    5604:	af 92       	push	r10
    5606:	bf 92       	push	r11
    5608:	cf 92       	push	r12
    560a:	df 92       	push	r13
    560c:	ef 92       	push	r14
    560e:	ff 92       	push	r15
    5610:	0f 93       	push	r16
    5612:	1f 93       	push	r17
    5614:	cf 93       	push	r28
    5616:	df 93       	push	r29
    5618:	cd b7       	in	r28, 0x3d	; 61
    561a:	de b7       	in	r29, 0x3e	; 62
    561c:	a0 97       	sbiw	r28, 0x20	; 32
    561e:	cd bf       	out	0x3d, r28	; 61
    5620:	de bf       	out	0x3e, r29	; 62
    5622:	5c 01       	movw	r10, r24
    5624:	96 2e       	mov	r9, r22
    5626:	7a 01       	movw	r14, r20
    5628:	f9 01       	movw	r30, r18
    562a:	8e 01       	movw	r16, r28
    562c:	0f 5f       	subi	r16, 0xFF	; 255
    562e:	1f 4f       	sbci	r17, 0xFF	; 255
    5630:	68 01       	movw	r12, r16
    5632:	80 e2       	ldi	r24, 0x20	; 32
    5634:	d8 01       	movw	r26, r16
    5636:	1d 92       	st	X+, r1
    5638:	8a 95       	dec	r24
    563a:	e9 f7       	brne	.-6      	; 0x5636 <conv_brk+0x3c>
    563c:	d5 01       	movw	r26, r10
    563e:	13 96       	adiw	r26, 0x03	; 3
    5640:	8c 90       	ld	r8, X
    5642:	80 e0       	ldi	r24, 0x00	; 0
    5644:	90 e0       	ldi	r25, 0x00	; 0
    5646:	61 2c       	mov	r6, r1
    5648:	71 2c       	mov	r7, r1
    564a:	30 e0       	ldi	r19, 0x00	; 0
    564c:	61 e0       	ldi	r22, 0x01	; 1
    564e:	70 e0       	ldi	r23, 0x00	; 0
    5650:	83 fc       	sbrc	r8, 3
    5652:	25 91       	lpm	r18, Z+
    5654:	83 fe       	sbrs	r8, 3
    5656:	21 91       	ld	r18, Z+
    5658:	8f 01       	movw	r16, r30
    565a:	52 2e       	mov	r5, r18
    565c:	21 11       	cpse	r18, r1
    565e:	03 c0       	rjmp	.+6      	; 0x5666 <conv_brk+0x6c>
    5660:	80 e0       	ldi	r24, 0x00	; 0
    5662:	90 e0       	ldi	r25, 0x00	; 0
    5664:	90 c0       	rjmp	.+288    	; 0x5786 <conv_brk+0x18c>
    5666:	2e 35       	cpi	r18, 0x5E	; 94
    5668:	11 f4       	brne	.+4      	; 0x566e <conv_brk+0x74>
    566a:	00 97       	sbiw	r24, 0x00	; 0
    566c:	51 f1       	breq	.+84     	; 0x56c2 <conv_brk+0xc8>
    566e:	43 2f       	mov	r20, r19
    5670:	50 e0       	ldi	r21, 0x00	; 0
    5672:	48 17       	cp	r20, r24
    5674:	59 07       	cpc	r21, r25
    5676:	3c f4       	brge	.+14     	; 0x5686 <conv_brk+0x8c>
    5678:	2d 35       	cpi	r18, 0x5D	; 93
    567a:	59 f1       	breq	.+86     	; 0x56d2 <conv_brk+0xd8>
    567c:	2d 32       	cpi	r18, 0x2D	; 45
    567e:	19 f4       	brne	.+6      	; 0x5686 <conv_brk+0x8c>
    5680:	77 20       	and	r7, r7
    5682:	09 f1       	breq	.+66     	; 0x56c6 <conv_brk+0xcc>
    5684:	03 c0       	rjmp	.+6      	; 0x568c <conv_brk+0x92>
    5686:	77 20       	and	r7, r7
    5688:	09 f4       	brne	.+2      	; 0x568c <conv_brk+0x92>
    568a:	68 c0       	rjmp	.+208    	; 0x575c <conv_brk+0x162>
    568c:	45 2d       	mov	r20, r5
    568e:	46 95       	lsr	r20
    5690:	46 95       	lsr	r20
    5692:	46 95       	lsr	r20
    5694:	d6 01       	movw	r26, r12
    5696:	a4 0f       	add	r26, r20
    5698:	b1 1d       	adc	r27, r1
    569a:	45 2d       	mov	r20, r5
    569c:	47 70       	andi	r20, 0x07	; 7
    569e:	8b 01       	movw	r16, r22
    56a0:	02 c0       	rjmp	.+4      	; 0x56a6 <conv_brk+0xac>
    56a2:	00 0f       	add	r16, r16
    56a4:	11 1f       	adc	r17, r17
    56a6:	4a 95       	dec	r20
    56a8:	e2 f7       	brpl	.-8      	; 0x56a2 <conv_brk+0xa8>
    56aa:	a8 01       	movw	r20, r16
    56ac:	5c 91       	ld	r21, X
    56ae:	45 2b       	or	r20, r21
    56b0:	4c 93       	st	X, r20
    56b2:	65 14       	cp	r6, r5
    56b4:	59 f0       	breq	.+22     	; 0x56cc <conv_brk+0xd2>
    56b6:	56 14       	cp	r5, r6
    56b8:	10 f4       	brcc	.+4      	; 0x56be <conv_brk+0xc4>
    56ba:	53 94       	inc	r5
    56bc:	e7 cf       	rjmp	.-50     	; 0x568c <conv_brk+0x92>
    56be:	5a 94       	dec	r5
    56c0:	e5 cf       	rjmp	.-54     	; 0x568c <conv_brk+0x92>
    56c2:	31 e0       	ldi	r19, 0x01	; 1
    56c4:	04 c0       	rjmp	.+8      	; 0x56ce <conv_brk+0xd4>
    56c6:	77 24       	eor	r7, r7
    56c8:	73 94       	inc	r7
    56ca:	01 c0       	rjmp	.+2      	; 0x56ce <conv_brk+0xd4>
    56cc:	71 2c       	mov	r7, r1
    56ce:	01 96       	adiw	r24, 0x01	; 1
    56d0:	bf cf       	rjmp	.-130    	; 0x5650 <conv_brk+0x56>
    56d2:	77 20       	and	r7, r7
    56d4:	19 f0       	breq	.+6      	; 0x56dc <conv_brk+0xe2>
    56d6:	8e 81       	ldd	r24, Y+6	; 0x06
    56d8:	80 62       	ori	r24, 0x20	; 32
    56da:	8e 83       	std	Y+6, r24	; 0x06
    56dc:	31 11       	cpse	r19, r1
    56de:	03 c0       	rjmp	.+6      	; 0x56e6 <conv_brk+0xec>
    56e0:	88 24       	eor	r8, r8
    56e2:	83 94       	inc	r8
    56e4:	17 c0       	rjmp	.+46     	; 0x5714 <conv_brk+0x11a>
    56e6:	f6 01       	movw	r30, r12
    56e8:	9e 01       	movw	r18, r28
    56ea:	2f 5d       	subi	r18, 0xDF	; 223
    56ec:	3f 4f       	sbci	r19, 0xFF	; 255
    56ee:	80 81       	ld	r24, Z
    56f0:	80 95       	com	r24
    56f2:	81 93       	st	Z+, r24
    56f4:	2e 17       	cp	r18, r30
    56f6:	3f 07       	cpc	r19, r31
    56f8:	d1 f7       	brne	.-12     	; 0x56ee <conv_brk+0xf4>
    56fa:	f2 cf       	rjmp	.-28     	; 0x56e0 <conv_brk+0xe6>
    56fc:	e1 14       	cp	r14, r1
    56fe:	f1 04       	cpc	r15, r1
    5700:	29 f0       	breq	.+10     	; 0x570c <conv_brk+0x112>
    5702:	d7 01       	movw	r26, r14
    5704:	8c 93       	st	X, r24
    5706:	f7 01       	movw	r30, r14
    5708:	31 96       	adiw	r30, 0x01	; 1
    570a:	7f 01       	movw	r14, r30
    570c:	9a 94       	dec	r9
    570e:	81 2c       	mov	r8, r1
    5710:	99 20       	and	r9, r9
    5712:	e9 f0       	breq	.+58     	; 0x574e <conv_brk+0x154>
    5714:	c5 01       	movw	r24, r10
    5716:	cc d2       	rcall	.+1432   	; 0x5cb0 <fgetc>
    5718:	97 fd       	sbrc	r25, 7
    571a:	17 c0       	rjmp	.+46     	; 0x574a <conv_brk+0x150>
    571c:	fc 01       	movw	r30, r24
    571e:	ff 27       	eor	r31, r31
    5720:	23 e0       	ldi	r18, 0x03	; 3
    5722:	f5 95       	asr	r31
    5724:	e7 95       	ror	r30
    5726:	2a 95       	dec	r18
    5728:	e1 f7       	brne	.-8      	; 0x5722 <conv_brk+0x128>
    572a:	ec 0d       	add	r30, r12
    572c:	fd 1d       	adc	r31, r13
    572e:	20 81       	ld	r18, Z
    5730:	30 e0       	ldi	r19, 0x00	; 0
    5732:	ac 01       	movw	r20, r24
    5734:	47 70       	andi	r20, 0x07	; 7
    5736:	55 27       	eor	r21, r21
    5738:	02 c0       	rjmp	.+4      	; 0x573e <conv_brk+0x144>
    573a:	35 95       	asr	r19
    573c:	27 95       	ror	r18
    573e:	4a 95       	dec	r20
    5740:	e2 f7       	brpl	.-8      	; 0x573a <conv_brk+0x140>
    5742:	20 fd       	sbrc	r18, 0
    5744:	db cf       	rjmp	.-74     	; 0x56fc <conv_brk+0x102>
    5746:	b5 01       	movw	r22, r10
    5748:	2d d3       	rcall	.+1626   	; 0x5da4 <ungetc>
    574a:	81 10       	cpse	r8, r1
    574c:	89 cf       	rjmp	.-238    	; 0x5660 <conv_brk+0x66>
    574e:	e1 14       	cp	r14, r1
    5750:	f1 04       	cpc	r15, r1
    5752:	11 f0       	breq	.+4      	; 0x5758 <conv_brk+0x15e>
    5754:	d7 01       	movw	r26, r14
    5756:	1c 92       	st	X, r1
    5758:	c8 01       	movw	r24, r16
    575a:	15 c0       	rjmp	.+42     	; 0x5786 <conv_brk+0x18c>
    575c:	42 2f       	mov	r20, r18
    575e:	46 95       	lsr	r20
    5760:	46 95       	lsr	r20
    5762:	46 95       	lsr	r20
    5764:	d6 01       	movw	r26, r12
    5766:	a4 0f       	add	r26, r20
    5768:	b1 1d       	adc	r27, r1
    576a:	42 2f       	mov	r20, r18
    576c:	47 70       	andi	r20, 0x07	; 7
    576e:	8b 01       	movw	r16, r22
    5770:	02 c0       	rjmp	.+4      	; 0x5776 <conv_brk+0x17c>
    5772:	00 0f       	add	r16, r16
    5774:	11 1f       	adc	r17, r17
    5776:	4a 95       	dec	r20
    5778:	e2 f7       	brpl	.-8      	; 0x5772 <conv_brk+0x178>
    577a:	a8 01       	movw	r20, r16
    577c:	5c 91       	ld	r21, X
    577e:	45 2b       	or	r20, r21
    5780:	4c 93       	st	X, r20
    5782:	62 2e       	mov	r6, r18
    5784:	a4 cf       	rjmp	.-184    	; 0x56ce <conv_brk+0xd4>
    5786:	a0 96       	adiw	r28, 0x20	; 32
    5788:	cd bf       	out	0x3d, r28	; 61
    578a:	de bf       	out	0x3e, r29	; 62
    578c:	df 91       	pop	r29
    578e:	cf 91       	pop	r28
    5790:	1f 91       	pop	r17
    5792:	0f 91       	pop	r16
    5794:	ff 90       	pop	r15
    5796:	ef 90       	pop	r14
    5798:	df 90       	pop	r13
    579a:	cf 90       	pop	r12
    579c:	bf 90       	pop	r11
    579e:	af 90       	pop	r10
    57a0:	9f 90       	pop	r9
    57a2:	8f 90       	pop	r8
    57a4:	7f 90       	pop	r7
    57a6:	6f 90       	pop	r6
    57a8:	5f 90       	pop	r5
    57aa:	08 95       	ret

000057ac <vfscanf>:
    57ac:	5f 92       	push	r5
    57ae:	6f 92       	push	r6
    57b0:	7f 92       	push	r7
    57b2:	8f 92       	push	r8
    57b4:	9f 92       	push	r9
    57b6:	af 92       	push	r10
    57b8:	bf 92       	push	r11
    57ba:	cf 92       	push	r12
    57bc:	df 92       	push	r13
    57be:	ef 92       	push	r14
    57c0:	ff 92       	push	r15
    57c2:	0f 93       	push	r16
    57c4:	1f 93       	push	r17
    57c6:	cf 93       	push	r28
    57c8:	df 93       	push	r29
    57ca:	6c 01       	movw	r12, r24
    57cc:	eb 01       	movw	r28, r22
    57ce:	5a 01       	movw	r10, r20
    57d0:	fc 01       	movw	r30, r24
    57d2:	16 82       	std	Z+6, r1	; 0x06
    57d4:	17 82       	std	Z+7, r1	; 0x07
    57d6:	51 2c       	mov	r5, r1
    57d8:	f6 01       	movw	r30, r12
    57da:	e3 80       	ldd	r14, Z+3	; 0x03
    57dc:	fe 01       	movw	r30, r28
    57de:	e3 fc       	sbrc	r14, 3
    57e0:	85 91       	lpm	r24, Z+
    57e2:	e3 fe       	sbrs	r14, 3
    57e4:	81 91       	ld	r24, Z+
    57e6:	18 2f       	mov	r17, r24
    57e8:	ef 01       	movw	r28, r30
    57ea:	88 23       	and	r24, r24
    57ec:	09 f4       	brne	.+2      	; 0x57f0 <vfscanf+0x44>
    57ee:	e0 c0       	rjmp	.+448    	; 0x59b0 <vfscanf+0x204>
    57f0:	90 e0       	ldi	r25, 0x00	; 0
    57f2:	2e d2       	rcall	.+1116   	; 0x5c50 <isspace>
    57f4:	89 2b       	or	r24, r25
    57f6:	19 f0       	breq	.+6      	; 0x57fe <vfscanf+0x52>
    57f8:	c6 01       	movw	r24, r12
    57fa:	5f de       	rcall	.-834    	; 0x54ba <skip_spaces>
    57fc:	ed cf       	rjmp	.-38     	; 0x57d8 <vfscanf+0x2c>
    57fe:	15 32       	cpi	r17, 0x25	; 37
    5800:	41 f4       	brne	.+16     	; 0x5812 <vfscanf+0x66>
    5802:	fe 01       	movw	r30, r28
    5804:	e3 fc       	sbrc	r14, 3
    5806:	15 91       	lpm	r17, Z+
    5808:	e3 fe       	sbrs	r14, 3
    580a:	11 91       	ld	r17, Z+
    580c:	ef 01       	movw	r28, r30
    580e:	15 32       	cpi	r17, 0x25	; 37
    5810:	71 f4       	brne	.+28     	; 0x582e <vfscanf+0x82>
    5812:	c6 01       	movw	r24, r12
    5814:	4d d2       	rcall	.+1178   	; 0x5cb0 <fgetc>
    5816:	97 fd       	sbrc	r25, 7
    5818:	c9 c0       	rjmp	.+402    	; 0x59ac <vfscanf+0x200>
    581a:	41 2f       	mov	r20, r17
    581c:	50 e0       	ldi	r21, 0x00	; 0
    581e:	9c 01       	movw	r18, r24
    5820:	33 27       	eor	r19, r19
    5822:	24 17       	cp	r18, r20
    5824:	35 07       	cpc	r19, r21
    5826:	c1 f2       	breq	.-80     	; 0x57d8 <vfscanf+0x2c>
    5828:	b6 01       	movw	r22, r12
    582a:	bc d2       	rcall	.+1400   	; 0x5da4 <ungetc>
    582c:	c1 c0       	rjmp	.+386    	; 0x59b0 <vfscanf+0x204>
    582e:	1a 32       	cpi	r17, 0x2A	; 42
    5830:	39 f4       	brne	.+14     	; 0x5840 <vfscanf+0x94>
    5832:	e3 fc       	sbrc	r14, 3
    5834:	15 91       	lpm	r17, Z+
    5836:	e3 fe       	sbrs	r14, 3
    5838:	11 91       	ld	r17, Z+
    583a:	ef 01       	movw	r28, r30
    583c:	01 e0       	ldi	r16, 0x01	; 1
    583e:	01 c0       	rjmp	.+2      	; 0x5842 <vfscanf+0x96>
    5840:	00 e0       	ldi	r16, 0x00	; 0
    5842:	f1 2c       	mov	r15, r1
    5844:	20 ed       	ldi	r18, 0xD0	; 208
    5846:	21 0f       	add	r18, r17
    5848:	2a 30       	cpi	r18, 0x0A	; 10
    584a:	78 f4       	brcc	.+30     	; 0x586a <vfscanf+0xbe>
    584c:	02 60       	ori	r16, 0x02	; 2
    584e:	6f 2d       	mov	r22, r15
    5850:	70 e0       	ldi	r23, 0x00	; 0
    5852:	80 e0       	ldi	r24, 0x00	; 0
    5854:	90 e0       	ldi	r25, 0x00	; 0
    5856:	40 e2       	ldi	r20, 0x20	; 32
    5858:	09 de       	rcall	.-1006   	; 0x546c <mulacc>
    585a:	f6 2e       	mov	r15, r22
    585c:	fe 01       	movw	r30, r28
    585e:	e3 fc       	sbrc	r14, 3
    5860:	15 91       	lpm	r17, Z+
    5862:	e3 fe       	sbrs	r14, 3
    5864:	11 91       	ld	r17, Z+
    5866:	ef 01       	movw	r28, r30
    5868:	ed cf       	rjmp	.-38     	; 0x5844 <vfscanf+0x98>
    586a:	01 ff       	sbrs	r16, 1
    586c:	03 c0       	rjmp	.+6      	; 0x5874 <vfscanf+0xc8>
    586e:	f1 10       	cpse	r15, r1
    5870:	03 c0       	rjmp	.+6      	; 0x5878 <vfscanf+0xcc>
    5872:	9e c0       	rjmp	.+316    	; 0x59b0 <vfscanf+0x204>
    5874:	ff 24       	eor	r15, r15
    5876:	fa 94       	dec	r15
    5878:	18 36       	cpi	r17, 0x68	; 104
    587a:	19 f0       	breq	.+6      	; 0x5882 <vfscanf+0xd6>
    587c:	1c 36       	cpi	r17, 0x6C	; 108
    587e:	51 f0       	breq	.+20     	; 0x5894 <vfscanf+0xe8>
    5880:	10 c0       	rjmp	.+32     	; 0x58a2 <vfscanf+0xf6>
    5882:	fe 01       	movw	r30, r28
    5884:	e3 fc       	sbrc	r14, 3
    5886:	15 91       	lpm	r17, Z+
    5888:	e3 fe       	sbrs	r14, 3
    588a:	11 91       	ld	r17, Z+
    588c:	ef 01       	movw	r28, r30
    588e:	18 36       	cpi	r17, 0x68	; 104
    5890:	41 f4       	brne	.+16     	; 0x58a2 <vfscanf+0xf6>
    5892:	08 60       	ori	r16, 0x08	; 8
    5894:	04 60       	ori	r16, 0x04	; 4
    5896:	fe 01       	movw	r30, r28
    5898:	e3 fc       	sbrc	r14, 3
    589a:	15 91       	lpm	r17, Z+
    589c:	e3 fe       	sbrs	r14, 3
    589e:	11 91       	ld	r17, Z+
    58a0:	ef 01       	movw	r28, r30
    58a2:	11 23       	and	r17, r17
    58a4:	09 f4       	brne	.+2      	; 0x58a8 <vfscanf+0xfc>
    58a6:	84 c0       	rjmp	.+264    	; 0x59b0 <vfscanf+0x204>
    58a8:	61 2f       	mov	r22, r17
    58aa:	70 e0       	ldi	r23, 0x00	; 0
    58ac:	84 ea       	ldi	r24, 0xA4	; 164
    58ae:	92 e0       	ldi	r25, 0x02	; 2
    58b0:	d7 d1       	rcall	.+942    	; 0x5c60 <strchr_P>
    58b2:	89 2b       	or	r24, r25
    58b4:	09 f4       	brne	.+2      	; 0x58b8 <vfscanf+0x10c>
    58b6:	7c c0       	rjmp	.+248    	; 0x59b0 <vfscanf+0x204>
    58b8:	00 fd       	sbrc	r16, 0
    58ba:	07 c0       	rjmp	.+14     	; 0x58ca <vfscanf+0x11e>
    58bc:	f5 01       	movw	r30, r10
    58be:	80 80       	ld	r8, Z
    58c0:	91 80       	ldd	r9, Z+1	; 0x01
    58c2:	c5 01       	movw	r24, r10
    58c4:	02 96       	adiw	r24, 0x02	; 2
    58c6:	5c 01       	movw	r10, r24
    58c8:	02 c0       	rjmp	.+4      	; 0x58ce <vfscanf+0x122>
    58ca:	81 2c       	mov	r8, r1
    58cc:	91 2c       	mov	r9, r1
    58ce:	1e 36       	cpi	r17, 0x6E	; 110
    58d0:	49 f4       	brne	.+18     	; 0x58e4 <vfscanf+0x138>
    58d2:	f6 01       	movw	r30, r12
    58d4:	46 81       	ldd	r20, Z+6	; 0x06
    58d6:	57 81       	ldd	r21, Z+7	; 0x07
    58d8:	60 e0       	ldi	r22, 0x00	; 0
    58da:	70 e0       	ldi	r23, 0x00	; 0
    58dc:	20 2f       	mov	r18, r16
    58de:	c4 01       	movw	r24, r8
    58e0:	b9 dd       	rcall	.-1166   	; 0x5454 <putval>
    58e2:	7a cf       	rjmp	.-268    	; 0x57d8 <vfscanf+0x2c>
    58e4:	13 36       	cpi	r17, 0x63	; 99
    58e6:	a1 f4       	brne	.+40     	; 0x5910 <vfscanf+0x164>
    58e8:	01 fd       	sbrc	r16, 1
    58ea:	02 c0       	rjmp	.+4      	; 0x58f0 <vfscanf+0x144>
    58ec:	ff 24       	eor	r15, r15
    58ee:	f3 94       	inc	r15
    58f0:	c6 01       	movw	r24, r12
    58f2:	de d1       	rcall	.+956    	; 0x5cb0 <fgetc>
    58f4:	97 fd       	sbrc	r25, 7
    58f6:	5a c0       	rjmp	.+180    	; 0x59ac <vfscanf+0x200>
    58f8:	81 14       	cp	r8, r1
    58fa:	91 04       	cpc	r9, r1
    58fc:	29 f0       	breq	.+10     	; 0x5908 <vfscanf+0x15c>
    58fe:	f4 01       	movw	r30, r8
    5900:	80 83       	st	Z, r24
    5902:	c4 01       	movw	r24, r8
    5904:	01 96       	adiw	r24, 0x01	; 1
    5906:	4c 01       	movw	r8, r24
    5908:	fa 94       	dec	r15
    590a:	f1 10       	cpse	r15, r1
    590c:	f1 cf       	rjmp	.-30     	; 0x58f0 <vfscanf+0x144>
    590e:	4a c0       	rjmp	.+148    	; 0x59a4 <vfscanf+0x1f8>
    5910:	1b 35       	cpi	r17, 0x5B	; 91
    5912:	51 f4       	brne	.+20     	; 0x5928 <vfscanf+0x17c>
    5914:	9e 01       	movw	r18, r28
    5916:	a4 01       	movw	r20, r8
    5918:	6f 2d       	mov	r22, r15
    591a:	c6 01       	movw	r24, r12
    591c:	6e de       	rcall	.-804    	; 0x55fa <conv_brk>
    591e:	ec 01       	movw	r28, r24
    5920:	89 2b       	or	r24, r25
    5922:	09 f0       	breq	.+2      	; 0x5926 <vfscanf+0x17a>
    5924:	3f c0       	rjmp	.+126    	; 0x59a4 <vfscanf+0x1f8>
    5926:	39 c0       	rjmp	.+114    	; 0x599a <vfscanf+0x1ee>
    5928:	c6 01       	movw	r24, r12
    592a:	c7 dd       	rcall	.-1138   	; 0x54ba <skip_spaces>
    592c:	97 fd       	sbrc	r25, 7
    592e:	3e c0       	rjmp	.+124    	; 0x59ac <vfscanf+0x200>
    5930:	1f 36       	cpi	r17, 0x6F	; 111
    5932:	49 f1       	breq	.+82     	; 0x5986 <vfscanf+0x1da>
    5934:	28 f4       	brcc	.+10     	; 0x5940 <vfscanf+0x194>
    5936:	14 36       	cpi	r17, 0x64	; 100
    5938:	21 f1       	breq	.+72     	; 0x5982 <vfscanf+0x1d6>
    593a:	19 36       	cpi	r17, 0x69	; 105
    593c:	39 f1       	breq	.+78     	; 0x598c <vfscanf+0x1e0>
    593e:	25 c0       	rjmp	.+74     	; 0x598a <vfscanf+0x1de>
    5940:	13 37       	cpi	r17, 0x73	; 115
    5942:	71 f0       	breq	.+28     	; 0x5960 <vfscanf+0x1b4>
    5944:	15 37       	cpi	r17, 0x75	; 117
    5946:	e9 f0       	breq	.+58     	; 0x5982 <vfscanf+0x1d6>
    5948:	20 c0       	rjmp	.+64     	; 0x598a <vfscanf+0x1de>
    594a:	81 14       	cp	r8, r1
    594c:	91 04       	cpc	r9, r1
    594e:	29 f0       	breq	.+10     	; 0x595a <vfscanf+0x1ae>
    5950:	f4 01       	movw	r30, r8
    5952:	60 82       	st	Z, r6
    5954:	c4 01       	movw	r24, r8
    5956:	01 96       	adiw	r24, 0x01	; 1
    5958:	4c 01       	movw	r8, r24
    595a:	fa 94       	dec	r15
    595c:	ff 20       	and	r15, r15
    595e:	59 f0       	breq	.+22     	; 0x5976 <vfscanf+0x1ca>
    5960:	c6 01       	movw	r24, r12
    5962:	a6 d1       	rcall	.+844    	; 0x5cb0 <fgetc>
    5964:	3c 01       	movw	r6, r24
    5966:	97 fd       	sbrc	r25, 7
    5968:	06 c0       	rjmp	.+12     	; 0x5976 <vfscanf+0x1ca>
    596a:	72 d1       	rcall	.+740    	; 0x5c50 <isspace>
    596c:	89 2b       	or	r24, r25
    596e:	69 f3       	breq	.-38     	; 0x594a <vfscanf+0x19e>
    5970:	b6 01       	movw	r22, r12
    5972:	c3 01       	movw	r24, r6
    5974:	17 d2       	rcall	.+1070   	; 0x5da4 <ungetc>
    5976:	81 14       	cp	r8, r1
    5978:	91 04       	cpc	r9, r1
    597a:	a1 f0       	breq	.+40     	; 0x59a4 <vfscanf+0x1f8>
    597c:	f4 01       	movw	r30, r8
    597e:	10 82       	st	Z, r1
    5980:	11 c0       	rjmp	.+34     	; 0x59a4 <vfscanf+0x1f8>
    5982:	00 62       	ori	r16, 0x20	; 32
    5984:	03 c0       	rjmp	.+6      	; 0x598c <vfscanf+0x1e0>
    5986:	00 61       	ori	r16, 0x10	; 16
    5988:	01 c0       	rjmp	.+2      	; 0x598c <vfscanf+0x1e0>
    598a:	00 64       	ori	r16, 0x40	; 64
    598c:	20 2f       	mov	r18, r16
    598e:	a4 01       	movw	r20, r8
    5990:	6f 2d       	mov	r22, r15
    5992:	c6 01       	movw	r24, r12
    5994:	a8 dd       	rcall	.-1200   	; 0x54e6 <conv_int>
    5996:	81 11       	cpse	r24, r1
    5998:	05 c0       	rjmp	.+10     	; 0x59a4 <vfscanf+0x1f8>
    599a:	f6 01       	movw	r30, r12
    599c:	83 81       	ldd	r24, Z+3	; 0x03
    599e:	80 73       	andi	r24, 0x30	; 48
    59a0:	29 f4       	brne	.+10     	; 0x59ac <vfscanf+0x200>
    59a2:	06 c0       	rjmp	.+12     	; 0x59b0 <vfscanf+0x204>
    59a4:	00 fd       	sbrc	r16, 0
    59a6:	18 cf       	rjmp	.-464    	; 0x57d8 <vfscanf+0x2c>
    59a8:	53 94       	inc	r5
    59aa:	16 cf       	rjmp	.-468    	; 0x57d8 <vfscanf+0x2c>
    59ac:	55 20       	and	r5, r5
    59ae:	19 f0       	breq	.+6      	; 0x59b6 <vfscanf+0x20a>
    59b0:	85 2d       	mov	r24, r5
    59b2:	90 e0       	ldi	r25, 0x00	; 0
    59b4:	02 c0       	rjmp	.+4      	; 0x59ba <vfscanf+0x20e>
    59b6:	8f ef       	ldi	r24, 0xFF	; 255
    59b8:	9f ef       	ldi	r25, 0xFF	; 255
    59ba:	df 91       	pop	r29
    59bc:	cf 91       	pop	r28
    59be:	1f 91       	pop	r17
    59c0:	0f 91       	pop	r16
    59c2:	ff 90       	pop	r15
    59c4:	ef 90       	pop	r14
    59c6:	df 90       	pop	r13
    59c8:	cf 90       	pop	r12
    59ca:	bf 90       	pop	r11
    59cc:	af 90       	pop	r10
    59ce:	9f 90       	pop	r9
    59d0:	8f 90       	pop	r8
    59d2:	7f 90       	pop	r7
    59d4:	6f 90       	pop	r6
    59d6:	5f 90       	pop	r5
    59d8:	08 95       	ret

000059da <calloc>:
    59da:	0f 93       	push	r16
    59dc:	1f 93       	push	r17
    59de:	cf 93       	push	r28
    59e0:	df 93       	push	r29
    59e2:	86 9f       	mul	r24, r22
    59e4:	80 01       	movw	r16, r0
    59e6:	87 9f       	mul	r24, r23
    59e8:	10 0d       	add	r17, r0
    59ea:	96 9f       	mul	r25, r22
    59ec:	10 0d       	add	r17, r0
    59ee:	11 24       	eor	r1, r1
    59f0:	c8 01       	movw	r24, r16
    59f2:	0d d0       	rcall	.+26     	; 0x5a0e <malloc>
    59f4:	ec 01       	movw	r28, r24
    59f6:	00 97       	sbiw	r24, 0x00	; 0
    59f8:	21 f0       	breq	.+8      	; 0x5a02 <calloc+0x28>
    59fa:	a8 01       	movw	r20, r16
    59fc:	60 e0       	ldi	r22, 0x00	; 0
    59fe:	70 e0       	ldi	r23, 0x00	; 0
    5a00:	45 d1       	rcall	.+650    	; 0x5c8c <memset>
    5a02:	ce 01       	movw	r24, r28
    5a04:	df 91       	pop	r29
    5a06:	cf 91       	pop	r28
    5a08:	1f 91       	pop	r17
    5a0a:	0f 91       	pop	r16
    5a0c:	08 95       	ret

00005a0e <malloc>:
    5a0e:	0f 93       	push	r16
    5a10:	1f 93       	push	r17
    5a12:	cf 93       	push	r28
    5a14:	df 93       	push	r29
    5a16:	82 30       	cpi	r24, 0x02	; 2
    5a18:	91 05       	cpc	r25, r1
    5a1a:	10 f4       	brcc	.+4      	; 0x5a20 <malloc+0x12>
    5a1c:	82 e0       	ldi	r24, 0x02	; 2
    5a1e:	90 e0       	ldi	r25, 0x00	; 0
    5a20:	e0 91 0c 22 	lds	r30, 0x220C	; 0x80220c <__flp>
    5a24:	f0 91 0d 22 	lds	r31, 0x220D	; 0x80220d <__flp+0x1>
    5a28:	20 e0       	ldi	r18, 0x00	; 0
    5a2a:	30 e0       	ldi	r19, 0x00	; 0
    5a2c:	a0 e0       	ldi	r26, 0x00	; 0
    5a2e:	b0 e0       	ldi	r27, 0x00	; 0
    5a30:	30 97       	sbiw	r30, 0x00	; 0
    5a32:	19 f1       	breq	.+70     	; 0x5a7a <malloc+0x6c>
    5a34:	40 81       	ld	r20, Z
    5a36:	51 81       	ldd	r21, Z+1	; 0x01
    5a38:	02 81       	ldd	r16, Z+2	; 0x02
    5a3a:	13 81       	ldd	r17, Z+3	; 0x03
    5a3c:	48 17       	cp	r20, r24
    5a3e:	59 07       	cpc	r21, r25
    5a40:	c8 f0       	brcs	.+50     	; 0x5a74 <malloc+0x66>
    5a42:	84 17       	cp	r24, r20
    5a44:	95 07       	cpc	r25, r21
    5a46:	69 f4       	brne	.+26     	; 0x5a62 <malloc+0x54>
    5a48:	10 97       	sbiw	r26, 0x00	; 0
    5a4a:	31 f0       	breq	.+12     	; 0x5a58 <malloc+0x4a>
    5a4c:	12 96       	adiw	r26, 0x02	; 2
    5a4e:	0c 93       	st	X, r16
    5a50:	12 97       	sbiw	r26, 0x02	; 2
    5a52:	13 96       	adiw	r26, 0x03	; 3
    5a54:	1c 93       	st	X, r17
    5a56:	27 c0       	rjmp	.+78     	; 0x5aa6 <malloc+0x98>
    5a58:	00 93 0c 22 	sts	0x220C, r16	; 0x80220c <__flp>
    5a5c:	10 93 0d 22 	sts	0x220D, r17	; 0x80220d <__flp+0x1>
    5a60:	22 c0       	rjmp	.+68     	; 0x5aa6 <malloc+0x98>
    5a62:	21 15       	cp	r18, r1
    5a64:	31 05       	cpc	r19, r1
    5a66:	19 f0       	breq	.+6      	; 0x5a6e <malloc+0x60>
    5a68:	42 17       	cp	r20, r18
    5a6a:	53 07       	cpc	r21, r19
    5a6c:	18 f4       	brcc	.+6      	; 0x5a74 <malloc+0x66>
    5a6e:	9a 01       	movw	r18, r20
    5a70:	bd 01       	movw	r22, r26
    5a72:	ef 01       	movw	r28, r30
    5a74:	df 01       	movw	r26, r30
    5a76:	f8 01       	movw	r30, r16
    5a78:	db cf       	rjmp	.-74     	; 0x5a30 <malloc+0x22>
    5a7a:	21 15       	cp	r18, r1
    5a7c:	31 05       	cpc	r19, r1
    5a7e:	f9 f0       	breq	.+62     	; 0x5abe <malloc+0xb0>
    5a80:	28 1b       	sub	r18, r24
    5a82:	39 0b       	sbc	r19, r25
    5a84:	24 30       	cpi	r18, 0x04	; 4
    5a86:	31 05       	cpc	r19, r1
    5a88:	80 f4       	brcc	.+32     	; 0x5aaa <malloc+0x9c>
    5a8a:	8a 81       	ldd	r24, Y+2	; 0x02
    5a8c:	9b 81       	ldd	r25, Y+3	; 0x03
    5a8e:	61 15       	cp	r22, r1
    5a90:	71 05       	cpc	r23, r1
    5a92:	21 f0       	breq	.+8      	; 0x5a9c <malloc+0x8e>
    5a94:	fb 01       	movw	r30, r22
    5a96:	82 83       	std	Z+2, r24	; 0x02
    5a98:	93 83       	std	Z+3, r25	; 0x03
    5a9a:	04 c0       	rjmp	.+8      	; 0x5aa4 <malloc+0x96>
    5a9c:	80 93 0c 22 	sts	0x220C, r24	; 0x80220c <__flp>
    5aa0:	90 93 0d 22 	sts	0x220D, r25	; 0x80220d <__flp+0x1>
    5aa4:	fe 01       	movw	r30, r28
    5aa6:	32 96       	adiw	r30, 0x02	; 2
    5aa8:	44 c0       	rjmp	.+136    	; 0x5b32 <malloc+0x124>
    5aaa:	fe 01       	movw	r30, r28
    5aac:	e2 0f       	add	r30, r18
    5aae:	f3 1f       	adc	r31, r19
    5ab0:	81 93       	st	Z+, r24
    5ab2:	91 93       	st	Z+, r25
    5ab4:	22 50       	subi	r18, 0x02	; 2
    5ab6:	31 09       	sbc	r19, r1
    5ab8:	28 83       	st	Y, r18
    5aba:	39 83       	std	Y+1, r19	; 0x01
    5abc:	3a c0       	rjmp	.+116    	; 0x5b32 <malloc+0x124>
    5abe:	20 91 0a 22 	lds	r18, 0x220A	; 0x80220a <__brkval>
    5ac2:	30 91 0b 22 	lds	r19, 0x220B	; 0x80220b <__brkval+0x1>
    5ac6:	23 2b       	or	r18, r19
    5ac8:	41 f4       	brne	.+16     	; 0x5ada <malloc+0xcc>
    5aca:	20 91 02 20 	lds	r18, 0x2002	; 0x802002 <__malloc_heap_start>
    5ace:	30 91 03 20 	lds	r19, 0x2003	; 0x802003 <__malloc_heap_start+0x1>
    5ad2:	20 93 0a 22 	sts	0x220A, r18	; 0x80220a <__brkval>
    5ad6:	30 93 0b 22 	sts	0x220B, r19	; 0x80220b <__brkval+0x1>
    5ada:	20 91 00 20 	lds	r18, 0x2000	; 0x802000 <__data_start>
    5ade:	30 91 01 20 	lds	r19, 0x2001	; 0x802001 <__data_start+0x1>
    5ae2:	21 15       	cp	r18, r1
    5ae4:	31 05       	cpc	r19, r1
    5ae6:	41 f4       	brne	.+16     	; 0x5af8 <malloc+0xea>
    5ae8:	2d b7       	in	r18, 0x3d	; 61
    5aea:	3e b7       	in	r19, 0x3e	; 62
    5aec:	40 91 04 20 	lds	r20, 0x2004	; 0x802004 <__malloc_margin>
    5af0:	50 91 05 20 	lds	r21, 0x2005	; 0x802005 <__malloc_margin+0x1>
    5af4:	24 1b       	sub	r18, r20
    5af6:	35 0b       	sbc	r19, r21
    5af8:	e0 91 0a 22 	lds	r30, 0x220A	; 0x80220a <__brkval>
    5afc:	f0 91 0b 22 	lds	r31, 0x220B	; 0x80220b <__brkval+0x1>
    5b00:	e2 17       	cp	r30, r18
    5b02:	f3 07       	cpc	r31, r19
    5b04:	a0 f4       	brcc	.+40     	; 0x5b2e <malloc+0x120>
    5b06:	2e 1b       	sub	r18, r30
    5b08:	3f 0b       	sbc	r19, r31
    5b0a:	28 17       	cp	r18, r24
    5b0c:	39 07       	cpc	r19, r25
    5b0e:	78 f0       	brcs	.+30     	; 0x5b2e <malloc+0x120>
    5b10:	ac 01       	movw	r20, r24
    5b12:	4e 5f       	subi	r20, 0xFE	; 254
    5b14:	5f 4f       	sbci	r21, 0xFF	; 255
    5b16:	24 17       	cp	r18, r20
    5b18:	35 07       	cpc	r19, r21
    5b1a:	48 f0       	brcs	.+18     	; 0x5b2e <malloc+0x120>
    5b1c:	4e 0f       	add	r20, r30
    5b1e:	5f 1f       	adc	r21, r31
    5b20:	40 93 0a 22 	sts	0x220A, r20	; 0x80220a <__brkval>
    5b24:	50 93 0b 22 	sts	0x220B, r21	; 0x80220b <__brkval+0x1>
    5b28:	81 93       	st	Z+, r24
    5b2a:	91 93       	st	Z+, r25
    5b2c:	02 c0       	rjmp	.+4      	; 0x5b32 <malloc+0x124>
    5b2e:	e0 e0       	ldi	r30, 0x00	; 0
    5b30:	f0 e0       	ldi	r31, 0x00	; 0
    5b32:	cf 01       	movw	r24, r30
    5b34:	df 91       	pop	r29
    5b36:	cf 91       	pop	r28
    5b38:	1f 91       	pop	r17
    5b3a:	0f 91       	pop	r16
    5b3c:	08 95       	ret

00005b3e <free>:
    5b3e:	cf 93       	push	r28
    5b40:	df 93       	push	r29
    5b42:	00 97       	sbiw	r24, 0x00	; 0
    5b44:	09 f4       	brne	.+2      	; 0x5b48 <free+0xa>
    5b46:	81 c0       	rjmp	.+258    	; 0x5c4a <free+0x10c>
    5b48:	fc 01       	movw	r30, r24
    5b4a:	32 97       	sbiw	r30, 0x02	; 2
    5b4c:	12 82       	std	Z+2, r1	; 0x02
    5b4e:	13 82       	std	Z+3, r1	; 0x03
    5b50:	a0 91 0c 22 	lds	r26, 0x220C	; 0x80220c <__flp>
    5b54:	b0 91 0d 22 	lds	r27, 0x220D	; 0x80220d <__flp+0x1>
    5b58:	10 97       	sbiw	r26, 0x00	; 0
    5b5a:	81 f4       	brne	.+32     	; 0x5b7c <free+0x3e>
    5b5c:	20 81       	ld	r18, Z
    5b5e:	31 81       	ldd	r19, Z+1	; 0x01
    5b60:	82 0f       	add	r24, r18
    5b62:	93 1f       	adc	r25, r19
    5b64:	20 91 0a 22 	lds	r18, 0x220A	; 0x80220a <__brkval>
    5b68:	30 91 0b 22 	lds	r19, 0x220B	; 0x80220b <__brkval+0x1>
    5b6c:	28 17       	cp	r18, r24
    5b6e:	39 07       	cpc	r19, r25
    5b70:	51 f5       	brne	.+84     	; 0x5bc6 <free+0x88>
    5b72:	e0 93 0a 22 	sts	0x220A, r30	; 0x80220a <__brkval>
    5b76:	f0 93 0b 22 	sts	0x220B, r31	; 0x80220b <__brkval+0x1>
    5b7a:	67 c0       	rjmp	.+206    	; 0x5c4a <free+0x10c>
    5b7c:	ed 01       	movw	r28, r26
    5b7e:	20 e0       	ldi	r18, 0x00	; 0
    5b80:	30 e0       	ldi	r19, 0x00	; 0
    5b82:	ce 17       	cp	r28, r30
    5b84:	df 07       	cpc	r29, r31
    5b86:	40 f4       	brcc	.+16     	; 0x5b98 <free+0x5a>
    5b88:	4a 81       	ldd	r20, Y+2	; 0x02
    5b8a:	5b 81       	ldd	r21, Y+3	; 0x03
    5b8c:	9e 01       	movw	r18, r28
    5b8e:	41 15       	cp	r20, r1
    5b90:	51 05       	cpc	r21, r1
    5b92:	f1 f0       	breq	.+60     	; 0x5bd0 <free+0x92>
    5b94:	ea 01       	movw	r28, r20
    5b96:	f5 cf       	rjmp	.-22     	; 0x5b82 <free+0x44>
    5b98:	c2 83       	std	Z+2, r28	; 0x02
    5b9a:	d3 83       	std	Z+3, r29	; 0x03
    5b9c:	40 81       	ld	r20, Z
    5b9e:	51 81       	ldd	r21, Z+1	; 0x01
    5ba0:	84 0f       	add	r24, r20
    5ba2:	95 1f       	adc	r25, r21
    5ba4:	c8 17       	cp	r28, r24
    5ba6:	d9 07       	cpc	r29, r25
    5ba8:	59 f4       	brne	.+22     	; 0x5bc0 <free+0x82>
    5baa:	88 81       	ld	r24, Y
    5bac:	99 81       	ldd	r25, Y+1	; 0x01
    5bae:	84 0f       	add	r24, r20
    5bb0:	95 1f       	adc	r25, r21
    5bb2:	02 96       	adiw	r24, 0x02	; 2
    5bb4:	80 83       	st	Z, r24
    5bb6:	91 83       	std	Z+1, r25	; 0x01
    5bb8:	8a 81       	ldd	r24, Y+2	; 0x02
    5bba:	9b 81       	ldd	r25, Y+3	; 0x03
    5bbc:	82 83       	std	Z+2, r24	; 0x02
    5bbe:	93 83       	std	Z+3, r25	; 0x03
    5bc0:	21 15       	cp	r18, r1
    5bc2:	31 05       	cpc	r19, r1
    5bc4:	29 f4       	brne	.+10     	; 0x5bd0 <free+0x92>
    5bc6:	e0 93 0c 22 	sts	0x220C, r30	; 0x80220c <__flp>
    5bca:	f0 93 0d 22 	sts	0x220D, r31	; 0x80220d <__flp+0x1>
    5bce:	3d c0       	rjmp	.+122    	; 0x5c4a <free+0x10c>
    5bd0:	e9 01       	movw	r28, r18
    5bd2:	ea 83       	std	Y+2, r30	; 0x02
    5bd4:	fb 83       	std	Y+3, r31	; 0x03
    5bd6:	49 91       	ld	r20, Y+
    5bd8:	59 91       	ld	r21, Y+
    5bda:	c4 0f       	add	r28, r20
    5bdc:	d5 1f       	adc	r29, r21
    5bde:	ec 17       	cp	r30, r28
    5be0:	fd 07       	cpc	r31, r29
    5be2:	61 f4       	brne	.+24     	; 0x5bfc <free+0xbe>
    5be4:	80 81       	ld	r24, Z
    5be6:	91 81       	ldd	r25, Z+1	; 0x01
    5be8:	84 0f       	add	r24, r20
    5bea:	95 1f       	adc	r25, r21
    5bec:	02 96       	adiw	r24, 0x02	; 2
    5bee:	e9 01       	movw	r28, r18
    5bf0:	88 83       	st	Y, r24
    5bf2:	99 83       	std	Y+1, r25	; 0x01
    5bf4:	82 81       	ldd	r24, Z+2	; 0x02
    5bf6:	93 81       	ldd	r25, Z+3	; 0x03
    5bf8:	8a 83       	std	Y+2, r24	; 0x02
    5bfa:	9b 83       	std	Y+3, r25	; 0x03
    5bfc:	e0 e0       	ldi	r30, 0x00	; 0
    5bfe:	f0 e0       	ldi	r31, 0x00	; 0
    5c00:	12 96       	adiw	r26, 0x02	; 2
    5c02:	8d 91       	ld	r24, X+
    5c04:	9c 91       	ld	r25, X
    5c06:	13 97       	sbiw	r26, 0x03	; 3
    5c08:	00 97       	sbiw	r24, 0x00	; 0
    5c0a:	19 f0       	breq	.+6      	; 0x5c12 <free+0xd4>
    5c0c:	fd 01       	movw	r30, r26
    5c0e:	dc 01       	movw	r26, r24
    5c10:	f7 cf       	rjmp	.-18     	; 0x5c00 <free+0xc2>
    5c12:	8d 91       	ld	r24, X+
    5c14:	9c 91       	ld	r25, X
    5c16:	11 97       	sbiw	r26, 0x01	; 1
    5c18:	9d 01       	movw	r18, r26
    5c1a:	2e 5f       	subi	r18, 0xFE	; 254
    5c1c:	3f 4f       	sbci	r19, 0xFF	; 255
    5c1e:	82 0f       	add	r24, r18
    5c20:	93 1f       	adc	r25, r19
    5c22:	20 91 0a 22 	lds	r18, 0x220A	; 0x80220a <__brkval>
    5c26:	30 91 0b 22 	lds	r19, 0x220B	; 0x80220b <__brkval+0x1>
    5c2a:	28 17       	cp	r18, r24
    5c2c:	39 07       	cpc	r19, r25
    5c2e:	69 f4       	brne	.+26     	; 0x5c4a <free+0x10c>
    5c30:	30 97       	sbiw	r30, 0x00	; 0
    5c32:	29 f4       	brne	.+10     	; 0x5c3e <free+0x100>
    5c34:	10 92 0c 22 	sts	0x220C, r1	; 0x80220c <__flp>
    5c38:	10 92 0d 22 	sts	0x220D, r1	; 0x80220d <__flp+0x1>
    5c3c:	02 c0       	rjmp	.+4      	; 0x5c42 <free+0x104>
    5c3e:	12 82       	std	Z+2, r1	; 0x02
    5c40:	13 82       	std	Z+3, r1	; 0x03
    5c42:	a0 93 0a 22 	sts	0x220A, r26	; 0x80220a <__brkval>
    5c46:	b0 93 0b 22 	sts	0x220B, r27	; 0x80220b <__brkval+0x1>
    5c4a:	df 91       	pop	r29
    5c4c:	cf 91       	pop	r28
    5c4e:	08 95       	ret

00005c50 <isspace>:
    5c50:	91 11       	cpse	r25, r1
    5c52:	1f c1       	rjmp	.+574    	; 0x5e92 <__ctype_isfalse>
    5c54:	80 32       	cpi	r24, 0x20	; 32
    5c56:	19 f0       	breq	.+6      	; 0x5c5e <isspace+0xe>
    5c58:	89 50       	subi	r24, 0x09	; 9
    5c5a:	85 50       	subi	r24, 0x05	; 5
    5c5c:	d0 f7       	brcc	.-12     	; 0x5c52 <isspace+0x2>
    5c5e:	08 95       	ret

00005c60 <strchr_P>:
    5c60:	fc 01       	movw	r30, r24
    5c62:	05 90       	lpm	r0, Z+
    5c64:	06 16       	cp	r0, r22
    5c66:	21 f0       	breq	.+8      	; 0x5c70 <strchr_P+0x10>
    5c68:	00 20       	and	r0, r0
    5c6a:	d9 f7       	brne	.-10     	; 0x5c62 <strchr_P+0x2>
    5c6c:	c0 01       	movw	r24, r0
    5c6e:	08 95       	ret
    5c70:	31 97       	sbiw	r30, 0x01	; 1
    5c72:	cf 01       	movw	r24, r30
    5c74:	08 95       	ret

00005c76 <strnlen_P>:
    5c76:	fc 01       	movw	r30, r24
    5c78:	05 90       	lpm	r0, Z+
    5c7a:	61 50       	subi	r22, 0x01	; 1
    5c7c:	70 40       	sbci	r23, 0x00	; 0
    5c7e:	01 10       	cpse	r0, r1
    5c80:	d8 f7       	brcc	.-10     	; 0x5c78 <strnlen_P+0x2>
    5c82:	80 95       	com	r24
    5c84:	90 95       	com	r25
    5c86:	8e 0f       	add	r24, r30
    5c88:	9f 1f       	adc	r25, r31
    5c8a:	08 95       	ret

00005c8c <memset>:
    5c8c:	dc 01       	movw	r26, r24
    5c8e:	01 c0       	rjmp	.+2      	; 0x5c92 <memset+0x6>
    5c90:	6d 93       	st	X+, r22
    5c92:	41 50       	subi	r20, 0x01	; 1
    5c94:	50 40       	sbci	r21, 0x00	; 0
    5c96:	e0 f7       	brcc	.-8      	; 0x5c90 <memset+0x4>
    5c98:	08 95       	ret

00005c9a <strnlen>:
    5c9a:	fc 01       	movw	r30, r24
    5c9c:	61 50       	subi	r22, 0x01	; 1
    5c9e:	70 40       	sbci	r23, 0x00	; 0
    5ca0:	01 90       	ld	r0, Z+
    5ca2:	01 10       	cpse	r0, r1
    5ca4:	d8 f7       	brcc	.-10     	; 0x5c9c <strnlen+0x2>
    5ca6:	80 95       	com	r24
    5ca8:	90 95       	com	r25
    5caa:	8e 0f       	add	r24, r30
    5cac:	9f 1f       	adc	r25, r31
    5cae:	08 95       	ret

00005cb0 <fgetc>:
    5cb0:	cf 93       	push	r28
    5cb2:	df 93       	push	r29
    5cb4:	ec 01       	movw	r28, r24
    5cb6:	2b 81       	ldd	r18, Y+3	; 0x03
    5cb8:	20 ff       	sbrs	r18, 0
    5cba:	33 c0       	rjmp	.+102    	; 0x5d22 <fgetc+0x72>
    5cbc:	26 ff       	sbrs	r18, 6
    5cbe:	0a c0       	rjmp	.+20     	; 0x5cd4 <fgetc+0x24>
    5cc0:	2f 7b       	andi	r18, 0xBF	; 191
    5cc2:	2b 83       	std	Y+3, r18	; 0x03
    5cc4:	8e 81       	ldd	r24, Y+6	; 0x06
    5cc6:	9f 81       	ldd	r25, Y+7	; 0x07
    5cc8:	01 96       	adiw	r24, 0x01	; 1
    5cca:	8e 83       	std	Y+6, r24	; 0x06
    5ccc:	9f 83       	std	Y+7, r25	; 0x07
    5cce:	8a 81       	ldd	r24, Y+2	; 0x02
    5cd0:	90 e0       	ldi	r25, 0x00	; 0
    5cd2:	29 c0       	rjmp	.+82     	; 0x5d26 <fgetc+0x76>
    5cd4:	22 ff       	sbrs	r18, 2
    5cd6:	0f c0       	rjmp	.+30     	; 0x5cf6 <fgetc+0x46>
    5cd8:	e8 81       	ld	r30, Y
    5cda:	f9 81       	ldd	r31, Y+1	; 0x01
    5cdc:	80 81       	ld	r24, Z
    5cde:	08 2e       	mov	r0, r24
    5ce0:	00 0c       	add	r0, r0
    5ce2:	99 0b       	sbc	r25, r25
    5ce4:	00 97       	sbiw	r24, 0x00	; 0
    5ce6:	19 f4       	brne	.+6      	; 0x5cee <fgetc+0x3e>
    5ce8:	20 62       	ori	r18, 0x20	; 32
    5cea:	2b 83       	std	Y+3, r18	; 0x03
    5cec:	1a c0       	rjmp	.+52     	; 0x5d22 <fgetc+0x72>
    5cee:	31 96       	adiw	r30, 0x01	; 1
    5cf0:	e8 83       	st	Y, r30
    5cf2:	f9 83       	std	Y+1, r31	; 0x01
    5cf4:	0e c0       	rjmp	.+28     	; 0x5d12 <fgetc+0x62>
    5cf6:	ea 85       	ldd	r30, Y+10	; 0x0a
    5cf8:	fb 85       	ldd	r31, Y+11	; 0x0b
    5cfa:	19 95       	eicall
    5cfc:	97 ff       	sbrs	r25, 7
    5cfe:	09 c0       	rjmp	.+18     	; 0x5d12 <fgetc+0x62>
    5d00:	2b 81       	ldd	r18, Y+3	; 0x03
    5d02:	01 96       	adiw	r24, 0x01	; 1
    5d04:	11 f0       	breq	.+4      	; 0x5d0a <fgetc+0x5a>
    5d06:	80 e2       	ldi	r24, 0x20	; 32
    5d08:	01 c0       	rjmp	.+2      	; 0x5d0c <fgetc+0x5c>
    5d0a:	80 e1       	ldi	r24, 0x10	; 16
    5d0c:	82 2b       	or	r24, r18
    5d0e:	8b 83       	std	Y+3, r24	; 0x03
    5d10:	08 c0       	rjmp	.+16     	; 0x5d22 <fgetc+0x72>
    5d12:	2e 81       	ldd	r18, Y+6	; 0x06
    5d14:	3f 81       	ldd	r19, Y+7	; 0x07
    5d16:	2f 5f       	subi	r18, 0xFF	; 255
    5d18:	3f 4f       	sbci	r19, 0xFF	; 255
    5d1a:	2e 83       	std	Y+6, r18	; 0x06
    5d1c:	3f 83       	std	Y+7, r19	; 0x07
    5d1e:	99 27       	eor	r25, r25
    5d20:	02 c0       	rjmp	.+4      	; 0x5d26 <fgetc+0x76>
    5d22:	8f ef       	ldi	r24, 0xFF	; 255
    5d24:	9f ef       	ldi	r25, 0xFF	; 255
    5d26:	df 91       	pop	r29
    5d28:	cf 91       	pop	r28
    5d2a:	08 95       	ret

00005d2c <fputc>:
    5d2c:	0f 93       	push	r16
    5d2e:	1f 93       	push	r17
    5d30:	cf 93       	push	r28
    5d32:	df 93       	push	r29
    5d34:	fb 01       	movw	r30, r22
    5d36:	23 81       	ldd	r18, Z+3	; 0x03
    5d38:	21 fd       	sbrc	r18, 1
    5d3a:	03 c0       	rjmp	.+6      	; 0x5d42 <fputc+0x16>
    5d3c:	8f ef       	ldi	r24, 0xFF	; 255
    5d3e:	9f ef       	ldi	r25, 0xFF	; 255
    5d40:	2c c0       	rjmp	.+88     	; 0x5d9a <fputc+0x6e>
    5d42:	22 ff       	sbrs	r18, 2
    5d44:	16 c0       	rjmp	.+44     	; 0x5d72 <fputc+0x46>
    5d46:	46 81       	ldd	r20, Z+6	; 0x06
    5d48:	57 81       	ldd	r21, Z+7	; 0x07
    5d4a:	24 81       	ldd	r18, Z+4	; 0x04
    5d4c:	35 81       	ldd	r19, Z+5	; 0x05
    5d4e:	42 17       	cp	r20, r18
    5d50:	53 07       	cpc	r21, r19
    5d52:	44 f4       	brge	.+16     	; 0x5d64 <fputc+0x38>
    5d54:	a0 81       	ld	r26, Z
    5d56:	b1 81       	ldd	r27, Z+1	; 0x01
    5d58:	9d 01       	movw	r18, r26
    5d5a:	2f 5f       	subi	r18, 0xFF	; 255
    5d5c:	3f 4f       	sbci	r19, 0xFF	; 255
    5d5e:	20 83       	st	Z, r18
    5d60:	31 83       	std	Z+1, r19	; 0x01
    5d62:	8c 93       	st	X, r24
    5d64:	26 81       	ldd	r18, Z+6	; 0x06
    5d66:	37 81       	ldd	r19, Z+7	; 0x07
    5d68:	2f 5f       	subi	r18, 0xFF	; 255
    5d6a:	3f 4f       	sbci	r19, 0xFF	; 255
    5d6c:	26 83       	std	Z+6, r18	; 0x06
    5d6e:	37 83       	std	Z+7, r19	; 0x07
    5d70:	14 c0       	rjmp	.+40     	; 0x5d9a <fputc+0x6e>
    5d72:	8b 01       	movw	r16, r22
    5d74:	ec 01       	movw	r28, r24
    5d76:	fb 01       	movw	r30, r22
    5d78:	00 84       	ldd	r0, Z+8	; 0x08
    5d7a:	f1 85       	ldd	r31, Z+9	; 0x09
    5d7c:	e0 2d       	mov	r30, r0
    5d7e:	19 95       	eicall
    5d80:	89 2b       	or	r24, r25
    5d82:	e1 f6       	brne	.-72     	; 0x5d3c <fputc+0x10>
    5d84:	d8 01       	movw	r26, r16
    5d86:	16 96       	adiw	r26, 0x06	; 6
    5d88:	8d 91       	ld	r24, X+
    5d8a:	9c 91       	ld	r25, X
    5d8c:	17 97       	sbiw	r26, 0x07	; 7
    5d8e:	01 96       	adiw	r24, 0x01	; 1
    5d90:	16 96       	adiw	r26, 0x06	; 6
    5d92:	8d 93       	st	X+, r24
    5d94:	9c 93       	st	X, r25
    5d96:	17 97       	sbiw	r26, 0x07	; 7
    5d98:	ce 01       	movw	r24, r28
    5d9a:	df 91       	pop	r29
    5d9c:	cf 91       	pop	r28
    5d9e:	1f 91       	pop	r17
    5da0:	0f 91       	pop	r16
    5da2:	08 95       	ret

00005da4 <ungetc>:
    5da4:	fb 01       	movw	r30, r22
    5da6:	23 81       	ldd	r18, Z+3	; 0x03
    5da8:	20 ff       	sbrs	r18, 0
    5daa:	12 c0       	rjmp	.+36     	; 0x5dd0 <ungetc+0x2c>
    5dac:	26 fd       	sbrc	r18, 6
    5dae:	10 c0       	rjmp	.+32     	; 0x5dd0 <ungetc+0x2c>
    5db0:	8f 3f       	cpi	r24, 0xFF	; 255
    5db2:	3f ef       	ldi	r19, 0xFF	; 255
    5db4:	93 07       	cpc	r25, r19
    5db6:	61 f0       	breq	.+24     	; 0x5dd0 <ungetc+0x2c>
    5db8:	82 83       	std	Z+2, r24	; 0x02
    5dba:	2f 7d       	andi	r18, 0xDF	; 223
    5dbc:	20 64       	ori	r18, 0x40	; 64
    5dbe:	23 83       	std	Z+3, r18	; 0x03
    5dc0:	26 81       	ldd	r18, Z+6	; 0x06
    5dc2:	37 81       	ldd	r19, Z+7	; 0x07
    5dc4:	21 50       	subi	r18, 0x01	; 1
    5dc6:	31 09       	sbc	r19, r1
    5dc8:	26 83       	std	Z+6, r18	; 0x06
    5dca:	37 83       	std	Z+7, r19	; 0x07
    5dcc:	99 27       	eor	r25, r25
    5dce:	08 95       	ret
    5dd0:	8f ef       	ldi	r24, 0xFF	; 255
    5dd2:	9f ef       	ldi	r25, 0xFF	; 255
    5dd4:	08 95       	ret

00005dd6 <__ultoa_invert>:
    5dd6:	fa 01       	movw	r30, r20
    5dd8:	aa 27       	eor	r26, r26
    5dda:	28 30       	cpi	r18, 0x08	; 8
    5ddc:	51 f1       	breq	.+84     	; 0x5e32 <__ultoa_invert+0x5c>
    5dde:	20 31       	cpi	r18, 0x10	; 16
    5de0:	81 f1       	breq	.+96     	; 0x5e42 <__ultoa_invert+0x6c>
    5de2:	e8 94       	clt
    5de4:	6f 93       	push	r22
    5de6:	6e 7f       	andi	r22, 0xFE	; 254
    5de8:	6e 5f       	subi	r22, 0xFE	; 254
    5dea:	7f 4f       	sbci	r23, 0xFF	; 255
    5dec:	8f 4f       	sbci	r24, 0xFF	; 255
    5dee:	9f 4f       	sbci	r25, 0xFF	; 255
    5df0:	af 4f       	sbci	r26, 0xFF	; 255
    5df2:	b1 e0       	ldi	r27, 0x01	; 1
    5df4:	3e d0       	rcall	.+124    	; 0x5e72 <__ultoa_invert+0x9c>
    5df6:	b4 e0       	ldi	r27, 0x04	; 4
    5df8:	3c d0       	rcall	.+120    	; 0x5e72 <__ultoa_invert+0x9c>
    5dfa:	67 0f       	add	r22, r23
    5dfc:	78 1f       	adc	r23, r24
    5dfe:	89 1f       	adc	r24, r25
    5e00:	9a 1f       	adc	r25, r26
    5e02:	a1 1d       	adc	r26, r1
    5e04:	68 0f       	add	r22, r24
    5e06:	79 1f       	adc	r23, r25
    5e08:	8a 1f       	adc	r24, r26
    5e0a:	91 1d       	adc	r25, r1
    5e0c:	a1 1d       	adc	r26, r1
    5e0e:	6a 0f       	add	r22, r26
    5e10:	71 1d       	adc	r23, r1
    5e12:	81 1d       	adc	r24, r1
    5e14:	91 1d       	adc	r25, r1
    5e16:	a1 1d       	adc	r26, r1
    5e18:	20 d0       	rcall	.+64     	; 0x5e5a <__ultoa_invert+0x84>
    5e1a:	09 f4       	brne	.+2      	; 0x5e1e <__ultoa_invert+0x48>
    5e1c:	68 94       	set
    5e1e:	3f 91       	pop	r19
    5e20:	2a e0       	ldi	r18, 0x0A	; 10
    5e22:	26 9f       	mul	r18, r22
    5e24:	11 24       	eor	r1, r1
    5e26:	30 19       	sub	r19, r0
    5e28:	30 5d       	subi	r19, 0xD0	; 208
    5e2a:	31 93       	st	Z+, r19
    5e2c:	de f6       	brtc	.-74     	; 0x5de4 <__ultoa_invert+0xe>
    5e2e:	cf 01       	movw	r24, r30
    5e30:	08 95       	ret
    5e32:	46 2f       	mov	r20, r22
    5e34:	47 70       	andi	r20, 0x07	; 7
    5e36:	40 5d       	subi	r20, 0xD0	; 208
    5e38:	41 93       	st	Z+, r20
    5e3a:	b3 e0       	ldi	r27, 0x03	; 3
    5e3c:	0f d0       	rcall	.+30     	; 0x5e5c <__ultoa_invert+0x86>
    5e3e:	c9 f7       	brne	.-14     	; 0x5e32 <__ultoa_invert+0x5c>
    5e40:	f6 cf       	rjmp	.-20     	; 0x5e2e <__ultoa_invert+0x58>
    5e42:	46 2f       	mov	r20, r22
    5e44:	4f 70       	andi	r20, 0x0F	; 15
    5e46:	40 5d       	subi	r20, 0xD0	; 208
    5e48:	4a 33       	cpi	r20, 0x3A	; 58
    5e4a:	18 f0       	brcs	.+6      	; 0x5e52 <__ultoa_invert+0x7c>
    5e4c:	49 5d       	subi	r20, 0xD9	; 217
    5e4e:	31 fd       	sbrc	r19, 1
    5e50:	40 52       	subi	r20, 0x20	; 32
    5e52:	41 93       	st	Z+, r20
    5e54:	02 d0       	rcall	.+4      	; 0x5e5a <__ultoa_invert+0x84>
    5e56:	a9 f7       	brne	.-22     	; 0x5e42 <__ultoa_invert+0x6c>
    5e58:	ea cf       	rjmp	.-44     	; 0x5e2e <__ultoa_invert+0x58>
    5e5a:	b4 e0       	ldi	r27, 0x04	; 4
    5e5c:	a6 95       	lsr	r26
    5e5e:	97 95       	ror	r25
    5e60:	87 95       	ror	r24
    5e62:	77 95       	ror	r23
    5e64:	67 95       	ror	r22
    5e66:	ba 95       	dec	r27
    5e68:	c9 f7       	brne	.-14     	; 0x5e5c <__ultoa_invert+0x86>
    5e6a:	00 97       	sbiw	r24, 0x00	; 0
    5e6c:	61 05       	cpc	r22, r1
    5e6e:	71 05       	cpc	r23, r1
    5e70:	08 95       	ret
    5e72:	9b 01       	movw	r18, r22
    5e74:	ac 01       	movw	r20, r24
    5e76:	0a 2e       	mov	r0, r26
    5e78:	06 94       	lsr	r0
    5e7a:	57 95       	ror	r21
    5e7c:	47 95       	ror	r20
    5e7e:	37 95       	ror	r19
    5e80:	27 95       	ror	r18
    5e82:	ba 95       	dec	r27
    5e84:	c9 f7       	brne	.-14     	; 0x5e78 <__ultoa_invert+0xa2>
    5e86:	62 0f       	add	r22, r18
    5e88:	73 1f       	adc	r23, r19
    5e8a:	84 1f       	adc	r24, r20
    5e8c:	95 1f       	adc	r25, r21
    5e8e:	a0 1d       	adc	r26, r0
    5e90:	08 95       	ret

00005e92 <__ctype_isfalse>:
    5e92:	99 27       	eor	r25, r25
    5e94:	88 27       	eor	r24, r24

00005e96 <__ctype_istrue>:
    5e96:	08 95       	ret

00005e98 <_exit>:
    5e98:	f8 94       	cli

00005e9a <__stop_program>:
    5e9a:	ff cf       	rjmp	.-2      	; 0x5e9a <__stop_program>
