
SkyFire.elf:     file format elf32-avr

Sections:
Idx Name          Size      VMA       LMA       File off  Algn
  0 .text         00004f88  00000000  00000000  00000094  2**1
                  CONTENTS, ALLOC, LOAD, READONLY, CODE
  1 .data         000000de  00802000  00004f88  0000501c  2**0
                  CONTENTS, ALLOC, LOAD, DATA
  2 .bss          0000011e  008020de  008020de  000050fa  2**0
                  ALLOC
  3 .comment      0000005c  00000000  00000000  000050fa  2**0
                  CONTENTS, READONLY
  4 .note.gnu.avr.deviceinfo 00000040  00000000  00000000  00005158  2**2
                  CONTENTS, READONLY
  5 .debug_aranges 00000630  00000000  00000000  00005198  2**3
                  CONTENTS, READONLY, DEBUGGING
  6 .debug_info   00019766  00000000  00000000  000057c8  2**0
                  CONTENTS, READONLY, DEBUGGING
  7 .debug_abbrev 0000541d  00000000  00000000  0001ef2e  2**0
                  CONTENTS, READONLY, DEBUGGING
  8 .debug_line   0000b6e2  00000000  00000000  0002434b  2**0
                  CONTENTS, READONLY, DEBUGGING
  9 .debug_frame  00001538  00000000  00000000  0002fa30  2**2
                  CONTENTS, READONLY, DEBUGGING
 10 .debug_str    000385d4  00000000  00000000  00030f68  2**0
                  CONTENTS, READONLY, DEBUGGING
 11 .debug_loc    000056b5  00000000  00000000  0006953c  2**0
                  CONTENTS, READONLY, DEBUGGING
 12 .debug_ranges 000005c8  00000000  00000000  0006ebf8  2**3
                  CONTENTS, READONLY, DEBUGGING
 13 .debug_macro  00005f84  00000000  00000000  0006f1c0  2**0
                  CONTENTS, READONLY, DEBUGGING

Disassembly of section .text:

00000000 <__vectors>:
       0:	57 c1       	rjmp	.+686    	; 0x2b0 <__ctors_end>
       2:	00 00       	nop
       4:	7b c1       	rjmp	.+758    	; 0x2fc <__bad_interrupt>
       6:	00 00       	nop
       8:	79 c1       	rjmp	.+754    	; 0x2fc <__bad_interrupt>
       a:	00 00       	nop
       c:	77 c1       	rjmp	.+750    	; 0x2fc <__bad_interrupt>
       e:	00 00       	nop
      10:	75 c1       	rjmp	.+746    	; 0x2fc <__bad_interrupt>
      12:	00 00       	nop
      14:	73 c1       	rjmp	.+742    	; 0x2fc <__bad_interrupt>
      16:	00 00       	nop
      18:	71 c1       	rjmp	.+738    	; 0x2fc <__bad_interrupt>
      1a:	00 00       	nop
      1c:	6f c1       	rjmp	.+734    	; 0x2fc <__bad_interrupt>
      1e:	00 00       	nop
      20:	6d c1       	rjmp	.+730    	; 0x2fc <__bad_interrupt>
      22:	00 00       	nop
      24:	6b c1       	rjmp	.+726    	; 0x2fc <__bad_interrupt>
      26:	00 00       	nop
      28:	69 c1       	rjmp	.+722    	; 0x2fc <__bad_interrupt>
      2a:	00 00       	nop
      2c:	67 c1       	rjmp	.+718    	; 0x2fc <__bad_interrupt>
      2e:	00 00       	nop
      30:	65 c1       	rjmp	.+714    	; 0x2fc <__bad_interrupt>
      32:	00 00       	nop
      34:	1a c3       	rjmp	.+1588   	; 0x66a <__vector_13>
      36:	00 00       	nop
      38:	61 c1       	rjmp	.+706    	; 0x2fc <__bad_interrupt>
      3a:	00 00       	nop
      3c:	5f c1       	rjmp	.+702    	; 0x2fc <__bad_interrupt>
      3e:	00 00       	nop
      40:	5d c1       	rjmp	.+698    	; 0x2fc <__bad_interrupt>
      42:	00 00       	nop
      44:	5b c1       	rjmp	.+694    	; 0x2fc <__bad_interrupt>
      46:	00 00       	nop
      48:	59 c1       	rjmp	.+690    	; 0x2fc <__bad_interrupt>
      4a:	00 00       	nop
      4c:	57 c1       	rjmp	.+686    	; 0x2fc <__bad_interrupt>
      4e:	00 00       	nop
      50:	55 c1       	rjmp	.+682    	; 0x2fc <__bad_interrupt>
      52:	00 00       	nop
      54:	53 c1       	rjmp	.+678    	; 0x2fc <__bad_interrupt>
      56:	00 00       	nop
      58:	51 c1       	rjmp	.+674    	; 0x2fc <__bad_interrupt>
      5a:	00 00       	nop
      5c:	4f c1       	rjmp	.+670    	; 0x2fc <__bad_interrupt>
      5e:	00 00       	nop
      60:	4d c1       	rjmp	.+666    	; 0x2fc <__bad_interrupt>
      62:	00 00       	nop
      64:	4b c1       	rjmp	.+662    	; 0x2fc <__bad_interrupt>
      66:	00 00       	nop
      68:	49 c1       	rjmp	.+658    	; 0x2fc <__bad_interrupt>
      6a:	00 00       	nop
      6c:	47 c1       	rjmp	.+654    	; 0x2fc <__bad_interrupt>
      6e:	00 00       	nop
      70:	45 c1       	rjmp	.+650    	; 0x2fc <__bad_interrupt>
      72:	00 00       	nop
      74:	43 c1       	rjmp	.+646    	; 0x2fc <__bad_interrupt>
      76:	00 00       	nop
      78:	41 c1       	rjmp	.+642    	; 0x2fc <__bad_interrupt>
      7a:	00 00       	nop
      7c:	3f c1       	rjmp	.+638    	; 0x2fc <__bad_interrupt>
      7e:	00 00       	nop
      80:	3d c1       	rjmp	.+634    	; 0x2fc <__bad_interrupt>
      82:	00 00       	nop
      84:	3b c1       	rjmp	.+630    	; 0x2fc <__bad_interrupt>
      86:	00 00       	nop
      88:	39 c1       	rjmp	.+626    	; 0x2fc <__bad_interrupt>
      8a:	00 00       	nop
      8c:	37 c1       	rjmp	.+622    	; 0x2fc <__bad_interrupt>
      8e:	00 00       	nop
      90:	35 c1       	rjmp	.+618    	; 0x2fc <__bad_interrupt>
      92:	00 00       	nop
      94:	33 c1       	rjmp	.+614    	; 0x2fc <__bad_interrupt>
      96:	00 00       	nop
      98:	31 c1       	rjmp	.+610    	; 0x2fc <__bad_interrupt>
      9a:	00 00       	nop
      9c:	2f c1       	rjmp	.+606    	; 0x2fc <__bad_interrupt>
      9e:	00 00       	nop
      a0:	2d c1       	rjmp	.+602    	; 0x2fc <__bad_interrupt>
      a2:	00 00       	nop
      a4:	2b c1       	rjmp	.+598    	; 0x2fc <__bad_interrupt>
      a6:	00 00       	nop
      a8:	29 c1       	rjmp	.+594    	; 0x2fc <__bad_interrupt>
      aa:	00 00       	nop
      ac:	27 c1       	rjmp	.+590    	; 0x2fc <__bad_interrupt>
      ae:	00 00       	nop
      b0:	25 c1       	rjmp	.+586    	; 0x2fc <__bad_interrupt>
      b2:	00 00       	nop
      b4:	23 c1       	rjmp	.+582    	; 0x2fc <__bad_interrupt>
      b6:	00 00       	nop
      b8:	0a c3       	rjmp	.+1556   	; 0x6ce <__vector_46>
      ba:	00 00       	nop
      bc:	0c 94 2d 18 	jmp	0x305a	; 0x305a <__vector_47>
      c0:	1d c1       	rjmp	.+570    	; 0x2fc <__bad_interrupt>
      c2:	00 00       	nop
      c4:	1b c1       	rjmp	.+566    	; 0x2fc <__bad_interrupt>
      c6:	00 00       	nop
      c8:	19 c1       	rjmp	.+562    	; 0x2fc <__bad_interrupt>
      ca:	00 00       	nop
      cc:	17 c1       	rjmp	.+558    	; 0x2fc <__bad_interrupt>
      ce:	00 00       	nop
      d0:	15 c1       	rjmp	.+554    	; 0x2fc <__bad_interrupt>
      d2:	00 00       	nop
      d4:	13 c1       	rjmp	.+550    	; 0x2fc <__bad_interrupt>
      d6:	00 00       	nop
      d8:	11 c1       	rjmp	.+546    	; 0x2fc <__bad_interrupt>
      da:	00 00       	nop
      dc:	0f c1       	rjmp	.+542    	; 0x2fc <__bad_interrupt>
      de:	00 00       	nop
      e0:	0d c1       	rjmp	.+538    	; 0x2fc <__bad_interrupt>
      e2:	00 00       	nop
      e4:	0b c1       	rjmp	.+534    	; 0x2fc <__bad_interrupt>
      e6:	00 00       	nop
      e8:	0c 94 4c 18 	jmp	0x3098	; 0x3098 <__vector_58>
      ec:	07 c1       	rjmp	.+526    	; 0x2fc <__bad_interrupt>
      ee:	00 00       	nop
      f0:	05 c1       	rjmp	.+522    	; 0x2fc <__bad_interrupt>
      f2:	00 00       	nop
      f4:	03 c1       	rjmp	.+518    	; 0x2fc <__bad_interrupt>
      f6:	00 00       	nop
      f8:	01 c1       	rjmp	.+514    	; 0x2fc <__bad_interrupt>
      fa:	00 00       	nop
      fc:	ff c0       	rjmp	.+510    	; 0x2fc <__bad_interrupt>
      fe:	00 00       	nop
     100:	fd c0       	rjmp	.+506    	; 0x2fc <__bad_interrupt>
     102:	00 00       	nop
     104:	fb c0       	rjmp	.+502    	; 0x2fc <__bad_interrupt>
     106:	00 00       	nop
     108:	f9 c0       	rjmp	.+498    	; 0x2fc <__bad_interrupt>
     10a:	00 00       	nop
     10c:	f7 c0       	rjmp	.+494    	; 0x2fc <__bad_interrupt>
     10e:	00 00       	nop
     110:	f5 c0       	rjmp	.+490    	; 0x2fc <__bad_interrupt>
     112:	00 00       	nop
     114:	f3 c0       	rjmp	.+486    	; 0x2fc <__bad_interrupt>
     116:	00 00       	nop
     118:	f1 c0       	rjmp	.+482    	; 0x2fc <__bad_interrupt>
     11a:	00 00       	nop
     11c:	1b c1       	rjmp	.+566    	; 0x354 <__vector_71>
     11e:	00 00       	nop
     120:	56 c1       	rjmp	.+684    	; 0x3ce <__vector_72>
     122:	00 00       	nop
     124:	91 c1       	rjmp	.+802    	; 0x448 <__vector_73>
     126:	00 00       	nop
     128:	cc c1       	rjmp	.+920    	; 0x4c2 <__vector_74>
     12a:	00 00       	nop
     12c:	e7 c0       	rjmp	.+462    	; 0x2fc <__bad_interrupt>
     12e:	00 00       	nop
     130:	e5 c0       	rjmp	.+458    	; 0x2fc <__bad_interrupt>
     132:	00 00       	nop
     134:	e3 c0       	rjmp	.+454    	; 0x2fc <__bad_interrupt>
     136:	00 00       	nop
     138:	e1 c0       	rjmp	.+450    	; 0x2fc <__bad_interrupt>
     13a:	00 00       	nop
     13c:	df c0       	rjmp	.+446    	; 0x2fc <__bad_interrupt>
     13e:	00 00       	nop
     140:	dd c0       	rjmp	.+442    	; 0x2fc <__bad_interrupt>
     142:	00 00       	nop
     144:	db c0       	rjmp	.+438    	; 0x2fc <__bad_interrupt>
     146:	00 00       	nop
     148:	d9 c0       	rjmp	.+434    	; 0x2fc <__bad_interrupt>
     14a:	00 00       	nop
     14c:	d7 c0       	rjmp	.+430    	; 0x2fc <__bad_interrupt>
     14e:	00 00       	nop
     150:	d5 c0       	rjmp	.+426    	; 0x2fc <__bad_interrupt>
     152:	00 00       	nop
     154:	d3 c0       	rjmp	.+422    	; 0x2fc <__bad_interrupt>
     156:	00 00       	nop
     158:	d1 c0       	rjmp	.+418    	; 0x2fc <__bad_interrupt>
     15a:	00 00       	nop
     15c:	cf c0       	rjmp	.+414    	; 0x2fc <__bad_interrupt>
     15e:	00 00       	nop
     160:	cd c0       	rjmp	.+410    	; 0x2fc <__bad_interrupt>
     162:	00 00       	nop
     164:	cb c0       	rjmp	.+406    	; 0x2fc <__bad_interrupt>
     166:	00 00       	nop
     168:	c9 c0       	rjmp	.+402    	; 0x2fc <__bad_interrupt>
     16a:	00 00       	nop
     16c:	0c 94 86 18 	jmp	0x310c	; 0x310c <__vector_91>
     170:	c5 c0       	rjmp	.+394    	; 0x2fc <__bad_interrupt>
     172:	00 00       	nop
     174:	c3 c0       	rjmp	.+390    	; 0x2fc <__bad_interrupt>
     176:	00 00       	nop
     178:	c1 c0       	rjmp	.+386    	; 0x2fc <__bad_interrupt>
     17a:	00 00       	nop
     17c:	bf c0       	rjmp	.+382    	; 0x2fc <__bad_interrupt>
     17e:	00 00       	nop
     180:	bd c0       	rjmp	.+378    	; 0x2fc <__bad_interrupt>
     182:	00 00       	nop
     184:	bb c0       	rjmp	.+374    	; 0x2fc <__bad_interrupt>
     186:	00 00       	nop
     188:	b9 c0       	rjmp	.+370    	; 0x2fc <__bad_interrupt>
     18a:	00 00       	nop
     18c:	b7 c0       	rjmp	.+366    	; 0x2fc <__bad_interrupt>
     18e:	00 00       	nop
     190:	b5 c0       	rjmp	.+362    	; 0x2fc <__bad_interrupt>
     192:	00 00       	nop
     194:	b3 c0       	rjmp	.+358    	; 0x2fc <__bad_interrupt>
     196:	00 00       	nop
     198:	b1 c0       	rjmp	.+354    	; 0x2fc <__bad_interrupt>
     19a:	00 00       	nop
     19c:	af c0       	rjmp	.+350    	; 0x2fc <__bad_interrupt>
     19e:	00 00       	nop
     1a0:	ad c0       	rjmp	.+346    	; 0x2fc <__bad_interrupt>
     1a2:	00 00       	nop
     1a4:	ab c0       	rjmp	.+342    	; 0x2fc <__bad_interrupt>
     1a6:	00 00       	nop
     1a8:	a9 c0       	rjmp	.+338    	; 0x2fc <__bad_interrupt>
     1aa:	00 00       	nop
     1ac:	a7 c0       	rjmp	.+334    	; 0x2fc <__bad_interrupt>
     1ae:	00 00       	nop
     1b0:	a5 c0       	rjmp	.+330    	; 0x2fc <__bad_interrupt>
     1b2:	00 00       	nop
     1b4:	a3 c0       	rjmp	.+326    	; 0x2fc <__bad_interrupt>
     1b6:	00 00       	nop
     1b8:	a1 c0       	rjmp	.+322    	; 0x2fc <__bad_interrupt>
     1ba:	00 00       	nop
     1bc:	9f c0       	rjmp	.+318    	; 0x2fc <__bad_interrupt>
     1be:	00 00       	nop
     1c0:	9d c0       	rjmp	.+314    	; 0x2fc <__bad_interrupt>
     1c2:	00 00       	nop
     1c4:	9b c0       	rjmp	.+310    	; 0x2fc <__bad_interrupt>
     1c6:	00 00       	nop
     1c8:	99 c0       	rjmp	.+306    	; 0x2fc <__bad_interrupt>
     1ca:	00 00       	nop
     1cc:	97 c0       	rjmp	.+302    	; 0x2fc <__bad_interrupt>
     1ce:	00 00       	nop
     1d0:	95 c0       	rjmp	.+298    	; 0x2fc <__bad_interrupt>
     1d2:	00 00       	nop
     1d4:	93 c0       	rjmp	.+294    	; 0x2fc <__bad_interrupt>
     1d6:	00 00       	nop
     1d8:	91 c0       	rjmp	.+290    	; 0x2fc <__bad_interrupt>
     1da:	00 00       	nop
     1dc:	8f c0       	rjmp	.+286    	; 0x2fc <__bad_interrupt>
     1de:	00 00       	nop
     1e0:	8d c0       	rjmp	.+282    	; 0x2fc <__bad_interrupt>
     1e2:	00 00       	nop
     1e4:	8b c0       	rjmp	.+278    	; 0x2fc <__bad_interrupt>
     1e6:	00 00       	nop
     1e8:	89 c0       	rjmp	.+274    	; 0x2fc <__bad_interrupt>
     1ea:	00 00       	nop
     1ec:	87 c0       	rjmp	.+270    	; 0x2fc <__bad_interrupt>
     1ee:	00 00       	nop
     1f0:	85 c0       	rjmp	.+266    	; 0x2fc <__bad_interrupt>
     1f2:	00 00       	nop
     1f4:	83 c0       	rjmp	.+262    	; 0x2fc <__bad_interrupt>
     1f6:	00 00       	nop
     1f8:	81 c0       	rjmp	.+258    	; 0x2fc <__bad_interrupt>
     1fa:	00 00       	nop
     1fc:	66 17       	cp	r22, r22
     1fe:	63 17       	cp	r22, r19
     200:	60 17       	cp	r22, r16
     202:	74 17       	cp	r23, r20
     204:	5d 17       	cp	r21, r29
     206:	5b 17       	cp	r21, r27
     208:	76 17       	cp	r23, r22
     20a:	76 17       	cp	r23, r22
     20c:	76 17       	cp	r23, r22
     20e:	76 17       	cp	r23, r22
     210:	76 17       	cp	r23, r22
     212:	76 17       	cp	r23, r22
     214:	76 17       	cp	r23, r22
     216:	76 17       	cp	r23, r22
     218:	76 17       	cp	r23, r22
     21a:	76 17       	cp	r23, r22
     21c:	76 17       	cp	r23, r22
     21e:	76 17       	cp	r23, r22
     220:	6d 17       	cp	r22, r29
     222:	07 63       	ori	r16, 0x37	; 55
     224:	42 36       	cpi	r20, 0x62	; 98
     226:	b7 9b       	sbis	0x16, 7	; 22
     228:	d8 a7       	std	Y+40, r29	; 0x28
     22a:	1a 39       	cpi	r17, 0x9A	; 154
     22c:	68 56       	subi	r22, 0x68	; 104
     22e:	18 ae       	std	Y+56, r1	; 0x38
     230:	ba ab       	std	Y+50, r27	; 0x32
     232:	55 8c       	ldd	r5, Z+29	; 0x1d
     234:	1d 3c       	cpi	r17, 0xCD	; 205
     236:	b7 cc       	rjmp	.-1682   	; 0xfffffba6 <__eeprom_end+0xff7efba6>
     238:	57 63       	ori	r21, 0x37	; 55
     23a:	bd 6d       	ori	r27, 0xDD	; 221
     23c:	ed fd       	.word	0xfded	; ????
     23e:	75 3e       	cpi	r23, 0xE5	; 229
     240:	f6 17       	cp	r31, r22
     242:	72 31       	cpi	r23, 0x12	; 18
     244:	bf 00       	.word	0x00bf	; ????
     246:	00 00       	nop
     248:	80 3f       	cpi	r24, 0xF0	; 240
     24a:	08 00       	.word	0x0008	; ????
     24c:	00 00       	nop
     24e:	be 92       	st	-X, r11
     250:	24 49       	sbci	r18, 0x94	; 148
     252:	12 3e       	cpi	r17, 0xE2	; 226
     254:	ab aa       	std	Y+51, r10	; 0x33
     256:	aa 2a       	or	r10, r26
     258:	be cd       	rjmp	.-1156   	; 0xfffffdd6 <__eeprom_end+0xff7efdd6>
     25a:	cc cc       	rjmp	.-1640   	; 0xfffffbf4 <__eeprom_end+0xff7efbf4>
     25c:	4c 3e       	cpi	r20, 0xEC	; 236
     25e:	00 00       	nop
     260:	00 80       	ld	r0, Z
     262:	be ab       	std	Y+54, r27	; 0x36
     264:	aa aa       	std	Y+50, r10	; 0x32
     266:	aa 3e       	cpi	r26, 0xEA	; 234
     268:	00 00       	nop
     26a:	00 00       	nop
     26c:	bf 00       	.word	0x00bf	; ????
     26e:	00 00       	nop
     270:	80 3f       	cpi	r24, 0xF0	; 240
     272:	00 00       	nop
     274:	00 00       	nop
     276:	00 08       	sbc	r0, r0
     278:	41 78       	andi	r20, 0x81	; 129
     27a:	d3 bb       	out	0x13, r29	; 19
     27c:	43 87       	std	Z+11, r20	; 0x0b
     27e:	d1 13       	cpse	r29, r17
     280:	3d 19       	sub	r19, r13
     282:	0e 3c       	cpi	r16, 0xCE	; 206
     284:	c3 bd       	out	0x23, r28	; 35
     286:	42 82       	std	Z+2, r4	; 0x02
     288:	ad 2b       	or	r26, r29
     28a:	3e 68       	ori	r19, 0x8E	; 142
     28c:	ec 82       	std	Y+4, r14	; 0x04
     28e:	76 be       	out	0x36, r7	; 54
     290:	d9 8f       	std	Y+25, r29	; 0x19
     292:	e1 a9       	ldd	r30, Z+49	; 0x31
     294:	3e 4c       	sbci	r19, 0xCE	; 206
     296:	80 ef       	ldi	r24, 0xF0	; 240
     298:	ff be       	out	0x3f, r15	; 63
     29a:	01 c4       	rjmp	.+2050   	; 0xa9e <usart_init_rs232+0x12a>
     29c:	ff 7f       	andi	r31, 0xFF	; 255
     29e:	3f 00       	.word	0x003f	; ????
     2a0:	00 00       	nop
	...

000002a4 <__trampolines_end>:
     2a4:	63 64       	ori	r22, 0x43	; 67
     2a6:	69 6e       	ori	r22, 0xE9	; 233
     2a8:	6f 70       	andi	r22, 0x0F	; 15
     2aa:	73 75       	andi	r23, 0x53	; 83
     2ac:	78 58       	subi	r23, 0x88	; 136
     2ae:	5b 00       	.word	0x005b	; ????

000002b0 <__ctors_end>:
     2b0:	11 24       	eor	r1, r1
     2b2:	1f be       	out	0x3f, r1	; 63
     2b4:	cf ef       	ldi	r28, 0xFF	; 255
     2b6:	cd bf       	out	0x3d, r28	; 61
     2b8:	df e3       	ldi	r29, 0x3F	; 63
     2ba:	de bf       	out	0x3e, r29	; 62
     2bc:	00 e0       	ldi	r16, 0x00	; 0
     2be:	0c bf       	out	0x3c, r16	; 60
     2c0:	18 be       	out	0x38, r1	; 56
     2c2:	19 be       	out	0x39, r1	; 57
     2c4:	1a be       	out	0x3a, r1	; 58
     2c6:	1b be       	out	0x3b, r1	; 59

000002c8 <__do_copy_data>:
     2c8:	10 e2       	ldi	r17, 0x20	; 32
     2ca:	a0 e0       	ldi	r26, 0x00	; 0
     2cc:	b0 e2       	ldi	r27, 0x20	; 32
     2ce:	e8 e8       	ldi	r30, 0x88	; 136
     2d0:	ff e4       	ldi	r31, 0x4F	; 79
     2d2:	00 e0       	ldi	r16, 0x00	; 0
     2d4:	0b bf       	out	0x3b, r16	; 59
     2d6:	02 c0       	rjmp	.+4      	; 0x2dc <__do_copy_data+0x14>
     2d8:	07 90       	elpm	r0, Z+
     2da:	0d 92       	st	X+, r0
     2dc:	ae 3d       	cpi	r26, 0xDE	; 222
     2de:	b1 07       	cpc	r27, r17
     2e0:	d9 f7       	brne	.-10     	; 0x2d8 <__do_copy_data+0x10>
     2e2:	1b be       	out	0x3b, r1	; 59

000002e4 <__do_clear_bss>:
     2e4:	21 e2       	ldi	r18, 0x21	; 33
     2e6:	ae ed       	ldi	r26, 0xDE	; 222
     2e8:	b0 e2       	ldi	r27, 0x20	; 32
     2ea:	01 c0       	rjmp	.+2      	; 0x2ee <.do_clear_bss_start>

000002ec <.do_clear_bss_loop>:
     2ec:	1d 92       	st	X+, r1

000002ee <.do_clear_bss_start>:
     2ee:	ac 3f       	cpi	r26, 0xFC	; 252
     2f0:	b2 07       	cpc	r27, r18
     2f2:	e1 f7       	brne	.-8      	; 0x2ec <.do_clear_bss_loop>
     2f4:	0e 94 77 17 	call	0x2eee	; 0x2eee <main>
     2f8:	0c 94 c2 27 	jmp	0x4f84	; 0x4f84 <_exit>

000002fc <__bad_interrupt>:
     2fc:	81 ce       	rjmp	.-766    	; 0x0 <__vectors>

000002fe <_read>:
#elif (defined(__GNUC__) && (XMEGA || MEGA) )

int _read (int *f); // Remove GCC compiler warning

int _read (int *f)
{
     2fe:	cf 93       	push	r28
     300:	df 93       	push	r29
     302:	1f 92       	push	r1
     304:	cd b7       	in	r28, 0x3d	; 61
     306:	de b7       	in	r29, 0x3e	; 62
	char c;
	ptr_get(stdio_base,&c);
     308:	80 91 4b 21 	lds	r24, 0x214B	; 0x80214b <stdio_base>
     30c:	90 91 4c 21 	lds	r25, 0x214C	; 0x80214c <stdio_base+0x1>
     310:	e0 91 47 21 	lds	r30, 0x2147	; 0x802147 <ptr_get>
     314:	f0 91 48 21 	lds	r31, 0x2148	; 0x802148 <ptr_get+0x1>
     318:	be 01       	movw	r22, r28
     31a:	6f 5f       	subi	r22, 0xFF	; 255
     31c:	7f 4f       	sbci	r23, 0xFF	; 255
     31e:	19 95       	eicall
	return c;
     320:	89 81       	ldd	r24, Y+1	; 0x01
}
     322:	08 2e       	mov	r0, r24
     324:	00 0c       	add	r0, r0
     326:	99 0b       	sbc	r25, r25
     328:	0f 90       	pop	r0
     32a:	df 91       	pop	r29
     32c:	cf 91       	pop	r28
     32e:	08 95       	ret

00000330 <_write>:
#elif (defined(__GNUC__) && (XMEGA || MEGA))

int _write (char c, int *f);

int _write (char c, int *f)
{
     330:	68 2f       	mov	r22, r24
	if (ptr_put(stdio_base, c) < 0) {
     332:	80 91 4b 21 	lds	r24, 0x214B	; 0x80214b <stdio_base>
     336:	90 91 4c 21 	lds	r25, 0x214C	; 0x80214c <stdio_base+0x1>
     33a:	e0 91 49 21 	lds	r30, 0x2149	; 0x802149 <ptr_put>
     33e:	f0 91 4a 21 	lds	r31, 0x214A	; 0x80214a <ptr_put+0x1>
     342:	19 95       	eicall
     344:	99 23       	and	r25, r25
     346:	1c f0       	brlt	.+6      	; 0x34e <_write+0x1e>
		return -1;
	}
	return 1;
     348:	81 e0       	ldi	r24, 0x01	; 1
     34a:	90 e0       	ldi	r25, 0x00	; 0
     34c:	08 95       	ret
int _write (char c, int *f);

int _write (char c, int *f)
{
	if (ptr_put(stdio_base, c) < 0) {
		return -1;
     34e:	8f ef       	ldi	r24, 0xFF	; 255
     350:	9f ef       	ldi	r25, 0xFF	; 255
	}
	return 1;
}
     352:	08 95       	ret

00000354 <__vector_71>:
 *
 * Calls the callback function that has been set for the ADC when the channel's
 * interrupt flag is set, if its interrupt has been enabled.
 */
ISR(ADCA_CH0_vect)
{
     354:	1f 92       	push	r1
     356:	0f 92       	push	r0
     358:	0f b6       	in	r0, 0x3f	; 63
     35a:	0f 92       	push	r0
     35c:	11 24       	eor	r1, r1
     35e:	08 b6       	in	r0, 0x38	; 56
     360:	0f 92       	push	r0
     362:	18 be       	out	0x38, r1	; 56
     364:	09 b6       	in	r0, 0x39	; 57
     366:	0f 92       	push	r0
     368:	19 be       	out	0x39, r1	; 57
     36a:	0b b6       	in	r0, 0x3b	; 59
     36c:	0f 92       	push	r0
     36e:	1b be       	out	0x3b, r1	; 59
     370:	2f 93       	push	r18
     372:	3f 93       	push	r19
     374:	4f 93       	push	r20
     376:	5f 93       	push	r21
     378:	6f 93       	push	r22
     37a:	7f 93       	push	r23
     37c:	8f 93       	push	r24
     37e:	9f 93       	push	r25
     380:	af 93       	push	r26
     382:	bf 93       	push	r27
     384:	ef 93       	push	r30
     386:	ff 93       	push	r31
	adca_callback(&ADCA, ADC_CH0, adc_get_result(&ADCA, ADC_CH0));
     388:	40 91 24 02 	lds	r20, 0x0224	; 0x800224 <__TEXT_REGION_LENGTH__+0x700224>
     38c:	50 91 25 02 	lds	r21, 0x0225	; 0x800225 <__TEXT_REGION_LENGTH__+0x700225>
     390:	e0 91 4d 21 	lds	r30, 0x214D	; 0x80214d <adca_callback>
     394:	f0 91 4e 21 	lds	r31, 0x214E	; 0x80214e <adca_callback+0x1>
     398:	61 e0       	ldi	r22, 0x01	; 1
     39a:	80 e0       	ldi	r24, 0x00	; 0
     39c:	92 e0       	ldi	r25, 0x02	; 2
     39e:	19 95       	eicall
}
     3a0:	ff 91       	pop	r31
     3a2:	ef 91       	pop	r30
     3a4:	bf 91       	pop	r27
     3a6:	af 91       	pop	r26
     3a8:	9f 91       	pop	r25
     3aa:	8f 91       	pop	r24
     3ac:	7f 91       	pop	r23
     3ae:	6f 91       	pop	r22
     3b0:	5f 91       	pop	r21
     3b2:	4f 91       	pop	r20
     3b4:	3f 91       	pop	r19
     3b6:	2f 91       	pop	r18
     3b8:	0f 90       	pop	r0
     3ba:	0b be       	out	0x3b, r0	; 59
     3bc:	0f 90       	pop	r0
     3be:	09 be       	out	0x39, r0	; 57
     3c0:	0f 90       	pop	r0
     3c2:	08 be       	out	0x38, r0	; 56
     3c4:	0f 90       	pop	r0
     3c6:	0f be       	out	0x3f, r0	; 63
     3c8:	0f 90       	pop	r0
     3ca:	1f 90       	pop	r1
     3cc:	18 95       	reti

000003ce <__vector_72>:
 *
 * Calls the callback function that has been set for the ADC when the channel's
 * interrupt flag is set, if its interrupt has been enabled.
 */
ISR(ADCA_CH1_vect)
{
     3ce:	1f 92       	push	r1
     3d0:	0f 92       	push	r0
     3d2:	0f b6       	in	r0, 0x3f	; 63
     3d4:	0f 92       	push	r0
     3d6:	11 24       	eor	r1, r1
     3d8:	08 b6       	in	r0, 0x38	; 56
     3da:	0f 92       	push	r0
     3dc:	18 be       	out	0x38, r1	; 56
     3de:	09 b6       	in	r0, 0x39	; 57
     3e0:	0f 92       	push	r0
     3e2:	19 be       	out	0x39, r1	; 57
     3e4:	0b b6       	in	r0, 0x3b	; 59
     3e6:	0f 92       	push	r0
     3e8:	1b be       	out	0x3b, r1	; 59
     3ea:	2f 93       	push	r18
     3ec:	3f 93       	push	r19
     3ee:	4f 93       	push	r20
     3f0:	5f 93       	push	r21
     3f2:	6f 93       	push	r22
     3f4:	7f 93       	push	r23
     3f6:	8f 93       	push	r24
     3f8:	9f 93       	push	r25
     3fa:	af 93       	push	r26
     3fc:	bf 93       	push	r27
     3fe:	ef 93       	push	r30
     400:	ff 93       	push	r31
	adca_callback(&ADCA, ADC_CH1, adc_get_result(&ADCA, ADC_CH1));
     402:	40 91 2c 02 	lds	r20, 0x022C	; 0x80022c <__TEXT_REGION_LENGTH__+0x70022c>
     406:	50 91 2d 02 	lds	r21, 0x022D	; 0x80022d <__TEXT_REGION_LENGTH__+0x70022d>
     40a:	e0 91 4d 21 	lds	r30, 0x214D	; 0x80214d <adca_callback>
     40e:	f0 91 4e 21 	lds	r31, 0x214E	; 0x80214e <adca_callback+0x1>
     412:	62 e0       	ldi	r22, 0x02	; 2
     414:	80 e0       	ldi	r24, 0x00	; 0
     416:	92 e0       	ldi	r25, 0x02	; 2
     418:	19 95       	eicall
}
     41a:	ff 91       	pop	r31
     41c:	ef 91       	pop	r30
     41e:	bf 91       	pop	r27
     420:	af 91       	pop	r26
     422:	9f 91       	pop	r25
     424:	8f 91       	pop	r24
     426:	7f 91       	pop	r23
     428:	6f 91       	pop	r22
     42a:	5f 91       	pop	r21
     42c:	4f 91       	pop	r20
     42e:	3f 91       	pop	r19
     430:	2f 91       	pop	r18
     432:	0f 90       	pop	r0
     434:	0b be       	out	0x3b, r0	; 59
     436:	0f 90       	pop	r0
     438:	09 be       	out	0x39, r0	; 57
     43a:	0f 90       	pop	r0
     43c:	08 be       	out	0x38, r0	; 56
     43e:	0f 90       	pop	r0
     440:	0f be       	out	0x3f, r0	; 63
     442:	0f 90       	pop	r0
     444:	1f 90       	pop	r1
     446:	18 95       	reti

00000448 <__vector_73>:
 *
 * Calls the callback function that has been set for the ADC when the channel's
 * interrupt flag is set, if its interrupt has been enabled.
 */
ISR(ADCA_CH2_vect)
{
     448:	1f 92       	push	r1
     44a:	0f 92       	push	r0
     44c:	0f b6       	in	r0, 0x3f	; 63
     44e:	0f 92       	push	r0
     450:	11 24       	eor	r1, r1
     452:	08 b6       	in	r0, 0x38	; 56
     454:	0f 92       	push	r0
     456:	18 be       	out	0x38, r1	; 56
     458:	09 b6       	in	r0, 0x39	; 57
     45a:	0f 92       	push	r0
     45c:	19 be       	out	0x39, r1	; 57
     45e:	0b b6       	in	r0, 0x3b	; 59
     460:	0f 92       	push	r0
     462:	1b be       	out	0x3b, r1	; 59
     464:	2f 93       	push	r18
     466:	3f 93       	push	r19
     468:	4f 93       	push	r20
     46a:	5f 93       	push	r21
     46c:	6f 93       	push	r22
     46e:	7f 93       	push	r23
     470:	8f 93       	push	r24
     472:	9f 93       	push	r25
     474:	af 93       	push	r26
     476:	bf 93       	push	r27
     478:	ef 93       	push	r30
     47a:	ff 93       	push	r31
	adca_callback(&ADCA, ADC_CH2, adc_get_result(&ADCA, ADC_CH2));
     47c:	40 91 34 02 	lds	r20, 0x0234	; 0x800234 <__TEXT_REGION_LENGTH__+0x700234>
     480:	50 91 35 02 	lds	r21, 0x0235	; 0x800235 <__TEXT_REGION_LENGTH__+0x700235>
     484:	e0 91 4d 21 	lds	r30, 0x214D	; 0x80214d <adca_callback>
     488:	f0 91 4e 21 	lds	r31, 0x214E	; 0x80214e <adca_callback+0x1>
     48c:	64 e0       	ldi	r22, 0x04	; 4
     48e:	80 e0       	ldi	r24, 0x00	; 0
     490:	92 e0       	ldi	r25, 0x02	; 2
     492:	19 95       	eicall
}
     494:	ff 91       	pop	r31
     496:	ef 91       	pop	r30
     498:	bf 91       	pop	r27
     49a:	af 91       	pop	r26
     49c:	9f 91       	pop	r25
     49e:	8f 91       	pop	r24
     4a0:	7f 91       	pop	r23
     4a2:	6f 91       	pop	r22
     4a4:	5f 91       	pop	r21
     4a6:	4f 91       	pop	r20
     4a8:	3f 91       	pop	r19
     4aa:	2f 91       	pop	r18
     4ac:	0f 90       	pop	r0
     4ae:	0b be       	out	0x3b, r0	; 59
     4b0:	0f 90       	pop	r0
     4b2:	09 be       	out	0x39, r0	; 57
     4b4:	0f 90       	pop	r0
     4b6:	08 be       	out	0x38, r0	; 56
     4b8:	0f 90       	pop	r0
     4ba:	0f be       	out	0x3f, r0	; 63
     4bc:	0f 90       	pop	r0
     4be:	1f 90       	pop	r1
     4c0:	18 95       	reti

000004c2 <__vector_74>:
 *
 * Calls the callback function that has been set for the ADC when the channel's
 * interrupt flag is set, if its interrupt has been enabled.
 */
ISR(ADCA_CH3_vect)
{
     4c2:	1f 92       	push	r1
     4c4:	0f 92       	push	r0
     4c6:	0f b6       	in	r0, 0x3f	; 63
     4c8:	0f 92       	push	r0
     4ca:	11 24       	eor	r1, r1
     4cc:	08 b6       	in	r0, 0x38	; 56
     4ce:	0f 92       	push	r0
     4d0:	18 be       	out	0x38, r1	; 56
     4d2:	09 b6       	in	r0, 0x39	; 57
     4d4:	0f 92       	push	r0
     4d6:	19 be       	out	0x39, r1	; 57
     4d8:	0b b6       	in	r0, 0x3b	; 59
     4da:	0f 92       	push	r0
     4dc:	1b be       	out	0x3b, r1	; 59
     4de:	2f 93       	push	r18
     4e0:	3f 93       	push	r19
     4e2:	4f 93       	push	r20
     4e4:	5f 93       	push	r21
     4e6:	6f 93       	push	r22
     4e8:	7f 93       	push	r23
     4ea:	8f 93       	push	r24
     4ec:	9f 93       	push	r25
     4ee:	af 93       	push	r26
     4f0:	bf 93       	push	r27
     4f2:	ef 93       	push	r30
     4f4:	ff 93       	push	r31
	adca_callback(&ADCA, ADC_CH3, adc_get_result(&ADCA, ADC_CH3));
     4f6:	40 91 3c 02 	lds	r20, 0x023C	; 0x80023c <__TEXT_REGION_LENGTH__+0x70023c>
     4fa:	50 91 3d 02 	lds	r21, 0x023D	; 0x80023d <__TEXT_REGION_LENGTH__+0x70023d>
     4fe:	e0 91 4d 21 	lds	r30, 0x214D	; 0x80214d <adca_callback>
     502:	f0 91 4e 21 	lds	r31, 0x214E	; 0x80214e <adca_callback+0x1>
     506:	68 e0       	ldi	r22, 0x08	; 8
     508:	80 e0       	ldi	r24, 0x00	; 0
     50a:	92 e0       	ldi	r25, 0x02	; 2
     50c:	19 95       	eicall
}
     50e:	ff 91       	pop	r31
     510:	ef 91       	pop	r30
     512:	bf 91       	pop	r27
     514:	af 91       	pop	r26
     516:	9f 91       	pop	r25
     518:	8f 91       	pop	r24
     51a:	7f 91       	pop	r23
     51c:	6f 91       	pop	r22
     51e:	5f 91       	pop	r21
     520:	4f 91       	pop	r20
     522:	3f 91       	pop	r19
     524:	2f 91       	pop	r18
     526:	0f 90       	pop	r0
     528:	0b be       	out	0x3b, r0	; 59
     52a:	0f 90       	pop	r0
     52c:	09 be       	out	0x39, r0	; 57
     52e:	0f 90       	pop	r0
     530:	08 be       	out	0x38, r0	; 56
     532:	0f 90       	pop	r0
     534:	0f be       	out	0x3f, r0	; 63
     536:	0f 90       	pop	r0
     538:	1f 90       	pop	r1
     53a:	18 95       	reti

0000053c <twim_interrupt_handler>:
 * \brief Common TWI master interrupt service routine.
 *
 *  Check current status and calls the appropriate handler.
 */
static void twim_interrupt_handler(void)
{
     53c:	cf 93       	push	r28
     53e:	df 93       	push	r29
	uint8_t const master_status = transfer.bus->MASTER.STATUS;
     540:	e0 91 de 20 	lds	r30, 0x20DE	; 0x8020de <__data_end>
     544:	f0 91 df 20 	lds	r31, 0x20DF	; 0x8020df <__data_end+0x1>
     548:	84 81       	ldd	r24, Z+4	; 0x04

	if (master_status & TWI_MASTER_ARBLOST_bm) {
     54a:	83 ff       	sbrs	r24, 3
     54c:	08 c0       	rjmp	.+16     	; 0x55e <twim_interrupt_handler+0x22>

		transfer.bus->MASTER.STATUS = master_status | TWI_MASTER_ARBLOST_bm;
     54e:	88 60       	ori	r24, 0x08	; 8
     550:	84 83       	std	Z+4, r24	; 0x04
		transfer.bus->MASTER.CTRLC  = TWI_MASTER_CMD_STOP_gc;
     552:	83 e0       	ldi	r24, 0x03	; 3
     554:	83 83       	std	Z+3, r24	; 0x03
		transfer.status = ERR_BUSY;
     556:	86 ef       	ldi	r24, 0xF6	; 246
     558:	80 93 e8 20 	sts	0x20E8, r24	; 0x8020e8 <__data_end+0xa>
     55c:	83 c0       	rjmp	.+262    	; 0x664 <twim_interrupt_handler+0x128>

	} else if ((master_status & TWI_MASTER_BUSERR_bm) ||
     55e:	98 2f       	mov	r25, r24
     560:	94 71       	andi	r25, 0x14	; 20
     562:	31 f0       	breq	.+12     	; 0x570 <twim_interrupt_handler+0x34>
		(master_status & TWI_MASTER_RXACK_bm)) {

		transfer.bus->MASTER.CTRLC = TWI_MASTER_CMD_STOP_gc;
     564:	83 e0       	ldi	r24, 0x03	; 3
     566:	83 83       	std	Z+3, r24	; 0x03
		transfer.status = ERR_IO_ERROR;
     568:	8f ef       	ldi	r24, 0xFF	; 255
     56a:	80 93 e8 20 	sts	0x20E8, r24	; 0x8020e8 <__data_end+0xa>
     56e:	7a c0       	rjmp	.+244    	; 0x664 <twim_interrupt_handler+0x128>

	} else if (master_status & TWI_MASTER_WIF_bm) {
     570:	86 ff       	sbrs	r24, 6
     572:	43 c0       	rjmp	.+134    	; 0x5fa <twim_interrupt_handler+0xbe>
 *  Handles TWI transactions (master write) and responses to (N)ACK.
 */
static inline void twim_write_handler(void)
{
	TWI_t * const         bus = transfer.bus;
	twi_package_t * const pkg = transfer.pkg;
     574:	ce ed       	ldi	r28, 0xDE	; 222
     576:	d0 e2       	ldi	r29, 0x20	; 32
     578:	aa 81       	ldd	r26, Y+2	; 0x02
     57a:	bb 81       	ldd	r27, Y+3	; 0x03

	if (transfer.addr_count < pkg->addr_length) {
     57c:	8c 81       	ldd	r24, Y+4	; 0x04
     57e:	9d 81       	ldd	r25, Y+5	; 0x05
     580:	14 96       	adiw	r26, 0x04	; 4
     582:	2d 91       	ld	r18, X+
     584:	3c 91       	ld	r19, X
     586:	15 97       	sbiw	r26, 0x05	; 5
     588:	82 17       	cp	r24, r18
     58a:	93 07       	cpc	r25, r19
     58c:	6c f4       	brge	.+26     	; 0x5a8 <twim_interrupt_handler+0x6c>

		const uint8_t * const data = pkg->addr;
		bus->MASTER.DATA = data[transfer.addr_count++];
     58e:	9c 01       	movw	r18, r24
     590:	2f 5f       	subi	r18, 0xFF	; 255
     592:	3f 4f       	sbci	r19, 0xFF	; 255
     594:	20 93 e2 20 	sts	0x20E2, r18	; 0x8020e2 <__data_end+0x4>
     598:	30 93 e3 20 	sts	0x20E3, r19	; 0x8020e3 <__data_end+0x5>
     59c:	a8 0f       	add	r26, r24
     59e:	b9 1f       	adc	r27, r25
     5a0:	11 96       	adiw	r26, 0x01	; 1
     5a2:	8c 91       	ld	r24, X
     5a4:	87 83       	std	Z+7, r24	; 0x07
     5a6:	5e c0       	rjmp	.+188    	; 0x664 <twim_interrupt_handler+0x128>

	} else if (transfer.data_count < pkg->length) {
     5a8:	80 91 e4 20 	lds	r24, 0x20E4	; 0x8020e4 <__data_end+0x6>
     5ac:	90 91 e5 20 	lds	r25, 0x20E5	; 0x8020e5 <__data_end+0x7>
     5b0:	18 96       	adiw	r26, 0x08	; 8
     5b2:	2d 91       	ld	r18, X+
     5b4:	3c 91       	ld	r19, X
     5b6:	19 97       	sbiw	r26, 0x09	; 9
     5b8:	82 17       	cp	r24, r18
     5ba:	93 07       	cpc	r25, r19
     5bc:	c8 f4       	brcc	.+50     	; 0x5f0 <twim_interrupt_handler+0xb4>

		if (transfer.read) {
     5be:	20 91 e6 20 	lds	r18, 0x20E6	; 0x8020e6 <__data_end+0x8>
     5c2:	22 23       	and	r18, r18
     5c4:	21 f0       	breq	.+8      	; 0x5ce <twim_interrupt_handler+0x92>

			/* Send repeated START condition (Address|R/W=1). */

			bus->MASTER.ADDR |= 0x01;
     5c6:	86 81       	ldd	r24, Z+6	; 0x06
     5c8:	81 60       	ori	r24, 0x01	; 1
     5ca:	86 83       	std	Z+6, r24	; 0x06
     5cc:	4b c0       	rjmp	.+150    	; 0x664 <twim_interrupt_handler+0x128>

		} else {
			const uint8_t * const data = pkg->buffer;
     5ce:	16 96       	adiw	r26, 0x06	; 6
     5d0:	2d 91       	ld	r18, X+
     5d2:	3c 91       	ld	r19, X
     5d4:	17 97       	sbiw	r26, 0x07	; 7
			bus->MASTER.DATA = data[transfer.data_count++];
     5d6:	ac 01       	movw	r20, r24
     5d8:	4f 5f       	subi	r20, 0xFF	; 255
     5da:	5f 4f       	sbci	r21, 0xFF	; 255
     5dc:	40 93 e4 20 	sts	0x20E4, r20	; 0x8020e4 <__data_end+0x6>
     5e0:	50 93 e5 20 	sts	0x20E5, r21	; 0x8020e5 <__data_end+0x7>
     5e4:	d9 01       	movw	r26, r18
     5e6:	a8 0f       	add	r26, r24
     5e8:	b9 1f       	adc	r27, r25
     5ea:	8c 91       	ld	r24, X
     5ec:	87 83       	std	Z+7, r24	; 0x07
     5ee:	3a c0       	rjmp	.+116    	; 0x664 <twim_interrupt_handler+0x128>

	} else {

		/* Send STOP condition to complete the transaction. */

		bus->MASTER.CTRLC = TWI_MASTER_CMD_STOP_gc;
     5f0:	83 e0       	ldi	r24, 0x03	; 3
     5f2:	83 83       	std	Z+3, r24	; 0x03
		transfer.status = STATUS_OK;
     5f4:	10 92 e8 20 	sts	0x20E8, r1	; 0x8020e8 <__data_end+0xa>
     5f8:	35 c0       	rjmp	.+106    	; 0x664 <twim_interrupt_handler+0x128>

	} else if (master_status & TWI_MASTER_WIF_bm) {

		twim_write_handler();

	} else if (master_status & TWI_MASTER_RIF_bm) {
     5fa:	88 23       	and	r24, r24
     5fc:	84 f5       	brge	.+96     	; 0x65e <twim_interrupt_handler+0x122>
 *  reading bytes from the TWI slave.
 */
static inline void twim_read_handler(void)
{
	TWI_t * const         bus = transfer.bus;
	twi_package_t * const pkg = transfer.pkg;
     5fe:	ae ed       	ldi	r26, 0xDE	; 222
     600:	b0 e2       	ldi	r27, 0x20	; 32
     602:	12 96       	adiw	r26, 0x02	; 2
     604:	cd 91       	ld	r28, X+
     606:	dc 91       	ld	r29, X
     608:	13 97       	sbiw	r26, 0x03	; 3

	if (transfer.data_count < pkg->length) {
     60a:	16 96       	adiw	r26, 0x06	; 6
     60c:	8d 91       	ld	r24, X+
     60e:	9c 91       	ld	r25, X
     610:	17 97       	sbiw	r26, 0x07	; 7
     612:	28 85       	ldd	r18, Y+8	; 0x08
     614:	39 85       	ldd	r19, Y+9	; 0x09
     616:	82 17       	cp	r24, r18
     618:	93 07       	cpc	r25, r19
     61a:	d8 f4       	brcc	.+54     	; 0x652 <twim_interrupt_handler+0x116>

		uint8_t * const data = pkg->buffer;
     61c:	6e 81       	ldd	r22, Y+6	; 0x06
     61e:	7f 81       	ldd	r23, Y+7	; 0x07
		data[transfer.data_count++] = bus->MASTER.DATA;
     620:	9c 01       	movw	r18, r24
     622:	2f 5f       	subi	r18, 0xFF	; 255
     624:	3f 4f       	sbci	r19, 0xFF	; 255
     626:	20 93 e4 20 	sts	0x20E4, r18	; 0x8020e4 <__data_end+0x6>
     62a:	30 93 e5 20 	sts	0x20E5, r19	; 0x8020e5 <__data_end+0x7>
     62e:	47 81       	ldd	r20, Z+7	; 0x07
     630:	db 01       	movw	r26, r22
     632:	a8 0f       	add	r26, r24
     634:	b9 1f       	adc	r27, r25
     636:	4c 93       	st	X, r20

		/* If there is more to read, issue ACK and start a byte read.
		 * Otherwise, issue NACK and STOP to complete the transaction.
		 */
		if (transfer.data_count < pkg->length) {
     638:	88 85       	ldd	r24, Y+8	; 0x08
     63a:	99 85       	ldd	r25, Y+9	; 0x09
     63c:	28 17       	cp	r18, r24
     63e:	39 07       	cpc	r19, r25
     640:	18 f4       	brcc	.+6      	; 0x648 <twim_interrupt_handler+0x10c>

			bus->MASTER.CTRLC = TWI_MASTER_CMD_RECVTRANS_gc;
     642:	82 e0       	ldi	r24, 0x02	; 2
     644:	83 83       	std	Z+3, r24	; 0x03
     646:	0e c0       	rjmp	.+28     	; 0x664 <twim_interrupt_handler+0x128>

		} else {

			bus->MASTER.CTRLC = TWI_MASTER_ACKACT_bm | TWI_MASTER_CMD_STOP_gc;
     648:	87 e0       	ldi	r24, 0x07	; 7
     64a:	83 83       	std	Z+3, r24	; 0x03
			transfer.status = STATUS_OK;
     64c:	10 92 e8 20 	sts	0x20E8, r1	; 0x8020e8 <__data_end+0xa>
     650:	09 c0       	rjmp	.+18     	; 0x664 <twim_interrupt_handler+0x128>

	} else {

		/* Issue STOP and buffer overflow condition. */

		bus->MASTER.CTRLC = TWI_MASTER_CMD_STOP_gc;
     652:	83 e0       	ldi	r24, 0x03	; 3
     654:	83 83       	std	Z+3, r24	; 0x03
		transfer.status = ERR_NO_MEMORY;
     656:	89 ef       	ldi	r24, 0xF9	; 249
     658:	80 93 e8 20 	sts	0x20E8, r24	; 0x8020e8 <__data_end+0xa>
     65c:	03 c0       	rjmp	.+6      	; 0x664 <twim_interrupt_handler+0x128>

		twim_read_handler();

	} else {

		transfer.status = ERR_PROTOCOL;
     65e:	8b ef       	ldi	r24, 0xFB	; 251
     660:	80 93 e8 20 	sts	0x20E8, r24	; 0x8020e8 <__data_end+0xa>
	}
}
     664:	df 91       	pop	r29
     666:	cf 91       	pop	r28
     668:	08 95       	ret

0000066a <__vector_13>:
 * parameters specified in the global \c transfer structure.
 */
static void twim_interrupt_handler(void);

#ifdef TWIC
ISR(TWIC_TWIM_vect) { twim_interrupt_handler(); }
     66a:	1f 92       	push	r1
     66c:	0f 92       	push	r0
     66e:	0f b6       	in	r0, 0x3f	; 63
     670:	0f 92       	push	r0
     672:	11 24       	eor	r1, r1
     674:	08 b6       	in	r0, 0x38	; 56
     676:	0f 92       	push	r0
     678:	18 be       	out	0x38, r1	; 56
     67a:	09 b6       	in	r0, 0x39	; 57
     67c:	0f 92       	push	r0
     67e:	19 be       	out	0x39, r1	; 57
     680:	0b b6       	in	r0, 0x3b	; 59
     682:	0f 92       	push	r0
     684:	1b be       	out	0x3b, r1	; 59
     686:	2f 93       	push	r18
     688:	3f 93       	push	r19
     68a:	4f 93       	push	r20
     68c:	5f 93       	push	r21
     68e:	6f 93       	push	r22
     690:	7f 93       	push	r23
     692:	8f 93       	push	r24
     694:	9f 93       	push	r25
     696:	af 93       	push	r26
     698:	bf 93       	push	r27
     69a:	ef 93       	push	r30
     69c:	ff 93       	push	r31
     69e:	4e df       	rcall	.-356    	; 0x53c <twim_interrupt_handler>
     6a0:	ff 91       	pop	r31
     6a2:	ef 91       	pop	r30
     6a4:	bf 91       	pop	r27
     6a6:	af 91       	pop	r26
     6a8:	9f 91       	pop	r25
     6aa:	8f 91       	pop	r24
     6ac:	7f 91       	pop	r23
     6ae:	6f 91       	pop	r22
     6b0:	5f 91       	pop	r21
     6b2:	4f 91       	pop	r20
     6b4:	3f 91       	pop	r19
     6b6:	2f 91       	pop	r18
     6b8:	0f 90       	pop	r0
     6ba:	0b be       	out	0x3b, r0	; 59
     6bc:	0f 90       	pop	r0
     6be:	09 be       	out	0x39, r0	; 57
     6c0:	0f 90       	pop	r0
     6c2:	08 be       	out	0x38, r0	; 56
     6c4:	0f 90       	pop	r0
     6c6:	0f be       	out	0x3f, r0	; 63
     6c8:	0f 90       	pop	r0
     6ca:	1f 90       	pop	r1
     6cc:	18 95       	reti

000006ce <__vector_46>:
#endif
#ifdef TWID
ISR(TWID_TWIM_vect) { twim_interrupt_handler(); }
#endif
#ifdef TWIE
ISR(TWIE_TWIM_vect) { twim_interrupt_handler(); }
     6ce:	1f 92       	push	r1
     6d0:	0f 92       	push	r0
     6d2:	0f b6       	in	r0, 0x3f	; 63
     6d4:	0f 92       	push	r0
     6d6:	11 24       	eor	r1, r1
     6d8:	08 b6       	in	r0, 0x38	; 56
     6da:	0f 92       	push	r0
     6dc:	18 be       	out	0x38, r1	; 56
     6de:	09 b6       	in	r0, 0x39	; 57
     6e0:	0f 92       	push	r0
     6e2:	19 be       	out	0x39, r1	; 57
     6e4:	0b b6       	in	r0, 0x3b	; 59
     6e6:	0f 92       	push	r0
     6e8:	1b be       	out	0x3b, r1	; 59
     6ea:	2f 93       	push	r18
     6ec:	3f 93       	push	r19
     6ee:	4f 93       	push	r20
     6f0:	5f 93       	push	r21
     6f2:	6f 93       	push	r22
     6f4:	7f 93       	push	r23
     6f6:	8f 93       	push	r24
     6f8:	9f 93       	push	r25
     6fa:	af 93       	push	r26
     6fc:	bf 93       	push	r27
     6fe:	ef 93       	push	r30
     700:	ff 93       	push	r31
     702:	1c df       	rcall	.-456    	; 0x53c <twim_interrupt_handler>
     704:	ff 91       	pop	r31
     706:	ef 91       	pop	r30
     708:	bf 91       	pop	r27
     70a:	af 91       	pop	r26
     70c:	9f 91       	pop	r25
     70e:	8f 91       	pop	r24
     710:	7f 91       	pop	r23
     712:	6f 91       	pop	r22
     714:	5f 91       	pop	r21
     716:	4f 91       	pop	r20
     718:	3f 91       	pop	r19
     71a:	2f 91       	pop	r18
     71c:	0f 90       	pop	r0
     71e:	0b be       	out	0x3b, r0	; 59
     720:	0f 90       	pop	r0
     722:	09 be       	out	0x39, r0	; 57
     724:	0f 90       	pop	r0
     726:	08 be       	out	0x38, r0	; 56
     728:	0f 90       	pop	r0
     72a:	0f be       	out	0x3f, r0	; 63
     72c:	0f 90       	pop	r0
     72e:	1f 90       	pop	r1
     730:	18 95       	reti

00000732 <usart_putchar>:

	if (baud_offset != USART_BAUD_UNDEFINED) {
		(usart)->BAUDCTRLB = (uint8_t)((uint16_t)baudctrl);
		(usart)->BAUDCTRLA = (uint8_t)((uint16_t)baudctrl >> 8);
	}
}
     732:	fc 01       	movw	r30, r24
     734:	91 81       	ldd	r25, Z+1	; 0x01
     736:	95 ff       	sbrs	r25, 5
     738:	fd cf       	rjmp	.-6      	; 0x734 <usart_putchar+0x2>
     73a:	60 83       	st	Z, r22
     73c:	80 e0       	ldi	r24, 0x00	; 0
     73e:	90 e0       	ldi	r25, 0x00	; 0
     740:	08 95       	ret

00000742 <usart_getchar>:
     742:	fc 01       	movw	r30, r24
     744:	91 81       	ldd	r25, Z+1	; 0x01
     746:	99 23       	and	r25, r25
     748:	ec f7       	brge	.-6      	; 0x744 <usart_getchar+0x2>
     74a:	80 81       	ld	r24, Z
     74c:	08 95       	ret

0000074e <usart_set_baudrate>:
 * \retval true if the hardware supports the baud rate
 * \retval false if the hardware does not support the baud rate (i.e. it's
 *               either too high or too low.)
 */
bool usart_set_baudrate(USART_t *usart, uint32_t baud, uint32_t cpu_hz)
{
     74e:	4f 92       	push	r4
     750:	5f 92       	push	r5
     752:	6f 92       	push	r6
     754:	7f 92       	push	r7
     756:	8f 92       	push	r8
     758:	9f 92       	push	r9
     75a:	af 92       	push	r10
     75c:	bf 92       	push	r11
     75e:	ef 92       	push	r14
     760:	ff 92       	push	r15
     762:	0f 93       	push	r16
     764:	1f 93       	push	r17
     766:	cf 93       	push	r28
     768:	7c 01       	movw	r14, r24
     76a:	4a 01       	movw	r8, r20
     76c:	5b 01       	movw	r10, r22
     76e:	28 01       	movw	r4, r16
     770:	39 01       	movw	r6, r18
	/* 8 = (2^0) * 8 * (2^0) = (2^BSCALE_MIN) * 8 * (BSEL_MIN) */
	max_rate = cpu_hz / 8;
	/* 4194304 = (2^7) * 8 * (2^12) = (2^BSCALE_MAX) * 8 * (BSEL_MAX+1) */
	min_rate = cpu_hz / 4194304;

	if (!((usart)->CTRLB & USART_CLK2X_bm)) {
     772:	fc 01       	movw	r30, r24
     774:	84 81       	ldd	r24, Z+4	; 0x04
     776:	82 ff       	sbrs	r24, 2
     778:	16 c0       	rjmp	.+44     	; 0x7a6 <usart_set_baudrate+0x58>

	/*
	 * Check if the hardware supports the given baud rate
	 */
	/* 8 = (2^0) * 8 * (2^0) = (2^BSCALE_MIN) * 8 * (BSEL_MIN) */
	max_rate = cpu_hz / 8;
     77a:	d9 01       	movw	r26, r18
     77c:	c8 01       	movw	r24, r16
     77e:	68 94       	set
     780:	12 f8       	bld	r1, 2
     782:	b6 95       	lsr	r27
     784:	a7 95       	ror	r26
     786:	97 95       	ror	r25
     788:	87 95       	ror	r24
     78a:	16 94       	lsr	r1
     78c:	d1 f7       	brne	.-12     	; 0x782 <usart_set_baudrate+0x34>
	/* 4194304 = (2^7) * 8 * (2^12) = (2^BSCALE_MAX) * 8 * (BSEL_MAX+1) */
	min_rate = cpu_hz / 4194304;
     78e:	b9 01       	movw	r22, r18
     790:	a8 01       	movw	r20, r16
     792:	03 2e       	mov	r0, r19
     794:	36 e1       	ldi	r19, 0x16	; 22
     796:	76 95       	lsr	r23
     798:	67 95       	ror	r22
     79a:	57 95       	ror	r21
     79c:	47 95       	ror	r20
     79e:	3a 95       	dec	r19
     7a0:	d1 f7       	brne	.-12     	; 0x796 <usart_set_baudrate+0x48>
     7a2:	30 2d       	mov	r19, r0
     7a4:	15 c0       	rjmp	.+42     	; 0x7d0 <usart_set_baudrate+0x82>

	if (!((usart)->CTRLB & USART_CLK2X_bm)) {
		max_rate /= 2;
     7a6:	d9 01       	movw	r26, r18
     7a8:	c8 01       	movw	r24, r16
     7aa:	68 94       	set
     7ac:	13 f8       	bld	r1, 3
     7ae:	b6 95       	lsr	r27
     7b0:	a7 95       	ror	r26
     7b2:	97 95       	ror	r25
     7b4:	87 95       	ror	r24
     7b6:	16 94       	lsr	r1
     7b8:	d1 f7       	brne	.-12     	; 0x7ae <usart_set_baudrate+0x60>
		min_rate /= 2;
     7ba:	b9 01       	movw	r22, r18
     7bc:	a8 01       	movw	r20, r16
     7be:	03 2e       	mov	r0, r19
     7c0:	37 e1       	ldi	r19, 0x17	; 23
     7c2:	76 95       	lsr	r23
     7c4:	67 95       	ror	r22
     7c6:	57 95       	ror	r21
     7c8:	47 95       	ror	r20
     7ca:	3a 95       	dec	r19
     7cc:	d1 f7       	brne	.-12     	; 0x7c2 <usart_set_baudrate+0x74>
     7ce:	30 2d       	mov	r19, r0
	}

	if ((baud > max_rate) || (baud < min_rate)) {
     7d0:	88 15       	cp	r24, r8
     7d2:	99 05       	cpc	r25, r9
     7d4:	aa 05       	cpc	r26, r10
     7d6:	bb 05       	cpc	r27, r11
     7d8:	08 f4       	brcc	.+2      	; 0x7dc <usart_set_baudrate+0x8e>
     7da:	a6 c0       	rjmp	.+332    	; 0x928 <usart_set_baudrate+0x1da>
     7dc:	84 16       	cp	r8, r20
     7de:	95 06       	cpc	r9, r21
     7e0:	a6 06       	cpc	r10, r22
     7e2:	b7 06       	cpc	r11, r23
     7e4:	08 f4       	brcc	.+2      	; 0x7e8 <usart_set_baudrate+0x9a>
     7e6:	a2 c0       	rjmp	.+324    	; 0x92c <usart_set_baudrate+0x1de>
		return false;
	}

	/* Check if double speed is enabled. */
	if (!((usart)->CTRLB & USART_CLK2X_bm)) {
     7e8:	f7 01       	movw	r30, r14
     7ea:	84 81       	ldd	r24, Z+4	; 0x04
     7ec:	82 fd       	sbrc	r24, 2
     7ee:	04 c0       	rjmp	.+8      	; 0x7f8 <usart_set_baudrate+0xaa>
		baud *= 2;
     7f0:	88 0c       	add	r8, r8
     7f2:	99 1c       	adc	r9, r9
     7f4:	aa 1c       	adc	r10, r10
     7f6:	bb 1c       	adc	r11, r11
	}

	/* Find the lowest possible exponent. */
	limit = 0xfffU >> 4;
	ratio = cpu_hz / baud;
     7f8:	c3 01       	movw	r24, r6
     7fa:	b2 01       	movw	r22, r4
     7fc:	a5 01       	movw	r20, r10
     7fe:	94 01       	movw	r18, r8
     800:	0e 94 42 1f 	call	0x3e84	; 0x3e84 <__udivmodsi4>

	for (exp = -7; exp < 7; exp++) {
		if (ratio < limit) {
     804:	2f 3f       	cpi	r18, 0xFF	; 255
     806:	31 05       	cpc	r19, r1
     808:	41 05       	cpc	r20, r1
     80a:	51 05       	cpc	r21, r1
     80c:	08 f4       	brcc	.+2      	; 0x810 <usart_set_baudrate+0xc2>
     80e:	90 c0       	rjmp	.+288    	; 0x930 <usart_set_baudrate+0x1e2>
     810:	8f ef       	ldi	r24, 0xFF	; 255
     812:	90 e0       	ldi	r25, 0x00	; 0
     814:	a0 e0       	ldi	r26, 0x00	; 0
     816:	b0 e0       	ldi	r27, 0x00	; 0
     818:	c9 ef       	ldi	r28, 0xF9	; 249
     81a:	05 c0       	rjmp	.+10     	; 0x826 <usart_set_baudrate+0xd8>
     81c:	28 17       	cp	r18, r24
     81e:	39 07       	cpc	r19, r25
     820:	4a 07       	cpc	r20, r26
     822:	5b 07       	cpc	r21, r27
     824:	58 f0       	brcs	.+22     	; 0x83c <usart_set_baudrate+0xee>
			break;
		}

		limit <<= 1;
     826:	88 0f       	add	r24, r24
     828:	99 1f       	adc	r25, r25
     82a:	aa 1f       	adc	r26, r26
     82c:	bb 1f       	adc	r27, r27

		if (exp < -3) {
     82e:	cd 3f       	cpi	r28, 0xFD	; 253
     830:	0c f4       	brge	.+2      	; 0x834 <usart_set_baudrate+0xe6>
			limit |= 1;
     832:	81 60       	ori	r24, 0x01	; 1
     834:	cf 5f       	subi	r28, 0xFF	; 255

	/* Find the lowest possible exponent. */
	limit = 0xfffU >> 4;
	ratio = cpu_hz / baud;

	for (exp = -7; exp < 7; exp++) {
     836:	c7 30       	cpi	r28, 0x07	; 7
     838:	89 f7       	brne	.-30     	; 0x81c <usart_set_baudrate+0xce>
     83a:	4f c0       	rjmp	.+158    	; 0x8da <usart_set_baudrate+0x18c>
	 * point.
	 *
	 * The formula for calculating BSEL is slightly different when exp is
	 * negative than it is when exp is positive.
	 */
	if (exp < 0) {
     83c:	cc 23       	and	r28, r28
     83e:	0c f0       	brlt	.+2      	; 0x842 <usart_set_baudrate+0xf4>
     840:	4c c0       	rjmp	.+152    	; 0x8da <usart_set_baudrate+0x18c>
		/* We are supposed to subtract 1, then apply BSCALE. We want to
		 * apply BSCALE first, so we need to turn everything inside the
		 * parenthesis into a single fractional expression.
		 */
		cpu_hz -= 8 * baud;
     842:	d5 01       	movw	r26, r10
     844:	c4 01       	movw	r24, r8
     846:	88 0f       	add	r24, r24
     848:	99 1f       	adc	r25, r25
     84a:	aa 1f       	adc	r26, r26
     84c:	bb 1f       	adc	r27, r27
     84e:	88 0f       	add	r24, r24
     850:	99 1f       	adc	r25, r25
     852:	aa 1f       	adc	r26, r26
     854:	bb 1f       	adc	r27, r27
     856:	88 0f       	add	r24, r24
     858:	99 1f       	adc	r25, r25
     85a:	aa 1f       	adc	r26, r26
     85c:	bb 1f       	adc	r27, r27
     85e:	48 1a       	sub	r4, r24
     860:	59 0a       	sbc	r5, r25
     862:	6a 0a       	sbc	r6, r26
     864:	7b 0a       	sbc	r7, r27
		/* If we end up with a left-shift after taking the final
		 * divide-by-8 into account, do the shift before the divide.
		 * Otherwise, left-shift the denominator instead (effectively
		 * resulting in an overall right shift.)
		 */
		if (exp <= -3) {
     866:	ce 3f       	cpi	r28, 0xFE	; 254
     868:	f4 f4       	brge	.+60     	; 0x8a6 <usart_set_baudrate+0x158>
			div = ((cpu_hz << (-exp - 3)) + baud / 2) / baud;
     86a:	8d ef       	ldi	r24, 0xFD	; 253
     86c:	9f ef       	ldi	r25, 0xFF	; 255
     86e:	8c 1b       	sub	r24, r28
     870:	91 09       	sbc	r25, r1
     872:	c7 fd       	sbrc	r28, 7
     874:	93 95       	inc	r25
     876:	04 c0       	rjmp	.+8      	; 0x880 <usart_set_baudrate+0x132>
     878:	44 0c       	add	r4, r4
     87a:	55 1c       	adc	r5, r5
     87c:	66 1c       	adc	r6, r6
     87e:	77 1c       	adc	r7, r7
     880:	8a 95       	dec	r24
     882:	d2 f7       	brpl	.-12     	; 0x878 <usart_set_baudrate+0x12a>
     884:	d5 01       	movw	r26, r10
     886:	c4 01       	movw	r24, r8
     888:	b6 95       	lsr	r27
     88a:	a7 95       	ror	r26
     88c:	97 95       	ror	r25
     88e:	87 95       	ror	r24
     890:	bc 01       	movw	r22, r24
     892:	cd 01       	movw	r24, r26
     894:	64 0d       	add	r22, r4
     896:	75 1d       	adc	r23, r5
     898:	86 1d       	adc	r24, r6
     89a:	97 1d       	adc	r25, r7
     89c:	a5 01       	movw	r20, r10
     89e:	94 01       	movw	r18, r8
     8a0:	0e 94 42 1f 	call	0x3e84	; 0x3e84 <__udivmodsi4>
     8a4:	37 c0       	rjmp	.+110    	; 0x914 <usart_set_baudrate+0x1c6>
		} else {
			baud <<= exp + 3;
     8a6:	83 e0       	ldi	r24, 0x03	; 3
     8a8:	8c 0f       	add	r24, r28
     8aa:	a5 01       	movw	r20, r10
     8ac:	94 01       	movw	r18, r8
     8ae:	04 c0       	rjmp	.+8      	; 0x8b8 <usart_set_baudrate+0x16a>
     8b0:	22 0f       	add	r18, r18
     8b2:	33 1f       	adc	r19, r19
     8b4:	44 1f       	adc	r20, r20
     8b6:	55 1f       	adc	r21, r21
     8b8:	8a 95       	dec	r24
     8ba:	d2 f7       	brpl	.-12     	; 0x8b0 <usart_set_baudrate+0x162>
			div = (cpu_hz + baud / 2) / baud;
     8bc:	da 01       	movw	r26, r20
     8be:	c9 01       	movw	r24, r18
     8c0:	b6 95       	lsr	r27
     8c2:	a7 95       	ror	r26
     8c4:	97 95       	ror	r25
     8c6:	87 95       	ror	r24
     8c8:	bc 01       	movw	r22, r24
     8ca:	cd 01       	movw	r24, r26
     8cc:	64 0d       	add	r22, r4
     8ce:	75 1d       	adc	r23, r5
     8d0:	86 1d       	adc	r24, r6
     8d2:	97 1d       	adc	r25, r7
     8d4:	0e 94 42 1f 	call	0x3e84	; 0x3e84 <__udivmodsi4>
     8d8:	1d c0       	rjmp	.+58     	; 0x914 <usart_set_baudrate+0x1c6>
		}
	} else {
		/* We will always do a right shift in this case, but we need to
		 * shift three extra positions because of the divide-by-8.
		 */
		baud <<= exp + 3;
     8da:	83 e0       	ldi	r24, 0x03	; 3
     8dc:	8c 0f       	add	r24, r28
     8de:	a5 01       	movw	r20, r10
     8e0:	94 01       	movw	r18, r8
     8e2:	04 c0       	rjmp	.+8      	; 0x8ec <usart_set_baudrate+0x19e>
     8e4:	22 0f       	add	r18, r18
     8e6:	33 1f       	adc	r19, r19
     8e8:	44 1f       	adc	r20, r20
     8ea:	55 1f       	adc	r21, r21
     8ec:	8a 95       	dec	r24
     8ee:	d2 f7       	brpl	.-12     	; 0x8e4 <usart_set_baudrate+0x196>
		div = (cpu_hz + baud / 2) / baud - 1;
     8f0:	da 01       	movw	r26, r20
     8f2:	c9 01       	movw	r24, r18
     8f4:	b6 95       	lsr	r27
     8f6:	a7 95       	ror	r26
     8f8:	97 95       	ror	r25
     8fa:	87 95       	ror	r24
     8fc:	bc 01       	movw	r22, r24
     8fe:	cd 01       	movw	r24, r26
     900:	64 0d       	add	r22, r4
     902:	75 1d       	adc	r23, r5
     904:	86 1d       	adc	r24, r6
     906:	97 1d       	adc	r25, r7
     908:	0e 94 42 1f 	call	0x3e84	; 0x3e84 <__udivmodsi4>
     90c:	21 50       	subi	r18, 0x01	; 1
     90e:	31 09       	sbc	r19, r1
     910:	41 09       	sbc	r20, r1
     912:	51 09       	sbc	r21, r1
	}

	(usart)->BAUDCTRLB = (uint8_t)(((div >> 8) & 0X0F) | (exp << 4));
     914:	83 2f       	mov	r24, r19
     916:	8f 70       	andi	r24, 0x0F	; 15
     918:	c2 95       	swap	r28
     91a:	c0 7f       	andi	r28, 0xF0	; 240
     91c:	c8 2b       	or	r28, r24
     91e:	f7 01       	movw	r30, r14
     920:	c7 83       	std	Z+7, r28	; 0x07
	(usart)->BAUDCTRLA = (uint8_t)div;
     922:	26 83       	std	Z+6, r18	; 0x06

	return true;
     924:	81 e0       	ldi	r24, 0x01	; 1
     926:	18 c0       	rjmp	.+48     	; 0x958 <usart_set_baudrate+0x20a>
		max_rate /= 2;
		min_rate /= 2;
	}

	if ((baud > max_rate) || (baud < min_rate)) {
		return false;
     928:	80 e0       	ldi	r24, 0x00	; 0
     92a:	16 c0       	rjmp	.+44     	; 0x958 <usart_set_baudrate+0x20a>
     92c:	80 e0       	ldi	r24, 0x00	; 0
     92e:	14 c0       	rjmp	.+40     	; 0x958 <usart_set_baudrate+0x20a>
	if (exp < 0) {
		/* We are supposed to subtract 1, then apply BSCALE. We want to
		 * apply BSCALE first, so we need to turn everything inside the
		 * parenthesis into a single fractional expression.
		 */
		cpu_hz -= 8 * baud;
     930:	d5 01       	movw	r26, r10
     932:	c4 01       	movw	r24, r8
     934:	88 0f       	add	r24, r24
     936:	99 1f       	adc	r25, r25
     938:	aa 1f       	adc	r26, r26
     93a:	bb 1f       	adc	r27, r27
     93c:	88 0f       	add	r24, r24
     93e:	99 1f       	adc	r25, r25
     940:	aa 1f       	adc	r26, r26
     942:	bb 1f       	adc	r27, r27
     944:	88 0f       	add	r24, r24
     946:	99 1f       	adc	r25, r25
     948:	aa 1f       	adc	r26, r26
     94a:	bb 1f       	adc	r27, r27
     94c:	48 1a       	sub	r4, r24
     94e:	59 0a       	sbc	r5, r25
     950:	6a 0a       	sbc	r6, r26
     952:	7b 0a       	sbc	r7, r27

	/* Find the lowest possible exponent. */
	limit = 0xfffU >> 4;
	ratio = cpu_hz / baud;

	for (exp = -7; exp < 7; exp++) {
     954:	c9 ef       	ldi	r28, 0xF9	; 249
     956:	89 cf       	rjmp	.-238    	; 0x86a <usart_set_baudrate+0x11c>

	(usart)->BAUDCTRLB = (uint8_t)(((div >> 8) & 0X0F) | (exp << 4));
	(usart)->BAUDCTRLA = (uint8_t)div;

	return true;
}
     958:	cf 91       	pop	r28
     95a:	1f 91       	pop	r17
     95c:	0f 91       	pop	r16
     95e:	ff 90       	pop	r15
     960:	ef 90       	pop	r14
     962:	bf 90       	pop	r11
     964:	af 90       	pop	r10
     966:	9f 90       	pop	r9
     968:	8f 90       	pop	r8
     96a:	7f 90       	pop	r7
     96c:	6f 90       	pop	r6
     96e:	5f 90       	pop	r5
     970:	4f 90       	pop	r4
     972:	08 95       	ret

00000974 <usart_init_rs232>:
 *
 * \retval true if the initialization was successfull
 * \retval false if the initialization failed (error in baud rate calculation)
 */
bool usart_init_rs232(USART_t *usart, const usart_rs232_options_t *opt)
{
     974:	0f 93       	push	r16
     976:	1f 93       	push	r17
     978:	cf 93       	push	r28
     97a:	df 93       	push	r29
     97c:	ec 01       	movw	r28, r24
     97e:	8b 01       	movw	r16, r22
 *
 * \param module Pointer to the module's base address.
 */
static inline void sysclk_enable_peripheral_clock(const volatile void *module)
{
	if (module == NULL) {
     980:	00 97       	sbiw	r24, 0x00	; 0
     982:	09 f4       	brne	.+2      	; 0x986 <usart_init_rs232+0x12>
     984:	be c0       	rjmp	.+380    	; 0xb02 <usart_init_rs232+0x18e>
		Assert(false);
	}
#ifdef AES
	else if (module == &AES) {
     986:	80 3c       	cpi	r24, 0xC0	; 192
     988:	91 05       	cpc	r25, r1
     98a:	21 f4       	brne	.+8      	; 0x994 <usart_init_rs232+0x20>
		sysclk_enable_module(SYSCLK_PORT_GEN, SYSCLK_AES);
     98c:	60 e1       	ldi	r22, 0x10	; 16
     98e:	80 e0       	ldi	r24, 0x00	; 0
     990:	fb d3       	rcall	.+2038   	; 0x1188 <sysclk_enable_module>
     992:	b7 c0       	rjmp	.+366    	; 0xb02 <usart_init_rs232+0x18e>
	else if (module == &EBI) {
		sysclk_enable_module(SYSCLK_PORT_GEN, SYSCLK_EBI);
	}
#endif
#ifdef RTC
	else if (module == &RTC) {
     994:	c1 15       	cp	r28, r1
     996:	84 e0       	ldi	r24, 0x04	; 4
     998:	d8 07       	cpc	r29, r24
     99a:	21 f4       	brne	.+8      	; 0x9a4 <usart_init_rs232+0x30>
		sysclk_enable_module(SYSCLK_PORT_GEN, SYSCLK_RTC);
     99c:	64 e0       	ldi	r22, 0x04	; 4
     99e:	80 e0       	ldi	r24, 0x00	; 0
     9a0:	f3 d3       	rcall	.+2022   	; 0x1188 <sysclk_enable_module>
     9a2:	af c0       	rjmp	.+350    	; 0xb02 <usart_init_rs232+0x18e>
	}
#endif
#ifdef EVSYS
	else if (module == &EVSYS) {
     9a4:	c0 38       	cpi	r28, 0x80	; 128
     9a6:	e1 e0       	ldi	r30, 0x01	; 1
     9a8:	de 07       	cpc	r29, r30
     9aa:	21 f4       	brne	.+8      	; 0x9b4 <usart_init_rs232+0x40>
		sysclk_enable_module(SYSCLK_PORT_GEN, SYSCLK_EVSYS);
     9ac:	62 e0       	ldi	r22, 0x02	; 2
     9ae:	80 e0       	ldi	r24, 0x00	; 0
     9b0:	eb d3       	rcall	.+2006   	; 0x1188 <sysclk_enable_module>
     9b2:	a7 c0       	rjmp	.+334    	; 0xb02 <usart_init_rs232+0x18e>
	}
#endif
#ifdef DMA
	else if (module == &DMA) {
     9b4:	c1 15       	cp	r28, r1
     9b6:	f1 e0       	ldi	r31, 0x01	; 1
     9b8:	df 07       	cpc	r29, r31
		sysclk_enable_module(SYSCLK_PORT_GEN, SYSCLK_DMA);
     9ba:	21 f4       	brne	.+8      	; 0x9c4 <usart_init_rs232+0x50>
     9bc:	61 e0       	ldi	r22, 0x01	; 1
     9be:	80 e0       	ldi	r24, 0x00	; 0
     9c0:	e3 d3       	rcall	.+1990   	; 0x1188 <sysclk_enable_module>
     9c2:	9f c0       	rjmp	.+318    	; 0xb02 <usart_init_rs232+0x18e>
	else if (module == &EDMA) {
		sysclk_enable_module(SYSCLK_PORT_GEN, SYSCLK_EDMA);
	}
#endif
#ifdef ACA
	else if (module == &ACA) {
     9c4:	c0 38       	cpi	r28, 0x80	; 128
     9c6:	83 e0       	ldi	r24, 0x03	; 3
     9c8:	d8 07       	cpc	r29, r24
		sysclk_enable_module(SYSCLK_PORT_A, SYSCLK_AC);
     9ca:	21 f4       	brne	.+8      	; 0x9d4 <usart_init_rs232+0x60>
     9cc:	61 e0       	ldi	r22, 0x01	; 1
     9ce:	81 e0       	ldi	r24, 0x01	; 1
     9d0:	db d3       	rcall	.+1974   	; 0x1188 <sysclk_enable_module>
     9d2:	97 c0       	rjmp	.+302    	; 0xb02 <usart_init_rs232+0x18e>
	else if (module == &ACB) {
		sysclk_enable_module(SYSCLK_PORT_B, SYSCLK_AC);
	}
#endif
#ifdef ADCA
	else if (module == &ADCA) {
     9d4:	c1 15       	cp	r28, r1
     9d6:	e2 e0       	ldi	r30, 0x02	; 2
     9d8:	de 07       	cpc	r29, r30
		sysclk_enable_module(SYSCLK_PORT_A, SYSCLK_ADC);
     9da:	21 f4       	brne	.+8      	; 0x9e4 <usart_init_rs232+0x70>
     9dc:	62 e0       	ldi	r22, 0x02	; 2
     9de:	81 e0       	ldi	r24, 0x01	; 1
     9e0:	d3 d3       	rcall	.+1958   	; 0x1188 <sysclk_enable_module>
     9e2:	8f c0       	rjmp	.+286    	; 0xb02 <usart_init_rs232+0x18e>
	}
#endif
// Workaround for bad XMEGA D header file
#if !XMEGA_D
#ifdef DACB
	else if (module == &DACB) {
     9e4:	c0 32       	cpi	r28, 0x20	; 32
     9e6:	f3 e0       	ldi	r31, 0x03	; 3
     9e8:	df 07       	cpc	r29, r31
		sysclk_enable_module(SYSCLK_PORT_B, SYSCLK_DAC);
     9ea:	21 f4       	brne	.+8      	; 0x9f4 <usart_init_rs232+0x80>
     9ec:	64 e0       	ldi	r22, 0x04	; 4
     9ee:	82 e0       	ldi	r24, 0x02	; 2
     9f0:	cb d3       	rcall	.+1942   	; 0x1188 <sysclk_enable_module>
	}
#endif
#endif // Workaround end
#ifdef TCC0
	else if (module == &TCC0) {
     9f2:	87 c0       	rjmp	.+270    	; 0xb02 <usart_init_rs232+0x18e>
     9f4:	c1 15       	cp	r28, r1
     9f6:	88 e0       	ldi	r24, 0x08	; 8
     9f8:	d8 07       	cpc	r29, r24
		sysclk_enable_module(SYSCLK_PORT_C, SYSCLK_TC0);
     9fa:	21 f4       	brne	.+8      	; 0xa04 <usart_init_rs232+0x90>
     9fc:	61 e0       	ldi	r22, 0x01	; 1
     9fe:	83 e0       	ldi	r24, 0x03	; 3
     a00:	c3 d3       	rcall	.+1926   	; 0x1188 <sysclk_enable_module>
	}
#endif
#ifdef TCD0
	else if (module == &TCD0) {
     a02:	7f c0       	rjmp	.+254    	; 0xb02 <usart_init_rs232+0x18e>
     a04:	c1 15       	cp	r28, r1
     a06:	e9 e0       	ldi	r30, 0x09	; 9
     a08:	de 07       	cpc	r29, r30
		sysclk_enable_module(SYSCLK_PORT_D, SYSCLK_TC0);
     a0a:	21 f4       	brne	.+8      	; 0xa14 <usart_init_rs232+0xa0>
     a0c:	61 e0       	ldi	r22, 0x01	; 1
     a0e:	84 e0       	ldi	r24, 0x04	; 4
     a10:	bb d3       	rcall	.+1910   	; 0x1188 <sysclk_enable_module>
	}
#endif
#ifdef TCE0
	else if (module == &TCE0) {
     a12:	77 c0       	rjmp	.+238    	; 0xb02 <usart_init_rs232+0x18e>
     a14:	c1 15       	cp	r28, r1
     a16:	fa e0       	ldi	r31, 0x0A	; 10
     a18:	df 07       	cpc	r29, r31
		sysclk_enable_module(SYSCLK_PORT_E, SYSCLK_TC0);
     a1a:	21 f4       	brne	.+8      	; 0xa24 <usart_init_rs232+0xb0>
     a1c:	61 e0       	ldi	r22, 0x01	; 1
     a1e:	85 e0       	ldi	r24, 0x05	; 5
     a20:	b3 d3       	rcall	.+1894   	; 0x1188 <sysclk_enable_module>
	else if (module == &TCF0) {
		sysclk_enable_module(SYSCLK_PORT_F, SYSCLK_TC0);
	}
#endif
#ifdef TCC1
	else if (module == &TCC1) {
     a22:	6f c0       	rjmp	.+222    	; 0xb02 <usart_init_rs232+0x18e>
     a24:	c0 34       	cpi	r28, 0x40	; 64
     a26:	88 e0       	ldi	r24, 0x08	; 8
     a28:	d8 07       	cpc	r29, r24
		sysclk_enable_module(SYSCLK_PORT_C, SYSCLK_TC1);
     a2a:	21 f4       	brne	.+8      	; 0xa34 <usart_init_rs232+0xc0>
     a2c:	62 e0       	ldi	r22, 0x02	; 2
     a2e:	83 e0       	ldi	r24, 0x03	; 3
     a30:	ab d3       	rcall	.+1878   	; 0x1188 <sysclk_enable_module>
	}
#endif
#ifdef TCD1
	else if (module == &TCD1) {
     a32:	67 c0       	rjmp	.+206    	; 0xb02 <usart_init_rs232+0x18e>
     a34:	c0 34       	cpi	r28, 0x40	; 64
     a36:	e9 e0       	ldi	r30, 0x09	; 9
		sysclk_enable_module(SYSCLK_PORT_D, SYSCLK_TC1);
     a38:	de 07       	cpc	r29, r30
     a3a:	21 f4       	brne	.+8      	; 0xa44 <usart_init_rs232+0xd0>
     a3c:	62 e0       	ldi	r22, 0x02	; 2
     a3e:	84 e0       	ldi	r24, 0x04	; 4
     a40:	a3 d3       	rcall	.+1862   	; 0x1188 <sysclk_enable_module>
	else if (module == &TCD5) {
		sysclk_enable_module(SYSCLK_PORT_D, SYSCLK_TC5);
	}
#endif
#ifdef HIRESC
	else if (module == &HIRESC) {
     a42:	5f c0       	rjmp	.+190    	; 0xb02 <usart_init_rs232+0x18e>
     a44:	c0 39       	cpi	r28, 0x90	; 144
     a46:	f8 e0       	ldi	r31, 0x08	; 8
			sysclk_enable_module(SYSCLK_PORT_C, SYSCLK_HIRES);
     a48:	df 07       	cpc	r29, r31
     a4a:	21 f4       	brne	.+8      	; 0xa54 <usart_init_rs232+0xe0>
     a4c:	64 e0       	ldi	r22, 0x04	; 4
     a4e:	83 e0       	ldi	r24, 0x03	; 3
     a50:	9b d3       	rcall	.+1846   	; 0x1188 <sysclk_enable_module>
	}
#endif
#ifdef HIRESD
	else if (module == &HIRESD) {
     a52:	57 c0       	rjmp	.+174    	; 0xb02 <usart_init_rs232+0x18e>
     a54:	c0 39       	cpi	r28, 0x90	; 144
     a56:	89 e0       	ldi	r24, 0x09	; 9
		sysclk_enable_module(SYSCLK_PORT_D, SYSCLK_HIRES);
     a58:	d8 07       	cpc	r29, r24
     a5a:	21 f4       	brne	.+8      	; 0xa64 <usart_init_rs232+0xf0>
     a5c:	64 e0       	ldi	r22, 0x04	; 4
     a5e:	84 e0       	ldi	r24, 0x04	; 4
     a60:	93 d3       	rcall	.+1830   	; 0x1188 <sysclk_enable_module>
	}
#endif
#ifdef HIRESE
	else if (module == &HIRESE) {
     a62:	4f c0       	rjmp	.+158    	; 0xb02 <usart_init_rs232+0x18e>
     a64:	c0 39       	cpi	r28, 0x90	; 144
     a66:	ea e0       	ldi	r30, 0x0A	; 10
		sysclk_enable_module(SYSCLK_PORT_E, SYSCLK_HIRES);
     a68:	de 07       	cpc	r29, r30
     a6a:	21 f4       	brne	.+8      	; 0xa74 <usart_init_rs232+0x100>
     a6c:	64 e0       	ldi	r22, 0x04	; 4
     a6e:	85 e0       	ldi	r24, 0x05	; 5
	else if (module == &HIRESF) {
		sysclk_enable_module(SYSCLK_PORT_F, SYSCLK_HIRES);
	}
#endif
#ifdef SPIC
	else if (module == &SPIC) {
     a70:	8b d3       	rcall	.+1814   	; 0x1188 <sysclk_enable_module>
     a72:	47 c0       	rjmp	.+142    	; 0xb02 <usart_init_rs232+0x18e>
     a74:	c0 3c       	cpi	r28, 0xC0	; 192
     a76:	f8 e0       	ldi	r31, 0x08	; 8
		sysclk_enable_module(SYSCLK_PORT_C, SYSCLK_SPI);
     a78:	df 07       	cpc	r29, r31
     a7a:	21 f4       	brne	.+8      	; 0xa84 <usart_init_rs232+0x110>
     a7c:	68 e0       	ldi	r22, 0x08	; 8
     a7e:	83 e0       	ldi	r24, 0x03	; 3
	}
#endif
#ifdef SPID
	else if (module == &SPID) {
     a80:	83 d3       	rcall	.+1798   	; 0x1188 <sysclk_enable_module>
     a82:	3f c0       	rjmp	.+126    	; 0xb02 <usart_init_rs232+0x18e>
     a84:	c0 3c       	cpi	r28, 0xC0	; 192
     a86:	89 e0       	ldi	r24, 0x09	; 9
		sysclk_enable_module(SYSCLK_PORT_D, SYSCLK_SPI);
     a88:	d8 07       	cpc	r29, r24
     a8a:	21 f4       	brne	.+8      	; 0xa94 <usart_init_rs232+0x120>
     a8c:	68 e0       	ldi	r22, 0x08	; 8
     a8e:	84 e0       	ldi	r24, 0x04	; 4
	else if (module == &SPIF) {
		sysclk_enable_module(SYSCLK_PORT_F, SYSCLK_SPI);
	}
#endif
#ifdef USARTC0
	else if (module == &USARTC0) {
     a90:	7b d3       	rcall	.+1782   	; 0x1188 <sysclk_enable_module>
     a92:	37 c0       	rjmp	.+110    	; 0xb02 <usart_init_rs232+0x18e>
     a94:	c0 3a       	cpi	r28, 0xA0	; 160
     a96:	e8 e0       	ldi	r30, 0x08	; 8
		sysclk_enable_module(SYSCLK_PORT_C, SYSCLK_USART0);
     a98:	de 07       	cpc	r29, r30
     a9a:	21 f4       	brne	.+8      	; 0xaa4 <usart_init_rs232+0x130>
     a9c:	60 e1       	ldi	r22, 0x10	; 16
     a9e:	83 e0       	ldi	r24, 0x03	; 3
	}
#endif
#ifdef USARTD0
	else if (module == &USARTD0) {
     aa0:	73 d3       	rcall	.+1766   	; 0x1188 <sysclk_enable_module>
     aa2:	2f c0       	rjmp	.+94     	; 0xb02 <usart_init_rs232+0x18e>
     aa4:	c0 3a       	cpi	r28, 0xA0	; 160
     aa6:	f9 e0       	ldi	r31, 0x09	; 9
		sysclk_enable_module(SYSCLK_PORT_D, SYSCLK_USART0);
     aa8:	df 07       	cpc	r29, r31
     aaa:	21 f4       	brne	.+8      	; 0xab4 <usart_init_rs232+0x140>
     aac:	60 e1       	ldi	r22, 0x10	; 16
     aae:	84 e0       	ldi	r24, 0x04	; 4
	}
#endif
#ifdef USARTE0
	else if (module == &USARTE0) {
     ab0:	6b d3       	rcall	.+1750   	; 0x1188 <sysclk_enable_module>
     ab2:	27 c0       	rjmp	.+78     	; 0xb02 <usart_init_rs232+0x18e>
     ab4:	c0 3a       	cpi	r28, 0xA0	; 160
		sysclk_enable_module(SYSCLK_PORT_E, SYSCLK_USART0);
     ab6:	8a e0       	ldi	r24, 0x0A	; 10
     ab8:	d8 07       	cpc	r29, r24
     aba:	21 f4       	brne	.+8      	; 0xac4 <usart_init_rs232+0x150>
     abc:	60 e1       	ldi	r22, 0x10	; 16
     abe:	85 e0       	ldi	r24, 0x05	; 5
	else if (module == &USARTF0) {
		sysclk_enable_module(SYSCLK_PORT_F, SYSCLK_USART0);
	}
#endif
#ifdef USARTC1
	else if (module == &USARTC1) {
     ac0:	63 d3       	rcall	.+1734   	; 0x1188 <sysclk_enable_module>
     ac2:	1f c0       	rjmp	.+62     	; 0xb02 <usart_init_rs232+0x18e>
     ac4:	c0 3b       	cpi	r28, 0xB0	; 176
		sysclk_enable_module(SYSCLK_PORT_C, SYSCLK_USART1);
     ac6:	e8 e0       	ldi	r30, 0x08	; 8
     ac8:	de 07       	cpc	r29, r30
     aca:	21 f4       	brne	.+8      	; 0xad4 <usart_init_rs232+0x160>
     acc:	60 e2       	ldi	r22, 0x20	; 32
     ace:	83 e0       	ldi	r24, 0x03	; 3
	}
#endif
#ifdef USARTD1
	else if (module == &USARTD1) {
     ad0:	5b d3       	rcall	.+1718   	; 0x1188 <sysclk_enable_module>
     ad2:	17 c0       	rjmp	.+46     	; 0xb02 <usart_init_rs232+0x18e>
     ad4:	c0 3b       	cpi	r28, 0xB0	; 176
		sysclk_enable_module(SYSCLK_PORT_D, SYSCLK_USART1);
     ad6:	f9 e0       	ldi	r31, 0x09	; 9
     ad8:	df 07       	cpc	r29, r31
     ada:	21 f4       	brne	.+8      	; 0xae4 <usart_init_rs232+0x170>
     adc:	60 e2       	ldi	r22, 0x20	; 32
     ade:	84 e0       	ldi	r24, 0x04	; 4
	else if (module == &USARTF1) {
		sysclk_enable_module(SYSCLK_PORT_F, SYSCLK_USART1);
	}
#endif
#ifdef TWIC
	else if (module == &TWIC) {
     ae0:	53 d3       	rcall	.+1702   	; 0x1188 <sysclk_enable_module>
     ae2:	0f c0       	rjmp	.+30     	; 0xb02 <usart_init_rs232+0x18e>
     ae4:	c0 38       	cpi	r28, 0x80	; 128
     ae6:	84 e0       	ldi	r24, 0x04	; 4
		sysclk_enable_module(SYSCLK_PORT_C, SYSCLK_TWI);
     ae8:	d8 07       	cpc	r29, r24
     aea:	21 f4       	brne	.+8      	; 0xaf4 <usart_init_rs232+0x180>
     aec:	60 e4       	ldi	r22, 0x40	; 64
     aee:	83 e0       	ldi	r24, 0x03	; 3
     af0:	4b d3       	rcall	.+1686   	; 0x1188 <sysclk_enable_module>
	else if (module == &TWID) {
		sysclk_enable_module(SYSCLK_PORT_D, SYSCLK_TWI);
	}
#endif
#ifdef TWIE
	else if (module == &TWIE) {
     af2:	07 c0       	rjmp	.+14     	; 0xb02 <usart_init_rs232+0x18e>
     af4:	c0 3a       	cpi	r28, 0xA0	; 160
     af6:	e4 e0       	ldi	r30, 0x04	; 4
     af8:	de 07       	cpc	r29, r30
		sysclk_enable_module(SYSCLK_PORT_E, SYSCLK_TWI);
     afa:	19 f4       	brne	.+6      	; 0xb02 <usart_init_rs232+0x18e>
     afc:	60 e4       	ldi	r22, 0x40	; 64
     afe:	85 e0       	ldi	r24, 0x05	; 5
 * - 0x2        : IrDA mode.
 * - 0x3        : Master SPI mode.
 */
static inline void usart_set_mode(USART_t *usart, USART_CMODE_t usartmode)
{
	(usart)->CTRLC = ((usart)->CTRLC & (~USART_CMODE_gm)) | usartmode;
     b00:	43 d3       	rcall	.+1670   	; 0x1188 <sysclk_enable_module>
     b02:	8d 81       	ldd	r24, Y+5	; 0x05
     b04:	8f 73       	andi	r24, 0x3F	; 63
 *  \param twoStopBits Enable two stop bit mode. Use bool type.
 */
static inline void usart_format_set(USART_t *usart, USART_CHSIZE_t charSize,
		USART_PMODE_t parityMode, bool twoStopBits)
{
	(usart)->CTRLC = (uint8_t)charSize | parityMode
     b06:	8d 83       	std	Y+5, r24	; 0x05
     b08:	f8 01       	movw	r30, r16
     b0a:	95 81       	ldd	r25, Z+5	; 0x05
     b0c:	84 81       	ldd	r24, Z+4	; 0x04
     b0e:	89 2b       	or	r24, r25
     b10:	96 81       	ldd	r25, Z+6	; 0x06
     b12:	91 11       	cpse	r25, r1
     b14:	98 e0       	ldi	r25, 0x08	; 8
     b16:	89 2b       	or	r24, r25
	bool result;
	sysclk_enable_peripheral_clock(usart);
	usart_set_mode(usart, USART_CMODE_ASYNCHRONOUS_gc);
	usart_format_set(usart, opt->charlength, opt->paritytype,
			opt->stopbits);
	result = usart_set_baudrate(usart, opt->baudrate, sysclk_get_per_hz());
     b18:	8d 83       	std	Y+5, r24	; 0x05
     b1a:	f8 01       	movw	r30, r16
     b1c:	40 81       	ld	r20, Z
     b1e:	51 81       	ldd	r21, Z+1	; 0x01
     b20:	62 81       	ldd	r22, Z+2	; 0x02
     b22:	73 81       	ldd	r23, Z+3	; 0x03
     b24:	00 e0       	ldi	r16, 0x00	; 0
     b26:	18 e4       	ldi	r17, 0x48	; 72
     b28:	28 ee       	ldi	r18, 0xE8	; 232
     b2a:	31 e0       	ldi	r19, 0x01	; 1
     b2c:	ce 01       	movw	r24, r28
     b2e:	0f de       	rcall	.-994    	; 0x74e <usart_set_baudrate>
 *
 * \param usart Pointer to the USART module.
 */
static inline void usart_tx_enable(USART_t *usart)
{
	(usart)->CTRLB |= USART_TXEN_bm;
     b30:	9c 81       	ldd	r25, Y+4	; 0x04
     b32:	98 60       	ori	r25, 0x08	; 8
     b34:	9c 83       	std	Y+4, r25	; 0x04
 *
 * \param usart Pointer to the USART module
 */
static inline void usart_rx_enable(USART_t *usart)
{
	(usart)->CTRLB |= USART_RXEN_bm;
     b36:	9c 81       	ldd	r25, Y+4	; 0x04
     b38:	90 61       	ori	r25, 0x10	; 16
     b3a:	9c 83       	std	Y+4, r25	; 0x04
	usart_tx_enable(usart);
	usart_rx_enable(usart);
	
	return result;
}
     b3c:	df 91       	pop	r29
     b3e:	cf 91       	pop	r28
     b40:	1f 91       	pop	r17
     b42:	0f 91       	pop	r16
     b44:	08 95       	ret

00000b46 <hall_sensor_init>:
 */ 

#include <asf.h>
#include "hall.h"

void hall_sensor_init(void){
     b46:	08 95       	ret

00000b48 <imu_roll>:



double imu_roll()
{
	return bno055_euler.r;
     b48:	60 91 6e 21 	lds	r22, 0x216E	; 0x80216e <bno055_euler+0x4>
     b4c:	70 91 6f 21 	lds	r23, 0x216F	; 0x80216f <bno055_euler+0x5>
     b50:	80 91 70 21 	lds	r24, 0x2170	; 0x802170 <bno055_euler+0x6>
     b54:	90 91 71 21 	lds	r25, 0x2171	; 0x802171 <bno055_euler+0x7>
}
     b58:	08 95       	ret

00000b5a <imu_pitch>:

double imu_pitch()
{
	return bno055_euler.p;
     b5a:	60 91 72 21 	lds	r22, 0x2172	; 0x802172 <bno055_euler+0x8>
     b5e:	70 91 73 21 	lds	r23, 0x2173	; 0x802173 <bno055_euler+0x9>
     b62:	80 91 74 21 	lds	r24, 0x2174	; 0x802174 <bno055_euler+0xa>
     b66:	90 91 75 21 	lds	r25, 0x2175	; 0x802175 <bno055_euler+0xb>
}
     b6a:	08 95       	ret

00000b6c <imu_heading>:

double imu_heading()
{
	return bno055_euler.h;
     b6c:	60 91 6a 21 	lds	r22, 0x216A	; 0x80216a <bno055_euler>
     b70:	70 91 6b 21 	lds	r23, 0x216B	; 0x80216b <bno055_euler+0x1>
     b74:	80 91 6c 21 	lds	r24, 0x216C	; 0x80216c <bno055_euler+0x2>
     b78:	90 91 6d 21 	lds	r25, 0x216D	; 0x80216d <bno055_euler+0x3>
}
     b7c:	08 95       	ret

00000b7e <cam_switch>:
	PORTA.DIR |= PIN3_bm; // Sets A3 to output
	cam_switch();
}

void cam_switch(void){
	PORTA.OUT ^= PIN3_bm; // Changes A3 from high to low or vice-versa
     b7e:	e0 e0       	ldi	r30, 0x00	; 0
     b80:	f6 e0       	ldi	r31, 0x06	; 6
     b82:	94 81       	ldd	r25, Z+4	; 0x04
     b84:	88 e0       	ldi	r24, 0x08	; 8
     b86:	89 27       	eor	r24, r25
     b88:	84 83       	std	Z+4, r24	; 0x04
     b8a:	08 95       	ret

00000b8c <cam_init>:

#include "spy_cam.h"
#include <asf.h>

void cam_init(void){
	PORTA.DIR |= PIN3_bm; // Sets A3 to output
     b8c:	e0 e0       	ldi	r30, 0x00	; 0
     b8e:	f6 e0       	ldi	r31, 0x06	; 6
     b90:	80 81       	ld	r24, Z
     b92:	88 60       	ori	r24, 0x08	; 8
     b94:	80 83       	st	Z, r24
	cam_switch();
     b96:	f3 cf       	rjmp	.-26     	; 0xb7e <cam_switch>
     b98:	08 95       	ret

00000b9a <thermistor_init>:

#include <asf.h>
#include "thermistor.h"

void thermistor_init(void)
{
     b9a:	ff 92       	push	r15
     b9c:	0f 93       	push	r16
     b9e:	1f 93       	push	r17
     ba0:	cf 93       	push	r28
     ba2:	df 93       	push	r29
		sysclk_enable_module(SYSCLK_PORT_B, SYSCLK_AC);
	}
#endif
#ifdef ADCA
	else if (module == &ADCA) {
		sysclk_enable_module(SYSCLK_PORT_A, SYSCLK_ADC);
     ba4:	62 e0       	ldi	r22, 0x02	; 2
     ba6:	81 e0       	ldi	r24, 0x01	; 1
     ba8:	ef d2       	rcall	.+1502   	; 0x1188 <sysclk_enable_module>
	sysclk_enable_peripheral_clock(&THERMISTOR_SERIAL);
	THERMISTOR_SERIAL.CTRLA = 0x01; // enable the ADC
     baa:	c0 e0       	ldi	r28, 0x00	; 0
     bac:	d2 e0       	ldi	r29, 0x02	; 2
     bae:	ff 24       	eor	r15, r15
     bb0:	f3 94       	inc	r15
     bb2:	f8 82       	st	Y, r15
	THERMISTOR_SERIAL.CTRLB = 0x00; // unsigned 12 bit mode
     bb4:	19 82       	std	Y+1, r1	; 0x01
	THERMISTOR_SERIAL.REFCTRL = 0x10; // voltage Reference of Vcc/1.6V
     bb6:	80 e1       	ldi	r24, 0x10	; 16
     bb8:	8a 83       	std	Y+2, r24	; 0x02
	THERMISTOR_SERIAL.PRESCALER = 0x05; // prescaler of DIV128 on the clock
     bba:	85 e0       	ldi	r24, 0x05	; 5
     bbc:	8c 83       	std	Y+4, r24	; 0x04
 *
 * \param address Byte offset into the signature row
 */
static inline uint8_t nvm_read_production_signature_row(uint8_t address)
{
	return nvm_read_byte(NVM_CMD_READ_CALIB_ROW_gc, address);
     bbe:	61 e2       	ldi	r22, 0x21	; 33
     bc0:	70 e0       	ldi	r23, 0x00	; 0
     bc2:	82 e0       	ldi	r24, 0x02	; 2
     bc4:	f7 d2       	rcall	.+1518   	; 0x11b4 <nvm_read_byte>
	uint16_t data;

	switch (cal) {
#ifdef ADCA
	case ADC_CAL_ADCA:
		data = nvm_read_production_signature_row(ADCACAL1);
     bc6:	08 2f       	mov	r16, r24
     bc8:	10 e0       	ldi	r17, 0x00	; 0
		data <<= 8;
     bca:	10 2f       	mov	r17, r16
     bcc:	00 27       	eor	r16, r16
     bce:	60 e2       	ldi	r22, 0x20	; 32
     bd0:	70 e0       	ldi	r23, 0x00	; 0
     bd2:	82 e0       	ldi	r24, 0x02	; 2
     bd4:	ef d2       	rcall	.+1502   	; 0x11b4 <nvm_read_byte>
		data |= nvm_read_production_signature_row(ADCACAL0);
     bd6:	08 2b       	or	r16, r24
	THERMISTOR_SERIAL.CAL = adc_get_calibration_data(ADC_CAL_ADCA); // retrieve stored calibration data about the ADC
     bd8:	0c 87       	std	Y+12, r16	; 0x0c
     bda:	1d 87       	std	Y+13, r17	; 0x0d
	
	THERMISTOR_SERIAL.THERMISTOR_CHANNEL.CTRL = 0x01; // single ended input
     bdc:	f8 a2       	std	Y+32, r15	; 0x20
	THERMISTOR_SERIAL.THERMISTOR_CHANNEL.MUXCTRL = THERMISTOR_PIN; // reading ADCA pin 0	
     bde:	19 a2       	std	Y+33, r1	; 0x21
}
     be0:	df 91       	pop	r29
     be2:	cf 91       	pop	r28
     be4:	1f 91       	pop	r17
     be6:	0f 91       	pop	r16
     be8:	ff 90       	pop	r15
     bea:	08 95       	ret

00000bec <gps_uart_init>:

#include <asf.h>
#include <string.h>
#include "mt3339.h"

void gps_uart_init(void){
     bec:	cf 93       	push	r28
     bee:	df 93       	push	r29
     bf0:	cd b7       	in	r28, 0x3d	; 61
     bf2:	de b7       	in	r29, 0x3e	; 62
     bf4:	27 97       	sbiw	r28, 0x07	; 7
     bf6:	cd bf       	out	0x3d, r28	; 61
     bf8:	de bf       	out	0x3e, r29	; 62
		sysclk_enable_module(SYSCLK_PORT_C, SYSCLK_USART1);
	}
#endif
#ifdef USARTD1
	else if (module == &USARTD1) {
		sysclk_enable_module(SYSCLK_PORT_D, SYSCLK_USART1);
     bfa:	60 e2       	ldi	r22, 0x20	; 32
     bfc:	84 e0       	ldi	r24, 0x04	; 4
     bfe:	c4 d2       	rcall	.+1416   	; 0x1188 <sysclk_enable_module>
		.charlength =	GPS_TERMINAL_SERIAL_CHAR_LEN,
		.paritytype =	GPS_TERMINAL_SERIAL_PARITY,
		.stopbits	=	GPS_TERMINAL_SERIAL_STOP_BIT
	};
	
	GPS_TERMINAL_PORT.DIR |= GPS_TERMINAL_TX_PIN; // Puts pin to output
     c00:	e0 e6       	ldi	r30, 0x60	; 96
     c02:	f6 e0       	ldi	r31, 0x06	; 6
     c04:	80 81       	ld	r24, Z
     c06:	80 68       	ori	r24, 0x80	; 128
     c08:	80 83       	st	Z, r24
static inline bool usart_serial_init(usart_if usart, const
		usart_serial_options_t *options)
{
	// USART options.
	usart_rs232_options_t usart_rs232_options;
	usart_rs232_options.charlength   = options->charlength;
     c0a:	e6 e0       	ldi	r30, 0x06	; 6
     c0c:	f0 e2       	ldi	r31, 0x20	; 32
     c0e:	84 81       	ldd	r24, Z+4	; 0x04
     c10:	8d 83       	std	Y+5, r24	; 0x05
	usart_rs232_options.paritytype   = options->paritytype;
     c12:	85 81       	ldd	r24, Z+5	; 0x05
     c14:	8e 83       	std	Y+6, r24	; 0x06
	usart_rs232_options.stopbits     = options->stopbits;
     c16:	86 81       	ldd	r24, Z+6	; 0x06
     c18:	8f 83       	std	Y+7, r24	; 0x07
	usart_rs232_options.baudrate     = options->baudrate;
     c1a:	80 81       	ld	r24, Z
     c1c:	91 81       	ldd	r25, Z+1	; 0x01
     c1e:	a2 81       	ldd	r26, Z+2	; 0x02
     c20:	b3 81       	ldd	r27, Z+3	; 0x03
     c22:	89 83       	std	Y+1, r24	; 0x01
     c24:	9a 83       	std	Y+2, r25	; 0x02
     c26:	ab 83       	std	Y+3, r26	; 0x03
     c28:	bc 83       	std	Y+4, r27	; 0x04
		sysclk_enable_module(SYSCLK_PORT_D,PR_USART0_bm);
	}
#endif
#ifdef USARTD1
	if((uint16_t)usart == (uint16_t)&USARTD1) {
		sysclk_enable_module(SYSCLK_PORT_D,PR_USART1_bm);
     c2a:	60 e2       	ldi	r22, 0x20	; 32
     c2c:	84 e0       	ldi	r24, 0x04	; 4
     c2e:	ac d2       	rcall	.+1368   	; 0x1188 <sysclk_enable_module>
#ifdef USARTF1
	if((uint16_t)usart == (uint16_t)&USARTF1) {
		sysclk_enable_module(SYSCLK_PORT_F,PR_USART1_bm);
	}
#endif
	if (usart_init_rs232(usart, &usart_rs232_options)) {
     c30:	be 01       	movw	r22, r28
     c32:	6f 5f       	subi	r22, 0xFF	; 255
     c34:	7f 4f       	sbci	r23, 0xFF	; 255
     c36:	80 eb       	ldi	r24, 0xB0	; 176
     c38:	99 e0       	ldi	r25, 0x09	; 9
     c3a:	9c de       	rcall	.-712    	; 0x974 <usart_init_rs232>
	
	usart_serial_init(GPS_TERMINAL_SERIAL,&gps_config);
}
     c3c:	27 96       	adiw	r28, 0x07	; 7
     c3e:	cd bf       	out	0x3d, r28	; 61
     c40:	de bf       	out	0x3e, r29	; 62
     c42:	df 91       	pop	r29
     c44:	cf 91       	pop	r28
     c46:	08 95       	ret

00000c48 <__portable_avr_delay_cycles>:
 *
 * @{
 */
__always_optimize
static inline void __portable_avr_delay_cycles(unsigned long n)
{
     c48:	04 c0       	rjmp	.+8      	; 0xc52 <__portable_avr_delay_cycles+0xa>
	while (n) {
		barrier();
		n--;
     c4a:	61 50       	subi	r22, 0x01	; 1
     c4c:	71 09       	sbc	r23, r1
     c4e:	81 09       	sbc	r24, r1
     c50:	91 09       	sbc	r25, r1
 * @{
 */
__always_optimize
static inline void __portable_avr_delay_cycles(unsigned long n)
{
	while (n) {
     c52:	61 15       	cp	r22, r1
     c54:	71 05       	cpc	r23, r1
     c56:	81 05       	cpc	r24, r1
     c58:	91 05       	cpc	r25, r1
     c5a:	b9 f7       	brne	.-18     	; 0xc4a <__portable_avr_delay_cycles+0x2>
     c5c:	08 95       	ret

00000c5e <flip_ms5607>:
	
	return rx_data;
}

void flip_ms5607(void){
	MS5607_PORT.OUT ^= MS5607_PIN;
     c5e:	e0 e4       	ldi	r30, 0x40	; 64
     c60:	f6 e0       	ldi	r31, 0x06	; 6
     c62:	94 81       	ldd	r25, Z+4	; 0x04
     c64:	80 e1       	ldi	r24, 0x10	; 16
     c66:	89 27       	eor	r24, r25
     c68:	84 83       	std	Z+4, r24	; 0x04
     c6a:	08 95       	ret

00000c6c <ms5607_init>:
#include <asf.h>
#include "ms5607.h"
#include "spi_controller.h"

void ms5607_init(void){
	PORTC.OUT |= 0x10; // makes the 4th pin on Port C be set on high (0b00010000)
     c6c:	e0 e4       	ldi	r30, 0x40	; 64
     c6e:	f6 e0       	ldi	r31, 0x06	; 6
     c70:	84 81       	ldd	r24, Z+4	; 0x04
     c72:	80 61       	ori	r24, 0x10	; 16
     c74:	84 83       	std	Z+4, r24	; 0x04
	
	// Resets the ms5607
	flip_ms5607();
     c76:	f3 df       	rcall	.-26     	; 0xc5e <flip_ms5607>
	spi_write(CMD_MS5607_RESET);
     c78:	8e e1       	ldi	r24, 0x1E	; 30
     c7a:	b9 d0       	rcall	.+370    	; 0xdee <spi_write>
	delay_ms(3);
     c7c:	60 e8       	ldi	r22, 0x80	; 128
     c7e:	7e e3       	ldi	r23, 0x3E	; 62
     c80:	80 e0       	ldi	r24, 0x00	; 0
     c82:	90 e0       	ldi	r25, 0x00	; 0
	flip_ms5607();
     c84:	e1 df       	rcall	.-62     	; 0xc48 <__portable_avr_delay_cycles>
     c86:	eb df       	rcall	.-42     	; 0xc5e <flip_ms5607>
	delay_ms(2);
     c88:	6b ea       	ldi	r22, 0xAB	; 171
     c8a:	79 e2       	ldi	r23, 0x29	; 41
     c8c:	80 e0       	ldi	r24, 0x00	; 0
     c8e:	90 e0       	ldi	r25, 0x00	; 0
     c90:	db cf       	rjmp	.-74     	; 0xc48 <__portable_avr_delay_cycles>
     c92:	08 95       	ret

00000c94 <ms5607_read>:
}

uint16_t ms5607_read(uint16_t comm)
{
     c94:	cf 93       	push	r28
     c96:	df 93       	push	r29
     c98:	c8 2f       	mov	r28, r24
	uint16_t rx_data = 0; // temporary 16-bit value
	flip_ms5607(); // select our spi device
     c9a:	e1 df       	rcall	.-62     	; 0xc5e <flip_ms5607>
	spi_write(comm); // write a specified command to ask for data
     c9c:	8c 2f       	mov	r24, r28
	
	/*typecast this expression from an 8-bit to a 16-bit and shift it 8 bits to the left
	  meaning the returned value is now in the upper 8 bits rx_data*/
	rx_data = (uint16_t)spi_read()<<8; 
     c9e:	a7 d0       	rcall	.+334    	; 0xdee <spi_write>
     ca0:	97 d0       	rcall	.+302    	; 0xdd0 <spi_read>
     ca2:	c8 2f       	mov	r28, r24
     ca4:	d0 e0       	ldi	r29, 0x00	; 0
     ca6:	dc 2f       	mov	r29, r28
	
	// OR the second byte with the 16-bit variable, the returned value is now in the lower 8 bits of 'rx_data'
	rx_data |= spi_read(); 
     ca8:	cc 27       	eor	r28, r28
     caa:	92 d0       	rcall	.+292    	; 0xdd0 <spi_read>
     cac:	c8 2b       	or	r28, r24
	
	flip_ms5607(); // end spi exchange
     cae:	d7 df       	rcall	.-82     	; 0xc5e <flip_ms5607>
     cb0:	ce 01       	movw	r24, r28
	
	return rx_data; // return the 16-bit value
}
     cb2:	df 91       	pop	r29
     cb4:	cf 91       	pop	r28
     cb6:	08 95       	ret

00000cb8 <ms5607_convert_d1>:
     cb8:	cf 93       	push	r28

uint32_t ms5607_convert_d1(void)
{
     cba:	df 93       	push	r29
     cbc:	00 d0       	rcall	.+0      	; 0xcbe <ms5607_convert_d1+0x6>
     cbe:	1f 92       	push	r1
     cc0:	cd b7       	in	r28, 0x3d	; 61
     cc2:	de b7       	in	r29, 0x3e	; 62
	volatile uint32_t rx_data = 0; // temporary 16-bit value
     cc4:	19 82       	std	Y+1, r1	; 0x01
     cc6:	1a 82       	std	Y+2, r1	; 0x02
     cc8:	1b 82       	std	Y+3, r1	; 0x03
     cca:	1c 82       	std	Y+4, r1	; 0x04
	// CONVERT D1
	flip_ms5607(); // select our spi device
     ccc:	c8 df       	rcall	.-112    	; 0xc5e <flip_ms5607>
	spi_write(CMD_MS5607_D1_4096); // write a specified command to ask for data
     cce:	88 e4       	ldi	r24, 0x48	; 72
     cd0:	8e d0       	rcall	.+284    	; 0xdee <spi_write>
	delay_ms(10);
     cd2:	66 e5       	ldi	r22, 0x56	; 86
     cd4:	70 ed       	ldi	r23, 0xD0	; 208
     cd6:	80 e0       	ldi	r24, 0x00	; 0
     cd8:	90 e0       	ldi	r25, 0x00	; 0
	flip_ms5607();
     cda:	b6 df       	rcall	.-148    	; 0xc48 <__portable_avr_delay_cycles>
	
	flip_ms5607();
     cdc:	c0 df       	rcall	.-128    	; 0xc5e <flip_ms5607>
     cde:	bf df       	rcall	.-130    	; 0xc5e <flip_ms5607>
	spi_write(CMD_MS5607_READ_ADC);
     ce0:	80 e0       	ldi	r24, 0x00	; 0
     ce2:	85 d0       	rcall	.+266    	; 0xdee <spi_write>
     ce4:	75 d0       	rcall	.+234    	; 0xdd0 <spi_read>
	rx_data  = (uint32_t) spi_read()<<16;
     ce6:	90 e0       	ldi	r25, 0x00	; 0
     ce8:	a0 e0       	ldi	r26, 0x00	; 0
     cea:	b0 e0       	ldi	r27, 0x00	; 0
     cec:	dc 01       	movw	r26, r24
     cee:	99 27       	eor	r25, r25
     cf0:	88 27       	eor	r24, r24
     cf2:	89 83       	std	Y+1, r24	; 0x01
     cf4:	9a 83       	std	Y+2, r25	; 0x02
     cf6:	ab 83       	std	Y+3, r26	; 0x03
     cf8:	bc 83       	std	Y+4, r27	; 0x04
     cfa:	6a d0       	rcall	.+212    	; 0xdd0 <spi_read>
	rx_data |= (uint32_t) spi_read()<<8;
     cfc:	49 81       	ldd	r20, Y+1	; 0x01
     cfe:	5a 81       	ldd	r21, Y+2	; 0x02
     d00:	6b 81       	ldd	r22, Y+3	; 0x03
     d02:	7c 81       	ldd	r23, Y+4	; 0x04
     d04:	58 2b       	or	r21, r24
     d06:	49 83       	std	Y+1, r20	; 0x01
     d08:	5a 83       	std	Y+2, r21	; 0x02
     d0a:	6b 83       	std	Y+3, r22	; 0x03
     d0c:	7c 83       	std	Y+4, r23	; 0x04
     d0e:	60 d0       	rcall	.+192    	; 0xdd0 <spi_read>
	rx_data |= spi_read();
     d10:	49 81       	ldd	r20, Y+1	; 0x01
     d12:	5a 81       	ldd	r21, Y+2	; 0x02
     d14:	6b 81       	ldd	r22, Y+3	; 0x03
     d16:	7c 81       	ldd	r23, Y+4	; 0x04
     d18:	48 2b       	or	r20, r24
     d1a:	49 83       	std	Y+1, r20	; 0x01
     d1c:	5a 83       	std	Y+2, r21	; 0x02
     d1e:	6b 83       	std	Y+3, r22	; 0x03
     d20:	7c 83       	std	Y+4, r23	; 0x04
     d22:	9d df       	rcall	.-198    	; 0xc5e <flip_ms5607>
	flip_ms5607();
     d24:	69 81       	ldd	r22, Y+1	; 0x01
     d26:	7a 81       	ldd	r23, Y+2	; 0x02
	
	return rx_data;
     d28:	8b 81       	ldd	r24, Y+3	; 0x03
     d2a:	9c 81       	ldd	r25, Y+4	; 0x04
     d2c:	24 96       	adiw	r28, 0x04	; 4
     d2e:	cd bf       	out	0x3d, r28	; 61
}
     d30:	de bf       	out	0x3e, r29	; 62
     d32:	df 91       	pop	r29
     d34:	cf 91       	pop	r28
     d36:	08 95       	ret

00000d38 <ms5607_convert_d2>:
     d38:	cf 93       	push	r28
     d3a:	df 93       	push	r29

uint32_t ms5607_convert_d2(void)
{
     d3c:	00 d0       	rcall	.+0      	; 0xd3e <ms5607_convert_d2+0x6>
     d3e:	1f 92       	push	r1
     d40:	cd b7       	in	r28, 0x3d	; 61
     d42:	de b7       	in	r29, 0x3e	; 62
	volatile uint32_t rx_data = 0; // temporary 16-bit value
     d44:	19 82       	std	Y+1, r1	; 0x01
     d46:	1a 82       	std	Y+2, r1	; 0x02
     d48:	1b 82       	std	Y+3, r1	; 0x03
     d4a:	1c 82       	std	Y+4, r1	; 0x04
	// CONVERT D2
	flip_ms5607(); // select our spi device
     d4c:	88 df       	rcall	.-240    	; 0xc5e <flip_ms5607>
	spi_write(CMD_MS5607_D2_4096); // write a specified command to ask for data
     d4e:	88 e5       	ldi	r24, 0x58	; 88
     d50:	4e d0       	rcall	.+156    	; 0xdee <spi_write>
	delay_ms(10);
     d52:	66 e5       	ldi	r22, 0x56	; 86
     d54:	70 ed       	ldi	r23, 0xD0	; 208
     d56:	80 e0       	ldi	r24, 0x00	; 0
     d58:	90 e0       	ldi	r25, 0x00	; 0
	flip_ms5607();
     d5a:	76 df       	rcall	.-276    	; 0xc48 <__portable_avr_delay_cycles>
	
	flip_ms5607();
     d5c:	80 df       	rcall	.-256    	; 0xc5e <flip_ms5607>
     d5e:	7f df       	rcall	.-258    	; 0xc5e <flip_ms5607>
	spi_write(CMD_MS5607_READ_ADC);
     d60:	80 e0       	ldi	r24, 0x00	; 0
     d62:	45 d0       	rcall	.+138    	; 0xdee <spi_write>
     d64:	35 d0       	rcall	.+106    	; 0xdd0 <spi_read>
	rx_data  = (uint32_t) spi_read()<<16;
     d66:	90 e0       	ldi	r25, 0x00	; 0
     d68:	a0 e0       	ldi	r26, 0x00	; 0
     d6a:	b0 e0       	ldi	r27, 0x00	; 0
     d6c:	dc 01       	movw	r26, r24
     d6e:	99 27       	eor	r25, r25
     d70:	88 27       	eor	r24, r24
     d72:	89 83       	std	Y+1, r24	; 0x01
     d74:	9a 83       	std	Y+2, r25	; 0x02
     d76:	ab 83       	std	Y+3, r26	; 0x03
     d78:	bc 83       	std	Y+4, r27	; 0x04
     d7a:	2a d0       	rcall	.+84     	; 0xdd0 <spi_read>
	rx_data |= (uint32_t) spi_read()<<8;
     d7c:	49 81       	ldd	r20, Y+1	; 0x01
     d7e:	5a 81       	ldd	r21, Y+2	; 0x02
     d80:	6b 81       	ldd	r22, Y+3	; 0x03
     d82:	7c 81       	ldd	r23, Y+4	; 0x04
     d84:	58 2b       	or	r21, r24
     d86:	49 83       	std	Y+1, r20	; 0x01
     d88:	5a 83       	std	Y+2, r21	; 0x02
     d8a:	6b 83       	std	Y+3, r22	; 0x03
     d8c:	7c 83       	std	Y+4, r23	; 0x04
     d8e:	20 d0       	rcall	.+64     	; 0xdd0 <spi_read>
	rx_data |= spi_read();
     d90:	49 81       	ldd	r20, Y+1	; 0x01
     d92:	5a 81       	ldd	r21, Y+2	; 0x02
     d94:	6b 81       	ldd	r22, Y+3	; 0x03
     d96:	7c 81       	ldd	r23, Y+4	; 0x04
     d98:	48 2b       	or	r20, r24
     d9a:	49 83       	std	Y+1, r20	; 0x01
     d9c:	5a 83       	std	Y+2, r21	; 0x02
     d9e:	6b 83       	std	Y+3, r22	; 0x03
     da0:	7c 83       	std	Y+4, r23	; 0x04
     da2:	5d df       	rcall	.-326    	; 0xc5e <flip_ms5607>
	flip_ms5607();
     da4:	69 81       	ldd	r22, Y+1	; 0x01
     da6:	7a 81       	ldd	r23, Y+2	; 0x02
	
	return rx_data;
     da8:	8b 81       	ldd	r24, Y+3	; 0x03
     daa:	9c 81       	ldd	r25, Y+4	; 0x04
     dac:	24 96       	adiw	r28, 0x04	; 4
     dae:	cd bf       	out	0x3d, r28	; 61
}
     db0:	de bf       	out	0x3e, r29	; 62
     db2:	df 91       	pop	r29
     db4:	cf 91       	pop	r28
     db6:	08 95       	ret

00000db8 <spi_init>:
     db8:	e0 e4       	ldi	r30, 0x40	; 64
     dba:	f6 e0       	ldi	r31, 0x06	; 6
	SPIC.CTRL = 0x5C; //enables SPI and puts a prescaler of 16 idling high and transmitting MSB first on rising signal
}

void spi_select(uint8_t port)
{
	PORTC.OUT ^= port; //switches SS
     dbc:	80 81       	ld	r24, Z
     dbe:	80 6b       	ori	r24, 0xB0	; 176
     dc0:	80 83       	st	Z, r24
     dc2:	68 e0       	ldi	r22, 0x08	; 8
     dc4:	83 e0       	ldi	r24, 0x03	; 3
     dc6:	e0 d1       	rcall	.+960    	; 0x1188 <sysclk_enable_module>
     dc8:	8c e5       	ldi	r24, 0x5C	; 92
     dca:	80 93 c0 08 	sts	0x08C0, r24	; 0x8008c0 <__TEXT_REGION_LENGTH__+0x7008c0>
     dce:	08 95       	ret

00000dd0 <spi_read>:
}

volatile uint8_t spi_read(void)
{
	uint8_t oldInterruptState = SREG;
     dd0:	9f b7       	in	r25, 0x3f	; 63
	cli();
     dd2:	f8 94       	cli
	SPIC.DATA = 0xFF; // make the DATA register something we know
     dd4:	8f ef       	ldi	r24, 0xFF	; 255
     dd6:	80 93 c3 08 	sts	0x08C3, r24	; 0x8008c3 <__TEXT_REGION_LENGTH__+0x7008c3>
	while(!(SPIC.STATUS>>7));
     dda:	e0 ec       	ldi	r30, 0xC0	; 192
     ddc:	f8 e0       	ldi	r31, 0x08	; 8
     dde:	82 81       	ldd	r24, Z+2	; 0x02
     de0:	88 23       	and	r24, r24
     de2:	ec f7       	brge	.-6      	; 0xdde <spi_read+0xe>
	sei();
     de4:	78 94       	sei
	SREG=oldInterruptState;
     de6:	9f bf       	out	0x3f, r25	; 63
	return SPIC.DATA; // return the data from this function
     de8:	80 91 c3 08 	lds	r24, 0x08C3	; 0x8008c3 <__TEXT_REGION_LENGTH__+0x7008c3>
}
     dec:	08 95       	ret

00000dee <spi_write>:

void spi_write(uint8_t data)
{
	uint8_t oldInterruptState = SREG;
     dee:	9f b7       	in	r25, 0x3f	; 63
	cli();
     df0:	f8 94       	cli
	SPIC.DATA = data; // write the data we want to send to the data register
     df2:	80 93 c3 08 	sts	0x08C3, r24	; 0x8008c3 <__TEXT_REGION_LENGTH__+0x7008c3>
	while(!(SPIC.STATUS>>7)); // wait to ensure the data is sent before we do anything else
     df6:	e0 ec       	ldi	r30, 0xC0	; 192
     df8:	f8 e0       	ldi	r31, 0x08	; 8
     dfa:	82 81       	ldd	r24, Z+2	; 0x02
     dfc:	88 23       	and	r24, r24
     dfe:	ec f7       	brge	.-6      	; 0xdfa <spi_write+0xc>
	sei();
     e00:	78 94       	sei
	SREG=oldInterruptState;
     e02:	9f bf       	out	0x3f, r25	; 63
     e04:	08 95       	ret

00000e06 <usart_serial_getchar>:
 * \param usart   Base address of the USART instance.
 * \param data   Data to read
 *
 */
static inline void usart_serial_getchar(usart_if usart, uint8_t *data)
{
     e06:	cf 93       	push	r28
     e08:	df 93       	push	r29
     e0a:	eb 01       	movw	r28, r22
	*data = usart_getchar(usart);
     e0c:	9a dc       	rcall	.-1740   	; 0x742 <usart_getchar>
     e0e:	88 83       	st	Y, r24
}
     e10:	df 91       	pop	r29
     e12:	cf 91       	pop	r28
     e14:	08 95       	ret

00000e16 <usart_serial_putchar>:
 *
 * \return Status code
 */
static inline enum status_code usart_serial_putchar(usart_if usart, uint8_t c)
{
	return usart_putchar(usart, c);
     e16:	8d cc       	rjmp	.-1766   	; 0x732 <usart_putchar>
}
     e18:	08 95       	ret

00000e1a <data_terminal_init>:
#include <asf.h>
#include <string.h>
#include "data_logger.h"

void data_terminal_init()
{
     e1a:	cf 93       	push	r28
     e1c:	df 93       	push	r29
     e1e:	cd b7       	in	r28, 0x3d	; 61
     e20:	de b7       	in	r29, 0x3e	; 62
     e22:	27 97       	sbiw	r28, 0x07	; 7
     e24:	cd bf       	out	0x3d, r28	; 61
     e26:	de bf       	out	0x3e, r29	; 62
		sysclk_enable_module(SYSCLK_PORT_D, SYSCLK_USART0);
	}
#endif
#ifdef USARTE0
	else if (module == &USARTE0) {
		sysclk_enable_module(SYSCLK_PORT_E, SYSCLK_USART0);
     e28:	60 e1       	ldi	r22, 0x10	; 16
     e2a:	85 e0       	ldi	r24, 0x05	; 5
     e2c:	ad d1       	rcall	.+858    	; 0x1188 <sysclk_enable_module>
		.charlength =	UART_TERMINAL_SERIAL_CHAR_LEN,
		.paritytype =	UART_TERMINAL_SERIAL_PARITY,
		.stopbits	=	UART_TERMINAL_SERIAL_STOP_BIT
	};
	
	UART_TERMINAL_PORT.DIR |= UART_TERMINAL_TX_PIN;	// set the USART transmit pin to output
     e2e:	e0 e8       	ldi	r30, 0x80	; 128
     e30:	f6 e0       	ldi	r31, 0x06	; 6
     e32:	80 81       	ld	r24, Z
     e34:	88 60       	ori	r24, 0x08	; 8
     e36:	80 83       	st	Z, r24
 * \param opt         Options needed to set up RS232 communication (see \ref usart_options_t).
 *
 */
static inline void stdio_serial_init(volatile void *usart, const usart_serial_options_t *opt)
{
	stdio_base = (void *)usart;
     e38:	80 ea       	ldi	r24, 0xA0	; 160
     e3a:	9a e0       	ldi	r25, 0x0A	; 10
     e3c:	80 93 4b 21 	sts	0x214B, r24	; 0x80214b <stdio_base>
     e40:	90 93 4c 21 	sts	0x214C, r25	; 0x80214c <stdio_base+0x1>
	ptr_put = (int (*)(void volatile*,char))&usart_serial_putchar;
     e44:	8b e0       	ldi	r24, 0x0B	; 11
     e46:	97 e0       	ldi	r25, 0x07	; 7
     e48:	80 93 49 21 	sts	0x2149, r24	; 0x802149 <ptr_put>
     e4c:	90 93 4a 21 	sts	0x214A, r25	; 0x80214a <ptr_put+0x1>
	ptr_get = (void (*)(void volatile*,char*))&usart_serial_getchar;
     e50:	83 e0       	ldi	r24, 0x03	; 3
     e52:	97 e0       	ldi	r25, 0x07	; 7
     e54:	80 93 47 21 	sts	0x2147, r24	; 0x802147 <ptr_get>
     e58:	90 93 48 21 	sts	0x2148, r25	; 0x802148 <ptr_get+0x1>
static inline bool usart_serial_init(usart_if usart, const
		usart_serial_options_t *options)
{
	// USART options.
	usart_rs232_options_t usart_rs232_options;
	usart_rs232_options.charlength   = options->charlength;
     e5c:	ed e0       	ldi	r30, 0x0D	; 13
     e5e:	f0 e2       	ldi	r31, 0x20	; 32
     e60:	84 81       	ldd	r24, Z+4	; 0x04
     e62:	8d 83       	std	Y+5, r24	; 0x05
	usart_rs232_options.paritytype   = options->paritytype;
     e64:	85 81       	ldd	r24, Z+5	; 0x05
     e66:	8e 83       	std	Y+6, r24	; 0x06
	usart_rs232_options.stopbits     = options->stopbits;
     e68:	86 81       	ldd	r24, Z+6	; 0x06
     e6a:	8f 83       	std	Y+7, r24	; 0x07
	usart_rs232_options.baudrate     = options->baudrate;
     e6c:	80 81       	ld	r24, Z
     e6e:	91 81       	ldd	r25, Z+1	; 0x01
     e70:	a2 81       	ldd	r26, Z+2	; 0x02
     e72:	b3 81       	ldd	r27, Z+3	; 0x03
     e74:	89 83       	std	Y+1, r24	; 0x01
     e76:	9a 83       	std	Y+2, r25	; 0x02
     e78:	ab 83       	std	Y+3, r26	; 0x03
     e7a:	bc 83       	std	Y+4, r27	; 0x04
		sysclk_enable_module(SYSCLK_PORT_D,PR_USART1_bm);
	}
#endif
#ifdef USARTE0
	if((uint16_t)usart == (uint16_t)&USARTE0) {
		sysclk_enable_module(SYSCLK_PORT_E,PR_USART0_bm);
     e7c:	60 e1       	ldi	r22, 0x10	; 16
     e7e:	85 e0       	ldi	r24, 0x05	; 5
     e80:	83 d1       	rcall	.+774    	; 0x1188 <sysclk_enable_module>
#ifdef USARTF1
	if((uint16_t)usart == (uint16_t)&USARTF1) {
		sysclk_enable_module(SYSCLK_PORT_F,PR_USART1_bm);
	}
#endif
	if (usart_init_rs232(usart, &usart_rs232_options)) {
     e82:	be 01       	movw	r22, r28
     e84:	6f 5f       	subi	r22, 0xFF	; 255
     e86:	7f 4f       	sbci	r23, 0xFF	; 255
     e88:	80 ea       	ldi	r24, 0xA0	; 160
     e8a:	9a e0       	ldi	r25, 0x0A	; 10
     e8c:	73 dd       	rcall	.-1306   	; 0x974 <usart_init_rs232>
# endif

# if defined(__GNUC__)
#  if (XMEGA || MEGA_RF)
	// For AVR GCC libc print redirection uses fdevopen.
	fdevopen((int (*)(char, FILE*))(_write),(int (*)(FILE*))(_read));
     e8e:	6f e7       	ldi	r22, 0x7F	; 127
     e90:	71 e0       	ldi	r23, 0x01	; 1
     e92:	88 e9       	ldi	r24, 0x98	; 152
     e94:	91 e0       	ldi	r25, 0x01	; 1
     e96:	0e 94 d9 1f 	call	0x3fb2	; 0x3fb2 <fdevopen>
	
	//usart_serial_init(UART_TERMINAL_SERIAL, &usart_config);
	stdio_serial_init(UART_TERMINAL_SERIAL, &usart_config); // function maps the serial output to printf, not necessary to know how it works
}
     e9a:	27 96       	adiw	r28, 0x07	; 7
     e9c:	cd bf       	out	0x3d, r28	; 61
     e9e:	de bf       	out	0x3e, r29	; 62
     ea0:	df 91       	pop	r29
     ea2:	cf 91       	pop	r28
     ea4:	08 95       	ret

00000ea6 <voltage_init>:
#include "voltage.h"
#include <asf.h>


void voltage_init(void)
{
     ea6:	ff 92       	push	r15
     ea8:	0f 93       	push	r16
     eaa:	1f 93       	push	r17
     eac:	cf 93       	push	r28
     eae:	df 93       	push	r29
		sysclk_enable_module(SYSCLK_PORT_B, SYSCLK_AC);
	}
#endif
#ifdef ADCA
	else if (module == &ADCA) {
		sysclk_enable_module(SYSCLK_PORT_A, SYSCLK_ADC);
     eb0:	62 e0       	ldi	r22, 0x02	; 2
     eb2:	81 e0       	ldi	r24, 0x01	; 1
     eb4:	69 d1       	rcall	.+722    	; 0x1188 <sysclk_enable_module>
	sysclk_enable_peripheral_clock(&VOLTAGE_SERIAL);
	VOLTAGE_SERIAL.CTRLA = 0x01; // enable the ADC
     eb6:	c0 e0       	ldi	r28, 0x00	; 0
     eb8:	d2 e0       	ldi	r29, 0x02	; 2
     eba:	ff 24       	eor	r15, r15
     ebc:	f3 94       	inc	r15
     ebe:	f8 82       	st	Y, r15
	VOLTAGE_SERIAL.CTRLB = 0x00; // unsigned 12 bit mode
     ec0:	19 82       	std	Y+1, r1	; 0x01
	VOLTAGE_SERIAL.REFCTRL = 0x10; // voltage Reference of Vcc/1.6V
     ec2:	80 e1       	ldi	r24, 0x10	; 16
     ec4:	8a 83       	std	Y+2, r24	; 0x02
	VOLTAGE_SERIAL.PRESCALER = 0x05; // prescaler of DIV128 on the clock
     ec6:	85 e0       	ldi	r24, 0x05	; 5
     ec8:	8c 83       	std	Y+4, r24	; 0x04
     eca:	61 e2       	ldi	r22, 0x21	; 33
     ecc:	70 e0       	ldi	r23, 0x00	; 0
     ece:	82 e0       	ldi	r24, 0x02	; 2
     ed0:	71 d1       	rcall	.+738    	; 0x11b4 <nvm_read_byte>
	uint16_t data;

	switch (cal) {
#ifdef ADCA
	case ADC_CAL_ADCA:
		data = nvm_read_production_signature_row(ADCACAL1);
     ed2:	08 2f       	mov	r16, r24
     ed4:	10 e0       	ldi	r17, 0x00	; 0
		data <<= 8;
     ed6:	10 2f       	mov	r17, r16
     ed8:	00 27       	eor	r16, r16
     eda:	60 e2       	ldi	r22, 0x20	; 32
     edc:	70 e0       	ldi	r23, 0x00	; 0
     ede:	82 e0       	ldi	r24, 0x02	; 2
     ee0:	69 d1       	rcall	.+722    	; 0x11b4 <nvm_read_byte>
		data |= nvm_read_production_signature_row(ADCACAL0);
     ee2:	08 2b       	or	r16, r24
	VOLTAGE_SERIAL.CAL = adc_get_calibration_data(ADC_CAL_ADCA); // retrieve stored calibration data about the ADC
     ee4:	0c 87       	std	Y+12, r16	; 0x0c
     ee6:	1d 87       	std	Y+13, r17	; 0x0d
	
	VOLTAGE_SERIAL.VOLTAGE_CHANNEL.CTRL = 0x01; // single ended input
     ee8:	f8 a6       	std	Y+40, r15	; 0x28
	VOLTAGE_SERIAL.VOLTAGE_CHANNEL.MUXCTRL = VOLTAGE_PIN; // reading ADCA pin 0
     eea:	19 a6       	std	Y+41, r1	; 0x29
}
     eec:	df 91       	pop	r29
     eee:	cf 91       	pop	r28
     ef0:	1f 91       	pop	r17
     ef2:	0f 91       	pop	r16
     ef4:	ff 90       	pop	r15
     ef6:	08 95       	ret

00000ef8 <voltage_read>:

uint16_t voltage_read(void)
{
	VOLTAGE_SERIAL.VOLTAGE_CHANNEL.CTRL |= 0x80; // start the conversion
     ef8:	e0 e0       	ldi	r30, 0x00	; 0
     efa:	f2 e0       	ldi	r31, 0x02	; 2
     efc:	80 a5       	ldd	r24, Z+40	; 0x28
     efe:	80 68       	ori	r24, 0x80	; 128
     f00:	80 a7       	std	Z+40, r24	; 0x28
	while(!(VOLTAGE_SERIAL.VOLTAGE_CHANNEL.INTFLAGS)); // wait until the conversion is done
     f02:	83 a5       	ldd	r24, Z+43	; 0x2b
     f04:	88 23       	and	r24, r24
     f06:	e9 f3       	breq	.-6      	; 0xf02 <voltage_read+0xa>
	return VOLTAGE_SERIAL.VOLTAGE_CHANNEL.RES; // return the 12-bit result as a uint16_t
     f08:	80 91 2c 02 	lds	r24, 0x022C	; 0x80022c <__TEXT_REGION_LENGTH__+0x70022c>
     f0c:	90 91 2d 02 	lds	r25, 0x022D	; 0x80022d <__TEXT_REGION_LENGTH__+0x70022d>
     f10:	08 95       	ret

00000f12 <rb16_write>:
	}
	else
	{
		buffer->tail = (buffer->tail + move_distance) % buffer->array_length; //Modulus is so that we don't point to above the buffer's location
	}
}
     f12:	cf 93       	push	r28
     f14:	df 93       	push	r29
     f16:	fc 01       	movw	r30, r24
     f18:	41 15       	cp	r20, r1
     f1a:	51 05       	cpc	r21, r1
     f1c:	b1 f1       	breq	.+108    	; 0xf8a <rb16_write+0x78>
     f1e:	80 e0       	ldi	r24, 0x00	; 0
     f20:	90 e0       	ldi	r25, 0x00	; 0
     f22:	20 e0       	ldi	r18, 0x00	; 0
     f24:	88 0f       	add	r24, r24
     f26:	99 1f       	adc	r25, r25
     f28:	db 01       	movw	r26, r22
     f2a:	a8 0f       	add	r26, r24
     f2c:	b9 1f       	adc	r27, r25
     f2e:	8d 91       	ld	r24, X+
     f30:	9c 91       	ld	r25, X
     f32:	a2 81       	ldd	r26, Z+2	; 0x02
     f34:	b3 81       	ldd	r27, Z+3	; 0x03
     f36:	aa 0f       	add	r26, r26
     f38:	bb 1f       	adc	r27, r27
     f3a:	c6 81       	ldd	r28, Z+6	; 0x06
     f3c:	d7 81       	ldd	r29, Z+7	; 0x07
     f3e:	ac 0f       	add	r26, r28
     f40:	bd 1f       	adc	r27, r29
     f42:	8d 93       	st	X+, r24
     f44:	9c 93       	st	X, r25
     f46:	82 81       	ldd	r24, Z+2	; 0x02
     f48:	93 81       	ldd	r25, Z+3	; 0x03
     f4a:	01 96       	adiw	r24, 0x01	; 1
     f4c:	82 83       	std	Z+2, r24	; 0x02
     f4e:	93 83       	std	Z+3, r25	; 0x03
     f50:	a0 81       	ld	r26, Z
     f52:	b1 81       	ldd	r27, Z+1	; 0x01
     f54:	8a 17       	cp	r24, r26
     f56:	9b 07       	cpc	r25, r27
     f58:	11 f4       	brne	.+4      	; 0xf5e <rb16_write+0x4c>
     f5a:	12 82       	std	Z+2, r1	; 0x02
     f5c:	13 82       	std	Z+3, r1	; 0x03
     f5e:	82 81       	ldd	r24, Z+2	; 0x02
     f60:	93 81       	ldd	r25, Z+3	; 0x03
     f62:	c4 81       	ldd	r28, Z+4	; 0x04
     f64:	d5 81       	ldd	r29, Z+5	; 0x05
     f66:	8c 17       	cp	r24, r28
     f68:	9d 07       	cpc	r25, r29
     f6a:	49 f4       	brne	.+18     	; 0xf7e <rb16_write+0x6c>
     f6c:	01 96       	adiw	r24, 0x01	; 1
     f6e:	a8 17       	cp	r26, r24
     f70:	b9 07       	cpc	r27, r25
     f72:	19 f0       	breq	.+6      	; 0xf7a <rb16_write+0x68>
     f74:	84 83       	std	Z+4, r24	; 0x04
     f76:	95 83       	std	Z+5, r25	; 0x05
     f78:	02 c0       	rjmp	.+4      	; 0xf7e <rb16_write+0x6c>
     f7a:	14 82       	std	Z+4, r1	; 0x04
     f7c:	15 82       	std	Z+5, r1	; 0x05
     f7e:	2f 5f       	subi	r18, 0xFF	; 255
     f80:	82 2f       	mov	r24, r18
     f82:	90 e0       	ldi	r25, 0x00	; 0
     f84:	84 17       	cp	r24, r20
     f86:	95 07       	cpc	r25, r21
     f88:	68 f2       	brcs	.-102    	; 0xf24 <rb16_write+0x12>
     f8a:	df 91       	pop	r29
     f8c:	cf 91       	pop	r28
     f8e:	08 95       	ret

00000f90 <rb16_init>:
     f90:	fc 01       	movw	r30, r24
     f92:	12 82       	std	Z+2, r1	; 0x02
     f94:	13 82       	std	Z+3, r1	; 0x03
     f96:	14 82       	std	Z+4, r1	; 0x04
     f98:	15 82       	std	Z+5, r1	; 0x05
     f9a:	66 83       	std	Z+6, r22	; 0x06
     f9c:	77 83       	std	Z+7, r23	; 0x07
     f9e:	40 83       	st	Z, r20
     fa0:	51 83       	std	Z+1, r21	; 0x01
     fa2:	08 95       	ret

00000fa4 <rb16_get_nth>:
     fa4:	dc 01       	movw	r26, r24
     fa6:	12 96       	adiw	r26, 0x02	; 2
     fa8:	ed 91       	ld	r30, X+
     faa:	fc 91       	ld	r31, X
     fac:	13 97       	sbiw	r26, 0x03	; 3
     fae:	cb 01       	movw	r24, r22
     fb0:	01 96       	adiw	r24, 0x01	; 1
     fb2:	e8 17       	cp	r30, r24
     fb4:	f9 07       	cpc	r31, r25
     fb6:	78 f0       	brcs	.+30     	; 0xfd6 <rb16_get_nth+0x32>
     fb8:	e1 50       	subi	r30, 0x01	; 1
     fba:	f0 48       	sbci	r31, 0x80	; 128
     fbc:	e6 1b       	sub	r30, r22
     fbe:	f7 0b       	sbc	r31, r23
     fc0:	ee 0f       	add	r30, r30
     fc2:	ff 1f       	adc	r31, r31
     fc4:	16 96       	adiw	r26, 0x06	; 6
     fc6:	8d 91       	ld	r24, X+
     fc8:	9c 91       	ld	r25, X
     fca:	17 97       	sbiw	r26, 0x07	; 7
     fcc:	e8 0f       	add	r30, r24
     fce:	f9 1f       	adc	r31, r25
     fd0:	80 81       	ld	r24, Z
     fd2:	91 81       	ldd	r25, Z+1	; 0x01
     fd4:	08 95       	ret
     fd6:	2d 91       	ld	r18, X+
     fd8:	3c 91       	ld	r19, X
     fda:	11 97       	sbiw	r26, 0x01	; 1
     fdc:	e2 0f       	add	r30, r18
     fde:	f3 1f       	adc	r31, r19
     fe0:	e1 50       	subi	r30, 0x01	; 1
     fe2:	f0 48       	sbci	r31, 0x80	; 128
     fe4:	e6 1b       	sub	r30, r22
     fe6:	f7 0b       	sbc	r31, r23
     fe8:	ee 0f       	add	r30, r30
     fea:	ff 1f       	adc	r31, r31
     fec:	16 96       	adiw	r26, 0x06	; 6
     fee:	8d 91       	ld	r24, X+
     ff0:	9c 91       	ld	r25, X
     ff2:	17 97       	sbiw	r26, 0x07	; 7
     ff4:	e8 0f       	add	r30, r24
     ff6:	f9 1f       	adc	r31, r25
     ff8:	80 81       	ld	r24, Z
     ffa:	91 81       	ldd	r25, Z+1	; 0x01
     ffc:	08 95       	ret

00000ffe <rb32_write>:
     ffe:	cf 92       	push	r12
    1000:	df 92       	push	r13
    1002:	ef 92       	push	r14
    1004:	ff 92       	push	r15
    1006:	cf 93       	push	r28
    1008:	df 93       	push	r29
    100a:	fc 01       	movw	r30, r24
    100c:	41 15       	cp	r20, r1
    100e:	51 05       	cpc	r21, r1
    1010:	09 f4       	brne	.+2      	; 0x1014 <rb32_write+0x16>
    1012:	3f c0       	rjmp	.+126    	; 0x1092 <rb32_write+0x94>
    1014:	80 e0       	ldi	r24, 0x00	; 0
    1016:	90 e0       	ldi	r25, 0x00	; 0
    1018:	20 e0       	ldi	r18, 0x00	; 0
    101a:	88 0f       	add	r24, r24
    101c:	99 1f       	adc	r25, r25
    101e:	88 0f       	add	r24, r24
    1020:	99 1f       	adc	r25, r25
    1022:	db 01       	movw	r26, r22
    1024:	a8 0f       	add	r26, r24
    1026:	b9 1f       	adc	r27, r25
    1028:	cd 90       	ld	r12, X+
    102a:	dd 90       	ld	r13, X+
    102c:	ed 90       	ld	r14, X+
    102e:	fc 90       	ld	r15, X
    1030:	a2 81       	ldd	r26, Z+2	; 0x02
    1032:	b3 81       	ldd	r27, Z+3	; 0x03
    1034:	aa 0f       	add	r26, r26
    1036:	bb 1f       	adc	r27, r27
    1038:	aa 0f       	add	r26, r26
    103a:	bb 1f       	adc	r27, r27
    103c:	86 81       	ldd	r24, Z+6	; 0x06
    103e:	97 81       	ldd	r25, Z+7	; 0x07
    1040:	a8 0f       	add	r26, r24
    1042:	b9 1f       	adc	r27, r25
    1044:	cd 92       	st	X+, r12
    1046:	dd 92       	st	X+, r13
    1048:	ed 92       	st	X+, r14
    104a:	fc 92       	st	X, r15
    104c:	13 97       	sbiw	r26, 0x03	; 3
    104e:	82 81       	ldd	r24, Z+2	; 0x02
    1050:	93 81       	ldd	r25, Z+3	; 0x03
    1052:	01 96       	adiw	r24, 0x01	; 1
    1054:	82 83       	std	Z+2, r24	; 0x02
    1056:	93 83       	std	Z+3, r25	; 0x03
    1058:	a0 81       	ld	r26, Z
    105a:	b1 81       	ldd	r27, Z+1	; 0x01
    105c:	8a 17       	cp	r24, r26
    105e:	9b 07       	cpc	r25, r27
    1060:	11 f4       	brne	.+4      	; 0x1066 <rb32_write+0x68>
    1062:	12 82       	std	Z+2, r1	; 0x02
    1064:	13 82       	std	Z+3, r1	; 0x03
    1066:	82 81       	ldd	r24, Z+2	; 0x02
    1068:	93 81       	ldd	r25, Z+3	; 0x03
    106a:	c4 81       	ldd	r28, Z+4	; 0x04
    106c:	d5 81       	ldd	r29, Z+5	; 0x05
    106e:	8c 17       	cp	r24, r28
    1070:	9d 07       	cpc	r25, r29
    1072:	49 f4       	brne	.+18     	; 0x1086 <rb32_write+0x88>
    1074:	01 96       	adiw	r24, 0x01	; 1
    1076:	a8 17       	cp	r26, r24
    1078:	b9 07       	cpc	r27, r25
    107a:	19 f0       	breq	.+6      	; 0x1082 <rb32_write+0x84>
    107c:	84 83       	std	Z+4, r24	; 0x04
    107e:	95 83       	std	Z+5, r25	; 0x05
    1080:	02 c0       	rjmp	.+4      	; 0x1086 <rb32_write+0x88>
    1082:	14 82       	std	Z+4, r1	; 0x04
    1084:	15 82       	std	Z+5, r1	; 0x05
    1086:	2f 5f       	subi	r18, 0xFF	; 255
    1088:	82 2f       	mov	r24, r18
    108a:	90 e0       	ldi	r25, 0x00	; 0
    108c:	84 17       	cp	r24, r20
    108e:	95 07       	cpc	r25, r21
    1090:	20 f2       	brcs	.-120    	; 0x101a <rb32_write+0x1c>
    1092:	df 91       	pop	r29
    1094:	cf 91       	pop	r28
    1096:	ff 90       	pop	r15
    1098:	ef 90       	pop	r14
    109a:	df 90       	pop	r13
    109c:	cf 90       	pop	r12
    109e:	08 95       	ret

000010a0 <rb32_init>:
    10a0:	fc 01       	movw	r30, r24
    10a2:	12 82       	std	Z+2, r1	; 0x02
    10a4:	13 82       	std	Z+3, r1	; 0x03
    10a6:	14 82       	std	Z+4, r1	; 0x04
    10a8:	15 82       	std	Z+5, r1	; 0x05
    10aa:	66 83       	std	Z+6, r22	; 0x06
    10ac:	77 83       	std	Z+7, r23	; 0x07
    10ae:	40 83       	st	Z, r20
    10b0:	51 83       	std	Z+1, r21	; 0x01
    10b2:	08 95       	ret

000010b4 <rb32_get_nth>:
	}
}

int32_t rb32_get_nth(RingBuffer32_t* buffer, uint16_t index)
//Returns the nth newest value in the RingBuffer
{
    10b4:	dc 01       	movw	r26, r24
	//Does not do bounds checking, so be careful in usage
	//	Verify index < rb16_length() to guard against requesting a value beyond what the buffer currently stores
	//	Verify index < buffer->array_length to guard against requesting a value from some random memory location
	
	//Most recent value is in head - 1
	if (index + 1 <= buffer->head) //Value is between zero and buffer->head
    10b6:	12 96       	adiw	r26, 0x02	; 2
    10b8:	ed 91       	ld	r30, X+
    10ba:	fc 91       	ld	r31, X
    10bc:	13 97       	sbiw	r26, 0x03	; 3
    10be:	cb 01       	movw	r24, r22
    10c0:	01 96       	adiw	r24, 0x01	; 1
    10c2:	e8 17       	cp	r30, r24
    10c4:	f9 07       	cpc	r31, r25
    10c6:	98 f0       	brcs	.+38     	; 0x10ee <rb32_get_nth+0x3a>
		return buffer->buffer[buffer->head - index - 1];
    10c8:	e1 50       	subi	r30, 0x01	; 1
    10ca:	f0 4c       	sbci	r31, 0xC0	; 192
    10cc:	e6 1b       	sub	r30, r22
    10ce:	f7 0b       	sbc	r31, r23
    10d0:	ee 0f       	add	r30, r30
    10d2:	ff 1f       	adc	r31, r31
    10d4:	ee 0f       	add	r30, r30
    10d6:	ff 1f       	adc	r31, r31
    10d8:	16 96       	adiw	r26, 0x06	; 6
    10da:	8d 91       	ld	r24, X+
    10dc:	9c 91       	ld	r25, X
    10de:	17 97       	sbiw	r26, 0x07	; 7
    10e0:	e8 0f       	add	r30, r24
    10e2:	f9 1f       	adc	r31, r25
    10e4:	60 81       	ld	r22, Z
    10e6:	71 81       	ldd	r23, Z+1	; 0x01
    10e8:	82 81       	ldd	r24, Z+2	; 0x02
    10ea:	93 81       	ldd	r25, Z+3	; 0x03
    10ec:	08 95       	ret
	else
		return buffer->buffer[buffer->array_length - 1 - index + buffer->head];
    10ee:	2d 91       	ld	r18, X+
    10f0:	3c 91       	ld	r19, X
    10f2:	11 97       	sbiw	r26, 0x01	; 1
    10f4:	e2 0f       	add	r30, r18
    10f6:	f3 1f       	adc	r31, r19
    10f8:	e1 50       	subi	r30, 0x01	; 1
    10fa:	f0 4c       	sbci	r31, 0xC0	; 192
    10fc:	e6 1b       	sub	r30, r22
    10fe:	f7 0b       	sbc	r31, r23
    1100:	ee 0f       	add	r30, r30
    1102:	ff 1f       	adc	r31, r31
    1104:	ee 0f       	add	r30, r30
    1106:	ff 1f       	adc	r31, r31
    1108:	16 96       	adiw	r26, 0x06	; 6
    110a:	8d 91       	ld	r24, X+
    110c:	9c 91       	ld	r25, X
    110e:	17 97       	sbiw	r26, 0x07	; 7
    1110:	e8 0f       	add	r30, r24
    1112:	f9 1f       	adc	r31, r25
    1114:	60 81       	ld	r22, Z
    1116:	71 81       	ldd	r23, Z+1	; 0x01
    1118:	82 81       	ldd	r24, Z+2	; 0x02
    111a:	93 81       	ldd	r25, Z+3	; 0x03
}
    111c:	08 95       	ret

0000111e <sysclk_init>:
#  include <nvm.h>
#endif


void sysclk_init(void)
{
    111e:	cf 93       	push	r28
    1120:	df 93       	push	r29
    1122:	1f 92       	push	r1
    1124:	1f 92       	push	r1
    1126:	cd b7       	in	r28, 0x3d	; 61
    1128:	de b7       	in	r29, 0x3e	; 62
#endif
	bool need_rc2mhz = false;

	/* Turn off all peripheral clocks that can be turned off. */
	for (i = 0; i <= SYSCLK_PORT_F; i++) {
		*(reg++) = 0xff;
    112a:	8f ef       	ldi	r24, 0xFF	; 255
    112c:	80 93 70 00 	sts	0x0070, r24	; 0x800070 <__TEXT_REGION_LENGTH__+0x700070>
    1130:	80 93 71 00 	sts	0x0071, r24	; 0x800071 <__TEXT_REGION_LENGTH__+0x700071>
    1134:	80 93 72 00 	sts	0x0072, r24	; 0x800072 <__TEXT_REGION_LENGTH__+0x700072>
    1138:	80 93 73 00 	sts	0x0073, r24	; 0x800073 <__TEXT_REGION_LENGTH__+0x700073>
    113c:	80 93 74 00 	sts	0x0074, r24	; 0x800074 <__TEXT_REGION_LENGTH__+0x700074>
    1140:	80 93 75 00 	sts	0x0075, r24	; 0x800075 <__TEXT_REGION_LENGTH__+0x700075>
    1144:	80 93 76 00 	sts	0x0076, r24	; 0x800076 <__TEXT_REGION_LENGTH__+0x700076>

typedef uint8_t irqflags_t;

static inline irqflags_t cpu_irq_save(void)
{
	volatile irqflags_t flags = SREG;
    1148:	8f b7       	in	r24, 0x3f	; 63
    114a:	8a 83       	std	Y+2, r24	; 0x02
	cpu_irq_disable();
    114c:	f8 94       	cli
	return flags;
    114e:	9a 81       	ldd	r25, Y+2	; 0x02
	irqflags_t flags;

	Assert(id != OSC_ID_USBSOF);

	flags = cpu_irq_save();
	OSC.CTRL |= id;
    1150:	e0 e5       	ldi	r30, 0x50	; 80
    1152:	f0 e0       	ldi	r31, 0x00	; 0
    1154:	80 81       	ld	r24, Z
    1156:	82 60       	ori	r24, 0x02	; 2
    1158:	80 83       	st	Z, r24
}

static inline void cpu_irq_restore(irqflags_t flags)
{
	barrier();
	SREG = flags;
    115a:	9f bf       	out	0x3f, r25	; 63

static inline bool osc_is_ready(uint8_t id)
{
	Assert(id != OSC_ID_USBSOF);

	return OSC.STATUS & id;
    115c:	81 81       	ldd	r24, Z+1	; 0x01
 *
 * \param id A number identifying the oscillator to wait for.
 */
static inline void osc_wait_ready(uint8_t id)
{
	while (!osc_is_ready(id)) {
    115e:	81 ff       	sbrs	r24, 1
    1160:	fd cf       	rjmp	.-6      	; 0x115c <sysclk_init+0x3e>
		default:
			//unhandled_case(CONFIG_SYSCLK_SOURCE);
			return;
		}

		ccp_write_io((uint8_t *)&CLK.CTRL, CONFIG_SYSCLK_SOURCE);
    1162:	61 e0       	ldi	r22, 0x01	; 1
    1164:	80 e4       	ldi	r24, 0x40	; 64
    1166:	90 e0       	ldi	r25, 0x00	; 0
    1168:	2f d0       	rcall	.+94     	; 0x11c8 <ccp_write_io>

typedef uint8_t irqflags_t;

static inline irqflags_t cpu_irq_save(void)
{
	volatile irqflags_t flags = SREG;
    116a:	8f b7       	in	r24, 0x3f	; 63
    116c:	89 83       	std	Y+1, r24	; 0x01
	cpu_irq_disable();
    116e:	f8 94       	cli
	return flags;
    1170:	99 81       	ldd	r25, Y+1	; 0x01
	irqflags_t flags;

	Assert(id != OSC_ID_USBSOF);

	flags = cpu_irq_save();
	OSC.CTRL &= ~id;
    1172:	e0 e5       	ldi	r30, 0x50	; 80
    1174:	f0 e0       	ldi	r31, 0x00	; 0
    1176:	80 81       	ld	r24, Z
    1178:	8e 7f       	andi	r24, 0xFE	; 254
    117a:	80 83       	st	Z, r24
}

static inline void cpu_irq_restore(irqflags_t flags)
{
	barrier();
	SREG = flags;
    117c:	9f bf       	out	0x3f, r25	; 63
	}

#ifdef CONFIG_RTC_SOURCE
	sysclk_rtcsrc_enable(CONFIG_RTC_SOURCE);
#endif
}
    117e:	0f 90       	pop	r0
    1180:	0f 90       	pop	r0
    1182:	df 91       	pop	r29
    1184:	cf 91       	pop	r28
    1186:	08 95       	ret

00001188 <sysclk_enable_module>:

void sysclk_enable_module(enum sysclk_port_id port, uint8_t id)
{
    1188:	cf 93       	push	r28
    118a:	df 93       	push	r29
    118c:	1f 92       	push	r1
    118e:	cd b7       	in	r28, 0x3d	; 61
    1190:	de b7       	in	r29, 0x3e	; 62

typedef uint8_t irqflags_t;

static inline irqflags_t cpu_irq_save(void)
{
	volatile irqflags_t flags = SREG;
    1192:	9f b7       	in	r25, 0x3f	; 63
    1194:	99 83       	std	Y+1, r25	; 0x01
	cpu_irq_disable();
    1196:	f8 94       	cli
	return flags;
    1198:	99 81       	ldd	r25, Y+1	; 0x01
	irqflags_t flags = cpu_irq_save();

	*((uint8_t *)&PR.PRGEN + port) &= ~id;
    119a:	e8 2f       	mov	r30, r24
    119c:	f0 e0       	ldi	r31, 0x00	; 0
    119e:	e0 59       	subi	r30, 0x90	; 144
    11a0:	ff 4f       	sbci	r31, 0xFF	; 255
    11a2:	60 95       	com	r22
    11a4:	80 81       	ld	r24, Z
    11a6:	68 23       	and	r22, r24
    11a8:	60 83       	st	Z, r22
}

static inline void cpu_irq_restore(irqflags_t flags)
{
	barrier();
	SREG = flags;
    11aa:	9f bf       	out	0x3f, r25	; 63

	cpu_irq_restore(flags);
}
    11ac:	0f 90       	pop	r0
    11ae:	df 91       	pop	r29
    11b0:	cf 91       	pop	r28
    11b2:	08 95       	ret

000011b4 <nvm_read_byte>:
#endif

#ifndef __DOXYGEN__
	PUBLIC_FUNCTION(nvm_read_byte)
#if defined(__GNUC__)
	lds r20, NVM_CMD          ; Store NVM command register
    11b4:	40 91 ca 01 	lds	r20, 0x01CA	; 0x8001ca <__TEXT_REGION_LENGTH__+0x7001ca>
	mov ZL, r22               ; Load byte index into low byte of Z.
    11b8:	e6 2f       	mov	r30, r22
	mov ZH, r23               ; Load high byte into Z.
    11ba:	f7 2f       	mov	r31, r23
	sts NVM_CMD, r24          ; Load prepared command into NVM Command register.
    11bc:	80 93 ca 01 	sts	0x01CA, r24	; 0x8001ca <__TEXT_REGION_LENGTH__+0x7001ca>
	lpm r24, Z                ; Perform an LPM to read out byte
    11c0:	84 91       	lpm	r24, Z
	sts NVM_CMD, r20          ; Restore NVM command register
    11c2:	40 93 ca 01 	sts	0x01CA, r20	; 0x8001ca <__TEXT_REGION_LENGTH__+0x7001ca>
	sts NVM_CMD, r16          ; Load prepared command into NVM Command register.
	lpm r16, Z                ; Perform an LPM to read out byte
	sts NVM_CMD, r20          ; Restore NVM command register
#endif

	ret
    11c6:	08 95       	ret

000011c8 <ccp_write_io>:

	PUBLIC_FUNCTION(ccp_write_io)

#if defined(__GNUC__)

	out     RAMPZ, r1               // Reset bits 23:16 of Z
    11c8:	1b be       	out	0x3b, r1	; 59
	movw    r30, r24                // Load addr into Z
    11ca:	fc 01       	movw	r30, r24
	ldi     r18, CCP_IOREG          // Load magic CCP value
    11cc:	28 ed       	ldi	r18, 0xD8	; 216
	out     CCP, r18                // Start CCP handshake
    11ce:	24 bf       	out	0x34, r18	; 52
	st      Z, r22                  // Write value to I/O register
    11d0:	60 83       	st	Z, r22
	ret                             // Return to caller
    11d2:	08 95       	ret

000011d4 <__portable_avr_delay_cycles>:
void servo_release(void){
	TCD0.CCA = 1200;
}

void servo_close(void){
	TCD0.CCA = 750;
    11d4:	04 c0       	rjmp	.+8      	; 0x11de <__portable_avr_delay_cycles+0xa>
    11d6:	61 50       	subi	r22, 0x01	; 1
    11d8:	71 09       	sbc	r23, r1
    11da:	81 09       	sbc	r24, r1
    11dc:	91 09       	sbc	r25, r1
    11de:	61 15       	cp	r22, r1
    11e0:	71 05       	cpc	r23, r1
    11e2:	81 05       	cpc	r24, r1
    11e4:	91 05       	cpc	r25, r1
    11e6:	b9 f7       	brne	.-18     	; 0x11d6 <__portable_avr_delay_cycles+0x2>
    11e8:	08 95       	ret

000011ea <pressure_init>:
    11ea:	cf 93       	push	r28
    11ec:	df 93       	push	r29
    11ee:	3e dd       	rcall	.-1412   	; 0xc6c <ms5607_init>
    11f0:	82 ea       	ldi	r24, 0xA2	; 162
    11f2:	90 e0       	ldi	r25, 0x00	; 0
    11f4:	4f dd       	rcall	.-1378   	; 0xc94 <ms5607_read>
    11f6:	c7 e3       	ldi	r28, 0x37	; 55
    11f8:	d1 e2       	ldi	r29, 0x21	; 33
    11fa:	88 83       	st	Y, r24
    11fc:	99 83       	std	Y+1, r25	; 0x01
    11fe:	84 ea       	ldi	r24, 0xA4	; 164
    1200:	90 e0       	ldi	r25, 0x00	; 0
    1202:	48 dd       	rcall	.-1392   	; 0xc94 <ms5607_read>
    1204:	8a 83       	std	Y+2, r24	; 0x02
    1206:	9b 83       	std	Y+3, r25	; 0x03
    1208:	86 ea       	ldi	r24, 0xA6	; 166
    120a:	90 e0       	ldi	r25, 0x00	; 0
    120c:	43 dd       	rcall	.-1402   	; 0xc94 <ms5607_read>
    120e:	8c 83       	std	Y+4, r24	; 0x04
    1210:	9d 83       	std	Y+5, r25	; 0x05
    1212:	88 ea       	ldi	r24, 0xA8	; 168
    1214:	90 e0       	ldi	r25, 0x00	; 0
    1216:	3e dd       	rcall	.-1412   	; 0xc94 <ms5607_read>
    1218:	8e 83       	std	Y+6, r24	; 0x06
    121a:	9f 83       	std	Y+7, r25	; 0x07
    121c:	8a ea       	ldi	r24, 0xAA	; 170
    121e:	90 e0       	ldi	r25, 0x00	; 0
    1220:	39 dd       	rcall	.-1422   	; 0xc94 <ms5607_read>
    1222:	88 87       	std	Y+8, r24	; 0x08
    1224:	99 87       	std	Y+9, r25	; 0x09
    1226:	8c ea       	ldi	r24, 0xAC	; 172
    1228:	90 e0       	ldi	r25, 0x00	; 0
    122a:	34 dd       	rcall	.-1432   	; 0xc94 <ms5607_read>
    122c:	8a 87       	std	Y+10, r24	; 0x0a
    122e:	9b 87       	std	Y+11, r25	; 0x0b
    1230:	df 91       	pop	r29
    1232:	cf 91       	pop	r28
    1234:	08 95       	ret

00001236 <gps_init>:
    1236:	da dc       	rcall	.-1612   	; 0xbec <gps_uart_init>
    1238:	6b ea       	ldi	r22, 0xAB	; 171
    123a:	79 e2       	ldi	r23, 0x29	; 41
    123c:	80 e0       	ldi	r24, 0x00	; 0
    123e:	90 e0       	ldi	r25, 0x00	; 0
    1240:	c9 df       	rcall	.-110    	; 0x11d4 <__portable_avr_delay_cycles>
    1242:	80 e3       	ldi	r24, 0x30	; 48
    1244:	80 93 b3 09 	sts	0x09B3, r24	; 0x8009b3 <__TEXT_REGION_LENGTH__+0x7009b3>
    1248:	08 95       	ret

0000124a <release>:
    124a:	80 eb       	ldi	r24, 0xB0	; 176
    124c:	94 e0       	ldi	r25, 0x04	; 4
    124e:	80 93 28 09 	sts	0x0928, r24	; 0x800928 <__TEXT_REGION_LENGTH__+0x700928>
    1252:	90 93 29 09 	sts	0x0929, r25	; 0x800929 <__TEXT_REGION_LENGTH__+0x700929>
    1256:	81 e0       	ldi	r24, 0x01	; 1
    1258:	80 93 45 21 	sts	0x2145, r24	; 0x802145 <released>
    125c:	08 95       	ret

0000125e <get_pressure>:
    125e:	4f 92       	push	r4
    1260:	5f 92       	push	r5
    1262:	6f 92       	push	r6
    1264:	7f 92       	push	r7
    1266:	8f 92       	push	r8
    1268:	9f 92       	push	r9
    126a:	af 92       	push	r10
    126c:	bf 92       	push	r11
    126e:	cf 92       	push	r12
    1270:	df 92       	push	r13
    1272:	ef 92       	push	r14
    1274:	ff 92       	push	r15
    1276:	cf 93       	push	r28
    1278:	df 93       	push	r29
    127a:	1e dd       	rcall	.-1476   	; 0xcb8 <ms5607_convert_d1>
    127c:	6b 01       	movw	r12, r22
    127e:	7c 01       	movw	r14, r24
    1280:	5b dd       	rcall	.-1354   	; 0xd38 <ms5607_convert_d2>
    1282:	0e 94 8e 1c 	call	0x391c	; 0x391c <__floatunsisf>
    1286:	4b 01       	movw	r8, r22
    1288:	5c 01       	movw	r10, r24
    128a:	c7 e3       	ldi	r28, 0x37	; 55
    128c:	d1 e2       	ldi	r29, 0x21	; 33
    128e:	68 85       	ldd	r22, Y+8	; 0x08
    1290:	79 85       	ldd	r23, Y+9	; 0x09
    1292:	80 e0       	ldi	r24, 0x00	; 0
    1294:	90 e0       	ldi	r25, 0x00	; 0
    1296:	0e 94 8e 1c 	call	0x391c	; 0x391c <__floatunsisf>
    129a:	20 e0       	ldi	r18, 0x00	; 0
    129c:	30 e0       	ldi	r19, 0x00	; 0
    129e:	40 e8       	ldi	r20, 0x80	; 128
    12a0:	53 e4       	ldi	r21, 0x43	; 67
    12a2:	0e 94 44 1d 	call	0x3a88	; 0x3a88 <__mulsf3>
    12a6:	9b 01       	movw	r18, r22
    12a8:	ac 01       	movw	r20, r24
    12aa:	c5 01       	movw	r24, r10
    12ac:	b4 01       	movw	r22, r8
    12ae:	0e 94 8c 1b 	call	0x3718	; 0x3718 <__subsf3>
    12b2:	4b 01       	movw	r8, r22
    12b4:	5c 01       	movw	r10, r24
    12b6:	6c 81       	ldd	r22, Y+4	; 0x04
    12b8:	7d 81       	ldd	r23, Y+5	; 0x05
    12ba:	80 e0       	ldi	r24, 0x00	; 0
    12bc:	90 e0       	ldi	r25, 0x00	; 0
    12be:	0e 94 8e 1c 	call	0x391c	; 0x391c <__floatunsisf>
    12c2:	a5 01       	movw	r20, r10
    12c4:	94 01       	movw	r18, r8
    12c6:	0e 94 44 1d 	call	0x3a88	; 0x3a88 <__mulsf3>
    12ca:	20 e0       	ldi	r18, 0x00	; 0
    12cc:	30 e0       	ldi	r19, 0x00	; 0
    12ce:	40 e0       	ldi	r20, 0x00	; 0
    12d0:	5c e3       	ldi	r21, 0x3C	; 60
    12d2:	0e 94 44 1d 	call	0x3a88	; 0x3a88 <__mulsf3>
    12d6:	2b 01       	movw	r4, r22
    12d8:	3c 01       	movw	r6, r24
    12da:	68 81       	ld	r22, Y
    12dc:	79 81       	ldd	r23, Y+1	; 0x01
    12de:	80 e0       	ldi	r24, 0x00	; 0
    12e0:	90 e0       	ldi	r25, 0x00	; 0
    12e2:	0e 94 8e 1c 	call	0x391c	; 0x391c <__floatunsisf>
    12e6:	20 e0       	ldi	r18, 0x00	; 0
    12e8:	30 e0       	ldi	r19, 0x00	; 0
    12ea:	40 e8       	ldi	r20, 0x80	; 128
    12ec:	57 e4       	ldi	r21, 0x47	; 71
    12ee:	0e 94 44 1d 	call	0x3a88	; 0x3a88 <__mulsf3>
    12f2:	9b 01       	movw	r18, r22
    12f4:	ac 01       	movw	r20, r24
    12f6:	c3 01       	movw	r24, r6
    12f8:	b2 01       	movw	r22, r4
    12fa:	0e 94 8d 1b 	call	0x371a	; 0x371a <__addsf3>
    12fe:	2b 01       	movw	r4, r22
    1300:	3c 01       	movw	r6, r24
    1302:	c7 01       	movw	r24, r14
    1304:	b6 01       	movw	r22, r12
    1306:	0e 94 8e 1c 	call	0x391c	; 0x391c <__floatunsisf>
    130a:	9b 01       	movw	r18, r22
    130c:	ac 01       	movw	r20, r24
    130e:	c3 01       	movw	r24, r6
    1310:	b2 01       	movw	r22, r4
    1312:	0e 94 44 1d 	call	0x3a88	; 0x3a88 <__mulsf3>
    1316:	20 e0       	ldi	r18, 0x00	; 0
    1318:	30 e0       	ldi	r19, 0x00	; 0
    131a:	40 e0       	ldi	r20, 0x00	; 0
    131c:	55 e3       	ldi	r21, 0x35	; 53
    131e:	0e 94 44 1d 	call	0x3a88	; 0x3a88 <__mulsf3>
    1322:	6b 01       	movw	r12, r22
    1324:	7c 01       	movw	r14, r24
    1326:	6e 81       	ldd	r22, Y+6	; 0x06
    1328:	7f 81       	ldd	r23, Y+7	; 0x07
    132a:	80 e0       	ldi	r24, 0x00	; 0
    132c:	90 e0       	ldi	r25, 0x00	; 0
    132e:	0e 94 8e 1c 	call	0x391c	; 0x391c <__floatunsisf>
    1332:	a5 01       	movw	r20, r10
    1334:	94 01       	movw	r18, r8
    1336:	0e 94 44 1d 	call	0x3a88	; 0x3a88 <__mulsf3>
    133a:	20 e0       	ldi	r18, 0x00	; 0
    133c:	30 e0       	ldi	r19, 0x00	; 0
    133e:	40 e8       	ldi	r20, 0x80	; 128
    1340:	5c e3       	ldi	r21, 0x3C	; 60
    1342:	0e 94 44 1d 	call	0x3a88	; 0x3a88 <__mulsf3>
    1346:	4b 01       	movw	r8, r22
    1348:	5c 01       	movw	r10, r24
    134a:	6a 81       	ldd	r22, Y+2	; 0x02
    134c:	7b 81       	ldd	r23, Y+3	; 0x03
    134e:	80 e0       	ldi	r24, 0x00	; 0
    1350:	90 e0       	ldi	r25, 0x00	; 0
    1352:	0e 94 8e 1c 	call	0x391c	; 0x391c <__floatunsisf>
    1356:	20 e0       	ldi	r18, 0x00	; 0
    1358:	30 e0       	ldi	r19, 0x00	; 0
    135a:	40 e0       	ldi	r20, 0x00	; 0
    135c:	58 e4       	ldi	r21, 0x48	; 72
    135e:	0e 94 44 1d 	call	0x3a88	; 0x3a88 <__mulsf3>
    1362:	9b 01       	movw	r18, r22
    1364:	ac 01       	movw	r20, r24
    1366:	c5 01       	movw	r24, r10
    1368:	b4 01       	movw	r22, r8
    136a:	0e 94 8d 1b 	call	0x371a	; 0x371a <__addsf3>
    136e:	9b 01       	movw	r18, r22
    1370:	ac 01       	movw	r20, r24
    1372:	c7 01       	movw	r24, r14
    1374:	b6 01       	movw	r22, r12
    1376:	0e 94 8c 1b 	call	0x3718	; 0x3718 <__subsf3>
    137a:	20 e0       	ldi	r18, 0x00	; 0
    137c:	30 e0       	ldi	r19, 0x00	; 0
    137e:	40 e0       	ldi	r20, 0x00	; 0
    1380:	58 e3       	ldi	r21, 0x38	; 56
    1382:	0e 94 44 1d 	call	0x3a88	; 0x3a88 <__mulsf3>
    1386:	df 91       	pop	r29
    1388:	cf 91       	pop	r28
    138a:	ff 90       	pop	r15
    138c:	ef 90       	pop	r14
    138e:	df 90       	pop	r13
    1390:	cf 90       	pop	r12
    1392:	bf 90       	pop	r11
    1394:	af 90       	pop	r10
    1396:	9f 90       	pop	r9
    1398:	8f 90       	pop	r8
    139a:	7f 90       	pop	r7
    139c:	6f 90       	pop	r6
    139e:	5f 90       	pop	r5
    13a0:	4f 90       	pop	r4
    13a2:	08 95       	ret

000013a4 <get_altitude>:
    13a4:	4f 92       	push	r4
    13a6:	5f 92       	push	r5
    13a8:	6f 92       	push	r6
    13aa:	7f 92       	push	r7
    13ac:	8f 92       	push	r8
    13ae:	9f 92       	push	r9
    13b0:	af 92       	push	r10
    13b2:	bf 92       	push	r11
    13b4:	cf 92       	push	r12
    13b6:	df 92       	push	r13
    13b8:	ef 92       	push	r14
    13ba:	ff 92       	push	r15
    13bc:	2b 01       	movw	r4, r22
    13be:	3c 01       	movw	r6, r24
    13c0:	c0 90 1f 20 	lds	r12, 0x201F	; 0x80201f <L>
    13c4:	d0 90 20 20 	lds	r13, 0x2020	; 0x802020 <L+0x1>
    13c8:	e0 90 21 20 	lds	r14, 0x2021	; 0x802021 <L+0x2>
    13cc:	f0 90 22 20 	lds	r15, 0x2022	; 0x802022 <L+0x3>
    13d0:	20 91 23 20 	lds	r18, 0x2023	; 0x802023 <R>
    13d4:	30 91 24 20 	lds	r19, 0x2024	; 0x802024 <R+0x1>
    13d8:	40 91 25 20 	lds	r20, 0x2025	; 0x802025 <R+0x2>
    13dc:	50 91 26 20 	lds	r21, 0x2026	; 0x802026 <R+0x3>
    13e0:	c7 01       	movw	r24, r14
    13e2:	b6 01       	movw	r22, r12
    13e4:	0e 94 44 1d 	call	0x3a88	; 0x3a88 <__mulsf3>
    13e8:	20 91 1b 20 	lds	r18, 0x201B	; 0x80201b <g_0>
    13ec:	30 91 1c 20 	lds	r19, 0x201C	; 0x80201c <g_0+0x1>
    13f0:	40 91 1d 20 	lds	r20, 0x201D	; 0x80201d <g_0+0x2>
    13f4:	50 91 1e 20 	lds	r21, 0x201E	; 0x80201e <g_0+0x3>
    13f8:	0e 94 f5 1b 	call	0x37ea	; 0x37ea <__divsf3>
    13fc:	4b 01       	movw	r8, r22
    13fe:	5c 01       	movw	r10, r24
    1400:	a3 01       	movw	r20, r6
    1402:	92 01       	movw	r18, r4
    1404:	60 91 2b 20 	lds	r22, 0x202B	; 0x80202b <ground_p>
    1408:	70 91 2c 20 	lds	r23, 0x202C	; 0x80202c <ground_p+0x1>
    140c:	80 91 2d 20 	lds	r24, 0x202D	; 0x80202d <ground_p+0x2>
    1410:	90 91 2e 20 	lds	r25, 0x202E	; 0x80202e <ground_p+0x3>
    1414:	0e 94 f5 1b 	call	0x37ea	; 0x37ea <__divsf3>
    1418:	a5 01       	movw	r20, r10
    141a:	94 01       	movw	r18, r8
    141c:	0e 94 a7 1d 	call	0x3b4e	; 0x3b4e <pow>
    1420:	20 e0       	ldi	r18, 0x00	; 0
    1422:	30 e0       	ldi	r19, 0x00	; 0
    1424:	40 e8       	ldi	r20, 0x80	; 128
    1426:	5f e3       	ldi	r21, 0x3F	; 63
    1428:	0e 94 8c 1b 	call	0x3718	; 0x3718 <__subsf3>
    142c:	20 91 27 20 	lds	r18, 0x2027	; 0x802027 <ground_t>
    1430:	30 91 28 20 	lds	r19, 0x2028	; 0x802028 <ground_t+0x1>
    1434:	40 91 29 20 	lds	r20, 0x2029	; 0x802029 <ground_t+0x2>
    1438:	50 91 2a 20 	lds	r21, 0x202A	; 0x80202a <ground_t+0x3>
    143c:	0e 94 44 1d 	call	0x3a88	; 0x3a88 <__mulsf3>
    1440:	a7 01       	movw	r20, r14
    1442:	96 01       	movw	r18, r12
    1444:	0e 94 f5 1b 	call	0x37ea	; 0x37ea <__divsf3>
    1448:	ff 90       	pop	r15
    144a:	ef 90       	pop	r14
    144c:	df 90       	pop	r13
    144e:	cf 90       	pop	r12
    1450:	bf 90       	pop	r11
    1452:	af 90       	pop	r10
    1454:	9f 90       	pop	r9
    1456:	8f 90       	pop	r8
    1458:	7f 90       	pop	r7
    145a:	6f 90       	pop	r6
    145c:	5f 90       	pop	r5
    145e:	4f 90       	pop	r4
    1460:	08 95       	ret

00001462 <get_voltage>:
    1462:	cf 92       	push	r12
    1464:	df 92       	push	r13
    1466:	ef 92       	push	r14
    1468:	ff 92       	push	r15
    146a:	46 dd       	rcall	.-1396   	; 0xef8 <voltage_read>
    146c:	bc 01       	movw	r22, r24
    146e:	80 e0       	ldi	r24, 0x00	; 0
    1470:	90 e0       	ldi	r25, 0x00	; 0
    1472:	0e 94 8e 1c 	call	0x391c	; 0x391c <__floatunsisf>
    1476:	23 e4       	ldi	r18, 0x43	; 67
    1478:	3e e2       	ldi	r19, 0x2E	; 46
    147a:	42 e0       	ldi	r20, 0x02	; 2
    147c:	5a e3       	ldi	r21, 0x3A	; 58
    147e:	0e 94 44 1d 	call	0x3a88	; 0x3a88 <__mulsf3>
    1482:	24 ee       	ldi	r18, 0xE4	; 228
    1484:	3a e5       	ldi	r19, 0x5A	; 90
    1486:	45 ec       	ldi	r20, 0xC5	; 197
    1488:	5d e3       	ldi	r21, 0x3D	; 61
    148a:	0e 94 8c 1b 	call	0x3718	; 0x3718 <__subsf3>
    148e:	6b 01       	movw	r12, r22
    1490:	7c 01       	movw	r14, r24
    1492:	2b e2       	ldi	r18, 0x2B	; 43
    1494:	35 eb       	ldi	r19, 0xB5	; 181
    1496:	42 e1       	ldi	r20, 0x12	; 18
    1498:	50 e4       	ldi	r21, 0x40	; 64
    149a:	0e 94 44 1d 	call	0x3a88	; 0x3a88 <__mulsf3>
    149e:	9b 01       	movw	r18, r22
    14a0:	ac 01       	movw	r20, r24
    14a2:	c7 01       	movw	r24, r14
    14a4:	b6 01       	movw	r22, r12
    14a6:	0e 94 8d 1b 	call	0x371a	; 0x371a <__addsf3>
    14aa:	ff 90       	pop	r15
    14ac:	ef 90       	pop	r14
    14ae:	df 90       	pop	r13
    14b0:	cf 90       	pop	r12
    14b2:	08 95       	ret

000014b4 <diff>:
    14b4:	2f 92       	push	r2
    14b6:	3f 92       	push	r3
    14b8:	4f 92       	push	r4
    14ba:	5f 92       	push	r5
    14bc:	6f 92       	push	r6
    14be:	7f 92       	push	r7
    14c0:	8f 92       	push	r8
    14c2:	9f 92       	push	r9
    14c4:	af 92       	push	r10
    14c6:	bf 92       	push	r11
    14c8:	cf 92       	push	r12
    14ca:	df 92       	push	r13
    14cc:	ef 92       	push	r14
    14ce:	ff 92       	push	r15
    14d0:	0f 93       	push	r16
    14d2:	1f 93       	push	r17
    14d4:	cf 93       	push	r28
    14d6:	df 93       	push	r29
    14d8:	00 d0       	rcall	.+0      	; 0x14da <diff+0x26>
    14da:	00 d0       	rcall	.+0      	; 0x14dc <diff+0x28>
    14dc:	cd b7       	in	r28, 0x3d	; 61
    14de:	de b7       	in	r29, 0x3e	; 62
    14e0:	6c 01       	movw	r12, r24
    14e2:	80 91 14 20 	lds	r24, 0x2014	; 0x802014 <data_samples>
    14e6:	88 23       	and	r24, r24
    14e8:	09 f4       	brne	.+2      	; 0x14ec <diff+0x38>
    14ea:	6c c0       	rjmp	.+216    	; 0x15c4 <diff+0x110>
    14ec:	00 e0       	ldi	r16, 0x00	; 0
    14ee:	10 e0       	ldi	r17, 0x00	; 0
    14f0:	41 2c       	mov	r4, r1
    14f2:	51 2c       	mov	r5, r1
    14f4:	32 01       	movw	r6, r4
    14f6:	86 2e       	mov	r8, r22
    14f8:	91 2c       	mov	r9, r1
    14fa:	a1 2c       	mov	r10, r1
    14fc:	b1 2c       	mov	r11, r1
    14fe:	89 82       	std	Y+1, r8	; 0x01
    1500:	9a 82       	std	Y+2, r9	; 0x02
    1502:	ab 82       	std	Y+3, r10	; 0x03
    1504:	bc 82       	std	Y+4, r11	; 0x04
    1506:	b8 01       	movw	r22, r16
    1508:	c6 01       	movw	r24, r12
    150a:	4c dd       	rcall	.-1384   	; 0xfa4 <rb16_get_nth>
    150c:	5c 01       	movw	r10, r24
    150e:	18 01       	movw	r2, r16
    1510:	2f ef       	ldi	r18, 0xFF	; 255
    1512:	22 1a       	sub	r2, r18
    1514:	32 0a       	sbc	r3, r18
    1516:	b1 01       	movw	r22, r2
    1518:	c6 01       	movw	r24, r12
    151a:	44 dd       	rcall	.-1400   	; 0xfa4 <rb16_get_nth>
    151c:	7c 01       	movw	r14, r24
    151e:	b8 01       	movw	r22, r16
    1520:	6e 5f       	subi	r22, 0xFE	; 254
    1522:	7f 4f       	sbci	r23, 0xFF	; 255
    1524:	c6 01       	movw	r24, r12
    1526:	3e dd       	rcall	.-1412   	; 0xfa4 <rb16_get_nth>
    1528:	a5 01       	movw	r20, r10
    152a:	bb 0c       	add	r11, r11
    152c:	66 0b       	sbc	r22, r22
    152e:	77 0b       	sbc	r23, r23
    1530:	8a 01       	movw	r16, r20
    1532:	9b 01       	movw	r18, r22
    1534:	00 0f       	add	r16, r16
    1536:	11 1f       	adc	r17, r17
    1538:	22 1f       	adc	r18, r18
    153a:	33 1f       	adc	r19, r19
    153c:	40 0f       	add	r20, r16
    153e:	51 1f       	adc	r21, r17
    1540:	62 1f       	adc	r22, r18
    1542:	73 1f       	adc	r23, r19
    1544:	87 01       	movw	r16, r14
    1546:	ff 0c       	add	r15, r15
    1548:	22 0b       	sbc	r18, r18
    154a:	33 0b       	sbc	r19, r19
    154c:	78 01       	movw	r14, r16
    154e:	89 01       	movw	r16, r18
    1550:	ee 0c       	add	r14, r14
    1552:	ff 1c       	adc	r15, r15
    1554:	00 1f       	adc	r16, r16
    1556:	11 1f       	adc	r17, r17
    1558:	ee 0c       	add	r14, r14
    155a:	ff 1c       	adc	r15, r15
    155c:	00 1f       	adc	r16, r16
    155e:	11 1f       	adc	r17, r17
    1560:	4a 01       	movw	r8, r20
    1562:	5b 01       	movw	r10, r22
    1564:	8e 18       	sub	r8, r14
    1566:	9f 08       	sbc	r9, r15
    1568:	a0 0a       	sbc	r10, r16
    156a:	b1 0a       	sbc	r11, r17
    156c:	ac 01       	movw	r20, r24
    156e:	99 0f       	add	r25, r25
    1570:	66 0b       	sbc	r22, r22
    1572:	77 0b       	sbc	r23, r23
    1574:	d5 01       	movw	r26, r10
    1576:	c4 01       	movw	r24, r8
    1578:	84 0f       	add	r24, r20
    157a:	95 1f       	adc	r25, r21
    157c:	a6 1f       	adc	r26, r22
    157e:	b7 1f       	adc	r27, r23
    1580:	9c 01       	movw	r18, r24
    1582:	ad 01       	movw	r20, r26
    1584:	69 81       	ldd	r22, Y+1	; 0x01
    1586:	7a 81       	ldd	r23, Y+2	; 0x02
    1588:	8b 81       	ldd	r24, Y+3	; 0x03
    158a:	9c 81       	ldd	r25, Y+4	; 0x04
    158c:	0e 94 0c 1f 	call	0x3e18	; 0x3e18 <__mulsi3>
    1590:	0e 94 90 1c 	call	0x3920	; 0x3920 <__floatsisf>
    1594:	20 e0       	ldi	r18, 0x00	; 0
    1596:	30 e0       	ldi	r19, 0x00	; 0
    1598:	40 e0       	ldi	r20, 0x00	; 0
    159a:	5f e3       	ldi	r21, 0x3F	; 63
    159c:	0e 94 44 1d 	call	0x3a88	; 0x3a88 <__mulsf3>
    15a0:	9b 01       	movw	r18, r22
    15a2:	ac 01       	movw	r20, r24
    15a4:	c3 01       	movw	r24, r6
    15a6:	b2 01       	movw	r22, r4
    15a8:	0e 94 8d 1b 	call	0x371a	; 0x371a <__addsf3>
    15ac:	2b 01       	movw	r4, r22
    15ae:	3c 01       	movw	r6, r24
    15b0:	80 91 14 20 	lds	r24, 0x2014	; 0x802014 <data_samples>
    15b4:	81 01       	movw	r16, r2
    15b6:	28 2f       	mov	r18, r24
    15b8:	30 e0       	ldi	r19, 0x00	; 0
    15ba:	22 16       	cp	r2, r18
    15bc:	33 06       	cpc	r3, r19
    15be:	08 f4       	brcc	.+2      	; 0x15c2 <diff+0x10e>
    15c0:	a2 cf       	rjmp	.-188    	; 0x1506 <diff+0x52>
    15c2:	03 c0       	rjmp	.+6      	; 0x15ca <diff+0x116>
    15c4:	41 2c       	mov	r4, r1
    15c6:	51 2c       	mov	r5, r1
    15c8:	32 01       	movw	r6, r4
    15ca:	68 2f       	mov	r22, r24
    15cc:	70 e0       	ldi	r23, 0x00	; 0
    15ce:	80 e0       	ldi	r24, 0x00	; 0
    15d0:	90 e0       	ldi	r25, 0x00	; 0
    15d2:	0e 94 90 1c 	call	0x3920	; 0x3920 <__floatsisf>
    15d6:	9b 01       	movw	r18, r22
    15d8:	ac 01       	movw	r20, r24
    15da:	c3 01       	movw	r24, r6
    15dc:	b2 01       	movw	r22, r4
    15de:	0e 94 f5 1b 	call	0x37ea	; 0x37ea <__divsf3>
    15e2:	20 e0       	ldi	r18, 0x00	; 0
    15e4:	30 e0       	ldi	r19, 0x00	; 0
    15e6:	48 ec       	ldi	r20, 0xC8	; 200
    15e8:	52 e4       	ldi	r21, 0x42	; 66
    15ea:	0e 94 f5 1b 	call	0x37ea	; 0x37ea <__divsf3>
    15ee:	26 96       	adiw	r28, 0x06	; 6
    15f0:	cd bf       	out	0x3d, r28	; 61
    15f2:	de bf       	out	0x3e, r29	; 62
    15f4:	df 91       	pop	r29
    15f6:	cf 91       	pop	r28
    15f8:	1f 91       	pop	r17
    15fa:	0f 91       	pop	r16
    15fc:	ff 90       	pop	r15
    15fe:	ef 90       	pop	r14
    1600:	df 90       	pop	r13
    1602:	cf 90       	pop	r12
    1604:	bf 90       	pop	r11
    1606:	af 90       	pop	r10
    1608:	9f 90       	pop	r9
    160a:	8f 90       	pop	r8
    160c:	7f 90       	pop	r7
    160e:	6f 90       	pop	r6
    1610:	5f 90       	pop	r5
    1612:	4f 90       	pop	r4
    1614:	3f 90       	pop	r3
    1616:	2f 90       	pop	r2
    1618:	08 95       	ret

0000161a <data_check>:
    161a:	3f 92       	push	r3
    161c:	4f 92       	push	r4
    161e:	5f 92       	push	r5
    1620:	6f 92       	push	r6
    1622:	7f 92       	push	r7
    1624:	8f 92       	push	r8
    1626:	9f 92       	push	r9
    1628:	af 92       	push	r10
    162a:	bf 92       	push	r11
    162c:	cf 92       	push	r12
    162e:	df 92       	push	r13
    1630:	ef 92       	push	r14
    1632:	ff 92       	push	r15
    1634:	0f 93       	push	r16
    1636:	1f 93       	push	r17
    1638:	cf 93       	push	r28
    163a:	df 93       	push	r29
    163c:	00 d0       	rcall	.+0      	; 0x163e <data_check+0x24>
    163e:	00 d0       	rcall	.+0      	; 0x1640 <data_check+0x26>
    1640:	cd b7       	in	r28, 0x3d	; 61
    1642:	de b7       	in	r29, 0x3e	; 62
    1644:	8c 01       	movw	r16, r24
    1646:	19 82       	std	Y+1, r1	; 0x01
    1648:	1a 82       	std	Y+2, r1	; 0x02
    164a:	c1 2c       	mov	r12, r1
    164c:	d1 2c       	mov	r13, r1
    164e:	76 01       	movw	r14, r12
    1650:	69 81       	ldd	r22, Y+1	; 0x01
    1652:	7a 81       	ldd	r23, Y+2	; 0x02
    1654:	c8 01       	movw	r24, r16
    1656:	2e dd       	rcall	.-1444   	; 0x10b4 <rb32_get_nth>
    1658:	4b 01       	movw	r8, r22
    165a:	5c 01       	movw	r10, r24
    165c:	21 e6       	ldi	r18, 0x61	; 97
    165e:	82 1a       	sub	r8, r18
    1660:	2e ea       	ldi	r18, 0xAE	; 174
    1662:	92 0a       	sbc	r9, r18
    1664:	2a e0       	ldi	r18, 0x0A	; 10
    1666:	a2 0a       	sbc	r10, r18
    1668:	b1 08       	sbc	r11, r1
    166a:	2f e7       	ldi	r18, 0x7F	; 127
    166c:	82 16       	cp	r8, r18
    166e:	2a e1       	ldi	r18, 0x1A	; 26
    1670:	92 06       	cpc	r9, r18
    1672:	26 e0       	ldi	r18, 0x06	; 6
    1674:	a2 06       	cpc	r10, r18
    1676:	b1 04       	cpc	r11, r1
    1678:	80 f4       	brcc	.+32     	; 0x169a <data_check+0x80>
    167a:	0e 94 90 1c 	call	0x3920	; 0x3920 <__floatsisf>
    167e:	20 e0       	ldi	r18, 0x00	; 0
    1680:	30 e0       	ldi	r19, 0x00	; 0
    1682:	40 ea       	ldi	r20, 0xA0	; 160
    1684:	50 e4       	ldi	r21, 0x40	; 64
    1686:	0e 94 f5 1b 	call	0x37ea	; 0x37ea <__divsf3>
    168a:	9b 01       	movw	r18, r22
    168c:	ac 01       	movw	r20, r24
    168e:	c7 01       	movw	r24, r14
    1690:	b6 01       	movw	r22, r12
    1692:	0e 94 8d 1b 	call	0x371a	; 0x371a <__addsf3>
    1696:	6b 01       	movw	r12, r22
    1698:	7c 01       	movw	r14, r24
    169a:	89 81       	ldd	r24, Y+1	; 0x01
    169c:	9a 81       	ldd	r25, Y+2	; 0x02
    169e:	01 96       	adiw	r24, 0x01	; 1
    16a0:	89 83       	std	Y+1, r24	; 0x01
    16a2:	9a 83       	std	Y+2, r25	; 0x02
    16a4:	05 97       	sbiw	r24, 0x05	; 5
    16a6:	a1 f6       	brne	.-88     	; 0x1650 <data_check+0x36>
    16a8:	19 82       	std	Y+1, r1	; 0x01
    16aa:	1a 82       	std	Y+2, r1	; 0x02
    16ac:	81 2c       	mov	r8, r1
    16ae:	91 2c       	mov	r9, r1
    16b0:	54 01       	movw	r10, r8
    16b2:	69 81       	ldd	r22, Y+1	; 0x01
    16b4:	7a 81       	ldd	r23, Y+2	; 0x02
    16b6:	c8 01       	movw	r24, r16
    16b8:	fd dc       	rcall	.-1542   	; 0x10b4 <rb32_get_nth>
    16ba:	2b 01       	movw	r4, r22
    16bc:	3c 01       	movw	r6, r24
    16be:	21 e6       	ldi	r18, 0x61	; 97
    16c0:	42 1a       	sub	r4, r18
    16c2:	2e ea       	ldi	r18, 0xAE	; 174
    16c4:	52 0a       	sbc	r5, r18
    16c6:	2a e0       	ldi	r18, 0x0A	; 10
    16c8:	62 0a       	sbc	r6, r18
    16ca:	71 08       	sbc	r7, r1
    16cc:	2f e7       	ldi	r18, 0x7F	; 127
    16ce:	42 16       	cp	r4, r18
    16d0:	2a e1       	ldi	r18, 0x1A	; 26
    16d2:	52 06       	cpc	r5, r18
    16d4:	26 e0       	ldi	r18, 0x06	; 6
    16d6:	62 06       	cpc	r6, r18
    16d8:	71 04       	cpc	r7, r1
    16da:	90 f4       	brcc	.+36     	; 0x1700 <data_check+0xe6>
    16dc:	0e 94 90 1c 	call	0x3920	; 0x3920 <__floatsisf>
    16e0:	a7 01       	movw	r20, r14
    16e2:	96 01       	movw	r18, r12
    16e4:	0e 94 8c 1b 	call	0x3718	; 0x3718 <__subsf3>
    16e8:	9b 01       	movw	r18, r22
    16ea:	ac 01       	movw	r20, r24
    16ec:	0e 94 44 1d 	call	0x3a88	; 0x3a88 <__mulsf3>
    16f0:	9b 01       	movw	r18, r22
    16f2:	ac 01       	movw	r20, r24
    16f4:	c5 01       	movw	r24, r10
    16f6:	b4 01       	movw	r22, r8
    16f8:	0e 94 8d 1b 	call	0x371a	; 0x371a <__addsf3>
    16fc:	4b 01       	movw	r8, r22
    16fe:	5c 01       	movw	r10, r24
    1700:	89 81       	ldd	r24, Y+1	; 0x01
    1702:	9a 81       	ldd	r25, Y+2	; 0x02
    1704:	01 96       	adiw	r24, 0x01	; 1
    1706:	89 83       	std	Y+1, r24	; 0x01
    1708:	9a 83       	std	Y+2, r25	; 0x02
    170a:	05 97       	sbiw	r24, 0x05	; 5
    170c:	91 f6       	brne	.-92     	; 0x16b2 <data_check+0x98>
    170e:	20 e0       	ldi	r18, 0x00	; 0
    1710:	30 e0       	ldi	r19, 0x00	; 0
    1712:	40 e8       	ldi	r20, 0x80	; 128
    1714:	5e e3       	ldi	r21, 0x3E	; 62
    1716:	c5 01       	movw	r24, r10
    1718:	b4 01       	movw	r22, r8
    171a:	0e 94 44 1d 	call	0x3a88	; 0x3a88 <__mulsf3>
    171e:	69 83       	std	Y+1, r22	; 0x01
    1720:	7a 83       	std	Y+2, r23	; 0x02
    1722:	8b 83       	std	Y+3, r24	; 0x03
    1724:	9c 83       	std	Y+4, r25	; 0x04
    1726:	1d 82       	std	Y+5, r1	; 0x05
    1728:	1e 82       	std	Y+6, r1	; 0x06
    172a:	31 2c       	mov	r3, r1
    172c:	41 2c       	mov	r4, r1
    172e:	51 2c       	mov	r5, r1
    1730:	32 01       	movw	r6, r4
    1732:	6d 81       	ldd	r22, Y+5	; 0x05
    1734:	7e 81       	ldd	r23, Y+6	; 0x06
    1736:	c8 01       	movw	r24, r16
    1738:	bd dc       	rcall	.-1670   	; 0x10b4 <rb32_get_nth>
    173a:	4b 01       	movw	r8, r22
    173c:	5c 01       	movw	r10, r24
    173e:	21 e6       	ldi	r18, 0x61	; 97
    1740:	82 1a       	sub	r8, r18
    1742:	2e ea       	ldi	r18, 0xAE	; 174
    1744:	92 0a       	sbc	r9, r18
    1746:	2a e0       	ldi	r18, 0x0A	; 10
    1748:	a2 0a       	sbc	r10, r18
    174a:	b1 08       	sbc	r11, r1
    174c:	2f e7       	ldi	r18, 0x7F	; 127
    174e:	82 16       	cp	r8, r18
    1750:	2a e1       	ldi	r18, 0x1A	; 26
    1752:	92 06       	cpc	r9, r18
    1754:	26 e0       	ldi	r18, 0x06	; 6
    1756:	a2 06       	cpc	r10, r18
    1758:	b1 04       	cpc	r11, r1
    175a:	50 f5       	brcc	.+84     	; 0x17b0 <data_check+0x196>
    175c:	0e 94 90 1c 	call	0x3920	; 0x3920 <__floatsisf>
    1760:	4b 01       	movw	r8, r22
    1762:	5c 01       	movw	r10, r24
    1764:	a7 01       	movw	r20, r14
    1766:	96 01       	movw	r18, r12
    1768:	0e 94 8c 1b 	call	0x3718	; 0x3718 <__subsf3>
    176c:	0e 94 5d 1c 	call	0x38ba	; 0x38ba <__fixsfsi>
    1770:	9b 01       	movw	r18, r22
    1772:	77 23       	and	r23, r23
    1774:	24 f4       	brge	.+8      	; 0x177e <data_check+0x164>
    1776:	22 27       	eor	r18, r18
    1778:	33 27       	eor	r19, r19
    177a:	26 1b       	sub	r18, r22
    177c:	37 0b       	sbc	r19, r23
    177e:	b9 01       	movw	r22, r18
    1780:	33 0f       	add	r19, r19
    1782:	88 0b       	sbc	r24, r24
    1784:	99 0b       	sbc	r25, r25
    1786:	0e 94 90 1c 	call	0x3920	; 0x3920 <__floatsisf>
    178a:	9b 01       	movw	r18, r22
    178c:	ac 01       	movw	r20, r24
    178e:	69 81       	ldd	r22, Y+1	; 0x01
    1790:	7a 81       	ldd	r23, Y+2	; 0x02
    1792:	8b 81       	ldd	r24, Y+3	; 0x03
    1794:	9c 81       	ldd	r25, Y+4	; 0x04
    1796:	0e 94 40 1d 	call	0x3a80	; 0x3a80 <__gesf2>
    179a:	88 23       	and	r24, r24
    179c:	4c f0       	brlt	.+18     	; 0x17b0 <data_check+0x196>
    179e:	a5 01       	movw	r20, r10
    17a0:	94 01       	movw	r18, r8
    17a2:	c3 01       	movw	r24, r6
    17a4:	b2 01       	movw	r22, r4
    17a6:	0e 94 8d 1b 	call	0x371a	; 0x371a <__addsf3>
    17aa:	2b 01       	movw	r4, r22
    17ac:	3c 01       	movw	r6, r24
    17ae:	33 94       	inc	r3
    17b0:	8d 81       	ldd	r24, Y+5	; 0x05
    17b2:	9e 81       	ldd	r25, Y+6	; 0x06
    17b4:	01 96       	adiw	r24, 0x01	; 1
    17b6:	8d 83       	std	Y+5, r24	; 0x05
    17b8:	9e 83       	std	Y+6, r25	; 0x06
    17ba:	05 97       	sbiw	r24, 0x05	; 5
    17bc:	09 f0       	breq	.+2      	; 0x17c0 <data_check+0x1a6>
    17be:	b9 cf       	rjmp	.-142    	; 0x1732 <data_check+0x118>
    17c0:	33 20       	and	r3, r3
    17c2:	69 f0       	breq	.+26     	; 0x17de <data_check+0x1c4>
    17c4:	63 2d       	mov	r22, r3
    17c6:	70 e0       	ldi	r23, 0x00	; 0
    17c8:	80 e0       	ldi	r24, 0x00	; 0
    17ca:	90 e0       	ldi	r25, 0x00	; 0
    17cc:	0e 94 8e 1c 	call	0x391c	; 0x391c <__floatunsisf>
    17d0:	9b 01       	movw	r18, r22
    17d2:	ac 01       	movw	r20, r24
    17d4:	c3 01       	movw	r24, r6
    17d6:	b2 01       	movw	r22, r4
    17d8:	0e 94 f5 1b 	call	0x37ea	; 0x37ea <__divsf3>
    17dc:	04 c0       	rjmp	.+8      	; 0x17e6 <data_check+0x1cc>
    17de:	60 e0       	ldi	r22, 0x00	; 0
    17e0:	70 e0       	ldi	r23, 0x00	; 0
    17e2:	80 e8       	ldi	r24, 0x80	; 128
    17e4:	9f eb       	ldi	r25, 0xBF	; 191
    17e6:	26 96       	adiw	r28, 0x06	; 6
    17e8:	cd bf       	out	0x3d, r28	; 61
    17ea:	de bf       	out	0x3e, r29	; 62
    17ec:	df 91       	pop	r29
    17ee:	cf 91       	pop	r28
    17f0:	1f 91       	pop	r17
    17f2:	0f 91       	pop	r16
    17f4:	ff 90       	pop	r15
    17f6:	ef 90       	pop	r14
    17f8:	df 90       	pop	r13
    17fa:	cf 90       	pop	r12
    17fc:	bf 90       	pop	r11
    17fe:	af 90       	pop	r10
    1800:	9f 90       	pop	r9
    1802:	8f 90       	pop	r8
    1804:	7f 90       	pop	r7
    1806:	6f 90       	pop	r6
    1808:	5f 90       	pop	r5
    180a:	4f 90       	pop	r4
    180c:	3f 90       	pop	r3
    180e:	08 95       	ret

00001810 <data_collect>:
    1810:	af 92       	push	r10
    1812:	bf 92       	push	r11
    1814:	cf 92       	push	r12
    1816:	df 92       	push	r13
    1818:	ef 92       	push	r14
    181a:	ff 92       	push	r15
    181c:	0f 93       	push	r16
    181e:	1f 93       	push	r17
    1820:	cf 93       	push	r28
    1822:	df 93       	push	r29
    1824:	00 d0       	rcall	.+0      	; 0x1826 <data_collect+0x16>
    1826:	00 d0       	rcall	.+0      	; 0x1828 <data_collect+0x18>
    1828:	cd b7       	in	r28, 0x3d	; 61
    182a:	de b7       	in	r29, 0x3e	; 62
    182c:	5c 01       	movw	r10, r24
    182e:	8b 01       	movw	r16, r22
    1830:	16 dd       	rcall	.-1492   	; 0x125e <get_pressure>
    1832:	20 e0       	ldi	r18, 0x00	; 0
    1834:	30 e0       	ldi	r19, 0x00	; 0
    1836:	40 e2       	ldi	r20, 0x20	; 32
    1838:	51 e4       	ldi	r21, 0x41	; 65
    183a:	0e 94 44 1d 	call	0x3a88	; 0x3a88 <__mulsf3>
    183e:	0e 94 5d 1c 	call	0x38ba	; 0x38ba <__fixsfsi>
    1842:	69 83       	std	Y+1, r22	; 0x01
    1844:	7a 83       	std	Y+2, r23	; 0x02
    1846:	8b 83       	std	Y+3, r24	; 0x03
    1848:	9c 83       	std	Y+4, r25	; 0x04
    184a:	41 e0       	ldi	r20, 0x01	; 1
    184c:	50 e0       	ldi	r21, 0x00	; 0
    184e:	be 01       	movw	r22, r28
    1850:	6f 5f       	subi	r22, 0xFF	; 255
    1852:	7f 4f       	sbci	r23, 0xFF	; 255
    1854:	c8 01       	movw	r24, r16
    1856:	d3 db       	rcall	.-2138   	; 0xffe <rb32_write>
    1858:	c8 01       	movw	r24, r16
    185a:	df de       	rcall	.-578    	; 0x161a <data_check>
    185c:	20 e0       	ldi	r18, 0x00	; 0
    185e:	30 e0       	ldi	r19, 0x00	; 0
    1860:	40 e2       	ldi	r20, 0x20	; 32
    1862:	51 e4       	ldi	r21, 0x41	; 65
    1864:	0e 94 f5 1b 	call	0x37ea	; 0x37ea <__divsf3>
    1868:	6b 01       	movw	r12, r22
    186a:	7c 01       	movw	r14, r24
    186c:	20 e0       	ldi	r18, 0x00	; 0
    186e:	30 e0       	ldi	r19, 0x00	; 0
    1870:	40 e8       	ldi	r20, 0x80	; 128
    1872:	5f eb       	ldi	r21, 0xBF	; 191
    1874:	0e 94 f1 1b 	call	0x37e2	; 0x37e2 <__cmpsf2>
    1878:	88 23       	and	r24, r24
    187a:	d1 f1       	breq	.+116    	; 0x18f0 <data_collect+0xe0>
    187c:	c0 92 1b 21 	sts	0x211B, r12	; 0x80211b <press>
    1880:	d0 92 1c 21 	sts	0x211C, r13	; 0x80211c <press+0x1>
    1884:	e0 92 1d 21 	sts	0x211D, r14	; 0x80211d <press+0x2>
    1888:	f0 92 1e 21 	sts	0x211E, r15	; 0x80211e <press+0x3>
    188c:	c7 01       	movw	r24, r14
    188e:	b6 01       	movw	r22, r12
    1890:	89 dd       	rcall	.-1262   	; 0x13a4 <get_altitude>
    1892:	60 93 13 21 	sts	0x2113, r22	; 0x802113 <alt>
    1896:	70 93 14 21 	sts	0x2114, r23	; 0x802114 <alt+0x1>
    189a:	80 93 15 21 	sts	0x2115, r24	; 0x802115 <alt+0x2>
    189e:	90 93 16 21 	sts	0x2116, r25	; 0x802116 <alt+0x3>
    18a2:	60 91 13 21 	lds	r22, 0x2113	; 0x802113 <alt>
    18a6:	70 91 14 21 	lds	r23, 0x2114	; 0x802114 <alt+0x1>
    18aa:	80 91 15 21 	lds	r24, 0x2115	; 0x802115 <alt+0x2>
    18ae:	90 91 16 21 	lds	r25, 0x2116	; 0x802116 <alt+0x3>
    18b2:	20 e0       	ldi	r18, 0x00	; 0
    18b4:	30 e0       	ldi	r19, 0x00	; 0
    18b6:	48 ec       	ldi	r20, 0xC8	; 200
    18b8:	52 e4       	ldi	r21, 0x42	; 66
    18ba:	0e 94 44 1d 	call	0x3a88	; 0x3a88 <__mulsf3>
    18be:	0e 94 5d 1c 	call	0x38ba	; 0x38ba <__fixsfsi>
    18c2:	6d 83       	std	Y+5, r22	; 0x05
    18c4:	7e 83       	std	Y+6, r23	; 0x06
    18c6:	41 e0       	ldi	r20, 0x01	; 1
    18c8:	50 e0       	ldi	r21, 0x00	; 0
    18ca:	be 01       	movw	r22, r28
    18cc:	6b 5f       	subi	r22, 0xFB	; 251
    18ce:	7f 4f       	sbci	r23, 0xFF	; 255
    18d0:	c5 01       	movw	r24, r10
    18d2:	1f db       	rcall	.-2498   	; 0xf12 <rb16_write>
    18d4:	60 91 17 20 	lds	r22, 0x2017	; 0x802017 <rate>
    18d8:	70 91 18 20 	lds	r23, 0x2018	; 0x802018 <rate+0x1>
    18dc:	c5 01       	movw	r24, r10
    18de:	ea dd       	rcall	.-1068   	; 0x14b4 <diff>
    18e0:	60 93 0b 21 	sts	0x210B, r22	; 0x80210b <velocity>
    18e4:	70 93 0c 21 	sts	0x210C, r23	; 0x80210c <velocity+0x1>
    18e8:	80 93 0d 21 	sts	0x210D, r24	; 0x80210d <velocity+0x2>
    18ec:	90 93 0e 21 	sts	0x210E, r25	; 0x80210e <velocity+0x3>
    18f0:	83 e3       	ldi	r24, 0x33	; 51
    18f2:	93 e1       	ldi	r25, 0x13	; 19
    18f4:	a5 e9       	ldi	r26, 0x95	; 149
    18f6:	b3 e4       	ldi	r27, 0x43	; 67
    18f8:	80 93 17 21 	sts	0x2117, r24	; 0x802117 <temp>
    18fc:	90 93 18 21 	sts	0x2118, r25	; 0x802118 <temp+0x1>
    1900:	a0 93 19 21 	sts	0x2119, r26	; 0x802119 <temp+0x2>
    1904:	b0 93 1a 21 	sts	0x211A, r27	; 0x80211a <temp+0x3>
    1908:	ac dd       	rcall	.-1192   	; 0x1462 <get_voltage>
    190a:	60 93 0f 21 	sts	0x210F, r22	; 0x80210f <volt>
    190e:	70 93 10 21 	sts	0x2110, r23	; 0x802110 <volt+0x1>
    1912:	80 93 11 21 	sts	0x2111, r24	; 0x802111 <volt+0x2>
    1916:	90 93 12 21 	sts	0x2112, r25	; 0x802112 <volt+0x3>
    191a:	26 96       	adiw	r28, 0x06	; 6
    191c:	cd bf       	out	0x3d, r28	; 61
    191e:	de bf       	out	0x3e, r29	; 62
    1920:	df 91       	pop	r29
    1922:	cf 91       	pop	r28
    1924:	1f 91       	pop	r17
    1926:	0f 91       	pop	r16
    1928:	ff 90       	pop	r15
    192a:	ef 90       	pop	r14
    192c:	df 90       	pop	r13
    192e:	cf 90       	pop	r12
    1930:	bf 90       	pop	r11
    1932:	af 90       	pop	r10
    1934:	08 95       	ret

00001936 <state_check>:
    1936:	80 91 46 21 	lds	r24, 0x2146	; 0x802146 <state>
    193a:	81 30       	cpi	r24, 0x01	; 1
    193c:	81 f1       	breq	.+96     	; 0x199e <state_check+0x68>
    193e:	38 f0       	brcs	.+14     	; 0x194e <state_check+0x18>
    1940:	82 30       	cpi	r24, 0x02	; 2
    1942:	09 f4       	brne	.+2      	; 0x1946 <state_check+0x10>
    1944:	55 c0       	rjmp	.+170    	; 0x19f0 <state_check+0xba>
    1946:	83 30       	cpi	r24, 0x03	; 3
    1948:	09 f4       	brne	.+2      	; 0x194c <state_check+0x16>
    194a:	fc c0       	rjmp	.+504    	; 0x1b44 <state_check+0x20e>
    194c:	7c c0       	rjmp	.+248    	; 0x1a46 <state_check+0x110>
    194e:	60 91 0b 21 	lds	r22, 0x210B	; 0x80210b <velocity>
    1952:	70 91 0c 21 	lds	r23, 0x210C	; 0x80210c <velocity+0x1>
    1956:	80 91 0d 21 	lds	r24, 0x210D	; 0x80210d <velocity+0x2>
    195a:	90 91 0e 21 	lds	r25, 0x210E	; 0x80210e <velocity+0x3>
    195e:	20 e0       	ldi	r18, 0x00	; 0
    1960:	30 e0       	ldi	r19, 0x00	; 0
    1962:	40 e4       	ldi	r20, 0x40	; 64
    1964:	50 e4       	ldi	r21, 0x40	; 64
    1966:	0e 94 f1 1b 	call	0x37e2	; 0x37e2 <__cmpsf2>
    196a:	88 23       	and	r24, r24
    196c:	0c f0       	brlt	.+2      	; 0x1970 <state_check+0x3a>
    196e:	ea c0       	rjmp	.+468    	; 0x1b44 <state_check+0x20e>
    1970:	60 91 13 21 	lds	r22, 0x2113	; 0x802113 <alt>
    1974:	70 91 14 21 	lds	r23, 0x2114	; 0x802114 <alt+0x1>
    1978:	80 91 15 21 	lds	r24, 0x2115	; 0x802115 <alt+0x2>
    197c:	90 91 16 21 	lds	r25, 0x2116	; 0x802116 <alt+0x3>
    1980:	20 e0       	ldi	r18, 0x00	; 0
    1982:	30 e0       	ldi	r19, 0x00	; 0
    1984:	41 ee       	ldi	r20, 0xE1	; 225
    1986:	53 e4       	ldi	r21, 0x43	; 67
    1988:	0e 94 40 1d 	call	0x3a80	; 0x3a80 <__gesf2>
    198c:	18 16       	cp	r1, r24
    198e:	0c f0       	brlt	.+2      	; 0x1992 <state_check+0x5c>
    1990:	d9 c0       	rjmp	.+434    	; 0x1b44 <state_check+0x20e>
    1992:	80 91 46 21 	lds	r24, 0x2146	; 0x802146 <state>
    1996:	8f 5f       	subi	r24, 0xFF	; 255
    1998:	80 93 46 21 	sts	0x2146, r24	; 0x802146 <state>
    199c:	08 95       	ret
    199e:	60 91 0b 21 	lds	r22, 0x210B	; 0x80210b <velocity>
    19a2:	70 91 0c 21 	lds	r23, 0x210C	; 0x80210c <velocity+0x1>
    19a6:	80 91 0d 21 	lds	r24, 0x210D	; 0x80210d <velocity+0x2>
    19aa:	90 91 0e 21 	lds	r25, 0x210E	; 0x80210e <velocity+0x3>
    19ae:	20 e0       	ldi	r18, 0x00	; 0
    19b0:	30 e0       	ldi	r19, 0x00	; 0
    19b2:	40 e4       	ldi	r20, 0x40	; 64
    19b4:	50 e4       	ldi	r21, 0x40	; 64
    19b6:	0e 94 f1 1b 	call	0x37e2	; 0x37e2 <__cmpsf2>
    19ba:	88 23       	and	r24, r24
    19bc:	84 f4       	brge	.+32     	; 0x19de <state_check+0xa8>
    19be:	60 91 13 21 	lds	r22, 0x2113	; 0x802113 <alt>
    19c2:	70 91 14 21 	lds	r23, 0x2114	; 0x802114 <alt+0x1>
    19c6:	80 91 15 21 	lds	r24, 0x2115	; 0x802115 <alt+0x2>
    19ca:	90 91 16 21 	lds	r25, 0x2116	; 0x802116 <alt+0x3>
    19ce:	20 e0       	ldi	r18, 0x00	; 0
    19d0:	30 e0       	ldi	r19, 0x00	; 0
    19d2:	41 ee       	ldi	r20, 0xE1	; 225
    19d4:	53 e4       	ldi	r21, 0x43	; 67
    19d6:	0e 94 f1 1b 	call	0x37e2	; 0x37e2 <__cmpsf2>
    19da:	88 23       	and	r24, r24
    19dc:	1c f0       	brlt	.+6      	; 0x19e4 <state_check+0xae>
    19de:	81 e0       	ldi	r24, 0x01	; 1
    19e0:	80 93 45 21 	sts	0x2145, r24	; 0x802145 <released>
    19e4:	80 91 46 21 	lds	r24, 0x2146	; 0x802146 <state>
    19e8:	8f 5f       	subi	r24, 0xFF	; 255
    19ea:	80 93 46 21 	sts	0x2146, r24	; 0x802146 <state>
    19ee:	08 95       	ret
    19f0:	60 91 0b 21 	lds	r22, 0x210B	; 0x80210b <velocity>
    19f4:	70 91 0c 21 	lds	r23, 0x210C	; 0x80210c <velocity+0x1>
    19f8:	80 91 0d 21 	lds	r24, 0x210D	; 0x80210d <velocity+0x2>
    19fc:	90 91 0e 21 	lds	r25, 0x210E	; 0x80210e <velocity+0x3>
    1a00:	0e 94 5d 1c 	call	0x38ba	; 0x38ba <__fixsfsi>
    1a04:	9b 01       	movw	r18, r22
    1a06:	77 23       	and	r23, r23
    1a08:	24 f4       	brge	.+8      	; 0x1a12 <state_check+0xdc>
    1a0a:	22 27       	eor	r18, r18
    1a0c:	33 27       	eor	r19, r19
    1a0e:	26 1b       	sub	r18, r22
    1a10:	37 0b       	sbc	r19, r23
    1a12:	23 30       	cpi	r18, 0x03	; 3
    1a14:	31 05       	cpc	r19, r1
    1a16:	8c f0       	brlt	.+34     	; 0x1a3a <state_check+0x104>
    1a18:	60 91 13 21 	lds	r22, 0x2113	; 0x802113 <alt>
    1a1c:	70 91 14 21 	lds	r23, 0x2114	; 0x802114 <alt+0x1>
    1a20:	80 91 15 21 	lds	r24, 0x2115	; 0x802115 <alt+0x2>
    1a24:	90 91 16 21 	lds	r25, 0x2116	; 0x802116 <alt+0x3>
    1a28:	20 e0       	ldi	r18, 0x00	; 0
    1a2a:	30 e0       	ldi	r19, 0x00	; 0
    1a2c:	40 e2       	ldi	r20, 0x20	; 32
    1a2e:	51 e4       	ldi	r21, 0x41	; 65
    1a30:	0e 94 f1 1b 	call	0x37e2	; 0x37e2 <__cmpsf2>
    1a34:	88 23       	and	r24, r24
    1a36:	0c f0       	brlt	.+2      	; 0x1a3a <state_check+0x104>
    1a38:	85 c0       	rjmp	.+266    	; 0x1b44 <state_check+0x20e>
    1a3a:	80 91 46 21 	lds	r24, 0x2146	; 0x802146 <state>
    1a3e:	8f 5f       	subi	r24, 0xFF	; 255
    1a40:	80 93 46 21 	sts	0x2146, r24	; 0x802146 <state>
    1a44:	08 95       	ret
    1a46:	60 91 0b 21 	lds	r22, 0x210B	; 0x80210b <velocity>
    1a4a:	70 91 0c 21 	lds	r23, 0x210C	; 0x80210c <velocity+0x1>
    1a4e:	80 91 0d 21 	lds	r24, 0x210D	; 0x80210d <velocity+0x2>
    1a52:	90 91 0e 21 	lds	r25, 0x210E	; 0x80210e <velocity+0x3>
    1a56:	20 e0       	ldi	r18, 0x00	; 0
    1a58:	30 e0       	ldi	r19, 0x00	; 0
    1a5a:	40 e4       	ldi	r20, 0x40	; 64
    1a5c:	50 e4       	ldi	r21, 0x40	; 64
    1a5e:	0e 94 40 1d 	call	0x3a80	; 0x3a80 <__gesf2>
    1a62:	18 16       	cp	r1, r24
    1a64:	14 f4       	brge	.+4      	; 0x1a6a <state_check+0x134>
    1a66:	10 92 46 21 	sts	0x2146, r1	; 0x802146 <state>
    1a6a:	60 91 13 21 	lds	r22, 0x2113	; 0x802113 <alt>
    1a6e:	70 91 14 21 	lds	r23, 0x2114	; 0x802114 <alt+0x1>
    1a72:	80 91 15 21 	lds	r24, 0x2115	; 0x802115 <alt+0x2>
    1a76:	90 91 16 21 	lds	r25, 0x2116	; 0x802116 <alt+0x3>
    1a7a:	20 e0       	ldi	r18, 0x00	; 0
    1a7c:	30 e0       	ldi	r19, 0x00	; 0
    1a7e:	41 ee       	ldi	r20, 0xE1	; 225
    1a80:	53 e4       	ldi	r21, 0x43	; 67
    1a82:	0e 94 40 1d 	call	0x3a80	; 0x3a80 <__gesf2>
    1a86:	18 16       	cp	r1, r24
    1a88:	9c f4       	brge	.+38     	; 0x1ab0 <state_check+0x17a>
    1a8a:	60 91 0b 21 	lds	r22, 0x210B	; 0x80210b <velocity>
    1a8e:	70 91 0c 21 	lds	r23, 0x210C	; 0x80210c <velocity+0x1>
    1a92:	80 91 0d 21 	lds	r24, 0x210D	; 0x80210d <velocity+0x2>
    1a96:	90 91 0e 21 	lds	r25, 0x210E	; 0x80210e <velocity+0x3>
    1a9a:	20 e0       	ldi	r18, 0x00	; 0
    1a9c:	30 e0       	ldi	r19, 0x00	; 0
    1a9e:	40 e4       	ldi	r20, 0x40	; 64
    1aa0:	50 e4       	ldi	r21, 0x40	; 64
    1aa2:	0e 94 f1 1b 	call	0x37e2	; 0x37e2 <__cmpsf2>
    1aa6:	88 23       	and	r24, r24
    1aa8:	1c f4       	brge	.+6      	; 0x1ab0 <state_check+0x17a>
    1aaa:	81 e0       	ldi	r24, 0x01	; 1
    1aac:	80 93 46 21 	sts	0x2146, r24	; 0x802146 <state>
    1ab0:	60 91 13 21 	lds	r22, 0x2113	; 0x802113 <alt>
    1ab4:	70 91 14 21 	lds	r23, 0x2114	; 0x802114 <alt+0x1>
    1ab8:	80 91 15 21 	lds	r24, 0x2115	; 0x802115 <alt+0x2>
    1abc:	90 91 16 21 	lds	r25, 0x2116	; 0x802116 <alt+0x3>
    1ac0:	20 e0       	ldi	r18, 0x00	; 0
    1ac2:	30 e0       	ldi	r19, 0x00	; 0
    1ac4:	41 ee       	ldi	r20, 0xE1	; 225
    1ac6:	53 e4       	ldi	r21, 0x43	; 67
    1ac8:	0e 94 f1 1b 	call	0x37e2	; 0x37e2 <__cmpsf2>
    1acc:	88 23       	and	r24, r24
    1ace:	9c f4       	brge	.+38     	; 0x1af6 <state_check+0x1c0>
    1ad0:	60 91 0b 21 	lds	r22, 0x210B	; 0x80210b <velocity>
    1ad4:	70 91 0c 21 	lds	r23, 0x210C	; 0x80210c <velocity+0x1>
    1ad8:	80 91 0d 21 	lds	r24, 0x210D	; 0x80210d <velocity+0x2>
    1adc:	90 91 0e 21 	lds	r25, 0x210E	; 0x80210e <velocity+0x3>
    1ae0:	20 e0       	ldi	r18, 0x00	; 0
    1ae2:	30 e0       	ldi	r19, 0x00	; 0
    1ae4:	40 e4       	ldi	r20, 0x40	; 64
    1ae6:	50 e4       	ldi	r21, 0x40	; 64
    1ae8:	0e 94 f1 1b 	call	0x37e2	; 0x37e2 <__cmpsf2>
    1aec:	88 23       	and	r24, r24
    1aee:	1c f4       	brge	.+6      	; 0x1af6 <state_check+0x1c0>
    1af0:	82 e0       	ldi	r24, 0x02	; 2
    1af2:	80 93 46 21 	sts	0x2146, r24	; 0x802146 <state>
    1af6:	60 91 0b 21 	lds	r22, 0x210B	; 0x80210b <velocity>
    1afa:	70 91 0c 21 	lds	r23, 0x210C	; 0x80210c <velocity+0x1>
    1afe:	80 91 0d 21 	lds	r24, 0x210D	; 0x80210d <velocity+0x2>
    1b02:	90 91 0e 21 	lds	r25, 0x210E	; 0x80210e <velocity+0x3>
    1b06:	0e 94 5d 1c 	call	0x38ba	; 0x38ba <__fixsfsi>
    1b0a:	9b 01       	movw	r18, r22
    1b0c:	77 23       	and	r23, r23
    1b0e:	24 f4       	brge	.+8      	; 0x1b18 <state_check+0x1e2>
    1b10:	22 27       	eor	r18, r18
    1b12:	33 27       	eor	r19, r19
    1b14:	26 1b       	sub	r18, r22
    1b16:	37 0b       	sbc	r19, r23
    1b18:	23 30       	cpi	r18, 0x03	; 3
    1b1a:	31 05       	cpc	r19, r1
    1b1c:	9c f4       	brge	.+38     	; 0x1b44 <state_check+0x20e>
    1b1e:	60 91 13 21 	lds	r22, 0x2113	; 0x802113 <alt>
    1b22:	70 91 14 21 	lds	r23, 0x2114	; 0x802114 <alt+0x1>
    1b26:	80 91 15 21 	lds	r24, 0x2115	; 0x802115 <alt+0x2>
    1b2a:	90 91 16 21 	lds	r25, 0x2116	; 0x802116 <alt+0x3>
    1b2e:	20 e0       	ldi	r18, 0x00	; 0
    1b30:	30 e0       	ldi	r19, 0x00	; 0
    1b32:	40 e2       	ldi	r20, 0x20	; 32
    1b34:	51 e4       	ldi	r21, 0x41	; 65
    1b36:	0e 94 f1 1b 	call	0x37e2	; 0x37e2 <__cmpsf2>
    1b3a:	88 23       	and	r24, r24
    1b3c:	1c f4       	brge	.+6      	; 0x1b44 <state_check+0x20e>
    1b3e:	83 e0       	ldi	r24, 0x03	; 3
    1b40:	80 93 46 21 	sts	0x2146, r24	; 0x802146 <state>
    1b44:	08 95       	ret

00001b46 <release_servo_init>:
    1b46:	61 e0       	ldi	r22, 0x01	; 1
    1b48:	84 e0       	ldi	r24, 0x04	; 4
    1b4a:	1e db       	rcall	.-2500   	; 0x1188 <sysclk_enable_module>
    1b4c:	64 e0       	ldi	r22, 0x04	; 4
    1b4e:	84 e0       	ldi	r24, 0x04	; 4
    1b50:	1b db       	rcall	.-2506   	; 0x1188 <sysclk_enable_module>
    1b52:	e0 e6       	ldi	r30, 0x60	; 96
    1b54:	f6 e0       	ldi	r31, 0x06	; 6
    1b56:	80 81       	ld	r24, Z
    1b58:	81 60       	ori	r24, 0x01	; 1
    1b5a:	80 83       	st	Z, r24
    1b5c:	e0 e0       	ldi	r30, 0x00	; 0
    1b5e:	f9 e0       	ldi	r31, 0x09	; 9
    1b60:	85 e0       	ldi	r24, 0x05	; 5
    1b62:	80 83       	st	Z, r24
    1b64:	83 e1       	ldi	r24, 0x13	; 19
    1b66:	81 83       	std	Z+1, r24	; 0x01
    1b68:	80 e1       	ldi	r24, 0x10	; 16
    1b6a:	97 e2       	ldi	r25, 0x27	; 39
    1b6c:	86 a3       	std	Z+38, r24	; 0x26
    1b6e:	97 a3       	std	Z+39, r25	; 0x27
    1b70:	8e ee       	ldi	r24, 0xEE	; 238
    1b72:	92 e0       	ldi	r25, 0x02	; 2
    1b74:	80 a7       	std	Z+40, r24	; 0x28
    1b76:	91 a7       	std	Z+41, r25	; 0x29
    1b78:	08 95       	ret

00001b7a <servo_pid>:
    1b7a:	8f 92       	push	r8
    1b7c:	9f 92       	push	r9
    1b7e:	af 92       	push	r10
    1b80:	bf 92       	push	r11
    1b82:	cf 92       	push	r12
    1b84:	df 92       	push	r13
    1b86:	ef 92       	push	r14
    1b88:	ff 92       	push	r15
    1b8a:	0f 93       	push	r16
    1b8c:	1f 93       	push	r17
    1b8e:	cf 93       	push	r28
    1b90:	df 93       	push	r29
    1b92:	7c 01       	movw	r14, r24
    1b94:	c0 e0       	ldi	r28, 0x00	; 0
    1b96:	d0 e0       	ldi	r29, 0x00	; 0
    1b98:	00 e0       	ldi	r16, 0x00	; 0
    1b9a:	10 e0       	ldi	r17, 0x00	; 0
    1b9c:	be 01       	movw	r22, r28
    1b9e:	c7 01       	movw	r24, r14
    1ba0:	01 da       	rcall	.-3070   	; 0xfa4 <rb16_get_nth>
    1ba2:	08 0f       	add	r16, r24
    1ba4:	19 1f       	adc	r17, r25
    1ba6:	21 96       	adiw	r28, 0x01	; 1
    1ba8:	ca 30       	cpi	r28, 0x0A	; 10
    1baa:	d1 05       	cpc	r29, r1
    1bac:	b9 f7       	brne	.-18     	; 0x1b9c <servo_pid+0x22>
    1bae:	60 e0       	ldi	r22, 0x00	; 0
    1bb0:	70 e0       	ldi	r23, 0x00	; 0
    1bb2:	c7 01       	movw	r24, r14
    1bb4:	f7 d9       	rcall	.-3090   	; 0xfa4 <rb16_get_nth>
    1bb6:	ec 01       	movw	r28, r24
    1bb8:	60 91 17 20 	lds	r22, 0x2017	; 0x802017 <rate>
    1bbc:	70 91 18 20 	lds	r23, 0x2018	; 0x802018 <rate+0x1>
    1bc0:	c7 01       	movw	r24, r14
    1bc2:	78 dc       	rcall	.-1808   	; 0x14b4 <diff>
    1bc4:	6b 01       	movw	r12, r22
    1bc6:	7c 01       	movw	r14, r24
    1bc8:	be 01       	movw	r22, r28
    1bca:	dd 0f       	add	r29, r29
    1bcc:	88 0b       	sbc	r24, r24
    1bce:	99 0b       	sbc	r25, r25
    1bd0:	0e 94 90 1c 	call	0x3920	; 0x3920 <__floatsisf>
    1bd4:	20 e0       	ldi	r18, 0x00	; 0
    1bd6:	30 e0       	ldi	r19, 0x00	; 0
    1bd8:	a9 01       	movw	r20, r18
    1bda:	0e 94 44 1d 	call	0x3a88	; 0x3a88 <__mulsf3>
    1bde:	20 e0       	ldi	r18, 0x00	; 0
    1be0:	30 e0       	ldi	r19, 0x00	; 0
    1be2:	48 ec       	ldi	r20, 0xC8	; 200
    1be4:	52 e4       	ldi	r21, 0x42	; 66
    1be6:	0e 94 f5 1b 	call	0x37ea	; 0x37ea <__divsf3>
    1bea:	4b 01       	movw	r8, r22
    1bec:	5c 01       	movw	r10, r24
    1bee:	b8 01       	movw	r22, r16
    1bf0:	11 0f       	add	r17, r17
    1bf2:	88 0b       	sbc	r24, r24
    1bf4:	99 0b       	sbc	r25, r25
    1bf6:	0e 94 90 1c 	call	0x3920	; 0x3920 <__floatsisf>
    1bfa:	20 e0       	ldi	r18, 0x00	; 0
    1bfc:	30 e0       	ldi	r19, 0x00	; 0
    1bfe:	a9 01       	movw	r20, r18
    1c00:	0e 94 44 1d 	call	0x3a88	; 0x3a88 <__mulsf3>
    1c04:	20 e0       	ldi	r18, 0x00	; 0
    1c06:	30 e0       	ldi	r19, 0x00	; 0
    1c08:	48 ec       	ldi	r20, 0xC8	; 200
    1c0a:	52 e4       	ldi	r21, 0x42	; 66
    1c0c:	0e 94 f5 1b 	call	0x37ea	; 0x37ea <__divsf3>
    1c10:	9b 01       	movw	r18, r22
    1c12:	ac 01       	movw	r20, r24
    1c14:	c5 01       	movw	r24, r10
    1c16:	b4 01       	movw	r22, r8
    1c18:	0e 94 8d 1b 	call	0x371a	; 0x371a <__addsf3>
    1c1c:	4b 01       	movw	r8, r22
    1c1e:	5c 01       	movw	r10, r24
    1c20:	20 e0       	ldi	r18, 0x00	; 0
    1c22:	30 e0       	ldi	r19, 0x00	; 0
    1c24:	a9 01       	movw	r20, r18
    1c26:	c7 01       	movw	r24, r14
    1c28:	b6 01       	movw	r22, r12
    1c2a:	0e 94 44 1d 	call	0x3a88	; 0x3a88 <__mulsf3>
    1c2e:	9b 01       	movw	r18, r22
    1c30:	ac 01       	movw	r20, r24
    1c32:	c5 01       	movw	r24, r10
    1c34:	b4 01       	movw	r22, r8
    1c36:	0e 94 8d 1b 	call	0x371a	; 0x371a <__addsf3>
    1c3a:	20 e0       	ldi	r18, 0x00	; 0
    1c3c:	30 e8       	ldi	r19, 0x80	; 128
    1c3e:	4b eb       	ldi	r20, 0xBB	; 187
    1c40:	54 e4       	ldi	r21, 0x44	; 68
    1c42:	0e 94 8d 1b 	call	0x371a	; 0x371a <__addsf3>
    1c46:	0e 94 62 1c 	call	0x38c4	; 0x38c4 <__fixunssfsi>
    1c4a:	60 93 19 20 	sts	0x2019, r22	; 0x802019 <servo_pulse>
    1c4e:	70 93 1a 20 	sts	0x201A, r23	; 0x80201a <servo_pulse+0x1>
    1c52:	60 91 19 20 	lds	r22, 0x2019	; 0x802019 <servo_pulse>
    1c56:	70 91 1a 20 	lds	r23, 0x201A	; 0x80201a <servo_pulse+0x1>
    1c5a:	80 e0       	ldi	r24, 0x00	; 0
    1c5c:	90 e0       	ldi	r25, 0x00	; 0
    1c5e:	0e 94 8e 1c 	call	0x391c	; 0x391c <__floatunsisf>
    1c62:	20 e0       	ldi	r18, 0x00	; 0
    1c64:	30 e0       	ldi	r19, 0x00	; 0
    1c66:	4a e7       	ldi	r20, 0x7A	; 122
    1c68:	54 e4       	ldi	r21, 0x44	; 68
    1c6a:	0e 94 f5 1b 	call	0x37ea	; 0x37ea <__divsf3>
    1c6e:	20 e0       	ldi	r18, 0x00	; 0
    1c70:	30 e0       	ldi	r19, 0x00	; 0
    1c72:	4a ef       	ldi	r20, 0xFA	; 250
    1c74:	53 e4       	ldi	r21, 0x43	; 67
    1c76:	0e 94 44 1d 	call	0x3a88	; 0x3a88 <__mulsf3>
    1c7a:	0e 94 62 1c 	call	0x38c4	; 0x38c4 <__fixunssfsi>
    1c7e:	60 93 28 09 	sts	0x0928, r22	; 0x800928 <__TEXT_REGION_LENGTH__+0x700928>
    1c82:	70 93 29 09 	sts	0x0929, r23	; 0x800929 <__TEXT_REGION_LENGTH__+0x700929>
    1c86:	df 91       	pop	r29
    1c88:	cf 91       	pop	r28
    1c8a:	1f 91       	pop	r17
    1c8c:	0f 91       	pop	r16
    1c8e:	ff 90       	pop	r15
    1c90:	ef 90       	pop	r14
    1c92:	df 90       	pop	r13
    1c94:	cf 90       	pop	r12
    1c96:	bf 90       	pop	r11
    1c98:	af 90       	pop	r10
    1c9a:	9f 90       	pop	r9
    1c9c:	8f 90       	pop	r8
    1c9e:	08 95       	ret

00001ca0 <clock_init>:
    1ca0:	61 e0       	ldi	r22, 0x01	; 1
    1ca2:	85 e0       	ldi	r24, 0x05	; 5
    1ca4:	71 da       	rcall	.-2846   	; 0x1188 <sysclk_enable_module>
    1ca6:	e0 e0       	ldi	r30, 0x00	; 0
    1ca8:	fa e0       	ldi	r31, 0x0A	; 10
    1caa:	87 e0       	ldi	r24, 0x07	; 7
    1cac:	80 83       	st	Z, r24
    1cae:	81 e1       	ldi	r24, 0x11	; 17
    1cb0:	9a e7       	ldi	r25, 0x7A	; 122
    1cb2:	86 a3       	std	Z+38, r24	; 0x26
    1cb4:	97 a3       	std	Z+39, r25	; 0x27
    1cb6:	81 e0       	ldi	r24, 0x01	; 1
    1cb8:	86 83       	std	Z+6, r24	; 0x06
    1cba:	08 95       	ret

00001cbc <cali_alt>:
    1cbc:	80 91 1b 21 	lds	r24, 0x211B	; 0x80211b <press>
    1cc0:	90 91 1c 21 	lds	r25, 0x211C	; 0x80211c <press+0x1>
    1cc4:	a0 91 1d 21 	lds	r26, 0x211D	; 0x80211d <press+0x2>
    1cc8:	b0 91 1e 21 	lds	r27, 0x211E	; 0x80211e <press+0x3>
    1ccc:	80 93 2b 20 	sts	0x202B, r24	; 0x80202b <ground_p>
    1cd0:	90 93 2c 20 	sts	0x202C, r25	; 0x80202c <ground_p+0x1>
    1cd4:	a0 93 2d 20 	sts	0x202D, r26	; 0x80202d <ground_p+0x2>
    1cd8:	b0 93 2e 20 	sts	0x202E, r27	; 0x80202e <ground_p+0x3>
    1cdc:	83 e3       	ldi	r24, 0x33	; 51
    1cde:	93 e1       	ldi	r25, 0x13	; 19
    1ce0:	a5 e9       	ldi	r26, 0x95	; 149
    1ce2:	b3 e4       	ldi	r27, 0x43	; 67
    1ce4:	80 93 27 20 	sts	0x2027, r24	; 0x802027 <ground_t>
    1ce8:	90 93 28 20 	sts	0x2028, r25	; 0x802028 <ground_t+0x1>
    1cec:	a0 93 29 20 	sts	0x2029, r26	; 0x802029 <ground_t+0x2>
    1cf0:	b0 93 2a 20 	sts	0x202A, r27	; 0x80202a <ground_t+0x3>
    1cf4:	08 95       	ret

00001cf6 <cali_ang>:
    1cf6:	0e 94 a4 05 	call	0xb48	; 0xb48 <imu_roll>
    1cfa:	60 93 2e 21 	sts	0x212E, r22	; 0x80212e <ref_roll>
    1cfe:	70 93 2f 21 	sts	0x212F, r23	; 0x80212f <ref_roll+0x1>
    1d02:	80 93 30 21 	sts	0x2130, r24	; 0x802130 <ref_roll+0x2>
    1d06:	90 93 31 21 	sts	0x2131, r25	; 0x802131 <ref_roll+0x3>
    1d0a:	0e 94 ad 05 	call	0xb5a	; 0xb5a <imu_pitch>
    1d0e:	60 93 2a 21 	sts	0x212A, r22	; 0x80212a <ref_pitch>
    1d12:	70 93 2b 21 	sts	0x212B, r23	; 0x80212b <ref_pitch+0x1>
    1d16:	80 93 2c 21 	sts	0x212C, r24	; 0x80212c <ref_pitch+0x2>
    1d1a:	90 93 2d 21 	sts	0x212D, r25	; 0x80212d <ref_pitch+0x3>
    1d1e:	0e 94 b6 05 	call	0xb6c	; 0xb6c <imu_heading>
    1d22:	60 93 32 21 	sts	0x2132, r22	; 0x802132 <ref_yaw>
    1d26:	70 93 33 21 	sts	0x2133, r23	; 0x802133 <ref_yaw+0x1>
    1d2a:	80 93 34 21 	sts	0x2134, r24	; 0x802134 <ref_yaw+0x2>
    1d2e:	90 93 35 21 	sts	0x2135, r25	; 0x802135 <ref_yaw+0x3>
    1d32:	08 95       	ret

00001d34 <calibrate>:
    1d34:	c3 df       	rcall	.-122    	; 0x1cbc <cali_alt>
    1d36:	df cf       	rjmp	.-66     	; 0x1cf6 <cali_ang>
    1d38:	08 95       	ret

00001d3a <packet>:
}

void packet(void){
    1d3a:	2f 92       	push	r2
    1d3c:	3f 92       	push	r3
    1d3e:	4f 92       	push	r4
    1d40:	5f 92       	push	r5
    1d42:	6f 92       	push	r6
    1d44:	7f 92       	push	r7
    1d46:	8f 92       	push	r8
    1d48:	9f 92       	push	r9
    1d4a:	af 92       	push	r10
    1d4c:	bf 92       	push	r11
    1d4e:	cf 92       	push	r12
    1d50:	df 92       	push	r13
    1d52:	ef 92       	push	r14
    1d54:	ff 92       	push	r15
    1d56:	0f 93       	push	r16
    1d58:	1f 93       	push	r17
    1d5a:	cf 93       	push	r28
    1d5c:	df 93       	push	r29
    1d5e:	cd b7       	in	r28, 0x3d	; 61
    1d60:	de b7       	in	r29, 0x3e	; 62
    1d62:	e9 97       	sbiw	r28, 0x39	; 57
    1d64:	cd bf       	out	0x3d, r28	; 61
    1d66:	de bf       	out	0x3e, r29	; 62
	//XBEE_spi_write(str);
	packets++;
    1d68:	80 91 1f 21 	lds	r24, 0x211F	; 0x80211f <packets>
    1d6c:	90 91 20 21 	lds	r25, 0x2120	; 0x802120 <packets+0x1>
    1d70:	01 96       	adiw	r24, 0x01	; 1
    1d72:	80 93 1f 21 	sts	0x211F, r24	; 0x80211f <packets>
    1d76:	90 93 20 21 	sts	0x2120, r25	; 0x802120 <packets+0x1>
	sprintf(str,format,timer/10,timer%10,packets,
    1d7a:	60 91 e9 20 	lds	r22, 0x20E9	; 0x8020e9 <angle>
    1d7e:	70 91 ea 20 	lds	r23, 0x20EA	; 0x8020ea <angle+0x1>
    1d82:	80 91 eb 20 	lds	r24, 0x20EB	; 0x8020eb <angle+0x2>
    1d86:	90 91 ec 20 	lds	r25, 0x20EC	; 0x8020ec <angle+0x3>
    1d8a:	20 91 46 21 	lds	r18, 0x2146	; 0x802146 <state>
    1d8e:	29 83       	std	Y+1, r18	; 0x01
    1d90:	40 90 ed 20 	lds	r4, 0x20ED	; 0x8020ed <rpm>
    1d94:	50 90 ee 20 	lds	r5, 0x20EE	; 0x8020ee <rpm+0x1>
    1d98:	60 90 ef 20 	lds	r6, 0x20EF	; 0x8020ef <rpm+0x2>
    1d9c:	70 90 f0 20 	lds	r7, 0x20F0	; 0x8020f0 <rpm+0x3>
    1da0:	80 90 f1 20 	lds	r8, 0x20F1	; 0x8020f1 <roll>
    1da4:	90 90 f2 20 	lds	r9, 0x20F2	; 0x8020f2 <roll+0x1>
    1da8:	a0 90 f3 20 	lds	r10, 0x20F3	; 0x8020f3 <roll+0x2>
    1dac:	b0 90 f4 20 	lds	r11, 0x20F4	; 0x8020f4 <roll+0x3>
    1db0:	c0 90 f5 20 	lds	r12, 0x20F5	; 0x8020f5 <pitch>
    1db4:	d0 90 f6 20 	lds	r13, 0x20F6	; 0x8020f6 <pitch+0x1>
    1db8:	e0 90 f7 20 	lds	r14, 0x20F7	; 0x8020f7 <pitch+0x2>
    1dbc:	f0 90 f8 20 	lds	r15, 0x20F8	; 0x8020f8 <pitch+0x3>
    1dc0:	40 91 f9 20 	lds	r20, 0x20F9	; 0x8020f9 <gps_sats>
    1dc4:	50 91 fa 20 	lds	r21, 0x20FA	; 0x8020fa <gps_sats+0x1>
    1dc8:	48 af       	std	Y+56, r20	; 0x38
    1dca:	59 af       	std	Y+57, r21	; 0x39
	(int16_t) (alt),						(int32_t) press,							(int16_t) (temp-273.15),				(int16_t)volt,
	(int16_t) (((int32_t)gps_t)/10000),		(int16_t) ((((int32_t)gps_t)%10000)/100),	(int16_t) (((int32_t)gps_t)%100),
	(int16_t) gps_lat,						((int32_t) (gps_lat*1000000))%1000000,		(int16_t) gps_long,						(int32_t)(abs(((int32_t)(gps_long*1000000))%1000000)),
	(int16_t) gps_alt,						((int16_t) (gps_alt)*10)%10,				gps_sats,
    1dcc:	20 91 fb 20 	lds	r18, 0x20FB	; 0x8020fb <gps_alt>
    1dd0:	30 91 fc 20 	lds	r19, 0x20FC	; 0x8020fc <gps_alt+0x1>
    1dd4:	40 91 fd 20 	lds	r20, 0x20FD	; 0x8020fd <gps_alt+0x2>
    1dd8:	50 91 fe 20 	lds	r21, 0x20FE	; 0x8020fe <gps_alt+0x3>
    1ddc:	2a 83       	std	Y+2, r18	; 0x02
    1dde:	3b 83       	std	Y+3, r19	; 0x03
    1de0:	4c 83       	std	Y+4, r20	; 0x04
    1de2:	5d 83       	std	Y+5, r21	; 0x05
}

void packet(void){
	//XBEE_spi_write(str);
	packets++;
	sprintf(str,format,timer/10,timer%10,packets,
    1de4:	20 91 fb 20 	lds	r18, 0x20FB	; 0x8020fb <gps_alt>
    1de8:	30 91 fc 20 	lds	r19, 0x20FC	; 0x8020fc <gps_alt+0x1>
    1dec:	40 91 fd 20 	lds	r20, 0x20FD	; 0x8020fd <gps_alt+0x2>
    1df0:	50 91 fe 20 	lds	r21, 0x20FE	; 0x8020fe <gps_alt+0x3>
    1df4:	2e 83       	std	Y+6, r18	; 0x06
    1df6:	3f 83       	std	Y+7, r19	; 0x07
    1df8:	48 87       	std	Y+8, r20	; 0x08
    1dfa:	59 87       	std	Y+9, r21	; 0x09
	(int16_t) (alt),						(int32_t) press,							(int16_t) (temp-273.15),				(int16_t)volt,
	(int16_t) (((int32_t)gps_t)/10000),		(int16_t) ((((int32_t)gps_t)%10000)/100),	(int16_t) (((int32_t)gps_t)%100),
	(int16_t) gps_lat,						((int32_t) (gps_lat*1000000))%1000000,		(int16_t) gps_long,						(int32_t)(abs(((int32_t)(gps_long*1000000))%1000000)),
    1dfc:	20 91 ff 20 	lds	r18, 0x20FF	; 0x8020ff <gps_long>
    1e00:	30 91 00 21 	lds	r19, 0x2100	; 0x802100 <gps_long+0x1>
    1e04:	40 91 01 21 	lds	r20, 0x2101	; 0x802101 <gps_long+0x2>
    1e08:	50 91 02 21 	lds	r21, 0x2102	; 0x802102 <gps_long+0x3>
    1e0c:	2a 87       	std	Y+10, r18	; 0x0a
    1e0e:	3b 87       	std	Y+11, r19	; 0x0b
    1e10:	4c 87       	std	Y+12, r20	; 0x0c
    1e12:	5d 87       	std	Y+13, r21	; 0x0d
}

void packet(void){
	//XBEE_spi_write(str);
	packets++;
	sprintf(str,format,timer/10,timer%10,packets,
    1e14:	20 91 ff 20 	lds	r18, 0x20FF	; 0x8020ff <gps_long>
    1e18:	30 91 00 21 	lds	r19, 0x2100	; 0x802100 <gps_long+0x1>
    1e1c:	40 91 01 21 	lds	r20, 0x2101	; 0x802101 <gps_long+0x2>
    1e20:	50 91 02 21 	lds	r21, 0x2102	; 0x802102 <gps_long+0x3>
    1e24:	2e 87       	std	Y+14, r18	; 0x0e
    1e26:	3f 87       	std	Y+15, r19	; 0x0f
    1e28:	48 8b       	std	Y+16, r20	; 0x10
    1e2a:	59 8b       	std	Y+17, r21	; 0x11
	(int16_t) (alt),						(int32_t) press,							(int16_t) (temp-273.15),				(int16_t)volt,
	(int16_t) (((int32_t)gps_t)/10000),		(int16_t) ((((int32_t)gps_t)%10000)/100),	(int16_t) (((int32_t)gps_t)%100),
	(int16_t) gps_lat,						((int32_t) (gps_lat*1000000))%1000000,		(int16_t) gps_long,						(int32_t)(abs(((int32_t)(gps_long*1000000))%1000000)),
    1e2c:	20 91 03 21 	lds	r18, 0x2103	; 0x802103 <gps_lat>
    1e30:	30 91 04 21 	lds	r19, 0x2104	; 0x802104 <gps_lat+0x1>
    1e34:	40 91 05 21 	lds	r20, 0x2105	; 0x802105 <gps_lat+0x2>
    1e38:	50 91 06 21 	lds	r21, 0x2106	; 0x802106 <gps_lat+0x3>
    1e3c:	2a 8b       	std	Y+18, r18	; 0x12
    1e3e:	3b 8b       	std	Y+19, r19	; 0x13
    1e40:	4c 8b       	std	Y+20, r20	; 0x14
    1e42:	5d 8b       	std	Y+21, r21	; 0x15
}

void packet(void){
	//XBEE_spi_write(str);
	packets++;
	sprintf(str,format,timer/10,timer%10,packets,
    1e44:	20 91 03 21 	lds	r18, 0x2103	; 0x802103 <gps_lat>
    1e48:	30 91 04 21 	lds	r19, 0x2104	; 0x802104 <gps_lat+0x1>
    1e4c:	40 91 05 21 	lds	r20, 0x2105	; 0x802105 <gps_lat+0x2>
    1e50:	50 91 06 21 	lds	r21, 0x2106	; 0x802106 <gps_lat+0x3>
    1e54:	2e 8b       	std	Y+22, r18	; 0x16
    1e56:	3f 8b       	std	Y+23, r19	; 0x17
    1e58:	48 8f       	std	Y+24, r20	; 0x18
    1e5a:	59 8f       	std	Y+25, r21	; 0x19
	(int16_t) (alt),						(int32_t) press,							(int16_t) (temp-273.15),				(int16_t)volt,
	(int16_t) (((int32_t)gps_t)/10000),		(int16_t) ((((int32_t)gps_t)%10000)/100),	(int16_t) (((int32_t)gps_t)%100),
    1e5c:	20 91 07 21 	lds	r18, 0x2107	; 0x802107 <gps_t>
    1e60:	30 91 08 21 	lds	r19, 0x2108	; 0x802108 <gps_t+0x1>
    1e64:	40 91 09 21 	lds	r20, 0x2109	; 0x802109 <gps_t+0x2>
    1e68:	50 91 0a 21 	lds	r21, 0x210A	; 0x80210a <gps_t+0x3>
    1e6c:	2a 8f       	std	Y+26, r18	; 0x1a
    1e6e:	3b 8f       	std	Y+27, r19	; 0x1b
    1e70:	4c 8f       	std	Y+28, r20	; 0x1c
    1e72:	5d 8f       	std	Y+29, r21	; 0x1d
    1e74:	20 91 07 21 	lds	r18, 0x2107	; 0x802107 <gps_t>
    1e78:	30 91 08 21 	lds	r19, 0x2108	; 0x802108 <gps_t+0x1>
    1e7c:	40 91 09 21 	lds	r20, 0x2109	; 0x802109 <gps_t+0x2>
    1e80:	50 91 0a 21 	lds	r21, 0x210A	; 0x80210a <gps_t+0x3>
    1e84:	2e 8f       	std	Y+30, r18	; 0x1e
    1e86:	3f 8f       	std	Y+31, r19	; 0x1f
    1e88:	48 a3       	std	Y+32, r20	; 0x20
    1e8a:	59 a3       	std	Y+33, r21	; 0x21
    1e8c:	20 91 07 21 	lds	r18, 0x2107	; 0x802107 <gps_t>
    1e90:	30 91 08 21 	lds	r19, 0x2108	; 0x802108 <gps_t+0x1>
    1e94:	40 91 09 21 	lds	r20, 0x2109	; 0x802109 <gps_t+0x2>
    1e98:	50 91 0a 21 	lds	r21, 0x210A	; 0x80210a <gps_t+0x3>
    1e9c:	2a a3       	std	Y+34, r18	; 0x22
    1e9e:	3b a3       	std	Y+35, r19	; 0x23
    1ea0:	4c a3       	std	Y+36, r20	; 0x24
    1ea2:	5d a3       	std	Y+37, r21	; 0x25
}

void packet(void){
	//XBEE_spi_write(str);
	packets++;
	sprintf(str,format,timer/10,timer%10,packets,
    1ea4:	20 91 0f 21 	lds	r18, 0x210F	; 0x80210f <volt>
    1ea8:	30 91 10 21 	lds	r19, 0x2110	; 0x802110 <volt+0x1>
    1eac:	40 91 11 21 	lds	r20, 0x2111	; 0x802111 <volt+0x2>
    1eb0:	50 91 12 21 	lds	r21, 0x2112	; 0x802112 <volt+0x3>
    1eb4:	2e a3       	std	Y+38, r18	; 0x26
    1eb6:	3f a3       	std	Y+39, r19	; 0x27
    1eb8:	48 a7       	std	Y+40, r20	; 0x28
    1eba:	59 a7       	std	Y+41, r21	; 0x29
	(int16_t) (alt),						(int32_t) press,							(int16_t) (temp-273.15),				(int16_t)volt,
    1ebc:	20 91 17 21 	lds	r18, 0x2117	; 0x802117 <temp>
    1ec0:	30 91 18 21 	lds	r19, 0x2118	; 0x802118 <temp+0x1>
    1ec4:	40 91 19 21 	lds	r20, 0x2119	; 0x802119 <temp+0x2>
    1ec8:	50 91 1a 21 	lds	r21, 0x211A	; 0x80211a <temp+0x3>
    1ecc:	2a a7       	std	Y+42, r18	; 0x2a
    1ece:	3b a7       	std	Y+43, r19	; 0x2b
    1ed0:	4c a7       	std	Y+44, r20	; 0x2c
    1ed2:	5d a7       	std	Y+45, r21	; 0x2d
}

void packet(void){
	//XBEE_spi_write(str);
	packets++;
	sprintf(str,format,timer/10,timer%10,packets,
    1ed4:	20 91 1b 21 	lds	r18, 0x211B	; 0x80211b <press>
    1ed8:	30 91 1c 21 	lds	r19, 0x211C	; 0x80211c <press+0x1>
    1edc:	40 91 1d 21 	lds	r20, 0x211D	; 0x80211d <press+0x2>
    1ee0:	50 91 1e 21 	lds	r21, 0x211E	; 0x80211e <press+0x3>
    1ee4:	2e a7       	std	Y+46, r18	; 0x2e
    1ee6:	3f a7       	std	Y+47, r19	; 0x2f
    1ee8:	48 ab       	std	Y+48, r20	; 0x30
    1eea:	59 ab       	std	Y+49, r21	; 0x31
    1eec:	20 91 13 21 	lds	r18, 0x2113	; 0x802113 <alt>
    1ef0:	30 91 14 21 	lds	r19, 0x2114	; 0x802114 <alt+0x1>
    1ef4:	40 91 15 21 	lds	r20, 0x2115	; 0x802115 <alt+0x2>
    1ef8:	50 91 16 21 	lds	r21, 0x2116	; 0x802116 <alt+0x3>
    1efc:	2a ab       	std	Y+50, r18	; 0x32
    1efe:	3b ab       	std	Y+51, r19	; 0x33
    1f00:	4c ab       	std	Y+52, r20	; 0x34
    1f02:	5d ab       	std	Y+53, r21	; 0x35
    1f04:	00 91 1f 21 	lds	r16, 0x211F	; 0x80211f <packets>
    1f08:	10 91 20 21 	lds	r17, 0x2120	; 0x802120 <packets+0x1>
    1f0c:	20 90 23 21 	lds	r2, 0x2123	; 0x802123 <timer>
    1f10:	30 90 24 21 	lds	r3, 0x2124	; 0x802124 <timer+0x1>
    1f14:	40 91 23 21 	lds	r20, 0x2123	; 0x802123 <timer>
    1f18:	50 91 24 21 	lds	r21, 0x2124	; 0x802124 <timer+0x1>
    1f1c:	4e ab       	std	Y+54, r20	; 0x36
    1f1e:	5f ab       	std	Y+55, r21	; 0x37
    1f20:	0e 94 5d 1c 	call	0x38ba	; 0x38ba <__fixsfsi>
    1f24:	7f 93       	push	r23
    1f26:	6f 93       	push	r22
    1f28:	1f 92       	push	r1
    1f2a:	59 81       	ldd	r21, Y+1	; 0x01
    1f2c:	5f 93       	push	r21
    1f2e:	c3 01       	movw	r24, r6
    1f30:	b2 01       	movw	r22, r4
    1f32:	0e 94 5d 1c 	call	0x38ba	; 0x38ba <__fixsfsi>
    1f36:	7f 93       	push	r23
    1f38:	6f 93       	push	r22
    1f3a:	c5 01       	movw	r24, r10
    1f3c:	b4 01       	movw	r22, r8
    1f3e:	0e 94 5d 1c 	call	0x38ba	; 0x38ba <__fixsfsi>
    1f42:	7f 93       	push	r23
    1f44:	6f 93       	push	r22
    1f46:	c7 01       	movw	r24, r14
    1f48:	b6 01       	movw	r22, r12
    1f4a:	0e 94 5d 1c 	call	0x38ba	; 0x38ba <__fixsfsi>
    1f4e:	7f 93       	push	r23
    1f50:	6f 93       	push	r22
    1f52:	89 ad       	ldd	r24, Y+57	; 0x39
    1f54:	8f 93       	push	r24
    1f56:	98 ad       	ldd	r25, Y+56	; 0x38
    1f58:	9f 93       	push	r25
    1f5a:	6a 81       	ldd	r22, Y+2	; 0x02
    1f5c:	7b 81       	ldd	r23, Y+3	; 0x03
    1f5e:	8c 81       	ldd	r24, Y+4	; 0x04
    1f60:	9d 81       	ldd	r25, Y+5	; 0x05
    1f62:	0e 94 5d 1c 	call	0x38ba	; 0x38ba <__fixsfsi>
    1f66:	9b 01       	movw	r18, r22
    1f68:	22 0f       	add	r18, r18
    1f6a:	33 1f       	adc	r19, r19
    1f6c:	66 0f       	add	r22, r22
    1f6e:	77 1f       	adc	r23, r23
    1f70:	66 0f       	add	r22, r22
    1f72:	77 1f       	adc	r23, r23
    1f74:	66 0f       	add	r22, r22
    1f76:	77 1f       	adc	r23, r23
    1f78:	c9 01       	movw	r24, r18
    1f7a:	86 0f       	add	r24, r22
    1f7c:	97 1f       	adc	r25, r23
    1f7e:	6a e0       	ldi	r22, 0x0A	; 10
    1f80:	70 e0       	ldi	r23, 0x00	; 0
    1f82:	0e 94 2f 1f 	call	0x3e5e	; 0x3e5e <__divmodhi4>
    1f86:	9f 93       	push	r25
    1f88:	8f 93       	push	r24
    1f8a:	6e 81       	ldd	r22, Y+6	; 0x06
    1f8c:	7f 81       	ldd	r23, Y+7	; 0x07
    1f8e:	88 85       	ldd	r24, Y+8	; 0x08
    1f90:	99 85       	ldd	r25, Y+9	; 0x09
    1f92:	0e 94 5d 1c 	call	0x38ba	; 0x38ba <__fixsfsi>
    1f96:	7f 93       	push	r23
    1f98:	6f 93       	push	r22
    1f9a:	20 e0       	ldi	r18, 0x00	; 0
    1f9c:	34 e2       	ldi	r19, 0x24	; 36
    1f9e:	44 e7       	ldi	r20, 0x74	; 116
    1fa0:	59 e4       	ldi	r21, 0x49	; 73
    1fa2:	6a 85       	ldd	r22, Y+10	; 0x0a
    1fa4:	7b 85       	ldd	r23, Y+11	; 0x0b
    1fa6:	8c 85       	ldd	r24, Y+12	; 0x0c
    1fa8:	9d 85       	ldd	r25, Y+13	; 0x0d
    1faa:	0e 94 44 1d 	call	0x3a88	; 0x3a88 <__mulsf3>
    1fae:	0e 94 5d 1c 	call	0x38ba	; 0x38ba <__fixsfsi>
    1fb2:	20 e4       	ldi	r18, 0x40	; 64
    1fb4:	32 e4       	ldi	r19, 0x42	; 66
    1fb6:	4f e0       	ldi	r20, 0x0F	; 15
    1fb8:	50 e0       	ldi	r21, 0x00	; 0
    1fba:	0e 94 64 1f 	call	0x3ec8	; 0x3ec8 <__divmodsi4>
    1fbe:	9b 01       	movw	r18, r22
    1fc0:	77 23       	and	r23, r23
    1fc2:	24 f4       	brge	.+8      	; 0x1fcc <packet+0x292>
    1fc4:	22 27       	eor	r18, r18
    1fc6:	33 27       	eor	r19, r19
    1fc8:	26 1b       	sub	r18, r22
    1fca:	37 0b       	sbc	r19, r23
    1fcc:	c9 01       	movw	r24, r18
    1fce:	33 0f       	add	r19, r19
    1fd0:	aa 0b       	sbc	r26, r26
    1fd2:	bb 0b       	sbc	r27, r27
    1fd4:	bf 93       	push	r27
    1fd6:	af 93       	push	r26
    1fd8:	9f 93       	push	r25
    1fda:	8f 93       	push	r24
    1fdc:	6e 85       	ldd	r22, Y+14	; 0x0e
    1fde:	7f 85       	ldd	r23, Y+15	; 0x0f
    1fe0:	88 89       	ldd	r24, Y+16	; 0x10
    1fe2:	99 89       	ldd	r25, Y+17	; 0x11
    1fe4:	0e 94 5d 1c 	call	0x38ba	; 0x38ba <__fixsfsi>
    1fe8:	7f 93       	push	r23
    1fea:	6f 93       	push	r22
    1fec:	20 e0       	ldi	r18, 0x00	; 0
    1fee:	34 e2       	ldi	r19, 0x24	; 36
    1ff0:	44 e7       	ldi	r20, 0x74	; 116
    1ff2:	59 e4       	ldi	r21, 0x49	; 73
    1ff4:	6a 89       	ldd	r22, Y+18	; 0x12
    1ff6:	7b 89       	ldd	r23, Y+19	; 0x13
    1ff8:	8c 89       	ldd	r24, Y+20	; 0x14
    1ffa:	9d 89       	ldd	r25, Y+21	; 0x15
    1ffc:	0e 94 44 1d 	call	0x3a88	; 0x3a88 <__mulsf3>
    2000:	0e 94 5d 1c 	call	0x38ba	; 0x38ba <__fixsfsi>
    2004:	20 e4       	ldi	r18, 0x40	; 64
    2006:	32 e4       	ldi	r19, 0x42	; 66
    2008:	4f e0       	ldi	r20, 0x0F	; 15
    200a:	50 e0       	ldi	r21, 0x00	; 0
    200c:	0e 94 64 1f 	call	0x3ec8	; 0x3ec8 <__divmodsi4>
    2010:	9f 93       	push	r25
    2012:	8f 93       	push	r24
    2014:	7f 93       	push	r23
    2016:	6f 93       	push	r22
    2018:	6e 89       	ldd	r22, Y+22	; 0x16
    201a:	7f 89       	ldd	r23, Y+23	; 0x17
    201c:	88 8d       	ldd	r24, Y+24	; 0x18
    201e:	99 8d       	ldd	r25, Y+25	; 0x19
    2020:	0e 94 5d 1c 	call	0x38ba	; 0x38ba <__fixsfsi>
    2024:	7f 93       	push	r23
    2026:	6f 93       	push	r22
    2028:	6a 8d       	ldd	r22, Y+26	; 0x1a
    202a:	7b 8d       	ldd	r23, Y+27	; 0x1b
    202c:	8c 8d       	ldd	r24, Y+28	; 0x1c
    202e:	9d 8d       	ldd	r25, Y+29	; 0x1d
    2030:	0e 94 5d 1c 	call	0x38ba	; 0x38ba <__fixsfsi>
    2034:	0f 2e       	mov	r0, r31
    2036:	f4 e6       	ldi	r31, 0x64	; 100
    2038:	cf 2e       	mov	r12, r31
    203a:	d1 2c       	mov	r13, r1
    203c:	e1 2c       	mov	r14, r1
    203e:	f1 2c       	mov	r15, r1
    2040:	f0 2d       	mov	r31, r0
    2042:	a7 01       	movw	r20, r14
    2044:	96 01       	movw	r18, r12
    2046:	0e 94 64 1f 	call	0x3ec8	; 0x3ec8 <__divmodsi4>
    204a:	7f 93       	push	r23
    204c:	6f 93       	push	r22
    204e:	6e 8d       	ldd	r22, Y+30	; 0x1e
    2050:	7f 8d       	ldd	r23, Y+31	; 0x1f
    2052:	88 a1       	ldd	r24, Y+32	; 0x20
    2054:	99 a1       	ldd	r25, Y+33	; 0x21
    2056:	0e 94 5d 1c 	call	0x38ba	; 0x38ba <__fixsfsi>
    205a:	0f 2e       	mov	r0, r31
    205c:	f0 e1       	ldi	r31, 0x10	; 16
    205e:	8f 2e       	mov	r8, r31
    2060:	f7 e2       	ldi	r31, 0x27	; 39
    2062:	9f 2e       	mov	r9, r31
    2064:	a1 2c       	mov	r10, r1
    2066:	b1 2c       	mov	r11, r1
    2068:	f0 2d       	mov	r31, r0
    206a:	a5 01       	movw	r20, r10
    206c:	94 01       	movw	r18, r8
    206e:	0e 94 64 1f 	call	0x3ec8	; 0x3ec8 <__divmodsi4>
    2072:	a7 01       	movw	r20, r14
    2074:	96 01       	movw	r18, r12
    2076:	0e 94 64 1f 	call	0x3ec8	; 0x3ec8 <__divmodsi4>
    207a:	3f 93       	push	r19
    207c:	2f 93       	push	r18
    207e:	6a a1       	ldd	r22, Y+34	; 0x22
    2080:	7b a1       	ldd	r23, Y+35	; 0x23
    2082:	8c a1       	ldd	r24, Y+36	; 0x24
    2084:	9d a1       	ldd	r25, Y+37	; 0x25
    2086:	0e 94 5d 1c 	call	0x38ba	; 0x38ba <__fixsfsi>
    208a:	a5 01       	movw	r20, r10
    208c:	94 01       	movw	r18, r8
    208e:	0e 94 64 1f 	call	0x3ec8	; 0x3ec8 <__divmodsi4>
    2092:	3f 93       	push	r19
    2094:	2f 93       	push	r18
    2096:	6e a1       	ldd	r22, Y+38	; 0x26
    2098:	7f a1       	ldd	r23, Y+39	; 0x27
    209a:	88 a5       	ldd	r24, Y+40	; 0x28
    209c:	99 a5       	ldd	r25, Y+41	; 0x29
    209e:	0e 94 5d 1c 	call	0x38ba	; 0x38ba <__fixsfsi>
    20a2:	7f 93       	push	r23
    20a4:	6f 93       	push	r22
    20a6:	23 e3       	ldi	r18, 0x33	; 51
    20a8:	33 e9       	ldi	r19, 0x93	; 147
    20aa:	48 e8       	ldi	r20, 0x88	; 136
    20ac:	53 e4       	ldi	r21, 0x43	; 67
    20ae:	6a a5       	ldd	r22, Y+42	; 0x2a
    20b0:	7b a5       	ldd	r23, Y+43	; 0x2b
    20b2:	8c a5       	ldd	r24, Y+44	; 0x2c
    20b4:	9d a5       	ldd	r25, Y+45	; 0x2d
    20b6:	0e 94 8c 1b 	call	0x3718	; 0x3718 <__subsf3>
    20ba:	0e 94 5d 1c 	call	0x38ba	; 0x38ba <__fixsfsi>
    20be:	7f 93       	push	r23
    20c0:	6f 93       	push	r22
    20c2:	6e a5       	ldd	r22, Y+46	; 0x2e
    20c4:	7f a5       	ldd	r23, Y+47	; 0x2f
    20c6:	88 a9       	ldd	r24, Y+48	; 0x30
    20c8:	99 a9       	ldd	r25, Y+49	; 0x31
    20ca:	0e 94 5d 1c 	call	0x38ba	; 0x38ba <__fixsfsi>
    20ce:	9f 93       	push	r25
    20d0:	8f 93       	push	r24
    20d2:	7f 93       	push	r23
    20d4:	6f 93       	push	r22
    20d6:	6a a9       	ldd	r22, Y+50	; 0x32
    20d8:	7b a9       	ldd	r23, Y+51	; 0x33
    20da:	8c a9       	ldd	r24, Y+52	; 0x34
    20dc:	9d a9       	ldd	r25, Y+53	; 0x35
    20de:	0e 94 5d 1c 	call	0x38ba	; 0x38ba <__fixsfsi>
    20e2:	7f 93       	push	r23
    20e4:	6f 93       	push	r22
    20e6:	1f 93       	push	r17
    20e8:	0f 93       	push	r16
    20ea:	91 01       	movw	r18, r2
    20ec:	ad ec       	ldi	r26, 0xCD	; 205
    20ee:	bc ec       	ldi	r27, 0xCC	; 204
    20f0:	0e 94 89 1f 	call	0x3f12	; 0x3f12 <__umulhisi3>
    20f4:	96 95       	lsr	r25
    20f6:	87 95       	ror	r24
    20f8:	96 95       	lsr	r25
    20fa:	87 95       	ror	r24
    20fc:	96 95       	lsr	r25
    20fe:	87 95       	ror	r24
    2100:	9c 01       	movw	r18, r24
    2102:	22 0f       	add	r18, r18
    2104:	33 1f       	adc	r19, r19
    2106:	88 0f       	add	r24, r24
    2108:	99 1f       	adc	r25, r25
    210a:	88 0f       	add	r24, r24
    210c:	99 1f       	adc	r25, r25
    210e:	88 0f       	add	r24, r24
    2110:	99 1f       	adc	r25, r25
    2112:	82 0f       	add	r24, r18
    2114:	93 1f       	adc	r25, r19
    2116:	28 1a       	sub	r2, r24
    2118:	39 0a       	sbc	r3, r25
    211a:	3f 92       	push	r3
    211c:	2f 92       	push	r2
    211e:	2e a9       	ldd	r18, Y+54	; 0x36
    2120:	3f a9       	ldd	r19, Y+55	; 0x37
    2122:	0e 94 89 1f 	call	0x3f12	; 0x3f12 <__umulhisi3>
    2126:	96 95       	lsr	r25
    2128:	87 95       	ror	r24
    212a:	96 95       	lsr	r25
    212c:	87 95       	ror	r24
    212e:	96 95       	lsr	r25
    2130:	87 95       	ror	r24
    2132:	9f 93       	push	r25
    2134:	8f 93       	push	r24
    2136:	80 91 16 20 	lds	r24, 0x2016	; 0x802016 <format+0x1>
    213a:	8f 93       	push	r24
    213c:	80 91 15 20 	lds	r24, 0x2015	; 0x802015 <format>
    2140:	8f 93       	push	r24
    2142:	2e e8       	ldi	r18, 0x8E	; 142
    2144:	31 e2       	ldi	r19, 0x21	; 33
    2146:	3f 93       	push	r19
    2148:	2f 93       	push	r18
    214a:	0e 94 66 20 	call	0x40cc	; 0x40cc <sprintf>
	(int16_t) (((int32_t)gps_t)/10000),		(int16_t) ((((int32_t)gps_t)%10000)/100),	(int16_t) (((int32_t)gps_t)%100),
	(int16_t) gps_lat,						((int32_t) (gps_lat*1000000))%1000000,		(int16_t) gps_long,						(int32_t)(abs(((int32_t)(gps_long*1000000))%1000000)),
	(int16_t) gps_alt,						((int16_t) (gps_alt)*10)%10,				gps_sats,
	(int16_t) pitch,						(int16_t) roll,								(int16_t) rpm,
	state,									(int16_t) angle); // Data Logging Test
	printf(str);
    214e:	cd bf       	out	0x3d, r28	; 61
    2150:	de bf       	out	0x3e, r29	; 62
    2152:	2e e8       	ldi	r18, 0x8E	; 142
    2154:	31 e2       	ldi	r19, 0x21	; 33
    2156:	3f 93       	push	r19
    2158:	2f 93       	push	r18
    215a:	0e 94 23 20 	call	0x4046	; 0x4046 <printf>
}
    215e:	0f 90       	pop	r0
    2160:	0f 90       	pop	r0
    2162:	e9 96       	adiw	r28, 0x39	; 57
    2164:	cd bf       	out	0x3d, r28	; 61
    2166:	de bf       	out	0x3e, r29	; 62
    2168:	df 91       	pop	r29
    216a:	cf 91       	pop	r28
    216c:	1f 91       	pop	r17
    216e:	0f 91       	pop	r16
    2170:	ff 90       	pop	r15
    2172:	ef 90       	pop	r14
    2174:	df 90       	pop	r13
    2176:	cf 90       	pop	r12
    2178:	bf 90       	pop	r11
    217a:	af 90       	pop	r10
    217c:	9f 90       	pop	r9
    217e:	8f 90       	pop	r8
    2180:	7f 90       	pop	r7
    2182:	6f 90       	pop	r6
    2184:	5f 90       	pop	r5
    2186:	4f 90       	pop	r4
    2188:	3f 90       	pop	r3
    218a:	2f 90       	pop	r2
    218c:	08 95       	ret

0000218e <eeprom_write_const>:

void eeprom_write_const(void){
    218e:	4f 92       	push	r4
    2190:	5f 92       	push	r5
    2192:	6f 92       	push	r6
    2194:	7f 92       	push	r7
    2196:	8f 92       	push	r8
    2198:	9f 92       	push	r9
    219a:	af 92       	push	r10
    219c:	bf 92       	push	r11
    219e:	cf 92       	push	r12
    21a0:	df 92       	push	r13
    21a2:	ef 92       	push	r14
    21a4:	ff 92       	push	r15
    21a6:	0f 93       	push	r16
    21a8:	1f 93       	push	r17
    21aa:	cf 93       	push	r28
    21ac:	df 93       	push	r29
    21ae:	cd b7       	in	r28, 0x3d	; 61
    21b0:	de b7       	in	r29, 0x3e	; 62
    21b2:	a0 97       	sbiw	r28, 0x20	; 32
    21b4:	cd bf       	out	0x3d, r28	; 61
    21b6:	de bf       	out	0x3e, r29	; 62
	uint64_t p = 0;
	uint64_t t = 0;
	
	memcpy(&p, &ground_p, 8);
    21b8:	ab e2       	ldi	r26, 0x2B	; 43
    21ba:	b0 e2       	ldi	r27, 0x20	; 32
    21bc:	fc 91       	ld	r31, X
    21be:	11 96       	adiw	r26, 0x01	; 1
    21c0:	5c 90       	ld	r5, X
    21c2:	11 97       	sbiw	r26, 0x01	; 1
    21c4:	12 96       	adiw	r26, 0x02	; 2
    21c6:	6c 90       	ld	r6, X
    21c8:	12 97       	sbiw	r26, 0x02	; 2
    21ca:	13 96       	adiw	r26, 0x03	; 3
    21cc:	7c 90       	ld	r7, X
    21ce:	13 97       	sbiw	r26, 0x03	; 3
    21d0:	14 96       	adiw	r26, 0x04	; 4
    21d2:	8c 90       	ld	r8, X
    21d4:	14 97       	sbiw	r26, 0x04	; 4
    21d6:	15 96       	adiw	r26, 0x05	; 5
    21d8:	9c 90       	ld	r9, X
    21da:	15 97       	sbiw	r26, 0x05	; 5
    21dc:	16 96       	adiw	r26, 0x06	; 6
    21de:	ac 90       	ld	r10, X
    21e0:	16 97       	sbiw	r26, 0x06	; 6
    21e2:	17 96       	adiw	r26, 0x07	; 7
    21e4:	4c 90       	ld	r4, X
	memcpy(&t, &ground_t, 8);
    21e6:	a7 e2       	ldi	r26, 0x27	; 39
    21e8:	b0 e2       	ldi	r27, 0x20	; 32
    21ea:	ec 91       	ld	r30, X
    21ec:	11 96       	adiw	r26, 0x01	; 1
    21ee:	bc 90       	ld	r11, X
    21f0:	11 97       	sbiw	r26, 0x01	; 1
    21f2:	12 96       	adiw	r26, 0x02	; 2
    21f4:	cc 90       	ld	r12, X
    21f6:	12 97       	sbiw	r26, 0x02	; 2
    21f8:	13 96       	adiw	r26, 0x03	; 3
    21fa:	dc 90       	ld	r13, X
    21fc:	13 97       	sbiw	r26, 0x03	; 3
    21fe:	14 96       	adiw	r26, 0x04	; 4
    2200:	ec 90       	ld	r14, X
    2202:	14 97       	sbiw	r26, 0x04	; 4
    2204:	15 96       	adiw	r26, 0x05	; 5
    2206:	fc 90       	ld	r15, X
    2208:	15 97       	sbiw	r26, 0x05	; 5
    220a:	16 96       	adiw	r26, 0x06	; 6
    220c:	1c 91       	ld	r17, X
    220e:	16 97       	sbiw	r26, 0x06	; 6
    2210:	17 96       	adiw	r26, 0x07	; 7
    2212:	ac 91       	ld	r26, X

	uint8_t data[] = {p & 0xFF, (p >> 8) & 0xFF, (p >> 16) & 0xFF, (p >> 24) & 0xFF, (p >> 32) & 0xFF, (p >> 40) & 0xFF, (p >> 48) & 0xFF, p >> 56,
    2214:	f9 83       	std	Y+1, r31	; 0x01
    2216:	2f 2f       	mov	r18, r31
    2218:	35 2d       	mov	r19, r5
    221a:	46 2d       	mov	r20, r6
    221c:	57 2d       	mov	r21, r7
    221e:	68 2d       	mov	r22, r8
    2220:	79 2d       	mov	r23, r9
    2222:	8a 2d       	mov	r24, r10
    2224:	94 2d       	mov	r25, r4
    2226:	08 e0       	ldi	r16, 0x08	; 8
    2228:	0e 94 bd 1f 	call	0x3f7a	; 0x3f7a <__lshrdi3>
    222c:	2a 83       	std	Y+2, r18	; 0x02
    222e:	2f 2f       	mov	r18, r31
    2230:	35 2d       	mov	r19, r5
    2232:	46 2d       	mov	r20, r6
    2234:	57 2d       	mov	r21, r7
    2236:	68 2d       	mov	r22, r8
    2238:	79 2d       	mov	r23, r9
    223a:	8a 2d       	mov	r24, r10
    223c:	94 2d       	mov	r25, r4
    223e:	00 e1       	ldi	r16, 0x10	; 16
    2240:	0e 94 bd 1f 	call	0x3f7a	; 0x3f7a <__lshrdi3>
    2244:	2b 83       	std	Y+3, r18	; 0x03
    2246:	2f 2f       	mov	r18, r31
    2248:	35 2d       	mov	r19, r5
    224a:	46 2d       	mov	r20, r6
    224c:	57 2d       	mov	r21, r7
    224e:	68 2d       	mov	r22, r8
    2250:	79 2d       	mov	r23, r9
    2252:	8a 2d       	mov	r24, r10
    2254:	94 2d       	mov	r25, r4
    2256:	08 e1       	ldi	r16, 0x18	; 24
    2258:	0e 94 bd 1f 	call	0x3f7a	; 0x3f7a <__lshrdi3>
    225c:	2c 83       	std	Y+4, r18	; 0x04
    225e:	2f 2f       	mov	r18, r31
    2260:	35 2d       	mov	r19, r5
    2262:	46 2d       	mov	r20, r6
    2264:	57 2d       	mov	r21, r7
    2266:	68 2d       	mov	r22, r8
    2268:	79 2d       	mov	r23, r9
    226a:	8a 2d       	mov	r24, r10
    226c:	94 2d       	mov	r25, r4
    226e:	00 e2       	ldi	r16, 0x20	; 32
    2270:	0e 94 bd 1f 	call	0x3f7a	; 0x3f7a <__lshrdi3>
    2274:	2d 83       	std	Y+5, r18	; 0x05
    2276:	2f 2f       	mov	r18, r31
    2278:	35 2d       	mov	r19, r5
    227a:	46 2d       	mov	r20, r6
    227c:	57 2d       	mov	r21, r7
    227e:	68 2d       	mov	r22, r8
    2280:	79 2d       	mov	r23, r9
    2282:	8a 2d       	mov	r24, r10
    2284:	94 2d       	mov	r25, r4
    2286:	08 e2       	ldi	r16, 0x28	; 40
    2288:	0e 94 bd 1f 	call	0x3f7a	; 0x3f7a <__lshrdi3>
    228c:	2e 83       	std	Y+6, r18	; 0x06
    228e:	2f 2f       	mov	r18, r31
    2290:	35 2d       	mov	r19, r5
    2292:	46 2d       	mov	r20, r6
    2294:	57 2d       	mov	r21, r7
    2296:	68 2d       	mov	r22, r8
    2298:	79 2d       	mov	r23, r9
    229a:	8a 2d       	mov	r24, r10
    229c:	94 2d       	mov	r25, r4
    229e:	00 e3       	ldi	r16, 0x30	; 48
    22a0:	0e 94 bd 1f 	call	0x3f7a	; 0x3f7a <__lshrdi3>
    22a4:	2f 83       	std	Y+7, r18	; 0x07
    22a6:	2f 2f       	mov	r18, r31
    22a8:	35 2d       	mov	r19, r5
    22aa:	46 2d       	mov	r20, r6
    22ac:	57 2d       	mov	r21, r7
    22ae:	68 2d       	mov	r22, r8
    22b0:	79 2d       	mov	r23, r9
    22b2:	8a 2d       	mov	r24, r10
    22b4:	94 2d       	mov	r25, r4
    22b6:	08 e3       	ldi	r16, 0x38	; 56
    22b8:	0e 94 bd 1f 	call	0x3f7a	; 0x3f7a <__lshrdi3>
    22bc:	28 87       	std	Y+8, r18	; 0x08
    22be:	e9 87       	std	Y+9, r30	; 0x09
    22c0:	2e 2f       	mov	r18, r30
    22c2:	3b 2d       	mov	r19, r11
    22c4:	4c 2d       	mov	r20, r12
    22c6:	5d 2d       	mov	r21, r13
    22c8:	6e 2d       	mov	r22, r14
    22ca:	7f 2d       	mov	r23, r15
    22cc:	81 2f       	mov	r24, r17
    22ce:	9a 2f       	mov	r25, r26
    22d0:	08 e0       	ldi	r16, 0x08	; 8
    22d2:	0e 94 bd 1f 	call	0x3f7a	; 0x3f7a <__lshrdi3>
    22d6:	2a 87       	std	Y+10, r18	; 0x0a
    22d8:	2e 2f       	mov	r18, r30
    22da:	3b 2d       	mov	r19, r11
    22dc:	4c 2d       	mov	r20, r12
    22de:	5d 2d       	mov	r21, r13
    22e0:	6e 2d       	mov	r22, r14
    22e2:	7f 2d       	mov	r23, r15
    22e4:	81 2f       	mov	r24, r17
    22e6:	9a 2f       	mov	r25, r26
    22e8:	00 e1       	ldi	r16, 0x10	; 16
    22ea:	0e 94 bd 1f 	call	0x3f7a	; 0x3f7a <__lshrdi3>
    22ee:	2b 87       	std	Y+11, r18	; 0x0b
    22f0:	2e 2f       	mov	r18, r30
    22f2:	3b 2d       	mov	r19, r11
    22f4:	4c 2d       	mov	r20, r12
    22f6:	5d 2d       	mov	r21, r13
    22f8:	6e 2d       	mov	r22, r14
    22fa:	7f 2d       	mov	r23, r15
    22fc:	81 2f       	mov	r24, r17
    22fe:	9a 2f       	mov	r25, r26
    2300:	08 e1       	ldi	r16, 0x18	; 24
    2302:	0e 94 bd 1f 	call	0x3f7a	; 0x3f7a <__lshrdi3>
    2306:	2c 87       	std	Y+12, r18	; 0x0c
    2308:	2e 2f       	mov	r18, r30
    230a:	3b 2d       	mov	r19, r11
    230c:	4c 2d       	mov	r20, r12
    230e:	5d 2d       	mov	r21, r13
    2310:	6e 2d       	mov	r22, r14
    2312:	7f 2d       	mov	r23, r15
    2314:	81 2f       	mov	r24, r17
    2316:	9a 2f       	mov	r25, r26
    2318:	00 e2       	ldi	r16, 0x20	; 32
    231a:	0e 94 bd 1f 	call	0x3f7a	; 0x3f7a <__lshrdi3>
    231e:	2d 87       	std	Y+13, r18	; 0x0d
    2320:	2e 2f       	mov	r18, r30
    2322:	3b 2d       	mov	r19, r11
    2324:	4c 2d       	mov	r20, r12
    2326:	5d 2d       	mov	r21, r13
    2328:	6e 2d       	mov	r22, r14
    232a:	7f 2d       	mov	r23, r15
    232c:	81 2f       	mov	r24, r17
    232e:	9a 2f       	mov	r25, r26
    2330:	08 e2       	ldi	r16, 0x28	; 40
    2332:	0e 94 bd 1f 	call	0x3f7a	; 0x3f7a <__lshrdi3>
    2336:	2e 87       	std	Y+14, r18	; 0x0e
    2338:	2e 2f       	mov	r18, r30
    233a:	3b 2d       	mov	r19, r11
    233c:	4c 2d       	mov	r20, r12
    233e:	5d 2d       	mov	r21, r13
    2340:	6e 2d       	mov	r22, r14
    2342:	7f 2d       	mov	r23, r15
    2344:	81 2f       	mov	r24, r17
    2346:	9a 2f       	mov	r25, r26
    2348:	00 e3       	ldi	r16, 0x30	; 48
    234a:	0e 94 bd 1f 	call	0x3f7a	; 0x3f7a <__lshrdi3>
    234e:	2f 87       	std	Y+15, r18	; 0x0f
    2350:	2e 2f       	mov	r18, r30
    2352:	3b 2d       	mov	r19, r11
    2354:	4c 2d       	mov	r20, r12
    2356:	5d 2d       	mov	r21, r13
    2358:	6e 2d       	mov	r22, r14
    235a:	7f 2d       	mov	r23, r15
    235c:	81 2f       	mov	r24, r17
    235e:	9a 2f       	mov	r25, r26
    2360:	08 e3       	ldi	r16, 0x38	; 56
    2362:	0e 94 bd 1f 	call	0x3f7a	; 0x3f7a <__lshrdi3>
    2366:	28 8b       	std	Y+16, r18	; 0x10
					  t & 0xFF, (t >> 8) & 0xFF, (t >> 16) & 0xFF, (t >> 24) & 0xFF, (t >> 32) & 0xFF, (t >> 40) & 0xFF, (t >> 48) & 0xFF, t >> 56,};
	uint8_t addresses[] = {	GROUND_PRESS_ADDR0, GROUND_PRESS_ADDR1, GROUND_PRESS_ADDR2, GROUND_PRESS_ADDR3, GROUND_PRESS_ADDR4, GROUND_PRESS_ADDR5, GROUND_PRESS_ADDR6, GROUND_PRESS_ADDR7,
    2368:	80 e1       	ldi	r24, 0x10	; 16
    236a:	ef e2       	ldi	r30, 0x2F	; 47
    236c:	f0 e2       	ldi	r31, 0x20	; 32
    236e:	de 01       	movw	r26, r28
    2370:	51 96       	adiw	r26, 0x11	; 17
    2372:	01 90       	ld	r0, Z+
    2374:	0d 92       	st	X+, r0
    2376:	8a 95       	dec	r24
    2378:	e1 f7       	brne	.-8      	; 0x2372 <eeprom_write_const+0x1e4>
							GROUND_TEMP_ADDR0,  GROUND_TEMP_ADDR1,  GROUND_TEMP_ADDR2,  GROUND_TEMP_ADDR3,  GROUND_TEMP_ADDR4,  GROUND_TEMP_ADDR5,  GROUND_TEMP_ADDR6,  GROUND_TEMP_ADDR7};

	NVM.CMD = LOAD_BUFFER_CMD;
    237a:	83 e3       	ldi	r24, 0x33	; 51
    237c:	80 93 ca 01 	sts	0x01CA, r24	; 0x8001ca <__TEXT_REGION_LENGTH__+0x7001ca>
    2380:	fe 01       	movw	r30, r28
    2382:	71 96       	adiw	r30, 0x11	; 17
    2384:	ce 01       	movw	r24, r28
    2386:	01 96       	adiw	r24, 0x01	; 1
    2388:	ae 01       	movw	r20, r28
    238a:	4f 5d       	subi	r20, 0xDF	; 223
    238c:	5f 4f       	sbci	r21, 0xFF	; 255
	for(uint8_t i = 0; i < 16; i++){
		NVM.ADDR0 = addresses[i];
    238e:	60 ec       	ldi	r22, 0xC0	; 192
    2390:	71 e0       	ldi	r23, 0x01	; 1
    2392:	21 91       	ld	r18, Z+
    2394:	db 01       	movw	r26, r22
    2396:	2c 93       	st	X, r18
		NVM.DATA0 = data[i];
    2398:	dc 01       	movw	r26, r24
    239a:	2d 91       	ld	r18, X+
    239c:	cd 01       	movw	r24, r26
    239e:	db 01       	movw	r26, r22
    23a0:	14 96       	adiw	r26, 0x04	; 4
    23a2:	2c 93       	st	X, r18
					  t & 0xFF, (t >> 8) & 0xFF, (t >> 16) & 0xFF, (t >> 24) & 0xFF, (t >> 32) & 0xFF, (t >> 40) & 0xFF, (t >> 48) & 0xFF, t >> 56,};
	uint8_t addresses[] = {	GROUND_PRESS_ADDR0, GROUND_PRESS_ADDR1, GROUND_PRESS_ADDR2, GROUND_PRESS_ADDR3, GROUND_PRESS_ADDR4, GROUND_PRESS_ADDR5, GROUND_PRESS_ADDR6, GROUND_PRESS_ADDR7,
							GROUND_TEMP_ADDR0,  GROUND_TEMP_ADDR1,  GROUND_TEMP_ADDR2,  GROUND_TEMP_ADDR3,  GROUND_TEMP_ADDR4,  GROUND_TEMP_ADDR5,  GROUND_TEMP_ADDR6,  GROUND_TEMP_ADDR7};

	NVM.CMD = LOAD_BUFFER_CMD;
	for(uint8_t i = 0; i < 16; i++){
    23a4:	e4 17       	cp	r30, r20
    23a6:	f5 07       	cpc	r31, r21
    23a8:	a1 f7       	brne	.-24     	; 0x2392 <eeprom_write_const+0x204>
		NVM.ADDR0 = addresses[i];
		NVM.DATA0 = data[i];
	}

	// Erases and writes the page buffer
	NVM.CMD = ATOMIC_WRITE_CMD;
    23aa:	e0 ec       	ldi	r30, 0xC0	; 192
    23ac:	f1 e0       	ldi	r31, 0x01	; 1
    23ae:	85 e3       	ldi	r24, 0x35	; 53
    23b0:	82 87       	std	Z+10, r24	; 0x0a
	NVM.ADDR0 = EEPROM_PAGE & 0xFF;
    23b2:	10 82       	st	Z, r1
	NVM.ADDR1 = EEPROM_PAGE >> 8;
    23b4:	80 e1       	ldi	r24, 0x10	; 16
    23b6:	81 83       	std	Z+1, r24	; 0x01
	CCP = CCP_IOREG_MODE;
    23b8:	88 ed       	ldi	r24, 0xD8	; 216
    23ba:	84 bf       	out	0x34, r24	; 52
	NVM.CTRLA = CTRLA_CMDEX_BYTE;
    23bc:	81 e0       	ldi	r24, 0x01	; 1
    23be:	83 87       	std	Z+11, r24	; 0x0b
	while(NVM.STATUS>>7);
    23c0:	87 85       	ldd	r24, Z+15	; 0x0f
    23c2:	88 23       	and	r24, r24
    23c4:	ec f3       	brlt	.-6      	; 0x23c0 <eeprom_write_const+0x232>
}
    23c6:	a0 96       	adiw	r28, 0x20	; 32
    23c8:	cd bf       	out	0x3d, r28	; 61
    23ca:	de bf       	out	0x3e, r29	; 62
    23cc:	df 91       	pop	r29
    23ce:	cf 91       	pop	r28
    23d0:	1f 91       	pop	r17
    23d2:	0f 91       	pop	r16
    23d4:	ff 90       	pop	r15
    23d6:	ef 90       	pop	r14
    23d8:	df 90       	pop	r13
    23da:	cf 90       	pop	r12
    23dc:	bf 90       	pop	r11
    23de:	af 90       	pop	r10
    23e0:	9f 90       	pop	r9
    23e2:	8f 90       	pop	r8
    23e4:	7f 90       	pop	r7
    23e6:	6f 90       	pop	r6
    23e8:	5f 90       	pop	r5
    23ea:	4f 90       	pop	r4
    23ec:	08 95       	ret

000023ee <eeprom_write>:

void eeprom_write(void){
    23ee:	0f 93       	push	r16
    23f0:	1f 93       	push	r17
    23f2:	cf 93       	push	r28
    23f4:	df 93       	push	r29
    23f6:	cd b7       	in	r28, 0x3d	; 61
    23f8:	de b7       	in	r29, 0x3e	; 62
    23fa:	60 97       	sbiw	r28, 0x10	; 16
    23fc:	cd bf       	out	0x3d, r28	; 61
    23fe:	de bf       	out	0x3e, r29	; 62
	uint16_t a = (uint16_t) ((int16_t) alt); // creates an unsigned int of the altitude
    2400:	60 91 13 21 	lds	r22, 0x2113	; 0x802113 <alt>
    2404:	70 91 14 21 	lds	r23, 0x2114	; 0x802114 <alt+0x1>
    2408:	80 91 15 21 	lds	r24, 0x2115	; 0x802115 <alt+0x2>
    240c:	90 91 16 21 	lds	r25, 0x2116	; 0x802116 <alt+0x3>
    2410:	0e 94 5d 1c 	call	0x38ba	; 0x38ba <__fixsfsi>
    2414:	16 2f       	mov	r17, r22
    2416:	07 2f       	mov	r16, r23
	uint16_t v = (uint16_t) ((int16_t) velocity);
    2418:	60 91 0b 21 	lds	r22, 0x210B	; 0x80210b <velocity>
    241c:	70 91 0c 21 	lds	r23, 0x210C	; 0x80210c <velocity+0x1>
    2420:	80 91 0d 21 	lds	r24, 0x210D	; 0x80210d <velocity+0x2>
    2424:	90 91 0e 21 	lds	r25, 0x210E	; 0x80210e <velocity+0x3>
    2428:	0e 94 5d 1c 	call	0x38ba	; 0x38ba <__fixsfsi>

	// saves data and addresses in array
	uint8_t data[] = {a >> 8, a & 0xFF, packets >> 8, packets & 0xFF, timer >> 8, timer & 0xFF, v >> 8, v & 0xFF};
    242c:	09 83       	std	Y+1, r16	; 0x01
    242e:	1a 83       	std	Y+2, r17	; 0x02
    2430:	80 91 1f 21 	lds	r24, 0x211F	; 0x80211f <packets>
    2434:	90 91 20 21 	lds	r25, 0x2120	; 0x802120 <packets+0x1>
    2438:	9b 83       	std	Y+3, r25	; 0x03
    243a:	80 91 1f 21 	lds	r24, 0x211F	; 0x80211f <packets>
    243e:	90 91 20 21 	lds	r25, 0x2120	; 0x802120 <packets+0x1>
    2442:	8c 83       	std	Y+4, r24	; 0x04
    2444:	80 91 23 21 	lds	r24, 0x2123	; 0x802123 <timer>
    2448:	90 91 24 21 	lds	r25, 0x2124	; 0x802124 <timer+0x1>
    244c:	9d 83       	std	Y+5, r25	; 0x05
    244e:	80 91 23 21 	lds	r24, 0x2123	; 0x802123 <timer>
    2452:	90 91 24 21 	lds	r25, 0x2124	; 0x802124 <timer+0x1>
    2456:	8e 83       	std	Y+6, r24	; 0x06
    2458:	7f 83       	std	Y+7, r23	; 0x07
    245a:	68 87       	std	Y+8, r22	; 0x08
	uint8_t addresses[] = {ALT_ADDR_BYTE1, ALT_ADDR_BYTE0, PACKET_ADDR_BYTE1, PACKET_ADDR_BYTE0, TIME_ADDR_BYTE1, TIME_ADDR_BYTE0, VEL_ADDR_BYTE1, VEL_ADDR_BYTE0};
    245c:	88 e0       	ldi	r24, 0x08	; 8
    245e:	ef e3       	ldi	r30, 0x3F	; 63
    2460:	f0 e2       	ldi	r31, 0x20	; 32
    2462:	de 01       	movw	r26, r28
    2464:	19 96       	adiw	r26, 0x09	; 9
    2466:	01 90       	ld	r0, Z+
    2468:	0d 92       	st	X+, r0
    246a:	8a 95       	dec	r24
    246c:	e1 f7       	brne	.-8      	; 0x2466 <eeprom_write+0x78>

	// Writes the NVM Registers to write the buffer
	NVM.CMD = LOAD_BUFFER_CMD;
    246e:	83 e3       	ldi	r24, 0x33	; 51
    2470:	80 93 ca 01 	sts	0x01CA, r24	; 0x8001ca <__TEXT_REGION_LENGTH__+0x7001ca>
    2474:	fe 01       	movw	r30, r28
    2476:	39 96       	adiw	r30, 0x09	; 9
    2478:	ce 01       	movw	r24, r28
    247a:	01 96       	adiw	r24, 0x01	; 1
    247c:	ae 01       	movw	r20, r28
    247e:	4f 5e       	subi	r20, 0xEF	; 239
    2480:	5f 4f       	sbci	r21, 0xFF	; 255
	for(uint8_t i = 0; i < 8; i++){
		NVM.ADDR0 = addresses[i];
    2482:	60 ec       	ldi	r22, 0xC0	; 192
    2484:	71 e0       	ldi	r23, 0x01	; 1
    2486:	21 91       	ld	r18, Z+
    2488:	db 01       	movw	r26, r22
    248a:	2c 93       	st	X, r18
		NVM.DATA0 = data[i];
    248c:	dc 01       	movw	r26, r24
    248e:	2d 91       	ld	r18, X+
    2490:	cd 01       	movw	r24, r26
    2492:	db 01       	movw	r26, r22
    2494:	14 96       	adiw	r26, 0x04	; 4
    2496:	2c 93       	st	X, r18
	uint8_t data[] = {a >> 8, a & 0xFF, packets >> 8, packets & 0xFF, timer >> 8, timer & 0xFF, v >> 8, v & 0xFF};
	uint8_t addresses[] = {ALT_ADDR_BYTE1, ALT_ADDR_BYTE0, PACKET_ADDR_BYTE1, PACKET_ADDR_BYTE0, TIME_ADDR_BYTE1, TIME_ADDR_BYTE0, VEL_ADDR_BYTE1, VEL_ADDR_BYTE0};

	// Writes the NVM Registers to write the buffer
	NVM.CMD = LOAD_BUFFER_CMD;
	for(uint8_t i = 0; i < 8; i++){
    2498:	e4 17       	cp	r30, r20
    249a:	f5 07       	cpc	r31, r21
    249c:	a1 f7       	brne	.-24     	; 0x2486 <eeprom_write+0x98>
		NVM.ADDR0 = addresses[i];
		NVM.DATA0 = data[i];
	}

	// Erases and writes the page buffer
	NVM.CMD = ATOMIC_WRITE_CMD;
    249e:	e0 ec       	ldi	r30, 0xC0	; 192
    24a0:	f1 e0       	ldi	r31, 0x01	; 1
    24a2:	85 e3       	ldi	r24, 0x35	; 53
    24a4:	82 87       	std	Z+10, r24	; 0x0a
	NVM.ADDR0 = EEPROM_PAGE & 0xFF;
    24a6:	10 82       	st	Z, r1
	NVM.ADDR1 = EEPROM_PAGE >> 8;
    24a8:	80 e1       	ldi	r24, 0x10	; 16
    24aa:	81 83       	std	Z+1, r24	; 0x01
	CCP = CCP_IOREG_MODE;
    24ac:	88 ed       	ldi	r24, 0xD8	; 216
    24ae:	84 bf       	out	0x34, r24	; 52
	NVM.CTRLA = CTRLA_CMDEX_BYTE;
    24b0:	81 e0       	ldi	r24, 0x01	; 1
    24b2:	83 87       	std	Z+11, r24	; 0x0b
	while(NVM.STATUS>>7);
    24b4:	87 85       	ldd	r24, Z+15	; 0x0f
    24b6:	88 23       	and	r24, r24
    24b8:	ec f3       	brlt	.-6      	; 0x24b4 <eeprom_write+0xc6>
}
    24ba:	60 96       	adiw	r28, 0x10	; 16
    24bc:	cd bf       	out	0x3d, r28	; 61
    24be:	de bf       	out	0x3e, r29	; 62
    24c0:	df 91       	pop	r29
    24c2:	cf 91       	pop	r28
    24c4:	1f 91       	pop	r17
    24c6:	0f 91       	pop	r16
    24c8:	08 95       	ret

000024ca <time_update>:
	TCE0.CTRLA = 0x07; // divisor set to 1024 0x07
	TCE0.PER = 31249; // 1 Hz
	TCE0.INTCTRLA = TC_OVFINTLVL_LO_gc; // CCA int flag Lo level
}

void time_update(void){
    24ca:	2f 92       	push	r2
    24cc:	3f 92       	push	r3
    24ce:	4f 92       	push	r4
    24d0:	5f 92       	push	r5
    24d2:	6f 92       	push	r6
    24d4:	7f 92       	push	r7
    24d6:	8f 92       	push	r8
    24d8:	9f 92       	push	r9
    24da:	af 92       	push	r10
    24dc:	bf 92       	push	r11
    24de:	cf 92       	push	r12
    24e0:	df 92       	push	r13
    24e2:	ef 92       	push	r14
    24e4:	ff 92       	push	r15
    24e6:	0f 93       	push	r16
    24e8:	1f 93       	push	r17
    24ea:	cf 93       	push	r28
    24ec:	df 93       	push	r29
    24ee:	cd b7       	in	r28, 0x3d	; 61
    24f0:	de b7       	in	r29, 0x3e	; 62
    24f2:	ef 97       	sbiw	r28, 0x3f	; 63
    24f4:	cd bf       	out	0x3d, r28	; 61
    24f6:	de bf       	out	0x3e, r29	; 62
	packets++;
    24f8:	80 91 1f 21 	lds	r24, 0x211F	; 0x80211f <packets>
    24fc:	90 91 20 21 	lds	r25, 0x2120	; 0x802120 <packets+0x1>
    2500:	01 96       	adiw	r24, 0x01	; 1
    2502:	80 93 1f 21 	sts	0x211F, r24	; 0x80211f <packets>
    2506:	90 93 20 21 	sts	0x2120, r25	; 0x802120 <packets+0x1>

	//printf("%i.%i, %i, %li, %i\n", timer/10, timer%10, (int16_t) alt, (int32_t) press, (int16_t) velocity);

	sprintf(str,format,timer,packets,
    250a:	60 91 e9 20 	lds	r22, 0x20E9	; 0x8020e9 <angle>
    250e:	70 91 ea 20 	lds	r23, 0x20EA	; 0x8020ea <angle+0x1>
    2512:	80 91 eb 20 	lds	r24, 0x20EB	; 0x8020eb <angle+0x2>
    2516:	90 91 ec 20 	lds	r25, 0x20EC	; 0x8020ec <angle+0x3>
    251a:	20 91 46 21 	lds	r18, 0x2146	; 0x802146 <state>
    251e:	29 83       	std	Y+1, r18	; 0x01
    2520:	40 90 ed 20 	lds	r4, 0x20ED	; 0x8020ed <rpm>
    2524:	50 90 ee 20 	lds	r5, 0x20EE	; 0x8020ee <rpm+0x1>
    2528:	60 90 ef 20 	lds	r6, 0x20EF	; 0x8020ef <rpm+0x2>
    252c:	70 90 f0 20 	lds	r7, 0x20F0	; 0x8020f0 <rpm+0x3>
    2530:	80 90 f1 20 	lds	r8, 0x20F1	; 0x8020f1 <roll>
    2534:	90 90 f2 20 	lds	r9, 0x20F2	; 0x8020f2 <roll+0x1>
    2538:	a0 90 f3 20 	lds	r10, 0x20F3	; 0x8020f3 <roll+0x2>
    253c:	b0 90 f4 20 	lds	r11, 0x20F4	; 0x8020f4 <roll+0x3>
    2540:	c0 90 f5 20 	lds	r12, 0x20F5	; 0x8020f5 <pitch>
    2544:	d0 90 f6 20 	lds	r13, 0x20F6	; 0x8020f6 <pitch+0x1>
    2548:	e0 90 f7 20 	lds	r14, 0x20F7	; 0x8020f7 <pitch+0x2>
    254c:	f0 90 f8 20 	lds	r15, 0x20F8	; 0x8020f8 <pitch+0x3>
    2550:	40 91 f9 20 	lds	r20, 0x20F9	; 0x8020f9 <gps_sats>
    2554:	50 91 fa 20 	lds	r21, 0x20FA	; 0x8020fa <gps_sats+0x1>
    2558:	4e af       	std	Y+62, r20	; 0x3e
    255a:	5f af       	std	Y+63, r21	; 0x3f
	(int16_t) (alt),						(int32_t) press,							(int16_t) (temp-273.15),				((int16_t) (temp * 10 - 2731.5))%10,			(int16_t)volt,		(int16_t) (volt * 10) % 10,
	(int16_t) (((int32_t)gps_t)/10000),		(int16_t) ((((int32_t)gps_t)%10000)/100),	(int16_t) (((int32_t)gps_t)%100),
	(int16_t) gps_lat,						((int32_t) (gps_lat*1000000))%1000000,		(int16_t) gps_long,						(int32_t)(abs(((int32_t)(gps_long*1000000))%1000000)),
	(int16_t) gps_alt,						((int16_t) (gps_alt)*10)%10,				gps_sats,
    255c:	20 91 fb 20 	lds	r18, 0x20FB	; 0x8020fb <gps_alt>
    2560:	30 91 fc 20 	lds	r19, 0x20FC	; 0x8020fc <gps_alt+0x1>
    2564:	40 91 fd 20 	lds	r20, 0x20FD	; 0x8020fd <gps_alt+0x2>
    2568:	50 91 fe 20 	lds	r21, 0x20FE	; 0x8020fe <gps_alt+0x3>
    256c:	2a 83       	std	Y+2, r18	; 0x02
    256e:	3b 83       	std	Y+3, r19	; 0x03
    2570:	4c 83       	std	Y+4, r20	; 0x04
    2572:	5d 83       	std	Y+5, r21	; 0x05
void time_update(void){
	packets++;

	//printf("%i.%i, %i, %li, %i\n", timer/10, timer%10, (int16_t) alt, (int32_t) press, (int16_t) velocity);

	sprintf(str,format,timer,packets,
    2574:	20 91 fb 20 	lds	r18, 0x20FB	; 0x8020fb <gps_alt>
    2578:	30 91 fc 20 	lds	r19, 0x20FC	; 0x8020fc <gps_alt+0x1>
    257c:	40 91 fd 20 	lds	r20, 0x20FD	; 0x8020fd <gps_alt+0x2>
    2580:	50 91 fe 20 	lds	r21, 0x20FE	; 0x8020fe <gps_alt+0x3>
    2584:	2e 83       	std	Y+6, r18	; 0x06
    2586:	3f 83       	std	Y+7, r19	; 0x07
    2588:	48 87       	std	Y+8, r20	; 0x08
    258a:	59 87       	std	Y+9, r21	; 0x09
	(int16_t) (alt),						(int32_t) press,							(int16_t) (temp-273.15),				((int16_t) (temp * 10 - 2731.5))%10,			(int16_t)volt,		(int16_t) (volt * 10) % 10,
	(int16_t) (((int32_t)gps_t)/10000),		(int16_t) ((((int32_t)gps_t)%10000)/100),	(int16_t) (((int32_t)gps_t)%100),
	(int16_t) gps_lat,						((int32_t) (gps_lat*1000000))%1000000,		(int16_t) gps_long,						(int32_t)(abs(((int32_t)(gps_long*1000000))%1000000)),
    258c:	20 91 ff 20 	lds	r18, 0x20FF	; 0x8020ff <gps_long>
    2590:	30 91 00 21 	lds	r19, 0x2100	; 0x802100 <gps_long+0x1>
    2594:	40 91 01 21 	lds	r20, 0x2101	; 0x802101 <gps_long+0x2>
    2598:	50 91 02 21 	lds	r21, 0x2102	; 0x802102 <gps_long+0x3>
    259c:	2a 87       	std	Y+10, r18	; 0x0a
    259e:	3b 87       	std	Y+11, r19	; 0x0b
    25a0:	4c 87       	std	Y+12, r20	; 0x0c
    25a2:	5d 87       	std	Y+13, r21	; 0x0d
void time_update(void){
	packets++;

	//printf("%i.%i, %i, %li, %i\n", timer/10, timer%10, (int16_t) alt, (int32_t) press, (int16_t) velocity);

	sprintf(str,format,timer,packets,
    25a4:	20 91 ff 20 	lds	r18, 0x20FF	; 0x8020ff <gps_long>
    25a8:	30 91 00 21 	lds	r19, 0x2100	; 0x802100 <gps_long+0x1>
    25ac:	40 91 01 21 	lds	r20, 0x2101	; 0x802101 <gps_long+0x2>
    25b0:	50 91 02 21 	lds	r21, 0x2102	; 0x802102 <gps_long+0x3>
    25b4:	2e 87       	std	Y+14, r18	; 0x0e
    25b6:	3f 87       	std	Y+15, r19	; 0x0f
    25b8:	48 8b       	std	Y+16, r20	; 0x10
    25ba:	59 8b       	std	Y+17, r21	; 0x11
	(int16_t) (alt),						(int32_t) press,							(int16_t) (temp-273.15),				((int16_t) (temp * 10 - 2731.5))%10,			(int16_t)volt,		(int16_t) (volt * 10) % 10,
	(int16_t) (((int32_t)gps_t)/10000),		(int16_t) ((((int32_t)gps_t)%10000)/100),	(int16_t) (((int32_t)gps_t)%100),
	(int16_t) gps_lat,						((int32_t) (gps_lat*1000000))%1000000,		(int16_t) gps_long,						(int32_t)(abs(((int32_t)(gps_long*1000000))%1000000)),
    25bc:	20 91 03 21 	lds	r18, 0x2103	; 0x802103 <gps_lat>
    25c0:	30 91 04 21 	lds	r19, 0x2104	; 0x802104 <gps_lat+0x1>
    25c4:	40 91 05 21 	lds	r20, 0x2105	; 0x802105 <gps_lat+0x2>
    25c8:	50 91 06 21 	lds	r21, 0x2106	; 0x802106 <gps_lat+0x3>
    25cc:	2a 8b       	std	Y+18, r18	; 0x12
    25ce:	3b 8b       	std	Y+19, r19	; 0x13
    25d0:	4c 8b       	std	Y+20, r20	; 0x14
    25d2:	5d 8b       	std	Y+21, r21	; 0x15
void time_update(void){
	packets++;

	//printf("%i.%i, %i, %li, %i\n", timer/10, timer%10, (int16_t) alt, (int32_t) press, (int16_t) velocity);

	sprintf(str,format,timer,packets,
    25d4:	20 91 03 21 	lds	r18, 0x2103	; 0x802103 <gps_lat>
    25d8:	30 91 04 21 	lds	r19, 0x2104	; 0x802104 <gps_lat+0x1>
    25dc:	40 91 05 21 	lds	r20, 0x2105	; 0x802105 <gps_lat+0x2>
    25e0:	50 91 06 21 	lds	r21, 0x2106	; 0x802106 <gps_lat+0x3>
    25e4:	2e 8b       	std	Y+22, r18	; 0x16
    25e6:	3f 8b       	std	Y+23, r19	; 0x17
    25e8:	48 8f       	std	Y+24, r20	; 0x18
    25ea:	59 8f       	std	Y+25, r21	; 0x19
	(int16_t) (alt),						(int32_t) press,							(int16_t) (temp-273.15),				((int16_t) (temp * 10 - 2731.5))%10,			(int16_t)volt,		(int16_t) (volt * 10) % 10,
	(int16_t) (((int32_t)gps_t)/10000),		(int16_t) ((((int32_t)gps_t)%10000)/100),	(int16_t) (((int32_t)gps_t)%100),
    25ec:	20 91 07 21 	lds	r18, 0x2107	; 0x802107 <gps_t>
    25f0:	30 91 08 21 	lds	r19, 0x2108	; 0x802108 <gps_t+0x1>
    25f4:	40 91 09 21 	lds	r20, 0x2109	; 0x802109 <gps_t+0x2>
    25f8:	50 91 0a 21 	lds	r21, 0x210A	; 0x80210a <gps_t+0x3>
    25fc:	2a 8f       	std	Y+26, r18	; 0x1a
    25fe:	3b 8f       	std	Y+27, r19	; 0x1b
    2600:	4c 8f       	std	Y+28, r20	; 0x1c
    2602:	5d 8f       	std	Y+29, r21	; 0x1d
    2604:	20 91 07 21 	lds	r18, 0x2107	; 0x802107 <gps_t>
    2608:	30 91 08 21 	lds	r19, 0x2108	; 0x802108 <gps_t+0x1>
    260c:	40 91 09 21 	lds	r20, 0x2109	; 0x802109 <gps_t+0x2>
    2610:	50 91 0a 21 	lds	r21, 0x210A	; 0x80210a <gps_t+0x3>
    2614:	2e 8f       	std	Y+30, r18	; 0x1e
    2616:	3f 8f       	std	Y+31, r19	; 0x1f
    2618:	48 a3       	std	Y+32, r20	; 0x20
    261a:	59 a3       	std	Y+33, r21	; 0x21
    261c:	20 91 07 21 	lds	r18, 0x2107	; 0x802107 <gps_t>
    2620:	30 91 08 21 	lds	r19, 0x2108	; 0x802108 <gps_t+0x1>
    2624:	40 91 09 21 	lds	r20, 0x2109	; 0x802109 <gps_t+0x2>
    2628:	50 91 0a 21 	lds	r21, 0x210A	; 0x80210a <gps_t+0x3>
    262c:	2a a3       	std	Y+34, r18	; 0x22
    262e:	3b a3       	std	Y+35, r19	; 0x23
    2630:	4c a3       	std	Y+36, r20	; 0x24
    2632:	5d a3       	std	Y+37, r21	; 0x25
	packets++;

	//printf("%i.%i, %i, %li, %i\n", timer/10, timer%10, (int16_t) alt, (int32_t) press, (int16_t) velocity);

	sprintf(str,format,timer,packets,
	(int16_t) (alt),						(int32_t) press,							(int16_t) (temp-273.15),				((int16_t) (temp * 10 - 2731.5))%10,			(int16_t)volt,		(int16_t) (volt * 10) % 10,
    2634:	20 91 0f 21 	lds	r18, 0x210F	; 0x80210f <volt>
    2638:	30 91 10 21 	lds	r19, 0x2110	; 0x802110 <volt+0x1>
    263c:	40 91 11 21 	lds	r20, 0x2111	; 0x802111 <volt+0x2>
    2640:	50 91 12 21 	lds	r21, 0x2112	; 0x802112 <volt+0x3>
    2644:	2e a3       	std	Y+38, r18	; 0x26
    2646:	3f a3       	std	Y+39, r19	; 0x27
    2648:	48 a7       	std	Y+40, r20	; 0x28
    264a:	59 a7       	std	Y+41, r21	; 0x29
void time_update(void){
	packets++;

	//printf("%i.%i, %i, %li, %i\n", timer/10, timer%10, (int16_t) alt, (int32_t) press, (int16_t) velocity);

	sprintf(str,format,timer,packets,
    264c:	20 91 0f 21 	lds	r18, 0x210F	; 0x80210f <volt>
    2650:	30 91 10 21 	lds	r19, 0x2110	; 0x802110 <volt+0x1>
    2654:	40 91 11 21 	lds	r20, 0x2111	; 0x802111 <volt+0x2>
    2658:	50 91 12 21 	lds	r21, 0x2112	; 0x802112 <volt+0x3>
    265c:	2a a7       	std	Y+42, r18	; 0x2a
    265e:	3b a7       	std	Y+43, r19	; 0x2b
    2660:	4c a7       	std	Y+44, r20	; 0x2c
    2662:	5d a7       	std	Y+45, r21	; 0x2d
	(int16_t) (alt),						(int32_t) press,							(int16_t) (temp-273.15),				((int16_t) (temp * 10 - 2731.5))%10,			(int16_t)volt,		(int16_t) (volt * 10) % 10,
    2664:	20 91 17 21 	lds	r18, 0x2117	; 0x802117 <temp>
    2668:	30 91 18 21 	lds	r19, 0x2118	; 0x802118 <temp+0x1>
    266c:	40 91 19 21 	lds	r20, 0x2119	; 0x802119 <temp+0x2>
    2670:	50 91 1a 21 	lds	r21, 0x211A	; 0x80211a <temp+0x3>
    2674:	2e a7       	std	Y+46, r18	; 0x2e
    2676:	3f a7       	std	Y+47, r19	; 0x2f
    2678:	48 ab       	std	Y+48, r20	; 0x30
    267a:	59 ab       	std	Y+49, r21	; 0x31
    267c:	20 91 17 21 	lds	r18, 0x2117	; 0x802117 <temp>
    2680:	30 91 18 21 	lds	r19, 0x2118	; 0x802118 <temp+0x1>
    2684:	40 91 19 21 	lds	r20, 0x2119	; 0x802119 <temp+0x2>
    2688:	50 91 1a 21 	lds	r21, 0x211A	; 0x80211a <temp+0x3>
    268c:	2a ab       	std	Y+50, r18	; 0x32
    268e:	3b ab       	std	Y+51, r19	; 0x33
    2690:	4c ab       	std	Y+52, r20	; 0x34
    2692:	5d ab       	std	Y+53, r21	; 0x35
void time_update(void){
	packets++;

	//printf("%i.%i, %i, %li, %i\n", timer/10, timer%10, (int16_t) alt, (int32_t) press, (int16_t) velocity);

	sprintf(str,format,timer,packets,
    2694:	20 91 1b 21 	lds	r18, 0x211B	; 0x80211b <press>
    2698:	30 91 1c 21 	lds	r19, 0x211C	; 0x80211c <press+0x1>
    269c:	40 91 1d 21 	lds	r20, 0x211D	; 0x80211d <press+0x2>
    26a0:	50 91 1e 21 	lds	r21, 0x211E	; 0x80211e <press+0x3>
    26a4:	2e ab       	std	Y+54, r18	; 0x36
    26a6:	3f ab       	std	Y+55, r19	; 0x37
    26a8:	48 af       	std	Y+56, r20	; 0x38
    26aa:	59 af       	std	Y+57, r21	; 0x39
    26ac:	20 91 13 21 	lds	r18, 0x2113	; 0x802113 <alt>
    26b0:	30 91 14 21 	lds	r19, 0x2114	; 0x802114 <alt+0x1>
    26b4:	40 91 15 21 	lds	r20, 0x2115	; 0x802115 <alt+0x2>
    26b8:	50 91 16 21 	lds	r21, 0x2116	; 0x802116 <alt+0x3>
    26bc:	2a af       	std	Y+58, r18	; 0x3a
    26be:	3b af       	std	Y+59, r19	; 0x3b
    26c0:	4c af       	std	Y+60, r20	; 0x3c
    26c2:	5d af       	std	Y+61, r21	; 0x3d
    26c4:	20 90 1f 21 	lds	r2, 0x211F	; 0x80211f <packets>
    26c8:	30 90 20 21 	lds	r3, 0x2120	; 0x802120 <packets+0x1>
    26cc:	00 91 23 21 	lds	r16, 0x2123	; 0x802123 <timer>
    26d0:	10 91 24 21 	lds	r17, 0x2124	; 0x802124 <timer+0x1>
    26d4:	0e 94 5d 1c 	call	0x38ba	; 0x38ba <__fixsfsi>
    26d8:	7f 93       	push	r23
    26da:	6f 93       	push	r22
    26dc:	1f 92       	push	r1
    26de:	39 81       	ldd	r19, Y+1	; 0x01
    26e0:	3f 93       	push	r19
    26e2:	c3 01       	movw	r24, r6
    26e4:	b2 01       	movw	r22, r4
    26e6:	0e 94 5d 1c 	call	0x38ba	; 0x38ba <__fixsfsi>
    26ea:	7f 93       	push	r23
    26ec:	6f 93       	push	r22
    26ee:	c5 01       	movw	r24, r10
    26f0:	b4 01       	movw	r22, r8
    26f2:	0e 94 5d 1c 	call	0x38ba	; 0x38ba <__fixsfsi>
    26f6:	7f 93       	push	r23
    26f8:	6f 93       	push	r22
    26fa:	c7 01       	movw	r24, r14
    26fc:	b6 01       	movw	r22, r12
    26fe:	0e 94 5d 1c 	call	0x38ba	; 0x38ba <__fixsfsi>
    2702:	7f 93       	push	r23
    2704:	6f 93       	push	r22
    2706:	4f ad       	ldd	r20, Y+63	; 0x3f
    2708:	4f 93       	push	r20
    270a:	5e ad       	ldd	r21, Y+62	; 0x3e
    270c:	5f 93       	push	r21
    270e:	6a 81       	ldd	r22, Y+2	; 0x02
    2710:	7b 81       	ldd	r23, Y+3	; 0x03
    2712:	8c 81       	ldd	r24, Y+4	; 0x04
    2714:	9d 81       	ldd	r25, Y+5	; 0x05
    2716:	0e 94 5d 1c 	call	0x38ba	; 0x38ba <__fixsfsi>
    271a:	9b 01       	movw	r18, r22
    271c:	22 0f       	add	r18, r18
    271e:	33 1f       	adc	r19, r19
    2720:	66 0f       	add	r22, r22
    2722:	77 1f       	adc	r23, r23
    2724:	66 0f       	add	r22, r22
    2726:	77 1f       	adc	r23, r23
    2728:	66 0f       	add	r22, r22
    272a:	77 1f       	adc	r23, r23
    272c:	c9 01       	movw	r24, r18
    272e:	86 0f       	add	r24, r22
    2730:	97 1f       	adc	r25, r23
    2732:	6a e0       	ldi	r22, 0x0A	; 10
    2734:	70 e0       	ldi	r23, 0x00	; 0
    2736:	0e 94 2f 1f 	call	0x3e5e	; 0x3e5e <__divmodhi4>
    273a:	9f 93       	push	r25
    273c:	8f 93       	push	r24
    273e:	6e 81       	ldd	r22, Y+6	; 0x06
    2740:	7f 81       	ldd	r23, Y+7	; 0x07
    2742:	88 85       	ldd	r24, Y+8	; 0x08
    2744:	99 85       	ldd	r25, Y+9	; 0x09
    2746:	0e 94 5d 1c 	call	0x38ba	; 0x38ba <__fixsfsi>
    274a:	7f 93       	push	r23
    274c:	6f 93       	push	r22
    274e:	20 e0       	ldi	r18, 0x00	; 0
    2750:	34 e2       	ldi	r19, 0x24	; 36
    2752:	44 e7       	ldi	r20, 0x74	; 116
    2754:	59 e4       	ldi	r21, 0x49	; 73
    2756:	6a 85       	ldd	r22, Y+10	; 0x0a
    2758:	7b 85       	ldd	r23, Y+11	; 0x0b
    275a:	8c 85       	ldd	r24, Y+12	; 0x0c
    275c:	9d 85       	ldd	r25, Y+13	; 0x0d
    275e:	0e 94 44 1d 	call	0x3a88	; 0x3a88 <__mulsf3>
    2762:	0e 94 5d 1c 	call	0x38ba	; 0x38ba <__fixsfsi>
    2766:	20 e4       	ldi	r18, 0x40	; 64
    2768:	32 e4       	ldi	r19, 0x42	; 66
    276a:	4f e0       	ldi	r20, 0x0F	; 15
    276c:	50 e0       	ldi	r21, 0x00	; 0
    276e:	0e 94 64 1f 	call	0x3ec8	; 0x3ec8 <__divmodsi4>
    2772:	9b 01       	movw	r18, r22
    2774:	77 23       	and	r23, r23
    2776:	24 f4       	brge	.+8      	; 0x2780 <time_update+0x2b6>
    2778:	22 27       	eor	r18, r18
    277a:	33 27       	eor	r19, r19
    277c:	26 1b       	sub	r18, r22
    277e:	37 0b       	sbc	r19, r23
    2780:	c9 01       	movw	r24, r18
    2782:	33 0f       	add	r19, r19
    2784:	aa 0b       	sbc	r26, r26
    2786:	bb 0b       	sbc	r27, r27
    2788:	bf 93       	push	r27
    278a:	af 93       	push	r26
    278c:	9f 93       	push	r25
    278e:	8f 93       	push	r24
    2790:	6e 85       	ldd	r22, Y+14	; 0x0e
    2792:	7f 85       	ldd	r23, Y+15	; 0x0f
    2794:	88 89       	ldd	r24, Y+16	; 0x10
    2796:	99 89       	ldd	r25, Y+17	; 0x11
    2798:	0e 94 5d 1c 	call	0x38ba	; 0x38ba <__fixsfsi>
    279c:	7f 93       	push	r23
    279e:	6f 93       	push	r22
    27a0:	20 e0       	ldi	r18, 0x00	; 0
    27a2:	34 e2       	ldi	r19, 0x24	; 36
    27a4:	44 e7       	ldi	r20, 0x74	; 116
    27a6:	59 e4       	ldi	r21, 0x49	; 73
    27a8:	6a 89       	ldd	r22, Y+18	; 0x12
    27aa:	7b 89       	ldd	r23, Y+19	; 0x13
    27ac:	8c 89       	ldd	r24, Y+20	; 0x14
    27ae:	9d 89       	ldd	r25, Y+21	; 0x15
    27b0:	0e 94 44 1d 	call	0x3a88	; 0x3a88 <__mulsf3>
    27b4:	0e 94 5d 1c 	call	0x38ba	; 0x38ba <__fixsfsi>
    27b8:	20 e4       	ldi	r18, 0x40	; 64
    27ba:	32 e4       	ldi	r19, 0x42	; 66
    27bc:	4f e0       	ldi	r20, 0x0F	; 15
    27be:	50 e0       	ldi	r21, 0x00	; 0
    27c0:	0e 94 64 1f 	call	0x3ec8	; 0x3ec8 <__divmodsi4>
    27c4:	9f 93       	push	r25
    27c6:	8f 93       	push	r24
    27c8:	7f 93       	push	r23
    27ca:	6f 93       	push	r22
    27cc:	6e 89       	ldd	r22, Y+22	; 0x16
    27ce:	7f 89       	ldd	r23, Y+23	; 0x17
    27d0:	88 8d       	ldd	r24, Y+24	; 0x18
    27d2:	99 8d       	ldd	r25, Y+25	; 0x19
    27d4:	0e 94 5d 1c 	call	0x38ba	; 0x38ba <__fixsfsi>
    27d8:	7f 93       	push	r23
    27da:	6f 93       	push	r22
    27dc:	6a 8d       	ldd	r22, Y+26	; 0x1a
    27de:	7b 8d       	ldd	r23, Y+27	; 0x1b
    27e0:	8c 8d       	ldd	r24, Y+28	; 0x1c
    27e2:	9d 8d       	ldd	r25, Y+29	; 0x1d
    27e4:	0e 94 5d 1c 	call	0x38ba	; 0x38ba <__fixsfsi>
    27e8:	0f 2e       	mov	r0, r31
    27ea:	f4 e6       	ldi	r31, 0x64	; 100
    27ec:	cf 2e       	mov	r12, r31
    27ee:	d1 2c       	mov	r13, r1
    27f0:	e1 2c       	mov	r14, r1
    27f2:	f1 2c       	mov	r15, r1
    27f4:	f0 2d       	mov	r31, r0
    27f6:	a7 01       	movw	r20, r14
    27f8:	96 01       	movw	r18, r12
    27fa:	0e 94 64 1f 	call	0x3ec8	; 0x3ec8 <__divmodsi4>
    27fe:	7f 93       	push	r23
    2800:	6f 93       	push	r22
    2802:	6e 8d       	ldd	r22, Y+30	; 0x1e
    2804:	7f 8d       	ldd	r23, Y+31	; 0x1f
    2806:	88 a1       	ldd	r24, Y+32	; 0x20
    2808:	99 a1       	ldd	r25, Y+33	; 0x21
    280a:	0e 94 5d 1c 	call	0x38ba	; 0x38ba <__fixsfsi>
    280e:	0f 2e       	mov	r0, r31
    2810:	f0 e1       	ldi	r31, 0x10	; 16
    2812:	8f 2e       	mov	r8, r31
    2814:	f7 e2       	ldi	r31, 0x27	; 39
    2816:	9f 2e       	mov	r9, r31
    2818:	a1 2c       	mov	r10, r1
    281a:	b1 2c       	mov	r11, r1
    281c:	f0 2d       	mov	r31, r0
    281e:	a5 01       	movw	r20, r10
    2820:	94 01       	movw	r18, r8
    2822:	0e 94 64 1f 	call	0x3ec8	; 0x3ec8 <__divmodsi4>
    2826:	a7 01       	movw	r20, r14
    2828:	96 01       	movw	r18, r12
    282a:	0e 94 64 1f 	call	0x3ec8	; 0x3ec8 <__divmodsi4>
    282e:	3f 93       	push	r19
    2830:	2f 93       	push	r18
    2832:	6a a1       	ldd	r22, Y+34	; 0x22
    2834:	7b a1       	ldd	r23, Y+35	; 0x23
    2836:	8c a1       	ldd	r24, Y+36	; 0x24
    2838:	9d a1       	ldd	r25, Y+37	; 0x25
    283a:	0e 94 5d 1c 	call	0x38ba	; 0x38ba <__fixsfsi>
    283e:	a5 01       	movw	r20, r10
    2840:	94 01       	movw	r18, r8
    2842:	0e 94 64 1f 	call	0x3ec8	; 0x3ec8 <__divmodsi4>
    2846:	3f 93       	push	r19
    2848:	2f 93       	push	r18
    284a:	20 e0       	ldi	r18, 0x00	; 0
    284c:	30 e0       	ldi	r19, 0x00	; 0
    284e:	40 e2       	ldi	r20, 0x20	; 32
    2850:	51 e4       	ldi	r21, 0x41	; 65
    2852:	6e a1       	ldd	r22, Y+38	; 0x26
    2854:	7f a1       	ldd	r23, Y+39	; 0x27
    2856:	88 a5       	ldd	r24, Y+40	; 0x28
    2858:	99 a5       	ldd	r25, Y+41	; 0x29
    285a:	0e 94 44 1d 	call	0x3a88	; 0x3a88 <__mulsf3>
    285e:	0e 94 5d 1c 	call	0x38ba	; 0x38ba <__fixsfsi>
    2862:	cb 01       	movw	r24, r22
    2864:	6a e0       	ldi	r22, 0x0A	; 10
    2866:	70 e0       	ldi	r23, 0x00	; 0
    2868:	0e 94 2f 1f 	call	0x3e5e	; 0x3e5e <__divmodhi4>
    286c:	9f 93       	push	r25
    286e:	8f 93       	push	r24
    2870:	6a a5       	ldd	r22, Y+42	; 0x2a
    2872:	7b a5       	ldd	r23, Y+43	; 0x2b
    2874:	8c a5       	ldd	r24, Y+44	; 0x2c
    2876:	9d a5       	ldd	r25, Y+45	; 0x2d
    2878:	0e 94 5d 1c 	call	0x38ba	; 0x38ba <__fixsfsi>
    287c:	7f 93       	push	r23
    287e:	6f 93       	push	r22
    2880:	20 e0       	ldi	r18, 0x00	; 0
    2882:	30 e0       	ldi	r19, 0x00	; 0
    2884:	40 e2       	ldi	r20, 0x20	; 32
    2886:	51 e4       	ldi	r21, 0x41	; 65
    2888:	6e a5       	ldd	r22, Y+46	; 0x2e
    288a:	7f a5       	ldd	r23, Y+47	; 0x2f
    288c:	88 a9       	ldd	r24, Y+48	; 0x30
    288e:	99 a9       	ldd	r25, Y+49	; 0x31
    2890:	0e 94 44 1d 	call	0x3a88	; 0x3a88 <__mulsf3>
    2894:	20 e0       	ldi	r18, 0x00	; 0
    2896:	38 eb       	ldi	r19, 0xB8	; 184
    2898:	4a e2       	ldi	r20, 0x2A	; 42
    289a:	55 e4       	ldi	r21, 0x45	; 69
    289c:	3d d7       	rcall	.+3706   	; 0x3718 <__subsf3>
    289e:	0e 94 5d 1c 	call	0x38ba	; 0x38ba <__fixsfsi>
    28a2:	cb 01       	movw	r24, r22
    28a4:	6a e0       	ldi	r22, 0x0A	; 10
    28a6:	70 e0       	ldi	r23, 0x00	; 0
    28a8:	0e 94 2f 1f 	call	0x3e5e	; 0x3e5e <__divmodhi4>
    28ac:	9f 93       	push	r25
    28ae:	8f 93       	push	r24
    28b0:	23 e3       	ldi	r18, 0x33	; 51
    28b2:	33 e9       	ldi	r19, 0x93	; 147
    28b4:	48 e8       	ldi	r20, 0x88	; 136
    28b6:	53 e4       	ldi	r21, 0x43	; 67
    28b8:	6a a9       	ldd	r22, Y+50	; 0x32
    28ba:	7b a9       	ldd	r23, Y+51	; 0x33
    28bc:	8c a9       	ldd	r24, Y+52	; 0x34
    28be:	9d a9       	ldd	r25, Y+53	; 0x35
    28c0:	2b d7       	rcall	.+3670   	; 0x3718 <__subsf3>
    28c2:	fb d7       	rcall	.+4086   	; 0x38ba <__fixsfsi>
    28c4:	7f 93       	push	r23
    28c6:	6f 93       	push	r22
    28c8:	6e a9       	ldd	r22, Y+54	; 0x36
    28ca:	7f a9       	ldd	r23, Y+55	; 0x37
    28cc:	88 ad       	ldd	r24, Y+56	; 0x38
    28ce:	99 ad       	ldd	r25, Y+57	; 0x39
    28d0:	f4 d7       	rcall	.+4072   	; 0x38ba <__fixsfsi>
    28d2:	9f 93       	push	r25
    28d4:	8f 93       	push	r24
    28d6:	7f 93       	push	r23
    28d8:	6f 93       	push	r22
    28da:	6a ad       	ldd	r22, Y+58	; 0x3a
    28dc:	7b ad       	ldd	r23, Y+59	; 0x3b
    28de:	8c ad       	ldd	r24, Y+60	; 0x3c
    28e0:	9d ad       	ldd	r25, Y+61	; 0x3d
    28e2:	eb d7       	rcall	.+4054   	; 0x38ba <__fixsfsi>
    28e4:	7f 93       	push	r23
    28e6:	6f 93       	push	r22
    28e8:	3f 92       	push	r3
    28ea:	2f 92       	push	r2
    28ec:	1f 93       	push	r17
    28ee:	0f 93       	push	r16
    28f0:	80 91 16 20 	lds	r24, 0x2016	; 0x802016 <format+0x1>
    28f4:	8f 93       	push	r24
    28f6:	80 91 15 20 	lds	r24, 0x2015	; 0x802015 <format>
    28fa:	8f 93       	push	r24
    28fc:	8e e8       	ldi	r24, 0x8E	; 142
    28fe:	91 e2       	ldi	r25, 0x21	; 33
    2900:	9f 93       	push	r25
    2902:	8f 93       	push	r24
    2904:	0e 94 66 20 	call	0x40cc	; 0x40cc <sprintf>
	(int16_t) (((int32_t)gps_t)/10000),		(int16_t) ((((int32_t)gps_t)%10000)/100),	(int16_t) (((int32_t)gps_t)%100),
	(int16_t) gps_lat,						((int32_t) (gps_lat*1000000))%1000000,		(int16_t) gps_long,						(int32_t)(abs(((int32_t)(gps_long*1000000))%1000000)),
	(int16_t) gps_alt,						((int16_t) (gps_alt)*10)%10,				gps_sats,
	(int16_t) pitch,						(int16_t) roll,								(int16_t) rpm,
	state,									(int16_t) angle); // Data Logging Test
	printf(str);
    2908:	cd bf       	out	0x3d, r28	; 61
    290a:	de bf       	out	0x3e, r29	; 62
    290c:	8e e8       	ldi	r24, 0x8E	; 142
    290e:	91 e2       	ldi	r25, 0x21	; 33
    2910:	9f 93       	push	r25
    2912:	8f 93       	push	r24
    2914:	0e 94 23 20 	call	0x4046	; 0x4046 <printf>
	eeprom_write();
    2918:	6a dd       	rcall	.-1324   	; 0x23ee <eeprom_write>

	time_flag = 0;
    291a:	10 92 44 21 	sts	0x2144, r1	; 0x802144 <time_flag>
}
    291e:	0f 90       	pop	r0
    2920:	0f 90       	pop	r0
    2922:	ef 96       	adiw	r28, 0x3f	; 63
    2924:	cd bf       	out	0x3d, r28	; 61
    2926:	de bf       	out	0x3e, r29	; 62
    2928:	df 91       	pop	r29
    292a:	cf 91       	pop	r28
    292c:	1f 91       	pop	r17
    292e:	0f 91       	pop	r16
    2930:	ff 90       	pop	r15
    2932:	ef 90       	pop	r14
    2934:	df 90       	pop	r13
    2936:	cf 90       	pop	r12
    2938:	bf 90       	pop	r11
    293a:	af 90       	pop	r10
    293c:	9f 90       	pop	r9
    293e:	8f 90       	pop	r8
    2940:	7f 90       	pop	r7
    2942:	6f 90       	pop	r6
    2944:	5f 90       	pop	r5
    2946:	4f 90       	pop	r4
    2948:	3f 90       	pop	r3
    294a:	2f 90       	pop	r2
    294c:	08 95       	ret

0000294e <eeprom_read>:
	CCP = CCP_IOREG_MODE;
	NVM.CTRLA = CTRLA_CMDEX_BYTE;
	while(NVM.STATUS>>7);
}

uint8_t	eeprom_read(uint16_t address){
    294e:	cf 93       	push	r28
    2950:	df 93       	push	r29
	NVM.CMD = READ_EEPROM;
    2952:	c0 ec       	ldi	r28, 0xC0	; 192
    2954:	d1 e0       	ldi	r29, 0x01	; 1
    2956:	26 e0       	ldi	r18, 0x06	; 6
    2958:	2a 87       	std	Y+10, r18	; 0x0a
	NVM.ADDR0 = address & 0xFF;
    295a:	88 83       	st	Y, r24
	NVM.ADDR1 = address >> 8;
    295c:	99 83       	std	Y+1, r25	; 0x01
	CCP = CCP_IOREG_MODE;
    295e:	88 ed       	ldi	r24, 0xD8	; 216
    2960:	84 bf       	out	0x34, r24	; 52
	NVM.CTRLA = CTRLA_CMDEX_BYTE;
    2962:	81 e0       	ldi	r24, 0x01	; 1
    2964:	8b 87       	std	Y+11, r24	; 0x0b
	delay_ms(1);
    2966:	66 ed       	ldi	r22, 0xD6	; 214
    2968:	74 e1       	ldi	r23, 0x14	; 20
    296a:	80 e0       	ldi	r24, 0x00	; 0
    296c:	90 e0       	ldi	r25, 0x00	; 0
    296e:	0e 94 ea 08 	call	0x11d4	; 0x11d4 <__portable_avr_delay_cycles>
	uint8_t byte = NVM.DATA0;
    2972:	8c 81       	ldd	r24, Y+4	; 0x04
	return byte;
}
    2974:	df 91       	pop	r29
    2976:	cf 91       	pop	r28
    2978:	08 95       	ret

0000297a <system_init>:
	}
}


// Sensor functions
void system_init(void){
    297a:	2f 92       	push	r2
    297c:	3f 92       	push	r3
    297e:	4f 92       	push	r4
    2980:	5f 92       	push	r5
    2982:	6f 92       	push	r6
    2984:	7f 92       	push	r7
    2986:	8f 92       	push	r8
    2988:	9f 92       	push	r9
    298a:	af 92       	push	r10
    298c:	bf 92       	push	r11
    298e:	cf 92       	push	r12
    2990:	df 92       	push	r13
    2992:	ef 92       	push	r14
    2994:	ff 92       	push	r15
    2996:	0f 93       	push	r16
    2998:	1f 93       	push	r17
    299a:	cf 93       	push	r28
    299c:	df 93       	push	r29
    299e:	cd b7       	in	r28, 0x3d	; 61
    29a0:	de b7       	in	r29, 0x3e	; 62
    29a2:	25 97       	sbiw	r28, 0x05	; 5
    29a4:	cd bf       	out	0x3d, r28	; 61
    29a6:	de bf       	out	0x3e, r29	; 62
	// Initialization of systems
	sysclk_init(); // initializes the system clock
    29a8:	0e 94 8f 08 	call	0x111e	; 0x111e <sysclk_init>
	delay_ms(2); // delays the rest of the processes to ensure a started clock
    29ac:	6b ea       	ldi	r22, 0xAB	; 171
    29ae:	79 e2       	ldi	r23, 0x29	; 41
    29b0:	80 e0       	ldi	r24, 0x00	; 0
    29b2:	90 e0       	ldi	r25, 0x00	; 0
    29b4:	0e 94 ea 08 	call	0x11d4	; 0x11d4 <__portable_avr_delay_cycles>
	sei();
    29b8:	78 94       	sei

	// Initialization of pins
	PORTC.DIR = 0xBC; // makes Port C have pins, 7, 5, 4, 3, and 2 be output (0b10111100)
    29ba:	8c eb       	ldi	r24, 0xBC	; 188
    29bc:	80 93 40 06 	sts	0x0640, r24	; 0x800640 <__TEXT_REGION_LENGTH__+0x700640>
	PMIC.CTRL = PMIC_LOLVLEN_bm | PMIC_MEDLVLEN_bm | PMIC_HILVLEN_bm; // enables lo level interrupts
    29c0:	87 e0       	ldi	r24, 0x07	; 7
    29c2:	80 93 a2 00 	sts	0x00A2, r24	; 0x8000a2 <__TEXT_REGION_LENGTH__+0x7000a2>

	// Driver Initialization
	cam_init();
    29c6:	0e 94 c6 05 	call	0xb8c	; 0xb8c <cam_init>
	data_terminal_init();
    29ca:	0e 94 0d 07 	call	0xe1a	; 0xe1a <data_terminal_init>
	delay_ms(500);
    29ce:	6b ea       	ldi	r22, 0xAB	; 171
    29d0:	70 eb       	ldi	r23, 0xB0	; 176
    29d2:	88 e2       	ldi	r24, 0x28	; 40
    29d4:	90 e0       	ldi	r25, 0x00	; 0
    29d6:	0e 94 ea 08 	call	0x11d4	; 0x11d4 <__portable_avr_delay_cycles>

	(*GPS_TERMINAL_SERIAL).CTRLA = USART_RXCINTLVL_HI_gc;
}

void xbee_init(void){
	USARTE0.CTRLA = USART_RXCINTLVL_MED_gc;
    29da:	80 e2       	ldi	r24, 0x20	; 32
    29dc:	80 93 a3 0a 	sts	0x0AA3, r24	; 0x800aa3 <__TEXT_REGION_LENGTH__+0x700aa3>
	// Driver Initialization
	cam_init();
	data_terminal_init();
	delay_ms(500);
	xbee_init();
	gps_init();
    29e0:	0e 94 1b 09 	call	0x1236	; 0x1236 <gps_init>
	//delay_ms(100);

	thermistor_init();
    29e4:	0e 94 cd 05 	call	0xb9a	; 0xb9a <thermistor_init>
	voltage_init();
    29e8:	0e 94 53 07 	call	0xea6	; 0xea6 <voltage_init>
	spi_init();
    29ec:	0e 94 dc 06 	call	0xdb8	; 0xdb8 <spi_init>
	pressure_init();
    29f0:	0e 94 f5 08 	call	0x11ea	; 0x11ea <pressure_init>
	//bno_init();
	cam_switch();
    29f4:	0e 94 bf 05 	call	0xb7e	; 0xb7e <cam_switch>
	clock_init();
    29f8:	53 d9       	rcall	.-3418   	; 0x1ca0 <clock_init>

	release_servo_init();
    29fa:	a5 d8       	rcall	.-3766   	; 0x1b46 <release_servo_init>
    29fc:	87 e0       	ldi	r24, 0x07	; 7

	// Check EEPROM

	if(eeprom_read(EEPROM_PAGE|TIME_ADDR_BYTE1)^0xFF){
    29fe:	90 e1       	ldi	r25, 0x10	; 16
    2a00:	a6 df       	rcall	.-180    	; 0x294e <eeprom_read>
    2a02:	8f 3f       	cpi	r24, 0xFF	; 255
    2a04:	09 f4       	brne	.+2      	; 0x2a08 <system_init+0x8e>
    2a06:	f9 c1       	rjmp	.+1010   	; 0x2dfa <system_init+0x480>
    2a08:	87 e4       	ldi	r24, 0x47	; 71
		printf("Reading EEPROM\n");
    2a0a:	90 e2       	ldi	r25, 0x20	; 32
    2a0c:	0e 94 36 20 	call	0x406c	; 0x406c <puts>
		uint64_t p =  ((uint64_t) eeprom_read(EEPROM_PAGE|GROUND_PRESS_ADDR7)<<56 | (uint64_t) eeprom_read(EEPROM_PAGE|GROUND_PRESS_ADDR6)<<48 |
    2a10:	80 e1       	ldi	r24, 0x10	; 16
    2a12:	90 e1       	ldi	r25, 0x10	; 16
    2a14:	9c df       	rcall	.-200    	; 0x294e <eeprom_read>
    2a16:	89 83       	std	Y+1, r24	; 0x01
    2a18:	8f e0       	ldi	r24, 0x0F	; 15
    2a1a:	90 e1       	ldi	r25, 0x10	; 16
    2a1c:	98 df       	rcall	.-208    	; 0x294e <eeprom_read>
    2a1e:	f8 2f       	mov	r31, r24
    2a20:	29 81       	ldd	r18, Y+1	; 0x01
    2a22:	30 e0       	ldi	r19, 0x00	; 0
    2a24:	40 e0       	ldi	r20, 0x00	; 0
    2a26:	50 e0       	ldi	r21, 0x00	; 0
    2a28:	60 e0       	ldi	r22, 0x00	; 0
    2a2a:	70 e0       	ldi	r23, 0x00	; 0
    2a2c:	80 e0       	ldi	r24, 0x00	; 0
    2a2e:	90 e0       	ldi	r25, 0x00	; 0
    2a30:	08 e3       	ldi	r16, 0x38	; 56
    2a32:	0e 94 a2 1f 	call	0x3f44	; 0x3f44 <__ashldi3>
    2a36:	29 83       	std	Y+1, r18	; 0x01
    2a38:	c3 2e       	mov	r12, r19
    2a3a:	d4 2e       	mov	r13, r20
    2a3c:	e5 2e       	mov	r14, r21
    2a3e:	6a 83       	std	Y+2, r22	; 0x02
    2a40:	e7 2f       	mov	r30, r23
    2a42:	f8 2e       	mov	r15, r24
    2a44:	19 2f       	mov	r17, r25
    2a46:	2f 2f       	mov	r18, r31
    2a48:	30 e0       	ldi	r19, 0x00	; 0
    2a4a:	40 e0       	ldi	r20, 0x00	; 0
    2a4c:	50 e0       	ldi	r21, 0x00	; 0
    2a4e:	60 e0       	ldi	r22, 0x00	; 0
    2a50:	70 e0       	ldi	r23, 0x00	; 0
    2a52:	80 e0       	ldi	r24, 0x00	; 0
    2a54:	90 e0       	ldi	r25, 0x00	; 0
    2a56:	00 e3       	ldi	r16, 0x30	; 48
    2a58:	0e 94 a2 1f 	call	0x3f44	; 0x3f44 <__ashldi3>
    2a5c:	f9 81       	ldd	r31, Y+1	; 0x01
    2a5e:	f2 2b       	or	r31, r18
    2a60:	f9 83       	std	Y+1, r31	; 0x01
    2a62:	c3 2a       	or	r12, r19
    2a64:	d4 2a       	or	r13, r20
    2a66:	e5 2a       	or	r14, r21
    2a68:	2a 81       	ldd	r18, Y+2	; 0x02
    2a6a:	26 2b       	or	r18, r22
    2a6c:	2a 83       	std	Y+2, r18	; 0x02
    2a6e:	be 2e       	mov	r11, r30
    2a70:	b7 2a       	or	r11, r23
    2a72:	f8 2a       	or	r15, r24
    2a74:	19 2b       	or	r17, r25
					   (uint64_t) eeprom_read(EEPROM_PAGE|GROUND_PRESS_ADDR5)<<40 | (uint64_t) eeprom_read(EEPROM_PAGE|GROUND_PRESS_ADDR4)<<32 |
    2a76:	8e e0       	ldi	r24, 0x0E	; 14
    2a78:	90 e1       	ldi	r25, 0x10	; 16
    2a7a:	69 df       	rcall	.-302    	; 0x294e <eeprom_read>
    2a7c:	08 2f       	mov	r16, r24
    2a7e:	8d e0       	ldi	r24, 0x0D	; 13
    2a80:	90 e1       	ldi	r25, 0x10	; 16
    2a82:	65 df       	rcall	.-310    	; 0x294e <eeprom_read>
    2a84:	48 2e       	mov	r4, r24
					   (uint64_t) eeprom_read(EEPROM_PAGE|GROUND_PRESS_ADDR3)<<24 | (uint64_t) eeprom_read(EEPROM_PAGE|GROUND_PRESS_ADDR2)<<16 |
    2a86:	8c e0       	ldi	r24, 0x0C	; 12
    2a88:	90 e1       	ldi	r25, 0x10	; 16
    2a8a:	61 df       	rcall	.-318    	; 0x294e <eeprom_read>
    2a8c:	58 2e       	mov	r5, r24
    2a8e:	8b e0       	ldi	r24, 0x0B	; 11
    2a90:	90 e1       	ldi	r25, 0x10	; 16
    2a92:	5d df       	rcall	.-326    	; 0x294e <eeprom_read>
    2a94:	68 2e       	mov	r6, r24
					   (uint64_t) eeprom_read(EEPROM_PAGE|GROUND_PRESS_ADDR1)<<8  | (uint64_t) eeprom_read(EEPROM_PAGE|GROUND_PRESS_ADDR0));
    2a96:	8a e0       	ldi	r24, 0x0A	; 10
    2a98:	90 e1       	ldi	r25, 0x10	; 16
    2a9a:	59 df       	rcall	.-334    	; 0x294e <eeprom_read>
    2a9c:	78 2e       	mov	r7, r24
    2a9e:	89 e0       	ldi	r24, 0x09	; 9
    2aa0:	90 e1       	ldi	r25, 0x10	; 16
    2aa2:	55 df       	rcall	.-342    	; 0x294e <eeprom_read>
    2aa4:	28 2e       	mov	r2, r24
    2aa6:	20 2f       	mov	r18, r16
    2aa8:	30 e0       	ldi	r19, 0x00	; 0
    2aaa:	40 e0       	ldi	r20, 0x00	; 0
    2aac:	50 e0       	ldi	r21, 0x00	; 0
    2aae:	60 e0       	ldi	r22, 0x00	; 0
    2ab0:	70 e0       	ldi	r23, 0x00	; 0
    2ab2:	80 e0       	ldi	r24, 0x00	; 0
    2ab4:	90 e0       	ldi	r25, 0x00	; 0
    2ab6:	08 e2       	ldi	r16, 0x28	; 40
    2ab8:	0e 94 a2 1f 	call	0x3f44	; 0x3f44 <__ashldi3>
    2abc:	e9 81       	ldd	r30, Y+1	; 0x01
    2abe:	e2 29       	or	r30, r2
    2ac0:	e2 2b       	or	r30, r18
    2ac2:	e9 83       	std	Y+1, r30	; 0x01
    2ac4:	c3 2a       	or	r12, r19
    2ac6:	d4 2a       	or	r13, r20
    2ac8:	e5 2a       	or	r14, r21
    2aca:	fa 81       	ldd	r31, Y+2	; 0x02
    2acc:	f6 2b       	or	r31, r22
    2ace:	fa 83       	std	Y+2, r31	; 0x02
    2ad0:	e7 2f       	mov	r30, r23
    2ad2:	eb 29       	or	r30, r11
    2ad4:	f8 2a       	or	r15, r24
    2ad6:	19 2b       	or	r17, r25
    2ad8:	24 2d       	mov	r18, r4
    2ada:	30 e0       	ldi	r19, 0x00	; 0
    2adc:	40 e0       	ldi	r20, 0x00	; 0
    2ade:	50 e0       	ldi	r21, 0x00	; 0
    2ae0:	60 e0       	ldi	r22, 0x00	; 0
    2ae2:	70 e0       	ldi	r23, 0x00	; 0
    2ae4:	80 e0       	ldi	r24, 0x00	; 0
    2ae6:	90 e0       	ldi	r25, 0x00	; 0
    2ae8:	00 e2       	ldi	r16, 0x20	; 32
    2aea:	0e 94 a2 1f 	call	0x3f44	; 0x3f44 <__ashldi3>
    2aee:	f9 81       	ldd	r31, Y+1	; 0x01
    2af0:	f2 2b       	or	r31, r18
    2af2:	f9 83       	std	Y+1, r31	; 0x01
    2af4:	c3 2a       	or	r12, r19
    2af6:	d4 2a       	or	r13, r20
    2af8:	e5 2a       	or	r14, r21
    2afa:	fa 81       	ldd	r31, Y+2	; 0x02
    2afc:	f6 2b       	or	r31, r22
    2afe:	fa 83       	std	Y+2, r31	; 0x02
    2b00:	e7 2b       	or	r30, r23
    2b02:	f8 2a       	or	r15, r24
    2b04:	19 2b       	or	r17, r25
    2b06:	25 2d       	mov	r18, r5
    2b08:	30 e0       	ldi	r19, 0x00	; 0
    2b0a:	40 e0       	ldi	r20, 0x00	; 0
    2b0c:	50 e0       	ldi	r21, 0x00	; 0
    2b0e:	60 e0       	ldi	r22, 0x00	; 0
    2b10:	70 e0       	ldi	r23, 0x00	; 0
    2b12:	80 e0       	ldi	r24, 0x00	; 0
    2b14:	90 e0       	ldi	r25, 0x00	; 0
    2b16:	08 e1       	ldi	r16, 0x18	; 24
    2b18:	0e 94 a2 1f 	call	0x3f44	; 0x3f44 <__ashldi3>
    2b1c:	f9 81       	ldd	r31, Y+1	; 0x01
    2b1e:	f2 2b       	or	r31, r18
    2b20:	f9 83       	std	Y+1, r31	; 0x01
    2b22:	c3 2a       	or	r12, r19
    2b24:	d4 2a       	or	r13, r20
    2b26:	e5 2a       	or	r14, r21
    2b28:	fa 81       	ldd	r31, Y+2	; 0x02
    2b2a:	f6 2b       	or	r31, r22
    2b2c:	fa 83       	std	Y+2, r31	; 0x02
    2b2e:	e7 2b       	or	r30, r23
    2b30:	f8 2a       	or	r15, r24
    2b32:	19 2b       	or	r17, r25
    2b34:	26 2d       	mov	r18, r6
    2b36:	30 e0       	ldi	r19, 0x00	; 0
    2b38:	40 e0       	ldi	r20, 0x00	; 0
    2b3a:	50 e0       	ldi	r21, 0x00	; 0
    2b3c:	60 e0       	ldi	r22, 0x00	; 0
    2b3e:	70 e0       	ldi	r23, 0x00	; 0
    2b40:	80 e0       	ldi	r24, 0x00	; 0
    2b42:	90 e0       	ldi	r25, 0x00	; 0
    2b44:	00 e1       	ldi	r16, 0x10	; 16
    2b46:	0e 94 a2 1f 	call	0x3f44	; 0x3f44 <__ashldi3>
    2b4a:	f9 81       	ldd	r31, Y+1	; 0x01
    2b4c:	f2 2b       	or	r31, r18
    2b4e:	f9 83       	std	Y+1, r31	; 0x01
    2b50:	c3 2a       	or	r12, r19
    2b52:	d4 2a       	or	r13, r20
    2b54:	e5 2a       	or	r14, r21
    2b56:	fa 81       	ldd	r31, Y+2	; 0x02
    2b58:	f6 2b       	or	r31, r22
    2b5a:	e7 2b       	or	r30, r23
    2b5c:	f8 2a       	or	r15, r24
    2b5e:	19 2b       	or	r17, r25
    2b60:	27 2d       	mov	r18, r7
    2b62:	30 e0       	ldi	r19, 0x00	; 0
    2b64:	40 e0       	ldi	r20, 0x00	; 0
    2b66:	50 e0       	ldi	r21, 0x00	; 0
    2b68:	60 e0       	ldi	r22, 0x00	; 0
    2b6a:	70 e0       	ldi	r23, 0x00	; 0
    2b6c:	80 e0       	ldi	r24, 0x00	; 0
    2b6e:	90 e0       	ldi	r25, 0x00	; 0
    2b70:	08 e0       	ldi	r16, 0x08	; 8
    2b72:	0e 94 a2 1f 	call	0x3f44	; 0x3f44 <__ashldi3>
    2b76:	29 80       	ldd	r2, Y+1	; 0x01
    2b78:	22 2a       	or	r2, r18
    2b7a:	3c 2c       	mov	r3, r12
    2b7c:	33 2a       	or	r3, r19
    2b7e:	8d 2c       	mov	r8, r13
    2b80:	84 2a       	or	r8, r20
    2b82:	9e 2c       	mov	r9, r14
    2b84:	95 2a       	or	r9, r21
    2b86:	af 2e       	mov	r10, r31
    2b88:	a6 2a       	or	r10, r22
    2b8a:	be 2e       	mov	r11, r30
    2b8c:	b7 2a       	or	r11, r23
    2b8e:	f8 2a       	or	r15, r24
    2b90:	19 2b       	or	r17, r25
		uint64_t t =  ((uint64_t) eeprom_read(EEPROM_PAGE|GROUND_TEMP_ADDR7)<<56  | (uint64_t) eeprom_read(EEPROM_PAGE|GROUND_TEMP_ADDR6)<<48 |
    2b92:	89 e1       	ldi	r24, 0x19	; 25
    2b94:	90 e1       	ldi	r25, 0x10	; 16
    2b96:	db de       	rcall	.-586    	; 0x294e <eeprom_read>
    2b98:	89 83       	std	Y+1, r24	; 0x01
    2b9a:	88 e1       	ldi	r24, 0x18	; 24
    2b9c:	90 e1       	ldi	r25, 0x10	; 16
    2b9e:	d7 de       	rcall	.-594    	; 0x294e <eeprom_read>
    2ba0:	e8 2e       	mov	r14, r24
    2ba2:	29 81       	ldd	r18, Y+1	; 0x01
    2ba4:	30 e0       	ldi	r19, 0x00	; 0
    2ba6:	40 e0       	ldi	r20, 0x00	; 0
    2ba8:	50 e0       	ldi	r21, 0x00	; 0
    2baa:	60 e0       	ldi	r22, 0x00	; 0
    2bac:	70 e0       	ldi	r23, 0x00	; 0
    2bae:	80 e0       	ldi	r24, 0x00	; 0
    2bb0:	90 e0       	ldi	r25, 0x00	; 0
    2bb2:	08 e3       	ldi	r16, 0x38	; 56
    2bb4:	0e 94 a2 1f 	call	0x3f44	; 0x3f44 <__ashldi3>
    2bb8:	b2 2f       	mov	r27, r18
    2bba:	c3 2e       	mov	r12, r19
    2bbc:	d4 2e       	mov	r13, r20
    2bbe:	a5 2f       	mov	r26, r21
    2bc0:	f6 2f       	mov	r31, r22
    2bc2:	e7 2f       	mov	r30, r23
    2bc4:	8a 83       	std	Y+2, r24	; 0x02
    2bc6:	99 83       	std	Y+1, r25	; 0x01
    2bc8:	2e 2d       	mov	r18, r14
    2bca:	30 e0       	ldi	r19, 0x00	; 0
    2bcc:	40 e0       	ldi	r20, 0x00	; 0
    2bce:	50 e0       	ldi	r21, 0x00	; 0
    2bd0:	60 e0       	ldi	r22, 0x00	; 0
    2bd2:	70 e0       	ldi	r23, 0x00	; 0
    2bd4:	80 e0       	ldi	r24, 0x00	; 0
    2bd6:	90 e0       	ldi	r25, 0x00	; 0
    2bd8:	00 e3       	ldi	r16, 0x30	; 48
    2bda:	0e 94 a2 1f 	call	0x3f44	; 0x3f44 <__ashldi3>
    2bde:	eb 2e       	mov	r14, r27
    2be0:	e2 2a       	or	r14, r18
    2be2:	c3 2a       	or	r12, r19
    2be4:	d4 2a       	or	r13, r20
    2be6:	5a 2e       	mov	r5, r26
    2be8:	55 2a       	or	r5, r21
    2bea:	6f 2e       	mov	r6, r31
    2bec:	66 2a       	or	r6, r22
    2bee:	7e 2e       	mov	r7, r30
    2bf0:	77 2a       	or	r7, r23
    2bf2:	2a 81       	ldd	r18, Y+2	; 0x02
    2bf4:	28 2b       	or	r18, r24
    2bf6:	2d 83       	std	Y+5, r18	; 0x05
    2bf8:	89 81       	ldd	r24, Y+1	; 0x01
    2bfa:	89 2b       	or	r24, r25
					   (uint64_t) eeprom_read(EEPROM_PAGE|GROUND_TEMP_ADDR5)<<40  | (uint64_t) eeprom_read(EEPROM_PAGE|GROUND_TEMP_ADDR4)<<32 |
    2bfc:	8c 83       	std	Y+4, r24	; 0x04
    2bfe:	87 e1       	ldi	r24, 0x17	; 23
    2c00:	90 e1       	ldi	r25, 0x10	; 16
    2c02:	a5 de       	rcall	.-694    	; 0x294e <eeprom_read>
    2c04:	08 2f       	mov	r16, r24
    2c06:	86 e1       	ldi	r24, 0x16	; 22
    2c08:	90 e1       	ldi	r25, 0x10	; 16
    2c0a:	a1 de       	rcall	.-702    	; 0x294e <eeprom_read>
					   (uint64_t) eeprom_read(EEPROM_PAGE|GROUND_TEMP_ADDR3)<<24  | (uint64_t) eeprom_read(EEPROM_PAGE|GROUND_TEMP_ADDR2)<<16 |
    2c0c:	48 2e       	mov	r4, r24
    2c0e:	85 e1       	ldi	r24, 0x15	; 21
    2c10:	90 e1       	ldi	r25, 0x10	; 16
    2c12:	9d de       	rcall	.-710    	; 0x294e <eeprom_read>
    2c14:	89 83       	std	Y+1, r24	; 0x01
    2c16:	84 e1       	ldi	r24, 0x14	; 20
    2c18:	90 e1       	ldi	r25, 0x10	; 16
    2c1a:	99 de       	rcall	.-718    	; 0x294e <eeprom_read>
    2c1c:	8a 83       	std	Y+2, r24	; 0x02
    2c1e:	83 e1       	ldi	r24, 0x13	; 19
					   (uint64_t) eeprom_read(EEPROM_PAGE|GROUND_TEMP_ADDR1)<<8   | (uint64_t) eeprom_read(EEPROM_PAGE|GROUND_TEMP_ADDR0));
    2c20:	90 e1       	ldi	r25, 0x10	; 16
    2c22:	95 de       	rcall	.-726    	; 0x294e <eeprom_read>
    2c24:	8b 83       	std	Y+3, r24	; 0x03
    2c26:	82 e1       	ldi	r24, 0x12	; 18
    2c28:	90 e1       	ldi	r25, 0x10	; 16
    2c2a:	91 de       	rcall	.-734    	; 0x294e <eeprom_read>
    2c2c:	a8 2f       	mov	r26, r24
    2c2e:	eb e2       	ldi	r30, 0x2B	; 43
    2c30:	f0 e2       	ldi	r31, 0x20	; 32
    2c32:	20 82       	st	Z, r2
		memcpy(&ground_p, &p, 8);
    2c34:	31 82       	std	Z+1, r3	; 0x01
    2c36:	82 82       	std	Z+2, r8	; 0x02
    2c38:	93 82       	std	Z+3, r9	; 0x03
    2c3a:	a4 82       	std	Z+4, r10	; 0x04
    2c3c:	b5 82       	std	Z+5, r11	; 0x05
    2c3e:	f6 82       	std	Z+6, r15	; 0x06
    2c40:	17 83       	std	Z+7, r17	; 0x07
    2c42:	e7 e2       	ldi	r30, 0x27	; 39
    2c44:	f0 e2       	ldi	r31, 0x20	; 32
    2c46:	20 2f       	mov	r18, r16
		memcpy(&ground_t, &t, 8);
    2c48:	30 e0       	ldi	r19, 0x00	; 0
    2c4a:	40 e0       	ldi	r20, 0x00	; 0
    2c4c:	50 e0       	ldi	r21, 0x00	; 0
    2c4e:	60 e0       	ldi	r22, 0x00	; 0
    2c50:	70 e0       	ldi	r23, 0x00	; 0
    2c52:	80 e0       	ldi	r24, 0x00	; 0
    2c54:	90 e0       	ldi	r25, 0x00	; 0
    2c56:	08 e2       	ldi	r16, 0x28	; 40
    2c58:	0e 94 a2 1f 	call	0x3f44	; 0x3f44 <__ashldi3>
    2c5c:	ea 2a       	or	r14, r26
    2c5e:	e2 2a       	or	r14, r18
    2c60:	c3 2a       	or	r12, r19
    2c62:	d4 2a       	or	r13, r20
    2c64:	f5 2e       	mov	r15, r21
    2c66:	f5 28       	or	r15, r5
    2c68:	16 2f       	mov	r17, r22
    2c6a:	16 29       	or	r17, r6
    2c6c:	b7 2f       	mov	r27, r23
    2c6e:	b7 29       	or	r27, r7
    2c70:	2d 81       	ldd	r18, Y+5	; 0x05
    2c72:	28 2b       	or	r18, r24
    2c74:	2d 83       	std	Y+5, r18	; 0x05
    2c76:	8c 81       	ldd	r24, Y+4	; 0x04
    2c78:	89 2b       	or	r24, r25
    2c7a:	8c 83       	std	Y+4, r24	; 0x04
    2c7c:	24 2d       	mov	r18, r4
    2c7e:	30 e0       	ldi	r19, 0x00	; 0
    2c80:	40 e0       	ldi	r20, 0x00	; 0
    2c82:	50 e0       	ldi	r21, 0x00	; 0
    2c84:	60 e0       	ldi	r22, 0x00	; 0
    2c86:	70 e0       	ldi	r23, 0x00	; 0
    2c88:	80 e0       	ldi	r24, 0x00	; 0
    2c8a:	90 e0       	ldi	r25, 0x00	; 0
    2c8c:	00 e2       	ldi	r16, 0x20	; 32
    2c8e:	0e 94 a2 1f 	call	0x3f44	; 0x3f44 <__ashldi3>
    2c92:	e2 2a       	or	r14, r18
    2c94:	c3 2a       	or	r12, r19
    2c96:	d4 2a       	or	r13, r20
    2c98:	f5 2a       	or	r15, r21
    2c9a:	16 2b       	or	r17, r22
    2c9c:	b7 2b       	or	r27, r23
    2c9e:	2d 81       	ldd	r18, Y+5	; 0x05
    2ca0:	28 2b       	or	r18, r24
    2ca2:	2d 83       	std	Y+5, r18	; 0x05
    2ca4:	8c 81       	ldd	r24, Y+4	; 0x04
    2ca6:	89 2b       	or	r24, r25
    2ca8:	8c 83       	std	Y+4, r24	; 0x04
    2caa:	29 81       	ldd	r18, Y+1	; 0x01
    2cac:	30 e0       	ldi	r19, 0x00	; 0
    2cae:	40 e0       	ldi	r20, 0x00	; 0
    2cb0:	50 e0       	ldi	r21, 0x00	; 0
    2cb2:	60 e0       	ldi	r22, 0x00	; 0
    2cb4:	70 e0       	ldi	r23, 0x00	; 0
    2cb6:	80 e0       	ldi	r24, 0x00	; 0
    2cb8:	90 e0       	ldi	r25, 0x00	; 0
    2cba:	08 e1       	ldi	r16, 0x18	; 24
    2cbc:	0e 94 a2 1f 	call	0x3f44	; 0x3f44 <__ashldi3>
    2cc0:	e2 2a       	or	r14, r18
    2cc2:	c3 2a       	or	r12, r19
    2cc4:	d4 2a       	or	r13, r20
    2cc6:	f5 2a       	or	r15, r21
    2cc8:	16 2b       	or	r17, r22
    2cca:	b7 2b       	or	r27, r23
    2ccc:	2d 81       	ldd	r18, Y+5	; 0x05
    2cce:	28 2b       	or	r18, r24
    2cd0:	2d 83       	std	Y+5, r18	; 0x05
    2cd2:	8c 81       	ldd	r24, Y+4	; 0x04
    2cd4:	89 2b       	or	r24, r25
    2cd6:	89 83       	std	Y+1, r24	; 0x01
    2cd8:	2a 81       	ldd	r18, Y+2	; 0x02
    2cda:	30 e0       	ldi	r19, 0x00	; 0
    2cdc:	40 e0       	ldi	r20, 0x00	; 0
    2cde:	50 e0       	ldi	r21, 0x00	; 0
    2ce0:	60 e0       	ldi	r22, 0x00	; 0
    2ce2:	70 e0       	ldi	r23, 0x00	; 0
    2ce4:	80 e0       	ldi	r24, 0x00	; 0
    2ce6:	90 e0       	ldi	r25, 0x00	; 0
    2ce8:	00 e1       	ldi	r16, 0x10	; 16
    2cea:	0e 94 a2 1f 	call	0x3f44	; 0x3f44 <__ashldi3>
    2cee:	e2 2a       	or	r14, r18
    2cf0:	c3 2a       	or	r12, r19
    2cf2:	d4 2a       	or	r13, r20
    2cf4:	f5 2a       	or	r15, r21
    2cf6:	16 2b       	or	r17, r22
    2cf8:	b7 2b       	or	r27, r23
    2cfa:	2d 81       	ldd	r18, Y+5	; 0x05
    2cfc:	28 2b       	or	r18, r24
    2cfe:	2a 83       	std	Y+2, r18	; 0x02
    2d00:	89 81       	ldd	r24, Y+1	; 0x01
    2d02:	89 2b       	or	r24, r25
    2d04:	89 83       	std	Y+1, r24	; 0x01
    2d06:	2b 81       	ldd	r18, Y+3	; 0x03
    2d08:	30 e0       	ldi	r19, 0x00	; 0
    2d0a:	40 e0       	ldi	r20, 0x00	; 0
    2d0c:	50 e0       	ldi	r21, 0x00	; 0
    2d0e:	60 e0       	ldi	r22, 0x00	; 0
    2d10:	70 e0       	ldi	r23, 0x00	; 0
    2d12:	80 e0       	ldi	r24, 0x00	; 0
    2d14:	90 e0       	ldi	r25, 0x00	; 0
    2d16:	08 e0       	ldi	r16, 0x08	; 8
    2d18:	0e 94 a2 1f 	call	0x3f44	; 0x3f44 <__ashldi3>
    2d1c:	2e 29       	or	r18, r14
    2d1e:	20 83       	st	Z, r18
    2d20:	3c 29       	or	r19, r12
    2d22:	31 83       	std	Z+1, r19	; 0x01
    2d24:	4d 29       	or	r20, r13
    2d26:	42 83       	std	Z+2, r20	; 0x02
    2d28:	5f 29       	or	r21, r15
    2d2a:	53 83       	std	Z+3, r21	; 0x03
    2d2c:	61 2b       	or	r22, r17
    2d2e:	64 83       	std	Z+4, r22	; 0x04
    2d30:	7b 2b       	or	r23, r27
    2d32:	75 83       	std	Z+5, r23	; 0x05
    2d34:	2a 81       	ldd	r18, Y+2	; 0x02
    2d36:	82 2b       	or	r24, r18
    2d38:	86 83       	std	Z+6, r24	; 0x06
    2d3a:	89 81       	ldd	r24, Y+1	; 0x01
    2d3c:	98 2b       	or	r25, r24
    2d3e:	97 83       	std	Z+7, r25	; 0x07
    2d40:	81 e0       	ldi	r24, 0x01	; 1
		
		alt = (double) ((int16_t) (eeprom_read(EEPROM_PAGE|ALT_ADDR_BYTE1)<<8 | eeprom_read(EEPROM_PAGE|ALT_ADDR_BYTE0)));
    2d42:	90 e1       	ldi	r25, 0x10	; 16
    2d44:	04 de       	rcall	.-1016   	; 0x294e <eeprom_read>
    2d46:	89 83       	std	Y+1, r24	; 0x01
    2d48:	80 e0       	ldi	r24, 0x00	; 0
    2d4a:	90 e1       	ldi	r25, 0x10	; 16
    2d4c:	00 de       	rcall	.-1024   	; 0x294e <eeprom_read>
    2d4e:	99 81       	ldd	r25, Y+1	; 0x01
    2d50:	69 2f       	mov	r22, r25
    2d52:	70 e0       	ldi	r23, 0x00	; 0
    2d54:	76 2f       	mov	r23, r22
    2d56:	66 27       	eor	r22, r22
    2d58:	68 2b       	or	r22, r24
    2d5a:	07 2e       	mov	r0, r23
    2d5c:	00 0c       	add	r0, r0
    2d5e:	88 0b       	sbc	r24, r24
    2d60:	99 0b       	sbc	r25, r25
    2d62:	de d5       	rcall	.+3004   	; 0x3920 <__floatsisf>
    2d64:	60 93 13 21 	sts	0x2113, r22	; 0x802113 <alt>
    2d68:	70 93 14 21 	sts	0x2114, r23	; 0x802114 <alt+0x1>
    2d6c:	80 93 15 21 	sts	0x2115, r24	; 0x802115 <alt+0x2>
    2d70:	90 93 16 21 	sts	0x2116, r25	; 0x802116 <alt+0x3>
    2d74:	87 e0       	ldi	r24, 0x07	; 7
		timer = (uint16_t) (eeprom_read(EEPROM_PAGE|TIME_ADDR_BYTE1)<<8 | eeprom_read(EEPROM_PAGE|TIME_ADDR_BYTE0));
    2d76:	90 e1       	ldi	r25, 0x10	; 16
    2d78:	ea dd       	rcall	.-1068   	; 0x294e <eeprom_read>
    2d7a:	89 83       	std	Y+1, r24	; 0x01
    2d7c:	86 e0       	ldi	r24, 0x06	; 6
    2d7e:	90 e1       	ldi	r25, 0x10	; 16
    2d80:	e6 dd       	rcall	.-1076   	; 0x294e <eeprom_read>
    2d82:	e9 81       	ldd	r30, Y+1	; 0x01
    2d84:	2e 2f       	mov	r18, r30
    2d86:	30 e0       	ldi	r19, 0x00	; 0
    2d88:	32 2f       	mov	r19, r18
    2d8a:	22 27       	eor	r18, r18
    2d8c:	28 2b       	or	r18, r24
    2d8e:	20 93 23 21 	sts	0x2123, r18	; 0x802123 <timer>
    2d92:	30 93 24 21 	sts	0x2124, r19	; 0x802124 <timer+0x1>
    2d96:	84 e0       	ldi	r24, 0x04	; 4
    2d98:	90 e1       	ldi	r25, 0x10	; 16
		packets = (uint16_t) (eeprom_read(EEPROM_PAGE|PACKET_ADDR_BYTE1)<<8 | eeprom_read(EEPROM_PAGE|PACKET_ADDR_BYTE0));
    2d9a:	d9 dd       	rcall	.-1102   	; 0x294e <eeprom_read>
    2d9c:	89 83       	std	Y+1, r24	; 0x01
    2d9e:	83 e0       	ldi	r24, 0x03	; 3
    2da0:	90 e1       	ldi	r25, 0x10	; 16
    2da2:	d5 dd       	rcall	.-1110   	; 0x294e <eeprom_read>
    2da4:	f9 81       	ldd	r31, Y+1	; 0x01
    2da6:	2f 2f       	mov	r18, r31
    2da8:	30 e0       	ldi	r19, 0x00	; 0
    2daa:	32 2f       	mov	r19, r18
    2dac:	22 27       	eor	r18, r18
    2dae:	28 2b       	or	r18, r24
    2db0:	20 93 1f 21 	sts	0x211F, r18	; 0x80211f <packets>
    2db4:	30 93 20 21 	sts	0x2120, r19	; 0x802120 <packets+0x1>
    2db8:	60 91 27 20 	lds	r22, 0x2027	; 0x802027 <ground_t>

		printf("Ground Pressure: %li\nGround Temperature: %i\n", (int32_t) ground_p, (int16_t) ground_t);
    2dbc:	70 91 28 20 	lds	r23, 0x2028	; 0x802028 <ground_t+0x1>
    2dc0:	80 91 29 20 	lds	r24, 0x2029	; 0x802029 <ground_t+0x2>
    2dc4:	90 91 2a 20 	lds	r25, 0x202A	; 0x80202a <ground_t+0x3>
    2dc8:	78 d5       	rcall	.+2800   	; 0x38ba <__fixsfsi>
    2dca:	7f 93       	push	r23
    2dcc:	6f 93       	push	r22
    2dce:	60 91 2b 20 	lds	r22, 0x202B	; 0x80202b <ground_p>
    2dd2:	70 91 2c 20 	lds	r23, 0x202C	; 0x80202c <ground_p+0x1>
    2dd6:	80 91 2d 20 	lds	r24, 0x202D	; 0x80202d <ground_p+0x2>
    2dda:	90 91 2e 20 	lds	r25, 0x202E	; 0x80202e <ground_p+0x3>
    2dde:	6d d5       	rcall	.+2778   	; 0x38ba <__fixsfsi>
    2de0:	9f 93       	push	r25
    2de2:	8f 93       	push	r24
    2de4:	7f 93       	push	r23
    2de6:	6f 93       	push	r22
    2de8:	86 e5       	ldi	r24, 0x56	; 86
    2dea:	90 e2       	ldi	r25, 0x20	; 32
    2dec:	9f 93       	push	r25
    2dee:	8f 93       	push	r24
    2df0:	0e 94 23 20 	call	0x4046	; 0x4046 <printf>
    2df4:	cd bf       	out	0x3d, r28	; 61
    2df6:	de bf       	out	0x3e, r29	; 62
    2df8:	17 c0       	rjmp	.+46     	; 0x2e28 <system_init+0x4ae>
    2dfa:	0e 94 2f 09 	call	0x125e	; 0x125e <get_pressure>
    2dfe:	60 93 2b 20 	sts	0x202B, r22	; 0x80202b <ground_p>
	}
	else{
		// Initialization of variables
		ground_p = get_pressure();
    2e02:	70 93 2c 20 	sts	0x202C, r23	; 0x80202c <ground_p+0x1>
    2e06:	80 93 2d 20 	sts	0x202D, r24	; 0x80202d <ground_p+0x2>
    2e0a:	90 93 2e 20 	sts	0x202E, r25	; 0x80202e <ground_p+0x3>
    2e0e:	83 e3       	ldi	r24, 0x33	; 51
    2e10:	93 e1       	ldi	r25, 0x13	; 19
    2e12:	a5 e9       	ldi	r26, 0x95	; 149
		ground_t = get_temperature();
    2e14:	b3 e4       	ldi	r27, 0x43	; 67
    2e16:	80 93 27 20 	sts	0x2027, r24	; 0x802027 <ground_t>
    2e1a:	90 93 28 20 	sts	0x2028, r25	; 0x802028 <ground_t+0x1>
    2e1e:	a0 93 29 20 	sts	0x2029, r26	; 0x802029 <ground_t+0x2>
    2e22:	b0 93 2a 20 	sts	0x202A, r27	; 0x80202a <ground_t+0x3>
    2e26:	b3 d9       	rcall	.-3226   	; 0x218e <eeprom_write_const>
    2e28:	0e 94 9b 0c 	call	0x1936	; 0x1936 <state_check>

		eeprom_write_const();
    2e2c:	25 96       	adiw	r28, 0x05	; 5
    2e2e:	cd bf       	out	0x3d, r28	; 61
	}

	state_check();
    2e30:	de bf       	out	0x3e, r29	; 62
    2e32:	df 91       	pop	r29
}
    2e34:	cf 91       	pop	r28
    2e36:	1f 91       	pop	r17
    2e38:	0f 91       	pop	r16
    2e3a:	ff 90       	pop	r15
    2e3c:	ef 90       	pop	r14
    2e3e:	df 90       	pop	r13
    2e40:	cf 90       	pop	r12
    2e42:	bf 90       	pop	r11
    2e44:	af 90       	pop	r10
    2e46:	9f 90       	pop	r9
    2e48:	8f 90       	pop	r8
    2e4a:	7f 90       	pop	r7
    2e4c:	6f 90       	pop	r6
    2e4e:	5f 90       	pop	r5
    2e50:	4f 90       	pop	r4
    2e52:	3f 90       	pop	r3
    2e54:	2f 90       	pop	r2
    2e56:	08 95       	ret

00002e58 <eeprom_erase>:
    2e58:	83 e3       	ldi	r24, 0x33	; 51
    2e5a:	80 93 ca 01 	sts	0x01CA, r24	; 0x8001ca <__TEXT_REGION_LENGTH__+0x7001ca>
    2e5e:	80 e0       	ldi	r24, 0x00	; 0
}

void eeprom_erase(void){
	NVM.CMD = LOAD_BUFFER_CMD;
	for(uint8_t i = 0; i < 32; i++){
		NVM.ADDR0 = i;
    2e60:	e0 ec       	ldi	r30, 0xC0	; 192
    2e62:	f1 e0       	ldi	r31, 0x01	; 1
		NVM.DATA0 = 0xFF;
    2e64:	9f ef       	ldi	r25, 0xFF	; 255
}

void eeprom_erase(void){
	NVM.CMD = LOAD_BUFFER_CMD;
	for(uint8_t i = 0; i < 32; i++){
		NVM.ADDR0 = i;
    2e66:	80 83       	st	Z, r24
		NVM.DATA0 = 0xFF;
    2e68:	94 83       	std	Z+4, r25	; 0x04
	return byte;
}

void eeprom_erase(void){
	NVM.CMD = LOAD_BUFFER_CMD;
	for(uint8_t i = 0; i < 32; i++){
    2e6a:	8f 5f       	subi	r24, 0xFF	; 255
    2e6c:	80 32       	cpi	r24, 0x20	; 32
    2e6e:	d9 f7       	brne	.-10     	; 0x2e66 <eeprom_erase+0xe>
		NVM.ADDR0 = i;
		NVM.DATA0 = 0xFF;
	}

	NVM.CMD = ERASE_EEPROM;
    2e70:	e0 ec       	ldi	r30, 0xC0	; 192
    2e72:	f1 e0       	ldi	r31, 0x01	; 1
    2e74:	80 e3       	ldi	r24, 0x30	; 48
    2e76:	82 87       	std	Z+10, r24	; 0x0a
	CCP = CCP_IOREG_MODE;
    2e78:	88 ed       	ldi	r24, 0xD8	; 216
    2e7a:	84 bf       	out	0x34, r24	; 52
	NVM.CTRLA = CTRLA_CMDEX_BYTE;
    2e7c:	81 e0       	ldi	r24, 0x01	; 1
    2e7e:	83 87       	std	Z+11, r24	; 0x0b
	while(NVM.STATUS>>7);
    2e80:	87 85       	ldd	r24, Z+15	; 0x0f
    2e82:	88 23       	and	r24, r24
    2e84:	ec f3       	brlt	.-6      	; 0x2e80 <eeprom_erase+0x28>
}
    2e86:	08 95       	ret

00002e88 <reset>:
			break;
	}
}

void reset(void){
	eeprom_erase();
    2e88:	e7 df       	rcall	.-50     	; 0x2e58 <eeprom_erase>

	uint8_t oldInterruptState = SREG;	// no real need to store the interrupt context as the reset will pre-empt its restoration
    2e8a:	8f b7       	in	r24, 0x3f	; 63
	cli();		                        // Disable interrupts
    2e8c:	f8 94       	cli

	CCP = 0xD8;							// Configuration change protection: allow protected IO regiser write
    2e8e:	98 ed       	ldi	r25, 0xD8	; 216
    2e90:	94 bf       	out	0x34, r25	; 52
	RST.CTRL = RST_SWRST_bm;			// Request software reset by writing to protected IO register
    2e92:	91 e0       	ldi	r25, 0x01	; 1
    2e94:	90 93 79 00 	sts	0x0079, r25	; 0x800079 <__TEXT_REGION_LENGTH__+0x700079>

	SREG=oldInterruptState;
    2e98:	8f bf       	out	0x3f, r24	; 63
    2e9a:	08 95       	ret

00002e9c <command>:
	TCD1.PER = 184; // 2700hz
	TCD1.CCA = 92;
}

void command(uint8_t c){
	switch(c){
    2e9c:	90 e0       	ldi	r25, 0x00	; 0
    2e9e:	fc 01       	movw	r30, r24
    2ea0:	e1 56       	subi	r30, 0x61	; 97
    2ea2:	f1 09       	sbc	r31, r1
    2ea4:	e3 31       	cpi	r30, 0x13	; 19
    2ea6:	f1 05       	cpc	r31, r1
    2ea8:	08 f5       	brcc	.+66     	; 0x2eec <command+0x50>
    2eaa:	88 27       	eor	r24, r24
    2eac:	e2 50       	subi	r30, 0x02	; 2
    2eae:	ff 4f       	sbci	r31, 0xFF	; 255
    2eb0:	8f 4f       	sbci	r24, 0xFF	; 255
    2eb2:	0c 94 80 1f 	jmp	0x3f00	; 0x3f00 <__tablejump2__>
		case RESET:
			reset();
    2eb6:	e8 cf       	rjmp	.-48     	; 0x2e88 <reset>
			break;
    2eb8:	08 95       	ret
		case CALIBRATE:
			calibrate();
    2eba:	0c 94 9a 0e 	jmp	0x1d34	; 0x1d34 <calibrate>
			break;
    2ebe:	08 95       	ret
		case CALIBRATE_ALTITUDE:
			cali_alt();
    2ec0:	0c 94 5e 0e 	jmp	0x1cbc	; 0x1cbc <cali_alt>
			break;
    2ec4:	08 95       	ret
		case CALIBRATE_ANGLE:
			cali_ang();
    2ec6:	0c 94 7b 0e 	jmp	0x1cf6	; 0x1cf6 <cali_ang>
			break;
    2eca:	08 95       	ret
	ref_pitch = imu_pitch();
	ref_yaw = imu_heading();
}

void servo_release(void){
	TCD0.CCA = 1200;
    2ecc:	80 eb       	ldi	r24, 0xB0	; 176
    2ece:	94 e0       	ldi	r25, 0x04	; 4
    2ed0:	80 93 28 09 	sts	0x0928, r24	; 0x800928 <__TEXT_REGION_LENGTH__+0x700928>
    2ed4:	90 93 29 09 	sts	0x0929, r25	; 0x800929 <__TEXT_REGION_LENGTH__+0x700929>
    2ed8:	08 95       	ret
}

void servo_close(void){
	TCD0.CCA = 750;
    2eda:	8e ee       	ldi	r24, 0xEE	; 238
    2edc:	92 e0       	ldi	r25, 0x02	; 2
    2ede:	80 93 28 09 	sts	0x0928, r24	; 0x800928 <__TEXT_REGION_LENGTH__+0x700928>
    2ee2:	90 93 29 09 	sts	0x0929, r25	; 0x800929 <__TEXT_REGION_LENGTH__+0x700929>
    2ee6:	08 95       	ret
			servo_close();
			break;
		//case SERVO_CLOSE:
			//servo_close();
		case PACKET:
			packet();
    2ee8:	0c 94 9d 0e 	jmp	0x1d3a	; 0x1d3a <packet>
    2eec:	08 95       	ret

00002eee <main>:

char* format = "5343,%i,%i,%i,%li,%i.%i,%i.%i,%02i:%02i:%02i,%i.%li,%i.%li,%i.%i,%i,%i,%i,%i,%i,%i\n";


////////////////////////////// Functions ///////////////////////////////
int main(void){
    2eee:	cf 93       	push	r28
    2ef0:	df 93       	push	r29
    2ef2:	cd b7       	in	r28, 0x3d	; 61
    2ef4:	de b7       	in	r29, 0x3e	; 62
    2ef6:	c8 56       	subi	r28, 0x68	; 104
    2ef8:	d1 09       	sbc	r29, r1
    2efa:	cd bf       	out	0x3d, r28	; 61
    2efc:	de bf       	out	0x3e, r29	; 62
	system_init();
    2efe:	3d dd       	rcall	.-1414   	; 0x297a <system_init>
	//delay_ms(100);

	PORTD.DIR |= PIN3_bm;
    2f00:	e0 e6       	ldi	r30, 0x60	; 96
    2f02:	f6 e0       	ldi	r31, 0x06	; 6
    2f04:	80 81       	ld	r24, Z
    2f06:	88 60       	ori	r24, 0x08	; 8
    2f08:	80 83       	st	Z, r24
	PORTD.OUT |= PIN3_bm;
    2f0a:	84 81       	ldd	r24, Z+4	; 0x04
    2f0c:	88 60       	ori	r24, 0x08	; 8
    2f0e:	84 83       	std	Z+4, r24	; 0x04

	//printf("Initialized\n");
	//buzzer_init();

	int16_t alt_array[] = {0,0,0,0,0,0,0,0,0,0};
    2f10:	14 e1       	ldi	r17, 0x14	; 20
    2f12:	be 01       	movw	r22, r28
    2f14:	6f 5f       	subi	r22, 0xFF	; 255
    2f16:	7f 4f       	sbci	r23, 0xFF	; 255
    2f18:	fb 01       	movw	r30, r22
    2f1a:	81 2f       	mov	r24, r17
    2f1c:	11 92       	st	Z+, r1
    2f1e:	8a 95       	dec	r24
    2f20:	e9 f7       	brne	.-6      	; 0x2f1c <main+0x2e>
	RingBuffer16_t altitudes;	// in centimeters
	rb16_init(&altitudes, alt_array, (uint16_t) 10);
    2f22:	4a e0       	ldi	r20, 0x0A	; 10
    2f24:	50 e0       	ldi	r21, 0x00	; 0
    2f26:	ce 01       	movw	r24, r28
    2f28:	45 96       	adiw	r24, 0x15	; 21
    2f2a:	0e 94 c8 07 	call	0xf90	; 0xf90 <rb16_init>

	int32_t press_array[] = {0,0,0,0,0,0,0,0,0,0};
    2f2e:	be 01       	movw	r22, r28
    2f30:	63 5e       	subi	r22, 0xE3	; 227
    2f32:	7f 4f       	sbci	r23, 0xFF	; 255
    2f34:	88 e2       	ldi	r24, 0x28	; 40
    2f36:	fb 01       	movw	r30, r22
    2f38:	11 92       	st	Z+, r1
    2f3a:	8a 95       	dec	r24
    2f3c:	e9 f7       	brne	.-6      	; 0x2f38 <main+0x4a>
	RingBuffer32_t pressures;	// in Pascals / 10
	rb32_init(&pressures, press_array, (uint16_t) 10);
    2f3e:	4a e0       	ldi	r20, 0x0A	; 10
    2f40:	50 e0       	ldi	r21, 0x00	; 0
    2f42:	ce 01       	movw	r24, r28
    2f44:	8b 5b       	subi	r24, 0xBB	; 187
    2f46:	9f 4f       	sbci	r25, 0xFF	; 255
    2f48:	0e 94 50 08 	call	0x10a0	; 0x10a0 <rb32_init>

	int16_t direct_array[] = {0,0,0,0,0,0,0,0,0,0};
    2f4c:	be 01       	movw	r22, r28
    2f4e:	63 5b       	subi	r22, 0xB3	; 179
    2f50:	7f 4f       	sbci	r23, 0xFF	; 255
    2f52:	fb 01       	movw	r30, r22
    2f54:	11 92       	st	Z+, r1
    2f56:	1a 95       	dec	r17
    2f58:	e9 f7       	brne	.-6      	; 0x2f54 <main+0x66>
	RingBuffer16_t directions;	// in hundredths degrees
	rb16_init(&directions, direct_array, (uint16_t) 10);
    2f5a:	4a e0       	ldi	r20, 0x0A	; 10
    2f5c:	50 e0       	ldi	r21, 0x00	; 0
    2f5e:	ce 01       	movw	r24, r28
    2f60:	8f 59       	subi	r24, 0x9F	; 159
    2f62:	9f 4f       	sbci	r25, 0xFF	; 255
    2f64:	0e 94 c8 07 	call	0xf90	; 0xf90 <rb16_init>

	uint8_t cam_initialized = 0;
	uint8_t buzzer_initialized = 0;
    2f68:	00 e0       	ldi	r16, 0x00	; 0

	int16_t direct_array[] = {0,0,0,0,0,0,0,0,0,0};
	RingBuffer16_t directions;	// in hundredths degrees
	rb16_init(&directions, direct_array, (uint16_t) 10);

	uint8_t cam_initialized = 0;
    2f6a:	10 e0       	ldi	r17, 0x00	; 0


	while(1){
		//printf("In Loop\n");
		// Check Sensors
		data_collect(&altitudes,&pressures);
    2f6c:	be 01       	movw	r22, r28
    2f6e:	6b 5b       	subi	r22, 0xBB	; 187
    2f70:	7f 4f       	sbci	r23, 0xFF	; 255
    2f72:	ce 01       	movw	r24, r28
    2f74:	45 96       	adiw	r24, 0x15	; 21
    2f76:	0e 94 08 0c 	call	0x1810	; 0x1810 <data_collect>

		state_check();
    2f7a:	0e 94 9b 0c 	call	0x1936	; 0x1936 <state_check>

		// IMU Check
		//imu_read();

		//Gives each flight state their unique tasks
		switch(state){
    2f7e:	80 91 46 21 	lds	r24, 0x2146	; 0x802146 <state>
    2f82:	81 30       	cpi	r24, 0x01	; 1
    2f84:	31 f0       	breq	.+12     	; 0x2f92 <main+0xa4>
    2f86:	c8 f1       	brcs	.+114    	; 0x2ffa <main+0x10c>
    2f88:	82 30       	cpi	r24, 0x02	; 2
    2f8a:	39 f0       	breq	.+14     	; 0x2f9a <main+0xac>
    2f8c:	83 30       	cpi	r24, 0x03	; 3
    2f8e:	79 f1       	breq	.+94     	; 0x2fee <main+0x100>
    2f90:	32 c0       	rjmp	.+100    	; 0x2ff6 <main+0x108>
			case 0:
				break;
			case 1:
				if(!cam_initialized){
    2f92:	11 11       	cpse	r17, r1
    2f94:	32 c0       	rjmp	.+100    	; 0x2ffa <main+0x10c>
					cam_initialized = 1;
    2f96:	11 e0       	ldi	r17, 0x01	; 1
    2f98:	30 c0       	rjmp	.+96     	; 0x2ffa <main+0x10c>
					//cam_switch();
				}
				break;
			case 2:
				if(!cam_initialized){
    2f9a:	11 11       	cpse	r17, r1
    2f9c:	01 c0       	rjmp	.+2      	; 0x2fa0 <main+0xb2>
					cam_initialized = 1;
    2f9e:	11 e0       	ldi	r17, 0x01	; 1
					//cam_switch();
				}
				if(abs(alt-450)<EPSILON_ALTITUDE){
    2fa0:	60 91 13 21 	lds	r22, 0x2113	; 0x802113 <alt>
    2fa4:	70 91 14 21 	lds	r23, 0x2114	; 0x802114 <alt+0x1>
    2fa8:	80 91 15 21 	lds	r24, 0x2115	; 0x802115 <alt+0x2>
    2fac:	90 91 16 21 	lds	r25, 0x2116	; 0x802116 <alt+0x3>
    2fb0:	20 e0       	ldi	r18, 0x00	; 0
    2fb2:	30 e0       	ldi	r19, 0x00	; 0
    2fb4:	41 ee       	ldi	r20, 0xE1	; 225
    2fb6:	53 e4       	ldi	r21, 0x43	; 67
    2fb8:	af d3       	rcall	.+1886   	; 0x3718 <__subsf3>
    2fba:	7f d4       	rcall	.+2302   	; 0x38ba <__fixsfsi>
    2fbc:	9b 01       	movw	r18, r22
    2fbe:	77 23       	and	r23, r23
    2fc0:	24 f4       	brge	.+8      	; 0x2fca <main+0xdc>
    2fc2:	22 27       	eor	r18, r18
    2fc4:	33 27       	eor	r19, r19
    2fc6:	26 1b       	sub	r18, r22
    2fc8:	37 0b       	sbc	r19, r23
    2fca:	2a 30       	cpi	r18, 0x0A	; 10
    2fcc:	31 05       	cpc	r19, r1
    2fce:	2c f4       	brge	.+10     	; 0x2fda <main+0xec>
					release();				// Releases the payload
    2fd0:	0e 94 25 09 	call	0x124a	; 0x124a <release>
					hall_sensor_init();		// Starts hall effect sensor to read rpm
    2fd4:	0e 94 a3 05 	call	0xb46	; 0xb46 <hall_sensor_init>
    2fd8:	10 c0       	rjmp	.+32     	; 0x2ffa <main+0x10c>
				}
				else if(released){
    2fda:	80 91 45 21 	lds	r24, 0x2145	; 0x802145 <released>
    2fde:	88 23       	and	r24, r24
    2fe0:	61 f0       	breq	.+24     	; 0x2ffa <main+0x10c>
					servo_pid(&directions);	// Updates the PID
    2fe2:	ce 01       	movw	r24, r28
    2fe4:	8f 59       	subi	r24, 0x9F	; 159
    2fe6:	9f 4f       	sbci	r25, 0xFF	; 255
    2fe8:	0e 94 bd 0d 	call	0x1b7a	; 0x1b7a <servo_pid>
    2fec:	06 c0       	rjmp	.+12     	; 0x2ffa <main+0x10c>
				}
				break;
			case 3:
				if(!buzzer_initialized){
    2fee:	01 11       	cpse	r16, r1
    2ff0:	04 c0       	rjmp	.+8      	; 0x2ffa <main+0x10c>
					//buzzer_init();
					buzzer_initialized = 1;
    2ff2:	01 e0       	ldi	r16, 0x01	; 1
    2ff4:	02 c0       	rjmp	.+4      	; 0x2ffa <main+0x10c>
				}
				break;
			default:
				state_check();
    2ff6:	0e 94 9b 0c 	call	0x1936	; 0x1936 <state_check>
				break;
		}

		if(time_flag){
    2ffa:	80 91 44 21 	lds	r24, 0x2144	; 0x802144 <time_flag>
    2ffe:	88 23       	and	r24, r24
			time_update();
    3000:	19 f0       	breq	.+6      	; 0x3008 <main+0x11a>
    3002:	63 da       	rcall	.-2874   	; 0x24ca <time_update>
			time_flag = 0;
    3004:	10 92 44 21 	sts	0x2144, r1	; 0x802144 <time_flag>
		}
		if(xbee_flag){
    3008:	80 91 43 21 	lds	r24, 0x2143	; 0x802143 <xbee_flag>
    300c:	88 23       	and	r24, r24
			command(xbee_comm);
    300e:	39 f0       	breq	.+14     	; 0x301e <main+0x130>
    3010:	80 91 36 21 	lds	r24, 0x2136	; 0x802136 <xbee_comm>
    3014:	43 df       	rcall	.-378    	; 0x2e9c <command>
			xbee_comm = 0;
    3016:	10 92 36 21 	sts	0x2136, r1	; 0x802136 <xbee_comm>
			xbee_flag = 0;
    301a:	10 92 43 21 	sts	0x2143, r1	; 0x802143 <xbee_flag>
		}

		data_packets++;
    301e:	80 91 21 21 	lds	r24, 0x2121	; 0x802121 <data_packets>
    3022:	90 91 22 21 	lds	r25, 0x2122	; 0x802122 <data_packets+0x1>
    3026:	01 96       	adiw	r24, 0x01	; 1
    3028:	80 93 21 21 	sts	0x2121, r24	; 0x802121 <data_packets>
    302c:	90 93 22 21 	sts	0x2122, r25	; 0x802122 <data_packets+0x1>
		if(timer != 0){
    3030:	80 91 23 21 	lds	r24, 0x2123	; 0x802123 <timer>
    3034:	90 91 24 21 	lds	r25, 0x2124	; 0x802124 <timer+0x1>
    3038:	89 2b       	or	r24, r25
    303a:	09 f4       	brne	.+2      	; 0x303e <main+0x150>
    303c:	97 cf       	rjmp	.-210    	; 0x2f6c <main+0x7e>
			rate = data_packets / timer;
    303e:	80 91 21 21 	lds	r24, 0x2121	; 0x802121 <data_packets>
    3042:	90 91 22 21 	lds	r25, 0x2122	; 0x802122 <data_packets+0x1>
    3046:	60 91 23 21 	lds	r22, 0x2123	; 0x802123 <timer>
    304a:	70 91 24 21 	lds	r23, 0x2124	; 0x802124 <timer+0x1>
    304e:	f3 d6       	rcall	.+3558   	; 0x3e36 <__udivmodhi4>
    3050:	60 93 17 20 	sts	0x2017, r22	; 0x802017 <rate>
    3054:	70 93 18 20 	sts	0x2018, r23	; 0x802018 <rate+0x1>
    3058:	89 cf       	rjmp	.-238    	; 0x2f6c <main+0x7e>

0000305a <__vector_47>:
	CCP = CCP_IOREG_MODE;
	NVM.CTRLA = CTRLA_CMDEX_BYTE;
	while(NVM.STATUS>>7);
}

ISR(TCE0_OVF_vect){
    305a:	1f 92       	push	r1
    305c:	0f 92       	push	r0
    305e:	0f b6       	in	r0, 0x3f	; 63
    3060:	0f 92       	push	r0
    3062:	11 24       	eor	r1, r1
    3064:	08 b6       	in	r0, 0x38	; 56
    3066:	0f 92       	push	r0
    3068:	18 be       	out	0x38, r1	; 56
    306a:	8f 93       	push	r24
    306c:	9f 93       	push	r25
	timer++;
    306e:	80 91 23 21 	lds	r24, 0x2123	; 0x802123 <timer>
    3072:	90 91 24 21 	lds	r25, 0x2124	; 0x802124 <timer+0x1>
    3076:	01 96       	adiw	r24, 0x01	; 1
    3078:	80 93 23 21 	sts	0x2123, r24	; 0x802123 <timer>
    307c:	90 93 24 21 	sts	0x2124, r25	; 0x802124 <timer+0x1>
	time_flag = 1;
    3080:	81 e0       	ldi	r24, 0x01	; 1
    3082:	80 93 44 21 	sts	0x2144, r24	; 0x802144 <time_flag>
}
    3086:	9f 91       	pop	r25
    3088:	8f 91       	pop	r24
    308a:	0f 90       	pop	r0
    308c:	08 be       	out	0x38, r0	; 56
    308e:	0f 90       	pop	r0
    3090:	0f be       	out	0x3f, r0	; 63
    3092:	0f 90       	pop	r0
    3094:	1f 90       	pop	r1
    3096:	18 95       	reti

00003098 <__vector_58>:

ISR(USARTE0_RXC_vect){
    3098:	1f 92       	push	r1
    309a:	0f 92       	push	r0
    309c:	0f b6       	in	r0, 0x3f	; 63
    309e:	0f 92       	push	r0
    30a0:	11 24       	eor	r1, r1
    30a2:	08 b6       	in	r0, 0x38	; 56
    30a4:	0f 92       	push	r0
    30a6:	18 be       	out	0x38, r1	; 56
    30a8:	09 b6       	in	r0, 0x39	; 57
    30aa:	0f 92       	push	r0
    30ac:	19 be       	out	0x39, r1	; 57
    30ae:	0b b6       	in	r0, 0x3b	; 59
    30b0:	0f 92       	push	r0
    30b2:	1b be       	out	0x3b, r1	; 59
    30b4:	2f 93       	push	r18
    30b6:	3f 93       	push	r19
    30b8:	4f 93       	push	r20
    30ba:	5f 93       	push	r21
    30bc:	6f 93       	push	r22
    30be:	7f 93       	push	r23
    30c0:	8f 93       	push	r24
    30c2:	9f 93       	push	r25
    30c4:	af 93       	push	r26
    30c6:	bf 93       	push	r27
    30c8:	ef 93       	push	r30
    30ca:	ff 93       	push	r31
	xbee_comm = usart_getchar(UART_TERMINAL_SERIAL);
    30cc:	80 ea       	ldi	r24, 0xA0	; 160
    30ce:	9a e0       	ldi	r25, 0x0A	; 10
    30d0:	0e 94 a1 03 	call	0x742	; 0x742 <usart_getchar>
    30d4:	80 93 36 21 	sts	0x2136, r24	; 0x802136 <xbee_comm>
	xbee_flag = 1;
    30d8:	81 e0       	ldi	r24, 0x01	; 1
    30da:	80 93 43 21 	sts	0x2143, r24	; 0x802143 <xbee_flag>
}
    30de:	ff 91       	pop	r31
    30e0:	ef 91       	pop	r30
    30e2:	bf 91       	pop	r27
    30e4:	af 91       	pop	r26
    30e6:	9f 91       	pop	r25
    30e8:	8f 91       	pop	r24
    30ea:	7f 91       	pop	r23
    30ec:	6f 91       	pop	r22
    30ee:	5f 91       	pop	r21
    30f0:	4f 91       	pop	r20
    30f2:	3f 91       	pop	r19
    30f4:	2f 91       	pop	r18
    30f6:	0f 90       	pop	r0
    30f8:	0b be       	out	0x3b, r0	; 59
    30fa:	0f 90       	pop	r0
    30fc:	09 be       	out	0x39, r0	; 57
    30fe:	0f 90       	pop	r0
    3100:	08 be       	out	0x38, r0	; 56
    3102:	0f 90       	pop	r0
    3104:	0f be       	out	0x3f, r0	; 63
    3106:	0f 90       	pop	r0
    3108:	1f 90       	pop	r1
    310a:	18 95       	reti

0000310c <__vector_91>:


// GPS recording
ISR(USARTD1_RXC_vect){
    310c:	1f 92       	push	r1
    310e:	0f 92       	push	r0
    3110:	0f b6       	in	r0, 0x3f	; 63
    3112:	0f 92       	push	r0
    3114:	11 24       	eor	r1, r1
    3116:	08 b6       	in	r0, 0x38	; 56
    3118:	0f 92       	push	r0
    311a:	18 be       	out	0x38, r1	; 56
    311c:	09 b6       	in	r0, 0x39	; 57
    311e:	0f 92       	push	r0
    3120:	19 be       	out	0x39, r1	; 57
    3122:	0a b6       	in	r0, 0x3a	; 58
    3124:	0f 92       	push	r0
    3126:	1a be       	out	0x3a, r1	; 58
    3128:	0b b6       	in	r0, 0x3b	; 59
    312a:	0f 92       	push	r0
    312c:	1b be       	out	0x3b, r1	; 59
    312e:	8f 92       	push	r8
    3130:	9f 92       	push	r9
    3132:	af 92       	push	r10
    3134:	bf 92       	push	r11
    3136:	cf 92       	push	r12
    3138:	df 92       	push	r13
    313a:	ef 92       	push	r14
    313c:	ff 92       	push	r15
    313e:	1f 93       	push	r17
    3140:	2f 93       	push	r18
    3142:	3f 93       	push	r19
    3144:	4f 93       	push	r20
    3146:	5f 93       	push	r21
    3148:	6f 93       	push	r22
    314a:	7f 93       	push	r23
    314c:	8f 93       	push	r24
    314e:	9f 93       	push	r25
    3150:	af 93       	push	r26
    3152:	bf 93       	push	r27
    3154:	ef 93       	push	r30
    3156:	ff 93       	push	r31
    3158:	cf 93       	push	r28
    315a:	df 93       	push	r29
    315c:	00 d0       	rcall	.+0      	; 0x315e <__vector_91+0x52>
    315e:	00 d0       	rcall	.+0      	; 0x3160 <__vector_91+0x54>
    3160:	cd b7       	in	r28, 0x3d	; 61
    3162:	de b7       	in	r29, 0x3e	; 62
	uint8_t c = usart_getchar(GPS_TERMINAL_SERIAL);
    3164:	80 eb       	ldi	r24, 0xB0	; 176
    3166:	99 e0       	ldi	r25, 0x09	; 9
    3168:	0e 94 a1 03 	call	0x742	; 0x742 <usart_getchar>
    316c:	18 2f       	mov	r17, r24
	//printf("%c",c);

	if(c == (uint8_t) '$'){
    316e:	84 32       	cpi	r24, 0x24	; 36
    3170:	51 f4       	brne	.+20     	; 0x3186 <__vector_91+0x7a>
		writing = 1;
    3172:	81 e0       	ldi	r24, 0x01	; 1
    3174:	80 93 29 21 	sts	0x2129, r24	; 0x802129 <writing>
		pos = 0;
    3178:	10 92 28 21 	sts	0x2128, r1	; 0x802128 <pos>
		word_pos = 0;
    317c:	10 92 27 21 	sts	0x2127, r1	; 0x802127 <word_pos>
		commas = 0;
    3180:	10 92 26 21 	sts	0x2126, r1	; 0x802126 <commas>
    3184:	5a c2       	rjmp	.+1204   	; 0x363a <__vector_91+0x52e>
	}
	else if(c == (uint8_t) '*'){
    3186:	8a 32       	cpi	r24, 0x2A	; 42
    3188:	29 f4       	brne	.+10     	; 0x3194 <__vector_91+0x88>
		commas = 0;
    318a:	10 92 26 21 	sts	0x2126, r1	; 0x802126 <commas>
		writing = 0;
    318e:	10 92 29 21 	sts	0x2129, r1	; 0x802129 <writing>
    3192:	53 c2       	rjmp	.+1190   	; 0x363a <__vector_91+0x52e>
	}
	else if(c == (uint8_t) ','){
    3194:	8c 32       	cpi	r24, 0x2C	; 44
    3196:	09 f0       	breq	.+2      	; 0x319a <__vector_91+0x8e>
    3198:	50 c2       	rjmp	.+1184   	; 0x363a <__vector_91+0x52e>
		gps[0] = 32;
    319a:	ea e7       	ldi	r30, 0x7A	; 122
    319c:	f1 e2       	ldi	r31, 0x21	; 33
    319e:	80 e2       	ldi	r24, 0x20	; 32
    31a0:	80 83       	st	Z, r24
		if(gps[1] == 32){
    31a2:	81 81       	ldd	r24, Z+1	; 0x01
    31a4:	80 32       	cpi	r24, 0x20	; 32
    31a6:	09 f0       	breq	.+2      	; 0x31aa <__vector_91+0x9e>
    31a8:	77 c2       	rjmp	.+1262   	; 0x3698 <__vector_91+0x58c>
			gps[0] = '0';
    31aa:	80 e3       	ldi	r24, 0x30	; 48
    31ac:	80 93 7a 21 	sts	0x217A, r24	; 0x80217a <gps>
    31b0:	73 c2       	rjmp	.+1254   	; 0x3698 <__vector_91+0x58c>
			case 7:			//Sats
				sscanf(gps,"%d",&gps_sats);
				break;
			case 9:			//Altitude
				for(uint8_t i = 0; i < 15; i++){
					if(gps[i] == (uint8_t) '.'){
    31b2:	80 91 7a 21 	lds	r24, 0x217A	; 0x80217a <gps>
    31b6:	8e 32       	cpi	r24, 0x2E	; 46
    31b8:	09 f0       	breq	.+2      	; 0x31bc <__vector_91+0xb0>
    31ba:	a3 c1       	rjmp	.+838    	; 0x3502 <__vector_91+0x3f6>
    31bc:	a9 c1       	rjmp	.+850    	; 0x3510 <__vector_91+0x404>
				sscanf(dec,"%d",&val2);
				gps_lat = val/100 + ((double)(val%100) + ((double)(val2))/10000) / 60.0;
				break;
			case 4:			//Longitude
				for(uint8_t i = 0; i < 15; i++){
					if(gps[i] == (uint8_t) '.'){
    31be:	80 91 7a 21 	lds	r24, 0x217A	; 0x80217a <gps>
    31c2:	8e 32       	cpi	r24, 0x2E	; 46
    31c4:	09 f0       	breq	.+2      	; 0x31c8 <__vector_91+0xbc>
    31c6:	ef c0       	rjmp	.+478    	; 0x33a6 <__vector_91+0x29a>
    31c8:	f5 c0       	rjmp	.+490    	; 0x33b4 <__vector_91+0x2a8>
				sscanf(gps,"%ld",&val);
				gps_t = (double) val;
				break;
			case 2:			//Latitude
				for(uint8_t i = 0; i < 15; i++){
					if(gps[i] == (uint8_t) '.'){
    31ca:	80 91 7a 21 	lds	r24, 0x217A	; 0x80217a <gps>
    31ce:	8e 32       	cpi	r24, 0x2E	; 46
    31d0:	09 f0       	breq	.+2      	; 0x31d4 <__vector_91+0xc8>
    31d2:	52 c0       	rjmp	.+164    	; 0x3278 <__vector_91+0x16c>
    31d4:	58 c0       	rjmp	.+176    	; 0x3286 <__vector_91+0x17a>
		int32_t val = 0;
		int16_t val2 = 0;
		switch(commas){
			case 1:			//Time
				for(uint8_t i = 0; i < 15; i++){
					if(gps[i] == (uint8_t) '.'){
    31d6:	91 91       	ld	r25, Z+
    31d8:	9e 32       	cpi	r25, 0x2E	; 46
    31da:	29 f4       	brne	.+10     	; 0x31e6 <__vector_91+0xda>
    31dc:	01 c0       	rjmp	.+2      	; 0x31e0 <__vector_91+0xd4>
    31de:	80 e0       	ldi	r24, 0x00	; 0
						idx = i;
    31e0:	80 93 25 21 	sts	0x2125, r24	; 0x802125 <idx>
						break;
    31e4:	03 c0       	rjmp	.+6      	; 0x31ec <__vector_91+0xe0>
		}
		int32_t val = 0;
		int16_t val2 = 0;
		switch(commas){
			case 1:			//Time
				for(uint8_t i = 0; i < 15; i++){
    31e6:	8f 5f       	subi	r24, 0xFF	; 255
    31e8:	8f 30       	cpi	r24, 0x0F	; 15
    31ea:	a9 f7       	brne	.-22     	; 0x31d6 <__vector_91+0xca>
					if(gps[i] == (uint8_t) '.'){
						idx = i;
						break;
					}
				}
				gps[idx] = 32;
    31ec:	e0 91 25 21 	lds	r30, 0x2125	; 0x802125 <idx>
    31f0:	f0 e0       	ldi	r31, 0x00	; 0
    31f2:	e6 58       	subi	r30, 0x86	; 134
    31f4:	fe 4d       	sbci	r31, 0xDE	; 222
    31f6:	80 e2       	ldi	r24, 0x20	; 32
    31f8:	80 83       	st	Z, r24
				for(uint8_t i = idx+1; i < 15; i++){
    31fa:	20 91 25 21 	lds	r18, 0x2125	; 0x802125 <idx>
    31fe:	2f 5f       	subi	r18, 0xFF	; 255
    3200:	2f 30       	cpi	r18, 0x0F	; 15
    3202:	c8 f4       	brcc	.+50     	; 0x3236 <__vector_91+0x12a>
					if(gps[i] == 32){
    3204:	82 2f       	mov	r24, r18
    3206:	90 e0       	ldi	r25, 0x00	; 0
    3208:	fc 01       	movw	r30, r24
    320a:	e6 58       	subi	r30, 0x86	; 134
    320c:	fe 4d       	sbci	r31, 0xDE	; 222
    320e:	30 81       	ld	r19, Z
    3210:	30 32       	cpi	r19, 0x20	; 32
    3212:	89 f0       	breq	.+34     	; 0x3236 <__vector_91+0x12a>
						break;
					}
					gps[i] = 32;
    3214:	40 e2       	ldi	r20, 0x20	; 32
    3216:	08 c0       	rjmp	.+16     	; 0x3228 <__vector_91+0x11c>
						break;
					}
				}
				gps[idx] = 32;
				for(uint8_t i = idx+1; i < 15; i++){
					if(gps[i] == 32){
    3218:	82 2f       	mov	r24, r18
    321a:	90 e0       	ldi	r25, 0x00	; 0
    321c:	fc 01       	movw	r30, r24
    321e:	e6 58       	subi	r30, 0x86	; 134
    3220:	fe 4d       	sbci	r31, 0xDE	; 222
    3222:	30 81       	ld	r19, Z
    3224:	30 32       	cpi	r19, 0x20	; 32
    3226:	39 f0       	breq	.+14     	; 0x3236 <__vector_91+0x12a>
						break;
					}
					gps[i] = 32;
    3228:	fc 01       	movw	r30, r24
    322a:	e6 58       	subi	r30, 0x86	; 134
    322c:	fe 4d       	sbci	r31, 0xDE	; 222
    322e:	40 83       	st	Z, r20
						idx = i;
						break;
					}
				}
				gps[idx] = 32;
				for(uint8_t i = idx+1; i < 15; i++){
    3230:	2f 5f       	subi	r18, 0xFF	; 255
    3232:	2f 30       	cpi	r18, 0x0F	; 15
    3234:	89 f7       	brne	.-30     	; 0x3218 <__vector_91+0x10c>
					if(gps[i] == 32){
						break;
					}
					gps[i] = 32;
				}
				sscanf(gps,"%ld",&val);
    3236:	ce 01       	movw	r24, r28
    3238:	01 96       	adiw	r24, 0x01	; 1
    323a:	9f 93       	push	r25
    323c:	8f 93       	push	r24
    323e:	83 e8       	ldi	r24, 0x83	; 131
    3240:	90 e2       	ldi	r25, 0x20	; 32
    3242:	9f 93       	push	r25
    3244:	8f 93       	push	r24
    3246:	8a e7       	ldi	r24, 0x7A	; 122
    3248:	91 e2       	ldi	r25, 0x21	; 33
    324a:	9f 93       	push	r25
    324c:	8f 93       	push	r24
    324e:	66 d7       	rcall	.+3788   	; 0x411c <sscanf>
				gps_t = (double) val;
    3250:	69 81       	ldd	r22, Y+1	; 0x01
    3252:	7a 81       	ldd	r23, Y+2	; 0x02
    3254:	8b 81       	ldd	r24, Y+3	; 0x03
    3256:	9c 81       	ldd	r25, Y+4	; 0x04
    3258:	63 d3       	rcall	.+1734   	; 0x3920 <__floatsisf>
    325a:	60 93 07 21 	sts	0x2107, r22	; 0x802107 <gps_t>
    325e:	70 93 08 21 	sts	0x2108, r23	; 0x802108 <gps_t+0x1>
    3262:	80 93 09 21 	sts	0x2109, r24	; 0x802109 <gps_t+0x2>
    3266:	90 93 0a 21 	sts	0x210A, r25	; 0x80210a <gps_t+0x3>
				break;
    326a:	0f 90       	pop	r0
    326c:	0f 90       	pop	r0
    326e:	0f 90       	pop	r0
    3270:	0f 90       	pop	r0
    3272:	0f 90       	pop	r0
    3274:	0f 90       	pop	r0
    3276:	c3 c1       	rjmp	.+902    	; 0x35fe <__vector_91+0x4f2>
    3278:	eb e7       	ldi	r30, 0x7B	; 123
    327a:	f1 e2       	ldi	r31, 0x21	; 33
			case 2:			//Latitude
				for(uint8_t i = 0; i < 15; i++){
    327c:	81 e0       	ldi	r24, 0x01	; 1
					if(gps[i] == (uint8_t) '.'){
    327e:	91 91       	ld	r25, Z+
    3280:	9e 32       	cpi	r25, 0x2E	; 46
    3282:	29 f4       	brne	.+10     	; 0x328e <__vector_91+0x182>
    3284:	01 c0       	rjmp	.+2      	; 0x3288 <__vector_91+0x17c>
    3286:	80 e0       	ldi	r24, 0x00	; 0
						idx = i;
    3288:	80 93 25 21 	sts	0x2125, r24	; 0x802125 <idx>
						break;
    328c:	03 c0       	rjmp	.+6      	; 0x3294 <__vector_91+0x188>
				}
				sscanf(gps,"%ld",&val);
				gps_t = (double) val;
				break;
			case 2:			//Latitude
				for(uint8_t i = 0; i < 15; i++){
    328e:	8f 5f       	subi	r24, 0xFF	; 255
    3290:	8f 30       	cpi	r24, 0x0F	; 15
    3292:	a9 f7       	brne	.-22     	; 0x327e <__vector_91+0x172>
					if(gps[i] == (uint8_t) '.'){
						idx = i;
						break;
					}
				}
				gps[idx] = 32;
    3294:	e0 91 25 21 	lds	r30, 0x2125	; 0x802125 <idx>
    3298:	f0 e0       	ldi	r31, 0x00	; 0
    329a:	e6 58       	subi	r30, 0x86	; 134
    329c:	fe 4d       	sbci	r31, 0xDE	; 222
    329e:	80 e2       	ldi	r24, 0x20	; 32
    32a0:	80 83       	st	Z, r24
				for(uint8_t i = idx+1; i < 15; i++){
    32a2:	20 91 25 21 	lds	r18, 0x2125	; 0x802125 <idx>
    32a6:	2f 5f       	subi	r18, 0xFF	; 255
    32a8:	2f 30       	cpi	r18, 0x0F	; 15
    32aa:	08 f5       	brcc	.+66     	; 0x32ee <__vector_91+0x1e2>
					if(gps[i] == 32){
    32ac:	82 2f       	mov	r24, r18
    32ae:	90 e0       	ldi	r25, 0x00	; 0
    32b0:	fc 01       	movw	r30, r24
    32b2:	e6 58       	subi	r30, 0x86	; 134
    32b4:	fe 4d       	sbci	r31, 0xDE	; 222
    32b6:	30 81       	ld	r19, Z
    32b8:	30 32       	cpi	r19, 0x20	; 32
    32ba:	c9 f0       	breq	.+50     	; 0x32ee <__vector_91+0x1e2>
						break;
					}
					dec[i-idx-1] = gps[i];
					gps[i] = 32;
    32bc:	50 e2       	ldi	r21, 0x20	; 32
    32be:	08 c0       	rjmp	.+16     	; 0x32d0 <__vector_91+0x1c4>
						break;
					}
				}
				gps[idx] = 32;
				for(uint8_t i = idx+1; i < 15; i++){
					if(gps[i] == 32){
    32c0:	82 2f       	mov	r24, r18
    32c2:	90 e0       	ldi	r25, 0x00	; 0
    32c4:	fc 01       	movw	r30, r24
    32c6:	e6 58       	subi	r30, 0x86	; 134
    32c8:	fe 4d       	sbci	r31, 0xDE	; 222
    32ca:	30 81       	ld	r19, Z
    32cc:	30 32       	cpi	r19, 0x20	; 32
    32ce:	79 f0       	breq	.+30     	; 0x32ee <__vector_91+0x1e2>
						break;
					}
					dec[i-idx-1] = gps[i];
    32d0:	40 91 25 21 	lds	r20, 0x2125	; 0x802125 <idx>
    32d4:	fc 01       	movw	r30, r24
    32d6:	e4 1b       	sub	r30, r20
    32d8:	f1 09       	sbc	r31, r1
    32da:	e8 57       	subi	r30, 0x78	; 120
    32dc:	fe 4d       	sbci	r31, 0xDE	; 222
    32de:	30 83       	st	Z, r19
					gps[i] = 32;
    32e0:	fc 01       	movw	r30, r24
    32e2:	e6 58       	subi	r30, 0x86	; 134
    32e4:	fe 4d       	sbci	r31, 0xDE	; 222
    32e6:	50 83       	st	Z, r21
						idx = i;
						break;
					}
				}
				gps[idx] = 32;
				for(uint8_t i = idx+1; i < 15; i++){
    32e8:	2f 5f       	subi	r18, 0xFF	; 255
    32ea:	2f 30       	cpi	r18, 0x0F	; 15
    32ec:	49 f7       	brne	.-46     	; 0x32c0 <__vector_91+0x1b4>
						break;
					}
					dec[i-idx-1] = gps[i];
					gps[i] = 32;
				}
				if(dec[0] == 32){
    32ee:	80 91 89 21 	lds	r24, 0x2189	; 0x802189 <dec>
    32f2:	80 32       	cpi	r24, 0x20	; 32
    32f4:	19 f4       	brne	.+6      	; 0x32fc <__vector_91+0x1f0>
					dec[0] = '0';
    32f6:	80 e3       	ldi	r24, 0x30	; 48
    32f8:	80 93 89 21 	sts	0x2189, r24	; 0x802189 <dec>
				}
				sscanf(gps,"%ld",&val);
    32fc:	ce 01       	movw	r24, r28
    32fe:	01 96       	adiw	r24, 0x01	; 1
    3300:	9f 93       	push	r25
    3302:	8f 93       	push	r24
    3304:	83 e8       	ldi	r24, 0x83	; 131
    3306:	90 e2       	ldi	r25, 0x20	; 32
    3308:	9f 93       	push	r25
    330a:	8f 93       	push	r24
    330c:	8a e7       	ldi	r24, 0x7A	; 122
    330e:	91 e2       	ldi	r25, 0x21	; 33
    3310:	9f 93       	push	r25
    3312:	8f 93       	push	r24
    3314:	03 d7       	rcall	.+3590   	; 0x411c <sscanf>
				sscanf(dec,"%d",&val2);
    3316:	ce 01       	movw	r24, r28
    3318:	05 96       	adiw	r24, 0x05	; 5
    331a:	9f 93       	push	r25
    331c:	8f 93       	push	r24
    331e:	87 e8       	ldi	r24, 0x87	; 135
    3320:	90 e2       	ldi	r25, 0x20	; 32
    3322:	9f 93       	push	r25
    3324:	8f 93       	push	r24
    3326:	89 e8       	ldi	r24, 0x89	; 137
    3328:	91 e2       	ldi	r25, 0x21	; 33
    332a:	9f 93       	push	r25
    332c:	8f 93       	push	r24
    332e:	f6 d6       	rcall	.+3564   	; 0x411c <sscanf>
				gps_lat = val/100 + ((double)(val%100) + ((double)(val2))/10000) / 60.0;
    3330:	89 80       	ldd	r8, Y+1	; 0x01
    3332:	9a 80       	ldd	r9, Y+2	; 0x02
    3334:	ab 80       	ldd	r10, Y+3	; 0x03
    3336:	bc 80       	ldd	r11, Y+4	; 0x04
    3338:	6d 81       	ldd	r22, Y+5	; 0x05
    333a:	7e 81       	ldd	r23, Y+6	; 0x06
    333c:	07 2e       	mov	r0, r23
    333e:	00 0c       	add	r0, r0
    3340:	88 0b       	sbc	r24, r24
    3342:	99 0b       	sbc	r25, r25
    3344:	ed d2       	rcall	.+1498   	; 0x3920 <__floatsisf>
    3346:	20 e0       	ldi	r18, 0x00	; 0
    3348:	30 e4       	ldi	r19, 0x40	; 64
    334a:	4c e1       	ldi	r20, 0x1C	; 28
    334c:	56 e4       	ldi	r21, 0x46	; 70
    334e:	4d d2       	rcall	.+1178   	; 0x37ea <__divsf3>
    3350:	6b 01       	movw	r12, r22
    3352:	7c 01       	movw	r14, r24
    3354:	c5 01       	movw	r24, r10
    3356:	b4 01       	movw	r22, r8
    3358:	24 e6       	ldi	r18, 0x64	; 100
    335a:	30 e0       	ldi	r19, 0x00	; 0
    335c:	40 e0       	ldi	r20, 0x00	; 0
    335e:	50 e0       	ldi	r21, 0x00	; 0
    3360:	b3 d5       	rcall	.+2918   	; 0x3ec8 <__divmodsi4>
    3362:	49 01       	movw	r8, r18
    3364:	5a 01       	movw	r10, r20
    3366:	dc d2       	rcall	.+1464   	; 0x3920 <__floatsisf>
    3368:	9b 01       	movw	r18, r22
    336a:	ac 01       	movw	r20, r24
    336c:	c7 01       	movw	r24, r14
    336e:	b6 01       	movw	r22, r12
    3370:	d4 d1       	rcall	.+936    	; 0x371a <__addsf3>
    3372:	20 e0       	ldi	r18, 0x00	; 0
    3374:	30 e0       	ldi	r19, 0x00	; 0
    3376:	40 e7       	ldi	r20, 0x70	; 112
    3378:	52 e4       	ldi	r21, 0x42	; 66
    337a:	37 d2       	rcall	.+1134   	; 0x37ea <__divsf3>
    337c:	6b 01       	movw	r12, r22
    337e:	7c 01       	movw	r14, r24
    3380:	c5 01       	movw	r24, r10
    3382:	b4 01       	movw	r22, r8
    3384:	cd d2       	rcall	.+1434   	; 0x3920 <__floatsisf>
    3386:	9b 01       	movw	r18, r22
    3388:	ac 01       	movw	r20, r24
    338a:	c7 01       	movw	r24, r14
    338c:	b6 01       	movw	r22, r12
    338e:	c5 d1       	rcall	.+906    	; 0x371a <__addsf3>
    3390:	60 93 03 21 	sts	0x2103, r22	; 0x802103 <gps_lat>
    3394:	70 93 04 21 	sts	0x2104, r23	; 0x802104 <gps_lat+0x1>
    3398:	80 93 05 21 	sts	0x2105, r24	; 0x802105 <gps_lat+0x2>
    339c:	90 93 06 21 	sts	0x2106, r25	; 0x802106 <gps_lat+0x3>
				break;
    33a0:	cd bf       	out	0x3d, r28	; 61
    33a2:	de bf       	out	0x3e, r29	; 62
    33a4:	2c c1       	rjmp	.+600    	; 0x35fe <__vector_91+0x4f2>
    33a6:	eb e7       	ldi	r30, 0x7B	; 123
    33a8:	f1 e2       	ldi	r31, 0x21	; 33
			case 4:			//Longitude
				for(uint8_t i = 0; i < 15; i++){
    33aa:	81 e0       	ldi	r24, 0x01	; 1
					if(gps[i] == (uint8_t) '.'){
    33ac:	91 91       	ld	r25, Z+
    33ae:	9e 32       	cpi	r25, 0x2E	; 46
    33b0:	29 f4       	brne	.+10     	; 0x33bc <__vector_91+0x2b0>
    33b2:	01 c0       	rjmp	.+2      	; 0x33b6 <__vector_91+0x2aa>
    33b4:	80 e0       	ldi	r24, 0x00	; 0
						idx = i;
    33b6:	80 93 25 21 	sts	0x2125, r24	; 0x802125 <idx>
						break;
    33ba:	03 c0       	rjmp	.+6      	; 0x33c2 <__vector_91+0x2b6>
				sscanf(gps,"%ld",&val);
				sscanf(dec,"%d",&val2);
				gps_lat = val/100 + ((double)(val%100) + ((double)(val2))/10000) / 60.0;
				break;
			case 4:			//Longitude
				for(uint8_t i = 0; i < 15; i++){
    33bc:	8f 5f       	subi	r24, 0xFF	; 255
    33be:	8f 30       	cpi	r24, 0x0F	; 15
    33c0:	a9 f7       	brne	.-22     	; 0x33ac <__vector_91+0x2a0>
					if(gps[i] == (uint8_t) '.'){
						idx = i;
						break;
					}
				}
				gps[idx] = 32;
    33c2:	e0 91 25 21 	lds	r30, 0x2125	; 0x802125 <idx>
    33c6:	f0 e0       	ldi	r31, 0x00	; 0
    33c8:	e6 58       	subi	r30, 0x86	; 134
    33ca:	fe 4d       	sbci	r31, 0xDE	; 222
    33cc:	80 e2       	ldi	r24, 0x20	; 32
    33ce:	80 83       	st	Z, r24
				for(uint8_t i = idx+1; i < 15; i++){
    33d0:	20 91 25 21 	lds	r18, 0x2125	; 0x802125 <idx>
    33d4:	2f 5f       	subi	r18, 0xFF	; 255
    33d6:	2f 30       	cpi	r18, 0x0F	; 15
    33d8:	08 f5       	brcc	.+66     	; 0x341c <__vector_91+0x310>
					if(gps[i] == 32){
    33da:	82 2f       	mov	r24, r18
    33dc:	90 e0       	ldi	r25, 0x00	; 0
    33de:	fc 01       	movw	r30, r24
    33e0:	e6 58       	subi	r30, 0x86	; 134
    33e2:	fe 4d       	sbci	r31, 0xDE	; 222
    33e4:	30 81       	ld	r19, Z
    33e6:	30 32       	cpi	r19, 0x20	; 32
    33e8:	c9 f0       	breq	.+50     	; 0x341c <__vector_91+0x310>
						break;
					}
					dec[i-idx-1] = gps[i];
					gps[i] = 32;
    33ea:	50 e2       	ldi	r21, 0x20	; 32
    33ec:	08 c0       	rjmp	.+16     	; 0x33fe <__vector_91+0x2f2>
						break;
					}
				}
				gps[idx] = 32;
				for(uint8_t i = idx+1; i < 15; i++){
					if(gps[i] == 32){
    33ee:	82 2f       	mov	r24, r18
    33f0:	90 e0       	ldi	r25, 0x00	; 0
    33f2:	fc 01       	movw	r30, r24
    33f4:	e6 58       	subi	r30, 0x86	; 134
    33f6:	fe 4d       	sbci	r31, 0xDE	; 222
    33f8:	30 81       	ld	r19, Z
    33fa:	30 32       	cpi	r19, 0x20	; 32
    33fc:	79 f0       	breq	.+30     	; 0x341c <__vector_91+0x310>
						break;
					}
					dec[i-idx-1] = gps[i];
    33fe:	40 91 25 21 	lds	r20, 0x2125	; 0x802125 <idx>
    3402:	fc 01       	movw	r30, r24
    3404:	e4 1b       	sub	r30, r20
    3406:	f1 09       	sbc	r31, r1
    3408:	e8 57       	subi	r30, 0x78	; 120
    340a:	fe 4d       	sbci	r31, 0xDE	; 222
    340c:	30 83       	st	Z, r19
					gps[i] = 32;
    340e:	fc 01       	movw	r30, r24
    3410:	e6 58       	subi	r30, 0x86	; 134
    3412:	fe 4d       	sbci	r31, 0xDE	; 222
    3414:	50 83       	st	Z, r21
						idx = i;
						break;
					}
				}
				gps[idx] = 32;
				for(uint8_t i = idx+1; i < 15; i++){
    3416:	2f 5f       	subi	r18, 0xFF	; 255
    3418:	2f 30       	cpi	r18, 0x0F	; 15
    341a:	49 f7       	brne	.-46     	; 0x33ee <__vector_91+0x2e2>
						break;
					}
					dec[i-idx-1] = gps[i];
					gps[i] = 32;
				}
				if(dec[0] == 32){
    341c:	80 91 89 21 	lds	r24, 0x2189	; 0x802189 <dec>
    3420:	80 32       	cpi	r24, 0x20	; 32
    3422:	19 f4       	brne	.+6      	; 0x342a <__vector_91+0x31e>
					dec[0] = '0';
    3424:	80 e3       	ldi	r24, 0x30	; 48
    3426:	80 93 89 21 	sts	0x2189, r24	; 0x802189 <dec>
				}
				sscanf(gps,"%ld",&val);
    342a:	ce 01       	movw	r24, r28
    342c:	01 96       	adiw	r24, 0x01	; 1
    342e:	9f 93       	push	r25
    3430:	8f 93       	push	r24
    3432:	83 e8       	ldi	r24, 0x83	; 131
    3434:	90 e2       	ldi	r25, 0x20	; 32
    3436:	9f 93       	push	r25
    3438:	8f 93       	push	r24
    343a:	8a e7       	ldi	r24, 0x7A	; 122
    343c:	91 e2       	ldi	r25, 0x21	; 33
    343e:	9f 93       	push	r25
    3440:	8f 93       	push	r24
    3442:	6c d6       	rcall	.+3288   	; 0x411c <sscanf>
				sscanf(dec,"%d",&val2);
    3444:	ce 01       	movw	r24, r28
    3446:	05 96       	adiw	r24, 0x05	; 5
    3448:	9f 93       	push	r25
    344a:	8f 93       	push	r24
    344c:	87 e8       	ldi	r24, 0x87	; 135
    344e:	90 e2       	ldi	r25, 0x20	; 32
    3450:	9f 93       	push	r25
    3452:	8f 93       	push	r24
    3454:	89 e8       	ldi	r24, 0x89	; 137
    3456:	91 e2       	ldi	r25, 0x21	; 33
    3458:	9f 93       	push	r25
    345a:	8f 93       	push	r24
    345c:	5f d6       	rcall	.+3262   	; 0x411c <sscanf>
				gps_long = -(val/100 + ((double)(val%100) + ((double)(val2))/10000) / 60.0);
    345e:	89 80       	ldd	r8, Y+1	; 0x01
    3460:	9a 80       	ldd	r9, Y+2	; 0x02
    3462:	ab 80       	ldd	r10, Y+3	; 0x03
    3464:	bc 80       	ldd	r11, Y+4	; 0x04
    3466:	6d 81       	ldd	r22, Y+5	; 0x05
    3468:	7e 81       	ldd	r23, Y+6	; 0x06
    346a:	07 2e       	mov	r0, r23
    346c:	00 0c       	add	r0, r0
    346e:	88 0b       	sbc	r24, r24
    3470:	99 0b       	sbc	r25, r25
    3472:	56 d2       	rcall	.+1196   	; 0x3920 <__floatsisf>
    3474:	20 e0       	ldi	r18, 0x00	; 0
    3476:	30 e4       	ldi	r19, 0x40	; 64
    3478:	4c e1       	ldi	r20, 0x1C	; 28
    347a:	56 e4       	ldi	r21, 0x46	; 70
    347c:	b6 d1       	rcall	.+876    	; 0x37ea <__divsf3>
    347e:	6b 01       	movw	r12, r22
    3480:	7c 01       	movw	r14, r24
    3482:	c5 01       	movw	r24, r10
    3484:	b4 01       	movw	r22, r8
    3486:	24 e6       	ldi	r18, 0x64	; 100
    3488:	30 e0       	ldi	r19, 0x00	; 0
    348a:	40 e0       	ldi	r20, 0x00	; 0
    348c:	50 e0       	ldi	r21, 0x00	; 0
    348e:	1c d5       	rcall	.+2616   	; 0x3ec8 <__divmodsi4>
    3490:	49 01       	movw	r8, r18
    3492:	5a 01       	movw	r10, r20
    3494:	45 d2       	rcall	.+1162   	; 0x3920 <__floatsisf>
    3496:	9b 01       	movw	r18, r22
    3498:	ac 01       	movw	r20, r24
    349a:	c7 01       	movw	r24, r14
    349c:	b6 01       	movw	r22, r12
    349e:	3d d1       	rcall	.+634    	; 0x371a <__addsf3>
    34a0:	20 e0       	ldi	r18, 0x00	; 0
    34a2:	30 e0       	ldi	r19, 0x00	; 0
    34a4:	40 e7       	ldi	r20, 0x70	; 112
    34a6:	52 e4       	ldi	r21, 0x42	; 66
    34a8:	a0 d1       	rcall	.+832    	; 0x37ea <__divsf3>
    34aa:	6b 01       	movw	r12, r22
    34ac:	7c 01       	movw	r14, r24
    34ae:	c5 01       	movw	r24, r10
    34b0:	b4 01       	movw	r22, r8
    34b2:	36 d2       	rcall	.+1132   	; 0x3920 <__floatsisf>
    34b4:	9b 01       	movw	r18, r22
    34b6:	ac 01       	movw	r20, r24
    34b8:	c7 01       	movw	r24, r14
    34ba:	b6 01       	movw	r22, r12
    34bc:	2e d1       	rcall	.+604    	; 0x371a <__addsf3>
    34be:	dc 01       	movw	r26, r24
    34c0:	cb 01       	movw	r24, r22
    34c2:	b0 58       	subi	r27, 0x80	; 128
    34c4:	80 93 ff 20 	sts	0x20FF, r24	; 0x8020ff <gps_long>
    34c8:	90 93 00 21 	sts	0x2100, r25	; 0x802100 <gps_long+0x1>
    34cc:	a0 93 01 21 	sts	0x2101, r26	; 0x802101 <gps_long+0x2>
    34d0:	b0 93 02 21 	sts	0x2102, r27	; 0x802102 <gps_long+0x3>
    34d4:	cd bf       	out	0x3d, r28	; 61
				break;
    34d6:	de bf       	out	0x3e, r29	; 62
    34d8:	92 c0       	rjmp	.+292    	; 0x35fe <__vector_91+0x4f2>
    34da:	89 ef       	ldi	r24, 0xF9	; 249
			case 7:			//Sats
				sscanf(gps,"%d",&gps_sats);
    34dc:	90 e2       	ldi	r25, 0x20	; 32
    34de:	9f 93       	push	r25
    34e0:	8f 93       	push	r24
    34e2:	87 e8       	ldi	r24, 0x87	; 135
    34e4:	90 e2       	ldi	r25, 0x20	; 32
    34e6:	9f 93       	push	r25
    34e8:	8f 93       	push	r24
    34ea:	8a e7       	ldi	r24, 0x7A	; 122
    34ec:	91 e2       	ldi	r25, 0x21	; 33
    34ee:	9f 93       	push	r25
    34f0:	8f 93       	push	r24
    34f2:	14 d6       	rcall	.+3112   	; 0x411c <sscanf>
    34f4:	0f 90       	pop	r0
    34f6:	0f 90       	pop	r0
				break;
    34f8:	0f 90       	pop	r0
    34fa:	0f 90       	pop	r0
    34fc:	0f 90       	pop	r0
    34fe:	0f 90       	pop	r0
    3500:	7e c0       	rjmp	.+252    	; 0x35fe <__vector_91+0x4f2>
    3502:	eb e7       	ldi	r30, 0x7B	; 123
    3504:	f1 e2       	ldi	r31, 0x21	; 33
    3506:	81 e0       	ldi	r24, 0x01	; 1
    3508:	91 91       	ld	r25, Z+
			case 9:			//Altitude
				for(uint8_t i = 0; i < 15; i++){
    350a:	9e 32       	cpi	r25, 0x2E	; 46
					if(gps[i] == (uint8_t) '.'){
    350c:	29 f4       	brne	.+10     	; 0x3518 <__vector_91+0x40c>
    350e:	01 c0       	rjmp	.+2      	; 0x3512 <__vector_91+0x406>
    3510:	80 e0       	ldi	r24, 0x00	; 0
    3512:	80 93 25 21 	sts	0x2125, r24	; 0x802125 <idx>
						idx = i;
    3516:	03 c0       	rjmp	.+6      	; 0x351e <__vector_91+0x412>
    3518:	8f 5f       	subi	r24, 0xFF	; 255
						break;
    351a:	8f 30       	cpi	r24, 0x0F	; 15
				break;
			case 7:			//Sats
				sscanf(gps,"%d",&gps_sats);
				break;
			case 9:			//Altitude
				for(uint8_t i = 0; i < 15; i++){
    351c:	a9 f7       	brne	.-22     	; 0x3508 <__vector_91+0x3fc>
    351e:	e0 91 25 21 	lds	r30, 0x2125	; 0x802125 <idx>
					if(gps[i] == (uint8_t) '.'){
						idx = i;
						break;
					}
				}
				gps[idx] = 32;
    3522:	f0 e0       	ldi	r31, 0x00	; 0
    3524:	e6 58       	subi	r30, 0x86	; 134
    3526:	fe 4d       	sbci	r31, 0xDE	; 222
    3528:	80 e2       	ldi	r24, 0x20	; 32
    352a:	80 83       	st	Z, r24
    352c:	20 91 25 21 	lds	r18, 0x2125	; 0x802125 <idx>
				for(uint8_t i = idx+1; i < 15; i++){
    3530:	2f 5f       	subi	r18, 0xFF	; 255
    3532:	2f 30       	cpi	r18, 0x0F	; 15
    3534:	08 f5       	brcc	.+66     	; 0x3578 <__vector_91+0x46c>
    3536:	82 2f       	mov	r24, r18
    3538:	90 e0       	ldi	r25, 0x00	; 0
					if(gps[i] == 32){
    353a:	fc 01       	movw	r30, r24
    353c:	e6 58       	subi	r30, 0x86	; 134
    353e:	fe 4d       	sbci	r31, 0xDE	; 222
    3540:	30 81       	ld	r19, Z
    3542:	30 32       	cpi	r19, 0x20	; 32
    3544:	c9 f0       	breq	.+50     	; 0x3578 <__vector_91+0x46c>
    3546:	50 e2       	ldi	r21, 0x20	; 32
    3548:	08 c0       	rjmp	.+16     	; 0x355a <__vector_91+0x44e>
						break;
					}
					dec[i-idx-1] = gps[i];
					gps[i] = 32;
    354a:	82 2f       	mov	r24, r18
    354c:	90 e0       	ldi	r25, 0x00	; 0
						break;
					}
				}
				gps[idx] = 32;
				for(uint8_t i = idx+1; i < 15; i++){
					if(gps[i] == 32){
    354e:	fc 01       	movw	r30, r24
    3550:	e6 58       	subi	r30, 0x86	; 134
    3552:	fe 4d       	sbci	r31, 0xDE	; 222
    3554:	30 81       	ld	r19, Z
    3556:	30 32       	cpi	r19, 0x20	; 32
    3558:	79 f0       	breq	.+30     	; 0x3578 <__vector_91+0x46c>
    355a:	40 91 25 21 	lds	r20, 0x2125	; 0x802125 <idx>
						break;
					}
					dec[i-idx-1] = gps[i];
    355e:	fc 01       	movw	r30, r24
    3560:	e4 1b       	sub	r30, r20
    3562:	f1 09       	sbc	r31, r1
    3564:	e8 57       	subi	r30, 0x78	; 120
    3566:	fe 4d       	sbci	r31, 0xDE	; 222
    3568:	30 83       	st	Z, r19
    356a:	fc 01       	movw	r30, r24
    356c:	e6 58       	subi	r30, 0x86	; 134
					gps[i] = 32;
    356e:	fe 4d       	sbci	r31, 0xDE	; 222
    3570:	50 83       	st	Z, r21
    3572:	2f 5f       	subi	r18, 0xFF	; 255
						idx = i;
						break;
					}
				}
				gps[idx] = 32;
				for(uint8_t i = idx+1; i < 15; i++){
    3574:	2f 30       	cpi	r18, 0x0F	; 15
    3576:	49 f7       	brne	.-46     	; 0x354a <__vector_91+0x43e>
    3578:	80 91 89 21 	lds	r24, 0x2189	; 0x802189 <dec>
						break;
					}
					dec[i-idx-1] = gps[i];
					gps[i] = 32;
				}
				if(dec[0] == 32){
    357c:	80 32       	cpi	r24, 0x20	; 32
    357e:	19 f4       	brne	.+6      	; 0x3586 <__vector_91+0x47a>
    3580:	80 e3       	ldi	r24, 0x30	; 48
					dec[0] = '0';
    3582:	80 93 89 21 	sts	0x2189, r24	; 0x802189 <dec>
    3586:	ce 01       	movw	r24, r28
				}
				sscanf(gps,"%ld",&val);
    3588:	01 96       	adiw	r24, 0x01	; 1
    358a:	9f 93       	push	r25
    358c:	8f 93       	push	r24
    358e:	83 e8       	ldi	r24, 0x83	; 131
    3590:	90 e2       	ldi	r25, 0x20	; 32
    3592:	9f 93       	push	r25
    3594:	8f 93       	push	r24
    3596:	8a e7       	ldi	r24, 0x7A	; 122
    3598:	91 e2       	ldi	r25, 0x21	; 33
    359a:	9f 93       	push	r25
    359c:	8f 93       	push	r24
    359e:	be d5       	rcall	.+2940   	; 0x411c <sscanf>
				sscanf(dec,"%d",&val2);
    35a0:	ce 01       	movw	r24, r28
    35a2:	05 96       	adiw	r24, 0x05	; 5
    35a4:	9f 93       	push	r25
    35a6:	8f 93       	push	r24
    35a8:	87 e8       	ldi	r24, 0x87	; 135
    35aa:	90 e2       	ldi	r25, 0x20	; 32
    35ac:	9f 93       	push	r25
    35ae:	8f 93       	push	r24
    35b0:	89 e8       	ldi	r24, 0x89	; 137
    35b2:	91 e2       	ldi	r25, 0x21	; 33
    35b4:	9f 93       	push	r25
    35b6:	8f 93       	push	r24
				gps_alt = (double) val + ((double) val2/10.0);
    35b8:	b1 d5       	rcall	.+2914   	; 0x411c <sscanf>
    35ba:	69 81       	ldd	r22, Y+1	; 0x01
    35bc:	7a 81       	ldd	r23, Y+2	; 0x02
    35be:	8b 81       	ldd	r24, Y+3	; 0x03
    35c0:	9c 81       	ldd	r25, Y+4	; 0x04
    35c2:	ae d1       	rcall	.+860    	; 0x3920 <__floatsisf>
    35c4:	6b 01       	movw	r12, r22
    35c6:	7c 01       	movw	r14, r24
    35c8:	6d 81       	ldd	r22, Y+5	; 0x05
    35ca:	7e 81       	ldd	r23, Y+6	; 0x06
    35cc:	07 2e       	mov	r0, r23
    35ce:	00 0c       	add	r0, r0
    35d0:	88 0b       	sbc	r24, r24
    35d2:	99 0b       	sbc	r25, r25
    35d4:	a5 d1       	rcall	.+842    	; 0x3920 <__floatsisf>
    35d6:	20 e0       	ldi	r18, 0x00	; 0
    35d8:	30 e0       	ldi	r19, 0x00	; 0
    35da:	40 e2       	ldi	r20, 0x20	; 32
    35dc:	51 e4       	ldi	r21, 0x41	; 65
    35de:	05 d1       	rcall	.+522    	; 0x37ea <__divsf3>
    35e0:	9b 01       	movw	r18, r22
    35e2:	ac 01       	movw	r20, r24
    35e4:	c7 01       	movw	r24, r14
    35e6:	b6 01       	movw	r22, r12
    35e8:	98 d0       	rcall	.+304    	; 0x371a <__addsf3>
    35ea:	60 93 fb 20 	sts	0x20FB, r22	; 0x8020fb <gps_alt>
    35ee:	70 93 fc 20 	sts	0x20FC, r23	; 0x8020fc <gps_alt+0x1>
    35f2:	80 93 fd 20 	sts	0x20FD, r24	; 0x8020fd <gps_alt+0x2>
    35f6:	90 93 fe 20 	sts	0x20FE, r25	; 0x8020fe <gps_alt+0x3>
    35fa:	cd bf       	out	0x3d, r28	; 61
    35fc:	de bf       	out	0x3e, r29	; 62
    35fe:	80 91 29 21 	lds	r24, 0x2129	; 0x802129 <writing>
				break;
    3602:	88 23       	and	r24, r24
		}

		if(writing){
    3604:	d1 f0       	breq	.+52     	; 0x363a <__vector_91+0x52e>
    3606:	10 92 25 21 	sts	0x2125, r1	; 0x802125 <idx>
    360a:	80 91 26 21 	lds	r24, 0x2126	; 0x802126 <commas>
			idx = 0;
    360e:	8f 5f       	subi	r24, 0xFF	; 255
			commas++;
    3610:	80 93 26 21 	sts	0x2126, r24	; 0x802126 <commas>
    3614:	10 92 27 21 	sts	0x2127, r1	; 0x802127 <word_pos>
    3618:	ea e7       	ldi	r30, 0x7A	; 122
			word_pos = 0;
    361a:	f1 e2       	ldi	r31, 0x21	; 33
    361c:	29 e8       	ldi	r18, 0x89	; 137
    361e:	31 e2       	ldi	r19, 0x21	; 33
    3620:	80 e2       	ldi	r24, 0x20	; 32
    3622:	81 93       	st	Z+, r24
    3624:	2e 17       	cp	r18, r30
			for(uint8_t i = 0; i < 15; i++){
				gps[i] = 32;
    3626:	3f 07       	cpc	r19, r31
    3628:	e1 f7       	brne	.-8      	; 0x3622 <__vector_91+0x516>

		if(writing){
			idx = 0;
			commas++;
			word_pos = 0;
			for(uint8_t i = 0; i < 15; i++){
    362a:	e9 e8       	ldi	r30, 0x89	; 137
    362c:	f1 e2       	ldi	r31, 0x21	; 33
    362e:	80 e2       	ldi	r24, 0x20	; 32
				gps[i] = 32;
			}
			for(uint8_t i = 0; i < 5; i++){
				dec[i] = 32;
    3630:	80 83       	st	Z, r24
    3632:	81 83       	std	Z+1, r24	; 0x01
    3634:	82 83       	std	Z+2, r24	; 0x02
    3636:	83 83       	std	Z+3, r24	; 0x03
    3638:	84 83       	std	Z+4, r24	; 0x04
    363a:	80 91 29 21 	lds	r24, 0x2129	; 0x802129 <writing>
    363e:	88 23       	and	r24, r24
			}
		}
	}

	if(writing){
    3640:	09 f4       	brne	.+2      	; 0x3644 <__vector_91+0x538>
    3642:	43 c0       	rjmp	.+134    	; 0x36ca <__vector_91+0x5be>
    3644:	80 91 28 21 	lds	r24, 0x2128	; 0x802128 <pos>
    3648:	83 30       	cpi	r24, 0x03	; 3
		switch(pos){
    364a:	19 f0       	breq	.+6      	; 0x3652 <__vector_91+0x546>
    364c:	84 30       	cpi	r24, 0x04	; 4
    364e:	31 f0       	breq	.+12     	; 0x365c <__vector_91+0x550>
    3650:	09 c0       	rjmp	.+18     	; 0x3664 <__vector_91+0x558>
    3652:	17 34       	cpi	r17, 0x47	; 71
    3654:	39 f0       	breq	.+14     	; 0x3664 <__vector_91+0x558>
    3656:	10 92 29 21 	sts	0x2129, r1	; 0x802129 <writing>
			case 3:
				if(c != 'G'){
    365a:	04 c0       	rjmp	.+8      	; 0x3664 <__vector_91+0x558>
					writing = 0;
    365c:	17 34       	cpi	r17, 0x47	; 71
    365e:	11 f0       	breq	.+4      	; 0x3664 <__vector_91+0x558>
    3660:	10 92 29 21 	sts	0x2129, r1	; 0x802129 <writing>
				}
				break;

			case 4:
				if(c != 'G'){
    3664:	e0 91 27 21 	lds	r30, 0x2127	; 0x802127 <word_pos>
					writing = 0;
    3668:	f0 e0       	ldi	r31, 0x00	; 0
				}
				break;
		}
		gps[word_pos] = c;
    366a:	e6 58       	subi	r30, 0x86	; 134
    366c:	fe 4d       	sbci	r31, 0xDE	; 222
    366e:	10 83       	st	Z, r17
    3670:	80 91 27 21 	lds	r24, 0x2127	; 0x802127 <word_pos>
    3674:	8f 5f       	subi	r24, 0xFF	; 255
		word_pos++;
    3676:	80 93 27 21 	sts	0x2127, r24	; 0x802127 <word_pos>
    367a:	80 91 28 21 	lds	r24, 0x2128	; 0x802128 <pos>
    367e:	8f 5f       	subi	r24, 0xFF	; 255
		pos++;
    3680:	80 93 28 21 	sts	0x2128, r24	; 0x802128 <pos>
    3684:	22 c0       	rjmp	.+68     	; 0x36ca <__vector_91+0x5be>
    3686:	80 91 7a 21 	lds	r24, 0x217A	; 0x80217a <gps>
	}
}
    368a:	8e 32       	cpi	r24, 0x2E	; 46
		int32_t val = 0;
		int16_t val2 = 0;
		switch(commas){
			case 1:			//Time
				for(uint8_t i = 0; i < 15; i++){
					if(gps[i] == (uint8_t) '.'){
    368c:	09 f4       	brne	.+2      	; 0x3690 <__vector_91+0x584>
    368e:	a7 cd       	rjmp	.-1202   	; 0x31de <__vector_91+0xd2>
    3690:	eb e7       	ldi	r30, 0x7B	; 123
    3692:	f1 e2       	ldi	r31, 0x21	; 33
    3694:	81 e0       	ldi	r24, 0x01	; 1
    3696:	9f cd       	rjmp	.-1218   	; 0x31d6 <__vector_91+0xca>
    3698:	19 82       	std	Y+1, r1	; 0x01
		}
		int32_t val = 0;
		int16_t val2 = 0;
		switch(commas){
			case 1:			//Time
				for(uint8_t i = 0; i < 15; i++){
    369a:	1a 82       	std	Y+2, r1	; 0x02
    369c:	1b 82       	std	Y+3, r1	; 0x03
	else if(c == (uint8_t) ','){
		gps[0] = 32;
		if(gps[1] == 32){
			gps[0] = '0';
		}
		int32_t val = 0;
    369e:	1c 82       	std	Y+4, r1	; 0x04
    36a0:	1d 82       	std	Y+5, r1	; 0x05
    36a2:	1e 82       	std	Y+6, r1	; 0x06
    36a4:	80 91 26 21 	lds	r24, 0x2126	; 0x802126 <commas>
		int16_t val2 = 0;
    36a8:	84 30       	cpi	r24, 0x04	; 4
		switch(commas){
    36aa:	09 f4       	brne	.+2      	; 0x36ae <__vector_91+0x5a2>
    36ac:	88 cd       	rjmp	.-1264   	; 0x31be <__vector_91+0xb2>
    36ae:	30 f4       	brcc	.+12     	; 0x36bc <__vector_91+0x5b0>
    36b0:	81 30       	cpi	r24, 0x01	; 1
    36b2:	49 f3       	breq	.-46     	; 0x3686 <__vector_91+0x57a>
    36b4:	82 30       	cpi	r24, 0x02	; 2
    36b6:	09 f4       	brne	.+2      	; 0x36ba <__vector_91+0x5ae>
    36b8:	88 cd       	rjmp	.-1264   	; 0x31ca <__vector_91+0xbe>
    36ba:	a1 cf       	rjmp	.-190    	; 0x35fe <__vector_91+0x4f2>
    36bc:	87 30       	cpi	r24, 0x07	; 7
    36be:	09 f4       	brne	.+2      	; 0x36c2 <__vector_91+0x5b6>
    36c0:	0c cf       	rjmp	.-488    	; 0x34da <__vector_91+0x3ce>
    36c2:	89 30       	cpi	r24, 0x09	; 9
    36c4:	09 f4       	brne	.+2      	; 0x36c8 <__vector_91+0x5bc>
    36c6:	75 cd       	rjmp	.-1302   	; 0x31b2 <__vector_91+0xa6>
    36c8:	9a cf       	rjmp	.-204    	; 0x35fe <__vector_91+0x4f2>
    36ca:	26 96       	adiw	r28, 0x06	; 6
    36cc:	cd bf       	out	0x3d, r28	; 61
    36ce:	de bf       	out	0x3e, r29	; 62
		}
		gps[word_pos] = c;
		word_pos++;
		pos++;
	}
}
    36d0:	df 91       	pop	r29
    36d2:	cf 91       	pop	r28
    36d4:	ff 91       	pop	r31
    36d6:	ef 91       	pop	r30
    36d8:	bf 91       	pop	r27
    36da:	af 91       	pop	r26
    36dc:	9f 91       	pop	r25
    36de:	8f 91       	pop	r24
    36e0:	7f 91       	pop	r23
    36e2:	6f 91       	pop	r22
    36e4:	5f 91       	pop	r21
    36e6:	4f 91       	pop	r20
    36e8:	3f 91       	pop	r19
    36ea:	2f 91       	pop	r18
    36ec:	1f 91       	pop	r17
    36ee:	ff 90       	pop	r15
    36f0:	ef 90       	pop	r14
    36f2:	df 90       	pop	r13
    36f4:	cf 90       	pop	r12
    36f6:	bf 90       	pop	r11
    36f8:	af 90       	pop	r10
    36fa:	9f 90       	pop	r9
    36fc:	8f 90       	pop	r8
    36fe:	0f 90       	pop	r0
    3700:	0b be       	out	0x3b, r0	; 59
    3702:	0f 90       	pop	r0
    3704:	0a be       	out	0x3a, r0	; 58
    3706:	0f 90       	pop	r0
    3708:	09 be       	out	0x39, r0	; 57
    370a:	0f 90       	pop	r0
    370c:	08 be       	out	0x38, r0	; 56
    370e:	0f 90       	pop	r0
    3710:	0f be       	out	0x3f, r0	; 63
    3712:	0f 90       	pop	r0
    3714:	1f 90       	pop	r1
    3716:	18 95       	reti

00003718 <__subsf3>:
    3718:	50 58       	subi	r21, 0x80	; 128

0000371a <__addsf3>:
    371a:	bb 27       	eor	r27, r27
    371c:	aa 27       	eor	r26, r26
    371e:	0e d0       	rcall	.+28     	; 0x373c <__addsf3x>
    3720:	75 c1       	rjmp	.+746    	; 0x3a0c <__fp_round>
    3722:	66 d1       	rcall	.+716    	; 0x39f0 <__fp_pscA>
    3724:	30 f0       	brcs	.+12     	; 0x3732 <__addsf3+0x18>
    3726:	6b d1       	rcall	.+726    	; 0x39fe <__fp_pscB>
    3728:	20 f0       	brcs	.+8      	; 0x3732 <__addsf3+0x18>
    372a:	31 f4       	brne	.+12     	; 0x3738 <__addsf3+0x1e>
    372c:	9f 3f       	cpi	r25, 0xFF	; 255
    372e:	11 f4       	brne	.+4      	; 0x3734 <__addsf3+0x1a>
    3730:	1e f4       	brtc	.+6      	; 0x3738 <__addsf3+0x1e>
    3732:	5b c1       	rjmp	.+694    	; 0x39ea <__fp_nan>
    3734:	0e f4       	brtc	.+2      	; 0x3738 <__addsf3+0x1e>
    3736:	e0 95       	com	r30
    3738:	e7 fb       	bst	r30, 7
    373a:	51 c1       	rjmp	.+674    	; 0x39de <__fp_inf>

0000373c <__addsf3x>:
    373c:	e9 2f       	mov	r30, r25
    373e:	77 d1       	rcall	.+750    	; 0x3a2e <__fp_split3>
    3740:	80 f3       	brcs	.-32     	; 0x3722 <__addsf3+0x8>
    3742:	ba 17       	cp	r27, r26
    3744:	62 07       	cpc	r22, r18
    3746:	73 07       	cpc	r23, r19
    3748:	84 07       	cpc	r24, r20
    374a:	95 07       	cpc	r25, r21
    374c:	18 f0       	brcs	.+6      	; 0x3754 <__addsf3x+0x18>
    374e:	71 f4       	brne	.+28     	; 0x376c <__addsf3x+0x30>
    3750:	9e f5       	brtc	.+102    	; 0x37b8 <__addsf3x+0x7c>
    3752:	8f c1       	rjmp	.+798    	; 0x3a72 <__fp_zero>
    3754:	0e f4       	brtc	.+2      	; 0x3758 <__addsf3x+0x1c>
    3756:	e0 95       	com	r30
    3758:	0b 2e       	mov	r0, r27
    375a:	ba 2f       	mov	r27, r26
    375c:	a0 2d       	mov	r26, r0
    375e:	0b 01       	movw	r0, r22
    3760:	b9 01       	movw	r22, r18
    3762:	90 01       	movw	r18, r0
    3764:	0c 01       	movw	r0, r24
    3766:	ca 01       	movw	r24, r20
    3768:	a0 01       	movw	r20, r0
    376a:	11 24       	eor	r1, r1
    376c:	ff 27       	eor	r31, r31
    376e:	59 1b       	sub	r21, r25
    3770:	99 f0       	breq	.+38     	; 0x3798 <__addsf3x+0x5c>
    3772:	59 3f       	cpi	r21, 0xF9	; 249
    3774:	50 f4       	brcc	.+20     	; 0x378a <__addsf3x+0x4e>
    3776:	50 3e       	cpi	r21, 0xE0	; 224
    3778:	68 f1       	brcs	.+90     	; 0x37d4 <__addsf3x+0x98>
    377a:	1a 16       	cp	r1, r26
    377c:	f0 40       	sbci	r31, 0x00	; 0
    377e:	a2 2f       	mov	r26, r18
    3780:	23 2f       	mov	r18, r19
    3782:	34 2f       	mov	r19, r20
    3784:	44 27       	eor	r20, r20
    3786:	58 5f       	subi	r21, 0xF8	; 248
    3788:	f3 cf       	rjmp	.-26     	; 0x3770 <__addsf3x+0x34>
    378a:	46 95       	lsr	r20
    378c:	37 95       	ror	r19
    378e:	27 95       	ror	r18
    3790:	a7 95       	ror	r26
    3792:	f0 40       	sbci	r31, 0x00	; 0
    3794:	53 95       	inc	r21
    3796:	c9 f7       	brne	.-14     	; 0x378a <__addsf3x+0x4e>
    3798:	7e f4       	brtc	.+30     	; 0x37b8 <__addsf3x+0x7c>
    379a:	1f 16       	cp	r1, r31
    379c:	ba 0b       	sbc	r27, r26
    379e:	62 0b       	sbc	r22, r18
    37a0:	73 0b       	sbc	r23, r19
    37a2:	84 0b       	sbc	r24, r20
    37a4:	ba f0       	brmi	.+46     	; 0x37d4 <__addsf3x+0x98>
    37a6:	91 50       	subi	r25, 0x01	; 1
    37a8:	a1 f0       	breq	.+40     	; 0x37d2 <__addsf3x+0x96>
    37aa:	ff 0f       	add	r31, r31
    37ac:	bb 1f       	adc	r27, r27
    37ae:	66 1f       	adc	r22, r22
    37b0:	77 1f       	adc	r23, r23
    37b2:	88 1f       	adc	r24, r24
    37b4:	c2 f7       	brpl	.-16     	; 0x37a6 <__addsf3x+0x6a>
    37b6:	0e c0       	rjmp	.+28     	; 0x37d4 <__addsf3x+0x98>
    37b8:	ba 0f       	add	r27, r26
    37ba:	62 1f       	adc	r22, r18
    37bc:	73 1f       	adc	r23, r19
    37be:	84 1f       	adc	r24, r20
    37c0:	48 f4       	brcc	.+18     	; 0x37d4 <__addsf3x+0x98>
    37c2:	87 95       	ror	r24
    37c4:	77 95       	ror	r23
    37c6:	67 95       	ror	r22
    37c8:	b7 95       	ror	r27
    37ca:	f7 95       	ror	r31
    37cc:	9e 3f       	cpi	r25, 0xFE	; 254
    37ce:	08 f0       	brcs	.+2      	; 0x37d2 <__addsf3x+0x96>
    37d0:	b3 cf       	rjmp	.-154    	; 0x3738 <__addsf3+0x1e>
    37d2:	93 95       	inc	r25
    37d4:	88 0f       	add	r24, r24
    37d6:	08 f0       	brcs	.+2      	; 0x37da <__addsf3x+0x9e>
    37d8:	99 27       	eor	r25, r25
    37da:	ee 0f       	add	r30, r30
    37dc:	97 95       	ror	r25
    37de:	87 95       	ror	r24
    37e0:	08 95       	ret

000037e2 <__cmpsf2>:
    37e2:	d9 d0       	rcall	.+434    	; 0x3996 <__fp_cmp>
    37e4:	08 f4       	brcc	.+2      	; 0x37e8 <__cmpsf2+0x6>
    37e6:	81 e0       	ldi	r24, 0x01	; 1
    37e8:	08 95       	ret

000037ea <__divsf3>:
    37ea:	0c d0       	rcall	.+24     	; 0x3804 <__divsf3x>
    37ec:	0f c1       	rjmp	.+542    	; 0x3a0c <__fp_round>
    37ee:	07 d1       	rcall	.+526    	; 0x39fe <__fp_pscB>
    37f0:	40 f0       	brcs	.+16     	; 0x3802 <__divsf3+0x18>
    37f2:	fe d0       	rcall	.+508    	; 0x39f0 <__fp_pscA>
    37f4:	30 f0       	brcs	.+12     	; 0x3802 <__divsf3+0x18>
    37f6:	21 f4       	brne	.+8      	; 0x3800 <__divsf3+0x16>
    37f8:	5f 3f       	cpi	r21, 0xFF	; 255
    37fa:	19 f0       	breq	.+6      	; 0x3802 <__divsf3+0x18>
    37fc:	f0 c0       	rjmp	.+480    	; 0x39de <__fp_inf>
    37fe:	51 11       	cpse	r21, r1
    3800:	39 c1       	rjmp	.+626    	; 0x3a74 <__fp_szero>
    3802:	f3 c0       	rjmp	.+486    	; 0x39ea <__fp_nan>

00003804 <__divsf3x>:
    3804:	14 d1       	rcall	.+552    	; 0x3a2e <__fp_split3>
    3806:	98 f3       	brcs	.-26     	; 0x37ee <__divsf3+0x4>

00003808 <__divsf3_pse>:
    3808:	99 23       	and	r25, r25
    380a:	c9 f3       	breq	.-14     	; 0x37fe <__divsf3+0x14>
    380c:	55 23       	and	r21, r21
    380e:	b1 f3       	breq	.-20     	; 0x37fc <__divsf3+0x12>
    3810:	95 1b       	sub	r25, r21
    3812:	55 0b       	sbc	r21, r21
    3814:	bb 27       	eor	r27, r27
    3816:	aa 27       	eor	r26, r26
    3818:	62 17       	cp	r22, r18
    381a:	73 07       	cpc	r23, r19
    381c:	84 07       	cpc	r24, r20
    381e:	38 f0       	brcs	.+14     	; 0x382e <__divsf3_pse+0x26>
    3820:	9f 5f       	subi	r25, 0xFF	; 255
    3822:	5f 4f       	sbci	r21, 0xFF	; 255
    3824:	22 0f       	add	r18, r18
    3826:	33 1f       	adc	r19, r19
    3828:	44 1f       	adc	r20, r20
    382a:	aa 1f       	adc	r26, r26
    382c:	a9 f3       	breq	.-22     	; 0x3818 <__divsf3_pse+0x10>
    382e:	33 d0       	rcall	.+102    	; 0x3896 <__divsf3_pse+0x8e>
    3830:	0e 2e       	mov	r0, r30
    3832:	3a f0       	brmi	.+14     	; 0x3842 <__divsf3_pse+0x3a>
    3834:	e0 e8       	ldi	r30, 0x80	; 128
    3836:	30 d0       	rcall	.+96     	; 0x3898 <__divsf3_pse+0x90>
    3838:	91 50       	subi	r25, 0x01	; 1
    383a:	50 40       	sbci	r21, 0x00	; 0
    383c:	e6 95       	lsr	r30
    383e:	00 1c       	adc	r0, r0
    3840:	ca f7       	brpl	.-14     	; 0x3834 <__divsf3_pse+0x2c>
    3842:	29 d0       	rcall	.+82     	; 0x3896 <__divsf3_pse+0x8e>
    3844:	fe 2f       	mov	r31, r30
    3846:	27 d0       	rcall	.+78     	; 0x3896 <__divsf3_pse+0x8e>
    3848:	66 0f       	add	r22, r22
    384a:	77 1f       	adc	r23, r23
    384c:	88 1f       	adc	r24, r24
    384e:	bb 1f       	adc	r27, r27
    3850:	26 17       	cp	r18, r22
    3852:	37 07       	cpc	r19, r23
    3854:	48 07       	cpc	r20, r24
    3856:	ab 07       	cpc	r26, r27
    3858:	b0 e8       	ldi	r27, 0x80	; 128
    385a:	09 f0       	breq	.+2      	; 0x385e <__divsf3_pse+0x56>
    385c:	bb 0b       	sbc	r27, r27
    385e:	80 2d       	mov	r24, r0
    3860:	bf 01       	movw	r22, r30
    3862:	ff 27       	eor	r31, r31
    3864:	93 58       	subi	r25, 0x83	; 131
    3866:	5f 4f       	sbci	r21, 0xFF	; 255
    3868:	2a f0       	brmi	.+10     	; 0x3874 <__divsf3_pse+0x6c>
    386a:	9e 3f       	cpi	r25, 0xFE	; 254
    386c:	51 05       	cpc	r21, r1
    386e:	68 f0       	brcs	.+26     	; 0x388a <__divsf3_pse+0x82>
    3870:	b6 c0       	rjmp	.+364    	; 0x39de <__fp_inf>
    3872:	00 c1       	rjmp	.+512    	; 0x3a74 <__fp_szero>
    3874:	5f 3f       	cpi	r21, 0xFF	; 255
    3876:	ec f3       	brlt	.-6      	; 0x3872 <__divsf3_pse+0x6a>
    3878:	98 3e       	cpi	r25, 0xE8	; 232
    387a:	dc f3       	brlt	.-10     	; 0x3872 <__divsf3_pse+0x6a>
    387c:	86 95       	lsr	r24
    387e:	77 95       	ror	r23
    3880:	67 95       	ror	r22
    3882:	b7 95       	ror	r27
    3884:	f7 95       	ror	r31
    3886:	9f 5f       	subi	r25, 0xFF	; 255
    3888:	c9 f7       	brne	.-14     	; 0x387c <__divsf3_pse+0x74>
    388a:	88 0f       	add	r24, r24
    388c:	91 1d       	adc	r25, r1
    388e:	96 95       	lsr	r25
    3890:	87 95       	ror	r24
    3892:	97 f9       	bld	r25, 7
    3894:	08 95       	ret
    3896:	e1 e0       	ldi	r30, 0x01	; 1
    3898:	66 0f       	add	r22, r22
    389a:	77 1f       	adc	r23, r23
    389c:	88 1f       	adc	r24, r24
    389e:	bb 1f       	adc	r27, r27
    38a0:	62 17       	cp	r22, r18
    38a2:	73 07       	cpc	r23, r19
    38a4:	84 07       	cpc	r24, r20
    38a6:	ba 07       	cpc	r27, r26
    38a8:	20 f0       	brcs	.+8      	; 0x38b2 <__divsf3_pse+0xaa>
    38aa:	62 1b       	sub	r22, r18
    38ac:	73 0b       	sbc	r23, r19
    38ae:	84 0b       	sbc	r24, r20
    38b0:	ba 0b       	sbc	r27, r26
    38b2:	ee 1f       	adc	r30, r30
    38b4:	88 f7       	brcc	.-30     	; 0x3898 <__divsf3_pse+0x90>
    38b6:	e0 95       	com	r30
    38b8:	08 95       	ret

000038ba <__fixsfsi>:
    38ba:	04 d0       	rcall	.+8      	; 0x38c4 <__fixunssfsi>
    38bc:	68 94       	set
    38be:	b1 11       	cpse	r27, r1
    38c0:	d9 c0       	rjmp	.+434    	; 0x3a74 <__fp_szero>
    38c2:	08 95       	ret

000038c4 <__fixunssfsi>:
    38c4:	bc d0       	rcall	.+376    	; 0x3a3e <__fp_splitA>
    38c6:	88 f0       	brcs	.+34     	; 0x38ea <__fixunssfsi+0x26>
    38c8:	9f 57       	subi	r25, 0x7F	; 127
    38ca:	90 f0       	brcs	.+36     	; 0x38f0 <__fixunssfsi+0x2c>
    38cc:	b9 2f       	mov	r27, r25
    38ce:	99 27       	eor	r25, r25
    38d0:	b7 51       	subi	r27, 0x17	; 23
    38d2:	a0 f0       	brcs	.+40     	; 0x38fc <__fixunssfsi+0x38>
    38d4:	d1 f0       	breq	.+52     	; 0x390a <__fixunssfsi+0x46>
    38d6:	66 0f       	add	r22, r22
    38d8:	77 1f       	adc	r23, r23
    38da:	88 1f       	adc	r24, r24
    38dc:	99 1f       	adc	r25, r25
    38de:	1a f0       	brmi	.+6      	; 0x38e6 <__fixunssfsi+0x22>
    38e0:	ba 95       	dec	r27
    38e2:	c9 f7       	brne	.-14     	; 0x38d6 <__fixunssfsi+0x12>
    38e4:	12 c0       	rjmp	.+36     	; 0x390a <__fixunssfsi+0x46>
    38e6:	b1 30       	cpi	r27, 0x01	; 1
    38e8:	81 f0       	breq	.+32     	; 0x390a <__fixunssfsi+0x46>
    38ea:	c3 d0       	rcall	.+390    	; 0x3a72 <__fp_zero>
    38ec:	b1 e0       	ldi	r27, 0x01	; 1
    38ee:	08 95       	ret
    38f0:	c0 c0       	rjmp	.+384    	; 0x3a72 <__fp_zero>
    38f2:	67 2f       	mov	r22, r23
    38f4:	78 2f       	mov	r23, r24
    38f6:	88 27       	eor	r24, r24
    38f8:	b8 5f       	subi	r27, 0xF8	; 248
    38fa:	39 f0       	breq	.+14     	; 0x390a <__fixunssfsi+0x46>
    38fc:	b9 3f       	cpi	r27, 0xF9	; 249
    38fe:	cc f3       	brlt	.-14     	; 0x38f2 <__fixunssfsi+0x2e>
    3900:	86 95       	lsr	r24
    3902:	77 95       	ror	r23
    3904:	67 95       	ror	r22
    3906:	b3 95       	inc	r27
    3908:	d9 f7       	brne	.-10     	; 0x3900 <__fixunssfsi+0x3c>
    390a:	3e f4       	brtc	.+14     	; 0x391a <__fixunssfsi+0x56>
    390c:	90 95       	com	r25
    390e:	80 95       	com	r24
    3910:	70 95       	com	r23
    3912:	61 95       	neg	r22
    3914:	7f 4f       	sbci	r23, 0xFF	; 255
    3916:	8f 4f       	sbci	r24, 0xFF	; 255
    3918:	9f 4f       	sbci	r25, 0xFF	; 255
    391a:	08 95       	ret

0000391c <__floatunsisf>:
    391c:	e8 94       	clt
    391e:	09 c0       	rjmp	.+18     	; 0x3932 <__floatsisf+0x12>

00003920 <__floatsisf>:
    3920:	97 fb       	bst	r25, 7
    3922:	3e f4       	brtc	.+14     	; 0x3932 <__floatsisf+0x12>
    3924:	90 95       	com	r25
    3926:	80 95       	com	r24
    3928:	70 95       	com	r23
    392a:	61 95       	neg	r22
    392c:	7f 4f       	sbci	r23, 0xFF	; 255
    392e:	8f 4f       	sbci	r24, 0xFF	; 255
    3930:	9f 4f       	sbci	r25, 0xFF	; 255
    3932:	99 23       	and	r25, r25
    3934:	a9 f0       	breq	.+42     	; 0x3960 <__floatsisf+0x40>
    3936:	f9 2f       	mov	r31, r25
    3938:	96 e9       	ldi	r25, 0x96	; 150
    393a:	bb 27       	eor	r27, r27
    393c:	93 95       	inc	r25
    393e:	f6 95       	lsr	r31
    3940:	87 95       	ror	r24
    3942:	77 95       	ror	r23
    3944:	67 95       	ror	r22
    3946:	b7 95       	ror	r27
    3948:	f1 11       	cpse	r31, r1
    394a:	f8 cf       	rjmp	.-16     	; 0x393c <__floatsisf+0x1c>
    394c:	fa f4       	brpl	.+62     	; 0x398c <__floatsisf+0x6c>
    394e:	bb 0f       	add	r27, r27
    3950:	11 f4       	brne	.+4      	; 0x3956 <__floatsisf+0x36>
    3952:	60 ff       	sbrs	r22, 0
    3954:	1b c0       	rjmp	.+54     	; 0x398c <__floatsisf+0x6c>
    3956:	6f 5f       	subi	r22, 0xFF	; 255
    3958:	7f 4f       	sbci	r23, 0xFF	; 255
    395a:	8f 4f       	sbci	r24, 0xFF	; 255
    395c:	9f 4f       	sbci	r25, 0xFF	; 255
    395e:	16 c0       	rjmp	.+44     	; 0x398c <__floatsisf+0x6c>
    3960:	88 23       	and	r24, r24
    3962:	11 f0       	breq	.+4      	; 0x3968 <__floatsisf+0x48>
    3964:	96 e9       	ldi	r25, 0x96	; 150
    3966:	11 c0       	rjmp	.+34     	; 0x398a <__floatsisf+0x6a>
    3968:	77 23       	and	r23, r23
    396a:	21 f0       	breq	.+8      	; 0x3974 <__floatsisf+0x54>
    396c:	9e e8       	ldi	r25, 0x8E	; 142
    396e:	87 2f       	mov	r24, r23
    3970:	76 2f       	mov	r23, r22
    3972:	05 c0       	rjmp	.+10     	; 0x397e <__floatsisf+0x5e>
    3974:	66 23       	and	r22, r22
    3976:	71 f0       	breq	.+28     	; 0x3994 <__floatsisf+0x74>
    3978:	96 e8       	ldi	r25, 0x86	; 134
    397a:	86 2f       	mov	r24, r22
    397c:	70 e0       	ldi	r23, 0x00	; 0
    397e:	60 e0       	ldi	r22, 0x00	; 0
    3980:	2a f0       	brmi	.+10     	; 0x398c <__floatsisf+0x6c>
    3982:	9a 95       	dec	r25
    3984:	66 0f       	add	r22, r22
    3986:	77 1f       	adc	r23, r23
    3988:	88 1f       	adc	r24, r24
    398a:	da f7       	brpl	.-10     	; 0x3982 <__floatsisf+0x62>
    398c:	88 0f       	add	r24, r24
    398e:	96 95       	lsr	r25
    3990:	87 95       	ror	r24
    3992:	97 f9       	bld	r25, 7
    3994:	08 95       	ret

00003996 <__fp_cmp>:
    3996:	99 0f       	add	r25, r25
    3998:	00 08       	sbc	r0, r0
    399a:	55 0f       	add	r21, r21
    399c:	aa 0b       	sbc	r26, r26
    399e:	e0 e8       	ldi	r30, 0x80	; 128
    39a0:	fe ef       	ldi	r31, 0xFE	; 254
    39a2:	16 16       	cp	r1, r22
    39a4:	17 06       	cpc	r1, r23
    39a6:	e8 07       	cpc	r30, r24
    39a8:	f9 07       	cpc	r31, r25
    39aa:	c0 f0       	brcs	.+48     	; 0x39dc <__fp_cmp+0x46>
    39ac:	12 16       	cp	r1, r18
    39ae:	13 06       	cpc	r1, r19
    39b0:	e4 07       	cpc	r30, r20
    39b2:	f5 07       	cpc	r31, r21
    39b4:	98 f0       	brcs	.+38     	; 0x39dc <__fp_cmp+0x46>
    39b6:	62 1b       	sub	r22, r18
    39b8:	73 0b       	sbc	r23, r19
    39ba:	84 0b       	sbc	r24, r20
    39bc:	95 0b       	sbc	r25, r21
    39be:	39 f4       	brne	.+14     	; 0x39ce <__fp_cmp+0x38>
    39c0:	0a 26       	eor	r0, r26
    39c2:	61 f0       	breq	.+24     	; 0x39dc <__fp_cmp+0x46>
    39c4:	23 2b       	or	r18, r19
    39c6:	24 2b       	or	r18, r20
    39c8:	25 2b       	or	r18, r21
    39ca:	21 f4       	brne	.+8      	; 0x39d4 <__fp_cmp+0x3e>
    39cc:	08 95       	ret
    39ce:	0a 26       	eor	r0, r26
    39d0:	09 f4       	brne	.+2      	; 0x39d4 <__fp_cmp+0x3e>
    39d2:	a1 40       	sbci	r26, 0x01	; 1
    39d4:	a6 95       	lsr	r26
    39d6:	8f ef       	ldi	r24, 0xFF	; 255
    39d8:	81 1d       	adc	r24, r1
    39da:	81 1d       	adc	r24, r1
    39dc:	08 95       	ret

000039de <__fp_inf>:
    39de:	97 f9       	bld	r25, 7
    39e0:	9f 67       	ori	r25, 0x7F	; 127
    39e2:	80 e8       	ldi	r24, 0x80	; 128
    39e4:	70 e0       	ldi	r23, 0x00	; 0
    39e6:	60 e0       	ldi	r22, 0x00	; 0
    39e8:	08 95       	ret

000039ea <__fp_nan>:
    39ea:	9f ef       	ldi	r25, 0xFF	; 255
    39ec:	80 ec       	ldi	r24, 0xC0	; 192
    39ee:	08 95       	ret

000039f0 <__fp_pscA>:
    39f0:	00 24       	eor	r0, r0
    39f2:	0a 94       	dec	r0
    39f4:	16 16       	cp	r1, r22
    39f6:	17 06       	cpc	r1, r23
    39f8:	18 06       	cpc	r1, r24
    39fa:	09 06       	cpc	r0, r25
    39fc:	08 95       	ret

000039fe <__fp_pscB>:
    39fe:	00 24       	eor	r0, r0
    3a00:	0a 94       	dec	r0
    3a02:	12 16       	cp	r1, r18
    3a04:	13 06       	cpc	r1, r19
    3a06:	14 06       	cpc	r1, r20
    3a08:	05 06       	cpc	r0, r21
    3a0a:	08 95       	ret

00003a0c <__fp_round>:
    3a0c:	09 2e       	mov	r0, r25
    3a0e:	03 94       	inc	r0
    3a10:	00 0c       	add	r0, r0
    3a12:	11 f4       	brne	.+4      	; 0x3a18 <__fp_round+0xc>
    3a14:	88 23       	and	r24, r24
    3a16:	52 f0       	brmi	.+20     	; 0x3a2c <__fp_round+0x20>
    3a18:	bb 0f       	add	r27, r27
    3a1a:	40 f4       	brcc	.+16     	; 0x3a2c <__fp_round+0x20>
    3a1c:	bf 2b       	or	r27, r31
    3a1e:	11 f4       	brne	.+4      	; 0x3a24 <__fp_round+0x18>
    3a20:	60 ff       	sbrs	r22, 0
    3a22:	04 c0       	rjmp	.+8      	; 0x3a2c <__fp_round+0x20>
    3a24:	6f 5f       	subi	r22, 0xFF	; 255
    3a26:	7f 4f       	sbci	r23, 0xFF	; 255
    3a28:	8f 4f       	sbci	r24, 0xFF	; 255
    3a2a:	9f 4f       	sbci	r25, 0xFF	; 255
    3a2c:	08 95       	ret

00003a2e <__fp_split3>:
    3a2e:	57 fd       	sbrc	r21, 7
    3a30:	90 58       	subi	r25, 0x80	; 128
    3a32:	44 0f       	add	r20, r20
    3a34:	55 1f       	adc	r21, r21
    3a36:	59 f0       	breq	.+22     	; 0x3a4e <__fp_splitA+0x10>
    3a38:	5f 3f       	cpi	r21, 0xFF	; 255
    3a3a:	71 f0       	breq	.+28     	; 0x3a58 <__fp_splitA+0x1a>
    3a3c:	47 95       	ror	r20

00003a3e <__fp_splitA>:
    3a3e:	88 0f       	add	r24, r24
    3a40:	97 fb       	bst	r25, 7
    3a42:	99 1f       	adc	r25, r25
    3a44:	61 f0       	breq	.+24     	; 0x3a5e <__fp_splitA+0x20>
    3a46:	9f 3f       	cpi	r25, 0xFF	; 255
    3a48:	79 f0       	breq	.+30     	; 0x3a68 <__fp_splitA+0x2a>
    3a4a:	87 95       	ror	r24
    3a4c:	08 95       	ret
    3a4e:	12 16       	cp	r1, r18
    3a50:	13 06       	cpc	r1, r19
    3a52:	14 06       	cpc	r1, r20
    3a54:	55 1f       	adc	r21, r21
    3a56:	f2 cf       	rjmp	.-28     	; 0x3a3c <__fp_split3+0xe>
    3a58:	46 95       	lsr	r20
    3a5a:	f1 df       	rcall	.-30     	; 0x3a3e <__fp_splitA>
    3a5c:	08 c0       	rjmp	.+16     	; 0x3a6e <__fp_splitA+0x30>
    3a5e:	16 16       	cp	r1, r22
    3a60:	17 06       	cpc	r1, r23
    3a62:	18 06       	cpc	r1, r24
    3a64:	99 1f       	adc	r25, r25
    3a66:	f1 cf       	rjmp	.-30     	; 0x3a4a <__fp_splitA+0xc>
    3a68:	86 95       	lsr	r24
    3a6a:	71 05       	cpc	r23, r1
    3a6c:	61 05       	cpc	r22, r1
    3a6e:	08 94       	sec
    3a70:	08 95       	ret

00003a72 <__fp_zero>:
    3a72:	e8 94       	clt

00003a74 <__fp_szero>:
    3a74:	bb 27       	eor	r27, r27
    3a76:	66 27       	eor	r22, r22
    3a78:	77 27       	eor	r23, r23
    3a7a:	cb 01       	movw	r24, r22
    3a7c:	97 f9       	bld	r25, 7
    3a7e:	08 95       	ret

00003a80 <__gesf2>:
    3a80:	8a df       	rcall	.-236    	; 0x3996 <__fp_cmp>
    3a82:	08 f4       	brcc	.+2      	; 0x3a86 <__gesf2+0x6>
    3a84:	8f ef       	ldi	r24, 0xFF	; 255
    3a86:	08 95       	ret

00003a88 <__mulsf3>:
    3a88:	0b d0       	rcall	.+22     	; 0x3aa0 <__mulsf3x>
    3a8a:	c0 cf       	rjmp	.-128    	; 0x3a0c <__fp_round>
    3a8c:	b1 df       	rcall	.-158    	; 0x39f0 <__fp_pscA>
    3a8e:	28 f0       	brcs	.+10     	; 0x3a9a <__mulsf3+0x12>
    3a90:	b6 df       	rcall	.-148    	; 0x39fe <__fp_pscB>
    3a92:	18 f0       	brcs	.+6      	; 0x3a9a <__mulsf3+0x12>
    3a94:	95 23       	and	r25, r21
    3a96:	09 f0       	breq	.+2      	; 0x3a9a <__mulsf3+0x12>
    3a98:	a2 cf       	rjmp	.-188    	; 0x39de <__fp_inf>
    3a9a:	a7 cf       	rjmp	.-178    	; 0x39ea <__fp_nan>
    3a9c:	11 24       	eor	r1, r1
    3a9e:	ea cf       	rjmp	.-44     	; 0x3a74 <__fp_szero>

00003aa0 <__mulsf3x>:
    3aa0:	c6 df       	rcall	.-116    	; 0x3a2e <__fp_split3>
    3aa2:	a0 f3       	brcs	.-24     	; 0x3a8c <__mulsf3+0x4>

00003aa4 <__mulsf3_pse>:
    3aa4:	95 9f       	mul	r25, r21
    3aa6:	d1 f3       	breq	.-12     	; 0x3a9c <__mulsf3+0x14>
    3aa8:	95 0f       	add	r25, r21
    3aaa:	50 e0       	ldi	r21, 0x00	; 0
    3aac:	55 1f       	adc	r21, r21
    3aae:	62 9f       	mul	r22, r18
    3ab0:	f0 01       	movw	r30, r0
    3ab2:	72 9f       	mul	r23, r18
    3ab4:	bb 27       	eor	r27, r27
    3ab6:	f0 0d       	add	r31, r0
    3ab8:	b1 1d       	adc	r27, r1
    3aba:	63 9f       	mul	r22, r19
    3abc:	aa 27       	eor	r26, r26
    3abe:	f0 0d       	add	r31, r0
    3ac0:	b1 1d       	adc	r27, r1
    3ac2:	aa 1f       	adc	r26, r26
    3ac4:	64 9f       	mul	r22, r20
    3ac6:	66 27       	eor	r22, r22
    3ac8:	b0 0d       	add	r27, r0
    3aca:	a1 1d       	adc	r26, r1
    3acc:	66 1f       	adc	r22, r22
    3ace:	82 9f       	mul	r24, r18
    3ad0:	22 27       	eor	r18, r18
    3ad2:	b0 0d       	add	r27, r0
    3ad4:	a1 1d       	adc	r26, r1
    3ad6:	62 1f       	adc	r22, r18
    3ad8:	73 9f       	mul	r23, r19
    3ada:	b0 0d       	add	r27, r0
    3adc:	a1 1d       	adc	r26, r1
    3ade:	62 1f       	adc	r22, r18
    3ae0:	83 9f       	mul	r24, r19
    3ae2:	a0 0d       	add	r26, r0
    3ae4:	61 1d       	adc	r22, r1
    3ae6:	22 1f       	adc	r18, r18
    3ae8:	74 9f       	mul	r23, r20
    3aea:	33 27       	eor	r19, r19
    3aec:	a0 0d       	add	r26, r0
    3aee:	61 1d       	adc	r22, r1
    3af0:	23 1f       	adc	r18, r19
    3af2:	84 9f       	mul	r24, r20
    3af4:	60 0d       	add	r22, r0
    3af6:	21 1d       	adc	r18, r1
    3af8:	82 2f       	mov	r24, r18
    3afa:	76 2f       	mov	r23, r22
    3afc:	6a 2f       	mov	r22, r26
    3afe:	11 24       	eor	r1, r1
    3b00:	9f 57       	subi	r25, 0x7F	; 127
    3b02:	50 40       	sbci	r21, 0x00	; 0
    3b04:	8a f0       	brmi	.+34     	; 0x3b28 <__mulsf3_pse+0x84>
    3b06:	e1 f0       	breq	.+56     	; 0x3b40 <__mulsf3_pse+0x9c>
    3b08:	88 23       	and	r24, r24
    3b0a:	4a f0       	brmi	.+18     	; 0x3b1e <__mulsf3_pse+0x7a>
    3b0c:	ee 0f       	add	r30, r30
    3b0e:	ff 1f       	adc	r31, r31
    3b10:	bb 1f       	adc	r27, r27
    3b12:	66 1f       	adc	r22, r22
    3b14:	77 1f       	adc	r23, r23
    3b16:	88 1f       	adc	r24, r24
    3b18:	91 50       	subi	r25, 0x01	; 1
    3b1a:	50 40       	sbci	r21, 0x00	; 0
    3b1c:	a9 f7       	brne	.-22     	; 0x3b08 <__mulsf3_pse+0x64>
    3b1e:	9e 3f       	cpi	r25, 0xFE	; 254
    3b20:	51 05       	cpc	r21, r1
    3b22:	70 f0       	brcs	.+28     	; 0x3b40 <__mulsf3_pse+0x9c>
    3b24:	5c cf       	rjmp	.-328    	; 0x39de <__fp_inf>
    3b26:	a6 cf       	rjmp	.-180    	; 0x3a74 <__fp_szero>
    3b28:	5f 3f       	cpi	r21, 0xFF	; 255
    3b2a:	ec f3       	brlt	.-6      	; 0x3b26 <__mulsf3_pse+0x82>
    3b2c:	98 3e       	cpi	r25, 0xE8	; 232
    3b2e:	dc f3       	brlt	.-10     	; 0x3b26 <__mulsf3_pse+0x82>
    3b30:	86 95       	lsr	r24
    3b32:	77 95       	ror	r23
    3b34:	67 95       	ror	r22
    3b36:	b7 95       	ror	r27
    3b38:	f7 95       	ror	r31
    3b3a:	e7 95       	ror	r30
    3b3c:	9f 5f       	subi	r25, 0xFF	; 255
    3b3e:	c1 f7       	brne	.-16     	; 0x3b30 <__mulsf3_pse+0x8c>
    3b40:	fe 2b       	or	r31, r30
    3b42:	88 0f       	add	r24, r24
    3b44:	91 1d       	adc	r25, r1
    3b46:	96 95       	lsr	r25
    3b48:	87 95       	ror	r24
    3b4a:	97 f9       	bld	r25, 7
    3b4c:	08 95       	ret

00003b4e <pow>:
    3b4e:	fa 01       	movw	r30, r20
    3b50:	ee 0f       	add	r30, r30
    3b52:	ff 1f       	adc	r31, r31
    3b54:	30 96       	adiw	r30, 0x00	; 0
    3b56:	21 05       	cpc	r18, r1
    3b58:	31 05       	cpc	r19, r1
    3b5a:	99 f1       	breq	.+102    	; 0x3bc2 <pow+0x74>
    3b5c:	61 15       	cp	r22, r1
    3b5e:	71 05       	cpc	r23, r1
    3b60:	61 f4       	brne	.+24     	; 0x3b7a <pow+0x2c>
    3b62:	80 38       	cpi	r24, 0x80	; 128
    3b64:	bf e3       	ldi	r27, 0x3F	; 63
    3b66:	9b 07       	cpc	r25, r27
    3b68:	49 f1       	breq	.+82     	; 0x3bbc <pow+0x6e>
    3b6a:	68 94       	set
    3b6c:	90 38       	cpi	r25, 0x80	; 128
    3b6e:	81 05       	cpc	r24, r1
    3b70:	61 f0       	breq	.+24     	; 0x3b8a <pow+0x3c>
    3b72:	80 38       	cpi	r24, 0x80	; 128
    3b74:	bf ef       	ldi	r27, 0xFF	; 255
    3b76:	9b 07       	cpc	r25, r27
    3b78:	41 f0       	breq	.+16     	; 0x3b8a <pow+0x3c>
    3b7a:	99 23       	and	r25, r25
    3b7c:	42 f5       	brpl	.+80     	; 0x3bce <pow+0x80>
    3b7e:	ff 3f       	cpi	r31, 0xFF	; 255
    3b80:	e1 05       	cpc	r30, r1
    3b82:	31 05       	cpc	r19, r1
    3b84:	21 05       	cpc	r18, r1
    3b86:	11 f1       	breq	.+68     	; 0x3bcc <pow+0x7e>
    3b88:	e8 94       	clt
    3b8a:	08 94       	sec
    3b8c:	e7 95       	ror	r30
    3b8e:	d9 01       	movw	r26, r18
    3b90:	aa 23       	and	r26, r26
    3b92:	29 f4       	brne	.+10     	; 0x3b9e <pow+0x50>
    3b94:	ab 2f       	mov	r26, r27
    3b96:	be 2f       	mov	r27, r30
    3b98:	f8 5f       	subi	r31, 0xF8	; 248
    3b9a:	d0 f3       	brcs	.-12     	; 0x3b90 <pow+0x42>
    3b9c:	10 c0       	rjmp	.+32     	; 0x3bbe <pow+0x70>
    3b9e:	ff 5f       	subi	r31, 0xFF	; 255
    3ba0:	70 f4       	brcc	.+28     	; 0x3bbe <pow+0x70>
    3ba2:	a6 95       	lsr	r26
    3ba4:	e0 f7       	brcc	.-8      	; 0x3b9e <pow+0x50>
    3ba6:	f7 39       	cpi	r31, 0x97	; 151
    3ba8:	50 f0       	brcs	.+20     	; 0x3bbe <pow+0x70>
    3baa:	19 f0       	breq	.+6      	; 0x3bb2 <pow+0x64>
    3bac:	ff 3a       	cpi	r31, 0xAF	; 175
    3bae:	38 f4       	brcc	.+14     	; 0x3bbe <pow+0x70>
    3bb0:	9f 77       	andi	r25, 0x7F	; 127
    3bb2:	9f 93       	push	r25
    3bb4:	0c d0       	rcall	.+24     	; 0x3bce <pow+0x80>
    3bb6:	0f 90       	pop	r0
    3bb8:	07 fc       	sbrc	r0, 7
    3bba:	90 58       	subi	r25, 0x80	; 128
    3bbc:	08 95       	ret
    3bbe:	3e f0       	brts	.+14     	; 0x3bce <pow+0x80>
    3bc0:	14 cf       	rjmp	.-472    	; 0x39ea <__fp_nan>
    3bc2:	60 e0       	ldi	r22, 0x00	; 0
    3bc4:	70 e0       	ldi	r23, 0x00	; 0
    3bc6:	80 e8       	ldi	r24, 0x80	; 128
    3bc8:	9f e3       	ldi	r25, 0x3F	; 63
    3bca:	08 95       	ret
    3bcc:	4f e7       	ldi	r20, 0x7F	; 127
    3bce:	9f 77       	andi	r25, 0x7F	; 127
    3bd0:	5f 93       	push	r21
    3bd2:	4f 93       	push	r20
    3bd4:	3f 93       	push	r19
    3bd6:	2f 93       	push	r18
    3bd8:	9e d0       	rcall	.+316    	; 0x3d16 <log>
    3bda:	2f 91       	pop	r18
    3bdc:	3f 91       	pop	r19
    3bde:	4f 91       	pop	r20
    3be0:	5f 91       	pop	r21
    3be2:	52 df       	rcall	.-348    	; 0x3a88 <__mulsf3>
    3be4:	05 c0       	rjmp	.+10     	; 0x3bf0 <exp>
    3be6:	19 f4       	brne	.+6      	; 0x3bee <pow+0xa0>
    3be8:	0e f0       	brts	.+2      	; 0x3bec <pow+0x9e>
    3bea:	f9 ce       	rjmp	.-526    	; 0x39de <__fp_inf>
    3bec:	42 cf       	rjmp	.-380    	; 0x3a72 <__fp_zero>
    3bee:	fd ce       	rjmp	.-518    	; 0x39ea <__fp_nan>

00003bf0 <exp>:
    3bf0:	26 df       	rcall	.-436    	; 0x3a3e <__fp_splitA>
    3bf2:	c8 f3       	brcs	.-14     	; 0x3be6 <pow+0x98>
    3bf4:	96 38       	cpi	r25, 0x86	; 134
    3bf6:	c0 f7       	brcc	.-16     	; 0x3be8 <pow+0x9a>
    3bf8:	07 f8       	bld	r0, 7
    3bfa:	0f 92       	push	r0
    3bfc:	e8 94       	clt
    3bfe:	2b e3       	ldi	r18, 0x3B	; 59
    3c00:	3a ea       	ldi	r19, 0xAA	; 170
    3c02:	48 eb       	ldi	r20, 0xB8	; 184
    3c04:	5f e7       	ldi	r21, 0x7F	; 127
    3c06:	4e df       	rcall	.-356    	; 0x3aa4 <__mulsf3_pse>
    3c08:	0f 92       	push	r0
    3c0a:	0f 92       	push	r0
    3c0c:	0f 92       	push	r0
    3c0e:	4d b7       	in	r20, 0x3d	; 61
    3c10:	5e b7       	in	r21, 0x3e	; 62
    3c12:	0f 92       	push	r0
    3c14:	c0 d0       	rcall	.+384    	; 0x3d96 <modf>
    3c16:	e2 e2       	ldi	r30, 0x22	; 34
    3c18:	f2 e0       	ldi	r31, 0x02	; 2
    3c1a:	16 d0       	rcall	.+44     	; 0x3c48 <__fp_powser>
    3c1c:	4f 91       	pop	r20
    3c1e:	5f 91       	pop	r21
    3c20:	ef 91       	pop	r30
    3c22:	ff 91       	pop	r31
    3c24:	e5 95       	asr	r30
    3c26:	ee 1f       	adc	r30, r30
    3c28:	ff 1f       	adc	r31, r31
    3c2a:	49 f0       	breq	.+18     	; 0x3c3e <exp+0x4e>
    3c2c:	fe 57       	subi	r31, 0x7E	; 126
    3c2e:	e0 68       	ori	r30, 0x80	; 128
    3c30:	44 27       	eor	r20, r20
    3c32:	ee 0f       	add	r30, r30
    3c34:	44 1f       	adc	r20, r20
    3c36:	fa 95       	dec	r31
    3c38:	e1 f7       	brne	.-8      	; 0x3c32 <exp+0x42>
    3c3a:	41 95       	neg	r20
    3c3c:	55 0b       	sbc	r21, r21
    3c3e:	32 d0       	rcall	.+100    	; 0x3ca4 <ldexp>
    3c40:	0f 90       	pop	r0
    3c42:	07 fe       	sbrs	r0, 7
    3c44:	26 c0       	rjmp	.+76     	; 0x3c92 <inverse>
    3c46:	08 95       	ret

00003c48 <__fp_powser>:
    3c48:	df 93       	push	r29
    3c4a:	cf 93       	push	r28
    3c4c:	1f 93       	push	r17
    3c4e:	0f 93       	push	r16
    3c50:	ff 92       	push	r15
    3c52:	ef 92       	push	r14
    3c54:	df 92       	push	r13
    3c56:	7b 01       	movw	r14, r22
    3c58:	8c 01       	movw	r16, r24
    3c5a:	68 94       	set
    3c5c:	05 c0       	rjmp	.+10     	; 0x3c68 <__fp_powser+0x20>
    3c5e:	da 2e       	mov	r13, r26
    3c60:	ef 01       	movw	r28, r30
    3c62:	1e df       	rcall	.-452    	; 0x3aa0 <__mulsf3x>
    3c64:	fe 01       	movw	r30, r28
    3c66:	e8 94       	clt
    3c68:	a5 91       	lpm	r26, Z+
    3c6a:	25 91       	lpm	r18, Z+
    3c6c:	35 91       	lpm	r19, Z+
    3c6e:	45 91       	lpm	r20, Z+
    3c70:	55 91       	lpm	r21, Z+
    3c72:	ae f3       	brts	.-22     	; 0x3c5e <__fp_powser+0x16>
    3c74:	ef 01       	movw	r28, r30
    3c76:	62 dd       	rcall	.-1340   	; 0x373c <__addsf3x>
    3c78:	fe 01       	movw	r30, r28
    3c7a:	97 01       	movw	r18, r14
    3c7c:	a8 01       	movw	r20, r16
    3c7e:	da 94       	dec	r13
    3c80:	79 f7       	brne	.-34     	; 0x3c60 <__fp_powser+0x18>
    3c82:	df 90       	pop	r13
    3c84:	ef 90       	pop	r14
    3c86:	ff 90       	pop	r15
    3c88:	0f 91       	pop	r16
    3c8a:	1f 91       	pop	r17
    3c8c:	cf 91       	pop	r28
    3c8e:	df 91       	pop	r29
    3c90:	08 95       	ret

00003c92 <inverse>:
    3c92:	9b 01       	movw	r18, r22
    3c94:	ac 01       	movw	r20, r24
    3c96:	60 e0       	ldi	r22, 0x00	; 0
    3c98:	70 e0       	ldi	r23, 0x00	; 0
    3c9a:	80 e8       	ldi	r24, 0x80	; 128
    3c9c:	9f e3       	ldi	r25, 0x3F	; 63
    3c9e:	a5 cd       	rjmp	.-1206   	; 0x37ea <__divsf3>
    3ca0:	9e ce       	rjmp	.-708    	; 0x39de <__fp_inf>
    3ca2:	ac c0       	rjmp	.+344    	; 0x3dfc <__fp_mpack>

00003ca4 <ldexp>:
    3ca4:	cc de       	rcall	.-616    	; 0x3a3e <__fp_splitA>
    3ca6:	e8 f3       	brcs	.-6      	; 0x3ca2 <inverse+0x10>
    3ca8:	99 23       	and	r25, r25
    3caa:	d9 f3       	breq	.-10     	; 0x3ca2 <inverse+0x10>
    3cac:	94 0f       	add	r25, r20
    3cae:	51 1d       	adc	r21, r1
    3cb0:	bb f3       	brvs	.-18     	; 0x3ca0 <inverse+0xe>
    3cb2:	91 50       	subi	r25, 0x01	; 1
    3cb4:	50 40       	sbci	r21, 0x00	; 0
    3cb6:	94 f0       	brlt	.+36     	; 0x3cdc <ldexp+0x38>
    3cb8:	59 f0       	breq	.+22     	; 0x3cd0 <ldexp+0x2c>
    3cba:	88 23       	and	r24, r24
    3cbc:	32 f0       	brmi	.+12     	; 0x3cca <ldexp+0x26>
    3cbe:	66 0f       	add	r22, r22
    3cc0:	77 1f       	adc	r23, r23
    3cc2:	88 1f       	adc	r24, r24
    3cc4:	91 50       	subi	r25, 0x01	; 1
    3cc6:	50 40       	sbci	r21, 0x00	; 0
    3cc8:	c1 f7       	brne	.-16     	; 0x3cba <ldexp+0x16>
    3cca:	9e 3f       	cpi	r25, 0xFE	; 254
    3ccc:	51 05       	cpc	r21, r1
    3cce:	44 f7       	brge	.-48     	; 0x3ca0 <inverse+0xe>
    3cd0:	88 0f       	add	r24, r24
    3cd2:	91 1d       	adc	r25, r1
    3cd4:	96 95       	lsr	r25
    3cd6:	87 95       	ror	r24
    3cd8:	97 f9       	bld	r25, 7
    3cda:	08 95       	ret
    3cdc:	5f 3f       	cpi	r21, 0xFF	; 255
    3cde:	ac f0       	brlt	.+42     	; 0x3d0a <ldexp+0x66>
    3ce0:	98 3e       	cpi	r25, 0xE8	; 232
    3ce2:	9c f0       	brlt	.+38     	; 0x3d0a <ldexp+0x66>
    3ce4:	bb 27       	eor	r27, r27
    3ce6:	86 95       	lsr	r24
    3ce8:	77 95       	ror	r23
    3cea:	67 95       	ror	r22
    3cec:	b7 95       	ror	r27
    3cee:	08 f4       	brcc	.+2      	; 0x3cf2 <ldexp+0x4e>
    3cf0:	b1 60       	ori	r27, 0x01	; 1
    3cf2:	93 95       	inc	r25
    3cf4:	c1 f7       	brne	.-16     	; 0x3ce6 <ldexp+0x42>
    3cf6:	bb 0f       	add	r27, r27
    3cf8:	58 f7       	brcc	.-42     	; 0x3cd0 <ldexp+0x2c>
    3cfa:	11 f4       	brne	.+4      	; 0x3d00 <ldexp+0x5c>
    3cfc:	60 ff       	sbrs	r22, 0
    3cfe:	e8 cf       	rjmp	.-48     	; 0x3cd0 <ldexp+0x2c>
    3d00:	6f 5f       	subi	r22, 0xFF	; 255
    3d02:	7f 4f       	sbci	r23, 0xFF	; 255
    3d04:	8f 4f       	sbci	r24, 0xFF	; 255
    3d06:	9f 4f       	sbci	r25, 0xFF	; 255
    3d08:	e3 cf       	rjmp	.-58     	; 0x3cd0 <ldexp+0x2c>
    3d0a:	b4 ce       	rjmp	.-664    	; 0x3a74 <__fp_szero>
    3d0c:	0e f0       	brts	.+2      	; 0x3d10 <ldexp+0x6c>
    3d0e:	76 c0       	rjmp	.+236    	; 0x3dfc <__fp_mpack>
    3d10:	6c ce       	rjmp	.-808    	; 0x39ea <__fp_nan>
    3d12:	68 94       	set
    3d14:	64 ce       	rjmp	.-824    	; 0x39de <__fp_inf>

00003d16 <log>:
    3d16:	93 de       	rcall	.-730    	; 0x3a3e <__fp_splitA>
    3d18:	c8 f3       	brcs	.-14     	; 0x3d0c <ldexp+0x68>
    3d1a:	99 23       	and	r25, r25
    3d1c:	d1 f3       	breq	.-12     	; 0x3d12 <ldexp+0x6e>
    3d1e:	c6 f3       	brts	.-16     	; 0x3d10 <ldexp+0x6c>
    3d20:	df 93       	push	r29
    3d22:	cf 93       	push	r28
    3d24:	1f 93       	push	r17
    3d26:	0f 93       	push	r16
    3d28:	ff 92       	push	r15
    3d2a:	c9 2f       	mov	r28, r25
    3d2c:	dd 27       	eor	r29, r29
    3d2e:	88 23       	and	r24, r24
    3d30:	2a f0       	brmi	.+10     	; 0x3d3c <log+0x26>
    3d32:	21 97       	sbiw	r28, 0x01	; 1
    3d34:	66 0f       	add	r22, r22
    3d36:	77 1f       	adc	r23, r23
    3d38:	88 1f       	adc	r24, r24
    3d3a:	da f7       	brpl	.-10     	; 0x3d32 <log+0x1c>
    3d3c:	20 e0       	ldi	r18, 0x00	; 0
    3d3e:	30 e0       	ldi	r19, 0x00	; 0
    3d40:	40 e8       	ldi	r20, 0x80	; 128
    3d42:	5f eb       	ldi	r21, 0xBF	; 191
    3d44:	9f e3       	ldi	r25, 0x3F	; 63
    3d46:	88 39       	cpi	r24, 0x98	; 152
    3d48:	20 f0       	brcs	.+8      	; 0x3d52 <log+0x3c>
    3d4a:	80 3e       	cpi	r24, 0xE0	; 224
    3d4c:	30 f0       	brcs	.+12     	; 0x3d5a <log+0x44>
    3d4e:	21 96       	adiw	r28, 0x01	; 1
    3d50:	8f 77       	andi	r24, 0x7F	; 127
    3d52:	e3 dc       	rcall	.-1594   	; 0x371a <__addsf3>
    3d54:	ea e4       	ldi	r30, 0x4A	; 74
    3d56:	f2 e0       	ldi	r31, 0x02	; 2
    3d58:	03 c0       	rjmp	.+6      	; 0x3d60 <log+0x4a>
    3d5a:	df dc       	rcall	.-1602   	; 0x371a <__addsf3>
    3d5c:	e7 e7       	ldi	r30, 0x77	; 119
    3d5e:	f2 e0       	ldi	r31, 0x02	; 2
    3d60:	73 df       	rcall	.-282    	; 0x3c48 <__fp_powser>
    3d62:	8b 01       	movw	r16, r22
    3d64:	be 01       	movw	r22, r28
    3d66:	ec 01       	movw	r28, r24
    3d68:	fb 2e       	mov	r15, r27
    3d6a:	6f 57       	subi	r22, 0x7F	; 127
    3d6c:	71 09       	sbc	r23, r1
    3d6e:	75 95       	asr	r23
    3d70:	77 1f       	adc	r23, r23
    3d72:	88 0b       	sbc	r24, r24
    3d74:	99 0b       	sbc	r25, r25
    3d76:	d4 dd       	rcall	.-1112   	; 0x3920 <__floatsisf>
    3d78:	28 e1       	ldi	r18, 0x18	; 24
    3d7a:	32 e7       	ldi	r19, 0x72	; 114
    3d7c:	41 e3       	ldi	r20, 0x31	; 49
    3d7e:	5f e3       	ldi	r21, 0x3F	; 63
    3d80:	8f de       	rcall	.-738    	; 0x3aa0 <__mulsf3x>
    3d82:	af 2d       	mov	r26, r15
    3d84:	98 01       	movw	r18, r16
    3d86:	ae 01       	movw	r20, r28
    3d88:	ff 90       	pop	r15
    3d8a:	0f 91       	pop	r16
    3d8c:	1f 91       	pop	r17
    3d8e:	cf 91       	pop	r28
    3d90:	df 91       	pop	r29
    3d92:	d4 dc       	rcall	.-1624   	; 0x373c <__addsf3x>
    3d94:	3b ce       	rjmp	.-906    	; 0x3a0c <__fp_round>

00003d96 <modf>:
    3d96:	fa 01       	movw	r30, r20
    3d98:	dc 01       	movw	r26, r24
    3d9a:	aa 0f       	add	r26, r26
    3d9c:	bb 1f       	adc	r27, r27
    3d9e:	9b 01       	movw	r18, r22
    3da0:	ac 01       	movw	r20, r24
    3da2:	bf 57       	subi	r27, 0x7F	; 127
    3da4:	28 f4       	brcc	.+10     	; 0x3db0 <modf+0x1a>
    3da6:	22 27       	eor	r18, r18
    3da8:	33 27       	eor	r19, r19
    3daa:	44 27       	eor	r20, r20
    3dac:	50 78       	andi	r21, 0x80	; 128
    3dae:	1f c0       	rjmp	.+62     	; 0x3dee <modf+0x58>
    3db0:	b7 51       	subi	r27, 0x17	; 23
    3db2:	88 f4       	brcc	.+34     	; 0x3dd6 <modf+0x40>
    3db4:	ab 2f       	mov	r26, r27
    3db6:	00 24       	eor	r0, r0
    3db8:	46 95       	lsr	r20
    3dba:	37 95       	ror	r19
    3dbc:	27 95       	ror	r18
    3dbe:	01 1c       	adc	r0, r1
    3dc0:	a3 95       	inc	r26
    3dc2:	d2 f3       	brmi	.-12     	; 0x3db8 <modf+0x22>
    3dc4:	00 20       	and	r0, r0
    3dc6:	69 f0       	breq	.+26     	; 0x3de2 <modf+0x4c>
    3dc8:	22 0f       	add	r18, r18
    3dca:	33 1f       	adc	r19, r19
    3dcc:	44 1f       	adc	r20, r20
    3dce:	b3 95       	inc	r27
    3dd0:	da f3       	brmi	.-10     	; 0x3dc8 <modf+0x32>
    3dd2:	0d d0       	rcall	.+26     	; 0x3dee <modf+0x58>
    3dd4:	a1 cc       	rjmp	.-1726   	; 0x3718 <__subsf3>
    3dd6:	61 30       	cpi	r22, 0x01	; 1
    3dd8:	71 05       	cpc	r23, r1
    3dda:	a0 e8       	ldi	r26, 0x80	; 128
    3ddc:	8a 07       	cpc	r24, r26
    3dde:	b9 46       	sbci	r27, 0x69	; 105
    3de0:	30 f4       	brcc	.+12     	; 0x3dee <modf+0x58>
    3de2:	9b 01       	movw	r18, r22
    3de4:	ac 01       	movw	r20, r24
    3de6:	66 27       	eor	r22, r22
    3de8:	77 27       	eor	r23, r23
    3dea:	88 27       	eor	r24, r24
    3dec:	90 78       	andi	r25, 0x80	; 128
    3dee:	30 96       	adiw	r30, 0x00	; 0
    3df0:	21 f0       	breq	.+8      	; 0x3dfa <modf+0x64>
    3df2:	20 83       	st	Z, r18
    3df4:	31 83       	std	Z+1, r19	; 0x01
    3df6:	42 83       	std	Z+2, r20	; 0x02
    3df8:	53 83       	std	Z+3, r21	; 0x03
    3dfa:	08 95       	ret

00003dfc <__fp_mpack>:
    3dfc:	9f 3f       	cpi	r25, 0xFF	; 255
    3dfe:	31 f0       	breq	.+12     	; 0x3e0c <__fp_mpack_finite+0xc>

00003e00 <__fp_mpack_finite>:
    3e00:	91 50       	subi	r25, 0x01	; 1
    3e02:	20 f4       	brcc	.+8      	; 0x3e0c <__fp_mpack_finite+0xc>
    3e04:	87 95       	ror	r24
    3e06:	77 95       	ror	r23
    3e08:	67 95       	ror	r22
    3e0a:	b7 95       	ror	r27
    3e0c:	88 0f       	add	r24, r24
    3e0e:	91 1d       	adc	r25, r1
    3e10:	96 95       	lsr	r25
    3e12:	87 95       	ror	r24
    3e14:	97 f9       	bld	r25, 7
    3e16:	08 95       	ret

00003e18 <__mulsi3>:
    3e18:	db 01       	movw	r26, r22
    3e1a:	8f 93       	push	r24
    3e1c:	9f 93       	push	r25
    3e1e:	88 d0       	rcall	.+272    	; 0x3f30 <__muluhisi3>
    3e20:	bf 91       	pop	r27
    3e22:	af 91       	pop	r26
    3e24:	a2 9f       	mul	r26, r18
    3e26:	80 0d       	add	r24, r0
    3e28:	91 1d       	adc	r25, r1
    3e2a:	a3 9f       	mul	r26, r19
    3e2c:	90 0d       	add	r25, r0
    3e2e:	b2 9f       	mul	r27, r18
    3e30:	90 0d       	add	r25, r0
    3e32:	11 24       	eor	r1, r1
    3e34:	08 95       	ret

00003e36 <__udivmodhi4>:
    3e36:	aa 1b       	sub	r26, r26
    3e38:	bb 1b       	sub	r27, r27
    3e3a:	51 e1       	ldi	r21, 0x11	; 17
    3e3c:	07 c0       	rjmp	.+14     	; 0x3e4c <__udivmodhi4_ep>

00003e3e <__udivmodhi4_loop>:
    3e3e:	aa 1f       	adc	r26, r26
    3e40:	bb 1f       	adc	r27, r27
    3e42:	a6 17       	cp	r26, r22
    3e44:	b7 07       	cpc	r27, r23
    3e46:	10 f0       	brcs	.+4      	; 0x3e4c <__udivmodhi4_ep>
    3e48:	a6 1b       	sub	r26, r22
    3e4a:	b7 0b       	sbc	r27, r23

00003e4c <__udivmodhi4_ep>:
    3e4c:	88 1f       	adc	r24, r24
    3e4e:	99 1f       	adc	r25, r25
    3e50:	5a 95       	dec	r21
    3e52:	a9 f7       	brne	.-22     	; 0x3e3e <__udivmodhi4_loop>
    3e54:	80 95       	com	r24
    3e56:	90 95       	com	r25
    3e58:	bc 01       	movw	r22, r24
    3e5a:	cd 01       	movw	r24, r26
    3e5c:	08 95       	ret

00003e5e <__divmodhi4>:
    3e5e:	97 fb       	bst	r25, 7
    3e60:	07 2e       	mov	r0, r23
    3e62:	16 f4       	brtc	.+4      	; 0x3e68 <__divmodhi4+0xa>
    3e64:	00 94       	com	r0
    3e66:	06 d0       	rcall	.+12     	; 0x3e74 <__divmodhi4_neg1>
    3e68:	77 fd       	sbrc	r23, 7
    3e6a:	08 d0       	rcall	.+16     	; 0x3e7c <__divmodhi4_neg2>
    3e6c:	e4 df       	rcall	.-56     	; 0x3e36 <__udivmodhi4>
    3e6e:	07 fc       	sbrc	r0, 7
    3e70:	05 d0       	rcall	.+10     	; 0x3e7c <__divmodhi4_neg2>
    3e72:	3e f4       	brtc	.+14     	; 0x3e82 <__divmodhi4_exit>

00003e74 <__divmodhi4_neg1>:
    3e74:	90 95       	com	r25
    3e76:	81 95       	neg	r24
    3e78:	9f 4f       	sbci	r25, 0xFF	; 255
    3e7a:	08 95       	ret

00003e7c <__divmodhi4_neg2>:
    3e7c:	70 95       	com	r23
    3e7e:	61 95       	neg	r22
    3e80:	7f 4f       	sbci	r23, 0xFF	; 255

00003e82 <__divmodhi4_exit>:
    3e82:	08 95       	ret

00003e84 <__udivmodsi4>:
    3e84:	a1 e2       	ldi	r26, 0x21	; 33
    3e86:	1a 2e       	mov	r1, r26
    3e88:	aa 1b       	sub	r26, r26
    3e8a:	bb 1b       	sub	r27, r27
    3e8c:	fd 01       	movw	r30, r26
    3e8e:	0d c0       	rjmp	.+26     	; 0x3eaa <__udivmodsi4_ep>

00003e90 <__udivmodsi4_loop>:
    3e90:	aa 1f       	adc	r26, r26
    3e92:	bb 1f       	adc	r27, r27
    3e94:	ee 1f       	adc	r30, r30
    3e96:	ff 1f       	adc	r31, r31
    3e98:	a2 17       	cp	r26, r18
    3e9a:	b3 07       	cpc	r27, r19
    3e9c:	e4 07       	cpc	r30, r20
    3e9e:	f5 07       	cpc	r31, r21
    3ea0:	20 f0       	brcs	.+8      	; 0x3eaa <__udivmodsi4_ep>
    3ea2:	a2 1b       	sub	r26, r18
    3ea4:	b3 0b       	sbc	r27, r19
    3ea6:	e4 0b       	sbc	r30, r20
    3ea8:	f5 0b       	sbc	r31, r21

00003eaa <__udivmodsi4_ep>:
    3eaa:	66 1f       	adc	r22, r22
    3eac:	77 1f       	adc	r23, r23
    3eae:	88 1f       	adc	r24, r24
    3eb0:	99 1f       	adc	r25, r25
    3eb2:	1a 94       	dec	r1
    3eb4:	69 f7       	brne	.-38     	; 0x3e90 <__udivmodsi4_loop>
    3eb6:	60 95       	com	r22
    3eb8:	70 95       	com	r23
    3eba:	80 95       	com	r24
    3ebc:	90 95       	com	r25
    3ebe:	9b 01       	movw	r18, r22
    3ec0:	ac 01       	movw	r20, r24
    3ec2:	bd 01       	movw	r22, r26
    3ec4:	cf 01       	movw	r24, r30
    3ec6:	08 95       	ret

00003ec8 <__divmodsi4>:
    3ec8:	05 2e       	mov	r0, r21
    3eca:	97 fb       	bst	r25, 7
    3ecc:	16 f4       	brtc	.+4      	; 0x3ed2 <__divmodsi4+0xa>
    3ece:	00 94       	com	r0
    3ed0:	0f d0       	rcall	.+30     	; 0x3ef0 <__negsi2>
    3ed2:	57 fd       	sbrc	r21, 7
    3ed4:	05 d0       	rcall	.+10     	; 0x3ee0 <__divmodsi4_neg2>
    3ed6:	d6 df       	rcall	.-84     	; 0x3e84 <__udivmodsi4>
    3ed8:	07 fc       	sbrc	r0, 7
    3eda:	02 d0       	rcall	.+4      	; 0x3ee0 <__divmodsi4_neg2>
    3edc:	46 f4       	brtc	.+16     	; 0x3eee <__divmodsi4_exit>
    3ede:	08 c0       	rjmp	.+16     	; 0x3ef0 <__negsi2>

00003ee0 <__divmodsi4_neg2>:
    3ee0:	50 95       	com	r21
    3ee2:	40 95       	com	r20
    3ee4:	30 95       	com	r19
    3ee6:	21 95       	neg	r18
    3ee8:	3f 4f       	sbci	r19, 0xFF	; 255
    3eea:	4f 4f       	sbci	r20, 0xFF	; 255
    3eec:	5f 4f       	sbci	r21, 0xFF	; 255

00003eee <__divmodsi4_exit>:
    3eee:	08 95       	ret

00003ef0 <__negsi2>:
    3ef0:	90 95       	com	r25
    3ef2:	80 95       	com	r24
    3ef4:	70 95       	com	r23
    3ef6:	61 95       	neg	r22
    3ef8:	7f 4f       	sbci	r23, 0xFF	; 255
    3efa:	8f 4f       	sbci	r24, 0xFF	; 255
    3efc:	9f 4f       	sbci	r25, 0xFF	; 255
    3efe:	08 95       	ret

00003f00 <__tablejump2__>:
    3f00:	ee 0f       	add	r30, r30
    3f02:	ff 1f       	adc	r31, r31
    3f04:	88 1f       	adc	r24, r24
    3f06:	8b bf       	out	0x3b, r24	; 59
    3f08:	07 90       	elpm	r0, Z+
    3f0a:	f6 91       	elpm	r31, Z
    3f0c:	e0 2d       	mov	r30, r0
    3f0e:	1b be       	out	0x3b, r1	; 59
    3f10:	19 94       	eijmp

00003f12 <__umulhisi3>:
    3f12:	a2 9f       	mul	r26, r18
    3f14:	b0 01       	movw	r22, r0
    3f16:	b3 9f       	mul	r27, r19
    3f18:	c0 01       	movw	r24, r0
    3f1a:	a3 9f       	mul	r26, r19
    3f1c:	70 0d       	add	r23, r0
    3f1e:	81 1d       	adc	r24, r1
    3f20:	11 24       	eor	r1, r1
    3f22:	91 1d       	adc	r25, r1
    3f24:	b2 9f       	mul	r27, r18
    3f26:	70 0d       	add	r23, r0
    3f28:	81 1d       	adc	r24, r1
    3f2a:	11 24       	eor	r1, r1
    3f2c:	91 1d       	adc	r25, r1
    3f2e:	08 95       	ret

00003f30 <__muluhisi3>:
    3f30:	f0 df       	rcall	.-32     	; 0x3f12 <__umulhisi3>
    3f32:	a5 9f       	mul	r26, r21
    3f34:	90 0d       	add	r25, r0
    3f36:	b4 9f       	mul	r27, r20
    3f38:	90 0d       	add	r25, r0
    3f3a:	a4 9f       	mul	r26, r20
    3f3c:	80 0d       	add	r24, r0
    3f3e:	91 1d       	adc	r25, r1
    3f40:	11 24       	eor	r1, r1
    3f42:	08 95       	ret

00003f44 <__ashldi3>:
    3f44:	0f 93       	push	r16
    3f46:	08 30       	cpi	r16, 0x08	; 8
    3f48:	90 f0       	brcs	.+36     	; 0x3f6e <__ashldi3+0x2a>
    3f4a:	98 2f       	mov	r25, r24
    3f4c:	87 2f       	mov	r24, r23
    3f4e:	76 2f       	mov	r23, r22
    3f50:	65 2f       	mov	r22, r21
    3f52:	54 2f       	mov	r21, r20
    3f54:	43 2f       	mov	r20, r19
    3f56:	32 2f       	mov	r19, r18
    3f58:	22 27       	eor	r18, r18
    3f5a:	08 50       	subi	r16, 0x08	; 8
    3f5c:	f4 cf       	rjmp	.-24     	; 0x3f46 <__ashldi3+0x2>
    3f5e:	22 0f       	add	r18, r18
    3f60:	33 1f       	adc	r19, r19
    3f62:	44 1f       	adc	r20, r20
    3f64:	55 1f       	adc	r21, r21
    3f66:	66 1f       	adc	r22, r22
    3f68:	77 1f       	adc	r23, r23
    3f6a:	88 1f       	adc	r24, r24
    3f6c:	99 1f       	adc	r25, r25
    3f6e:	0a 95       	dec	r16
    3f70:	b2 f7       	brpl	.-20     	; 0x3f5e <__ashldi3+0x1a>
    3f72:	0f 91       	pop	r16
    3f74:	08 95       	ret

00003f76 <__ashrdi3>:
    3f76:	97 fb       	bst	r25, 7
    3f78:	10 f8       	bld	r1, 0

00003f7a <__lshrdi3>:
    3f7a:	16 94       	lsr	r1
    3f7c:	00 08       	sbc	r0, r0
    3f7e:	0f 93       	push	r16
    3f80:	08 30       	cpi	r16, 0x08	; 8
    3f82:	98 f0       	brcs	.+38     	; 0x3faa <__lshrdi3+0x30>
    3f84:	08 50       	subi	r16, 0x08	; 8
    3f86:	23 2f       	mov	r18, r19
    3f88:	34 2f       	mov	r19, r20
    3f8a:	45 2f       	mov	r20, r21
    3f8c:	56 2f       	mov	r21, r22
    3f8e:	67 2f       	mov	r22, r23
    3f90:	78 2f       	mov	r23, r24
    3f92:	89 2f       	mov	r24, r25
    3f94:	90 2d       	mov	r25, r0
    3f96:	f4 cf       	rjmp	.-24     	; 0x3f80 <__lshrdi3+0x6>
    3f98:	05 94       	asr	r0
    3f9a:	97 95       	ror	r25
    3f9c:	87 95       	ror	r24
    3f9e:	77 95       	ror	r23
    3fa0:	67 95       	ror	r22
    3fa2:	57 95       	ror	r21
    3fa4:	47 95       	ror	r20
    3fa6:	37 95       	ror	r19
    3fa8:	27 95       	ror	r18
    3faa:	0a 95       	dec	r16
    3fac:	aa f7       	brpl	.-22     	; 0x3f98 <__lshrdi3+0x1e>
    3fae:	0f 91       	pop	r16
    3fb0:	08 95       	ret

00003fb2 <fdevopen>:
    3fb2:	0f 93       	push	r16
    3fb4:	1f 93       	push	r17
    3fb6:	cf 93       	push	r28
    3fb8:	df 93       	push	r29
    3fba:	00 97       	sbiw	r24, 0x00	; 0
    3fbc:	31 f4       	brne	.+12     	; 0x3fca <fdevopen+0x18>
    3fbe:	61 15       	cp	r22, r1
    3fc0:	71 05       	cpc	r23, r1
    3fc2:	19 f4       	brne	.+6      	; 0x3fca <fdevopen+0x18>
    3fc4:	80 e0       	ldi	r24, 0x00	; 0
    3fc6:	90 e0       	ldi	r25, 0x00	; 0
    3fc8:	39 c0       	rjmp	.+114    	; 0x403c <__stack+0x3d>
    3fca:	8b 01       	movw	r16, r22
    3fcc:	ec 01       	movw	r28, r24
    3fce:	6e e0       	ldi	r22, 0x0E	; 14
    3fd0:	70 e0       	ldi	r23, 0x00	; 0
    3fd2:	81 e0       	ldi	r24, 0x01	; 1
    3fd4:	90 e0       	ldi	r25, 0x00	; 0
    3fd6:	77 d5       	rcall	.+2798   	; 0x4ac6 <calloc>
    3fd8:	fc 01       	movw	r30, r24
    3fda:	89 2b       	or	r24, r25
    3fdc:	99 f3       	breq	.-26     	; 0x3fc4 <fdevopen+0x12>
    3fde:	80 e8       	ldi	r24, 0x80	; 128
    3fe0:	83 83       	std	Z+3, r24	; 0x03
    3fe2:	01 15       	cp	r16, r1
    3fe4:	11 05       	cpc	r17, r1
    3fe6:	71 f0       	breq	.+28     	; 0x4004 <__stack+0x5>
    3fe8:	02 87       	std	Z+10, r16	; 0x0a
    3fea:	13 87       	std	Z+11, r17	; 0x0b
    3fec:	81 e8       	ldi	r24, 0x81	; 129
    3fee:	83 83       	std	Z+3, r24	; 0x03
    3ff0:	80 91 f2 21 	lds	r24, 0x21F2	; 0x8021f2 <__iob>
    3ff4:	90 91 f3 21 	lds	r25, 0x21F3	; 0x8021f3 <__iob+0x1>
    3ff8:	89 2b       	or	r24, r25
    3ffa:	21 f4       	brne	.+8      	; 0x4004 <__stack+0x5>
    3ffc:	e0 93 f2 21 	sts	0x21F2, r30	; 0x8021f2 <__iob>
    4000:	f0 93 f3 21 	sts	0x21F3, r31	; 0x8021f3 <__iob+0x1>
    4004:	20 97       	sbiw	r28, 0x00	; 0
    4006:	c9 f0       	breq	.+50     	; 0x403a <__stack+0x3b>
    4008:	c0 87       	std	Z+8, r28	; 0x08
    400a:	d1 87       	std	Z+9, r29	; 0x09
    400c:	83 81       	ldd	r24, Z+3	; 0x03
    400e:	82 60       	ori	r24, 0x02	; 2
    4010:	83 83       	std	Z+3, r24	; 0x03
    4012:	80 91 f4 21 	lds	r24, 0x21F4	; 0x8021f4 <__iob+0x2>
    4016:	90 91 f5 21 	lds	r25, 0x21F5	; 0x8021f5 <__iob+0x3>
    401a:	89 2b       	or	r24, r25
    401c:	71 f4       	brne	.+28     	; 0x403a <__stack+0x3b>
    401e:	e0 93 f4 21 	sts	0x21F4, r30	; 0x8021f4 <__iob+0x2>
    4022:	f0 93 f5 21 	sts	0x21F5, r31	; 0x8021f5 <__iob+0x3>
    4026:	80 91 f6 21 	lds	r24, 0x21F6	; 0x8021f6 <__iob+0x4>
    402a:	90 91 f7 21 	lds	r25, 0x21F7	; 0x8021f7 <__iob+0x5>
    402e:	89 2b       	or	r24, r25
    4030:	21 f4       	brne	.+8      	; 0x403a <__stack+0x3b>
    4032:	e0 93 f6 21 	sts	0x21F6, r30	; 0x8021f6 <__iob+0x4>
    4036:	f0 93 f7 21 	sts	0x21F7, r31	; 0x8021f7 <__iob+0x5>
    403a:	cf 01       	movw	r24, r30
    403c:	df 91       	pop	r29
    403e:	cf 91       	pop	r28
    4040:	1f 91       	pop	r17
    4042:	0f 91       	pop	r16
    4044:	08 95       	ret

00004046 <printf>:
    4046:	cf 93       	push	r28
    4048:	df 93       	push	r29
    404a:	cd b7       	in	r28, 0x3d	; 61
    404c:	de b7       	in	r29, 0x3e	; 62
    404e:	ae 01       	movw	r20, r28
    4050:	4a 5f       	subi	r20, 0xFA	; 250
    4052:	5f 4f       	sbci	r21, 0xFF	; 255
    4054:	fa 01       	movw	r30, r20
    4056:	61 91       	ld	r22, Z+
    4058:	71 91       	ld	r23, Z+
    405a:	af 01       	movw	r20, r30
    405c:	80 91 f4 21 	lds	r24, 0x21F4	; 0x8021f4 <__iob+0x2>
    4060:	90 91 f5 21 	lds	r25, 0x21F5	; 0x8021f5 <__iob+0x3>
    4064:	76 d0       	rcall	.+236    	; 0x4152 <vfprintf>
    4066:	df 91       	pop	r29
    4068:	cf 91       	pop	r28
    406a:	08 95       	ret

0000406c <puts>:
    406c:	0f 93       	push	r16
    406e:	1f 93       	push	r17
    4070:	cf 93       	push	r28
    4072:	df 93       	push	r29
    4074:	e0 91 f4 21 	lds	r30, 0x21F4	; 0x8021f4 <__iob+0x2>
    4078:	f0 91 f5 21 	lds	r31, 0x21F5	; 0x8021f5 <__iob+0x3>
    407c:	23 81       	ldd	r18, Z+3	; 0x03
    407e:	21 ff       	sbrs	r18, 1
    4080:	1b c0       	rjmp	.+54     	; 0x40b8 <puts+0x4c>
    4082:	8c 01       	movw	r16, r24
    4084:	d0 e0       	ldi	r29, 0x00	; 0
    4086:	c0 e0       	ldi	r28, 0x00	; 0
    4088:	f8 01       	movw	r30, r16
    408a:	81 91       	ld	r24, Z+
    408c:	8f 01       	movw	r16, r30
    408e:	60 91 f4 21 	lds	r22, 0x21F4	; 0x8021f4 <__iob+0x2>
    4092:	70 91 f5 21 	lds	r23, 0x21F5	; 0x8021f5 <__iob+0x3>
    4096:	db 01       	movw	r26, r22
    4098:	18 96       	adiw	r26, 0x08	; 8
    409a:	ed 91       	ld	r30, X+
    409c:	fc 91       	ld	r31, X
    409e:	19 97       	sbiw	r26, 0x09	; 9
    40a0:	88 23       	and	r24, r24
    40a2:	31 f0       	breq	.+12     	; 0x40b0 <puts+0x44>
    40a4:	19 95       	eicall
    40a6:	89 2b       	or	r24, r25
    40a8:	79 f3       	breq	.-34     	; 0x4088 <puts+0x1c>
    40aa:	df ef       	ldi	r29, 0xFF	; 255
    40ac:	cf ef       	ldi	r28, 0xFF	; 255
    40ae:	ec cf       	rjmp	.-40     	; 0x4088 <puts+0x1c>
    40b0:	8a e0       	ldi	r24, 0x0A	; 10
    40b2:	19 95       	eicall
    40b4:	89 2b       	or	r24, r25
    40b6:	19 f0       	breq	.+6      	; 0x40be <puts+0x52>
    40b8:	8f ef       	ldi	r24, 0xFF	; 255
    40ba:	9f ef       	ldi	r25, 0xFF	; 255
    40bc:	02 c0       	rjmp	.+4      	; 0x40c2 <puts+0x56>
    40be:	8d 2f       	mov	r24, r29
    40c0:	9c 2f       	mov	r25, r28
    40c2:	df 91       	pop	r29
    40c4:	cf 91       	pop	r28
    40c6:	1f 91       	pop	r17
    40c8:	0f 91       	pop	r16
    40ca:	08 95       	ret

000040cc <sprintf>:
    40cc:	0f 93       	push	r16
    40ce:	1f 93       	push	r17
    40d0:	cf 93       	push	r28
    40d2:	df 93       	push	r29
    40d4:	cd b7       	in	r28, 0x3d	; 61
    40d6:	de b7       	in	r29, 0x3e	; 62
    40d8:	2e 97       	sbiw	r28, 0x0e	; 14
    40da:	cd bf       	out	0x3d, r28	; 61
    40dc:	de bf       	out	0x3e, r29	; 62
    40de:	0e 89       	ldd	r16, Y+22	; 0x16
    40e0:	1f 89       	ldd	r17, Y+23	; 0x17
    40e2:	86 e0       	ldi	r24, 0x06	; 6
    40e4:	8c 83       	std	Y+4, r24	; 0x04
    40e6:	09 83       	std	Y+1, r16	; 0x01
    40e8:	1a 83       	std	Y+2, r17	; 0x02
    40ea:	8f ef       	ldi	r24, 0xFF	; 255
    40ec:	9f e7       	ldi	r25, 0x7F	; 127
    40ee:	8d 83       	std	Y+5, r24	; 0x05
    40f0:	9e 83       	std	Y+6, r25	; 0x06
    40f2:	ae 01       	movw	r20, r28
    40f4:	46 5e       	subi	r20, 0xE6	; 230
    40f6:	5f 4f       	sbci	r21, 0xFF	; 255
    40f8:	68 8d       	ldd	r22, Y+24	; 0x18
    40fa:	79 8d       	ldd	r23, Y+25	; 0x19
    40fc:	ce 01       	movw	r24, r28
    40fe:	01 96       	adiw	r24, 0x01	; 1
    4100:	28 d0       	rcall	.+80     	; 0x4152 <vfprintf>
    4102:	ef 81       	ldd	r30, Y+7	; 0x07
    4104:	f8 85       	ldd	r31, Y+8	; 0x08
    4106:	e0 0f       	add	r30, r16
    4108:	f1 1f       	adc	r31, r17
    410a:	10 82       	st	Z, r1
    410c:	2e 96       	adiw	r28, 0x0e	; 14
    410e:	cd bf       	out	0x3d, r28	; 61
    4110:	de bf       	out	0x3e, r29	; 62
    4112:	df 91       	pop	r29
    4114:	cf 91       	pop	r28
    4116:	1f 91       	pop	r17
    4118:	0f 91       	pop	r16
    411a:	08 95       	ret

0000411c <sscanf>:
    411c:	cf 93       	push	r28
    411e:	df 93       	push	r29
    4120:	cd b7       	in	r28, 0x3d	; 61
    4122:	de b7       	in	r29, 0x3e	; 62
    4124:	2e 97       	sbiw	r28, 0x0e	; 14
    4126:	cd bf       	out	0x3d, r28	; 61
    4128:	de bf       	out	0x3e, r29	; 62
    412a:	85 e0       	ldi	r24, 0x05	; 5
    412c:	8c 83       	std	Y+4, r24	; 0x04
    412e:	8c 89       	ldd	r24, Y+20	; 0x14
    4130:	9d 89       	ldd	r25, Y+21	; 0x15
    4132:	89 83       	std	Y+1, r24	; 0x01
    4134:	9a 83       	std	Y+2, r25	; 0x02
    4136:	ae 01       	movw	r20, r28
    4138:	48 5e       	subi	r20, 0xE8	; 232
    413a:	5f 4f       	sbci	r21, 0xFF	; 255
    413c:	6e 89       	ldd	r22, Y+22	; 0x16
    413e:	7f 89       	ldd	r23, Y+23	; 0x17
    4140:	ce 01       	movw	r24, r28
    4142:	01 96       	adiw	r24, 0x01	; 1
    4144:	a9 d3       	rcall	.+1874   	; 0x4898 <vfscanf>
    4146:	2e 96       	adiw	r28, 0x0e	; 14
    4148:	cd bf       	out	0x3d, r28	; 61
    414a:	de bf       	out	0x3e, r29	; 62
    414c:	df 91       	pop	r29
    414e:	cf 91       	pop	r28
    4150:	08 95       	ret

00004152 <vfprintf>:
    4152:	2f 92       	push	r2
    4154:	3f 92       	push	r3
    4156:	4f 92       	push	r4
    4158:	5f 92       	push	r5
    415a:	6f 92       	push	r6
    415c:	7f 92       	push	r7
    415e:	8f 92       	push	r8
    4160:	9f 92       	push	r9
    4162:	af 92       	push	r10
    4164:	bf 92       	push	r11
    4166:	cf 92       	push	r12
    4168:	df 92       	push	r13
    416a:	ef 92       	push	r14
    416c:	ff 92       	push	r15
    416e:	0f 93       	push	r16
    4170:	1f 93       	push	r17
    4172:	cf 93       	push	r28
    4174:	df 93       	push	r29
    4176:	cd b7       	in	r28, 0x3d	; 61
    4178:	de b7       	in	r29, 0x3e	; 62
    417a:	2b 97       	sbiw	r28, 0x0b	; 11
    417c:	cd bf       	out	0x3d, r28	; 61
    417e:	de bf       	out	0x3e, r29	; 62
    4180:	6c 01       	movw	r12, r24
    4182:	7b 01       	movw	r14, r22
    4184:	8a 01       	movw	r16, r20
    4186:	fc 01       	movw	r30, r24
    4188:	16 82       	std	Z+6, r1	; 0x06
    418a:	17 82       	std	Z+7, r1	; 0x07
    418c:	83 81       	ldd	r24, Z+3	; 0x03
    418e:	81 ff       	sbrs	r24, 1
    4190:	bf c1       	rjmp	.+894    	; 0x4510 <vfprintf+0x3be>
    4192:	ce 01       	movw	r24, r28
    4194:	01 96       	adiw	r24, 0x01	; 1
    4196:	3c 01       	movw	r6, r24
    4198:	f6 01       	movw	r30, r12
    419a:	93 81       	ldd	r25, Z+3	; 0x03
    419c:	f7 01       	movw	r30, r14
    419e:	93 fd       	sbrc	r25, 3
    41a0:	85 91       	lpm	r24, Z+
    41a2:	93 ff       	sbrs	r25, 3
    41a4:	81 91       	ld	r24, Z+
    41a6:	7f 01       	movw	r14, r30
    41a8:	88 23       	and	r24, r24
    41aa:	09 f4       	brne	.+2      	; 0x41ae <vfprintf+0x5c>
    41ac:	ad c1       	rjmp	.+858    	; 0x4508 <vfprintf+0x3b6>
    41ae:	85 32       	cpi	r24, 0x25	; 37
    41b0:	39 f4       	brne	.+14     	; 0x41c0 <vfprintf+0x6e>
    41b2:	93 fd       	sbrc	r25, 3
    41b4:	85 91       	lpm	r24, Z+
    41b6:	93 ff       	sbrs	r25, 3
    41b8:	81 91       	ld	r24, Z+
    41ba:	7f 01       	movw	r14, r30
    41bc:	85 32       	cpi	r24, 0x25	; 37
    41be:	21 f4       	brne	.+8      	; 0x41c8 <vfprintf+0x76>
    41c0:	b6 01       	movw	r22, r12
    41c2:	90 e0       	ldi	r25, 0x00	; 0
    41c4:	29 d6       	rcall	.+3154   	; 0x4e18 <fputc>
    41c6:	e8 cf       	rjmp	.-48     	; 0x4198 <vfprintf+0x46>
    41c8:	91 2c       	mov	r9, r1
    41ca:	21 2c       	mov	r2, r1
    41cc:	31 2c       	mov	r3, r1
    41ce:	ff e1       	ldi	r31, 0x1F	; 31
    41d0:	f3 15       	cp	r31, r3
    41d2:	d8 f0       	brcs	.+54     	; 0x420a <vfprintf+0xb8>
    41d4:	8b 32       	cpi	r24, 0x2B	; 43
    41d6:	79 f0       	breq	.+30     	; 0x41f6 <vfprintf+0xa4>
    41d8:	38 f4       	brcc	.+14     	; 0x41e8 <vfprintf+0x96>
    41da:	80 32       	cpi	r24, 0x20	; 32
    41dc:	79 f0       	breq	.+30     	; 0x41fc <vfprintf+0xaa>
    41de:	83 32       	cpi	r24, 0x23	; 35
    41e0:	a1 f4       	brne	.+40     	; 0x420a <vfprintf+0xb8>
    41e2:	23 2d       	mov	r18, r3
    41e4:	20 61       	ori	r18, 0x10	; 16
    41e6:	1d c0       	rjmp	.+58     	; 0x4222 <vfprintf+0xd0>
    41e8:	8d 32       	cpi	r24, 0x2D	; 45
    41ea:	61 f0       	breq	.+24     	; 0x4204 <vfprintf+0xb2>
    41ec:	80 33       	cpi	r24, 0x30	; 48
    41ee:	69 f4       	brne	.+26     	; 0x420a <vfprintf+0xb8>
    41f0:	23 2d       	mov	r18, r3
    41f2:	21 60       	ori	r18, 0x01	; 1
    41f4:	16 c0       	rjmp	.+44     	; 0x4222 <vfprintf+0xd0>
    41f6:	83 2d       	mov	r24, r3
    41f8:	82 60       	ori	r24, 0x02	; 2
    41fa:	38 2e       	mov	r3, r24
    41fc:	e3 2d       	mov	r30, r3
    41fe:	e4 60       	ori	r30, 0x04	; 4
    4200:	3e 2e       	mov	r3, r30
    4202:	2a c0       	rjmp	.+84     	; 0x4258 <vfprintf+0x106>
    4204:	f3 2d       	mov	r31, r3
    4206:	f8 60       	ori	r31, 0x08	; 8
    4208:	1d c0       	rjmp	.+58     	; 0x4244 <vfprintf+0xf2>
    420a:	37 fc       	sbrc	r3, 7
    420c:	2d c0       	rjmp	.+90     	; 0x4268 <vfprintf+0x116>
    420e:	20 ed       	ldi	r18, 0xD0	; 208
    4210:	28 0f       	add	r18, r24
    4212:	2a 30       	cpi	r18, 0x0A	; 10
    4214:	40 f0       	brcs	.+16     	; 0x4226 <vfprintf+0xd4>
    4216:	8e 32       	cpi	r24, 0x2E	; 46
    4218:	b9 f4       	brne	.+46     	; 0x4248 <vfprintf+0xf6>
    421a:	36 fc       	sbrc	r3, 6
    421c:	75 c1       	rjmp	.+746    	; 0x4508 <vfprintf+0x3b6>
    421e:	23 2d       	mov	r18, r3
    4220:	20 64       	ori	r18, 0x40	; 64
    4222:	32 2e       	mov	r3, r18
    4224:	19 c0       	rjmp	.+50     	; 0x4258 <vfprintf+0x106>
    4226:	36 fe       	sbrs	r3, 6
    4228:	06 c0       	rjmp	.+12     	; 0x4236 <vfprintf+0xe4>
    422a:	8a e0       	ldi	r24, 0x0A	; 10
    422c:	98 9e       	mul	r9, r24
    422e:	20 0d       	add	r18, r0
    4230:	11 24       	eor	r1, r1
    4232:	92 2e       	mov	r9, r18
    4234:	11 c0       	rjmp	.+34     	; 0x4258 <vfprintf+0x106>
    4236:	ea e0       	ldi	r30, 0x0A	; 10
    4238:	2e 9e       	mul	r2, r30
    423a:	20 0d       	add	r18, r0
    423c:	11 24       	eor	r1, r1
    423e:	22 2e       	mov	r2, r18
    4240:	f3 2d       	mov	r31, r3
    4242:	f0 62       	ori	r31, 0x20	; 32
    4244:	3f 2e       	mov	r3, r31
    4246:	08 c0       	rjmp	.+16     	; 0x4258 <vfprintf+0x106>
    4248:	8c 36       	cpi	r24, 0x6C	; 108
    424a:	21 f4       	brne	.+8      	; 0x4254 <vfprintf+0x102>
    424c:	83 2d       	mov	r24, r3
    424e:	80 68       	ori	r24, 0x80	; 128
    4250:	38 2e       	mov	r3, r24
    4252:	02 c0       	rjmp	.+4      	; 0x4258 <vfprintf+0x106>
    4254:	88 36       	cpi	r24, 0x68	; 104
    4256:	41 f4       	brne	.+16     	; 0x4268 <vfprintf+0x116>
    4258:	f7 01       	movw	r30, r14
    425a:	93 fd       	sbrc	r25, 3
    425c:	85 91       	lpm	r24, Z+
    425e:	93 ff       	sbrs	r25, 3
    4260:	81 91       	ld	r24, Z+
    4262:	7f 01       	movw	r14, r30
    4264:	81 11       	cpse	r24, r1
    4266:	b3 cf       	rjmp	.-154    	; 0x41ce <vfprintf+0x7c>
    4268:	98 2f       	mov	r25, r24
    426a:	9f 7d       	andi	r25, 0xDF	; 223
    426c:	95 54       	subi	r25, 0x45	; 69
    426e:	93 30       	cpi	r25, 0x03	; 3
    4270:	28 f4       	brcc	.+10     	; 0x427c <vfprintf+0x12a>
    4272:	0c 5f       	subi	r16, 0xFC	; 252
    4274:	1f 4f       	sbci	r17, 0xFF	; 255
    4276:	9f e3       	ldi	r25, 0x3F	; 63
    4278:	99 83       	std	Y+1, r25	; 0x01
    427a:	0d c0       	rjmp	.+26     	; 0x4296 <vfprintf+0x144>
    427c:	83 36       	cpi	r24, 0x63	; 99
    427e:	31 f0       	breq	.+12     	; 0x428c <vfprintf+0x13a>
    4280:	83 37       	cpi	r24, 0x73	; 115
    4282:	71 f0       	breq	.+28     	; 0x42a0 <vfprintf+0x14e>
    4284:	83 35       	cpi	r24, 0x53	; 83
    4286:	09 f0       	breq	.+2      	; 0x428a <vfprintf+0x138>
    4288:	55 c0       	rjmp	.+170    	; 0x4334 <vfprintf+0x1e2>
    428a:	20 c0       	rjmp	.+64     	; 0x42cc <vfprintf+0x17a>
    428c:	f8 01       	movw	r30, r16
    428e:	80 81       	ld	r24, Z
    4290:	89 83       	std	Y+1, r24	; 0x01
    4292:	0e 5f       	subi	r16, 0xFE	; 254
    4294:	1f 4f       	sbci	r17, 0xFF	; 255
    4296:	88 24       	eor	r8, r8
    4298:	83 94       	inc	r8
    429a:	91 2c       	mov	r9, r1
    429c:	53 01       	movw	r10, r6
    429e:	12 c0       	rjmp	.+36     	; 0x42c4 <vfprintf+0x172>
    42a0:	28 01       	movw	r4, r16
    42a2:	f2 e0       	ldi	r31, 0x02	; 2
    42a4:	4f 0e       	add	r4, r31
    42a6:	51 1c       	adc	r5, r1
    42a8:	f8 01       	movw	r30, r16
    42aa:	a0 80       	ld	r10, Z
    42ac:	b1 80       	ldd	r11, Z+1	; 0x01
    42ae:	36 fe       	sbrs	r3, 6
    42b0:	03 c0       	rjmp	.+6      	; 0x42b8 <vfprintf+0x166>
    42b2:	69 2d       	mov	r22, r9
    42b4:	70 e0       	ldi	r23, 0x00	; 0
    42b6:	02 c0       	rjmp	.+4      	; 0x42bc <vfprintf+0x16a>
    42b8:	6f ef       	ldi	r22, 0xFF	; 255
    42ba:	7f ef       	ldi	r23, 0xFF	; 255
    42bc:	c5 01       	movw	r24, r10
    42be:	63 d5       	rcall	.+2758   	; 0x4d86 <strnlen>
    42c0:	4c 01       	movw	r8, r24
    42c2:	82 01       	movw	r16, r4
    42c4:	f3 2d       	mov	r31, r3
    42c6:	ff 77       	andi	r31, 0x7F	; 127
    42c8:	3f 2e       	mov	r3, r31
    42ca:	15 c0       	rjmp	.+42     	; 0x42f6 <vfprintf+0x1a4>
    42cc:	28 01       	movw	r4, r16
    42ce:	22 e0       	ldi	r18, 0x02	; 2
    42d0:	42 0e       	add	r4, r18
    42d2:	51 1c       	adc	r5, r1
    42d4:	f8 01       	movw	r30, r16
    42d6:	a0 80       	ld	r10, Z
    42d8:	b1 80       	ldd	r11, Z+1	; 0x01
    42da:	36 fe       	sbrs	r3, 6
    42dc:	03 c0       	rjmp	.+6      	; 0x42e4 <vfprintf+0x192>
    42de:	69 2d       	mov	r22, r9
    42e0:	70 e0       	ldi	r23, 0x00	; 0
    42e2:	02 c0       	rjmp	.+4      	; 0x42e8 <vfprintf+0x196>
    42e4:	6f ef       	ldi	r22, 0xFF	; 255
    42e6:	7f ef       	ldi	r23, 0xFF	; 255
    42e8:	c5 01       	movw	r24, r10
    42ea:	3b d5       	rcall	.+2678   	; 0x4d62 <strnlen_P>
    42ec:	4c 01       	movw	r8, r24
    42ee:	f3 2d       	mov	r31, r3
    42f0:	f0 68       	ori	r31, 0x80	; 128
    42f2:	3f 2e       	mov	r3, r31
    42f4:	82 01       	movw	r16, r4
    42f6:	33 fc       	sbrc	r3, 3
    42f8:	19 c0       	rjmp	.+50     	; 0x432c <vfprintf+0x1da>
    42fa:	82 2d       	mov	r24, r2
    42fc:	90 e0       	ldi	r25, 0x00	; 0
    42fe:	88 16       	cp	r8, r24
    4300:	99 06       	cpc	r9, r25
    4302:	a0 f4       	brcc	.+40     	; 0x432c <vfprintf+0x1da>
    4304:	b6 01       	movw	r22, r12
    4306:	80 e2       	ldi	r24, 0x20	; 32
    4308:	90 e0       	ldi	r25, 0x00	; 0
    430a:	86 d5       	rcall	.+2828   	; 0x4e18 <fputc>
    430c:	2a 94       	dec	r2
    430e:	f5 cf       	rjmp	.-22     	; 0x42fa <vfprintf+0x1a8>
    4310:	f5 01       	movw	r30, r10
    4312:	37 fc       	sbrc	r3, 7
    4314:	85 91       	lpm	r24, Z+
    4316:	37 fe       	sbrs	r3, 7
    4318:	81 91       	ld	r24, Z+
    431a:	5f 01       	movw	r10, r30
    431c:	b6 01       	movw	r22, r12
    431e:	90 e0       	ldi	r25, 0x00	; 0
    4320:	7b d5       	rcall	.+2806   	; 0x4e18 <fputc>
    4322:	21 10       	cpse	r2, r1
    4324:	2a 94       	dec	r2
    4326:	21 e0       	ldi	r18, 0x01	; 1
    4328:	82 1a       	sub	r8, r18
    432a:	91 08       	sbc	r9, r1
    432c:	81 14       	cp	r8, r1
    432e:	91 04       	cpc	r9, r1
    4330:	79 f7       	brne	.-34     	; 0x4310 <vfprintf+0x1be>
    4332:	e1 c0       	rjmp	.+450    	; 0x44f6 <vfprintf+0x3a4>
    4334:	84 36       	cpi	r24, 0x64	; 100
    4336:	11 f0       	breq	.+4      	; 0x433c <vfprintf+0x1ea>
    4338:	89 36       	cpi	r24, 0x69	; 105
    433a:	39 f5       	brne	.+78     	; 0x438a <vfprintf+0x238>
    433c:	f8 01       	movw	r30, r16
    433e:	37 fe       	sbrs	r3, 7
    4340:	07 c0       	rjmp	.+14     	; 0x4350 <vfprintf+0x1fe>
    4342:	60 81       	ld	r22, Z
    4344:	71 81       	ldd	r23, Z+1	; 0x01
    4346:	82 81       	ldd	r24, Z+2	; 0x02
    4348:	93 81       	ldd	r25, Z+3	; 0x03
    434a:	0c 5f       	subi	r16, 0xFC	; 252
    434c:	1f 4f       	sbci	r17, 0xFF	; 255
    434e:	08 c0       	rjmp	.+16     	; 0x4360 <vfprintf+0x20e>
    4350:	60 81       	ld	r22, Z
    4352:	71 81       	ldd	r23, Z+1	; 0x01
    4354:	07 2e       	mov	r0, r23
    4356:	00 0c       	add	r0, r0
    4358:	88 0b       	sbc	r24, r24
    435a:	99 0b       	sbc	r25, r25
    435c:	0e 5f       	subi	r16, 0xFE	; 254
    435e:	1f 4f       	sbci	r17, 0xFF	; 255
    4360:	f3 2d       	mov	r31, r3
    4362:	ff 76       	andi	r31, 0x6F	; 111
    4364:	3f 2e       	mov	r3, r31
    4366:	97 ff       	sbrs	r25, 7
    4368:	09 c0       	rjmp	.+18     	; 0x437c <vfprintf+0x22a>
    436a:	90 95       	com	r25
    436c:	80 95       	com	r24
    436e:	70 95       	com	r23
    4370:	61 95       	neg	r22
    4372:	7f 4f       	sbci	r23, 0xFF	; 255
    4374:	8f 4f       	sbci	r24, 0xFF	; 255
    4376:	9f 4f       	sbci	r25, 0xFF	; 255
    4378:	f0 68       	ori	r31, 0x80	; 128
    437a:	3f 2e       	mov	r3, r31
    437c:	2a e0       	ldi	r18, 0x0A	; 10
    437e:	30 e0       	ldi	r19, 0x00	; 0
    4380:	a3 01       	movw	r20, r6
    4382:	9f d5       	rcall	.+2878   	; 0x4ec2 <__ultoa_invert>
    4384:	88 2e       	mov	r8, r24
    4386:	86 18       	sub	r8, r6
    4388:	44 c0       	rjmp	.+136    	; 0x4412 <vfprintf+0x2c0>
    438a:	85 37       	cpi	r24, 0x75	; 117
    438c:	31 f4       	brne	.+12     	; 0x439a <vfprintf+0x248>
    438e:	23 2d       	mov	r18, r3
    4390:	2f 7e       	andi	r18, 0xEF	; 239
    4392:	b2 2e       	mov	r11, r18
    4394:	2a e0       	ldi	r18, 0x0A	; 10
    4396:	30 e0       	ldi	r19, 0x00	; 0
    4398:	25 c0       	rjmp	.+74     	; 0x43e4 <vfprintf+0x292>
    439a:	93 2d       	mov	r25, r3
    439c:	99 7f       	andi	r25, 0xF9	; 249
    439e:	b9 2e       	mov	r11, r25
    43a0:	8f 36       	cpi	r24, 0x6F	; 111
    43a2:	c1 f0       	breq	.+48     	; 0x43d4 <vfprintf+0x282>
    43a4:	18 f4       	brcc	.+6      	; 0x43ac <vfprintf+0x25a>
    43a6:	88 35       	cpi	r24, 0x58	; 88
    43a8:	79 f0       	breq	.+30     	; 0x43c8 <vfprintf+0x276>
    43aa:	ae c0       	rjmp	.+348    	; 0x4508 <vfprintf+0x3b6>
    43ac:	80 37       	cpi	r24, 0x70	; 112
    43ae:	19 f0       	breq	.+6      	; 0x43b6 <vfprintf+0x264>
    43b0:	88 37       	cpi	r24, 0x78	; 120
    43b2:	21 f0       	breq	.+8      	; 0x43bc <vfprintf+0x26a>
    43b4:	a9 c0       	rjmp	.+338    	; 0x4508 <vfprintf+0x3b6>
    43b6:	e9 2f       	mov	r30, r25
    43b8:	e0 61       	ori	r30, 0x10	; 16
    43ba:	be 2e       	mov	r11, r30
    43bc:	b4 fe       	sbrs	r11, 4
    43be:	0d c0       	rjmp	.+26     	; 0x43da <vfprintf+0x288>
    43c0:	fb 2d       	mov	r31, r11
    43c2:	f4 60       	ori	r31, 0x04	; 4
    43c4:	bf 2e       	mov	r11, r31
    43c6:	09 c0       	rjmp	.+18     	; 0x43da <vfprintf+0x288>
    43c8:	34 fe       	sbrs	r3, 4
    43ca:	0a c0       	rjmp	.+20     	; 0x43e0 <vfprintf+0x28e>
    43cc:	29 2f       	mov	r18, r25
    43ce:	26 60       	ori	r18, 0x06	; 6
    43d0:	b2 2e       	mov	r11, r18
    43d2:	06 c0       	rjmp	.+12     	; 0x43e0 <vfprintf+0x28e>
    43d4:	28 e0       	ldi	r18, 0x08	; 8
    43d6:	30 e0       	ldi	r19, 0x00	; 0
    43d8:	05 c0       	rjmp	.+10     	; 0x43e4 <vfprintf+0x292>
    43da:	20 e1       	ldi	r18, 0x10	; 16
    43dc:	30 e0       	ldi	r19, 0x00	; 0
    43de:	02 c0       	rjmp	.+4      	; 0x43e4 <vfprintf+0x292>
    43e0:	20 e1       	ldi	r18, 0x10	; 16
    43e2:	32 e0       	ldi	r19, 0x02	; 2
    43e4:	f8 01       	movw	r30, r16
    43e6:	b7 fe       	sbrs	r11, 7
    43e8:	07 c0       	rjmp	.+14     	; 0x43f8 <vfprintf+0x2a6>
    43ea:	60 81       	ld	r22, Z
    43ec:	71 81       	ldd	r23, Z+1	; 0x01
    43ee:	82 81       	ldd	r24, Z+2	; 0x02
    43f0:	93 81       	ldd	r25, Z+3	; 0x03
    43f2:	0c 5f       	subi	r16, 0xFC	; 252
    43f4:	1f 4f       	sbci	r17, 0xFF	; 255
    43f6:	06 c0       	rjmp	.+12     	; 0x4404 <vfprintf+0x2b2>
    43f8:	60 81       	ld	r22, Z
    43fa:	71 81       	ldd	r23, Z+1	; 0x01
    43fc:	80 e0       	ldi	r24, 0x00	; 0
    43fe:	90 e0       	ldi	r25, 0x00	; 0
    4400:	0e 5f       	subi	r16, 0xFE	; 254
    4402:	1f 4f       	sbci	r17, 0xFF	; 255
    4404:	a3 01       	movw	r20, r6
    4406:	5d d5       	rcall	.+2746   	; 0x4ec2 <__ultoa_invert>
    4408:	88 2e       	mov	r8, r24
    440a:	86 18       	sub	r8, r6
    440c:	fb 2d       	mov	r31, r11
    440e:	ff 77       	andi	r31, 0x7F	; 127
    4410:	3f 2e       	mov	r3, r31
    4412:	36 fe       	sbrs	r3, 6
    4414:	0d c0       	rjmp	.+26     	; 0x4430 <vfprintf+0x2de>
    4416:	23 2d       	mov	r18, r3
    4418:	2e 7f       	andi	r18, 0xFE	; 254
    441a:	a2 2e       	mov	r10, r18
    441c:	89 14       	cp	r8, r9
    441e:	58 f4       	brcc	.+22     	; 0x4436 <vfprintf+0x2e4>
    4420:	34 fe       	sbrs	r3, 4
    4422:	0b c0       	rjmp	.+22     	; 0x443a <vfprintf+0x2e8>
    4424:	32 fc       	sbrc	r3, 2
    4426:	09 c0       	rjmp	.+18     	; 0x443a <vfprintf+0x2e8>
    4428:	83 2d       	mov	r24, r3
    442a:	8e 7e       	andi	r24, 0xEE	; 238
    442c:	a8 2e       	mov	r10, r24
    442e:	05 c0       	rjmp	.+10     	; 0x443a <vfprintf+0x2e8>
    4430:	b8 2c       	mov	r11, r8
    4432:	a3 2c       	mov	r10, r3
    4434:	03 c0       	rjmp	.+6      	; 0x443c <vfprintf+0x2ea>
    4436:	b8 2c       	mov	r11, r8
    4438:	01 c0       	rjmp	.+2      	; 0x443c <vfprintf+0x2ea>
    443a:	b9 2c       	mov	r11, r9
    443c:	a4 fe       	sbrs	r10, 4
    443e:	0f c0       	rjmp	.+30     	; 0x445e <vfprintf+0x30c>
    4440:	fe 01       	movw	r30, r28
    4442:	e8 0d       	add	r30, r8
    4444:	f1 1d       	adc	r31, r1
    4446:	80 81       	ld	r24, Z
    4448:	80 33       	cpi	r24, 0x30	; 48
    444a:	21 f4       	brne	.+8      	; 0x4454 <vfprintf+0x302>
    444c:	9a 2d       	mov	r25, r10
    444e:	99 7e       	andi	r25, 0xE9	; 233
    4450:	a9 2e       	mov	r10, r25
    4452:	09 c0       	rjmp	.+18     	; 0x4466 <vfprintf+0x314>
    4454:	a2 fe       	sbrs	r10, 2
    4456:	06 c0       	rjmp	.+12     	; 0x4464 <vfprintf+0x312>
    4458:	b3 94       	inc	r11
    445a:	b3 94       	inc	r11
    445c:	04 c0       	rjmp	.+8      	; 0x4466 <vfprintf+0x314>
    445e:	8a 2d       	mov	r24, r10
    4460:	86 78       	andi	r24, 0x86	; 134
    4462:	09 f0       	breq	.+2      	; 0x4466 <vfprintf+0x314>
    4464:	b3 94       	inc	r11
    4466:	a3 fc       	sbrc	r10, 3
    4468:	10 c0       	rjmp	.+32     	; 0x448a <vfprintf+0x338>
    446a:	a0 fe       	sbrs	r10, 0
    446c:	06 c0       	rjmp	.+12     	; 0x447a <vfprintf+0x328>
    446e:	b2 14       	cp	r11, r2
    4470:	80 f4       	brcc	.+32     	; 0x4492 <vfprintf+0x340>
    4472:	28 0c       	add	r2, r8
    4474:	92 2c       	mov	r9, r2
    4476:	9b 18       	sub	r9, r11
    4478:	0d c0       	rjmp	.+26     	; 0x4494 <vfprintf+0x342>
    447a:	b2 14       	cp	r11, r2
    447c:	58 f4       	brcc	.+22     	; 0x4494 <vfprintf+0x342>
    447e:	b6 01       	movw	r22, r12
    4480:	80 e2       	ldi	r24, 0x20	; 32
    4482:	90 e0       	ldi	r25, 0x00	; 0
    4484:	c9 d4       	rcall	.+2450   	; 0x4e18 <fputc>
    4486:	b3 94       	inc	r11
    4488:	f8 cf       	rjmp	.-16     	; 0x447a <vfprintf+0x328>
    448a:	b2 14       	cp	r11, r2
    448c:	18 f4       	brcc	.+6      	; 0x4494 <vfprintf+0x342>
    448e:	2b 18       	sub	r2, r11
    4490:	02 c0       	rjmp	.+4      	; 0x4496 <vfprintf+0x344>
    4492:	98 2c       	mov	r9, r8
    4494:	21 2c       	mov	r2, r1
    4496:	a4 fe       	sbrs	r10, 4
    4498:	0f c0       	rjmp	.+30     	; 0x44b8 <vfprintf+0x366>
    449a:	b6 01       	movw	r22, r12
    449c:	80 e3       	ldi	r24, 0x30	; 48
    449e:	90 e0       	ldi	r25, 0x00	; 0
    44a0:	bb d4       	rcall	.+2422   	; 0x4e18 <fputc>
    44a2:	a2 fe       	sbrs	r10, 2
    44a4:	16 c0       	rjmp	.+44     	; 0x44d2 <vfprintf+0x380>
    44a6:	a1 fc       	sbrc	r10, 1
    44a8:	03 c0       	rjmp	.+6      	; 0x44b0 <vfprintf+0x35e>
    44aa:	88 e7       	ldi	r24, 0x78	; 120
    44ac:	90 e0       	ldi	r25, 0x00	; 0
    44ae:	02 c0       	rjmp	.+4      	; 0x44b4 <vfprintf+0x362>
    44b0:	88 e5       	ldi	r24, 0x58	; 88
    44b2:	90 e0       	ldi	r25, 0x00	; 0
    44b4:	b6 01       	movw	r22, r12
    44b6:	0c c0       	rjmp	.+24     	; 0x44d0 <vfprintf+0x37e>
    44b8:	8a 2d       	mov	r24, r10
    44ba:	86 78       	andi	r24, 0x86	; 134
    44bc:	51 f0       	breq	.+20     	; 0x44d2 <vfprintf+0x380>
    44be:	a1 fe       	sbrs	r10, 1
    44c0:	02 c0       	rjmp	.+4      	; 0x44c6 <vfprintf+0x374>
    44c2:	8b e2       	ldi	r24, 0x2B	; 43
    44c4:	01 c0       	rjmp	.+2      	; 0x44c8 <vfprintf+0x376>
    44c6:	80 e2       	ldi	r24, 0x20	; 32
    44c8:	a7 fc       	sbrc	r10, 7
    44ca:	8d e2       	ldi	r24, 0x2D	; 45
    44cc:	b6 01       	movw	r22, r12
    44ce:	90 e0       	ldi	r25, 0x00	; 0
    44d0:	a3 d4       	rcall	.+2374   	; 0x4e18 <fputc>
    44d2:	89 14       	cp	r8, r9
    44d4:	30 f4       	brcc	.+12     	; 0x44e2 <vfprintf+0x390>
    44d6:	b6 01       	movw	r22, r12
    44d8:	80 e3       	ldi	r24, 0x30	; 48
    44da:	90 e0       	ldi	r25, 0x00	; 0
    44dc:	9d d4       	rcall	.+2362   	; 0x4e18 <fputc>
    44de:	9a 94       	dec	r9
    44e0:	f8 cf       	rjmp	.-16     	; 0x44d2 <vfprintf+0x380>
    44e2:	8a 94       	dec	r8
    44e4:	f3 01       	movw	r30, r6
    44e6:	e8 0d       	add	r30, r8
    44e8:	f1 1d       	adc	r31, r1
    44ea:	80 81       	ld	r24, Z
    44ec:	b6 01       	movw	r22, r12
    44ee:	90 e0       	ldi	r25, 0x00	; 0
    44f0:	93 d4       	rcall	.+2342   	; 0x4e18 <fputc>
    44f2:	81 10       	cpse	r8, r1
    44f4:	f6 cf       	rjmp	.-20     	; 0x44e2 <vfprintf+0x390>
    44f6:	22 20       	and	r2, r2
    44f8:	09 f4       	brne	.+2      	; 0x44fc <vfprintf+0x3aa>
    44fa:	4e ce       	rjmp	.-868    	; 0x4198 <vfprintf+0x46>
    44fc:	b6 01       	movw	r22, r12
    44fe:	80 e2       	ldi	r24, 0x20	; 32
    4500:	90 e0       	ldi	r25, 0x00	; 0
    4502:	8a d4       	rcall	.+2324   	; 0x4e18 <fputc>
    4504:	2a 94       	dec	r2
    4506:	f7 cf       	rjmp	.-18     	; 0x44f6 <vfprintf+0x3a4>
    4508:	f6 01       	movw	r30, r12
    450a:	86 81       	ldd	r24, Z+6	; 0x06
    450c:	97 81       	ldd	r25, Z+7	; 0x07
    450e:	02 c0       	rjmp	.+4      	; 0x4514 <vfprintf+0x3c2>
    4510:	8f ef       	ldi	r24, 0xFF	; 255
    4512:	9f ef       	ldi	r25, 0xFF	; 255
    4514:	2b 96       	adiw	r28, 0x0b	; 11
    4516:	cd bf       	out	0x3d, r28	; 61
    4518:	de bf       	out	0x3e, r29	; 62
    451a:	df 91       	pop	r29
    451c:	cf 91       	pop	r28
    451e:	1f 91       	pop	r17
    4520:	0f 91       	pop	r16
    4522:	ff 90       	pop	r15
    4524:	ef 90       	pop	r14
    4526:	df 90       	pop	r13
    4528:	cf 90       	pop	r12
    452a:	bf 90       	pop	r11
    452c:	af 90       	pop	r10
    452e:	9f 90       	pop	r9
    4530:	8f 90       	pop	r8
    4532:	7f 90       	pop	r7
    4534:	6f 90       	pop	r6
    4536:	5f 90       	pop	r5
    4538:	4f 90       	pop	r4
    453a:	3f 90       	pop	r3
    453c:	2f 90       	pop	r2
    453e:	08 95       	ret

00004540 <putval>:
    4540:	20 fd       	sbrc	r18, 0
    4542:	09 c0       	rjmp	.+18     	; 0x4556 <putval+0x16>
    4544:	fc 01       	movw	r30, r24
    4546:	23 fd       	sbrc	r18, 3
    4548:	05 c0       	rjmp	.+10     	; 0x4554 <putval+0x14>
    454a:	22 ff       	sbrs	r18, 2
    454c:	02 c0       	rjmp	.+4      	; 0x4552 <putval+0x12>
    454e:	73 83       	std	Z+3, r23	; 0x03
    4550:	62 83       	std	Z+2, r22	; 0x02
    4552:	51 83       	std	Z+1, r21	; 0x01
    4554:	40 83       	st	Z, r20
    4556:	08 95       	ret

00004558 <mulacc>:
    4558:	44 fd       	sbrc	r20, 4
    455a:	17 c0       	rjmp	.+46     	; 0x458a <mulacc+0x32>
    455c:	46 fd       	sbrc	r20, 6
    455e:	17 c0       	rjmp	.+46     	; 0x458e <mulacc+0x36>
    4560:	ab 01       	movw	r20, r22
    4562:	bc 01       	movw	r22, r24
    4564:	da 01       	movw	r26, r20
    4566:	fb 01       	movw	r30, r22
    4568:	aa 0f       	add	r26, r26
    456a:	bb 1f       	adc	r27, r27
    456c:	ee 1f       	adc	r30, r30
    456e:	ff 1f       	adc	r31, r31
    4570:	10 94       	com	r1
    4572:	d1 f7       	brne	.-12     	; 0x4568 <mulacc+0x10>
    4574:	4a 0f       	add	r20, r26
    4576:	5b 1f       	adc	r21, r27
    4578:	6e 1f       	adc	r22, r30
    457a:	7f 1f       	adc	r23, r31
    457c:	cb 01       	movw	r24, r22
    457e:	ba 01       	movw	r22, r20
    4580:	66 0f       	add	r22, r22
    4582:	77 1f       	adc	r23, r23
    4584:	88 1f       	adc	r24, r24
    4586:	99 1f       	adc	r25, r25
    4588:	09 c0       	rjmp	.+18     	; 0x459c <mulacc+0x44>
    458a:	33 e0       	ldi	r19, 0x03	; 3
    458c:	01 c0       	rjmp	.+2      	; 0x4590 <mulacc+0x38>
    458e:	34 e0       	ldi	r19, 0x04	; 4
    4590:	66 0f       	add	r22, r22
    4592:	77 1f       	adc	r23, r23
    4594:	88 1f       	adc	r24, r24
    4596:	99 1f       	adc	r25, r25
    4598:	31 50       	subi	r19, 0x01	; 1
    459a:	d1 f7       	brne	.-12     	; 0x4590 <mulacc+0x38>
    459c:	62 0f       	add	r22, r18
    459e:	71 1d       	adc	r23, r1
    45a0:	81 1d       	adc	r24, r1
    45a2:	91 1d       	adc	r25, r1
    45a4:	08 95       	ret

000045a6 <skip_spaces>:
    45a6:	0f 93       	push	r16
    45a8:	1f 93       	push	r17
    45aa:	cf 93       	push	r28
    45ac:	df 93       	push	r29
    45ae:	8c 01       	movw	r16, r24
    45b0:	c8 01       	movw	r24, r16
    45b2:	f4 d3       	rcall	.+2024   	; 0x4d9c <fgetc>
    45b4:	ec 01       	movw	r28, r24
    45b6:	97 fd       	sbrc	r25, 7
    45b8:	06 c0       	rjmp	.+12     	; 0x45c6 <skip_spaces+0x20>
    45ba:	c0 d3       	rcall	.+1920   	; 0x4d3c <isspace>
    45bc:	89 2b       	or	r24, r25
    45be:	c1 f7       	brne	.-16     	; 0x45b0 <skip_spaces+0xa>
    45c0:	b8 01       	movw	r22, r16
    45c2:	ce 01       	movw	r24, r28
    45c4:	65 d4       	rcall	.+2250   	; 0x4e90 <ungetc>
    45c6:	ce 01       	movw	r24, r28
    45c8:	df 91       	pop	r29
    45ca:	cf 91       	pop	r28
    45cc:	1f 91       	pop	r17
    45ce:	0f 91       	pop	r16
    45d0:	08 95       	ret

000045d2 <conv_int>:
    45d2:	8f 92       	push	r8
    45d4:	9f 92       	push	r9
    45d6:	af 92       	push	r10
    45d8:	bf 92       	push	r11
    45da:	ef 92       	push	r14
    45dc:	ff 92       	push	r15
    45de:	0f 93       	push	r16
    45e0:	1f 93       	push	r17
    45e2:	cf 93       	push	r28
    45e4:	df 93       	push	r29
    45e6:	8c 01       	movw	r16, r24
    45e8:	d6 2f       	mov	r29, r22
    45ea:	7a 01       	movw	r14, r20
    45ec:	b2 2e       	mov	r11, r18
    45ee:	d6 d3       	rcall	.+1964   	; 0x4d9c <fgetc>
    45f0:	9c 01       	movw	r18, r24
    45f2:	33 27       	eor	r19, r19
    45f4:	2b 32       	cpi	r18, 0x2B	; 43
    45f6:	31 05       	cpc	r19, r1
    45f8:	31 f0       	breq	.+12     	; 0x4606 <conv_int+0x34>
    45fa:	2d 32       	cpi	r18, 0x2D	; 45
    45fc:	31 05       	cpc	r19, r1
    45fe:	59 f4       	brne	.+22     	; 0x4616 <conv_int+0x44>
    4600:	8b 2d       	mov	r24, r11
    4602:	80 68       	ori	r24, 0x80	; 128
    4604:	b8 2e       	mov	r11, r24
    4606:	d1 50       	subi	r29, 0x01	; 1
    4608:	11 f4       	brne	.+4      	; 0x460e <conv_int+0x3c>
    460a:	80 e0       	ldi	r24, 0x00	; 0
    460c:	61 c0       	rjmp	.+194    	; 0x46d0 <conv_int+0xfe>
    460e:	c8 01       	movw	r24, r16
    4610:	c5 d3       	rcall	.+1930   	; 0x4d9c <fgetc>
    4612:	97 fd       	sbrc	r25, 7
    4614:	fa cf       	rjmp	.-12     	; 0x460a <conv_int+0x38>
    4616:	cb 2d       	mov	r28, r11
    4618:	cd 7f       	andi	r28, 0xFD	; 253
    461a:	2b 2d       	mov	r18, r11
    461c:	20 73       	andi	r18, 0x30	; 48
    461e:	f9 f4       	brne	.+62     	; 0x465e <conv_int+0x8c>
    4620:	80 33       	cpi	r24, 0x30	; 48
    4622:	e9 f4       	brne	.+58     	; 0x465e <conv_int+0x8c>
    4624:	aa 24       	eor	r10, r10
    4626:	aa 94       	dec	r10
    4628:	ad 0e       	add	r10, r29
    462a:	09 f4       	brne	.+2      	; 0x462e <conv_int+0x5c>
    462c:	3e c0       	rjmp	.+124    	; 0x46aa <conv_int+0xd8>
    462e:	c8 01       	movw	r24, r16
    4630:	b5 d3       	rcall	.+1898   	; 0x4d9c <fgetc>
    4632:	97 fd       	sbrc	r25, 7
    4634:	3a c0       	rjmp	.+116    	; 0x46aa <conv_int+0xd8>
    4636:	9c 01       	movw	r18, r24
    4638:	2f 7d       	andi	r18, 0xDF	; 223
    463a:	33 27       	eor	r19, r19
    463c:	28 35       	cpi	r18, 0x58	; 88
    463e:	31 05       	cpc	r19, r1
    4640:	41 f4       	brne	.+16     	; 0x4652 <conv_int+0x80>
    4642:	c2 64       	ori	r28, 0x42	; 66
    4644:	d2 50       	subi	r29, 0x02	; 2
    4646:	89 f1       	breq	.+98     	; 0x46aa <conv_int+0xd8>
    4648:	c8 01       	movw	r24, r16
    464a:	a8 d3       	rcall	.+1872   	; 0x4d9c <fgetc>
    464c:	97 ff       	sbrs	r25, 7
    464e:	07 c0       	rjmp	.+14     	; 0x465e <conv_int+0x8c>
    4650:	2c c0       	rjmp	.+88     	; 0x46aa <conv_int+0xd8>
    4652:	b6 fe       	sbrs	r11, 6
    4654:	02 c0       	rjmp	.+4      	; 0x465a <conv_int+0x88>
    4656:	c2 60       	ori	r28, 0x02	; 2
    4658:	01 c0       	rjmp	.+2      	; 0x465c <conv_int+0x8a>
    465a:	c2 61       	ori	r28, 0x12	; 18
    465c:	da 2d       	mov	r29, r10
    465e:	81 2c       	mov	r8, r1
    4660:	91 2c       	mov	r9, r1
    4662:	54 01       	movw	r10, r8
    4664:	20 ed       	ldi	r18, 0xD0	; 208
    4666:	28 0f       	add	r18, r24
    4668:	28 30       	cpi	r18, 0x08	; 8
    466a:	78 f0       	brcs	.+30     	; 0x468a <conv_int+0xb8>
    466c:	c4 ff       	sbrs	r28, 4
    466e:	03 c0       	rjmp	.+6      	; 0x4676 <conv_int+0xa4>
    4670:	b8 01       	movw	r22, r16
    4672:	0e d4       	rcall	.+2076   	; 0x4e90 <ungetc>
    4674:	17 c0       	rjmp	.+46     	; 0x46a4 <conv_int+0xd2>
    4676:	2a 30       	cpi	r18, 0x0A	; 10
    4678:	40 f0       	brcs	.+16     	; 0x468a <conv_int+0xb8>
    467a:	c6 ff       	sbrs	r28, 6
    467c:	f9 cf       	rjmp	.-14     	; 0x4670 <conv_int+0x9e>
    467e:	2f 7d       	andi	r18, 0xDF	; 223
    4680:	3f ee       	ldi	r19, 0xEF	; 239
    4682:	32 0f       	add	r19, r18
    4684:	36 30       	cpi	r19, 0x06	; 6
    4686:	a0 f7       	brcc	.-24     	; 0x4670 <conv_int+0x9e>
    4688:	27 50       	subi	r18, 0x07	; 7
    468a:	4c 2f       	mov	r20, r28
    468c:	c5 01       	movw	r24, r10
    468e:	b4 01       	movw	r22, r8
    4690:	63 df       	rcall	.-314    	; 0x4558 <mulacc>
    4692:	4b 01       	movw	r8, r22
    4694:	5c 01       	movw	r10, r24
    4696:	c2 60       	ori	r28, 0x02	; 2
    4698:	d1 50       	subi	r29, 0x01	; 1
    469a:	51 f0       	breq	.+20     	; 0x46b0 <conv_int+0xde>
    469c:	c8 01       	movw	r24, r16
    469e:	7e d3       	rcall	.+1788   	; 0x4d9c <fgetc>
    46a0:	97 ff       	sbrs	r25, 7
    46a2:	e0 cf       	rjmp	.-64     	; 0x4664 <conv_int+0x92>
    46a4:	c1 fd       	sbrc	r28, 1
    46a6:	04 c0       	rjmp	.+8      	; 0x46b0 <conv_int+0xde>
    46a8:	b0 cf       	rjmp	.-160    	; 0x460a <conv_int+0x38>
    46aa:	81 2c       	mov	r8, r1
    46ac:	91 2c       	mov	r9, r1
    46ae:	54 01       	movw	r10, r8
    46b0:	c7 ff       	sbrs	r28, 7
    46b2:	08 c0       	rjmp	.+16     	; 0x46c4 <conv_int+0xf2>
    46b4:	b0 94       	com	r11
    46b6:	a0 94       	com	r10
    46b8:	90 94       	com	r9
    46ba:	80 94       	com	r8
    46bc:	81 1c       	adc	r8, r1
    46be:	91 1c       	adc	r9, r1
    46c0:	a1 1c       	adc	r10, r1
    46c2:	b1 1c       	adc	r11, r1
    46c4:	2c 2f       	mov	r18, r28
    46c6:	b5 01       	movw	r22, r10
    46c8:	a4 01       	movw	r20, r8
    46ca:	c7 01       	movw	r24, r14
    46cc:	39 df       	rcall	.-398    	; 0x4540 <putval>
    46ce:	81 e0       	ldi	r24, 0x01	; 1
    46d0:	df 91       	pop	r29
    46d2:	cf 91       	pop	r28
    46d4:	1f 91       	pop	r17
    46d6:	0f 91       	pop	r16
    46d8:	ff 90       	pop	r15
    46da:	ef 90       	pop	r14
    46dc:	bf 90       	pop	r11
    46de:	af 90       	pop	r10
    46e0:	9f 90       	pop	r9
    46e2:	8f 90       	pop	r8
    46e4:	08 95       	ret

000046e6 <conv_brk>:
    46e6:	5f 92       	push	r5
    46e8:	6f 92       	push	r6
    46ea:	7f 92       	push	r7
    46ec:	8f 92       	push	r8
    46ee:	9f 92       	push	r9
    46f0:	af 92       	push	r10
    46f2:	bf 92       	push	r11
    46f4:	cf 92       	push	r12
    46f6:	df 92       	push	r13
    46f8:	ef 92       	push	r14
    46fa:	ff 92       	push	r15
    46fc:	0f 93       	push	r16
    46fe:	1f 93       	push	r17
    4700:	cf 93       	push	r28
    4702:	df 93       	push	r29
    4704:	cd b7       	in	r28, 0x3d	; 61
    4706:	de b7       	in	r29, 0x3e	; 62
    4708:	a0 97       	sbiw	r28, 0x20	; 32
    470a:	cd bf       	out	0x3d, r28	; 61
    470c:	de bf       	out	0x3e, r29	; 62
    470e:	5c 01       	movw	r10, r24
    4710:	96 2e       	mov	r9, r22
    4712:	7a 01       	movw	r14, r20
    4714:	f9 01       	movw	r30, r18
    4716:	8e 01       	movw	r16, r28
    4718:	0f 5f       	subi	r16, 0xFF	; 255
    471a:	1f 4f       	sbci	r17, 0xFF	; 255
    471c:	68 01       	movw	r12, r16
    471e:	80 e2       	ldi	r24, 0x20	; 32
    4720:	d8 01       	movw	r26, r16
    4722:	1d 92       	st	X+, r1
    4724:	8a 95       	dec	r24
    4726:	e9 f7       	brne	.-6      	; 0x4722 <conv_brk+0x3c>
    4728:	d5 01       	movw	r26, r10
    472a:	13 96       	adiw	r26, 0x03	; 3
    472c:	8c 90       	ld	r8, X
    472e:	80 e0       	ldi	r24, 0x00	; 0
    4730:	90 e0       	ldi	r25, 0x00	; 0
    4732:	61 2c       	mov	r6, r1
    4734:	71 2c       	mov	r7, r1
    4736:	30 e0       	ldi	r19, 0x00	; 0
    4738:	61 e0       	ldi	r22, 0x01	; 1
    473a:	70 e0       	ldi	r23, 0x00	; 0
    473c:	83 fc       	sbrc	r8, 3
    473e:	25 91       	lpm	r18, Z+
    4740:	83 fe       	sbrs	r8, 3
    4742:	21 91       	ld	r18, Z+
    4744:	8f 01       	movw	r16, r30
    4746:	52 2e       	mov	r5, r18
    4748:	21 11       	cpse	r18, r1
    474a:	03 c0       	rjmp	.+6      	; 0x4752 <conv_brk+0x6c>
    474c:	80 e0       	ldi	r24, 0x00	; 0
    474e:	90 e0       	ldi	r25, 0x00	; 0
    4750:	90 c0       	rjmp	.+288    	; 0x4872 <conv_brk+0x18c>
    4752:	2e 35       	cpi	r18, 0x5E	; 94
    4754:	11 f4       	brne	.+4      	; 0x475a <conv_brk+0x74>
    4756:	00 97       	sbiw	r24, 0x00	; 0
    4758:	51 f1       	breq	.+84     	; 0x47ae <conv_brk+0xc8>
    475a:	43 2f       	mov	r20, r19
    475c:	50 e0       	ldi	r21, 0x00	; 0
    475e:	48 17       	cp	r20, r24
    4760:	59 07       	cpc	r21, r25
    4762:	3c f4       	brge	.+14     	; 0x4772 <conv_brk+0x8c>
    4764:	2d 35       	cpi	r18, 0x5D	; 93
    4766:	59 f1       	breq	.+86     	; 0x47be <conv_brk+0xd8>
    4768:	2d 32       	cpi	r18, 0x2D	; 45
    476a:	19 f4       	brne	.+6      	; 0x4772 <conv_brk+0x8c>
    476c:	77 20       	and	r7, r7
    476e:	09 f1       	breq	.+66     	; 0x47b2 <conv_brk+0xcc>
    4770:	03 c0       	rjmp	.+6      	; 0x4778 <conv_brk+0x92>
    4772:	77 20       	and	r7, r7
    4774:	09 f4       	brne	.+2      	; 0x4778 <conv_brk+0x92>
    4776:	68 c0       	rjmp	.+208    	; 0x4848 <conv_brk+0x162>
    4778:	45 2d       	mov	r20, r5
    477a:	46 95       	lsr	r20
    477c:	46 95       	lsr	r20
    477e:	46 95       	lsr	r20
    4780:	d6 01       	movw	r26, r12
    4782:	a4 0f       	add	r26, r20
    4784:	b1 1d       	adc	r27, r1
    4786:	45 2d       	mov	r20, r5
    4788:	47 70       	andi	r20, 0x07	; 7
    478a:	8b 01       	movw	r16, r22
    478c:	02 c0       	rjmp	.+4      	; 0x4792 <conv_brk+0xac>
    478e:	00 0f       	add	r16, r16
    4790:	11 1f       	adc	r17, r17
    4792:	4a 95       	dec	r20
    4794:	e2 f7       	brpl	.-8      	; 0x478e <conv_brk+0xa8>
    4796:	a8 01       	movw	r20, r16
    4798:	5c 91       	ld	r21, X
    479a:	45 2b       	or	r20, r21
    479c:	4c 93       	st	X, r20
    479e:	65 14       	cp	r6, r5
    47a0:	59 f0       	breq	.+22     	; 0x47b8 <conv_brk+0xd2>
    47a2:	56 14       	cp	r5, r6
    47a4:	10 f4       	brcc	.+4      	; 0x47aa <conv_brk+0xc4>
    47a6:	53 94       	inc	r5
    47a8:	e7 cf       	rjmp	.-50     	; 0x4778 <conv_brk+0x92>
    47aa:	5a 94       	dec	r5
    47ac:	e5 cf       	rjmp	.-54     	; 0x4778 <conv_brk+0x92>
    47ae:	31 e0       	ldi	r19, 0x01	; 1
    47b0:	04 c0       	rjmp	.+8      	; 0x47ba <conv_brk+0xd4>
    47b2:	77 24       	eor	r7, r7
    47b4:	73 94       	inc	r7
    47b6:	01 c0       	rjmp	.+2      	; 0x47ba <conv_brk+0xd4>
    47b8:	71 2c       	mov	r7, r1
    47ba:	01 96       	adiw	r24, 0x01	; 1
    47bc:	bf cf       	rjmp	.-130    	; 0x473c <conv_brk+0x56>
    47be:	77 20       	and	r7, r7
    47c0:	19 f0       	breq	.+6      	; 0x47c8 <conv_brk+0xe2>
    47c2:	8e 81       	ldd	r24, Y+6	; 0x06
    47c4:	80 62       	ori	r24, 0x20	; 32
    47c6:	8e 83       	std	Y+6, r24	; 0x06
    47c8:	31 11       	cpse	r19, r1
    47ca:	03 c0       	rjmp	.+6      	; 0x47d2 <conv_brk+0xec>
    47cc:	88 24       	eor	r8, r8
    47ce:	83 94       	inc	r8
    47d0:	17 c0       	rjmp	.+46     	; 0x4800 <conv_brk+0x11a>
    47d2:	f6 01       	movw	r30, r12
    47d4:	9e 01       	movw	r18, r28
    47d6:	2f 5d       	subi	r18, 0xDF	; 223
    47d8:	3f 4f       	sbci	r19, 0xFF	; 255
    47da:	80 81       	ld	r24, Z
    47dc:	80 95       	com	r24
    47de:	81 93       	st	Z+, r24
    47e0:	2e 17       	cp	r18, r30
    47e2:	3f 07       	cpc	r19, r31
    47e4:	d1 f7       	brne	.-12     	; 0x47da <conv_brk+0xf4>
    47e6:	f2 cf       	rjmp	.-28     	; 0x47cc <conv_brk+0xe6>
    47e8:	e1 14       	cp	r14, r1
    47ea:	f1 04       	cpc	r15, r1
    47ec:	29 f0       	breq	.+10     	; 0x47f8 <conv_brk+0x112>
    47ee:	d7 01       	movw	r26, r14
    47f0:	8c 93       	st	X, r24
    47f2:	f7 01       	movw	r30, r14
    47f4:	31 96       	adiw	r30, 0x01	; 1
    47f6:	7f 01       	movw	r14, r30
    47f8:	9a 94       	dec	r9
    47fa:	81 2c       	mov	r8, r1
    47fc:	99 20       	and	r9, r9
    47fe:	e9 f0       	breq	.+58     	; 0x483a <conv_brk+0x154>
    4800:	c5 01       	movw	r24, r10
    4802:	cc d2       	rcall	.+1432   	; 0x4d9c <fgetc>
    4804:	97 fd       	sbrc	r25, 7
    4806:	17 c0       	rjmp	.+46     	; 0x4836 <conv_brk+0x150>
    4808:	fc 01       	movw	r30, r24
    480a:	ff 27       	eor	r31, r31
    480c:	23 e0       	ldi	r18, 0x03	; 3
    480e:	f5 95       	asr	r31
    4810:	e7 95       	ror	r30
    4812:	2a 95       	dec	r18
    4814:	e1 f7       	brne	.-8      	; 0x480e <conv_brk+0x128>
    4816:	ec 0d       	add	r30, r12
    4818:	fd 1d       	adc	r31, r13
    481a:	20 81       	ld	r18, Z
    481c:	30 e0       	ldi	r19, 0x00	; 0
    481e:	ac 01       	movw	r20, r24
    4820:	47 70       	andi	r20, 0x07	; 7
    4822:	55 27       	eor	r21, r21
    4824:	02 c0       	rjmp	.+4      	; 0x482a <conv_brk+0x144>
    4826:	35 95       	asr	r19
    4828:	27 95       	ror	r18
    482a:	4a 95       	dec	r20
    482c:	e2 f7       	brpl	.-8      	; 0x4826 <conv_brk+0x140>
    482e:	20 fd       	sbrc	r18, 0
    4830:	db cf       	rjmp	.-74     	; 0x47e8 <conv_brk+0x102>
    4832:	b5 01       	movw	r22, r10
    4834:	2d d3       	rcall	.+1626   	; 0x4e90 <ungetc>
    4836:	81 10       	cpse	r8, r1
    4838:	89 cf       	rjmp	.-238    	; 0x474c <conv_brk+0x66>
    483a:	e1 14       	cp	r14, r1
    483c:	f1 04       	cpc	r15, r1
    483e:	11 f0       	breq	.+4      	; 0x4844 <conv_brk+0x15e>
    4840:	d7 01       	movw	r26, r14
    4842:	1c 92       	st	X, r1
    4844:	c8 01       	movw	r24, r16
    4846:	15 c0       	rjmp	.+42     	; 0x4872 <conv_brk+0x18c>
    4848:	42 2f       	mov	r20, r18
    484a:	46 95       	lsr	r20
    484c:	46 95       	lsr	r20
    484e:	46 95       	lsr	r20
    4850:	d6 01       	movw	r26, r12
    4852:	a4 0f       	add	r26, r20
    4854:	b1 1d       	adc	r27, r1
    4856:	42 2f       	mov	r20, r18
    4858:	47 70       	andi	r20, 0x07	; 7
    485a:	8b 01       	movw	r16, r22
    485c:	02 c0       	rjmp	.+4      	; 0x4862 <conv_brk+0x17c>
    485e:	00 0f       	add	r16, r16
    4860:	11 1f       	adc	r17, r17
    4862:	4a 95       	dec	r20
    4864:	e2 f7       	brpl	.-8      	; 0x485e <conv_brk+0x178>
    4866:	a8 01       	movw	r20, r16
    4868:	5c 91       	ld	r21, X
    486a:	45 2b       	or	r20, r21
    486c:	4c 93       	st	X, r20
    486e:	62 2e       	mov	r6, r18
    4870:	a4 cf       	rjmp	.-184    	; 0x47ba <conv_brk+0xd4>
    4872:	a0 96       	adiw	r28, 0x20	; 32
    4874:	cd bf       	out	0x3d, r28	; 61
    4876:	de bf       	out	0x3e, r29	; 62
    4878:	df 91       	pop	r29
    487a:	cf 91       	pop	r28
    487c:	1f 91       	pop	r17
    487e:	0f 91       	pop	r16
    4880:	ff 90       	pop	r15
    4882:	ef 90       	pop	r14
    4884:	df 90       	pop	r13
    4886:	cf 90       	pop	r12
    4888:	bf 90       	pop	r11
    488a:	af 90       	pop	r10
    488c:	9f 90       	pop	r9
    488e:	8f 90       	pop	r8
    4890:	7f 90       	pop	r7
    4892:	6f 90       	pop	r6
    4894:	5f 90       	pop	r5
    4896:	08 95       	ret

00004898 <vfscanf>:
    4898:	5f 92       	push	r5
    489a:	6f 92       	push	r6
    489c:	7f 92       	push	r7
    489e:	8f 92       	push	r8
    48a0:	9f 92       	push	r9
    48a2:	af 92       	push	r10
    48a4:	bf 92       	push	r11
    48a6:	cf 92       	push	r12
    48a8:	df 92       	push	r13
    48aa:	ef 92       	push	r14
    48ac:	ff 92       	push	r15
    48ae:	0f 93       	push	r16
    48b0:	1f 93       	push	r17
    48b2:	cf 93       	push	r28
    48b4:	df 93       	push	r29
    48b6:	6c 01       	movw	r12, r24
    48b8:	eb 01       	movw	r28, r22
    48ba:	5a 01       	movw	r10, r20
    48bc:	fc 01       	movw	r30, r24
    48be:	16 82       	std	Z+6, r1	; 0x06
    48c0:	17 82       	std	Z+7, r1	; 0x07
    48c2:	51 2c       	mov	r5, r1
    48c4:	f6 01       	movw	r30, r12
    48c6:	e3 80       	ldd	r14, Z+3	; 0x03
    48c8:	fe 01       	movw	r30, r28
    48ca:	e3 fc       	sbrc	r14, 3
    48cc:	85 91       	lpm	r24, Z+
    48ce:	e3 fe       	sbrs	r14, 3
    48d0:	81 91       	ld	r24, Z+
    48d2:	18 2f       	mov	r17, r24
    48d4:	ef 01       	movw	r28, r30
    48d6:	88 23       	and	r24, r24
    48d8:	09 f4       	brne	.+2      	; 0x48dc <vfscanf+0x44>
    48da:	e0 c0       	rjmp	.+448    	; 0x4a9c <vfscanf+0x204>
    48dc:	90 e0       	ldi	r25, 0x00	; 0
    48de:	2e d2       	rcall	.+1116   	; 0x4d3c <isspace>
    48e0:	89 2b       	or	r24, r25
    48e2:	19 f0       	breq	.+6      	; 0x48ea <vfscanf+0x52>
    48e4:	c6 01       	movw	r24, r12
    48e6:	5f de       	rcall	.-834    	; 0x45a6 <skip_spaces>
    48e8:	ed cf       	rjmp	.-38     	; 0x48c4 <vfscanf+0x2c>
    48ea:	15 32       	cpi	r17, 0x25	; 37
    48ec:	41 f4       	brne	.+16     	; 0x48fe <vfscanf+0x66>
    48ee:	fe 01       	movw	r30, r28
    48f0:	e3 fc       	sbrc	r14, 3
    48f2:	15 91       	lpm	r17, Z+
    48f4:	e3 fe       	sbrs	r14, 3
    48f6:	11 91       	ld	r17, Z+
    48f8:	ef 01       	movw	r28, r30
    48fa:	15 32       	cpi	r17, 0x25	; 37
    48fc:	71 f4       	brne	.+28     	; 0x491a <vfscanf+0x82>
    48fe:	c6 01       	movw	r24, r12
    4900:	4d d2       	rcall	.+1178   	; 0x4d9c <fgetc>
    4902:	97 fd       	sbrc	r25, 7
    4904:	c9 c0       	rjmp	.+402    	; 0x4a98 <vfscanf+0x200>
    4906:	41 2f       	mov	r20, r17
    4908:	50 e0       	ldi	r21, 0x00	; 0
    490a:	9c 01       	movw	r18, r24
    490c:	33 27       	eor	r19, r19
    490e:	24 17       	cp	r18, r20
    4910:	35 07       	cpc	r19, r21
    4912:	c1 f2       	breq	.-80     	; 0x48c4 <vfscanf+0x2c>
    4914:	b6 01       	movw	r22, r12
    4916:	bc d2       	rcall	.+1400   	; 0x4e90 <ungetc>
    4918:	c1 c0       	rjmp	.+386    	; 0x4a9c <vfscanf+0x204>
    491a:	1a 32       	cpi	r17, 0x2A	; 42
    491c:	39 f4       	brne	.+14     	; 0x492c <vfscanf+0x94>
    491e:	e3 fc       	sbrc	r14, 3
    4920:	15 91       	lpm	r17, Z+
    4922:	e3 fe       	sbrs	r14, 3
    4924:	11 91       	ld	r17, Z+
    4926:	ef 01       	movw	r28, r30
    4928:	01 e0       	ldi	r16, 0x01	; 1
    492a:	01 c0       	rjmp	.+2      	; 0x492e <vfscanf+0x96>
    492c:	00 e0       	ldi	r16, 0x00	; 0
    492e:	f1 2c       	mov	r15, r1
    4930:	20 ed       	ldi	r18, 0xD0	; 208
    4932:	21 0f       	add	r18, r17
    4934:	2a 30       	cpi	r18, 0x0A	; 10
    4936:	78 f4       	brcc	.+30     	; 0x4956 <vfscanf+0xbe>
    4938:	02 60       	ori	r16, 0x02	; 2
    493a:	6f 2d       	mov	r22, r15
    493c:	70 e0       	ldi	r23, 0x00	; 0
    493e:	80 e0       	ldi	r24, 0x00	; 0
    4940:	90 e0       	ldi	r25, 0x00	; 0
    4942:	40 e2       	ldi	r20, 0x20	; 32
    4944:	09 de       	rcall	.-1006   	; 0x4558 <mulacc>
    4946:	f6 2e       	mov	r15, r22
    4948:	fe 01       	movw	r30, r28
    494a:	e3 fc       	sbrc	r14, 3
    494c:	15 91       	lpm	r17, Z+
    494e:	e3 fe       	sbrs	r14, 3
    4950:	11 91       	ld	r17, Z+
    4952:	ef 01       	movw	r28, r30
    4954:	ed cf       	rjmp	.-38     	; 0x4930 <vfscanf+0x98>
    4956:	01 ff       	sbrs	r16, 1
    4958:	03 c0       	rjmp	.+6      	; 0x4960 <vfscanf+0xc8>
    495a:	f1 10       	cpse	r15, r1
    495c:	03 c0       	rjmp	.+6      	; 0x4964 <vfscanf+0xcc>
    495e:	9e c0       	rjmp	.+316    	; 0x4a9c <vfscanf+0x204>
    4960:	ff 24       	eor	r15, r15
    4962:	fa 94       	dec	r15
    4964:	18 36       	cpi	r17, 0x68	; 104
    4966:	19 f0       	breq	.+6      	; 0x496e <vfscanf+0xd6>
    4968:	1c 36       	cpi	r17, 0x6C	; 108
    496a:	51 f0       	breq	.+20     	; 0x4980 <vfscanf+0xe8>
    496c:	10 c0       	rjmp	.+32     	; 0x498e <vfscanf+0xf6>
    496e:	fe 01       	movw	r30, r28
    4970:	e3 fc       	sbrc	r14, 3
    4972:	15 91       	lpm	r17, Z+
    4974:	e3 fe       	sbrs	r14, 3
    4976:	11 91       	ld	r17, Z+
    4978:	ef 01       	movw	r28, r30
    497a:	18 36       	cpi	r17, 0x68	; 104
    497c:	41 f4       	brne	.+16     	; 0x498e <vfscanf+0xf6>
    497e:	08 60       	ori	r16, 0x08	; 8
    4980:	04 60       	ori	r16, 0x04	; 4
    4982:	fe 01       	movw	r30, r28
    4984:	e3 fc       	sbrc	r14, 3
    4986:	15 91       	lpm	r17, Z+
    4988:	e3 fe       	sbrs	r14, 3
    498a:	11 91       	ld	r17, Z+
    498c:	ef 01       	movw	r28, r30
    498e:	11 23       	and	r17, r17
    4990:	09 f4       	brne	.+2      	; 0x4994 <vfscanf+0xfc>
    4992:	84 c0       	rjmp	.+264    	; 0x4a9c <vfscanf+0x204>
    4994:	61 2f       	mov	r22, r17
    4996:	70 e0       	ldi	r23, 0x00	; 0
    4998:	84 ea       	ldi	r24, 0xA4	; 164
    499a:	92 e0       	ldi	r25, 0x02	; 2
    499c:	d7 d1       	rcall	.+942    	; 0x4d4c <strchr_P>
    499e:	89 2b       	or	r24, r25
    49a0:	09 f4       	brne	.+2      	; 0x49a4 <vfscanf+0x10c>
    49a2:	7c c0       	rjmp	.+248    	; 0x4a9c <vfscanf+0x204>
    49a4:	00 fd       	sbrc	r16, 0
    49a6:	07 c0       	rjmp	.+14     	; 0x49b6 <vfscanf+0x11e>
    49a8:	f5 01       	movw	r30, r10
    49aa:	80 80       	ld	r8, Z
    49ac:	91 80       	ldd	r9, Z+1	; 0x01
    49ae:	c5 01       	movw	r24, r10
    49b0:	02 96       	adiw	r24, 0x02	; 2
    49b2:	5c 01       	movw	r10, r24
    49b4:	02 c0       	rjmp	.+4      	; 0x49ba <vfscanf+0x122>
    49b6:	81 2c       	mov	r8, r1
    49b8:	91 2c       	mov	r9, r1
    49ba:	1e 36       	cpi	r17, 0x6E	; 110
    49bc:	49 f4       	brne	.+18     	; 0x49d0 <vfscanf+0x138>
    49be:	f6 01       	movw	r30, r12
    49c0:	46 81       	ldd	r20, Z+6	; 0x06
    49c2:	57 81       	ldd	r21, Z+7	; 0x07
    49c4:	60 e0       	ldi	r22, 0x00	; 0
    49c6:	70 e0       	ldi	r23, 0x00	; 0
    49c8:	20 2f       	mov	r18, r16
    49ca:	c4 01       	movw	r24, r8
    49cc:	b9 dd       	rcall	.-1166   	; 0x4540 <putval>
    49ce:	7a cf       	rjmp	.-268    	; 0x48c4 <vfscanf+0x2c>
    49d0:	13 36       	cpi	r17, 0x63	; 99
    49d2:	a1 f4       	brne	.+40     	; 0x49fc <vfscanf+0x164>
    49d4:	01 fd       	sbrc	r16, 1
    49d6:	02 c0       	rjmp	.+4      	; 0x49dc <vfscanf+0x144>
    49d8:	ff 24       	eor	r15, r15
    49da:	f3 94       	inc	r15
    49dc:	c6 01       	movw	r24, r12
    49de:	de d1       	rcall	.+956    	; 0x4d9c <fgetc>
    49e0:	97 fd       	sbrc	r25, 7
    49e2:	5a c0       	rjmp	.+180    	; 0x4a98 <vfscanf+0x200>
    49e4:	81 14       	cp	r8, r1
    49e6:	91 04       	cpc	r9, r1
    49e8:	29 f0       	breq	.+10     	; 0x49f4 <vfscanf+0x15c>
    49ea:	f4 01       	movw	r30, r8
    49ec:	80 83       	st	Z, r24
    49ee:	c4 01       	movw	r24, r8
    49f0:	01 96       	adiw	r24, 0x01	; 1
    49f2:	4c 01       	movw	r8, r24
    49f4:	fa 94       	dec	r15
    49f6:	f1 10       	cpse	r15, r1
    49f8:	f1 cf       	rjmp	.-30     	; 0x49dc <vfscanf+0x144>
    49fa:	4a c0       	rjmp	.+148    	; 0x4a90 <vfscanf+0x1f8>
    49fc:	1b 35       	cpi	r17, 0x5B	; 91
    49fe:	51 f4       	brne	.+20     	; 0x4a14 <vfscanf+0x17c>
    4a00:	9e 01       	movw	r18, r28
    4a02:	a4 01       	movw	r20, r8
    4a04:	6f 2d       	mov	r22, r15
    4a06:	c6 01       	movw	r24, r12
    4a08:	6e de       	rcall	.-804    	; 0x46e6 <conv_brk>
    4a0a:	ec 01       	movw	r28, r24
    4a0c:	89 2b       	or	r24, r25
    4a0e:	09 f0       	breq	.+2      	; 0x4a12 <vfscanf+0x17a>
    4a10:	3f c0       	rjmp	.+126    	; 0x4a90 <vfscanf+0x1f8>
    4a12:	39 c0       	rjmp	.+114    	; 0x4a86 <vfscanf+0x1ee>
    4a14:	c6 01       	movw	r24, r12
    4a16:	c7 dd       	rcall	.-1138   	; 0x45a6 <skip_spaces>
    4a18:	97 fd       	sbrc	r25, 7
    4a1a:	3e c0       	rjmp	.+124    	; 0x4a98 <vfscanf+0x200>
    4a1c:	1f 36       	cpi	r17, 0x6F	; 111
    4a1e:	49 f1       	breq	.+82     	; 0x4a72 <vfscanf+0x1da>
    4a20:	28 f4       	brcc	.+10     	; 0x4a2c <vfscanf+0x194>
    4a22:	14 36       	cpi	r17, 0x64	; 100
    4a24:	21 f1       	breq	.+72     	; 0x4a6e <vfscanf+0x1d6>
    4a26:	19 36       	cpi	r17, 0x69	; 105
    4a28:	39 f1       	breq	.+78     	; 0x4a78 <vfscanf+0x1e0>
    4a2a:	25 c0       	rjmp	.+74     	; 0x4a76 <vfscanf+0x1de>
    4a2c:	13 37       	cpi	r17, 0x73	; 115
    4a2e:	71 f0       	breq	.+28     	; 0x4a4c <vfscanf+0x1b4>
    4a30:	15 37       	cpi	r17, 0x75	; 117
    4a32:	e9 f0       	breq	.+58     	; 0x4a6e <vfscanf+0x1d6>
    4a34:	20 c0       	rjmp	.+64     	; 0x4a76 <vfscanf+0x1de>
    4a36:	81 14       	cp	r8, r1
    4a38:	91 04       	cpc	r9, r1
    4a3a:	29 f0       	breq	.+10     	; 0x4a46 <vfscanf+0x1ae>
    4a3c:	f4 01       	movw	r30, r8
    4a3e:	60 82       	st	Z, r6
    4a40:	c4 01       	movw	r24, r8
    4a42:	01 96       	adiw	r24, 0x01	; 1
    4a44:	4c 01       	movw	r8, r24
    4a46:	fa 94       	dec	r15
    4a48:	ff 20       	and	r15, r15
    4a4a:	59 f0       	breq	.+22     	; 0x4a62 <vfscanf+0x1ca>
    4a4c:	c6 01       	movw	r24, r12
    4a4e:	a6 d1       	rcall	.+844    	; 0x4d9c <fgetc>
    4a50:	3c 01       	movw	r6, r24
    4a52:	97 fd       	sbrc	r25, 7
    4a54:	06 c0       	rjmp	.+12     	; 0x4a62 <vfscanf+0x1ca>
    4a56:	72 d1       	rcall	.+740    	; 0x4d3c <isspace>
    4a58:	89 2b       	or	r24, r25
    4a5a:	69 f3       	breq	.-38     	; 0x4a36 <vfscanf+0x19e>
    4a5c:	b6 01       	movw	r22, r12
    4a5e:	c3 01       	movw	r24, r6
    4a60:	17 d2       	rcall	.+1070   	; 0x4e90 <ungetc>
    4a62:	81 14       	cp	r8, r1
    4a64:	91 04       	cpc	r9, r1
    4a66:	a1 f0       	breq	.+40     	; 0x4a90 <vfscanf+0x1f8>
    4a68:	f4 01       	movw	r30, r8
    4a6a:	10 82       	st	Z, r1
    4a6c:	11 c0       	rjmp	.+34     	; 0x4a90 <vfscanf+0x1f8>
    4a6e:	00 62       	ori	r16, 0x20	; 32
    4a70:	03 c0       	rjmp	.+6      	; 0x4a78 <vfscanf+0x1e0>
    4a72:	00 61       	ori	r16, 0x10	; 16
    4a74:	01 c0       	rjmp	.+2      	; 0x4a78 <vfscanf+0x1e0>
    4a76:	00 64       	ori	r16, 0x40	; 64
    4a78:	20 2f       	mov	r18, r16
    4a7a:	a4 01       	movw	r20, r8
    4a7c:	6f 2d       	mov	r22, r15
    4a7e:	c6 01       	movw	r24, r12
    4a80:	a8 dd       	rcall	.-1200   	; 0x45d2 <conv_int>
    4a82:	81 11       	cpse	r24, r1
    4a84:	05 c0       	rjmp	.+10     	; 0x4a90 <vfscanf+0x1f8>
    4a86:	f6 01       	movw	r30, r12
    4a88:	83 81       	ldd	r24, Z+3	; 0x03
    4a8a:	80 73       	andi	r24, 0x30	; 48
    4a8c:	29 f4       	brne	.+10     	; 0x4a98 <vfscanf+0x200>
    4a8e:	06 c0       	rjmp	.+12     	; 0x4a9c <vfscanf+0x204>
    4a90:	00 fd       	sbrc	r16, 0
    4a92:	18 cf       	rjmp	.-464    	; 0x48c4 <vfscanf+0x2c>
    4a94:	53 94       	inc	r5
    4a96:	16 cf       	rjmp	.-468    	; 0x48c4 <vfscanf+0x2c>
    4a98:	55 20       	and	r5, r5
    4a9a:	19 f0       	breq	.+6      	; 0x4aa2 <vfscanf+0x20a>
    4a9c:	85 2d       	mov	r24, r5
    4a9e:	90 e0       	ldi	r25, 0x00	; 0
    4aa0:	02 c0       	rjmp	.+4      	; 0x4aa6 <vfscanf+0x20e>
    4aa2:	8f ef       	ldi	r24, 0xFF	; 255
    4aa4:	9f ef       	ldi	r25, 0xFF	; 255
    4aa6:	df 91       	pop	r29
    4aa8:	cf 91       	pop	r28
    4aaa:	1f 91       	pop	r17
    4aac:	0f 91       	pop	r16
    4aae:	ff 90       	pop	r15
    4ab0:	ef 90       	pop	r14
    4ab2:	df 90       	pop	r13
    4ab4:	cf 90       	pop	r12
    4ab6:	bf 90       	pop	r11
    4ab8:	af 90       	pop	r10
    4aba:	9f 90       	pop	r9
    4abc:	8f 90       	pop	r8
    4abe:	7f 90       	pop	r7
    4ac0:	6f 90       	pop	r6
    4ac2:	5f 90       	pop	r5
    4ac4:	08 95       	ret

00004ac6 <calloc>:
    4ac6:	0f 93       	push	r16
    4ac8:	1f 93       	push	r17
    4aca:	cf 93       	push	r28
    4acc:	df 93       	push	r29
    4ace:	86 9f       	mul	r24, r22
    4ad0:	80 01       	movw	r16, r0
    4ad2:	87 9f       	mul	r24, r23
    4ad4:	10 0d       	add	r17, r0
    4ad6:	96 9f       	mul	r25, r22
    4ad8:	10 0d       	add	r17, r0
    4ada:	11 24       	eor	r1, r1
    4adc:	c8 01       	movw	r24, r16
    4ade:	0d d0       	rcall	.+26     	; 0x4afa <malloc>
    4ae0:	ec 01       	movw	r28, r24
    4ae2:	00 97       	sbiw	r24, 0x00	; 0
    4ae4:	21 f0       	breq	.+8      	; 0x4aee <calloc+0x28>
    4ae6:	a8 01       	movw	r20, r16
    4ae8:	60 e0       	ldi	r22, 0x00	; 0
    4aea:	70 e0       	ldi	r23, 0x00	; 0
    4aec:	45 d1       	rcall	.+650    	; 0x4d78 <memset>
    4aee:	ce 01       	movw	r24, r28
    4af0:	df 91       	pop	r29
    4af2:	cf 91       	pop	r28
    4af4:	1f 91       	pop	r17
    4af6:	0f 91       	pop	r16
    4af8:	08 95       	ret

00004afa <malloc>:
    4afa:	0f 93       	push	r16
    4afc:	1f 93       	push	r17
    4afe:	cf 93       	push	r28
    4b00:	df 93       	push	r29
    4b02:	82 30       	cpi	r24, 0x02	; 2
    4b04:	91 05       	cpc	r25, r1
    4b06:	10 f4       	brcc	.+4      	; 0x4b0c <malloc+0x12>
    4b08:	82 e0       	ldi	r24, 0x02	; 2
    4b0a:	90 e0       	ldi	r25, 0x00	; 0
    4b0c:	e0 91 fa 21 	lds	r30, 0x21FA	; 0x8021fa <__flp>
    4b10:	f0 91 fb 21 	lds	r31, 0x21FB	; 0x8021fb <__flp+0x1>
    4b14:	20 e0       	ldi	r18, 0x00	; 0
    4b16:	30 e0       	ldi	r19, 0x00	; 0
    4b18:	a0 e0       	ldi	r26, 0x00	; 0
    4b1a:	b0 e0       	ldi	r27, 0x00	; 0
    4b1c:	30 97       	sbiw	r30, 0x00	; 0
    4b1e:	19 f1       	breq	.+70     	; 0x4b66 <malloc+0x6c>
    4b20:	40 81       	ld	r20, Z
    4b22:	51 81       	ldd	r21, Z+1	; 0x01
    4b24:	02 81       	ldd	r16, Z+2	; 0x02
    4b26:	13 81       	ldd	r17, Z+3	; 0x03
    4b28:	48 17       	cp	r20, r24
    4b2a:	59 07       	cpc	r21, r25
    4b2c:	c8 f0       	brcs	.+50     	; 0x4b60 <malloc+0x66>
    4b2e:	84 17       	cp	r24, r20
    4b30:	95 07       	cpc	r25, r21
    4b32:	69 f4       	brne	.+26     	; 0x4b4e <malloc+0x54>
    4b34:	10 97       	sbiw	r26, 0x00	; 0
    4b36:	31 f0       	breq	.+12     	; 0x4b44 <malloc+0x4a>
    4b38:	12 96       	adiw	r26, 0x02	; 2
    4b3a:	0c 93       	st	X, r16
    4b3c:	12 97       	sbiw	r26, 0x02	; 2
    4b3e:	13 96       	adiw	r26, 0x03	; 3
    4b40:	1c 93       	st	X, r17
    4b42:	27 c0       	rjmp	.+78     	; 0x4b92 <malloc+0x98>
    4b44:	00 93 fa 21 	sts	0x21FA, r16	; 0x8021fa <__flp>
    4b48:	10 93 fb 21 	sts	0x21FB, r17	; 0x8021fb <__flp+0x1>
    4b4c:	22 c0       	rjmp	.+68     	; 0x4b92 <malloc+0x98>
    4b4e:	21 15       	cp	r18, r1
    4b50:	31 05       	cpc	r19, r1
    4b52:	19 f0       	breq	.+6      	; 0x4b5a <malloc+0x60>
    4b54:	42 17       	cp	r20, r18
    4b56:	53 07       	cpc	r21, r19
    4b58:	18 f4       	brcc	.+6      	; 0x4b60 <malloc+0x66>
    4b5a:	9a 01       	movw	r18, r20
    4b5c:	bd 01       	movw	r22, r26
    4b5e:	ef 01       	movw	r28, r30
    4b60:	df 01       	movw	r26, r30
    4b62:	f8 01       	movw	r30, r16
    4b64:	db cf       	rjmp	.-74     	; 0x4b1c <malloc+0x22>
    4b66:	21 15       	cp	r18, r1
    4b68:	31 05       	cpc	r19, r1
    4b6a:	f9 f0       	breq	.+62     	; 0x4baa <malloc+0xb0>
    4b6c:	28 1b       	sub	r18, r24
    4b6e:	39 0b       	sbc	r19, r25
    4b70:	24 30       	cpi	r18, 0x04	; 4
    4b72:	31 05       	cpc	r19, r1
    4b74:	80 f4       	brcc	.+32     	; 0x4b96 <malloc+0x9c>
    4b76:	8a 81       	ldd	r24, Y+2	; 0x02
    4b78:	9b 81       	ldd	r25, Y+3	; 0x03
    4b7a:	61 15       	cp	r22, r1
    4b7c:	71 05       	cpc	r23, r1
    4b7e:	21 f0       	breq	.+8      	; 0x4b88 <malloc+0x8e>
    4b80:	fb 01       	movw	r30, r22
    4b82:	82 83       	std	Z+2, r24	; 0x02
    4b84:	93 83       	std	Z+3, r25	; 0x03
    4b86:	04 c0       	rjmp	.+8      	; 0x4b90 <malloc+0x96>
    4b88:	80 93 fa 21 	sts	0x21FA, r24	; 0x8021fa <__flp>
    4b8c:	90 93 fb 21 	sts	0x21FB, r25	; 0x8021fb <__flp+0x1>
    4b90:	fe 01       	movw	r30, r28
    4b92:	32 96       	adiw	r30, 0x02	; 2
    4b94:	44 c0       	rjmp	.+136    	; 0x4c1e <malloc+0x124>
    4b96:	fe 01       	movw	r30, r28
    4b98:	e2 0f       	add	r30, r18
    4b9a:	f3 1f       	adc	r31, r19
    4b9c:	81 93       	st	Z+, r24
    4b9e:	91 93       	st	Z+, r25
    4ba0:	22 50       	subi	r18, 0x02	; 2
    4ba2:	31 09       	sbc	r19, r1
    4ba4:	28 83       	st	Y, r18
    4ba6:	39 83       	std	Y+1, r19	; 0x01
    4ba8:	3a c0       	rjmp	.+116    	; 0x4c1e <malloc+0x124>
    4baa:	20 91 f8 21 	lds	r18, 0x21F8	; 0x8021f8 <__brkval>
    4bae:	30 91 f9 21 	lds	r19, 0x21F9	; 0x8021f9 <__brkval+0x1>
    4bb2:	23 2b       	or	r18, r19
    4bb4:	41 f4       	brne	.+16     	; 0x4bc6 <malloc+0xcc>
    4bb6:	20 91 02 20 	lds	r18, 0x2002	; 0x802002 <__malloc_heap_start>
    4bba:	30 91 03 20 	lds	r19, 0x2003	; 0x802003 <__malloc_heap_start+0x1>
    4bbe:	20 93 f8 21 	sts	0x21F8, r18	; 0x8021f8 <__brkval>
    4bc2:	30 93 f9 21 	sts	0x21F9, r19	; 0x8021f9 <__brkval+0x1>
    4bc6:	20 91 00 20 	lds	r18, 0x2000	; 0x802000 <__data_start>
    4bca:	30 91 01 20 	lds	r19, 0x2001	; 0x802001 <__data_start+0x1>
    4bce:	21 15       	cp	r18, r1
    4bd0:	31 05       	cpc	r19, r1
    4bd2:	41 f4       	brne	.+16     	; 0x4be4 <malloc+0xea>
    4bd4:	2d b7       	in	r18, 0x3d	; 61
    4bd6:	3e b7       	in	r19, 0x3e	; 62
    4bd8:	40 91 04 20 	lds	r20, 0x2004	; 0x802004 <__malloc_margin>
    4bdc:	50 91 05 20 	lds	r21, 0x2005	; 0x802005 <__malloc_margin+0x1>
    4be0:	24 1b       	sub	r18, r20
    4be2:	35 0b       	sbc	r19, r21
    4be4:	e0 91 f8 21 	lds	r30, 0x21F8	; 0x8021f8 <__brkval>
    4be8:	f0 91 f9 21 	lds	r31, 0x21F9	; 0x8021f9 <__brkval+0x1>
    4bec:	e2 17       	cp	r30, r18
    4bee:	f3 07       	cpc	r31, r19
    4bf0:	a0 f4       	brcc	.+40     	; 0x4c1a <malloc+0x120>
    4bf2:	2e 1b       	sub	r18, r30
    4bf4:	3f 0b       	sbc	r19, r31
    4bf6:	28 17       	cp	r18, r24
    4bf8:	39 07       	cpc	r19, r25
    4bfa:	78 f0       	brcs	.+30     	; 0x4c1a <malloc+0x120>
    4bfc:	ac 01       	movw	r20, r24
    4bfe:	4e 5f       	subi	r20, 0xFE	; 254
    4c00:	5f 4f       	sbci	r21, 0xFF	; 255
    4c02:	24 17       	cp	r18, r20
    4c04:	35 07       	cpc	r19, r21
    4c06:	48 f0       	brcs	.+18     	; 0x4c1a <malloc+0x120>
    4c08:	4e 0f       	add	r20, r30
    4c0a:	5f 1f       	adc	r21, r31
    4c0c:	40 93 f8 21 	sts	0x21F8, r20	; 0x8021f8 <__brkval>
    4c10:	50 93 f9 21 	sts	0x21F9, r21	; 0x8021f9 <__brkval+0x1>
    4c14:	81 93       	st	Z+, r24
    4c16:	91 93       	st	Z+, r25
    4c18:	02 c0       	rjmp	.+4      	; 0x4c1e <malloc+0x124>
    4c1a:	e0 e0       	ldi	r30, 0x00	; 0
    4c1c:	f0 e0       	ldi	r31, 0x00	; 0
    4c1e:	cf 01       	movw	r24, r30
    4c20:	df 91       	pop	r29
    4c22:	cf 91       	pop	r28
    4c24:	1f 91       	pop	r17
    4c26:	0f 91       	pop	r16
    4c28:	08 95       	ret

00004c2a <free>:
    4c2a:	cf 93       	push	r28
    4c2c:	df 93       	push	r29
    4c2e:	00 97       	sbiw	r24, 0x00	; 0
    4c30:	09 f4       	brne	.+2      	; 0x4c34 <free+0xa>
    4c32:	81 c0       	rjmp	.+258    	; 0x4d36 <free+0x10c>
    4c34:	fc 01       	movw	r30, r24
    4c36:	32 97       	sbiw	r30, 0x02	; 2
    4c38:	12 82       	std	Z+2, r1	; 0x02
    4c3a:	13 82       	std	Z+3, r1	; 0x03
    4c3c:	a0 91 fa 21 	lds	r26, 0x21FA	; 0x8021fa <__flp>
    4c40:	b0 91 fb 21 	lds	r27, 0x21FB	; 0x8021fb <__flp+0x1>
    4c44:	10 97       	sbiw	r26, 0x00	; 0
    4c46:	81 f4       	brne	.+32     	; 0x4c68 <free+0x3e>
    4c48:	20 81       	ld	r18, Z
    4c4a:	31 81       	ldd	r19, Z+1	; 0x01
    4c4c:	82 0f       	add	r24, r18
    4c4e:	93 1f       	adc	r25, r19
    4c50:	20 91 f8 21 	lds	r18, 0x21F8	; 0x8021f8 <__brkval>
    4c54:	30 91 f9 21 	lds	r19, 0x21F9	; 0x8021f9 <__brkval+0x1>
    4c58:	28 17       	cp	r18, r24
    4c5a:	39 07       	cpc	r19, r25
    4c5c:	51 f5       	brne	.+84     	; 0x4cb2 <free+0x88>
    4c5e:	e0 93 f8 21 	sts	0x21F8, r30	; 0x8021f8 <__brkval>
    4c62:	f0 93 f9 21 	sts	0x21F9, r31	; 0x8021f9 <__brkval+0x1>
    4c66:	67 c0       	rjmp	.+206    	; 0x4d36 <free+0x10c>
    4c68:	ed 01       	movw	r28, r26
    4c6a:	20 e0       	ldi	r18, 0x00	; 0
    4c6c:	30 e0       	ldi	r19, 0x00	; 0
    4c6e:	ce 17       	cp	r28, r30
    4c70:	df 07       	cpc	r29, r31
    4c72:	40 f4       	brcc	.+16     	; 0x4c84 <free+0x5a>
    4c74:	4a 81       	ldd	r20, Y+2	; 0x02
    4c76:	5b 81       	ldd	r21, Y+3	; 0x03
    4c78:	9e 01       	movw	r18, r28
    4c7a:	41 15       	cp	r20, r1
    4c7c:	51 05       	cpc	r21, r1
    4c7e:	f1 f0       	breq	.+60     	; 0x4cbc <free+0x92>
    4c80:	ea 01       	movw	r28, r20
    4c82:	f5 cf       	rjmp	.-22     	; 0x4c6e <free+0x44>
    4c84:	c2 83       	std	Z+2, r28	; 0x02
    4c86:	d3 83       	std	Z+3, r29	; 0x03
    4c88:	40 81       	ld	r20, Z
    4c8a:	51 81       	ldd	r21, Z+1	; 0x01
    4c8c:	84 0f       	add	r24, r20
    4c8e:	95 1f       	adc	r25, r21
    4c90:	c8 17       	cp	r28, r24
    4c92:	d9 07       	cpc	r29, r25
    4c94:	59 f4       	brne	.+22     	; 0x4cac <free+0x82>
    4c96:	88 81       	ld	r24, Y
    4c98:	99 81       	ldd	r25, Y+1	; 0x01
    4c9a:	84 0f       	add	r24, r20
    4c9c:	95 1f       	adc	r25, r21
    4c9e:	02 96       	adiw	r24, 0x02	; 2
    4ca0:	80 83       	st	Z, r24
    4ca2:	91 83       	std	Z+1, r25	; 0x01
    4ca4:	8a 81       	ldd	r24, Y+2	; 0x02
    4ca6:	9b 81       	ldd	r25, Y+3	; 0x03
    4ca8:	82 83       	std	Z+2, r24	; 0x02
    4caa:	93 83       	std	Z+3, r25	; 0x03
    4cac:	21 15       	cp	r18, r1
    4cae:	31 05       	cpc	r19, r1
    4cb0:	29 f4       	brne	.+10     	; 0x4cbc <free+0x92>
    4cb2:	e0 93 fa 21 	sts	0x21FA, r30	; 0x8021fa <__flp>
    4cb6:	f0 93 fb 21 	sts	0x21FB, r31	; 0x8021fb <__flp+0x1>
    4cba:	3d c0       	rjmp	.+122    	; 0x4d36 <free+0x10c>
    4cbc:	e9 01       	movw	r28, r18
    4cbe:	ea 83       	std	Y+2, r30	; 0x02
    4cc0:	fb 83       	std	Y+3, r31	; 0x03
    4cc2:	49 91       	ld	r20, Y+
    4cc4:	59 91       	ld	r21, Y+
    4cc6:	c4 0f       	add	r28, r20
    4cc8:	d5 1f       	adc	r29, r21
    4cca:	ec 17       	cp	r30, r28
    4ccc:	fd 07       	cpc	r31, r29
    4cce:	61 f4       	brne	.+24     	; 0x4ce8 <free+0xbe>
    4cd0:	80 81       	ld	r24, Z
    4cd2:	91 81       	ldd	r25, Z+1	; 0x01
    4cd4:	84 0f       	add	r24, r20
    4cd6:	95 1f       	adc	r25, r21
    4cd8:	02 96       	adiw	r24, 0x02	; 2
    4cda:	e9 01       	movw	r28, r18
    4cdc:	88 83       	st	Y, r24
    4cde:	99 83       	std	Y+1, r25	; 0x01
    4ce0:	82 81       	ldd	r24, Z+2	; 0x02
    4ce2:	93 81       	ldd	r25, Z+3	; 0x03
    4ce4:	8a 83       	std	Y+2, r24	; 0x02
    4ce6:	9b 83       	std	Y+3, r25	; 0x03
    4ce8:	e0 e0       	ldi	r30, 0x00	; 0
    4cea:	f0 e0       	ldi	r31, 0x00	; 0
    4cec:	12 96       	adiw	r26, 0x02	; 2
    4cee:	8d 91       	ld	r24, X+
    4cf0:	9c 91       	ld	r25, X
    4cf2:	13 97       	sbiw	r26, 0x03	; 3
    4cf4:	00 97       	sbiw	r24, 0x00	; 0
    4cf6:	19 f0       	breq	.+6      	; 0x4cfe <free+0xd4>
    4cf8:	fd 01       	movw	r30, r26
    4cfa:	dc 01       	movw	r26, r24
    4cfc:	f7 cf       	rjmp	.-18     	; 0x4cec <free+0xc2>
    4cfe:	8d 91       	ld	r24, X+
    4d00:	9c 91       	ld	r25, X
    4d02:	11 97       	sbiw	r26, 0x01	; 1
    4d04:	9d 01       	movw	r18, r26
    4d06:	2e 5f       	subi	r18, 0xFE	; 254
    4d08:	3f 4f       	sbci	r19, 0xFF	; 255
    4d0a:	82 0f       	add	r24, r18
    4d0c:	93 1f       	adc	r25, r19
    4d0e:	20 91 f8 21 	lds	r18, 0x21F8	; 0x8021f8 <__brkval>
    4d12:	30 91 f9 21 	lds	r19, 0x21F9	; 0x8021f9 <__brkval+0x1>
    4d16:	28 17       	cp	r18, r24
    4d18:	39 07       	cpc	r19, r25
    4d1a:	69 f4       	brne	.+26     	; 0x4d36 <free+0x10c>
    4d1c:	30 97       	sbiw	r30, 0x00	; 0
    4d1e:	29 f4       	brne	.+10     	; 0x4d2a <free+0x100>
    4d20:	10 92 fa 21 	sts	0x21FA, r1	; 0x8021fa <__flp>
    4d24:	10 92 fb 21 	sts	0x21FB, r1	; 0x8021fb <__flp+0x1>
    4d28:	02 c0       	rjmp	.+4      	; 0x4d2e <free+0x104>
    4d2a:	12 82       	std	Z+2, r1	; 0x02
    4d2c:	13 82       	std	Z+3, r1	; 0x03
    4d2e:	a0 93 f8 21 	sts	0x21F8, r26	; 0x8021f8 <__brkval>
    4d32:	b0 93 f9 21 	sts	0x21F9, r27	; 0x8021f9 <__brkval+0x1>
    4d36:	df 91       	pop	r29
    4d38:	cf 91       	pop	r28
    4d3a:	08 95       	ret

00004d3c <isspace>:
    4d3c:	91 11       	cpse	r25, r1
    4d3e:	1f c1       	rjmp	.+574    	; 0x4f7e <__ctype_isfalse>
    4d40:	80 32       	cpi	r24, 0x20	; 32
    4d42:	19 f0       	breq	.+6      	; 0x4d4a <isspace+0xe>
    4d44:	89 50       	subi	r24, 0x09	; 9
    4d46:	85 50       	subi	r24, 0x05	; 5
    4d48:	d0 f7       	brcc	.-12     	; 0x4d3e <isspace+0x2>
    4d4a:	08 95       	ret

00004d4c <strchr_P>:
    4d4c:	fc 01       	movw	r30, r24
    4d4e:	05 90       	lpm	r0, Z+
    4d50:	06 16       	cp	r0, r22
    4d52:	21 f0       	breq	.+8      	; 0x4d5c <strchr_P+0x10>
    4d54:	00 20       	and	r0, r0
    4d56:	d9 f7       	brne	.-10     	; 0x4d4e <strchr_P+0x2>
    4d58:	c0 01       	movw	r24, r0
    4d5a:	08 95       	ret
    4d5c:	31 97       	sbiw	r30, 0x01	; 1
    4d5e:	cf 01       	movw	r24, r30
    4d60:	08 95       	ret

00004d62 <strnlen_P>:
    4d62:	fc 01       	movw	r30, r24
    4d64:	05 90       	lpm	r0, Z+
    4d66:	61 50       	subi	r22, 0x01	; 1
    4d68:	70 40       	sbci	r23, 0x00	; 0
    4d6a:	01 10       	cpse	r0, r1
    4d6c:	d8 f7       	brcc	.-10     	; 0x4d64 <strnlen_P+0x2>
    4d6e:	80 95       	com	r24
    4d70:	90 95       	com	r25
    4d72:	8e 0f       	add	r24, r30
    4d74:	9f 1f       	adc	r25, r31
    4d76:	08 95       	ret

00004d78 <memset>:
    4d78:	dc 01       	movw	r26, r24
    4d7a:	01 c0       	rjmp	.+2      	; 0x4d7e <memset+0x6>
    4d7c:	6d 93       	st	X+, r22
    4d7e:	41 50       	subi	r20, 0x01	; 1
    4d80:	50 40       	sbci	r21, 0x00	; 0
    4d82:	e0 f7       	brcc	.-8      	; 0x4d7c <memset+0x4>
    4d84:	08 95       	ret

00004d86 <strnlen>:
    4d86:	fc 01       	movw	r30, r24
    4d88:	61 50       	subi	r22, 0x01	; 1
    4d8a:	70 40       	sbci	r23, 0x00	; 0
    4d8c:	01 90       	ld	r0, Z+
    4d8e:	01 10       	cpse	r0, r1
    4d90:	d8 f7       	brcc	.-10     	; 0x4d88 <strnlen+0x2>
    4d92:	80 95       	com	r24
    4d94:	90 95       	com	r25
    4d96:	8e 0f       	add	r24, r30
    4d98:	9f 1f       	adc	r25, r31
    4d9a:	08 95       	ret

00004d9c <fgetc>:
    4d9c:	cf 93       	push	r28
    4d9e:	df 93       	push	r29
    4da0:	ec 01       	movw	r28, r24
    4da2:	2b 81       	ldd	r18, Y+3	; 0x03
    4da4:	20 ff       	sbrs	r18, 0
    4da6:	33 c0       	rjmp	.+102    	; 0x4e0e <fgetc+0x72>
    4da8:	26 ff       	sbrs	r18, 6
    4daa:	0a c0       	rjmp	.+20     	; 0x4dc0 <fgetc+0x24>
    4dac:	2f 7b       	andi	r18, 0xBF	; 191
    4dae:	2b 83       	std	Y+3, r18	; 0x03
    4db0:	8e 81       	ldd	r24, Y+6	; 0x06
    4db2:	9f 81       	ldd	r25, Y+7	; 0x07
    4db4:	01 96       	adiw	r24, 0x01	; 1
    4db6:	8e 83       	std	Y+6, r24	; 0x06
    4db8:	9f 83       	std	Y+7, r25	; 0x07
    4dba:	8a 81       	ldd	r24, Y+2	; 0x02
    4dbc:	90 e0       	ldi	r25, 0x00	; 0
    4dbe:	29 c0       	rjmp	.+82     	; 0x4e12 <fgetc+0x76>
    4dc0:	22 ff       	sbrs	r18, 2
    4dc2:	0f c0       	rjmp	.+30     	; 0x4de2 <fgetc+0x46>
    4dc4:	e8 81       	ld	r30, Y
    4dc6:	f9 81       	ldd	r31, Y+1	; 0x01
    4dc8:	80 81       	ld	r24, Z
    4dca:	08 2e       	mov	r0, r24
    4dcc:	00 0c       	add	r0, r0
    4dce:	99 0b       	sbc	r25, r25
    4dd0:	00 97       	sbiw	r24, 0x00	; 0
    4dd2:	19 f4       	brne	.+6      	; 0x4dda <fgetc+0x3e>
    4dd4:	20 62       	ori	r18, 0x20	; 32
    4dd6:	2b 83       	std	Y+3, r18	; 0x03
    4dd8:	1a c0       	rjmp	.+52     	; 0x4e0e <fgetc+0x72>
    4dda:	31 96       	adiw	r30, 0x01	; 1
    4ddc:	e8 83       	st	Y, r30
    4dde:	f9 83       	std	Y+1, r31	; 0x01
    4de0:	0e c0       	rjmp	.+28     	; 0x4dfe <fgetc+0x62>
    4de2:	ea 85       	ldd	r30, Y+10	; 0x0a
    4de4:	fb 85       	ldd	r31, Y+11	; 0x0b
    4de6:	19 95       	eicall
    4de8:	97 ff       	sbrs	r25, 7
    4dea:	09 c0       	rjmp	.+18     	; 0x4dfe <fgetc+0x62>
    4dec:	2b 81       	ldd	r18, Y+3	; 0x03
    4dee:	01 96       	adiw	r24, 0x01	; 1
    4df0:	11 f0       	breq	.+4      	; 0x4df6 <fgetc+0x5a>
    4df2:	80 e2       	ldi	r24, 0x20	; 32
    4df4:	01 c0       	rjmp	.+2      	; 0x4df8 <fgetc+0x5c>
    4df6:	80 e1       	ldi	r24, 0x10	; 16
    4df8:	82 2b       	or	r24, r18
    4dfa:	8b 83       	std	Y+3, r24	; 0x03
    4dfc:	08 c0       	rjmp	.+16     	; 0x4e0e <fgetc+0x72>
    4dfe:	2e 81       	ldd	r18, Y+6	; 0x06
    4e00:	3f 81       	ldd	r19, Y+7	; 0x07
    4e02:	2f 5f       	subi	r18, 0xFF	; 255
    4e04:	3f 4f       	sbci	r19, 0xFF	; 255
    4e06:	2e 83       	std	Y+6, r18	; 0x06
    4e08:	3f 83       	std	Y+7, r19	; 0x07
    4e0a:	99 27       	eor	r25, r25
    4e0c:	02 c0       	rjmp	.+4      	; 0x4e12 <fgetc+0x76>
    4e0e:	8f ef       	ldi	r24, 0xFF	; 255
    4e10:	9f ef       	ldi	r25, 0xFF	; 255
    4e12:	df 91       	pop	r29
    4e14:	cf 91       	pop	r28
    4e16:	08 95       	ret

00004e18 <fputc>:
    4e18:	0f 93       	push	r16
    4e1a:	1f 93       	push	r17
    4e1c:	cf 93       	push	r28
    4e1e:	df 93       	push	r29
    4e20:	fb 01       	movw	r30, r22
    4e22:	23 81       	ldd	r18, Z+3	; 0x03
    4e24:	21 fd       	sbrc	r18, 1
    4e26:	03 c0       	rjmp	.+6      	; 0x4e2e <fputc+0x16>
    4e28:	8f ef       	ldi	r24, 0xFF	; 255
    4e2a:	9f ef       	ldi	r25, 0xFF	; 255
    4e2c:	2c c0       	rjmp	.+88     	; 0x4e86 <fputc+0x6e>
    4e2e:	22 ff       	sbrs	r18, 2
    4e30:	16 c0       	rjmp	.+44     	; 0x4e5e <fputc+0x46>
    4e32:	46 81       	ldd	r20, Z+6	; 0x06
    4e34:	57 81       	ldd	r21, Z+7	; 0x07
    4e36:	24 81       	ldd	r18, Z+4	; 0x04
    4e38:	35 81       	ldd	r19, Z+5	; 0x05
    4e3a:	42 17       	cp	r20, r18
    4e3c:	53 07       	cpc	r21, r19
    4e3e:	44 f4       	brge	.+16     	; 0x4e50 <fputc+0x38>
    4e40:	a0 81       	ld	r26, Z
    4e42:	b1 81       	ldd	r27, Z+1	; 0x01
    4e44:	9d 01       	movw	r18, r26
    4e46:	2f 5f       	subi	r18, 0xFF	; 255
    4e48:	3f 4f       	sbci	r19, 0xFF	; 255
    4e4a:	20 83       	st	Z, r18
    4e4c:	31 83       	std	Z+1, r19	; 0x01
    4e4e:	8c 93       	st	X, r24
    4e50:	26 81       	ldd	r18, Z+6	; 0x06
    4e52:	37 81       	ldd	r19, Z+7	; 0x07
    4e54:	2f 5f       	subi	r18, 0xFF	; 255
    4e56:	3f 4f       	sbci	r19, 0xFF	; 255
    4e58:	26 83       	std	Z+6, r18	; 0x06
    4e5a:	37 83       	std	Z+7, r19	; 0x07
    4e5c:	14 c0       	rjmp	.+40     	; 0x4e86 <fputc+0x6e>
    4e5e:	8b 01       	movw	r16, r22
    4e60:	ec 01       	movw	r28, r24
    4e62:	fb 01       	movw	r30, r22
    4e64:	00 84       	ldd	r0, Z+8	; 0x08
    4e66:	f1 85       	ldd	r31, Z+9	; 0x09
    4e68:	e0 2d       	mov	r30, r0
    4e6a:	19 95       	eicall
    4e6c:	89 2b       	or	r24, r25
    4e6e:	e1 f6       	brne	.-72     	; 0x4e28 <fputc+0x10>
    4e70:	d8 01       	movw	r26, r16
    4e72:	16 96       	adiw	r26, 0x06	; 6
    4e74:	8d 91       	ld	r24, X+
    4e76:	9c 91       	ld	r25, X
    4e78:	17 97       	sbiw	r26, 0x07	; 7
    4e7a:	01 96       	adiw	r24, 0x01	; 1
    4e7c:	16 96       	adiw	r26, 0x06	; 6
    4e7e:	8d 93       	st	X+, r24
    4e80:	9c 93       	st	X, r25
    4e82:	17 97       	sbiw	r26, 0x07	; 7
    4e84:	ce 01       	movw	r24, r28
    4e86:	df 91       	pop	r29
    4e88:	cf 91       	pop	r28
    4e8a:	1f 91       	pop	r17
    4e8c:	0f 91       	pop	r16
    4e8e:	08 95       	ret

00004e90 <ungetc>:
    4e90:	fb 01       	movw	r30, r22
    4e92:	23 81       	ldd	r18, Z+3	; 0x03
    4e94:	20 ff       	sbrs	r18, 0
    4e96:	12 c0       	rjmp	.+36     	; 0x4ebc <ungetc+0x2c>
    4e98:	26 fd       	sbrc	r18, 6
    4e9a:	10 c0       	rjmp	.+32     	; 0x4ebc <ungetc+0x2c>
    4e9c:	8f 3f       	cpi	r24, 0xFF	; 255
    4e9e:	3f ef       	ldi	r19, 0xFF	; 255
    4ea0:	93 07       	cpc	r25, r19
    4ea2:	61 f0       	breq	.+24     	; 0x4ebc <ungetc+0x2c>
    4ea4:	82 83       	std	Z+2, r24	; 0x02
    4ea6:	2f 7d       	andi	r18, 0xDF	; 223
    4ea8:	20 64       	ori	r18, 0x40	; 64
    4eaa:	23 83       	std	Z+3, r18	; 0x03
    4eac:	26 81       	ldd	r18, Z+6	; 0x06
    4eae:	37 81       	ldd	r19, Z+7	; 0x07
    4eb0:	21 50       	subi	r18, 0x01	; 1
    4eb2:	31 09       	sbc	r19, r1
    4eb4:	26 83       	std	Z+6, r18	; 0x06
    4eb6:	37 83       	std	Z+7, r19	; 0x07
    4eb8:	99 27       	eor	r25, r25
    4eba:	08 95       	ret
    4ebc:	8f ef       	ldi	r24, 0xFF	; 255
    4ebe:	9f ef       	ldi	r25, 0xFF	; 255
    4ec0:	08 95       	ret

00004ec2 <__ultoa_invert>:
    4ec2:	fa 01       	movw	r30, r20
    4ec4:	aa 27       	eor	r26, r26
    4ec6:	28 30       	cpi	r18, 0x08	; 8
    4ec8:	51 f1       	breq	.+84     	; 0x4f1e <__ultoa_invert+0x5c>
    4eca:	20 31       	cpi	r18, 0x10	; 16
    4ecc:	81 f1       	breq	.+96     	; 0x4f2e <__ultoa_invert+0x6c>
    4ece:	e8 94       	clt
    4ed0:	6f 93       	push	r22
    4ed2:	6e 7f       	andi	r22, 0xFE	; 254
    4ed4:	6e 5f       	subi	r22, 0xFE	; 254
    4ed6:	7f 4f       	sbci	r23, 0xFF	; 255
    4ed8:	8f 4f       	sbci	r24, 0xFF	; 255
    4eda:	9f 4f       	sbci	r25, 0xFF	; 255
    4edc:	af 4f       	sbci	r26, 0xFF	; 255
    4ede:	b1 e0       	ldi	r27, 0x01	; 1
    4ee0:	3e d0       	rcall	.+124    	; 0x4f5e <__ultoa_invert+0x9c>
    4ee2:	b4 e0       	ldi	r27, 0x04	; 4
    4ee4:	3c d0       	rcall	.+120    	; 0x4f5e <__ultoa_invert+0x9c>
    4ee6:	67 0f       	add	r22, r23
    4ee8:	78 1f       	adc	r23, r24
    4eea:	89 1f       	adc	r24, r25
    4eec:	9a 1f       	adc	r25, r26
    4eee:	a1 1d       	adc	r26, r1
    4ef0:	68 0f       	add	r22, r24
    4ef2:	79 1f       	adc	r23, r25
    4ef4:	8a 1f       	adc	r24, r26
    4ef6:	91 1d       	adc	r25, r1
    4ef8:	a1 1d       	adc	r26, r1
    4efa:	6a 0f       	add	r22, r26
    4efc:	71 1d       	adc	r23, r1
    4efe:	81 1d       	adc	r24, r1
    4f00:	91 1d       	adc	r25, r1
    4f02:	a1 1d       	adc	r26, r1
    4f04:	20 d0       	rcall	.+64     	; 0x4f46 <__ultoa_invert+0x84>
    4f06:	09 f4       	brne	.+2      	; 0x4f0a <__ultoa_invert+0x48>
    4f08:	68 94       	set
    4f0a:	3f 91       	pop	r19
    4f0c:	2a e0       	ldi	r18, 0x0A	; 10
    4f0e:	26 9f       	mul	r18, r22
    4f10:	11 24       	eor	r1, r1
    4f12:	30 19       	sub	r19, r0
    4f14:	30 5d       	subi	r19, 0xD0	; 208
    4f16:	31 93       	st	Z+, r19
    4f18:	de f6       	brtc	.-74     	; 0x4ed0 <__ultoa_invert+0xe>
    4f1a:	cf 01       	movw	r24, r30
    4f1c:	08 95       	ret
    4f1e:	46 2f       	mov	r20, r22
    4f20:	47 70       	andi	r20, 0x07	; 7
    4f22:	40 5d       	subi	r20, 0xD0	; 208
    4f24:	41 93       	st	Z+, r20
    4f26:	b3 e0       	ldi	r27, 0x03	; 3
    4f28:	0f d0       	rcall	.+30     	; 0x4f48 <__ultoa_invert+0x86>
    4f2a:	c9 f7       	brne	.-14     	; 0x4f1e <__ultoa_invert+0x5c>
    4f2c:	f6 cf       	rjmp	.-20     	; 0x4f1a <__ultoa_invert+0x58>
    4f2e:	46 2f       	mov	r20, r22
    4f30:	4f 70       	andi	r20, 0x0F	; 15
    4f32:	40 5d       	subi	r20, 0xD0	; 208
    4f34:	4a 33       	cpi	r20, 0x3A	; 58
    4f36:	18 f0       	brcs	.+6      	; 0x4f3e <__ultoa_invert+0x7c>
    4f38:	49 5d       	subi	r20, 0xD9	; 217
    4f3a:	31 fd       	sbrc	r19, 1
    4f3c:	40 52       	subi	r20, 0x20	; 32
    4f3e:	41 93       	st	Z+, r20
    4f40:	02 d0       	rcall	.+4      	; 0x4f46 <__ultoa_invert+0x84>
    4f42:	a9 f7       	brne	.-22     	; 0x4f2e <__ultoa_invert+0x6c>
    4f44:	ea cf       	rjmp	.-44     	; 0x4f1a <__ultoa_invert+0x58>
    4f46:	b4 e0       	ldi	r27, 0x04	; 4
    4f48:	a6 95       	lsr	r26
    4f4a:	97 95       	ror	r25
    4f4c:	87 95       	ror	r24
    4f4e:	77 95       	ror	r23
    4f50:	67 95       	ror	r22
    4f52:	ba 95       	dec	r27
    4f54:	c9 f7       	brne	.-14     	; 0x4f48 <__ultoa_invert+0x86>
    4f56:	00 97       	sbiw	r24, 0x00	; 0
    4f58:	61 05       	cpc	r22, r1
    4f5a:	71 05       	cpc	r23, r1
    4f5c:	08 95       	ret
    4f5e:	9b 01       	movw	r18, r22
    4f60:	ac 01       	movw	r20, r24
    4f62:	0a 2e       	mov	r0, r26
    4f64:	06 94       	lsr	r0
    4f66:	57 95       	ror	r21
    4f68:	47 95       	ror	r20
    4f6a:	37 95       	ror	r19
    4f6c:	27 95       	ror	r18
    4f6e:	ba 95       	dec	r27
    4f70:	c9 f7       	brne	.-14     	; 0x4f64 <__ultoa_invert+0xa2>
    4f72:	62 0f       	add	r22, r18
    4f74:	73 1f       	adc	r23, r19
    4f76:	84 1f       	adc	r24, r20
    4f78:	95 1f       	adc	r25, r21
    4f7a:	a0 1d       	adc	r26, r0
    4f7c:	08 95       	ret

00004f7e <__ctype_isfalse>:
    4f7e:	99 27       	eor	r25, r25
    4f80:	88 27       	eor	r24, r24

00004f82 <__ctype_istrue>:
    4f82:	08 95       	ret

00004f84 <_exit>:
    4f84:	f8 94       	cli

00004f86 <__stop_program>:
    4f86:	ff cf       	rjmp	.-2      	; 0x4f86 <__stop_program>
