
SkyFire.elf:     file format elf32-avr

Sections:
Idx Name          Size      VMA       LMA       File off  Algn
  0 .text         0000777c  00000000  00000000  00000094  2**1
                  CONTENTS, ALLOC, LOAD, READONLY, CODE
  1 .data         000001a4  00802000  0000777c  00007810  2**0
                  CONTENTS, ALLOC, LOAD, DATA
  2 .bss          0000015a  008021a4  008021a4  000079b4  2**0
                  ALLOC
  3 .comment      0000005c  00000000  00000000  000079b4  2**0
                  CONTENTS, READONLY
  4 .note.gnu.avr.deviceinfo 00000040  00000000  00000000  00007a10  2**2
                  CONTENTS, READONLY
  5 .debug_aranges 00000f48  00000000  00000000  00007a50  2**3
                  CONTENTS, READONLY, DEBUGGING
  6 .debug_info   000274b1  00000000  00000000  00008998  2**0
                  CONTENTS, READONLY, DEBUGGING
  7 .debug_abbrev 00005b9c  00000000  00000000  0002fe49  2**0
                  CONTENTS, READONLY, DEBUGGING
  8 .debug_line   000142d1  00000000  00000000  000359e5  2**0
                  CONTENTS, READONLY, DEBUGGING
  9 .debug_frame  00004a44  00000000  00000000  00049cb8  2**2
                  CONTENTS, READONLY, DEBUGGING
 10 .debug_str    0003b556  00000000  00000000  0004e6fc  2**0
                  CONTENTS, READONLY, DEBUGGING
 11 .debug_loc    0001a5a2  00000000  00000000  00089c52  2**0
                  CONTENTS, READONLY, DEBUGGING
 12 .debug_ranges 00000ea8  00000000  00000000  000a41f8  2**3
                  CONTENTS, READONLY, DEBUGGING
 13 .debug_macro  00010753  00000000  00000000  000a50a0  2**0
                  CONTENTS, READONLY, DEBUGGING

Disassembly of section .text:

00000000 <__vectors>:
       0:	57 c1       	rjmp	.+686    	; 0x2b0 <__ctors_end>
       2:	00 00       	nop
       4:	7b c1       	rjmp	.+758    	; 0x2fc <__bad_interrupt>
       6:	00 00       	nop
       8:	79 c1       	rjmp	.+754    	; 0x2fc <__bad_interrupt>
       a:	00 00       	nop
       c:	77 c1       	rjmp	.+750    	; 0x2fc <__bad_interrupt>
       e:	00 00       	nop
      10:	75 c1       	rjmp	.+746    	; 0x2fc <__bad_interrupt>
      12:	00 00       	nop
      14:	73 c1       	rjmp	.+742    	; 0x2fc <__bad_interrupt>
      16:	00 00       	nop
      18:	71 c1       	rjmp	.+738    	; 0x2fc <__bad_interrupt>
      1a:	00 00       	nop
      1c:	6f c1       	rjmp	.+734    	; 0x2fc <__bad_interrupt>
      1e:	00 00       	nop
      20:	6d c1       	rjmp	.+730    	; 0x2fc <__bad_interrupt>
      22:	00 00       	nop
      24:	6b c1       	rjmp	.+726    	; 0x2fc <__bad_interrupt>
      26:	00 00       	nop
      28:	69 c1       	rjmp	.+722    	; 0x2fc <__bad_interrupt>
      2a:	00 00       	nop
      2c:	67 c1       	rjmp	.+718    	; 0x2fc <__bad_interrupt>
      2e:	00 00       	nop
      30:	65 c1       	rjmp	.+714    	; 0x2fc <__bad_interrupt>
      32:	00 00       	nop
      34:	0c 94 1e 0a 	jmp	0x143c	; 0x143c <__vector_13>
      38:	f2 c3       	rjmp	.+2020   	; 0x81e <__vector_14>
      3a:	00 00       	nop
      3c:	28 c4       	rjmp	.+2128   	; 0x88e <__vector_15>
      3e:	00 00       	nop
      40:	5e c4       	rjmp	.+2236   	; 0x8fe <__vector_16>
      42:	00 00       	nop
      44:	94 c4       	rjmp	.+2344   	; 0x96e <__vector_17>
      46:	00 00       	nop
      48:	ca c4       	rjmp	.+2452   	; 0x9de <__vector_18>
      4a:	00 00       	nop
      4c:	00 c5       	rjmp	.+2560   	; 0xa4e <__vector_19>
      4e:	00 00       	nop
      50:	36 c5       	rjmp	.+2668   	; 0xabe <__vector_20>
      52:	00 00       	nop
      54:	6c c5       	rjmp	.+2776   	; 0xb2e <__vector_21>
      56:	00 00       	nop
      58:	a2 c5       	rjmp	.+2884   	; 0xb9e <__vector_22>
      5a:	00 00       	nop
      5c:	d8 c5       	rjmp	.+2992   	; 0xc0e <__vector_23>
      5e:	00 00       	nop
      60:	4d c1       	rjmp	.+666    	; 0x2fc <__bad_interrupt>
      62:	00 00       	nop
      64:	4b c1       	rjmp	.+662    	; 0x2fc <__bad_interrupt>
      66:	00 00       	nop
      68:	49 c1       	rjmp	.+658    	; 0x2fc <__bad_interrupt>
      6a:	00 00       	nop
      6c:	47 c1       	rjmp	.+654    	; 0x2fc <__bad_interrupt>
      6e:	00 00       	nop
      70:	45 c1       	rjmp	.+650    	; 0x2fc <__bad_interrupt>
      72:	00 00       	nop
      74:	43 c1       	rjmp	.+646    	; 0x2fc <__bad_interrupt>
      76:	00 00       	nop
      78:	41 c1       	rjmp	.+642    	; 0x2fc <__bad_interrupt>
      7a:	00 00       	nop
      7c:	3f c1       	rjmp	.+638    	; 0x2fc <__bad_interrupt>
      7e:	00 00       	nop
      80:	3d c1       	rjmp	.+634    	; 0x2fc <__bad_interrupt>
      82:	00 00       	nop
      84:	3b c1       	rjmp	.+630    	; 0x2fc <__bad_interrupt>
      86:	00 00       	nop
      88:	39 c1       	rjmp	.+626    	; 0x2fc <__bad_interrupt>
      8a:	00 00       	nop
      8c:	37 c1       	rjmp	.+622    	; 0x2fc <__bad_interrupt>
      8e:	00 00       	nop
      90:	35 c1       	rjmp	.+618    	; 0x2fc <__bad_interrupt>
      92:	00 00       	nop
      94:	33 c1       	rjmp	.+614    	; 0x2fc <__bad_interrupt>
      96:	00 00       	nop
      98:	31 c1       	rjmp	.+610    	; 0x2fc <__bad_interrupt>
      9a:	00 00       	nop
      9c:	2f c1       	rjmp	.+606    	; 0x2fc <__bad_interrupt>
      9e:	00 00       	nop
      a0:	2d c1       	rjmp	.+602    	; 0x2fc <__bad_interrupt>
      a2:	00 00       	nop
      a4:	2b c1       	rjmp	.+598    	; 0x2fc <__bad_interrupt>
      a6:	00 00       	nop
      a8:	29 c1       	rjmp	.+594    	; 0x2fc <__bad_interrupt>
      aa:	00 00       	nop
      ac:	27 c1       	rjmp	.+590    	; 0x2fc <__bad_interrupt>
      ae:	00 00       	nop
      b0:	25 c1       	rjmp	.+586    	; 0x2fc <__bad_interrupt>
      b2:	00 00       	nop
      b4:	23 c1       	rjmp	.+582    	; 0x2fc <__bad_interrupt>
      b6:	00 00       	nop
      b8:	0c 94 50 0a 	jmp	0x14a0	; 0x14a0 <__vector_46>
      bc:	0c 94 14 2b 	jmp	0x5628	; 0x5628 <__vector_47>
      c0:	0c 94 6f 08 	jmp	0x10de	; 0x10de <__vector_48>
      c4:	0c 94 a7 08 	jmp	0x114e	; 0x114e <__vector_49>
      c8:	0c 94 df 08 	jmp	0x11be	; 0x11be <__vector_50>
      cc:	0c 94 17 09 	jmp	0x122e	; 0x122e <__vector_51>
      d0:	0c 94 4f 09 	jmp	0x129e	; 0x129e <__vector_52>
      d4:	13 c1       	rjmp	.+550    	; 0x2fc <__bad_interrupt>
      d6:	00 00       	nop
      d8:	11 c1       	rjmp	.+546    	; 0x2fc <__bad_interrupt>
      da:	00 00       	nop
      dc:	0f c1       	rjmp	.+542    	; 0x2fc <__bad_interrupt>
      de:	00 00       	nop
      e0:	0d c1       	rjmp	.+538    	; 0x2fc <__bad_interrupt>
      e2:	00 00       	nop
      e4:	0b c1       	rjmp	.+534    	; 0x2fc <__bad_interrupt>
      e6:	00 00       	nop
      e8:	0c 94 33 2b 	jmp	0x5666	; 0x5666 <__vector_58>
      ec:	07 c1       	rjmp	.+526    	; 0x2fc <__bad_interrupt>
      ee:	00 00       	nop
      f0:	05 c1       	rjmp	.+522    	; 0x2fc <__bad_interrupt>
      f2:	00 00       	nop
      f4:	03 c1       	rjmp	.+518    	; 0x2fc <__bad_interrupt>
      f6:	00 00       	nop
      f8:	01 c1       	rjmp	.+514    	; 0x2fc <__bad_interrupt>
      fa:	00 00       	nop
      fc:	ff c0       	rjmp	.+510    	; 0x2fc <__bad_interrupt>
      fe:	00 00       	nop
     100:	fd c0       	rjmp	.+506    	; 0x2fc <__bad_interrupt>
     102:	00 00       	nop
     104:	fb c0       	rjmp	.+502    	; 0x2fc <__bad_interrupt>
     106:	00 00       	nop
     108:	f9 c0       	rjmp	.+498    	; 0x2fc <__bad_interrupt>
     10a:	00 00       	nop
     10c:	f7 c0       	rjmp	.+494    	; 0x2fc <__bad_interrupt>
     10e:	00 00       	nop
     110:	21 c1       	rjmp	.+578    	; 0x354 <__vector_68>
     112:	00 00       	nop
     114:	65 c1       	rjmp	.+714    	; 0x3e0 <__vector_69>
     116:	00 00       	nop
     118:	a9 c1       	rjmp	.+850    	; 0x46c <__vector_70>
     11a:	00 00       	nop
     11c:	8c c2       	rjmp	.+1304   	; 0x636 <__vector_71>
     11e:	00 00       	nop
     120:	c7 c2       	rjmp	.+1422   	; 0x6b0 <__vector_72>
     122:	00 00       	nop
     124:	02 c3       	rjmp	.+1540   	; 0x72a <__vector_73>
     126:	00 00       	nop
     128:	3d c3       	rjmp	.+1658   	; 0x7a4 <__vector_74>
     12a:	00 00       	nop
     12c:	e7 c0       	rjmp	.+462    	; 0x2fc <__bad_interrupt>
     12e:	00 00       	nop
     130:	e5 c0       	rjmp	.+458    	; 0x2fc <__bad_interrupt>
     132:	00 00       	nop
     134:	a4 c5       	rjmp	.+2888   	; 0xc7e <__vector_77>
     136:	00 00       	nop
     138:	da c5       	rjmp	.+2996   	; 0xcee <__vector_78>
     13a:	00 00       	nop
     13c:	10 c6       	rjmp	.+3104   	; 0xd5e <__vector_79>
     13e:	00 00       	nop
     140:	46 c6       	rjmp	.+3212   	; 0xdce <__vector_80>
     142:	00 00       	nop
     144:	7c c6       	rjmp	.+3320   	; 0xe3e <__vector_81>
     146:	00 00       	nop
     148:	b2 c6       	rjmp	.+3428   	; 0xeae <__vector_82>
     14a:	00 00       	nop
     14c:	e8 c6       	rjmp	.+3536   	; 0xf1e <__vector_83>
     14e:	00 00       	nop
     150:	1e c7       	rjmp	.+3644   	; 0xf8e <__vector_84>
     152:	00 00       	nop
     154:	54 c7       	rjmp	.+3752   	; 0xffe <__vector_85>
     156:	00 00       	nop
     158:	8a c7       	rjmp	.+3860   	; 0x106e <__vector_86>
     15a:	00 00       	nop
     15c:	cf c0       	rjmp	.+414    	; 0x2fc <__bad_interrupt>
     15e:	00 00       	nop
     160:	cd c0       	rjmp	.+410    	; 0x2fc <__bad_interrupt>
     162:	00 00       	nop
     164:	cb c0       	rjmp	.+406    	; 0x2fc <__bad_interrupt>
     166:	00 00       	nop
     168:	c9 c0       	rjmp	.+402    	; 0x2fc <__bad_interrupt>
     16a:	00 00       	nop
     16c:	0c 94 6d 2b 	jmp	0x56da	; 0x56da <__vector_91>
     170:	c5 c0       	rjmp	.+394    	; 0x2fc <__bad_interrupt>
     172:	00 00       	nop
     174:	c3 c0       	rjmp	.+390    	; 0x2fc <__bad_interrupt>
     176:	00 00       	nop
     178:	c1 c0       	rjmp	.+386    	; 0x2fc <__bad_interrupt>
     17a:	00 00       	nop
     17c:	bf c0       	rjmp	.+382    	; 0x2fc <__bad_interrupt>
     17e:	00 00       	nop
     180:	bd c0       	rjmp	.+378    	; 0x2fc <__bad_interrupt>
     182:	00 00       	nop
     184:	bb c0       	rjmp	.+374    	; 0x2fc <__bad_interrupt>
     186:	00 00       	nop
     188:	b9 c0       	rjmp	.+370    	; 0x2fc <__bad_interrupt>
     18a:	00 00       	nop
     18c:	b7 c0       	rjmp	.+366    	; 0x2fc <__bad_interrupt>
     18e:	00 00       	nop
     190:	b5 c0       	rjmp	.+362    	; 0x2fc <__bad_interrupt>
     192:	00 00       	nop
     194:	b3 c0       	rjmp	.+358    	; 0x2fc <__bad_interrupt>
     196:	00 00       	nop
     198:	b1 c0       	rjmp	.+354    	; 0x2fc <__bad_interrupt>
     19a:	00 00       	nop
     19c:	af c0       	rjmp	.+350    	; 0x2fc <__bad_interrupt>
     19e:	00 00       	nop
     1a0:	ad c0       	rjmp	.+346    	; 0x2fc <__bad_interrupt>
     1a2:	00 00       	nop
     1a4:	ab c0       	rjmp	.+342    	; 0x2fc <__bad_interrupt>
     1a6:	00 00       	nop
     1a8:	a9 c0       	rjmp	.+338    	; 0x2fc <__bad_interrupt>
     1aa:	00 00       	nop
     1ac:	a7 c0       	rjmp	.+334    	; 0x2fc <__bad_interrupt>
     1ae:	00 00       	nop
     1b0:	a5 c0       	rjmp	.+330    	; 0x2fc <__bad_interrupt>
     1b2:	00 00       	nop
     1b4:	a3 c0       	rjmp	.+326    	; 0x2fc <__bad_interrupt>
     1b6:	00 00       	nop
     1b8:	a1 c0       	rjmp	.+322    	; 0x2fc <__bad_interrupt>
     1ba:	00 00       	nop
     1bc:	9f c0       	rjmp	.+318    	; 0x2fc <__bad_interrupt>
     1be:	00 00       	nop
     1c0:	9d c0       	rjmp	.+314    	; 0x2fc <__bad_interrupt>
     1c2:	00 00       	nop
     1c4:	9b c0       	rjmp	.+310    	; 0x2fc <__bad_interrupt>
     1c6:	00 00       	nop
     1c8:	99 c0       	rjmp	.+306    	; 0x2fc <__bad_interrupt>
     1ca:	00 00       	nop
     1cc:	97 c0       	rjmp	.+302    	; 0x2fc <__bad_interrupt>
     1ce:	00 00       	nop
     1d0:	95 c0       	rjmp	.+298    	; 0x2fc <__bad_interrupt>
     1d2:	00 00       	nop
     1d4:	93 c0       	rjmp	.+294    	; 0x2fc <__bad_interrupt>
     1d6:	00 00       	nop
     1d8:	91 c0       	rjmp	.+290    	; 0x2fc <__bad_interrupt>
     1da:	00 00       	nop
     1dc:	8f c0       	rjmp	.+286    	; 0x2fc <__bad_interrupt>
     1de:	00 00       	nop
     1e0:	8d c0       	rjmp	.+282    	; 0x2fc <__bad_interrupt>
     1e2:	00 00       	nop
     1e4:	8b c0       	rjmp	.+278    	; 0x2fc <__bad_interrupt>
     1e6:	00 00       	nop
     1e8:	89 c0       	rjmp	.+274    	; 0x2fc <__bad_interrupt>
     1ea:	00 00       	nop
     1ec:	87 c0       	rjmp	.+270    	; 0x2fc <__bad_interrupt>
     1ee:	00 00       	nop
     1f0:	85 c0       	rjmp	.+266    	; 0x2fc <__bad_interrupt>
     1f2:	00 00       	nop
     1f4:	83 c0       	rjmp	.+262    	; 0x2fc <__bad_interrupt>
     1f6:	00 00       	nop
     1f8:	81 c0       	rjmp	.+258    	; 0x2fc <__bad_interrupt>
     1fa:	00 00       	nop
     1fc:	31 2a       	or	r3, r17
     1fe:	2e 2a       	or	r2, r30
     200:	2b 2a       	or	r2, r27
     202:	37 2a       	or	r3, r23
     204:	28 2a       	or	r2, r24
     206:	26 2a       	or	r2, r22
     208:	39 2a       	or	r3, r25
     20a:	39 2a       	or	r3, r25
     20c:	39 2a       	or	r3, r25
     20e:	39 2a       	or	r3, r25
     210:	39 2a       	or	r3, r25
     212:	39 2a       	or	r3, r25
     214:	39 2a       	or	r3, r25
     216:	39 2a       	or	r3, r25
     218:	39 2a       	or	r3, r25
     21a:	39 2a       	or	r3, r25
     21c:	39 2a       	or	r3, r25
     21e:	39 2a       	or	r3, r25
     220:	34 2a       	or	r3, r20
     222:	08 00       	.word	0x0008	; ????
     224:	00 00       	nop
     226:	be 92       	st	-X, r11
     228:	24 49       	sbci	r18, 0x94	; 148
     22a:	12 3e       	cpi	r17, 0xE2	; 226
     22c:	ab aa       	std	Y+51, r10	; 0x33
     22e:	aa 2a       	or	r10, r26
     230:	be cd       	rjmp	.-1156   	; 0xfffffdae <__eeprom_end+0xff7efdae>
     232:	cc cc       	rjmp	.-1640   	; 0xfffffbcc <__eeprom_end+0xff7efbcc>
     234:	4c 3e       	cpi	r20, 0xEC	; 236
     236:	00 00       	nop
     238:	00 80       	ld	r0, Z
     23a:	be ab       	std	Y+54, r27	; 0x36
     23c:	aa aa       	std	Y+50, r10	; 0x32
     23e:	aa 3e       	cpi	r26, 0xEA	; 234
     240:	00 00       	nop
     242:	00 00       	nop
     244:	bf 00       	.word	0x00bf	; ????
     246:	00 00       	nop
     248:	80 3f       	cpi	r24, 0xF0	; 240
     24a:	00 00       	nop
     24c:	00 00       	nop
     24e:	00 08       	sbc	r0, r0
     250:	41 78       	andi	r20, 0x81	; 129
     252:	d3 bb       	out	0x13, r29	; 19
     254:	43 87       	std	Z+11, r20	; 0x0b
     256:	d1 13       	cpse	r29, r17
     258:	3d 19       	sub	r19, r13
     25a:	0e 3c       	cpi	r16, 0xCE	; 206
     25c:	c3 bd       	out	0x23, r28	; 35
     25e:	42 82       	std	Z+2, r4	; 0x02
     260:	ad 2b       	or	r26, r29
     262:	3e 68       	ori	r19, 0x8E	; 142
     264:	ec 82       	std	Y+4, r14	; 0x04
     266:	76 be       	out	0x36, r7	; 54
     268:	d9 8f       	std	Y+25, r29	; 0x19
     26a:	e1 a9       	ldd	r30, Z+49	; 0x31
     26c:	3e 4c       	sbci	r19, 0xCE	; 206
     26e:	80 ef       	ldi	r24, 0xF0	; 240
     270:	ff be       	out	0x3f, r15	; 63
     272:	01 c4       	rjmp	.+2050   	; 0xa76 <__vector_19+0x28>
     274:	ff 7f       	andi	r31, 0xFF	; 255
     276:	3f 00       	.word	0x003f	; ????
     278:	00 00       	nop
     27a:	00 00       	nop
     27c:	07 63       	ori	r16, 0x37	; 55
     27e:	42 36       	cpi	r20, 0x62	; 98
     280:	b7 9b       	sbis	0x16, 7	; 22
     282:	d8 a7       	std	Y+40, r29	; 0x28
     284:	1a 39       	cpi	r17, 0x9A	; 154
     286:	68 56       	subi	r22, 0x68	; 104
     288:	18 ae       	std	Y+56, r1	; 0x38
     28a:	ba ab       	std	Y+50, r27	; 0x32
     28c:	55 8c       	ldd	r5, Z+29	; 0x1d
     28e:	1d 3c       	cpi	r17, 0xCD	; 205
     290:	b7 cc       	rjmp	.-1682   	; 0xfffffc00 <__eeprom_end+0xff7efc00>
     292:	57 63       	ori	r21, 0x37	; 55
     294:	bd 6d       	ori	r27, 0xDD	; 221
     296:	ed fd       	.word	0xfded	; ????
     298:	75 3e       	cpi	r23, 0xE5	; 229
     29a:	f6 17       	cp	r31, r22
     29c:	72 31       	cpi	r23, 0x12	; 18
     29e:	bf 00       	.word	0x00bf	; ????
     2a0:	00 00       	nop
     2a2:	80 3f       	cpi	r24, 0xF0	; 240

000002a4 <__trampolines_end>:
     2a4:	63 64       	ori	r22, 0x43	; 67
     2a6:	69 6e       	ori	r22, 0xE9	; 233
     2a8:	6f 70       	andi	r22, 0x0F	; 15
     2aa:	73 75       	andi	r23, 0x53	; 83
     2ac:	78 58       	subi	r23, 0x88	; 136
     2ae:	5b 00       	.word	0x005b	; ????

000002b0 <__ctors_end>:
     2b0:	11 24       	eor	r1, r1
     2b2:	1f be       	out	0x3f, r1	; 63
     2b4:	cf ef       	ldi	r28, 0xFF	; 255
     2b6:	cd bf       	out	0x3d, r28	; 61
     2b8:	df e3       	ldi	r29, 0x3F	; 63
     2ba:	de bf       	out	0x3e, r29	; 62
     2bc:	00 e0       	ldi	r16, 0x00	; 0
     2be:	0c bf       	out	0x3c, r16	; 60
     2c0:	18 be       	out	0x38, r1	; 56
     2c2:	19 be       	out	0x39, r1	; 57
     2c4:	1a be       	out	0x3a, r1	; 58
     2c6:	1b be       	out	0x3b, r1	; 59

000002c8 <__do_copy_data>:
     2c8:	11 e2       	ldi	r17, 0x21	; 33
     2ca:	a0 e0       	ldi	r26, 0x00	; 0
     2cc:	b0 e2       	ldi	r27, 0x20	; 32
     2ce:	ec e7       	ldi	r30, 0x7C	; 124
     2d0:	f7 e7       	ldi	r31, 0x77	; 119
     2d2:	00 e0       	ldi	r16, 0x00	; 0
     2d4:	0b bf       	out	0x3b, r16	; 59
     2d6:	02 c0       	rjmp	.+4      	; 0x2dc <__do_copy_data+0x14>
     2d8:	07 90       	elpm	r0, Z+
     2da:	0d 92       	st	X+, r0
     2dc:	a4 3a       	cpi	r26, 0xA4	; 164
     2de:	b1 07       	cpc	r27, r17
     2e0:	d9 f7       	brne	.-10     	; 0x2d8 <__do_copy_data+0x10>
     2e2:	1b be       	out	0x3b, r1	; 59

000002e4 <__do_clear_bss>:
     2e4:	22 e2       	ldi	r18, 0x22	; 34
     2e6:	a4 ea       	ldi	r26, 0xA4	; 164
     2e8:	b1 e2       	ldi	r27, 0x21	; 33
     2ea:	01 c0       	rjmp	.+2      	; 0x2ee <.do_clear_bss_start>

000002ec <.do_clear_bss_loop>:
     2ec:	1d 92       	st	X+, r1

000002ee <.do_clear_bss_start>:
     2ee:	ae 3f       	cpi	r26, 0xFE	; 254
     2f0:	b2 07       	cpc	r27, r18
     2f2:	e1 f7       	brne	.-8      	; 0x2ec <.do_clear_bss_loop>
     2f4:	0e 94 3a 2a 	call	0x5474	; 0x5474 <main>
     2f8:	0c 94 bc 3b 	jmp	0x7778	; 0x7778 <_exit>

000002fc <__bad_interrupt>:
     2fc:	81 ce       	rjmp	.-766    	; 0x0 <__vectors>

000002fe <_read>:
     2fe:	cf 93       	push	r28
     300:	df 93       	push	r29
     302:	1f 92       	push	r1
     304:	cd b7       	in	r28, 0x3d	; 61
     306:	de b7       	in	r29, 0x3e	; 62
     308:	80 91 4d 22 	lds	r24, 0x224D	; 0x80224d <stdio_base>
     30c:	90 91 4e 22 	lds	r25, 0x224E	; 0x80224e <stdio_base+0x1>
     310:	e0 91 49 22 	lds	r30, 0x2249	; 0x802249 <ptr_get>
     314:	f0 91 4a 22 	lds	r31, 0x224A	; 0x80224a <ptr_get+0x1>
     318:	be 01       	movw	r22, r28
     31a:	6f 5f       	subi	r22, 0xFF	; 255
     31c:	7f 4f       	sbci	r23, 0xFF	; 255
     31e:	19 95       	eicall
     320:	89 81       	ldd	r24, Y+1	; 0x01
     322:	08 2e       	mov	r0, r24
     324:	00 0c       	add	r0, r0
     326:	99 0b       	sbc	r25, r25
     328:	0f 90       	pop	r0
     32a:	df 91       	pop	r29
     32c:	cf 91       	pop	r28
     32e:	08 95       	ret

00000330 <_write>:
     330:	68 2f       	mov	r22, r24
     332:	80 91 4d 22 	lds	r24, 0x224D	; 0x80224d <stdio_base>
     336:	90 91 4e 22 	lds	r25, 0x224E	; 0x80224e <stdio_base+0x1>
     33a:	e0 91 4b 22 	lds	r30, 0x224B	; 0x80224b <ptr_put>
     33e:	f0 91 4c 22 	lds	r31, 0x224C	; 0x80224c <ptr_put+0x1>
     342:	19 95       	eicall
     344:	99 23       	and	r25, r25
     346:	1c f0       	brlt	.+6      	; 0x34e <_write+0x1e>
     348:	81 e0       	ldi	r24, 0x01	; 1
     34a:	90 e0       	ldi	r25, 0x00	; 0
     34c:	08 95       	ret
     34e:	8f ef       	ldi	r24, 0xFF	; 255
     350:	9f ef       	ldi	r25, 0xFF	; 255
     352:	08 95       	ret

00000354 <__vector_68>:
     354:	1f 92       	push	r1
     356:	0f 92       	push	r0
     358:	0f b6       	in	r0, 0x3f	; 63
     35a:	0f 92       	push	r0
     35c:	11 24       	eor	r1, r1
     35e:	08 b6       	in	r0, 0x38	; 56
     360:	0f 92       	push	r0
     362:	18 be       	out	0x38, r1	; 56
     364:	09 b6       	in	r0, 0x39	; 57
     366:	0f 92       	push	r0
     368:	19 be       	out	0x39, r1	; 57
     36a:	0b b6       	in	r0, 0x3b	; 59
     36c:	0f 92       	push	r0
     36e:	1b be       	out	0x3b, r1	; 59
     370:	2f 93       	push	r18
     372:	3f 93       	push	r19
     374:	4f 93       	push	r20
     376:	5f 93       	push	r21
     378:	6f 93       	push	r22
     37a:	7f 93       	push	r23
     37c:	8f 93       	push	r24
     37e:	9f 93       	push	r25
     380:	af 93       	push	r26
     382:	bf 93       	push	r27
     384:	ef 93       	push	r30
     386:	ff 93       	push	r31
     388:	e0 91 a5 21 	lds	r30, 0x21A5	; 0x8021a5 <ac_aca_callback>
     38c:	f0 91 a6 21 	lds	r31, 0x21A6	; 0x8021a6 <ac_aca_callback+0x1>
     390:	30 97       	sbiw	r30, 0x00	; 0
     392:	79 f0       	breq	.+30     	; 0x3b2 <__vector_68+0x5e>
     394:	80 91 87 03 	lds	r24, 0x0387	; 0x800387 <__TEXT_REGION_LENGTH__+0x700387>
     398:	84 ff       	sbrs	r24, 4
     39a:	06 c0       	rjmp	.+12     	; 0x3a8 <__vector_68+0x54>
     39c:	40 e0       	ldi	r20, 0x00	; 0
     39e:	60 e0       	ldi	r22, 0x00	; 0
     3a0:	80 e8       	ldi	r24, 0x80	; 128
     3a2:	93 e0       	ldi	r25, 0x03	; 3
     3a4:	19 95       	eicall
     3a6:	05 c0       	rjmp	.+10     	; 0x3b2 <__vector_68+0x5e>
     3a8:	40 e8       	ldi	r20, 0x80	; 128
     3aa:	60 e0       	ldi	r22, 0x00	; 0
     3ac:	80 e8       	ldi	r24, 0x80	; 128
     3ae:	93 e0       	ldi	r25, 0x03	; 3
     3b0:	19 95       	eicall
     3b2:	ff 91       	pop	r31
     3b4:	ef 91       	pop	r30
     3b6:	bf 91       	pop	r27
     3b8:	af 91       	pop	r26
     3ba:	9f 91       	pop	r25
     3bc:	8f 91       	pop	r24
     3be:	7f 91       	pop	r23
     3c0:	6f 91       	pop	r22
     3c2:	5f 91       	pop	r21
     3c4:	4f 91       	pop	r20
     3c6:	3f 91       	pop	r19
     3c8:	2f 91       	pop	r18
     3ca:	0f 90       	pop	r0
     3cc:	0b be       	out	0x3b, r0	; 59
     3ce:	0f 90       	pop	r0
     3d0:	09 be       	out	0x39, r0	; 57
     3d2:	0f 90       	pop	r0
     3d4:	08 be       	out	0x38, r0	; 56
     3d6:	0f 90       	pop	r0
     3d8:	0f be       	out	0x3f, r0	; 63
     3da:	0f 90       	pop	r0
     3dc:	1f 90       	pop	r1
     3de:	18 95       	reti

000003e0 <__vector_69>:
     3e0:	1f 92       	push	r1
     3e2:	0f 92       	push	r0
     3e4:	0f b6       	in	r0, 0x3f	; 63
     3e6:	0f 92       	push	r0
     3e8:	11 24       	eor	r1, r1
     3ea:	08 b6       	in	r0, 0x38	; 56
     3ec:	0f 92       	push	r0
     3ee:	18 be       	out	0x38, r1	; 56
     3f0:	09 b6       	in	r0, 0x39	; 57
     3f2:	0f 92       	push	r0
     3f4:	19 be       	out	0x39, r1	; 57
     3f6:	0b b6       	in	r0, 0x3b	; 59
     3f8:	0f 92       	push	r0
     3fa:	1b be       	out	0x3b, r1	; 59
     3fc:	2f 93       	push	r18
     3fe:	3f 93       	push	r19
     400:	4f 93       	push	r20
     402:	5f 93       	push	r21
     404:	6f 93       	push	r22
     406:	7f 93       	push	r23
     408:	8f 93       	push	r24
     40a:	9f 93       	push	r25
     40c:	af 93       	push	r26
     40e:	bf 93       	push	r27
     410:	ef 93       	push	r30
     412:	ff 93       	push	r31
     414:	e0 91 a5 21 	lds	r30, 0x21A5	; 0x8021a5 <ac_aca_callback>
     418:	f0 91 a6 21 	lds	r31, 0x21A6	; 0x8021a6 <ac_aca_callback+0x1>
     41c:	30 97       	sbiw	r30, 0x00	; 0
     41e:	79 f0       	breq	.+30     	; 0x43e <__LOCK_REGION_LENGTH__+0x3e>
     420:	80 91 87 03 	lds	r24, 0x0387	; 0x800387 <__TEXT_REGION_LENGTH__+0x700387>
     424:	85 ff       	sbrs	r24, 5
     426:	06 c0       	rjmp	.+12     	; 0x434 <__LOCK_REGION_LENGTH__+0x34>
     428:	40 e0       	ldi	r20, 0x00	; 0
     42a:	61 e0       	ldi	r22, 0x01	; 1
     42c:	80 e8       	ldi	r24, 0x80	; 128
     42e:	93 e0       	ldi	r25, 0x03	; 3
     430:	19 95       	eicall
     432:	05 c0       	rjmp	.+10     	; 0x43e <__LOCK_REGION_LENGTH__+0x3e>
     434:	40 e8       	ldi	r20, 0x80	; 128
     436:	61 e0       	ldi	r22, 0x01	; 1
     438:	80 e8       	ldi	r24, 0x80	; 128
     43a:	93 e0       	ldi	r25, 0x03	; 3
     43c:	19 95       	eicall
     43e:	ff 91       	pop	r31
     440:	ef 91       	pop	r30
     442:	bf 91       	pop	r27
     444:	af 91       	pop	r26
     446:	9f 91       	pop	r25
     448:	8f 91       	pop	r24
     44a:	7f 91       	pop	r23
     44c:	6f 91       	pop	r22
     44e:	5f 91       	pop	r21
     450:	4f 91       	pop	r20
     452:	3f 91       	pop	r19
     454:	2f 91       	pop	r18
     456:	0f 90       	pop	r0
     458:	0b be       	out	0x3b, r0	; 59
     45a:	0f 90       	pop	r0
     45c:	09 be       	out	0x39, r0	; 57
     45e:	0f 90       	pop	r0
     460:	08 be       	out	0x38, r0	; 56
     462:	0f 90       	pop	r0
     464:	0f be       	out	0x3f, r0	; 63
     466:	0f 90       	pop	r0
     468:	1f 90       	pop	r1
     46a:	18 95       	reti

0000046c <__vector_70>:
     46c:	1f 92       	push	r1
     46e:	0f 92       	push	r0
     470:	0f b6       	in	r0, 0x3f	; 63
     472:	0f 92       	push	r0
     474:	11 24       	eor	r1, r1
     476:	08 b6       	in	r0, 0x38	; 56
     478:	0f 92       	push	r0
     47a:	18 be       	out	0x38, r1	; 56
     47c:	09 b6       	in	r0, 0x39	; 57
     47e:	0f 92       	push	r0
     480:	19 be       	out	0x39, r1	; 57
     482:	0b b6       	in	r0, 0x3b	; 59
     484:	0f 92       	push	r0
     486:	1b be       	out	0x3b, r1	; 59
     488:	2f 93       	push	r18
     48a:	3f 93       	push	r19
     48c:	4f 93       	push	r20
     48e:	5f 93       	push	r21
     490:	6f 93       	push	r22
     492:	7f 93       	push	r23
     494:	8f 93       	push	r24
     496:	9f 93       	push	r25
     498:	af 93       	push	r26
     49a:	bf 93       	push	r27
     49c:	ef 93       	push	r30
     49e:	ff 93       	push	r31
     4a0:	e0 91 a5 21 	lds	r30, 0x21A5	; 0x8021a5 <ac_aca_callback>
     4a4:	f0 91 a6 21 	lds	r31, 0x21A6	; 0x8021a6 <ac_aca_callback+0x1>
     4a8:	30 97       	sbiw	r30, 0x00	; 0
     4aa:	39 f0       	breq	.+14     	; 0x4ba <__vector_70+0x4e>
     4ac:	40 91 87 03 	lds	r20, 0x0387	; 0x800387 <__TEXT_REGION_LENGTH__+0x700387>
     4b0:	40 7c       	andi	r20, 0xC0	; 192
     4b2:	60 e0       	ldi	r22, 0x00	; 0
     4b4:	80 e8       	ldi	r24, 0x80	; 128
     4b6:	93 e0       	ldi	r25, 0x03	; 3
     4b8:	19 95       	eicall
     4ba:	ff 91       	pop	r31
     4bc:	ef 91       	pop	r30
     4be:	bf 91       	pop	r27
     4c0:	af 91       	pop	r26
     4c2:	9f 91       	pop	r25
     4c4:	8f 91       	pop	r24
     4c6:	7f 91       	pop	r23
     4c8:	6f 91       	pop	r22
     4ca:	5f 91       	pop	r21
     4cc:	4f 91       	pop	r20
     4ce:	3f 91       	pop	r19
     4d0:	2f 91       	pop	r18
     4d2:	0f 90       	pop	r0
     4d4:	0b be       	out	0x3b, r0	; 59
     4d6:	0f 90       	pop	r0
     4d8:	09 be       	out	0x39, r0	; 57
     4da:	0f 90       	pop	r0
     4dc:	08 be       	out	0x38, r0	; 56
     4de:	0f 90       	pop	r0
     4e0:	0f be       	out	0x3f, r0	; 63
     4e2:	0f 90       	pop	r0
     4e4:	1f 90       	pop	r1
     4e6:	18 95       	reti

000004e8 <ac_write_config>:
     4e8:	cf 92       	push	r12
     4ea:	df 92       	push	r13
     4ec:	ef 92       	push	r14
     4ee:	ff 92       	push	r15
     4f0:	0f 93       	push	r16
     4f2:	1f 93       	push	r17
     4f4:	cf 93       	push	r28
     4f6:	df 93       	push	r29
     4f8:	1f 92       	push	r1
     4fa:	cd b7       	in	r28, 0x3d	; 61
     4fc:	de b7       	in	r29, 0x3e	; 62
     4fe:	2f b7       	in	r18, 0x3f	; 63
     500:	29 83       	std	Y+1, r18	; 0x01
     502:	f8 94       	cli
     504:	c9 80       	ldd	r12, Y+1	; 0x01
     506:	80 38       	cpi	r24, 0x80	; 128
     508:	23 e0       	ldi	r18, 0x03	; 3
     50a:	92 07       	cpc	r25, r18
     50c:	d9 f4       	brne	.+54     	; 0x544 <ac_write_config+0x5c>
     50e:	7a 01       	movw	r14, r20
     510:	d6 2e       	mov	r13, r22
     512:	8c 01       	movw	r16, r24
     514:	80 91 a4 21 	lds	r24, 0x21A4	; 0x8021a4 <__data_end>
     518:	81 11       	cpse	r24, r1
     51a:	04 c0       	rjmp	.+8      	; 0x524 <ac_write_config+0x3c>
     51c:	61 e0       	ldi	r22, 0x01	; 1
     51e:	81 e0       	ldi	r24, 0x01	; 1
     520:	0e 94 5b 17 	call	0x2eb6	; 0x2eb6 <sysclk_enable_module>
     524:	80 91 a4 21 	lds	r24, 0x21A4	; 0x8021a4 <__data_end>
     528:	8f 5f       	subi	r24, 0xFF	; 255
     52a:	80 93 a4 21 	sts	0x21A4, r24	; 0x8021a4 <__data_end>
     52e:	f7 01       	movw	r30, r14
     530:	82 81       	ldd	r24, Z+2	; 0x02
     532:	f8 01       	movw	r30, r16
     534:	85 83       	std	Z+5, r24	; 0x05
     536:	f7 01       	movw	r30, r14
     538:	83 81       	ldd	r24, Z+3	; 0x03
     53a:	f8 01       	movw	r30, r16
     53c:	86 83       	std	Z+6, r24	; 0x06
     53e:	dd 20       	and	r13, r13
     540:	19 f0       	breq	.+6      	; 0x548 <ac_write_config+0x60>
     542:	0b c0       	rjmp	.+22     	; 0x55a <ac_write_config+0x72>
     544:	cf be       	out	0x3f, r12	; 63
     546:	1d c0       	rjmp	.+58     	; 0x582 <ac_write_config+0x9a>
     548:	f7 01       	movw	r30, r14
     54a:	81 81       	ldd	r24, Z+1	; 0x01
     54c:	f8 01       	movw	r30, r16
     54e:	82 83       	std	Z+2, r24	; 0x02
     550:	f7 01       	movw	r30, r14
     552:	80 81       	ld	r24, Z
     554:	f8 01       	movw	r30, r16
     556:	80 83       	st	Z, r24
     558:	08 c0       	rjmp	.+16     	; 0x56a <ac_write_config+0x82>
     55a:	f7 01       	movw	r30, r14
     55c:	81 81       	ldd	r24, Z+1	; 0x01
     55e:	f8 01       	movw	r30, r16
     560:	83 83       	std	Z+3, r24	; 0x03
     562:	f7 01       	movw	r30, r14
     564:	80 81       	ld	r24, Z
     566:	f8 01       	movw	r30, r16
     568:	81 83       	std	Z+1, r24	; 0x01
     56a:	80 91 a4 21 	lds	r24, 0x21A4	; 0x8021a4 <__data_end>
     56e:	81 50       	subi	r24, 0x01	; 1
     570:	80 93 a4 21 	sts	0x21A4, r24	; 0x8021a4 <__data_end>
     574:	81 11       	cpse	r24, r1
     576:	04 c0       	rjmp	.+8      	; 0x580 <ac_write_config+0x98>
     578:	61 e0       	ldi	r22, 0x01	; 1
     57a:	81 e0       	ldi	r24, 0x01	; 1
     57c:	0e 94 71 17 	call	0x2ee2	; 0x2ee2 <sysclk_disable_module>
     580:	cf be       	out	0x3f, r12	; 63
     582:	0f 90       	pop	r0
     584:	df 91       	pop	r29
     586:	cf 91       	pop	r28
     588:	1f 91       	pop	r17
     58a:	0f 91       	pop	r16
     58c:	ff 90       	pop	r15
     58e:	ef 90       	pop	r14
     590:	df 90       	pop	r13
     592:	cf 90       	pop	r12
     594:	08 95       	ret

00000596 <ac_enable>:
     596:	ef 92       	push	r14
     598:	ff 92       	push	r15
     59a:	0f 93       	push	r16
     59c:	1f 93       	push	r17
     59e:	cf 93       	push	r28
     5a0:	df 93       	push	r29
     5a2:	1f 92       	push	r1
     5a4:	1f 92       	push	r1
     5a6:	cd b7       	in	r28, 0x3d	; 61
     5a8:	de b7       	in	r29, 0x3e	; 62
     5aa:	2f b7       	in	r18, 0x3f	; 63
     5ac:	2a 83       	std	Y+2, r18	; 0x02
     5ae:	f8 94       	cli
     5b0:	ea 80       	ldd	r14, Y+2	; 0x02
     5b2:	80 38       	cpi	r24, 0x80	; 128
     5b4:	23 e0       	ldi	r18, 0x03	; 3
     5b6:	92 07       	cpc	r25, r18
     5b8:	09 f5       	brne	.+66     	; 0x5fc <ac_enable+0x66>
     5ba:	f6 2e       	mov	r15, r22
     5bc:	8c 01       	movw	r16, r24
     5be:	80 91 a4 21 	lds	r24, 0x21A4	; 0x8021a4 <__data_end>
     5c2:	81 11       	cpse	r24, r1
     5c4:	04 c0       	rjmp	.+8      	; 0x5ce <ac_enable+0x38>
     5c6:	61 e0       	ldi	r22, 0x01	; 1
     5c8:	81 e0       	ldi	r24, 0x01	; 1
     5ca:	0e 94 5b 17 	call	0x2eb6	; 0x2eb6 <sysclk_enable_module>
     5ce:	80 91 a4 21 	lds	r24, 0x21A4	; 0x8021a4 <__data_end>
     5d2:	8f 5f       	subi	r24, 0xFF	; 255
     5d4:	80 93 a4 21 	sts	0x21A4, r24	; 0x8021a4 <__data_end>
     5d8:	80 91 44 22 	lds	r24, 0x2244	; 0x802244 <sleepmgr_locks+0x1>
     5dc:	8f 3f       	cpi	r24, 0xFF	; 255
     5de:	09 f4       	brne	.+2      	; 0x5e2 <ac_enable+0x4c>
     5e0:	ff cf       	rjmp	.-2      	; 0x5e0 <ac_enable+0x4a>
     5e2:	8f b7       	in	r24, 0x3f	; 63
     5e4:	89 83       	std	Y+1, r24	; 0x01
     5e6:	f8 94       	cli
     5e8:	99 81       	ldd	r25, Y+1	; 0x01
     5ea:	e3 e4       	ldi	r30, 0x43	; 67
     5ec:	f2 e2       	ldi	r31, 0x22	; 34
     5ee:	81 81       	ldd	r24, Z+1	; 0x01
     5f0:	8f 5f       	subi	r24, 0xFF	; 255
     5f2:	81 83       	std	Z+1, r24	; 0x01
     5f4:	9f bf       	out	0x3f, r25	; 63
     5f6:	ff 20       	and	r15, r15
     5f8:	19 f0       	breq	.+6      	; 0x600 <ac_enable+0x6a>
     5fa:	07 c0       	rjmp	.+14     	; 0x60a <ac_enable+0x74>
     5fc:	ef be       	out	0x3f, r14	; 63
     5fe:	0a c0       	rjmp	.+20     	; 0x614 <ac_enable+0x7e>
     600:	f8 01       	movw	r30, r16
     602:	80 81       	ld	r24, Z
     604:	81 60       	ori	r24, 0x01	; 1
     606:	80 83       	st	Z, r24
     608:	04 c0       	rjmp	.+8      	; 0x612 <ac_enable+0x7c>
     60a:	f8 01       	movw	r30, r16
     60c:	81 81       	ldd	r24, Z+1	; 0x01
     60e:	81 60       	ori	r24, 0x01	; 1
     610:	81 83       	std	Z+1, r24	; 0x01
     612:	ef be       	out	0x3f, r14	; 63
     614:	0f 90       	pop	r0
     616:	0f 90       	pop	r0
     618:	df 91       	pop	r29
     61a:	cf 91       	pop	r28
     61c:	1f 91       	pop	r17
     61e:	0f 91       	pop	r16
     620:	ff 90       	pop	r15
     622:	ef 90       	pop	r14
     624:	08 95       	ret

00000626 <ac_set_interrupt_callback>:
     626:	80 38       	cpi	r24, 0x80	; 128
     628:	93 40       	sbci	r25, 0x03	; 3
     62a:	21 f4       	brne	.+8      	; 0x634 <ac_set_interrupt_callback+0xe>
     62c:	60 93 a5 21 	sts	0x21A5, r22	; 0x8021a5 <ac_aca_callback>
     630:	70 93 a6 21 	sts	0x21A6, r23	; 0x8021a6 <ac_aca_callback+0x1>
     634:	08 95       	ret

00000636 <__vector_71>:
     636:	1f 92       	push	r1
     638:	0f 92       	push	r0
     63a:	0f b6       	in	r0, 0x3f	; 63
     63c:	0f 92       	push	r0
     63e:	11 24       	eor	r1, r1
     640:	08 b6       	in	r0, 0x38	; 56
     642:	0f 92       	push	r0
     644:	18 be       	out	0x38, r1	; 56
     646:	09 b6       	in	r0, 0x39	; 57
     648:	0f 92       	push	r0
     64a:	19 be       	out	0x39, r1	; 57
     64c:	0b b6       	in	r0, 0x3b	; 59
     64e:	0f 92       	push	r0
     650:	1b be       	out	0x3b, r1	; 59
     652:	2f 93       	push	r18
     654:	3f 93       	push	r19
     656:	4f 93       	push	r20
     658:	5f 93       	push	r21
     65a:	6f 93       	push	r22
     65c:	7f 93       	push	r23
     65e:	8f 93       	push	r24
     660:	9f 93       	push	r25
     662:	af 93       	push	r26
     664:	bf 93       	push	r27
     666:	ef 93       	push	r30
     668:	ff 93       	push	r31
     66a:	40 91 24 02 	lds	r20, 0x0224	; 0x800224 <__TEXT_REGION_LENGTH__+0x700224>
     66e:	50 91 25 02 	lds	r21, 0x0225	; 0x800225 <__TEXT_REGION_LENGTH__+0x700225>
     672:	e0 91 4f 22 	lds	r30, 0x224F	; 0x80224f <adca_callback>
     676:	f0 91 50 22 	lds	r31, 0x2250	; 0x802250 <adca_callback+0x1>
     67a:	61 e0       	ldi	r22, 0x01	; 1
     67c:	80 e0       	ldi	r24, 0x00	; 0
     67e:	92 e0       	ldi	r25, 0x02	; 2
     680:	19 95       	eicall
     682:	ff 91       	pop	r31
     684:	ef 91       	pop	r30
     686:	bf 91       	pop	r27
     688:	af 91       	pop	r26
     68a:	9f 91       	pop	r25
     68c:	8f 91       	pop	r24
     68e:	7f 91       	pop	r23
     690:	6f 91       	pop	r22
     692:	5f 91       	pop	r21
     694:	4f 91       	pop	r20
     696:	3f 91       	pop	r19
     698:	2f 91       	pop	r18
     69a:	0f 90       	pop	r0
     69c:	0b be       	out	0x3b, r0	; 59
     69e:	0f 90       	pop	r0
     6a0:	09 be       	out	0x39, r0	; 57
     6a2:	0f 90       	pop	r0
     6a4:	08 be       	out	0x38, r0	; 56
     6a6:	0f 90       	pop	r0
     6a8:	0f be       	out	0x3f, r0	; 63
     6aa:	0f 90       	pop	r0
     6ac:	1f 90       	pop	r1
     6ae:	18 95       	reti

000006b0 <__vector_72>:
     6b0:	1f 92       	push	r1
     6b2:	0f 92       	push	r0
     6b4:	0f b6       	in	r0, 0x3f	; 63
     6b6:	0f 92       	push	r0
     6b8:	11 24       	eor	r1, r1
     6ba:	08 b6       	in	r0, 0x38	; 56
     6bc:	0f 92       	push	r0
     6be:	18 be       	out	0x38, r1	; 56
     6c0:	09 b6       	in	r0, 0x39	; 57
     6c2:	0f 92       	push	r0
     6c4:	19 be       	out	0x39, r1	; 57
     6c6:	0b b6       	in	r0, 0x3b	; 59
     6c8:	0f 92       	push	r0
     6ca:	1b be       	out	0x3b, r1	; 59
     6cc:	2f 93       	push	r18
     6ce:	3f 93       	push	r19
     6d0:	4f 93       	push	r20
     6d2:	5f 93       	push	r21
     6d4:	6f 93       	push	r22
     6d6:	7f 93       	push	r23
     6d8:	8f 93       	push	r24
     6da:	9f 93       	push	r25
     6dc:	af 93       	push	r26
     6de:	bf 93       	push	r27
     6e0:	ef 93       	push	r30
     6e2:	ff 93       	push	r31
     6e4:	40 91 2c 02 	lds	r20, 0x022C	; 0x80022c <__TEXT_REGION_LENGTH__+0x70022c>
     6e8:	50 91 2d 02 	lds	r21, 0x022D	; 0x80022d <__TEXT_REGION_LENGTH__+0x70022d>
     6ec:	e0 91 4f 22 	lds	r30, 0x224F	; 0x80224f <adca_callback>
     6f0:	f0 91 50 22 	lds	r31, 0x2250	; 0x802250 <adca_callback+0x1>
     6f4:	62 e0       	ldi	r22, 0x02	; 2
     6f6:	80 e0       	ldi	r24, 0x00	; 0
     6f8:	92 e0       	ldi	r25, 0x02	; 2
     6fa:	19 95       	eicall
     6fc:	ff 91       	pop	r31
     6fe:	ef 91       	pop	r30
     700:	bf 91       	pop	r27
     702:	af 91       	pop	r26
     704:	9f 91       	pop	r25
     706:	8f 91       	pop	r24
     708:	7f 91       	pop	r23
     70a:	6f 91       	pop	r22
     70c:	5f 91       	pop	r21
     70e:	4f 91       	pop	r20
     710:	3f 91       	pop	r19
     712:	2f 91       	pop	r18
     714:	0f 90       	pop	r0
     716:	0b be       	out	0x3b, r0	; 59
     718:	0f 90       	pop	r0
     71a:	09 be       	out	0x39, r0	; 57
     71c:	0f 90       	pop	r0
     71e:	08 be       	out	0x38, r0	; 56
     720:	0f 90       	pop	r0
     722:	0f be       	out	0x3f, r0	; 63
     724:	0f 90       	pop	r0
     726:	1f 90       	pop	r1
     728:	18 95       	reti

0000072a <__vector_73>:
     72a:	1f 92       	push	r1
     72c:	0f 92       	push	r0
     72e:	0f b6       	in	r0, 0x3f	; 63
     730:	0f 92       	push	r0
     732:	11 24       	eor	r1, r1
     734:	08 b6       	in	r0, 0x38	; 56
     736:	0f 92       	push	r0
     738:	18 be       	out	0x38, r1	; 56
     73a:	09 b6       	in	r0, 0x39	; 57
     73c:	0f 92       	push	r0
     73e:	19 be       	out	0x39, r1	; 57
     740:	0b b6       	in	r0, 0x3b	; 59
     742:	0f 92       	push	r0
     744:	1b be       	out	0x3b, r1	; 59
     746:	2f 93       	push	r18
     748:	3f 93       	push	r19
     74a:	4f 93       	push	r20
     74c:	5f 93       	push	r21
     74e:	6f 93       	push	r22
     750:	7f 93       	push	r23
     752:	8f 93       	push	r24
     754:	9f 93       	push	r25
     756:	af 93       	push	r26
     758:	bf 93       	push	r27
     75a:	ef 93       	push	r30
     75c:	ff 93       	push	r31
     75e:	40 91 34 02 	lds	r20, 0x0234	; 0x800234 <__TEXT_REGION_LENGTH__+0x700234>
     762:	50 91 35 02 	lds	r21, 0x0235	; 0x800235 <__TEXT_REGION_LENGTH__+0x700235>
     766:	e0 91 4f 22 	lds	r30, 0x224F	; 0x80224f <adca_callback>
     76a:	f0 91 50 22 	lds	r31, 0x2250	; 0x802250 <adca_callback+0x1>
     76e:	64 e0       	ldi	r22, 0x04	; 4
     770:	80 e0       	ldi	r24, 0x00	; 0
     772:	92 e0       	ldi	r25, 0x02	; 2
     774:	19 95       	eicall
     776:	ff 91       	pop	r31
     778:	ef 91       	pop	r30
     77a:	bf 91       	pop	r27
     77c:	af 91       	pop	r26
     77e:	9f 91       	pop	r25
     780:	8f 91       	pop	r24
     782:	7f 91       	pop	r23
     784:	6f 91       	pop	r22
     786:	5f 91       	pop	r21
     788:	4f 91       	pop	r20
     78a:	3f 91       	pop	r19
     78c:	2f 91       	pop	r18
     78e:	0f 90       	pop	r0
     790:	0b be       	out	0x3b, r0	; 59
     792:	0f 90       	pop	r0
     794:	09 be       	out	0x39, r0	; 57
     796:	0f 90       	pop	r0
     798:	08 be       	out	0x38, r0	; 56
     79a:	0f 90       	pop	r0
     79c:	0f be       	out	0x3f, r0	; 63
     79e:	0f 90       	pop	r0
     7a0:	1f 90       	pop	r1
     7a2:	18 95       	reti

000007a4 <__vector_74>:
     7a4:	1f 92       	push	r1
     7a6:	0f 92       	push	r0
     7a8:	0f b6       	in	r0, 0x3f	; 63
     7aa:	0f 92       	push	r0
     7ac:	11 24       	eor	r1, r1
     7ae:	08 b6       	in	r0, 0x38	; 56
     7b0:	0f 92       	push	r0
     7b2:	18 be       	out	0x38, r1	; 56
     7b4:	09 b6       	in	r0, 0x39	; 57
     7b6:	0f 92       	push	r0
     7b8:	19 be       	out	0x39, r1	; 57
     7ba:	0b b6       	in	r0, 0x3b	; 59
     7bc:	0f 92       	push	r0
     7be:	1b be       	out	0x3b, r1	; 59
     7c0:	2f 93       	push	r18
     7c2:	3f 93       	push	r19
     7c4:	4f 93       	push	r20
     7c6:	5f 93       	push	r21
     7c8:	6f 93       	push	r22
     7ca:	7f 93       	push	r23
     7cc:	8f 93       	push	r24
     7ce:	9f 93       	push	r25
     7d0:	af 93       	push	r26
     7d2:	bf 93       	push	r27
     7d4:	ef 93       	push	r30
     7d6:	ff 93       	push	r31
     7d8:	40 91 3c 02 	lds	r20, 0x023C	; 0x80023c <__TEXT_REGION_LENGTH__+0x70023c>
     7dc:	50 91 3d 02 	lds	r21, 0x023D	; 0x80023d <__TEXT_REGION_LENGTH__+0x70023d>
     7e0:	e0 91 4f 22 	lds	r30, 0x224F	; 0x80224f <adca_callback>
     7e4:	f0 91 50 22 	lds	r31, 0x2250	; 0x802250 <adca_callback+0x1>
     7e8:	68 e0       	ldi	r22, 0x08	; 8
     7ea:	80 e0       	ldi	r24, 0x00	; 0
     7ec:	92 e0       	ldi	r25, 0x02	; 2
     7ee:	19 95       	eicall
     7f0:	ff 91       	pop	r31
     7f2:	ef 91       	pop	r30
     7f4:	bf 91       	pop	r27
     7f6:	af 91       	pop	r26
     7f8:	9f 91       	pop	r25
     7fa:	8f 91       	pop	r24
     7fc:	7f 91       	pop	r23
     7fe:	6f 91       	pop	r22
     800:	5f 91       	pop	r21
     802:	4f 91       	pop	r20
     804:	3f 91       	pop	r19
     806:	2f 91       	pop	r18
     808:	0f 90       	pop	r0
     80a:	0b be       	out	0x3b, r0	; 59
     80c:	0f 90       	pop	r0
     80e:	09 be       	out	0x39, r0	; 57
     810:	0f 90       	pop	r0
     812:	08 be       	out	0x38, r0	; 56
     814:	0f 90       	pop	r0
     816:	0f be       	out	0x3f, r0	; 63
     818:	0f 90       	pop	r0
     81a:	1f 90       	pop	r1
     81c:	18 95       	reti

0000081e <__vector_14>:
     81e:	1f 92       	push	r1
     820:	0f 92       	push	r0
     822:	0f b6       	in	r0, 0x3f	; 63
     824:	0f 92       	push	r0
     826:	11 24       	eor	r1, r1
     828:	08 b6       	in	r0, 0x38	; 56
     82a:	0f 92       	push	r0
     82c:	18 be       	out	0x38, r1	; 56
     82e:	09 b6       	in	r0, 0x39	; 57
     830:	0f 92       	push	r0
     832:	19 be       	out	0x39, r1	; 57
     834:	0b b6       	in	r0, 0x3b	; 59
     836:	0f 92       	push	r0
     838:	1b be       	out	0x3b, r1	; 59
     83a:	2f 93       	push	r18
     83c:	3f 93       	push	r19
     83e:	4f 93       	push	r20
     840:	5f 93       	push	r21
     842:	6f 93       	push	r22
     844:	7f 93       	push	r23
     846:	8f 93       	push	r24
     848:	9f 93       	push	r25
     84a:	af 93       	push	r26
     84c:	bf 93       	push	r27
     84e:	ef 93       	push	r30
     850:	ff 93       	push	r31
     852:	e0 91 d7 21 	lds	r30, 0x21D7	; 0x8021d7 <tc_tcc0_ovf_callback>
     856:	f0 91 d8 21 	lds	r31, 0x21D8	; 0x8021d8 <tc_tcc0_ovf_callback+0x1>
     85a:	30 97       	sbiw	r30, 0x00	; 0
     85c:	09 f0       	breq	.+2      	; 0x860 <__vector_14+0x42>
     85e:	19 95       	eicall
     860:	ff 91       	pop	r31
     862:	ef 91       	pop	r30
     864:	bf 91       	pop	r27
     866:	af 91       	pop	r26
     868:	9f 91       	pop	r25
     86a:	8f 91       	pop	r24
     86c:	7f 91       	pop	r23
     86e:	6f 91       	pop	r22
     870:	5f 91       	pop	r21
     872:	4f 91       	pop	r20
     874:	3f 91       	pop	r19
     876:	2f 91       	pop	r18
     878:	0f 90       	pop	r0
     87a:	0b be       	out	0x3b, r0	; 59
     87c:	0f 90       	pop	r0
     87e:	09 be       	out	0x39, r0	; 57
     880:	0f 90       	pop	r0
     882:	08 be       	out	0x38, r0	; 56
     884:	0f 90       	pop	r0
     886:	0f be       	out	0x3f, r0	; 63
     888:	0f 90       	pop	r0
     88a:	1f 90       	pop	r1
     88c:	18 95       	reti

0000088e <__vector_15>:
     88e:	1f 92       	push	r1
     890:	0f 92       	push	r0
     892:	0f b6       	in	r0, 0x3f	; 63
     894:	0f 92       	push	r0
     896:	11 24       	eor	r1, r1
     898:	08 b6       	in	r0, 0x38	; 56
     89a:	0f 92       	push	r0
     89c:	18 be       	out	0x38, r1	; 56
     89e:	09 b6       	in	r0, 0x39	; 57
     8a0:	0f 92       	push	r0
     8a2:	19 be       	out	0x39, r1	; 57
     8a4:	0b b6       	in	r0, 0x3b	; 59
     8a6:	0f 92       	push	r0
     8a8:	1b be       	out	0x3b, r1	; 59
     8aa:	2f 93       	push	r18
     8ac:	3f 93       	push	r19
     8ae:	4f 93       	push	r20
     8b0:	5f 93       	push	r21
     8b2:	6f 93       	push	r22
     8b4:	7f 93       	push	r23
     8b6:	8f 93       	push	r24
     8b8:	9f 93       	push	r25
     8ba:	af 93       	push	r26
     8bc:	bf 93       	push	r27
     8be:	ef 93       	push	r30
     8c0:	ff 93       	push	r31
     8c2:	e0 91 d5 21 	lds	r30, 0x21D5	; 0x8021d5 <tc_tcc0_err_callback>
     8c6:	f0 91 d6 21 	lds	r31, 0x21D6	; 0x8021d6 <tc_tcc0_err_callback+0x1>
     8ca:	30 97       	sbiw	r30, 0x00	; 0
     8cc:	09 f0       	breq	.+2      	; 0x8d0 <__vector_15+0x42>
     8ce:	19 95       	eicall
     8d0:	ff 91       	pop	r31
     8d2:	ef 91       	pop	r30
     8d4:	bf 91       	pop	r27
     8d6:	af 91       	pop	r26
     8d8:	9f 91       	pop	r25
     8da:	8f 91       	pop	r24
     8dc:	7f 91       	pop	r23
     8de:	6f 91       	pop	r22
     8e0:	5f 91       	pop	r21
     8e2:	4f 91       	pop	r20
     8e4:	3f 91       	pop	r19
     8e6:	2f 91       	pop	r18
     8e8:	0f 90       	pop	r0
     8ea:	0b be       	out	0x3b, r0	; 59
     8ec:	0f 90       	pop	r0
     8ee:	09 be       	out	0x39, r0	; 57
     8f0:	0f 90       	pop	r0
     8f2:	08 be       	out	0x38, r0	; 56
     8f4:	0f 90       	pop	r0
     8f6:	0f be       	out	0x3f, r0	; 63
     8f8:	0f 90       	pop	r0
     8fa:	1f 90       	pop	r1
     8fc:	18 95       	reti

000008fe <__vector_16>:
     8fe:	1f 92       	push	r1
     900:	0f 92       	push	r0
     902:	0f b6       	in	r0, 0x3f	; 63
     904:	0f 92       	push	r0
     906:	11 24       	eor	r1, r1
     908:	08 b6       	in	r0, 0x38	; 56
     90a:	0f 92       	push	r0
     90c:	18 be       	out	0x38, r1	; 56
     90e:	09 b6       	in	r0, 0x39	; 57
     910:	0f 92       	push	r0
     912:	19 be       	out	0x39, r1	; 57
     914:	0b b6       	in	r0, 0x3b	; 59
     916:	0f 92       	push	r0
     918:	1b be       	out	0x3b, r1	; 59
     91a:	2f 93       	push	r18
     91c:	3f 93       	push	r19
     91e:	4f 93       	push	r20
     920:	5f 93       	push	r21
     922:	6f 93       	push	r22
     924:	7f 93       	push	r23
     926:	8f 93       	push	r24
     928:	9f 93       	push	r25
     92a:	af 93       	push	r26
     92c:	bf 93       	push	r27
     92e:	ef 93       	push	r30
     930:	ff 93       	push	r31
     932:	e0 91 d3 21 	lds	r30, 0x21D3	; 0x8021d3 <tc_tcc0_cca_callback>
     936:	f0 91 d4 21 	lds	r31, 0x21D4	; 0x8021d4 <tc_tcc0_cca_callback+0x1>
     93a:	30 97       	sbiw	r30, 0x00	; 0
     93c:	09 f0       	breq	.+2      	; 0x940 <__vector_16+0x42>
     93e:	19 95       	eicall
     940:	ff 91       	pop	r31
     942:	ef 91       	pop	r30
     944:	bf 91       	pop	r27
     946:	af 91       	pop	r26
     948:	9f 91       	pop	r25
     94a:	8f 91       	pop	r24
     94c:	7f 91       	pop	r23
     94e:	6f 91       	pop	r22
     950:	5f 91       	pop	r21
     952:	4f 91       	pop	r20
     954:	3f 91       	pop	r19
     956:	2f 91       	pop	r18
     958:	0f 90       	pop	r0
     95a:	0b be       	out	0x3b, r0	; 59
     95c:	0f 90       	pop	r0
     95e:	09 be       	out	0x39, r0	; 57
     960:	0f 90       	pop	r0
     962:	08 be       	out	0x38, r0	; 56
     964:	0f 90       	pop	r0
     966:	0f be       	out	0x3f, r0	; 63
     968:	0f 90       	pop	r0
     96a:	1f 90       	pop	r1
     96c:	18 95       	reti

0000096e <__vector_17>:
     96e:	1f 92       	push	r1
     970:	0f 92       	push	r0
     972:	0f b6       	in	r0, 0x3f	; 63
     974:	0f 92       	push	r0
     976:	11 24       	eor	r1, r1
     978:	08 b6       	in	r0, 0x38	; 56
     97a:	0f 92       	push	r0
     97c:	18 be       	out	0x38, r1	; 56
     97e:	09 b6       	in	r0, 0x39	; 57
     980:	0f 92       	push	r0
     982:	19 be       	out	0x39, r1	; 57
     984:	0b b6       	in	r0, 0x3b	; 59
     986:	0f 92       	push	r0
     988:	1b be       	out	0x3b, r1	; 59
     98a:	2f 93       	push	r18
     98c:	3f 93       	push	r19
     98e:	4f 93       	push	r20
     990:	5f 93       	push	r21
     992:	6f 93       	push	r22
     994:	7f 93       	push	r23
     996:	8f 93       	push	r24
     998:	9f 93       	push	r25
     99a:	af 93       	push	r26
     99c:	bf 93       	push	r27
     99e:	ef 93       	push	r30
     9a0:	ff 93       	push	r31
     9a2:	e0 91 d1 21 	lds	r30, 0x21D1	; 0x8021d1 <tc_tcc0_ccb_callback>
     9a6:	f0 91 d2 21 	lds	r31, 0x21D2	; 0x8021d2 <tc_tcc0_ccb_callback+0x1>
     9aa:	30 97       	sbiw	r30, 0x00	; 0
     9ac:	09 f0       	breq	.+2      	; 0x9b0 <__vector_17+0x42>
     9ae:	19 95       	eicall
     9b0:	ff 91       	pop	r31
     9b2:	ef 91       	pop	r30
     9b4:	bf 91       	pop	r27
     9b6:	af 91       	pop	r26
     9b8:	9f 91       	pop	r25
     9ba:	8f 91       	pop	r24
     9bc:	7f 91       	pop	r23
     9be:	6f 91       	pop	r22
     9c0:	5f 91       	pop	r21
     9c2:	4f 91       	pop	r20
     9c4:	3f 91       	pop	r19
     9c6:	2f 91       	pop	r18
     9c8:	0f 90       	pop	r0
     9ca:	0b be       	out	0x3b, r0	; 59
     9cc:	0f 90       	pop	r0
     9ce:	09 be       	out	0x39, r0	; 57
     9d0:	0f 90       	pop	r0
     9d2:	08 be       	out	0x38, r0	; 56
     9d4:	0f 90       	pop	r0
     9d6:	0f be       	out	0x3f, r0	; 63
     9d8:	0f 90       	pop	r0
     9da:	1f 90       	pop	r1
     9dc:	18 95       	reti

000009de <__vector_18>:
     9de:	1f 92       	push	r1
     9e0:	0f 92       	push	r0
     9e2:	0f b6       	in	r0, 0x3f	; 63
     9e4:	0f 92       	push	r0
     9e6:	11 24       	eor	r1, r1
     9e8:	08 b6       	in	r0, 0x38	; 56
     9ea:	0f 92       	push	r0
     9ec:	18 be       	out	0x38, r1	; 56
     9ee:	09 b6       	in	r0, 0x39	; 57
     9f0:	0f 92       	push	r0
     9f2:	19 be       	out	0x39, r1	; 57
     9f4:	0b b6       	in	r0, 0x3b	; 59
     9f6:	0f 92       	push	r0
     9f8:	1b be       	out	0x3b, r1	; 59
     9fa:	2f 93       	push	r18
     9fc:	3f 93       	push	r19
     9fe:	4f 93       	push	r20
     a00:	5f 93       	push	r21
     a02:	6f 93       	push	r22
     a04:	7f 93       	push	r23
     a06:	8f 93       	push	r24
     a08:	9f 93       	push	r25
     a0a:	af 93       	push	r26
     a0c:	bf 93       	push	r27
     a0e:	ef 93       	push	r30
     a10:	ff 93       	push	r31
     a12:	e0 91 cf 21 	lds	r30, 0x21CF	; 0x8021cf <tc_tcc0_ccc_callback>
     a16:	f0 91 d0 21 	lds	r31, 0x21D0	; 0x8021d0 <tc_tcc0_ccc_callback+0x1>
     a1a:	30 97       	sbiw	r30, 0x00	; 0
     a1c:	09 f0       	breq	.+2      	; 0xa20 <__vector_18+0x42>
     a1e:	19 95       	eicall
     a20:	ff 91       	pop	r31
     a22:	ef 91       	pop	r30
     a24:	bf 91       	pop	r27
     a26:	af 91       	pop	r26
     a28:	9f 91       	pop	r25
     a2a:	8f 91       	pop	r24
     a2c:	7f 91       	pop	r23
     a2e:	6f 91       	pop	r22
     a30:	5f 91       	pop	r21
     a32:	4f 91       	pop	r20
     a34:	3f 91       	pop	r19
     a36:	2f 91       	pop	r18
     a38:	0f 90       	pop	r0
     a3a:	0b be       	out	0x3b, r0	; 59
     a3c:	0f 90       	pop	r0
     a3e:	09 be       	out	0x39, r0	; 57
     a40:	0f 90       	pop	r0
     a42:	08 be       	out	0x38, r0	; 56
     a44:	0f 90       	pop	r0
     a46:	0f be       	out	0x3f, r0	; 63
     a48:	0f 90       	pop	r0
     a4a:	1f 90       	pop	r1
     a4c:	18 95       	reti

00000a4e <__vector_19>:
     a4e:	1f 92       	push	r1
     a50:	0f 92       	push	r0
     a52:	0f b6       	in	r0, 0x3f	; 63
     a54:	0f 92       	push	r0
     a56:	11 24       	eor	r1, r1
     a58:	08 b6       	in	r0, 0x38	; 56
     a5a:	0f 92       	push	r0
     a5c:	18 be       	out	0x38, r1	; 56
     a5e:	09 b6       	in	r0, 0x39	; 57
     a60:	0f 92       	push	r0
     a62:	19 be       	out	0x39, r1	; 57
     a64:	0b b6       	in	r0, 0x3b	; 59
     a66:	0f 92       	push	r0
     a68:	1b be       	out	0x3b, r1	; 59
     a6a:	2f 93       	push	r18
     a6c:	3f 93       	push	r19
     a6e:	4f 93       	push	r20
     a70:	5f 93       	push	r21
     a72:	6f 93       	push	r22
     a74:	7f 93       	push	r23
     a76:	8f 93       	push	r24
     a78:	9f 93       	push	r25
     a7a:	af 93       	push	r26
     a7c:	bf 93       	push	r27
     a7e:	ef 93       	push	r30
     a80:	ff 93       	push	r31
     a82:	e0 91 cd 21 	lds	r30, 0x21CD	; 0x8021cd <tc_tcc0_ccd_callback>
     a86:	f0 91 ce 21 	lds	r31, 0x21CE	; 0x8021ce <tc_tcc0_ccd_callback+0x1>
     a8a:	30 97       	sbiw	r30, 0x00	; 0
     a8c:	09 f0       	breq	.+2      	; 0xa90 <__vector_19+0x42>
     a8e:	19 95       	eicall
     a90:	ff 91       	pop	r31
     a92:	ef 91       	pop	r30
     a94:	bf 91       	pop	r27
     a96:	af 91       	pop	r26
     a98:	9f 91       	pop	r25
     a9a:	8f 91       	pop	r24
     a9c:	7f 91       	pop	r23
     a9e:	6f 91       	pop	r22
     aa0:	5f 91       	pop	r21
     aa2:	4f 91       	pop	r20
     aa4:	3f 91       	pop	r19
     aa6:	2f 91       	pop	r18
     aa8:	0f 90       	pop	r0
     aaa:	0b be       	out	0x3b, r0	; 59
     aac:	0f 90       	pop	r0
     aae:	09 be       	out	0x39, r0	; 57
     ab0:	0f 90       	pop	r0
     ab2:	08 be       	out	0x38, r0	; 56
     ab4:	0f 90       	pop	r0
     ab6:	0f be       	out	0x3f, r0	; 63
     ab8:	0f 90       	pop	r0
     aba:	1f 90       	pop	r1
     abc:	18 95       	reti

00000abe <__vector_20>:
     abe:	1f 92       	push	r1
     ac0:	0f 92       	push	r0
     ac2:	0f b6       	in	r0, 0x3f	; 63
     ac4:	0f 92       	push	r0
     ac6:	11 24       	eor	r1, r1
     ac8:	08 b6       	in	r0, 0x38	; 56
     aca:	0f 92       	push	r0
     acc:	18 be       	out	0x38, r1	; 56
     ace:	09 b6       	in	r0, 0x39	; 57
     ad0:	0f 92       	push	r0
     ad2:	19 be       	out	0x39, r1	; 57
     ad4:	0b b6       	in	r0, 0x3b	; 59
     ad6:	0f 92       	push	r0
     ad8:	1b be       	out	0x3b, r1	; 59
     ada:	2f 93       	push	r18
     adc:	3f 93       	push	r19
     ade:	4f 93       	push	r20
     ae0:	5f 93       	push	r21
     ae2:	6f 93       	push	r22
     ae4:	7f 93       	push	r23
     ae6:	8f 93       	push	r24
     ae8:	9f 93       	push	r25
     aea:	af 93       	push	r26
     aec:	bf 93       	push	r27
     aee:	ef 93       	push	r30
     af0:	ff 93       	push	r31
     af2:	e0 91 cb 21 	lds	r30, 0x21CB	; 0x8021cb <tc_tcc1_ovf_callback>
     af6:	f0 91 cc 21 	lds	r31, 0x21CC	; 0x8021cc <tc_tcc1_ovf_callback+0x1>
     afa:	30 97       	sbiw	r30, 0x00	; 0
     afc:	09 f0       	breq	.+2      	; 0xb00 <__vector_20+0x42>
     afe:	19 95       	eicall
     b00:	ff 91       	pop	r31
     b02:	ef 91       	pop	r30
     b04:	bf 91       	pop	r27
     b06:	af 91       	pop	r26
     b08:	9f 91       	pop	r25
     b0a:	8f 91       	pop	r24
     b0c:	7f 91       	pop	r23
     b0e:	6f 91       	pop	r22
     b10:	5f 91       	pop	r21
     b12:	4f 91       	pop	r20
     b14:	3f 91       	pop	r19
     b16:	2f 91       	pop	r18
     b18:	0f 90       	pop	r0
     b1a:	0b be       	out	0x3b, r0	; 59
     b1c:	0f 90       	pop	r0
     b1e:	09 be       	out	0x39, r0	; 57
     b20:	0f 90       	pop	r0
     b22:	08 be       	out	0x38, r0	; 56
     b24:	0f 90       	pop	r0
     b26:	0f be       	out	0x3f, r0	; 63
     b28:	0f 90       	pop	r0
     b2a:	1f 90       	pop	r1
     b2c:	18 95       	reti

00000b2e <__vector_21>:
     b2e:	1f 92       	push	r1
     b30:	0f 92       	push	r0
     b32:	0f b6       	in	r0, 0x3f	; 63
     b34:	0f 92       	push	r0
     b36:	11 24       	eor	r1, r1
     b38:	08 b6       	in	r0, 0x38	; 56
     b3a:	0f 92       	push	r0
     b3c:	18 be       	out	0x38, r1	; 56
     b3e:	09 b6       	in	r0, 0x39	; 57
     b40:	0f 92       	push	r0
     b42:	19 be       	out	0x39, r1	; 57
     b44:	0b b6       	in	r0, 0x3b	; 59
     b46:	0f 92       	push	r0
     b48:	1b be       	out	0x3b, r1	; 59
     b4a:	2f 93       	push	r18
     b4c:	3f 93       	push	r19
     b4e:	4f 93       	push	r20
     b50:	5f 93       	push	r21
     b52:	6f 93       	push	r22
     b54:	7f 93       	push	r23
     b56:	8f 93       	push	r24
     b58:	9f 93       	push	r25
     b5a:	af 93       	push	r26
     b5c:	bf 93       	push	r27
     b5e:	ef 93       	push	r30
     b60:	ff 93       	push	r31
     b62:	e0 91 c9 21 	lds	r30, 0x21C9	; 0x8021c9 <tc_tcc1_err_callback>
     b66:	f0 91 ca 21 	lds	r31, 0x21CA	; 0x8021ca <tc_tcc1_err_callback+0x1>
     b6a:	30 97       	sbiw	r30, 0x00	; 0
     b6c:	09 f0       	breq	.+2      	; 0xb70 <__vector_21+0x42>
     b6e:	19 95       	eicall
     b70:	ff 91       	pop	r31
     b72:	ef 91       	pop	r30
     b74:	bf 91       	pop	r27
     b76:	af 91       	pop	r26
     b78:	9f 91       	pop	r25
     b7a:	8f 91       	pop	r24
     b7c:	7f 91       	pop	r23
     b7e:	6f 91       	pop	r22
     b80:	5f 91       	pop	r21
     b82:	4f 91       	pop	r20
     b84:	3f 91       	pop	r19
     b86:	2f 91       	pop	r18
     b88:	0f 90       	pop	r0
     b8a:	0b be       	out	0x3b, r0	; 59
     b8c:	0f 90       	pop	r0
     b8e:	09 be       	out	0x39, r0	; 57
     b90:	0f 90       	pop	r0
     b92:	08 be       	out	0x38, r0	; 56
     b94:	0f 90       	pop	r0
     b96:	0f be       	out	0x3f, r0	; 63
     b98:	0f 90       	pop	r0
     b9a:	1f 90       	pop	r1
     b9c:	18 95       	reti

00000b9e <__vector_22>:
     b9e:	1f 92       	push	r1
     ba0:	0f 92       	push	r0
     ba2:	0f b6       	in	r0, 0x3f	; 63
     ba4:	0f 92       	push	r0
     ba6:	11 24       	eor	r1, r1
     ba8:	08 b6       	in	r0, 0x38	; 56
     baa:	0f 92       	push	r0
     bac:	18 be       	out	0x38, r1	; 56
     bae:	09 b6       	in	r0, 0x39	; 57
     bb0:	0f 92       	push	r0
     bb2:	19 be       	out	0x39, r1	; 57
     bb4:	0b b6       	in	r0, 0x3b	; 59
     bb6:	0f 92       	push	r0
     bb8:	1b be       	out	0x3b, r1	; 59
     bba:	2f 93       	push	r18
     bbc:	3f 93       	push	r19
     bbe:	4f 93       	push	r20
     bc0:	5f 93       	push	r21
     bc2:	6f 93       	push	r22
     bc4:	7f 93       	push	r23
     bc6:	8f 93       	push	r24
     bc8:	9f 93       	push	r25
     bca:	af 93       	push	r26
     bcc:	bf 93       	push	r27
     bce:	ef 93       	push	r30
     bd0:	ff 93       	push	r31
     bd2:	e0 91 c7 21 	lds	r30, 0x21C7	; 0x8021c7 <tc_tcc1_cca_callback>
     bd6:	f0 91 c8 21 	lds	r31, 0x21C8	; 0x8021c8 <tc_tcc1_cca_callback+0x1>
     bda:	30 97       	sbiw	r30, 0x00	; 0
     bdc:	09 f0       	breq	.+2      	; 0xbe0 <__vector_22+0x42>
     bde:	19 95       	eicall
     be0:	ff 91       	pop	r31
     be2:	ef 91       	pop	r30
     be4:	bf 91       	pop	r27
     be6:	af 91       	pop	r26
     be8:	9f 91       	pop	r25
     bea:	8f 91       	pop	r24
     bec:	7f 91       	pop	r23
     bee:	6f 91       	pop	r22
     bf0:	5f 91       	pop	r21
     bf2:	4f 91       	pop	r20
     bf4:	3f 91       	pop	r19
     bf6:	2f 91       	pop	r18
     bf8:	0f 90       	pop	r0
     bfa:	0b be       	out	0x3b, r0	; 59
     bfc:	0f 90       	pop	r0
     bfe:	09 be       	out	0x39, r0	; 57
     c00:	0f 90       	pop	r0
     c02:	08 be       	out	0x38, r0	; 56
     c04:	0f 90       	pop	r0
     c06:	0f be       	out	0x3f, r0	; 63
     c08:	0f 90       	pop	r0
     c0a:	1f 90       	pop	r1
     c0c:	18 95       	reti

00000c0e <__vector_23>:
     c0e:	1f 92       	push	r1
     c10:	0f 92       	push	r0
     c12:	0f b6       	in	r0, 0x3f	; 63
     c14:	0f 92       	push	r0
     c16:	11 24       	eor	r1, r1
     c18:	08 b6       	in	r0, 0x38	; 56
     c1a:	0f 92       	push	r0
     c1c:	18 be       	out	0x38, r1	; 56
     c1e:	09 b6       	in	r0, 0x39	; 57
     c20:	0f 92       	push	r0
     c22:	19 be       	out	0x39, r1	; 57
     c24:	0b b6       	in	r0, 0x3b	; 59
     c26:	0f 92       	push	r0
     c28:	1b be       	out	0x3b, r1	; 59
     c2a:	2f 93       	push	r18
     c2c:	3f 93       	push	r19
     c2e:	4f 93       	push	r20
     c30:	5f 93       	push	r21
     c32:	6f 93       	push	r22
     c34:	7f 93       	push	r23
     c36:	8f 93       	push	r24
     c38:	9f 93       	push	r25
     c3a:	af 93       	push	r26
     c3c:	bf 93       	push	r27
     c3e:	ef 93       	push	r30
     c40:	ff 93       	push	r31
     c42:	e0 91 c5 21 	lds	r30, 0x21C5	; 0x8021c5 <tc_tcc1_ccb_callback>
     c46:	f0 91 c6 21 	lds	r31, 0x21C6	; 0x8021c6 <tc_tcc1_ccb_callback+0x1>
     c4a:	30 97       	sbiw	r30, 0x00	; 0
     c4c:	09 f0       	breq	.+2      	; 0xc50 <__vector_23+0x42>
     c4e:	19 95       	eicall
     c50:	ff 91       	pop	r31
     c52:	ef 91       	pop	r30
     c54:	bf 91       	pop	r27
     c56:	af 91       	pop	r26
     c58:	9f 91       	pop	r25
     c5a:	8f 91       	pop	r24
     c5c:	7f 91       	pop	r23
     c5e:	6f 91       	pop	r22
     c60:	5f 91       	pop	r21
     c62:	4f 91       	pop	r20
     c64:	3f 91       	pop	r19
     c66:	2f 91       	pop	r18
     c68:	0f 90       	pop	r0
     c6a:	0b be       	out	0x3b, r0	; 59
     c6c:	0f 90       	pop	r0
     c6e:	09 be       	out	0x39, r0	; 57
     c70:	0f 90       	pop	r0
     c72:	08 be       	out	0x38, r0	; 56
     c74:	0f 90       	pop	r0
     c76:	0f be       	out	0x3f, r0	; 63
     c78:	0f 90       	pop	r0
     c7a:	1f 90       	pop	r1
     c7c:	18 95       	reti

00000c7e <__vector_77>:
     c7e:	1f 92       	push	r1
     c80:	0f 92       	push	r0
     c82:	0f b6       	in	r0, 0x3f	; 63
     c84:	0f 92       	push	r0
     c86:	11 24       	eor	r1, r1
     c88:	08 b6       	in	r0, 0x38	; 56
     c8a:	0f 92       	push	r0
     c8c:	18 be       	out	0x38, r1	; 56
     c8e:	09 b6       	in	r0, 0x39	; 57
     c90:	0f 92       	push	r0
     c92:	19 be       	out	0x39, r1	; 57
     c94:	0b b6       	in	r0, 0x3b	; 59
     c96:	0f 92       	push	r0
     c98:	1b be       	out	0x3b, r1	; 59
     c9a:	2f 93       	push	r18
     c9c:	3f 93       	push	r19
     c9e:	4f 93       	push	r20
     ca0:	5f 93       	push	r21
     ca2:	6f 93       	push	r22
     ca4:	7f 93       	push	r23
     ca6:	8f 93       	push	r24
     ca8:	9f 93       	push	r25
     caa:	af 93       	push	r26
     cac:	bf 93       	push	r27
     cae:	ef 93       	push	r30
     cb0:	ff 93       	push	r31
     cb2:	e0 91 c3 21 	lds	r30, 0x21C3	; 0x8021c3 <tc_tcd0_ovf_callback>
     cb6:	f0 91 c4 21 	lds	r31, 0x21C4	; 0x8021c4 <tc_tcd0_ovf_callback+0x1>
     cba:	30 97       	sbiw	r30, 0x00	; 0
     cbc:	09 f0       	breq	.+2      	; 0xcc0 <__vector_77+0x42>
     cbe:	19 95       	eicall
     cc0:	ff 91       	pop	r31
     cc2:	ef 91       	pop	r30
     cc4:	bf 91       	pop	r27
     cc6:	af 91       	pop	r26
     cc8:	9f 91       	pop	r25
     cca:	8f 91       	pop	r24
     ccc:	7f 91       	pop	r23
     cce:	6f 91       	pop	r22
     cd0:	5f 91       	pop	r21
     cd2:	4f 91       	pop	r20
     cd4:	3f 91       	pop	r19
     cd6:	2f 91       	pop	r18
     cd8:	0f 90       	pop	r0
     cda:	0b be       	out	0x3b, r0	; 59
     cdc:	0f 90       	pop	r0
     cde:	09 be       	out	0x39, r0	; 57
     ce0:	0f 90       	pop	r0
     ce2:	08 be       	out	0x38, r0	; 56
     ce4:	0f 90       	pop	r0
     ce6:	0f be       	out	0x3f, r0	; 63
     ce8:	0f 90       	pop	r0
     cea:	1f 90       	pop	r1
     cec:	18 95       	reti

00000cee <__vector_78>:
     cee:	1f 92       	push	r1
     cf0:	0f 92       	push	r0
     cf2:	0f b6       	in	r0, 0x3f	; 63
     cf4:	0f 92       	push	r0
     cf6:	11 24       	eor	r1, r1
     cf8:	08 b6       	in	r0, 0x38	; 56
     cfa:	0f 92       	push	r0
     cfc:	18 be       	out	0x38, r1	; 56
     cfe:	09 b6       	in	r0, 0x39	; 57
     d00:	0f 92       	push	r0
     d02:	19 be       	out	0x39, r1	; 57
     d04:	0b b6       	in	r0, 0x3b	; 59
     d06:	0f 92       	push	r0
     d08:	1b be       	out	0x3b, r1	; 59
     d0a:	2f 93       	push	r18
     d0c:	3f 93       	push	r19
     d0e:	4f 93       	push	r20
     d10:	5f 93       	push	r21
     d12:	6f 93       	push	r22
     d14:	7f 93       	push	r23
     d16:	8f 93       	push	r24
     d18:	9f 93       	push	r25
     d1a:	af 93       	push	r26
     d1c:	bf 93       	push	r27
     d1e:	ef 93       	push	r30
     d20:	ff 93       	push	r31
     d22:	e0 91 c1 21 	lds	r30, 0x21C1	; 0x8021c1 <tc_tcd0_err_callback>
     d26:	f0 91 c2 21 	lds	r31, 0x21C2	; 0x8021c2 <tc_tcd0_err_callback+0x1>
     d2a:	30 97       	sbiw	r30, 0x00	; 0
     d2c:	09 f0       	breq	.+2      	; 0xd30 <__vector_78+0x42>
     d2e:	19 95       	eicall
     d30:	ff 91       	pop	r31
     d32:	ef 91       	pop	r30
     d34:	bf 91       	pop	r27
     d36:	af 91       	pop	r26
     d38:	9f 91       	pop	r25
     d3a:	8f 91       	pop	r24
     d3c:	7f 91       	pop	r23
     d3e:	6f 91       	pop	r22
     d40:	5f 91       	pop	r21
     d42:	4f 91       	pop	r20
     d44:	3f 91       	pop	r19
     d46:	2f 91       	pop	r18
     d48:	0f 90       	pop	r0
     d4a:	0b be       	out	0x3b, r0	; 59
     d4c:	0f 90       	pop	r0
     d4e:	09 be       	out	0x39, r0	; 57
     d50:	0f 90       	pop	r0
     d52:	08 be       	out	0x38, r0	; 56
     d54:	0f 90       	pop	r0
     d56:	0f be       	out	0x3f, r0	; 63
     d58:	0f 90       	pop	r0
     d5a:	1f 90       	pop	r1
     d5c:	18 95       	reti

00000d5e <__vector_79>:
     d5e:	1f 92       	push	r1
     d60:	0f 92       	push	r0
     d62:	0f b6       	in	r0, 0x3f	; 63
     d64:	0f 92       	push	r0
     d66:	11 24       	eor	r1, r1
     d68:	08 b6       	in	r0, 0x38	; 56
     d6a:	0f 92       	push	r0
     d6c:	18 be       	out	0x38, r1	; 56
     d6e:	09 b6       	in	r0, 0x39	; 57
     d70:	0f 92       	push	r0
     d72:	19 be       	out	0x39, r1	; 57
     d74:	0b b6       	in	r0, 0x3b	; 59
     d76:	0f 92       	push	r0
     d78:	1b be       	out	0x3b, r1	; 59
     d7a:	2f 93       	push	r18
     d7c:	3f 93       	push	r19
     d7e:	4f 93       	push	r20
     d80:	5f 93       	push	r21
     d82:	6f 93       	push	r22
     d84:	7f 93       	push	r23
     d86:	8f 93       	push	r24
     d88:	9f 93       	push	r25
     d8a:	af 93       	push	r26
     d8c:	bf 93       	push	r27
     d8e:	ef 93       	push	r30
     d90:	ff 93       	push	r31
     d92:	e0 91 bf 21 	lds	r30, 0x21BF	; 0x8021bf <tc_tcd0_cca_callback>
     d96:	f0 91 c0 21 	lds	r31, 0x21C0	; 0x8021c0 <tc_tcd0_cca_callback+0x1>
     d9a:	30 97       	sbiw	r30, 0x00	; 0
     d9c:	09 f0       	breq	.+2      	; 0xda0 <__vector_79+0x42>
     d9e:	19 95       	eicall
     da0:	ff 91       	pop	r31
     da2:	ef 91       	pop	r30
     da4:	bf 91       	pop	r27
     da6:	af 91       	pop	r26
     da8:	9f 91       	pop	r25
     daa:	8f 91       	pop	r24
     dac:	7f 91       	pop	r23
     dae:	6f 91       	pop	r22
     db0:	5f 91       	pop	r21
     db2:	4f 91       	pop	r20
     db4:	3f 91       	pop	r19
     db6:	2f 91       	pop	r18
     db8:	0f 90       	pop	r0
     dba:	0b be       	out	0x3b, r0	; 59
     dbc:	0f 90       	pop	r0
     dbe:	09 be       	out	0x39, r0	; 57
     dc0:	0f 90       	pop	r0
     dc2:	08 be       	out	0x38, r0	; 56
     dc4:	0f 90       	pop	r0
     dc6:	0f be       	out	0x3f, r0	; 63
     dc8:	0f 90       	pop	r0
     dca:	1f 90       	pop	r1
     dcc:	18 95       	reti

00000dce <__vector_80>:
     dce:	1f 92       	push	r1
     dd0:	0f 92       	push	r0
     dd2:	0f b6       	in	r0, 0x3f	; 63
     dd4:	0f 92       	push	r0
     dd6:	11 24       	eor	r1, r1
     dd8:	08 b6       	in	r0, 0x38	; 56
     dda:	0f 92       	push	r0
     ddc:	18 be       	out	0x38, r1	; 56
     dde:	09 b6       	in	r0, 0x39	; 57
     de0:	0f 92       	push	r0
     de2:	19 be       	out	0x39, r1	; 57
     de4:	0b b6       	in	r0, 0x3b	; 59
     de6:	0f 92       	push	r0
     de8:	1b be       	out	0x3b, r1	; 59
     dea:	2f 93       	push	r18
     dec:	3f 93       	push	r19
     dee:	4f 93       	push	r20
     df0:	5f 93       	push	r21
     df2:	6f 93       	push	r22
     df4:	7f 93       	push	r23
     df6:	8f 93       	push	r24
     df8:	9f 93       	push	r25
     dfa:	af 93       	push	r26
     dfc:	bf 93       	push	r27
     dfe:	ef 93       	push	r30
     e00:	ff 93       	push	r31
     e02:	e0 91 bd 21 	lds	r30, 0x21BD	; 0x8021bd <tc_tcd0_ccb_callback>
     e06:	f0 91 be 21 	lds	r31, 0x21BE	; 0x8021be <tc_tcd0_ccb_callback+0x1>
     e0a:	30 97       	sbiw	r30, 0x00	; 0
     e0c:	09 f0       	breq	.+2      	; 0xe10 <__vector_80+0x42>
     e0e:	19 95       	eicall
     e10:	ff 91       	pop	r31
     e12:	ef 91       	pop	r30
     e14:	bf 91       	pop	r27
     e16:	af 91       	pop	r26
     e18:	9f 91       	pop	r25
     e1a:	8f 91       	pop	r24
     e1c:	7f 91       	pop	r23
     e1e:	6f 91       	pop	r22
     e20:	5f 91       	pop	r21
     e22:	4f 91       	pop	r20
     e24:	3f 91       	pop	r19
     e26:	2f 91       	pop	r18
     e28:	0f 90       	pop	r0
     e2a:	0b be       	out	0x3b, r0	; 59
     e2c:	0f 90       	pop	r0
     e2e:	09 be       	out	0x39, r0	; 57
     e30:	0f 90       	pop	r0
     e32:	08 be       	out	0x38, r0	; 56
     e34:	0f 90       	pop	r0
     e36:	0f be       	out	0x3f, r0	; 63
     e38:	0f 90       	pop	r0
     e3a:	1f 90       	pop	r1
     e3c:	18 95       	reti

00000e3e <__vector_81>:
     e3e:	1f 92       	push	r1
     e40:	0f 92       	push	r0
     e42:	0f b6       	in	r0, 0x3f	; 63
     e44:	0f 92       	push	r0
     e46:	11 24       	eor	r1, r1
     e48:	08 b6       	in	r0, 0x38	; 56
     e4a:	0f 92       	push	r0
     e4c:	18 be       	out	0x38, r1	; 56
     e4e:	09 b6       	in	r0, 0x39	; 57
     e50:	0f 92       	push	r0
     e52:	19 be       	out	0x39, r1	; 57
     e54:	0b b6       	in	r0, 0x3b	; 59
     e56:	0f 92       	push	r0
     e58:	1b be       	out	0x3b, r1	; 59
     e5a:	2f 93       	push	r18
     e5c:	3f 93       	push	r19
     e5e:	4f 93       	push	r20
     e60:	5f 93       	push	r21
     e62:	6f 93       	push	r22
     e64:	7f 93       	push	r23
     e66:	8f 93       	push	r24
     e68:	9f 93       	push	r25
     e6a:	af 93       	push	r26
     e6c:	bf 93       	push	r27
     e6e:	ef 93       	push	r30
     e70:	ff 93       	push	r31
     e72:	e0 91 bb 21 	lds	r30, 0x21BB	; 0x8021bb <tc_tcd0_ccc_callback>
     e76:	f0 91 bc 21 	lds	r31, 0x21BC	; 0x8021bc <tc_tcd0_ccc_callback+0x1>
     e7a:	30 97       	sbiw	r30, 0x00	; 0
     e7c:	09 f0       	breq	.+2      	; 0xe80 <__vector_81+0x42>
     e7e:	19 95       	eicall
     e80:	ff 91       	pop	r31
     e82:	ef 91       	pop	r30
     e84:	bf 91       	pop	r27
     e86:	af 91       	pop	r26
     e88:	9f 91       	pop	r25
     e8a:	8f 91       	pop	r24
     e8c:	7f 91       	pop	r23
     e8e:	6f 91       	pop	r22
     e90:	5f 91       	pop	r21
     e92:	4f 91       	pop	r20
     e94:	3f 91       	pop	r19
     e96:	2f 91       	pop	r18
     e98:	0f 90       	pop	r0
     e9a:	0b be       	out	0x3b, r0	; 59
     e9c:	0f 90       	pop	r0
     e9e:	09 be       	out	0x39, r0	; 57
     ea0:	0f 90       	pop	r0
     ea2:	08 be       	out	0x38, r0	; 56
     ea4:	0f 90       	pop	r0
     ea6:	0f be       	out	0x3f, r0	; 63
     ea8:	0f 90       	pop	r0
     eaa:	1f 90       	pop	r1
     eac:	18 95       	reti

00000eae <__vector_82>:
     eae:	1f 92       	push	r1
     eb0:	0f 92       	push	r0
     eb2:	0f b6       	in	r0, 0x3f	; 63
     eb4:	0f 92       	push	r0
     eb6:	11 24       	eor	r1, r1
     eb8:	08 b6       	in	r0, 0x38	; 56
     eba:	0f 92       	push	r0
     ebc:	18 be       	out	0x38, r1	; 56
     ebe:	09 b6       	in	r0, 0x39	; 57
     ec0:	0f 92       	push	r0
     ec2:	19 be       	out	0x39, r1	; 57
     ec4:	0b b6       	in	r0, 0x3b	; 59
     ec6:	0f 92       	push	r0
     ec8:	1b be       	out	0x3b, r1	; 59
     eca:	2f 93       	push	r18
     ecc:	3f 93       	push	r19
     ece:	4f 93       	push	r20
     ed0:	5f 93       	push	r21
     ed2:	6f 93       	push	r22
     ed4:	7f 93       	push	r23
     ed6:	8f 93       	push	r24
     ed8:	9f 93       	push	r25
     eda:	af 93       	push	r26
     edc:	bf 93       	push	r27
     ede:	ef 93       	push	r30
     ee0:	ff 93       	push	r31
     ee2:	e0 91 b9 21 	lds	r30, 0x21B9	; 0x8021b9 <tc_tcd0_ccd_callback>
     ee6:	f0 91 ba 21 	lds	r31, 0x21BA	; 0x8021ba <tc_tcd0_ccd_callback+0x1>
     eea:	30 97       	sbiw	r30, 0x00	; 0
     eec:	09 f0       	breq	.+2      	; 0xef0 <__vector_82+0x42>
     eee:	19 95       	eicall
     ef0:	ff 91       	pop	r31
     ef2:	ef 91       	pop	r30
     ef4:	bf 91       	pop	r27
     ef6:	af 91       	pop	r26
     ef8:	9f 91       	pop	r25
     efa:	8f 91       	pop	r24
     efc:	7f 91       	pop	r23
     efe:	6f 91       	pop	r22
     f00:	5f 91       	pop	r21
     f02:	4f 91       	pop	r20
     f04:	3f 91       	pop	r19
     f06:	2f 91       	pop	r18
     f08:	0f 90       	pop	r0
     f0a:	0b be       	out	0x3b, r0	; 59
     f0c:	0f 90       	pop	r0
     f0e:	09 be       	out	0x39, r0	; 57
     f10:	0f 90       	pop	r0
     f12:	08 be       	out	0x38, r0	; 56
     f14:	0f 90       	pop	r0
     f16:	0f be       	out	0x3f, r0	; 63
     f18:	0f 90       	pop	r0
     f1a:	1f 90       	pop	r1
     f1c:	18 95       	reti

00000f1e <__vector_83>:
     f1e:	1f 92       	push	r1
     f20:	0f 92       	push	r0
     f22:	0f b6       	in	r0, 0x3f	; 63
     f24:	0f 92       	push	r0
     f26:	11 24       	eor	r1, r1
     f28:	08 b6       	in	r0, 0x38	; 56
     f2a:	0f 92       	push	r0
     f2c:	18 be       	out	0x38, r1	; 56
     f2e:	09 b6       	in	r0, 0x39	; 57
     f30:	0f 92       	push	r0
     f32:	19 be       	out	0x39, r1	; 57
     f34:	0b b6       	in	r0, 0x3b	; 59
     f36:	0f 92       	push	r0
     f38:	1b be       	out	0x3b, r1	; 59
     f3a:	2f 93       	push	r18
     f3c:	3f 93       	push	r19
     f3e:	4f 93       	push	r20
     f40:	5f 93       	push	r21
     f42:	6f 93       	push	r22
     f44:	7f 93       	push	r23
     f46:	8f 93       	push	r24
     f48:	9f 93       	push	r25
     f4a:	af 93       	push	r26
     f4c:	bf 93       	push	r27
     f4e:	ef 93       	push	r30
     f50:	ff 93       	push	r31
     f52:	e0 91 b7 21 	lds	r30, 0x21B7	; 0x8021b7 <tc_tcd1_ovf_callback>
     f56:	f0 91 b8 21 	lds	r31, 0x21B8	; 0x8021b8 <tc_tcd1_ovf_callback+0x1>
     f5a:	30 97       	sbiw	r30, 0x00	; 0
     f5c:	09 f0       	breq	.+2      	; 0xf60 <__vector_83+0x42>
     f5e:	19 95       	eicall
     f60:	ff 91       	pop	r31
     f62:	ef 91       	pop	r30
     f64:	bf 91       	pop	r27
     f66:	af 91       	pop	r26
     f68:	9f 91       	pop	r25
     f6a:	8f 91       	pop	r24
     f6c:	7f 91       	pop	r23
     f6e:	6f 91       	pop	r22
     f70:	5f 91       	pop	r21
     f72:	4f 91       	pop	r20
     f74:	3f 91       	pop	r19
     f76:	2f 91       	pop	r18
     f78:	0f 90       	pop	r0
     f7a:	0b be       	out	0x3b, r0	; 59
     f7c:	0f 90       	pop	r0
     f7e:	09 be       	out	0x39, r0	; 57
     f80:	0f 90       	pop	r0
     f82:	08 be       	out	0x38, r0	; 56
     f84:	0f 90       	pop	r0
     f86:	0f be       	out	0x3f, r0	; 63
     f88:	0f 90       	pop	r0
     f8a:	1f 90       	pop	r1
     f8c:	18 95       	reti

00000f8e <__vector_84>:
     f8e:	1f 92       	push	r1
     f90:	0f 92       	push	r0
     f92:	0f b6       	in	r0, 0x3f	; 63
     f94:	0f 92       	push	r0
     f96:	11 24       	eor	r1, r1
     f98:	08 b6       	in	r0, 0x38	; 56
     f9a:	0f 92       	push	r0
     f9c:	18 be       	out	0x38, r1	; 56
     f9e:	09 b6       	in	r0, 0x39	; 57
     fa0:	0f 92       	push	r0
     fa2:	19 be       	out	0x39, r1	; 57
     fa4:	0b b6       	in	r0, 0x3b	; 59
     fa6:	0f 92       	push	r0
     fa8:	1b be       	out	0x3b, r1	; 59
     faa:	2f 93       	push	r18
     fac:	3f 93       	push	r19
     fae:	4f 93       	push	r20
     fb0:	5f 93       	push	r21
     fb2:	6f 93       	push	r22
     fb4:	7f 93       	push	r23
     fb6:	8f 93       	push	r24
     fb8:	9f 93       	push	r25
     fba:	af 93       	push	r26
     fbc:	bf 93       	push	r27
     fbe:	ef 93       	push	r30
     fc0:	ff 93       	push	r31
     fc2:	e0 91 b5 21 	lds	r30, 0x21B5	; 0x8021b5 <tc_tcd1_err_callback>
     fc6:	f0 91 b6 21 	lds	r31, 0x21B6	; 0x8021b6 <tc_tcd1_err_callback+0x1>
     fca:	30 97       	sbiw	r30, 0x00	; 0
     fcc:	09 f0       	breq	.+2      	; 0xfd0 <__vector_84+0x42>
     fce:	19 95       	eicall
     fd0:	ff 91       	pop	r31
     fd2:	ef 91       	pop	r30
     fd4:	bf 91       	pop	r27
     fd6:	af 91       	pop	r26
     fd8:	9f 91       	pop	r25
     fda:	8f 91       	pop	r24
     fdc:	7f 91       	pop	r23
     fde:	6f 91       	pop	r22
     fe0:	5f 91       	pop	r21
     fe2:	4f 91       	pop	r20
     fe4:	3f 91       	pop	r19
     fe6:	2f 91       	pop	r18
     fe8:	0f 90       	pop	r0
     fea:	0b be       	out	0x3b, r0	; 59
     fec:	0f 90       	pop	r0
     fee:	09 be       	out	0x39, r0	; 57
     ff0:	0f 90       	pop	r0
     ff2:	08 be       	out	0x38, r0	; 56
     ff4:	0f 90       	pop	r0
     ff6:	0f be       	out	0x3f, r0	; 63
     ff8:	0f 90       	pop	r0
     ffa:	1f 90       	pop	r1
     ffc:	18 95       	reti

00000ffe <__vector_85>:
     ffe:	1f 92       	push	r1
    1000:	0f 92       	push	r0
    1002:	0f b6       	in	r0, 0x3f	; 63
    1004:	0f 92       	push	r0
    1006:	11 24       	eor	r1, r1
    1008:	08 b6       	in	r0, 0x38	; 56
    100a:	0f 92       	push	r0
    100c:	18 be       	out	0x38, r1	; 56
    100e:	09 b6       	in	r0, 0x39	; 57
    1010:	0f 92       	push	r0
    1012:	19 be       	out	0x39, r1	; 57
    1014:	0b b6       	in	r0, 0x3b	; 59
    1016:	0f 92       	push	r0
    1018:	1b be       	out	0x3b, r1	; 59
    101a:	2f 93       	push	r18
    101c:	3f 93       	push	r19
    101e:	4f 93       	push	r20
    1020:	5f 93       	push	r21
    1022:	6f 93       	push	r22
    1024:	7f 93       	push	r23
    1026:	8f 93       	push	r24
    1028:	9f 93       	push	r25
    102a:	af 93       	push	r26
    102c:	bf 93       	push	r27
    102e:	ef 93       	push	r30
    1030:	ff 93       	push	r31
    1032:	e0 91 b3 21 	lds	r30, 0x21B3	; 0x8021b3 <tc_tcd1_cca_callback>
    1036:	f0 91 b4 21 	lds	r31, 0x21B4	; 0x8021b4 <tc_tcd1_cca_callback+0x1>
    103a:	30 97       	sbiw	r30, 0x00	; 0
    103c:	09 f0       	breq	.+2      	; 0x1040 <__vector_85+0x42>
    103e:	19 95       	eicall
    1040:	ff 91       	pop	r31
    1042:	ef 91       	pop	r30
    1044:	bf 91       	pop	r27
    1046:	af 91       	pop	r26
    1048:	9f 91       	pop	r25
    104a:	8f 91       	pop	r24
    104c:	7f 91       	pop	r23
    104e:	6f 91       	pop	r22
    1050:	5f 91       	pop	r21
    1052:	4f 91       	pop	r20
    1054:	3f 91       	pop	r19
    1056:	2f 91       	pop	r18
    1058:	0f 90       	pop	r0
    105a:	0b be       	out	0x3b, r0	; 59
    105c:	0f 90       	pop	r0
    105e:	09 be       	out	0x39, r0	; 57
    1060:	0f 90       	pop	r0
    1062:	08 be       	out	0x38, r0	; 56
    1064:	0f 90       	pop	r0
    1066:	0f be       	out	0x3f, r0	; 63
    1068:	0f 90       	pop	r0
    106a:	1f 90       	pop	r1
    106c:	18 95       	reti

0000106e <__vector_86>:
    106e:	1f 92       	push	r1
    1070:	0f 92       	push	r0
    1072:	0f b6       	in	r0, 0x3f	; 63
    1074:	0f 92       	push	r0
    1076:	11 24       	eor	r1, r1
    1078:	08 b6       	in	r0, 0x38	; 56
    107a:	0f 92       	push	r0
    107c:	18 be       	out	0x38, r1	; 56
    107e:	09 b6       	in	r0, 0x39	; 57
    1080:	0f 92       	push	r0
    1082:	19 be       	out	0x39, r1	; 57
    1084:	0b b6       	in	r0, 0x3b	; 59
    1086:	0f 92       	push	r0
    1088:	1b be       	out	0x3b, r1	; 59
    108a:	2f 93       	push	r18
    108c:	3f 93       	push	r19
    108e:	4f 93       	push	r20
    1090:	5f 93       	push	r21
    1092:	6f 93       	push	r22
    1094:	7f 93       	push	r23
    1096:	8f 93       	push	r24
    1098:	9f 93       	push	r25
    109a:	af 93       	push	r26
    109c:	bf 93       	push	r27
    109e:	ef 93       	push	r30
    10a0:	ff 93       	push	r31
    10a2:	e0 91 b1 21 	lds	r30, 0x21B1	; 0x8021b1 <tc_tcd1_ccb_callback>
    10a6:	f0 91 b2 21 	lds	r31, 0x21B2	; 0x8021b2 <tc_tcd1_ccb_callback+0x1>
    10aa:	30 97       	sbiw	r30, 0x00	; 0
    10ac:	09 f0       	breq	.+2      	; 0x10b0 <__vector_86+0x42>
    10ae:	19 95       	eicall
    10b0:	ff 91       	pop	r31
    10b2:	ef 91       	pop	r30
    10b4:	bf 91       	pop	r27
    10b6:	af 91       	pop	r26
    10b8:	9f 91       	pop	r25
    10ba:	8f 91       	pop	r24
    10bc:	7f 91       	pop	r23
    10be:	6f 91       	pop	r22
    10c0:	5f 91       	pop	r21
    10c2:	4f 91       	pop	r20
    10c4:	3f 91       	pop	r19
    10c6:	2f 91       	pop	r18
    10c8:	0f 90       	pop	r0
    10ca:	0b be       	out	0x3b, r0	; 59
    10cc:	0f 90       	pop	r0
    10ce:	09 be       	out	0x39, r0	; 57
    10d0:	0f 90       	pop	r0
    10d2:	08 be       	out	0x38, r0	; 56
    10d4:	0f 90       	pop	r0
    10d6:	0f be       	out	0x3f, r0	; 63
    10d8:	0f 90       	pop	r0
    10da:	1f 90       	pop	r1
    10dc:	18 95       	reti

000010de <__vector_48>:
    10de:	1f 92       	push	r1
    10e0:	0f 92       	push	r0
    10e2:	0f b6       	in	r0, 0x3f	; 63
    10e4:	0f 92       	push	r0
    10e6:	11 24       	eor	r1, r1
    10e8:	08 b6       	in	r0, 0x38	; 56
    10ea:	0f 92       	push	r0
    10ec:	18 be       	out	0x38, r1	; 56
    10ee:	09 b6       	in	r0, 0x39	; 57
    10f0:	0f 92       	push	r0
    10f2:	19 be       	out	0x39, r1	; 57
    10f4:	0b b6       	in	r0, 0x3b	; 59
    10f6:	0f 92       	push	r0
    10f8:	1b be       	out	0x3b, r1	; 59
    10fa:	2f 93       	push	r18
    10fc:	3f 93       	push	r19
    10fe:	4f 93       	push	r20
    1100:	5f 93       	push	r21
    1102:	6f 93       	push	r22
    1104:	7f 93       	push	r23
    1106:	8f 93       	push	r24
    1108:	9f 93       	push	r25
    110a:	af 93       	push	r26
    110c:	bf 93       	push	r27
    110e:	ef 93       	push	r30
    1110:	ff 93       	push	r31
    1112:	e0 91 af 21 	lds	r30, 0x21AF	; 0x8021af <tc_tce0_err_callback>
    1116:	f0 91 b0 21 	lds	r31, 0x21B0	; 0x8021b0 <tc_tce0_err_callback+0x1>
    111a:	30 97       	sbiw	r30, 0x00	; 0
    111c:	09 f0       	breq	.+2      	; 0x1120 <__vector_48+0x42>
    111e:	19 95       	eicall
    1120:	ff 91       	pop	r31
    1122:	ef 91       	pop	r30
    1124:	bf 91       	pop	r27
    1126:	af 91       	pop	r26
    1128:	9f 91       	pop	r25
    112a:	8f 91       	pop	r24
    112c:	7f 91       	pop	r23
    112e:	6f 91       	pop	r22
    1130:	5f 91       	pop	r21
    1132:	4f 91       	pop	r20
    1134:	3f 91       	pop	r19
    1136:	2f 91       	pop	r18
    1138:	0f 90       	pop	r0
    113a:	0b be       	out	0x3b, r0	; 59
    113c:	0f 90       	pop	r0
    113e:	09 be       	out	0x39, r0	; 57
    1140:	0f 90       	pop	r0
    1142:	08 be       	out	0x38, r0	; 56
    1144:	0f 90       	pop	r0
    1146:	0f be       	out	0x3f, r0	; 63
    1148:	0f 90       	pop	r0
    114a:	1f 90       	pop	r1
    114c:	18 95       	reti

0000114e <__vector_49>:
    114e:	1f 92       	push	r1
    1150:	0f 92       	push	r0
    1152:	0f b6       	in	r0, 0x3f	; 63
    1154:	0f 92       	push	r0
    1156:	11 24       	eor	r1, r1
    1158:	08 b6       	in	r0, 0x38	; 56
    115a:	0f 92       	push	r0
    115c:	18 be       	out	0x38, r1	; 56
    115e:	09 b6       	in	r0, 0x39	; 57
    1160:	0f 92       	push	r0
    1162:	19 be       	out	0x39, r1	; 57
    1164:	0b b6       	in	r0, 0x3b	; 59
    1166:	0f 92       	push	r0
    1168:	1b be       	out	0x3b, r1	; 59
    116a:	2f 93       	push	r18
    116c:	3f 93       	push	r19
    116e:	4f 93       	push	r20
    1170:	5f 93       	push	r21
    1172:	6f 93       	push	r22
    1174:	7f 93       	push	r23
    1176:	8f 93       	push	r24
    1178:	9f 93       	push	r25
    117a:	af 93       	push	r26
    117c:	bf 93       	push	r27
    117e:	ef 93       	push	r30
    1180:	ff 93       	push	r31
    1182:	e0 91 ad 21 	lds	r30, 0x21AD	; 0x8021ad <tc_tce0_cca_callback>
    1186:	f0 91 ae 21 	lds	r31, 0x21AE	; 0x8021ae <tc_tce0_cca_callback+0x1>
    118a:	30 97       	sbiw	r30, 0x00	; 0
    118c:	09 f0       	breq	.+2      	; 0x1190 <__vector_49+0x42>
    118e:	19 95       	eicall
    1190:	ff 91       	pop	r31
    1192:	ef 91       	pop	r30
    1194:	bf 91       	pop	r27
    1196:	af 91       	pop	r26
    1198:	9f 91       	pop	r25
    119a:	8f 91       	pop	r24
    119c:	7f 91       	pop	r23
    119e:	6f 91       	pop	r22
    11a0:	5f 91       	pop	r21
    11a2:	4f 91       	pop	r20
    11a4:	3f 91       	pop	r19
    11a6:	2f 91       	pop	r18
    11a8:	0f 90       	pop	r0
    11aa:	0b be       	out	0x3b, r0	; 59
    11ac:	0f 90       	pop	r0
    11ae:	09 be       	out	0x39, r0	; 57
    11b0:	0f 90       	pop	r0
    11b2:	08 be       	out	0x38, r0	; 56
    11b4:	0f 90       	pop	r0
    11b6:	0f be       	out	0x3f, r0	; 63
    11b8:	0f 90       	pop	r0
    11ba:	1f 90       	pop	r1
    11bc:	18 95       	reti

000011be <__vector_50>:
    11be:	1f 92       	push	r1
    11c0:	0f 92       	push	r0
    11c2:	0f b6       	in	r0, 0x3f	; 63
    11c4:	0f 92       	push	r0
    11c6:	11 24       	eor	r1, r1
    11c8:	08 b6       	in	r0, 0x38	; 56
    11ca:	0f 92       	push	r0
    11cc:	18 be       	out	0x38, r1	; 56
    11ce:	09 b6       	in	r0, 0x39	; 57
    11d0:	0f 92       	push	r0
    11d2:	19 be       	out	0x39, r1	; 57
    11d4:	0b b6       	in	r0, 0x3b	; 59
    11d6:	0f 92       	push	r0
    11d8:	1b be       	out	0x3b, r1	; 59
    11da:	2f 93       	push	r18
    11dc:	3f 93       	push	r19
    11de:	4f 93       	push	r20
    11e0:	5f 93       	push	r21
    11e2:	6f 93       	push	r22
    11e4:	7f 93       	push	r23
    11e6:	8f 93       	push	r24
    11e8:	9f 93       	push	r25
    11ea:	af 93       	push	r26
    11ec:	bf 93       	push	r27
    11ee:	ef 93       	push	r30
    11f0:	ff 93       	push	r31
    11f2:	e0 91 ab 21 	lds	r30, 0x21AB	; 0x8021ab <tc_tce0_ccb_callback>
    11f6:	f0 91 ac 21 	lds	r31, 0x21AC	; 0x8021ac <tc_tce0_ccb_callback+0x1>
    11fa:	30 97       	sbiw	r30, 0x00	; 0
    11fc:	09 f0       	breq	.+2      	; 0x1200 <__vector_50+0x42>
    11fe:	19 95       	eicall
    1200:	ff 91       	pop	r31
    1202:	ef 91       	pop	r30
    1204:	bf 91       	pop	r27
    1206:	af 91       	pop	r26
    1208:	9f 91       	pop	r25
    120a:	8f 91       	pop	r24
    120c:	7f 91       	pop	r23
    120e:	6f 91       	pop	r22
    1210:	5f 91       	pop	r21
    1212:	4f 91       	pop	r20
    1214:	3f 91       	pop	r19
    1216:	2f 91       	pop	r18
    1218:	0f 90       	pop	r0
    121a:	0b be       	out	0x3b, r0	; 59
    121c:	0f 90       	pop	r0
    121e:	09 be       	out	0x39, r0	; 57
    1220:	0f 90       	pop	r0
    1222:	08 be       	out	0x38, r0	; 56
    1224:	0f 90       	pop	r0
    1226:	0f be       	out	0x3f, r0	; 63
    1228:	0f 90       	pop	r0
    122a:	1f 90       	pop	r1
    122c:	18 95       	reti

0000122e <__vector_51>:
    122e:	1f 92       	push	r1
    1230:	0f 92       	push	r0
    1232:	0f b6       	in	r0, 0x3f	; 63
    1234:	0f 92       	push	r0
    1236:	11 24       	eor	r1, r1
    1238:	08 b6       	in	r0, 0x38	; 56
    123a:	0f 92       	push	r0
    123c:	18 be       	out	0x38, r1	; 56
    123e:	09 b6       	in	r0, 0x39	; 57
    1240:	0f 92       	push	r0
    1242:	19 be       	out	0x39, r1	; 57
    1244:	0b b6       	in	r0, 0x3b	; 59
    1246:	0f 92       	push	r0
    1248:	1b be       	out	0x3b, r1	; 59
    124a:	2f 93       	push	r18
    124c:	3f 93       	push	r19
    124e:	4f 93       	push	r20
    1250:	5f 93       	push	r21
    1252:	6f 93       	push	r22
    1254:	7f 93       	push	r23
    1256:	8f 93       	push	r24
    1258:	9f 93       	push	r25
    125a:	af 93       	push	r26
    125c:	bf 93       	push	r27
    125e:	ef 93       	push	r30
    1260:	ff 93       	push	r31
    1262:	e0 91 a9 21 	lds	r30, 0x21A9	; 0x8021a9 <tc_tce0_ccc_callback>
    1266:	f0 91 aa 21 	lds	r31, 0x21AA	; 0x8021aa <tc_tce0_ccc_callback+0x1>
    126a:	30 97       	sbiw	r30, 0x00	; 0
    126c:	09 f0       	breq	.+2      	; 0x1270 <__vector_51+0x42>
    126e:	19 95       	eicall
    1270:	ff 91       	pop	r31
    1272:	ef 91       	pop	r30
    1274:	bf 91       	pop	r27
    1276:	af 91       	pop	r26
    1278:	9f 91       	pop	r25
    127a:	8f 91       	pop	r24
    127c:	7f 91       	pop	r23
    127e:	6f 91       	pop	r22
    1280:	5f 91       	pop	r21
    1282:	4f 91       	pop	r20
    1284:	3f 91       	pop	r19
    1286:	2f 91       	pop	r18
    1288:	0f 90       	pop	r0
    128a:	0b be       	out	0x3b, r0	; 59
    128c:	0f 90       	pop	r0
    128e:	09 be       	out	0x39, r0	; 57
    1290:	0f 90       	pop	r0
    1292:	08 be       	out	0x38, r0	; 56
    1294:	0f 90       	pop	r0
    1296:	0f be       	out	0x3f, r0	; 63
    1298:	0f 90       	pop	r0
    129a:	1f 90       	pop	r1
    129c:	18 95       	reti

0000129e <__vector_52>:
    129e:	1f 92       	push	r1
    12a0:	0f 92       	push	r0
    12a2:	0f b6       	in	r0, 0x3f	; 63
    12a4:	0f 92       	push	r0
    12a6:	11 24       	eor	r1, r1
    12a8:	08 b6       	in	r0, 0x38	; 56
    12aa:	0f 92       	push	r0
    12ac:	18 be       	out	0x38, r1	; 56
    12ae:	09 b6       	in	r0, 0x39	; 57
    12b0:	0f 92       	push	r0
    12b2:	19 be       	out	0x39, r1	; 57
    12b4:	0b b6       	in	r0, 0x3b	; 59
    12b6:	0f 92       	push	r0
    12b8:	1b be       	out	0x3b, r1	; 59
    12ba:	2f 93       	push	r18
    12bc:	3f 93       	push	r19
    12be:	4f 93       	push	r20
    12c0:	5f 93       	push	r21
    12c2:	6f 93       	push	r22
    12c4:	7f 93       	push	r23
    12c6:	8f 93       	push	r24
    12c8:	9f 93       	push	r25
    12ca:	af 93       	push	r26
    12cc:	bf 93       	push	r27
    12ce:	ef 93       	push	r30
    12d0:	ff 93       	push	r31
    12d2:	e0 91 a7 21 	lds	r30, 0x21A7	; 0x8021a7 <tc_tce0_ccd_callback>
    12d6:	f0 91 a8 21 	lds	r31, 0x21A8	; 0x8021a8 <tc_tce0_ccd_callback+0x1>
    12da:	30 97       	sbiw	r30, 0x00	; 0
    12dc:	09 f0       	breq	.+2      	; 0x12e0 <__vector_52+0x42>
    12de:	19 95       	eicall
    12e0:	ff 91       	pop	r31
    12e2:	ef 91       	pop	r30
    12e4:	bf 91       	pop	r27
    12e6:	af 91       	pop	r26
    12e8:	9f 91       	pop	r25
    12ea:	8f 91       	pop	r24
    12ec:	7f 91       	pop	r23
    12ee:	6f 91       	pop	r22
    12f0:	5f 91       	pop	r21
    12f2:	4f 91       	pop	r20
    12f4:	3f 91       	pop	r19
    12f6:	2f 91       	pop	r18
    12f8:	0f 90       	pop	r0
    12fa:	0b be       	out	0x3b, r0	; 59
    12fc:	0f 90       	pop	r0
    12fe:	09 be       	out	0x39, r0	; 57
    1300:	0f 90       	pop	r0
    1302:	08 be       	out	0x38, r0	; 56
    1304:	0f 90       	pop	r0
    1306:	0f be       	out	0x3f, r0	; 63
    1308:	0f 90       	pop	r0
    130a:	1f 90       	pop	r1
    130c:	18 95       	reti

0000130e <twim_interrupt_handler>:
    130e:	cf 93       	push	r28
    1310:	df 93       	push	r29
    1312:	e0 91 d9 21 	lds	r30, 0x21D9	; 0x8021d9 <transfer>
    1316:	f0 91 da 21 	lds	r31, 0x21DA	; 0x8021da <transfer+0x1>
    131a:	84 81       	ldd	r24, Z+4	; 0x04
    131c:	83 ff       	sbrs	r24, 3
    131e:	08 c0       	rjmp	.+16     	; 0x1330 <twim_interrupt_handler+0x22>
    1320:	88 60       	ori	r24, 0x08	; 8
    1322:	84 83       	std	Z+4, r24	; 0x04
    1324:	83 e0       	ldi	r24, 0x03	; 3
    1326:	83 83       	std	Z+3, r24	; 0x03
    1328:	86 ef       	ldi	r24, 0xF6	; 246
    132a:	80 93 e3 21 	sts	0x21E3, r24	; 0x8021e3 <transfer+0xa>
    132e:	83 c0       	rjmp	.+262    	; 0x1436 <twim_interrupt_handler+0x128>
    1330:	98 2f       	mov	r25, r24
    1332:	94 71       	andi	r25, 0x14	; 20
    1334:	31 f0       	breq	.+12     	; 0x1342 <twim_interrupt_handler+0x34>
    1336:	83 e0       	ldi	r24, 0x03	; 3
    1338:	83 83       	std	Z+3, r24	; 0x03
    133a:	8f ef       	ldi	r24, 0xFF	; 255
    133c:	80 93 e3 21 	sts	0x21E3, r24	; 0x8021e3 <transfer+0xa>
    1340:	7a c0       	rjmp	.+244    	; 0x1436 <twim_interrupt_handler+0x128>
    1342:	86 ff       	sbrs	r24, 6
    1344:	43 c0       	rjmp	.+134    	; 0x13cc <twim_interrupt_handler+0xbe>
    1346:	c9 ed       	ldi	r28, 0xD9	; 217
    1348:	d1 e2       	ldi	r29, 0x21	; 33
    134a:	aa 81       	ldd	r26, Y+2	; 0x02
    134c:	bb 81       	ldd	r27, Y+3	; 0x03
    134e:	8c 81       	ldd	r24, Y+4	; 0x04
    1350:	9d 81       	ldd	r25, Y+5	; 0x05
    1352:	14 96       	adiw	r26, 0x04	; 4
    1354:	2d 91       	ld	r18, X+
    1356:	3c 91       	ld	r19, X
    1358:	15 97       	sbiw	r26, 0x05	; 5
    135a:	82 17       	cp	r24, r18
    135c:	93 07       	cpc	r25, r19
    135e:	6c f4       	brge	.+26     	; 0x137a <twim_interrupt_handler+0x6c>
    1360:	9c 01       	movw	r18, r24
    1362:	2f 5f       	subi	r18, 0xFF	; 255
    1364:	3f 4f       	sbci	r19, 0xFF	; 255
    1366:	20 93 dd 21 	sts	0x21DD, r18	; 0x8021dd <transfer+0x4>
    136a:	30 93 de 21 	sts	0x21DE, r19	; 0x8021de <transfer+0x5>
    136e:	a8 0f       	add	r26, r24
    1370:	b9 1f       	adc	r27, r25
    1372:	11 96       	adiw	r26, 0x01	; 1
    1374:	8c 91       	ld	r24, X
    1376:	87 83       	std	Z+7, r24	; 0x07
    1378:	5e c0       	rjmp	.+188    	; 0x1436 <twim_interrupt_handler+0x128>
    137a:	80 91 df 21 	lds	r24, 0x21DF	; 0x8021df <transfer+0x6>
    137e:	90 91 e0 21 	lds	r25, 0x21E0	; 0x8021e0 <transfer+0x7>
    1382:	18 96       	adiw	r26, 0x08	; 8
    1384:	2d 91       	ld	r18, X+
    1386:	3c 91       	ld	r19, X
    1388:	19 97       	sbiw	r26, 0x09	; 9
    138a:	82 17       	cp	r24, r18
    138c:	93 07       	cpc	r25, r19
    138e:	c8 f4       	brcc	.+50     	; 0x13c2 <twim_interrupt_handler+0xb4>
    1390:	20 91 e1 21 	lds	r18, 0x21E1	; 0x8021e1 <transfer+0x8>
    1394:	22 23       	and	r18, r18
    1396:	21 f0       	breq	.+8      	; 0x13a0 <twim_interrupt_handler+0x92>
    1398:	86 81       	ldd	r24, Z+6	; 0x06
    139a:	81 60       	ori	r24, 0x01	; 1
    139c:	86 83       	std	Z+6, r24	; 0x06
    139e:	4b c0       	rjmp	.+150    	; 0x1436 <twim_interrupt_handler+0x128>
    13a0:	16 96       	adiw	r26, 0x06	; 6
    13a2:	2d 91       	ld	r18, X+
    13a4:	3c 91       	ld	r19, X
    13a6:	17 97       	sbiw	r26, 0x07	; 7
    13a8:	ac 01       	movw	r20, r24
    13aa:	4f 5f       	subi	r20, 0xFF	; 255
    13ac:	5f 4f       	sbci	r21, 0xFF	; 255
    13ae:	40 93 df 21 	sts	0x21DF, r20	; 0x8021df <transfer+0x6>
    13b2:	50 93 e0 21 	sts	0x21E0, r21	; 0x8021e0 <transfer+0x7>
    13b6:	d9 01       	movw	r26, r18
    13b8:	a8 0f       	add	r26, r24
    13ba:	b9 1f       	adc	r27, r25
    13bc:	8c 91       	ld	r24, X
    13be:	87 83       	std	Z+7, r24	; 0x07
    13c0:	3a c0       	rjmp	.+116    	; 0x1436 <twim_interrupt_handler+0x128>
    13c2:	83 e0       	ldi	r24, 0x03	; 3
    13c4:	83 83       	std	Z+3, r24	; 0x03
    13c6:	10 92 e3 21 	sts	0x21E3, r1	; 0x8021e3 <transfer+0xa>
    13ca:	35 c0       	rjmp	.+106    	; 0x1436 <twim_interrupt_handler+0x128>
    13cc:	88 23       	and	r24, r24
    13ce:	84 f5       	brge	.+96     	; 0x1430 <twim_interrupt_handler+0x122>
    13d0:	a9 ed       	ldi	r26, 0xD9	; 217
    13d2:	b1 e2       	ldi	r27, 0x21	; 33
    13d4:	12 96       	adiw	r26, 0x02	; 2
    13d6:	cd 91       	ld	r28, X+
    13d8:	dc 91       	ld	r29, X
    13da:	13 97       	sbiw	r26, 0x03	; 3
    13dc:	16 96       	adiw	r26, 0x06	; 6
    13de:	8d 91       	ld	r24, X+
    13e0:	9c 91       	ld	r25, X
    13e2:	17 97       	sbiw	r26, 0x07	; 7
    13e4:	28 85       	ldd	r18, Y+8	; 0x08
    13e6:	39 85       	ldd	r19, Y+9	; 0x09
    13e8:	82 17       	cp	r24, r18
    13ea:	93 07       	cpc	r25, r19
    13ec:	d8 f4       	brcc	.+54     	; 0x1424 <twim_interrupt_handler+0x116>
    13ee:	6e 81       	ldd	r22, Y+6	; 0x06
    13f0:	7f 81       	ldd	r23, Y+7	; 0x07
    13f2:	9c 01       	movw	r18, r24
    13f4:	2f 5f       	subi	r18, 0xFF	; 255
    13f6:	3f 4f       	sbci	r19, 0xFF	; 255
    13f8:	20 93 df 21 	sts	0x21DF, r18	; 0x8021df <transfer+0x6>
    13fc:	30 93 e0 21 	sts	0x21E0, r19	; 0x8021e0 <transfer+0x7>
    1400:	47 81       	ldd	r20, Z+7	; 0x07
    1402:	db 01       	movw	r26, r22
    1404:	a8 0f       	add	r26, r24
    1406:	b9 1f       	adc	r27, r25
    1408:	4c 93       	st	X, r20
    140a:	88 85       	ldd	r24, Y+8	; 0x08
    140c:	99 85       	ldd	r25, Y+9	; 0x09
    140e:	28 17       	cp	r18, r24
    1410:	39 07       	cpc	r19, r25
    1412:	18 f4       	brcc	.+6      	; 0x141a <twim_interrupt_handler+0x10c>
    1414:	82 e0       	ldi	r24, 0x02	; 2
    1416:	83 83       	std	Z+3, r24	; 0x03
    1418:	0e c0       	rjmp	.+28     	; 0x1436 <twim_interrupt_handler+0x128>
    141a:	87 e0       	ldi	r24, 0x07	; 7
    141c:	83 83       	std	Z+3, r24	; 0x03
    141e:	10 92 e3 21 	sts	0x21E3, r1	; 0x8021e3 <transfer+0xa>
    1422:	09 c0       	rjmp	.+18     	; 0x1436 <twim_interrupt_handler+0x128>
    1424:	83 e0       	ldi	r24, 0x03	; 3
    1426:	83 83       	std	Z+3, r24	; 0x03
    1428:	89 ef       	ldi	r24, 0xF9	; 249
    142a:	80 93 e3 21 	sts	0x21E3, r24	; 0x8021e3 <transfer+0xa>
    142e:	03 c0       	rjmp	.+6      	; 0x1436 <twim_interrupt_handler+0x128>
    1430:	8b ef       	ldi	r24, 0xFB	; 251
    1432:	80 93 e3 21 	sts	0x21E3, r24	; 0x8021e3 <transfer+0xa>
    1436:	df 91       	pop	r29
    1438:	cf 91       	pop	r28
    143a:	08 95       	ret

0000143c <__vector_13>:
    143c:	1f 92       	push	r1
    143e:	0f 92       	push	r0
    1440:	0f b6       	in	r0, 0x3f	; 63
    1442:	0f 92       	push	r0
    1444:	11 24       	eor	r1, r1
    1446:	08 b6       	in	r0, 0x38	; 56
    1448:	0f 92       	push	r0
    144a:	18 be       	out	0x38, r1	; 56
    144c:	09 b6       	in	r0, 0x39	; 57
    144e:	0f 92       	push	r0
    1450:	19 be       	out	0x39, r1	; 57
    1452:	0b b6       	in	r0, 0x3b	; 59
    1454:	0f 92       	push	r0
    1456:	1b be       	out	0x3b, r1	; 59
    1458:	2f 93       	push	r18
    145a:	3f 93       	push	r19
    145c:	4f 93       	push	r20
    145e:	5f 93       	push	r21
    1460:	6f 93       	push	r22
    1462:	7f 93       	push	r23
    1464:	8f 93       	push	r24
    1466:	9f 93       	push	r25
    1468:	af 93       	push	r26
    146a:	bf 93       	push	r27
    146c:	ef 93       	push	r30
    146e:	ff 93       	push	r31
    1470:	4e df       	rcall	.-356    	; 0x130e <twim_interrupt_handler>
    1472:	ff 91       	pop	r31
    1474:	ef 91       	pop	r30
    1476:	bf 91       	pop	r27
    1478:	af 91       	pop	r26
    147a:	9f 91       	pop	r25
    147c:	8f 91       	pop	r24
    147e:	7f 91       	pop	r23
    1480:	6f 91       	pop	r22
    1482:	5f 91       	pop	r21
    1484:	4f 91       	pop	r20
    1486:	3f 91       	pop	r19
    1488:	2f 91       	pop	r18
    148a:	0f 90       	pop	r0
    148c:	0b be       	out	0x3b, r0	; 59
    148e:	0f 90       	pop	r0
    1490:	09 be       	out	0x39, r0	; 57
    1492:	0f 90       	pop	r0
    1494:	08 be       	out	0x38, r0	; 56
    1496:	0f 90       	pop	r0
    1498:	0f be       	out	0x3f, r0	; 63
    149a:	0f 90       	pop	r0
    149c:	1f 90       	pop	r1
    149e:	18 95       	reti

000014a0 <__vector_46>:
    14a0:	1f 92       	push	r1
    14a2:	0f 92       	push	r0
    14a4:	0f b6       	in	r0, 0x3f	; 63
    14a6:	0f 92       	push	r0
    14a8:	11 24       	eor	r1, r1
    14aa:	08 b6       	in	r0, 0x38	; 56
    14ac:	0f 92       	push	r0
    14ae:	18 be       	out	0x38, r1	; 56
    14b0:	09 b6       	in	r0, 0x39	; 57
    14b2:	0f 92       	push	r0
    14b4:	19 be       	out	0x39, r1	; 57
    14b6:	0b b6       	in	r0, 0x3b	; 59
    14b8:	0f 92       	push	r0
    14ba:	1b be       	out	0x3b, r1	; 59
    14bc:	2f 93       	push	r18
    14be:	3f 93       	push	r19
    14c0:	4f 93       	push	r20
    14c2:	5f 93       	push	r21
    14c4:	6f 93       	push	r22
    14c6:	7f 93       	push	r23
    14c8:	8f 93       	push	r24
    14ca:	9f 93       	push	r25
    14cc:	af 93       	push	r26
    14ce:	bf 93       	push	r27
    14d0:	ef 93       	push	r30
    14d2:	ff 93       	push	r31
    14d4:	1c df       	rcall	.-456    	; 0x130e <twim_interrupt_handler>
    14d6:	ff 91       	pop	r31
    14d8:	ef 91       	pop	r30
    14da:	bf 91       	pop	r27
    14dc:	af 91       	pop	r26
    14de:	9f 91       	pop	r25
    14e0:	8f 91       	pop	r24
    14e2:	7f 91       	pop	r23
    14e4:	6f 91       	pop	r22
    14e6:	5f 91       	pop	r21
    14e8:	4f 91       	pop	r20
    14ea:	3f 91       	pop	r19
    14ec:	2f 91       	pop	r18
    14ee:	0f 90       	pop	r0
    14f0:	0b be       	out	0x3b, r0	; 59
    14f2:	0f 90       	pop	r0
    14f4:	09 be       	out	0x39, r0	; 57
    14f6:	0f 90       	pop	r0
    14f8:	08 be       	out	0x38, r0	; 56
    14fa:	0f 90       	pop	r0
    14fc:	0f be       	out	0x3f, r0	; 63
    14fe:	0f 90       	pop	r0
    1500:	1f 90       	pop	r1
    1502:	18 95       	reti

00001504 <twi_master_init>:
    1504:	fc 01       	movw	r30, r24
    1506:	db 01       	movw	r26, r22
    1508:	14 96       	adiw	r26, 0x04	; 4
    150a:	8c 91       	ld	r24, X
    150c:	85 83       	std	Z+5, r24	; 0x05
    150e:	88 eb       	ldi	r24, 0xB8	; 184
    1510:	81 83       	std	Z+1, r24	; 0x01
    1512:	81 e0       	ldi	r24, 0x01	; 1
    1514:	84 83       	std	Z+4, r24	; 0x04
    1516:	e9 ed       	ldi	r30, 0xD9	; 217
    1518:	f1 e2       	ldi	r31, 0x21	; 33
    151a:	11 86       	std	Z+9, r1	; 0x09
    151c:	12 86       	std	Z+10, r1	; 0x0a
    151e:	e0 ea       	ldi	r30, 0xA0	; 160
    1520:	f0 e0       	ldi	r31, 0x00	; 0
    1522:	82 81       	ldd	r24, Z+2	; 0x02
    1524:	82 60       	ori	r24, 0x02	; 2
    1526:	82 83       	std	Z+2, r24	; 0x02
    1528:	78 94       	sei
    152a:	80 e0       	ldi	r24, 0x00	; 0
    152c:	08 95       	ret

0000152e <twi_master_transfer>:
    152e:	cf 93       	push	r28
    1530:	df 93       	push	r29
    1532:	1f 92       	push	r1
    1534:	cd b7       	in	r28, 0x3d	; 61
    1536:	de b7       	in	r29, 0x3e	; 62
    1538:	9c 01       	movw	r18, r24
    153a:	fb 01       	movw	r30, r22
    153c:	89 2b       	or	r24, r25
    153e:	09 f4       	brne	.+2      	; 0x1542 <twi_master_transfer+0x14>
    1540:	51 c0       	rjmp	.+162    	; 0x15e4 <twi_master_transfer+0xb6>
    1542:	30 97       	sbiw	r30, 0x00	; 0
    1544:	09 f4       	brne	.+2      	; 0x1548 <twi_master_transfer+0x1a>
    1546:	50 c0       	rjmp	.+160    	; 0x15e8 <twi_master_transfer+0xba>
    1548:	92 85       	ldd	r25, Z+10	; 0x0a
    154a:	80 91 e2 21 	lds	r24, 0x21E2	; 0x8021e2 <transfer+0x9>
    154e:	88 23       	and	r24, r24
    1550:	19 f0       	breq	.+6      	; 0x1558 <twi_master_transfer+0x2a>
    1552:	99 23       	and	r25, r25
    1554:	f1 f3       	breq	.-4      	; 0x1552 <twi_master_transfer+0x24>
    1556:	4a c0       	rjmp	.+148    	; 0x15ec <twi_master_transfer+0xbe>
    1558:	8f b7       	in	r24, 0x3f	; 63
    155a:	89 83       	std	Y+1, r24	; 0x01
    155c:	f8 94       	cli
    155e:	89 81       	ldd	r24, Y+1	; 0x01
    1560:	a9 ed       	ldi	r26, 0xD9	; 217
    1562:	b1 e2       	ldi	r27, 0x21	; 33
    1564:	91 e0       	ldi	r25, 0x01	; 1
    1566:	19 96       	adiw	r26, 0x09	; 9
    1568:	9c 93       	st	X, r25
    156a:	19 97       	sbiw	r26, 0x09	; 9
    156c:	90 e8       	ldi	r25, 0x80	; 128
    156e:	1a 96       	adiw	r26, 0x0a	; 10
    1570:	9c 93       	st	X, r25
    1572:	1a 97       	sbiw	r26, 0x0a	; 10
    1574:	8f bf       	out	0x3f, r24	; 63
    1576:	2d 93       	st	X+, r18
    1578:	3c 93       	st	X, r19
    157a:	11 97       	sbiw	r26, 0x01	; 1
    157c:	12 96       	adiw	r26, 0x02	; 2
    157e:	6d 93       	st	X+, r22
    1580:	7c 93       	st	X, r23
    1582:	13 97       	sbiw	r26, 0x03	; 3
    1584:	14 96       	adiw	r26, 0x04	; 4
    1586:	1d 92       	st	X+, r1
    1588:	1c 92       	st	X, r1
    158a:	15 97       	sbiw	r26, 0x05	; 5
    158c:	16 96       	adiw	r26, 0x06	; 6
    158e:	1d 92       	st	X+, r1
    1590:	1c 92       	st	X, r1
    1592:	17 97       	sbiw	r26, 0x07	; 7
    1594:	18 96       	adiw	r26, 0x08	; 8
    1596:	4c 93       	st	X, r20
    1598:	80 81       	ld	r24, Z
    159a:	88 0f       	add	r24, r24
    159c:	64 81       	ldd	r22, Z+4	; 0x04
    159e:	75 81       	ldd	r23, Z+5	; 0x05
    15a0:	67 2b       	or	r22, r23
    15a2:	11 f4       	brne	.+4      	; 0x15a8 <twi_master_transfer+0x7a>
    15a4:	41 11       	cpse	r20, r1
    15a6:	03 c0       	rjmp	.+6      	; 0x15ae <twi_master_transfer+0x80>
    15a8:	f9 01       	movw	r30, r18
    15aa:	86 83       	std	Z+6, r24	; 0x06
    15ac:	03 c0       	rjmp	.+6      	; 0x15b4 <twi_master_transfer+0x86>
    15ae:	81 60       	ori	r24, 0x01	; 1
    15b0:	f9 01       	movw	r30, r18
    15b2:	86 83       	std	Z+6, r24	; 0x06
    15b4:	e9 ed       	ldi	r30, 0xD9	; 217
    15b6:	f1 e2       	ldi	r31, 0x21	; 33
    15b8:	92 85       	ldd	r25, Z+10	; 0x0a
    15ba:	90 38       	cpi	r25, 0x80	; 128
    15bc:	e9 f3       	breq	.-6      	; 0x15b8 <twi_master_transfer+0x8a>
    15be:	f9 01       	movw	r30, r18
    15c0:	84 81       	ldd	r24, Z+4	; 0x04
    15c2:	83 70       	andi	r24, 0x03	; 3
    15c4:	81 30       	cpi	r24, 0x01	; 1
    15c6:	49 f0       	breq	.+18     	; 0x15da <twi_master_transfer+0xac>
    15c8:	a9 ed       	ldi	r26, 0xD9	; 217
    15ca:	b1 e2       	ldi	r27, 0x21	; 33
    15cc:	ed 91       	ld	r30, X+
    15ce:	fc 91       	ld	r31, X
    15d0:	11 97       	sbiw	r26, 0x01	; 1
    15d2:	84 81       	ldd	r24, Z+4	; 0x04
    15d4:	83 70       	andi	r24, 0x03	; 3
    15d6:	81 30       	cpi	r24, 0x01	; 1
    15d8:	c9 f7       	brne	.-14     	; 0x15cc <twi_master_transfer+0x9e>
    15da:	e9 ed       	ldi	r30, 0xD9	; 217
    15dc:	f1 e2       	ldi	r31, 0x21	; 33
    15de:	82 85       	ldd	r24, Z+10	; 0x0a
    15e0:	11 86       	std	Z+9, r1	; 0x09
    15e2:	05 c0       	rjmp	.+10     	; 0x15ee <twi_master_transfer+0xc0>
    15e4:	88 ef       	ldi	r24, 0xF8	; 248
    15e6:	03 c0       	rjmp	.+6      	; 0x15ee <twi_master_transfer+0xc0>
    15e8:	88 ef       	ldi	r24, 0xF8	; 248
    15ea:	01 c0       	rjmp	.+2      	; 0x15ee <twi_master_transfer+0xc0>
    15ec:	86 ef       	ldi	r24, 0xF6	; 246
    15ee:	0f 90       	pop	r0
    15f0:	df 91       	pop	r29
    15f2:	cf 91       	pop	r28
    15f4:	08 95       	ret

000015f6 <usart_putchar>:
    15f6:	fc 01       	movw	r30, r24
    15f8:	91 81       	ldd	r25, Z+1	; 0x01
    15fa:	95 ff       	sbrs	r25, 5
    15fc:	fd cf       	rjmp	.-6      	; 0x15f8 <usart_putchar+0x2>
    15fe:	60 83       	st	Z, r22
    1600:	80 e0       	ldi	r24, 0x00	; 0
    1602:	90 e0       	ldi	r25, 0x00	; 0
    1604:	08 95       	ret

00001606 <usart_getchar>:
    1606:	fc 01       	movw	r30, r24
    1608:	91 81       	ldd	r25, Z+1	; 0x01
    160a:	99 23       	and	r25, r25
    160c:	ec f7       	brge	.-6      	; 0x1608 <usart_getchar+0x2>
    160e:	80 81       	ld	r24, Z
    1610:	08 95       	ret

00001612 <usart_set_baudrate>:
    1612:	4f 92       	push	r4
    1614:	5f 92       	push	r5
    1616:	6f 92       	push	r6
    1618:	7f 92       	push	r7
    161a:	8f 92       	push	r8
    161c:	9f 92       	push	r9
    161e:	af 92       	push	r10
    1620:	bf 92       	push	r11
    1622:	ef 92       	push	r14
    1624:	ff 92       	push	r15
    1626:	0f 93       	push	r16
    1628:	1f 93       	push	r17
    162a:	cf 93       	push	r28
    162c:	7c 01       	movw	r14, r24
    162e:	4a 01       	movw	r8, r20
    1630:	5b 01       	movw	r10, r22
    1632:	28 01       	movw	r4, r16
    1634:	39 01       	movw	r6, r18
    1636:	fc 01       	movw	r30, r24
    1638:	84 81       	ldd	r24, Z+4	; 0x04
    163a:	82 ff       	sbrs	r24, 2
    163c:	16 c0       	rjmp	.+44     	; 0x166a <usart_set_baudrate+0x58>
    163e:	d9 01       	movw	r26, r18
    1640:	c8 01       	movw	r24, r16
    1642:	68 94       	set
    1644:	12 f8       	bld	r1, 2
    1646:	b6 95       	lsr	r27
    1648:	a7 95       	ror	r26
    164a:	97 95       	ror	r25
    164c:	87 95       	ror	r24
    164e:	16 94       	lsr	r1
    1650:	d1 f7       	brne	.-12     	; 0x1646 <usart_set_baudrate+0x34>
    1652:	b9 01       	movw	r22, r18
    1654:	a8 01       	movw	r20, r16
    1656:	03 2e       	mov	r0, r19
    1658:	36 e1       	ldi	r19, 0x16	; 22
    165a:	76 95       	lsr	r23
    165c:	67 95       	ror	r22
    165e:	57 95       	ror	r21
    1660:	47 95       	ror	r20
    1662:	3a 95       	dec	r19
    1664:	d1 f7       	brne	.-12     	; 0x165a <usart_set_baudrate+0x48>
    1666:	30 2d       	mov	r19, r0
    1668:	15 c0       	rjmp	.+42     	; 0x1694 <usart_set_baudrate+0x82>
    166a:	d9 01       	movw	r26, r18
    166c:	c8 01       	movw	r24, r16
    166e:	68 94       	set
    1670:	13 f8       	bld	r1, 3
    1672:	b6 95       	lsr	r27
    1674:	a7 95       	ror	r26
    1676:	97 95       	ror	r25
    1678:	87 95       	ror	r24
    167a:	16 94       	lsr	r1
    167c:	d1 f7       	brne	.-12     	; 0x1672 <usart_set_baudrate+0x60>
    167e:	b9 01       	movw	r22, r18
    1680:	a8 01       	movw	r20, r16
    1682:	03 2e       	mov	r0, r19
    1684:	37 e1       	ldi	r19, 0x17	; 23
    1686:	76 95       	lsr	r23
    1688:	67 95       	ror	r22
    168a:	57 95       	ror	r21
    168c:	47 95       	ror	r20
    168e:	3a 95       	dec	r19
    1690:	d1 f7       	brne	.-12     	; 0x1686 <usart_set_baudrate+0x74>
    1692:	30 2d       	mov	r19, r0
    1694:	88 15       	cp	r24, r8
    1696:	99 05       	cpc	r25, r9
    1698:	aa 05       	cpc	r26, r10
    169a:	bb 05       	cpc	r27, r11
    169c:	08 f4       	brcc	.+2      	; 0x16a0 <usart_set_baudrate+0x8e>
    169e:	a6 c0       	rjmp	.+332    	; 0x17ec <usart_set_baudrate+0x1da>
    16a0:	84 16       	cp	r8, r20
    16a2:	95 06       	cpc	r9, r21
    16a4:	a6 06       	cpc	r10, r22
    16a6:	b7 06       	cpc	r11, r23
    16a8:	08 f4       	brcc	.+2      	; 0x16ac <usart_set_baudrate+0x9a>
    16aa:	a2 c0       	rjmp	.+324    	; 0x17f0 <usart_set_baudrate+0x1de>
    16ac:	f7 01       	movw	r30, r14
    16ae:	84 81       	ldd	r24, Z+4	; 0x04
    16b0:	82 fd       	sbrc	r24, 2
    16b2:	04 c0       	rjmp	.+8      	; 0x16bc <usart_set_baudrate+0xaa>
    16b4:	88 0c       	add	r8, r8
    16b6:	99 1c       	adc	r9, r9
    16b8:	aa 1c       	adc	r10, r10
    16ba:	bb 1c       	adc	r11, r11
    16bc:	c3 01       	movw	r24, r6
    16be:	b2 01       	movw	r22, r4
    16c0:	a5 01       	movw	r20, r10
    16c2:	94 01       	movw	r18, r8
    16c4:	0e 94 b4 32 	call	0x6568	; 0x6568 <__udivmodsi4>
    16c8:	2f 3f       	cpi	r18, 0xFF	; 255
    16ca:	31 05       	cpc	r19, r1
    16cc:	41 05       	cpc	r20, r1
    16ce:	51 05       	cpc	r21, r1
    16d0:	08 f4       	brcc	.+2      	; 0x16d4 <usart_set_baudrate+0xc2>
    16d2:	90 c0       	rjmp	.+288    	; 0x17f4 <usart_set_baudrate+0x1e2>
    16d4:	8f ef       	ldi	r24, 0xFF	; 255
    16d6:	90 e0       	ldi	r25, 0x00	; 0
    16d8:	a0 e0       	ldi	r26, 0x00	; 0
    16da:	b0 e0       	ldi	r27, 0x00	; 0
    16dc:	c9 ef       	ldi	r28, 0xF9	; 249
    16de:	05 c0       	rjmp	.+10     	; 0x16ea <usart_set_baudrate+0xd8>
    16e0:	28 17       	cp	r18, r24
    16e2:	39 07       	cpc	r19, r25
    16e4:	4a 07       	cpc	r20, r26
    16e6:	5b 07       	cpc	r21, r27
    16e8:	58 f0       	brcs	.+22     	; 0x1700 <usart_set_baudrate+0xee>
    16ea:	88 0f       	add	r24, r24
    16ec:	99 1f       	adc	r25, r25
    16ee:	aa 1f       	adc	r26, r26
    16f0:	bb 1f       	adc	r27, r27
    16f2:	cd 3f       	cpi	r28, 0xFD	; 253
    16f4:	0c f4       	brge	.+2      	; 0x16f8 <usart_set_baudrate+0xe6>
    16f6:	81 60       	ori	r24, 0x01	; 1
    16f8:	cf 5f       	subi	r28, 0xFF	; 255
    16fa:	c7 30       	cpi	r28, 0x07	; 7
    16fc:	89 f7       	brne	.-30     	; 0x16e0 <usart_set_baudrate+0xce>
    16fe:	4f c0       	rjmp	.+158    	; 0x179e <usart_set_baudrate+0x18c>
    1700:	cc 23       	and	r28, r28
    1702:	0c f0       	brlt	.+2      	; 0x1706 <usart_set_baudrate+0xf4>
    1704:	4c c0       	rjmp	.+152    	; 0x179e <usart_set_baudrate+0x18c>
    1706:	d5 01       	movw	r26, r10
    1708:	c4 01       	movw	r24, r8
    170a:	88 0f       	add	r24, r24
    170c:	99 1f       	adc	r25, r25
    170e:	aa 1f       	adc	r26, r26
    1710:	bb 1f       	adc	r27, r27
    1712:	88 0f       	add	r24, r24
    1714:	99 1f       	adc	r25, r25
    1716:	aa 1f       	adc	r26, r26
    1718:	bb 1f       	adc	r27, r27
    171a:	88 0f       	add	r24, r24
    171c:	99 1f       	adc	r25, r25
    171e:	aa 1f       	adc	r26, r26
    1720:	bb 1f       	adc	r27, r27
    1722:	48 1a       	sub	r4, r24
    1724:	59 0a       	sbc	r5, r25
    1726:	6a 0a       	sbc	r6, r26
    1728:	7b 0a       	sbc	r7, r27
    172a:	ce 3f       	cpi	r28, 0xFE	; 254
    172c:	f4 f4       	brge	.+60     	; 0x176a <usart_set_baudrate+0x158>
    172e:	8d ef       	ldi	r24, 0xFD	; 253
    1730:	9f ef       	ldi	r25, 0xFF	; 255
    1732:	8c 1b       	sub	r24, r28
    1734:	91 09       	sbc	r25, r1
    1736:	c7 fd       	sbrc	r28, 7
    1738:	93 95       	inc	r25
    173a:	04 c0       	rjmp	.+8      	; 0x1744 <usart_set_baudrate+0x132>
    173c:	44 0c       	add	r4, r4
    173e:	55 1c       	adc	r5, r5
    1740:	66 1c       	adc	r6, r6
    1742:	77 1c       	adc	r7, r7
    1744:	8a 95       	dec	r24
    1746:	d2 f7       	brpl	.-12     	; 0x173c <usart_set_baudrate+0x12a>
    1748:	d5 01       	movw	r26, r10
    174a:	c4 01       	movw	r24, r8
    174c:	b6 95       	lsr	r27
    174e:	a7 95       	ror	r26
    1750:	97 95       	ror	r25
    1752:	87 95       	ror	r24
    1754:	bc 01       	movw	r22, r24
    1756:	cd 01       	movw	r24, r26
    1758:	64 0d       	add	r22, r4
    175a:	75 1d       	adc	r23, r5
    175c:	86 1d       	adc	r24, r6
    175e:	97 1d       	adc	r25, r7
    1760:	a5 01       	movw	r20, r10
    1762:	94 01       	movw	r18, r8
    1764:	0e 94 b4 32 	call	0x6568	; 0x6568 <__udivmodsi4>
    1768:	37 c0       	rjmp	.+110    	; 0x17d8 <usart_set_baudrate+0x1c6>
    176a:	83 e0       	ldi	r24, 0x03	; 3
    176c:	8c 0f       	add	r24, r28
    176e:	a5 01       	movw	r20, r10
    1770:	94 01       	movw	r18, r8
    1772:	04 c0       	rjmp	.+8      	; 0x177c <usart_set_baudrate+0x16a>
    1774:	22 0f       	add	r18, r18
    1776:	33 1f       	adc	r19, r19
    1778:	44 1f       	adc	r20, r20
    177a:	55 1f       	adc	r21, r21
    177c:	8a 95       	dec	r24
    177e:	d2 f7       	brpl	.-12     	; 0x1774 <usart_set_baudrate+0x162>
    1780:	da 01       	movw	r26, r20
    1782:	c9 01       	movw	r24, r18
    1784:	b6 95       	lsr	r27
    1786:	a7 95       	ror	r26
    1788:	97 95       	ror	r25
    178a:	87 95       	ror	r24
    178c:	bc 01       	movw	r22, r24
    178e:	cd 01       	movw	r24, r26
    1790:	64 0d       	add	r22, r4
    1792:	75 1d       	adc	r23, r5
    1794:	86 1d       	adc	r24, r6
    1796:	97 1d       	adc	r25, r7
    1798:	0e 94 b4 32 	call	0x6568	; 0x6568 <__udivmodsi4>
    179c:	1d c0       	rjmp	.+58     	; 0x17d8 <usart_set_baudrate+0x1c6>
    179e:	83 e0       	ldi	r24, 0x03	; 3
    17a0:	8c 0f       	add	r24, r28
    17a2:	a5 01       	movw	r20, r10
    17a4:	94 01       	movw	r18, r8
    17a6:	04 c0       	rjmp	.+8      	; 0x17b0 <usart_set_baudrate+0x19e>
    17a8:	22 0f       	add	r18, r18
    17aa:	33 1f       	adc	r19, r19
    17ac:	44 1f       	adc	r20, r20
    17ae:	55 1f       	adc	r21, r21
    17b0:	8a 95       	dec	r24
    17b2:	d2 f7       	brpl	.-12     	; 0x17a8 <usart_set_baudrate+0x196>
    17b4:	da 01       	movw	r26, r20
    17b6:	c9 01       	movw	r24, r18
    17b8:	b6 95       	lsr	r27
    17ba:	a7 95       	ror	r26
    17bc:	97 95       	ror	r25
    17be:	87 95       	ror	r24
    17c0:	bc 01       	movw	r22, r24
    17c2:	cd 01       	movw	r24, r26
    17c4:	64 0d       	add	r22, r4
    17c6:	75 1d       	adc	r23, r5
    17c8:	86 1d       	adc	r24, r6
    17ca:	97 1d       	adc	r25, r7
    17cc:	0e 94 b4 32 	call	0x6568	; 0x6568 <__udivmodsi4>
    17d0:	21 50       	subi	r18, 0x01	; 1
    17d2:	31 09       	sbc	r19, r1
    17d4:	41 09       	sbc	r20, r1
    17d6:	51 09       	sbc	r21, r1
    17d8:	83 2f       	mov	r24, r19
    17da:	8f 70       	andi	r24, 0x0F	; 15
    17dc:	c2 95       	swap	r28
    17de:	c0 7f       	andi	r28, 0xF0	; 240
    17e0:	c8 2b       	or	r28, r24
    17e2:	f7 01       	movw	r30, r14
    17e4:	c7 83       	std	Z+7, r28	; 0x07
    17e6:	26 83       	std	Z+6, r18	; 0x06
    17e8:	81 e0       	ldi	r24, 0x01	; 1
    17ea:	18 c0       	rjmp	.+48     	; 0x181c <usart_set_baudrate+0x20a>
    17ec:	80 e0       	ldi	r24, 0x00	; 0
    17ee:	16 c0       	rjmp	.+44     	; 0x181c <usart_set_baudrate+0x20a>
    17f0:	80 e0       	ldi	r24, 0x00	; 0
    17f2:	14 c0       	rjmp	.+40     	; 0x181c <usart_set_baudrate+0x20a>
    17f4:	d5 01       	movw	r26, r10
    17f6:	c4 01       	movw	r24, r8
    17f8:	88 0f       	add	r24, r24
    17fa:	99 1f       	adc	r25, r25
    17fc:	aa 1f       	adc	r26, r26
    17fe:	bb 1f       	adc	r27, r27
    1800:	88 0f       	add	r24, r24
    1802:	99 1f       	adc	r25, r25
    1804:	aa 1f       	adc	r26, r26
    1806:	bb 1f       	adc	r27, r27
    1808:	88 0f       	add	r24, r24
    180a:	99 1f       	adc	r25, r25
    180c:	aa 1f       	adc	r26, r26
    180e:	bb 1f       	adc	r27, r27
    1810:	48 1a       	sub	r4, r24
    1812:	59 0a       	sbc	r5, r25
    1814:	6a 0a       	sbc	r6, r26
    1816:	7b 0a       	sbc	r7, r27
    1818:	c9 ef       	ldi	r28, 0xF9	; 249
    181a:	89 cf       	rjmp	.-238    	; 0x172e <usart_set_baudrate+0x11c>
    181c:	cf 91       	pop	r28
    181e:	1f 91       	pop	r17
    1820:	0f 91       	pop	r16
    1822:	ff 90       	pop	r15
    1824:	ef 90       	pop	r14
    1826:	bf 90       	pop	r11
    1828:	af 90       	pop	r10
    182a:	9f 90       	pop	r9
    182c:	8f 90       	pop	r8
    182e:	7f 90       	pop	r7
    1830:	6f 90       	pop	r6
    1832:	5f 90       	pop	r5
    1834:	4f 90       	pop	r4
    1836:	08 95       	ret

00001838 <usart_init_rs232>:
    1838:	0f 93       	push	r16
    183a:	1f 93       	push	r17
    183c:	cf 93       	push	r28
    183e:	df 93       	push	r29
    1840:	ec 01       	movw	r28, r24
    1842:	8b 01       	movw	r16, r22
    1844:	00 97       	sbiw	r24, 0x00	; 0
    1846:	09 f4       	brne	.+2      	; 0x184a <usart_init_rs232+0x12>
    1848:	d6 c0       	rjmp	.+428    	; 0x19f6 <usart_init_rs232+0x1be>
    184a:	80 3c       	cpi	r24, 0xC0	; 192
    184c:	91 05       	cpc	r25, r1
    184e:	29 f4       	brne	.+10     	; 0x185a <usart_init_rs232+0x22>
    1850:	60 e1       	ldi	r22, 0x10	; 16
    1852:	80 e0       	ldi	r24, 0x00	; 0
    1854:	0e 94 5b 17 	call	0x2eb6	; 0x2eb6 <sysclk_enable_module>
    1858:	ce c0       	rjmp	.+412    	; 0x19f6 <usart_init_rs232+0x1be>
    185a:	c1 15       	cp	r28, r1
    185c:	84 e0       	ldi	r24, 0x04	; 4
    185e:	d8 07       	cpc	r29, r24
    1860:	29 f4       	brne	.+10     	; 0x186c <usart_init_rs232+0x34>
    1862:	64 e0       	ldi	r22, 0x04	; 4
    1864:	80 e0       	ldi	r24, 0x00	; 0
    1866:	0e 94 5b 17 	call	0x2eb6	; 0x2eb6 <sysclk_enable_module>
    186a:	c5 c0       	rjmp	.+394    	; 0x19f6 <usart_init_rs232+0x1be>
    186c:	c0 38       	cpi	r28, 0x80	; 128
    186e:	e1 e0       	ldi	r30, 0x01	; 1
    1870:	de 07       	cpc	r29, r30
    1872:	29 f4       	brne	.+10     	; 0x187e <usart_init_rs232+0x46>
    1874:	62 e0       	ldi	r22, 0x02	; 2
    1876:	80 e0       	ldi	r24, 0x00	; 0
    1878:	0e 94 5b 17 	call	0x2eb6	; 0x2eb6 <sysclk_enable_module>
    187c:	bc c0       	rjmp	.+376    	; 0x19f6 <usart_init_rs232+0x1be>
    187e:	c1 15       	cp	r28, r1
    1880:	f1 e0       	ldi	r31, 0x01	; 1
    1882:	df 07       	cpc	r29, r31
    1884:	29 f4       	brne	.+10     	; 0x1890 <usart_init_rs232+0x58>
    1886:	61 e0       	ldi	r22, 0x01	; 1
    1888:	80 e0       	ldi	r24, 0x00	; 0
    188a:	0e 94 5b 17 	call	0x2eb6	; 0x2eb6 <sysclk_enable_module>
    188e:	b3 c0       	rjmp	.+358    	; 0x19f6 <usart_init_rs232+0x1be>
    1890:	c0 38       	cpi	r28, 0x80	; 128
    1892:	83 e0       	ldi	r24, 0x03	; 3
    1894:	d8 07       	cpc	r29, r24
    1896:	29 f4       	brne	.+10     	; 0x18a2 <usart_init_rs232+0x6a>
    1898:	61 e0       	ldi	r22, 0x01	; 1
    189a:	81 e0       	ldi	r24, 0x01	; 1
    189c:	0e 94 5b 17 	call	0x2eb6	; 0x2eb6 <sysclk_enable_module>
    18a0:	aa c0       	rjmp	.+340    	; 0x19f6 <usart_init_rs232+0x1be>
    18a2:	c1 15       	cp	r28, r1
    18a4:	e2 e0       	ldi	r30, 0x02	; 2
    18a6:	de 07       	cpc	r29, r30
    18a8:	29 f4       	brne	.+10     	; 0x18b4 <usart_init_rs232+0x7c>
    18aa:	62 e0       	ldi	r22, 0x02	; 2
    18ac:	81 e0       	ldi	r24, 0x01	; 1
    18ae:	0e 94 5b 17 	call	0x2eb6	; 0x2eb6 <sysclk_enable_module>
    18b2:	a1 c0       	rjmp	.+322    	; 0x19f6 <usart_init_rs232+0x1be>
    18b4:	c0 32       	cpi	r28, 0x20	; 32
    18b6:	f3 e0       	ldi	r31, 0x03	; 3
    18b8:	df 07       	cpc	r29, r31
    18ba:	29 f4       	brne	.+10     	; 0x18c6 <usart_init_rs232+0x8e>
    18bc:	64 e0       	ldi	r22, 0x04	; 4
    18be:	82 e0       	ldi	r24, 0x02	; 2
    18c0:	0e 94 5b 17 	call	0x2eb6	; 0x2eb6 <sysclk_enable_module>
    18c4:	98 c0       	rjmp	.+304    	; 0x19f6 <usart_init_rs232+0x1be>
    18c6:	c1 15       	cp	r28, r1
    18c8:	88 e0       	ldi	r24, 0x08	; 8
    18ca:	d8 07       	cpc	r29, r24
    18cc:	29 f4       	brne	.+10     	; 0x18d8 <usart_init_rs232+0xa0>
    18ce:	61 e0       	ldi	r22, 0x01	; 1
    18d0:	83 e0       	ldi	r24, 0x03	; 3
    18d2:	0e 94 5b 17 	call	0x2eb6	; 0x2eb6 <sysclk_enable_module>
    18d6:	8f c0       	rjmp	.+286    	; 0x19f6 <usart_init_rs232+0x1be>
    18d8:	c1 15       	cp	r28, r1
    18da:	e9 e0       	ldi	r30, 0x09	; 9
    18dc:	de 07       	cpc	r29, r30
    18de:	29 f4       	brne	.+10     	; 0x18ea <usart_init_rs232+0xb2>
    18e0:	61 e0       	ldi	r22, 0x01	; 1
    18e2:	84 e0       	ldi	r24, 0x04	; 4
    18e4:	0e 94 5b 17 	call	0x2eb6	; 0x2eb6 <sysclk_enable_module>
    18e8:	86 c0       	rjmp	.+268    	; 0x19f6 <usart_init_rs232+0x1be>
    18ea:	c1 15       	cp	r28, r1
    18ec:	fa e0       	ldi	r31, 0x0A	; 10
    18ee:	df 07       	cpc	r29, r31
    18f0:	29 f4       	brne	.+10     	; 0x18fc <usart_init_rs232+0xc4>
    18f2:	61 e0       	ldi	r22, 0x01	; 1
    18f4:	85 e0       	ldi	r24, 0x05	; 5
    18f6:	0e 94 5b 17 	call	0x2eb6	; 0x2eb6 <sysclk_enable_module>
    18fa:	7d c0       	rjmp	.+250    	; 0x19f6 <usart_init_rs232+0x1be>
    18fc:	c0 34       	cpi	r28, 0x40	; 64
    18fe:	88 e0       	ldi	r24, 0x08	; 8
    1900:	d8 07       	cpc	r29, r24
    1902:	29 f4       	brne	.+10     	; 0x190e <usart_init_rs232+0xd6>
    1904:	62 e0       	ldi	r22, 0x02	; 2
    1906:	83 e0       	ldi	r24, 0x03	; 3
    1908:	0e 94 5b 17 	call	0x2eb6	; 0x2eb6 <sysclk_enable_module>
    190c:	74 c0       	rjmp	.+232    	; 0x19f6 <usart_init_rs232+0x1be>
    190e:	c0 34       	cpi	r28, 0x40	; 64
    1910:	e9 e0       	ldi	r30, 0x09	; 9
    1912:	de 07       	cpc	r29, r30
    1914:	29 f4       	brne	.+10     	; 0x1920 <usart_init_rs232+0xe8>
    1916:	62 e0       	ldi	r22, 0x02	; 2
    1918:	84 e0       	ldi	r24, 0x04	; 4
    191a:	0e 94 5b 17 	call	0x2eb6	; 0x2eb6 <sysclk_enable_module>
    191e:	6b c0       	rjmp	.+214    	; 0x19f6 <usart_init_rs232+0x1be>
    1920:	c0 39       	cpi	r28, 0x90	; 144
    1922:	f8 e0       	ldi	r31, 0x08	; 8
    1924:	df 07       	cpc	r29, r31
    1926:	29 f4       	brne	.+10     	; 0x1932 <usart_init_rs232+0xfa>
    1928:	64 e0       	ldi	r22, 0x04	; 4
    192a:	83 e0       	ldi	r24, 0x03	; 3
    192c:	0e 94 5b 17 	call	0x2eb6	; 0x2eb6 <sysclk_enable_module>
    1930:	62 c0       	rjmp	.+196    	; 0x19f6 <usart_init_rs232+0x1be>
    1932:	c0 39       	cpi	r28, 0x90	; 144
    1934:	89 e0       	ldi	r24, 0x09	; 9
    1936:	d8 07       	cpc	r29, r24
    1938:	29 f4       	brne	.+10     	; 0x1944 <usart_init_rs232+0x10c>
    193a:	64 e0       	ldi	r22, 0x04	; 4
    193c:	84 e0       	ldi	r24, 0x04	; 4
    193e:	0e 94 5b 17 	call	0x2eb6	; 0x2eb6 <sysclk_enable_module>
    1942:	59 c0       	rjmp	.+178    	; 0x19f6 <usart_init_rs232+0x1be>
    1944:	c0 39       	cpi	r28, 0x90	; 144
    1946:	ea e0       	ldi	r30, 0x0A	; 10
    1948:	de 07       	cpc	r29, r30
    194a:	29 f4       	brne	.+10     	; 0x1956 <usart_init_rs232+0x11e>
    194c:	64 e0       	ldi	r22, 0x04	; 4
    194e:	85 e0       	ldi	r24, 0x05	; 5
    1950:	0e 94 5b 17 	call	0x2eb6	; 0x2eb6 <sysclk_enable_module>
    1954:	50 c0       	rjmp	.+160    	; 0x19f6 <usart_init_rs232+0x1be>
    1956:	c0 3c       	cpi	r28, 0xC0	; 192
    1958:	f8 e0       	ldi	r31, 0x08	; 8
    195a:	df 07       	cpc	r29, r31
    195c:	29 f4       	brne	.+10     	; 0x1968 <usart_init_rs232+0x130>
    195e:	68 e0       	ldi	r22, 0x08	; 8
    1960:	83 e0       	ldi	r24, 0x03	; 3
    1962:	0e 94 5b 17 	call	0x2eb6	; 0x2eb6 <sysclk_enable_module>
    1966:	47 c0       	rjmp	.+142    	; 0x19f6 <usart_init_rs232+0x1be>
    1968:	c0 3c       	cpi	r28, 0xC0	; 192
    196a:	89 e0       	ldi	r24, 0x09	; 9
    196c:	d8 07       	cpc	r29, r24
    196e:	29 f4       	brne	.+10     	; 0x197a <usart_init_rs232+0x142>
    1970:	68 e0       	ldi	r22, 0x08	; 8
    1972:	84 e0       	ldi	r24, 0x04	; 4
    1974:	0e 94 5b 17 	call	0x2eb6	; 0x2eb6 <sysclk_enable_module>
    1978:	3e c0       	rjmp	.+124    	; 0x19f6 <usart_init_rs232+0x1be>
    197a:	c0 3a       	cpi	r28, 0xA0	; 160
    197c:	e8 e0       	ldi	r30, 0x08	; 8
    197e:	de 07       	cpc	r29, r30
    1980:	29 f4       	brne	.+10     	; 0x198c <usart_init_rs232+0x154>
    1982:	60 e1       	ldi	r22, 0x10	; 16
    1984:	83 e0       	ldi	r24, 0x03	; 3
    1986:	0e 94 5b 17 	call	0x2eb6	; 0x2eb6 <sysclk_enable_module>
    198a:	35 c0       	rjmp	.+106    	; 0x19f6 <usart_init_rs232+0x1be>
    198c:	c0 3a       	cpi	r28, 0xA0	; 160
    198e:	f9 e0       	ldi	r31, 0x09	; 9
    1990:	df 07       	cpc	r29, r31
    1992:	29 f4       	brne	.+10     	; 0x199e <usart_init_rs232+0x166>
    1994:	60 e1       	ldi	r22, 0x10	; 16
    1996:	84 e0       	ldi	r24, 0x04	; 4
    1998:	0e 94 5b 17 	call	0x2eb6	; 0x2eb6 <sysclk_enable_module>
    199c:	2c c0       	rjmp	.+88     	; 0x19f6 <usart_init_rs232+0x1be>
    199e:	c0 3a       	cpi	r28, 0xA0	; 160
    19a0:	8a e0       	ldi	r24, 0x0A	; 10
    19a2:	d8 07       	cpc	r29, r24
    19a4:	29 f4       	brne	.+10     	; 0x19b0 <usart_init_rs232+0x178>
    19a6:	60 e1       	ldi	r22, 0x10	; 16
    19a8:	85 e0       	ldi	r24, 0x05	; 5
    19aa:	0e 94 5b 17 	call	0x2eb6	; 0x2eb6 <sysclk_enable_module>
    19ae:	23 c0       	rjmp	.+70     	; 0x19f6 <usart_init_rs232+0x1be>
    19b0:	c0 3b       	cpi	r28, 0xB0	; 176
    19b2:	e8 e0       	ldi	r30, 0x08	; 8
    19b4:	de 07       	cpc	r29, r30
    19b6:	29 f4       	brne	.+10     	; 0x19c2 <usart_init_rs232+0x18a>
    19b8:	60 e2       	ldi	r22, 0x20	; 32
    19ba:	83 e0       	ldi	r24, 0x03	; 3
    19bc:	0e 94 5b 17 	call	0x2eb6	; 0x2eb6 <sysclk_enable_module>
    19c0:	1a c0       	rjmp	.+52     	; 0x19f6 <usart_init_rs232+0x1be>
    19c2:	c0 3b       	cpi	r28, 0xB0	; 176
    19c4:	f9 e0       	ldi	r31, 0x09	; 9
    19c6:	df 07       	cpc	r29, r31
    19c8:	29 f4       	brne	.+10     	; 0x19d4 <usart_init_rs232+0x19c>
    19ca:	60 e2       	ldi	r22, 0x20	; 32
    19cc:	84 e0       	ldi	r24, 0x04	; 4
    19ce:	0e 94 5b 17 	call	0x2eb6	; 0x2eb6 <sysclk_enable_module>
    19d2:	11 c0       	rjmp	.+34     	; 0x19f6 <usart_init_rs232+0x1be>
    19d4:	c0 38       	cpi	r28, 0x80	; 128
    19d6:	84 e0       	ldi	r24, 0x04	; 4
    19d8:	d8 07       	cpc	r29, r24
    19da:	29 f4       	brne	.+10     	; 0x19e6 <usart_init_rs232+0x1ae>
    19dc:	60 e4       	ldi	r22, 0x40	; 64
    19de:	83 e0       	ldi	r24, 0x03	; 3
    19e0:	0e 94 5b 17 	call	0x2eb6	; 0x2eb6 <sysclk_enable_module>
    19e4:	08 c0       	rjmp	.+16     	; 0x19f6 <usart_init_rs232+0x1be>
    19e6:	c0 3a       	cpi	r28, 0xA0	; 160
    19e8:	e4 e0       	ldi	r30, 0x04	; 4
    19ea:	de 07       	cpc	r29, r30
    19ec:	21 f4       	brne	.+8      	; 0x19f6 <usart_init_rs232+0x1be>
    19ee:	60 e4       	ldi	r22, 0x40	; 64
    19f0:	85 e0       	ldi	r24, 0x05	; 5
    19f2:	0e 94 5b 17 	call	0x2eb6	; 0x2eb6 <sysclk_enable_module>
    19f6:	8d 81       	ldd	r24, Y+5	; 0x05
    19f8:	8f 73       	andi	r24, 0x3F	; 63
    19fa:	8d 83       	std	Y+5, r24	; 0x05
    19fc:	f8 01       	movw	r30, r16
    19fe:	95 81       	ldd	r25, Z+5	; 0x05
    1a00:	84 81       	ldd	r24, Z+4	; 0x04
    1a02:	89 2b       	or	r24, r25
    1a04:	96 81       	ldd	r25, Z+6	; 0x06
    1a06:	91 11       	cpse	r25, r1
    1a08:	98 e0       	ldi	r25, 0x08	; 8
    1a0a:	89 2b       	or	r24, r25
    1a0c:	8d 83       	std	Y+5, r24	; 0x05
    1a0e:	f8 01       	movw	r30, r16
    1a10:	40 81       	ld	r20, Z
    1a12:	51 81       	ldd	r21, Z+1	; 0x01
    1a14:	62 81       	ldd	r22, Z+2	; 0x02
    1a16:	73 81       	ldd	r23, Z+3	; 0x03
    1a18:	00 e0       	ldi	r16, 0x00	; 0
    1a1a:	18 e4       	ldi	r17, 0x48	; 72
    1a1c:	28 ee       	ldi	r18, 0xE8	; 232
    1a1e:	31 e0       	ldi	r19, 0x01	; 1
    1a20:	ce 01       	movw	r24, r28
    1a22:	f7 dd       	rcall	.-1042   	; 0x1612 <usart_set_baudrate>
    1a24:	9c 81       	ldd	r25, Y+4	; 0x04
    1a26:	98 60       	ori	r25, 0x08	; 8
    1a28:	9c 83       	std	Y+4, r25	; 0x04
    1a2a:	9c 81       	ldd	r25, Y+4	; 0x04
    1a2c:	90 61       	ori	r25, 0x10	; 16
    1a2e:	9c 83       	std	Y+4, r25	; 0x04
    1a30:	df 91       	pop	r29
    1a32:	cf 91       	pop	r28
    1a34:	1f 91       	pop	r17
    1a36:	0f 91       	pop	r16
    1a38:	08 95       	ret

00001a3a <bno055_init>:
    1a3a:	1f 93       	push	r17
    1a3c:	cf 93       	push	r28
    1a3e:	df 93       	push	r29
    1a40:	00 d0       	rcall	.+0      	; 0x1a42 <bno055_init+0x8>
    1a42:	1f 92       	push	r1
    1a44:	cd b7       	in	r28, 0x3d	; 61
    1a46:	de b7       	in	r29, 0x3e	; 62
    1a48:	19 82       	std	Y+1, r1	; 0x01
    1a4a:	1a 82       	std	Y+2, r1	; 0x02
    1a4c:	1b 82       	std	Y+3, r1	; 0x03
    1a4e:	1c 82       	std	Y+4, r1	; 0x04
    1a50:	80 93 e4 21 	sts	0x21E4, r24	; 0x8021e4 <p_bno055>
    1a54:	90 93 e5 21 	sts	0x21E5, r25	; 0x8021e5 <p_bno055+0x1>
    1a58:	dc 01       	movw	r26, r24
    1a5a:	19 96       	adiw	r26, 0x09	; 9
    1a5c:	ed 91       	ld	r30, X+
    1a5e:	fc 91       	ld	r31, X
    1a60:	1a 97       	sbiw	r26, 0x0a	; 10
    1a62:	21 e0       	ldi	r18, 0x01	; 1
    1a64:	ae 01       	movw	r20, r28
    1a66:	4e 5f       	subi	r20, 0xFE	; 254
    1a68:	5f 4f       	sbci	r21, 0xFF	; 255
    1a6a:	67 e0       	ldi	r22, 0x07	; 7
    1a6c:	18 96       	adiw	r26, 0x08	; 8
    1a6e:	8c 91       	ld	r24, X
    1a70:	19 95       	eicall
    1a72:	18 2f       	mov	r17, r24
    1a74:	a0 91 e4 21 	lds	r26, 0x21E4	; 0x8021e4 <p_bno055>
    1a78:	b0 91 e5 21 	lds	r27, 0x21E5	; 0x8021e5 <p_bno055+0x1>
    1a7c:	1b 96       	adiw	r26, 0x0b	; 11
    1a7e:	ed 91       	ld	r30, X+
    1a80:	fc 91       	ld	r31, X
    1a82:	1c 97       	sbiw	r26, 0x0c	; 12
    1a84:	21 e0       	ldi	r18, 0x01	; 1
    1a86:	ae 01       	movw	r20, r28
    1a88:	4f 5f       	subi	r20, 0xFF	; 255
    1a8a:	5f 4f       	sbci	r21, 0xFF	; 255
    1a8c:	60 e0       	ldi	r22, 0x00	; 0
    1a8e:	18 96       	adiw	r26, 0x08	; 8
    1a90:	8c 91       	ld	r24, X
    1a92:	19 95       	eicall
    1a94:	18 0f       	add	r17, r24
    1a96:	a0 91 e4 21 	lds	r26, 0x21E4	; 0x8021e4 <p_bno055>
    1a9a:	b0 91 e5 21 	lds	r27, 0x21E5	; 0x8021e5 <p_bno055+0x1>
    1a9e:	89 81       	ldd	r24, Y+1	; 0x01
    1aa0:	8c 93       	st	X, r24
    1aa2:	1b 96       	adiw	r26, 0x0b	; 11
    1aa4:	ed 91       	ld	r30, X+
    1aa6:	fc 91       	ld	r31, X
    1aa8:	1c 97       	sbiw	r26, 0x0c	; 12
    1aaa:	21 e0       	ldi	r18, 0x01	; 1
    1aac:	ae 01       	movw	r20, r28
    1aae:	4f 5f       	subi	r20, 0xFF	; 255
    1ab0:	5f 4f       	sbci	r21, 0xFF	; 255
    1ab2:	61 e0       	ldi	r22, 0x01	; 1
    1ab4:	18 96       	adiw	r26, 0x08	; 8
    1ab6:	8c 91       	ld	r24, X
    1ab8:	19 95       	eicall
    1aba:	18 0f       	add	r17, r24
    1abc:	a0 91 e4 21 	lds	r26, 0x21E4	; 0x8021e4 <p_bno055>
    1ac0:	b0 91 e5 21 	lds	r27, 0x21E5	; 0x8021e5 <p_bno055+0x1>
    1ac4:	89 81       	ldd	r24, Y+1	; 0x01
    1ac6:	14 96       	adiw	r26, 0x04	; 4
    1ac8:	8c 93       	st	X, r24
    1aca:	14 97       	sbiw	r26, 0x04	; 4
    1acc:	1b 96       	adiw	r26, 0x0b	; 11
    1ace:	ed 91       	ld	r30, X+
    1ad0:	fc 91       	ld	r31, X
    1ad2:	1c 97       	sbiw	r26, 0x0c	; 12
    1ad4:	21 e0       	ldi	r18, 0x01	; 1
    1ad6:	ae 01       	movw	r20, r28
    1ad8:	4f 5f       	subi	r20, 0xFF	; 255
    1ada:	5f 4f       	sbci	r21, 0xFF	; 255
    1adc:	62 e0       	ldi	r22, 0x02	; 2
    1ade:	18 96       	adiw	r26, 0x08	; 8
    1ae0:	8c 91       	ld	r24, X
    1ae2:	19 95       	eicall
    1ae4:	18 0f       	add	r17, r24
    1ae6:	a0 91 e4 21 	lds	r26, 0x21E4	; 0x8021e4 <p_bno055>
    1aea:	b0 91 e5 21 	lds	r27, 0x21E5	; 0x8021e5 <p_bno055+0x1>
    1aee:	89 81       	ldd	r24, Y+1	; 0x01
    1af0:	15 96       	adiw	r26, 0x05	; 5
    1af2:	8c 93       	st	X, r24
    1af4:	15 97       	sbiw	r26, 0x05	; 5
    1af6:	1b 96       	adiw	r26, 0x0b	; 11
    1af8:	ed 91       	ld	r30, X+
    1afa:	fc 91       	ld	r31, X
    1afc:	1c 97       	sbiw	r26, 0x0c	; 12
    1afe:	21 e0       	ldi	r18, 0x01	; 1
    1b00:	ae 01       	movw	r20, r28
    1b02:	4f 5f       	subi	r20, 0xFF	; 255
    1b04:	5f 4f       	sbci	r21, 0xFF	; 255
    1b06:	63 e0       	ldi	r22, 0x03	; 3
    1b08:	18 96       	adiw	r26, 0x08	; 8
    1b0a:	8c 91       	ld	r24, X
    1b0c:	19 95       	eicall
    1b0e:	18 0f       	add	r17, r24
    1b10:	a0 91 e4 21 	lds	r26, 0x21E4	; 0x8021e4 <p_bno055>
    1b14:	b0 91 e5 21 	lds	r27, 0x21E5	; 0x8021e5 <p_bno055+0x1>
    1b18:	89 81       	ldd	r24, Y+1	; 0x01
    1b1a:	16 96       	adiw	r26, 0x06	; 6
    1b1c:	8c 93       	st	X, r24
    1b1e:	16 97       	sbiw	r26, 0x06	; 6
    1b20:	1b 96       	adiw	r26, 0x0b	; 11
    1b22:	ed 91       	ld	r30, X+
    1b24:	fc 91       	ld	r31, X
    1b26:	1c 97       	sbiw	r26, 0x0c	; 12
    1b28:	21 e0       	ldi	r18, 0x01	; 1
    1b2a:	ae 01       	movw	r20, r28
    1b2c:	4f 5f       	subi	r20, 0xFF	; 255
    1b2e:	5f 4f       	sbci	r21, 0xFF	; 255
    1b30:	66 e0       	ldi	r22, 0x06	; 6
    1b32:	18 96       	adiw	r26, 0x08	; 8
    1b34:	8c 91       	ld	r24, X
    1b36:	19 95       	eicall
    1b38:	18 0f       	add	r17, r24
    1b3a:	a0 91 e4 21 	lds	r26, 0x21E4	; 0x8021e4 <p_bno055>
    1b3e:	b0 91 e5 21 	lds	r27, 0x21E5	; 0x8021e5 <p_bno055+0x1>
    1b42:	89 81       	ldd	r24, Y+1	; 0x01
    1b44:	17 96       	adiw	r26, 0x07	; 7
    1b46:	8c 93       	st	X, r24
    1b48:	17 97       	sbiw	r26, 0x07	; 7
    1b4a:	1b 96       	adiw	r26, 0x0b	; 11
    1b4c:	ed 91       	ld	r30, X+
    1b4e:	fc 91       	ld	r31, X
    1b50:	1c 97       	sbiw	r26, 0x0c	; 12
    1b52:	22 e0       	ldi	r18, 0x02	; 2
    1b54:	ae 01       	movw	r20, r28
    1b56:	4d 5f       	subi	r20, 0xFD	; 253
    1b58:	5f 4f       	sbci	r21, 0xFF	; 255
    1b5a:	64 e0       	ldi	r22, 0x04	; 4
    1b5c:	18 96       	adiw	r26, 0x08	; 8
    1b5e:	8c 91       	ld	r24, X
    1b60:	19 95       	eicall
    1b62:	18 0f       	add	r17, r24
    1b64:	a0 91 e4 21 	lds	r26, 0x21E4	; 0x8021e4 <p_bno055>
    1b68:	b0 91 e5 21 	lds	r27, 0x21E5	; 0x8021e5 <p_bno055+0x1>
    1b6c:	8c 81       	ldd	r24, Y+4	; 0x04
    1b6e:	90 e0       	ldi	r25, 0x00	; 0
    1b70:	98 2f       	mov	r25, r24
    1b72:	88 27       	eor	r24, r24
    1b74:	2b 81       	ldd	r18, Y+3	; 0x03
    1b76:	82 2b       	or	r24, r18
    1b78:	11 96       	adiw	r26, 0x01	; 1
    1b7a:	8d 93       	st	X+, r24
    1b7c:	9c 93       	st	X, r25
    1b7e:	12 97       	sbiw	r26, 0x02	; 2
    1b80:	1b 96       	adiw	r26, 0x0b	; 11
    1b82:	ed 91       	ld	r30, X+
    1b84:	fc 91       	ld	r31, X
    1b86:	1c 97       	sbiw	r26, 0x0c	; 12
    1b88:	21 e0       	ldi	r18, 0x01	; 1
    1b8a:	ae 01       	movw	r20, r28
    1b8c:	4f 5f       	subi	r20, 0xFF	; 255
    1b8e:	5f 4f       	sbci	r21, 0xFF	; 255
    1b90:	67 e0       	ldi	r22, 0x07	; 7
    1b92:	18 96       	adiw	r26, 0x08	; 8
    1b94:	8c 91       	ld	r24, X
    1b96:	19 95       	eicall
    1b98:	e0 91 e4 21 	lds	r30, 0x21E4	; 0x8021e4 <p_bno055>
    1b9c:	f0 91 e5 21 	lds	r31, 0x21E5	; 0x8021e5 <p_bno055+0x1>
    1ba0:	99 81       	ldd	r25, Y+1	; 0x01
    1ba2:	93 83       	std	Z+3, r25	; 0x03
    1ba4:	81 0f       	add	r24, r17
    1ba6:	24 96       	adiw	r28, 0x04	; 4
    1ba8:	cd bf       	out	0x3d, r28	; 61
    1baa:	de bf       	out	0x3e, r29	; 62
    1bac:	df 91       	pop	r29
    1bae:	cf 91       	pop	r28
    1bb0:	1f 91       	pop	r17
    1bb2:	08 95       	ret

00001bb4 <bno055_write_register>:
    1bb4:	a0 91 e4 21 	lds	r26, 0x21E4	; 0x8021e4 <p_bno055>
    1bb8:	b0 91 e5 21 	lds	r27, 0x21E5	; 0x8021e5 <p_bno055+0x1>
    1bbc:	10 97       	sbiw	r26, 0x00	; 0
    1bbe:	59 f0       	breq	.+22     	; 0x1bd6 <bno055_write_register+0x22>
    1bc0:	24 2f       	mov	r18, r20
    1bc2:	ab 01       	movw	r20, r22
    1bc4:	68 2f       	mov	r22, r24
    1bc6:	19 96       	adiw	r26, 0x09	; 9
    1bc8:	ed 91       	ld	r30, X+
    1bca:	fc 91       	ld	r31, X
    1bcc:	1a 97       	sbiw	r26, 0x0a	; 10
    1bce:	18 96       	adiw	r26, 0x08	; 8
    1bd0:	8c 91       	ld	r24, X
    1bd2:	19 95       	eicall
    1bd4:	08 95       	ret
    1bd6:	81 e8       	ldi	r24, 0x81	; 129
    1bd8:	08 95       	ret

00001bda <bno055_write_page_id>:
    1bda:	1f 93       	push	r17
    1bdc:	cf 93       	push	r28
    1bde:	df 93       	push	r29
    1be0:	1f 92       	push	r1
    1be2:	cd b7       	in	r28, 0x3d	; 61
    1be4:	de b7       	in	r29, 0x3e	; 62
    1be6:	19 82       	std	Y+1, r1	; 0x01
    1be8:	a0 91 e4 21 	lds	r26, 0x21E4	; 0x8021e4 <p_bno055>
    1bec:	b0 91 e5 21 	lds	r27, 0x21E5	; 0x8021e5 <p_bno055+0x1>
    1bf0:	10 97       	sbiw	r26, 0x00	; 0
    1bf2:	41 f1       	breq	.+80     	; 0x1c44 <bno055_write_page_id+0x6a>
    1bf4:	18 2f       	mov	r17, r24
    1bf6:	1b 96       	adiw	r26, 0x0b	; 11
    1bf8:	ed 91       	ld	r30, X+
    1bfa:	fc 91       	ld	r31, X
    1bfc:	1c 97       	sbiw	r26, 0x0c	; 12
    1bfe:	21 e0       	ldi	r18, 0x01	; 1
    1c00:	ae 01       	movw	r20, r28
    1c02:	4f 5f       	subi	r20, 0xFF	; 255
    1c04:	5f 4f       	sbci	r21, 0xFF	; 255
    1c06:	67 e0       	ldi	r22, 0x07	; 7
    1c08:	18 96       	adiw	r26, 0x08	; 8
    1c0a:	8c 91       	ld	r24, X
    1c0c:	19 95       	eicall
    1c0e:	81 11       	cpse	r24, r1
    1c10:	1b c0       	rjmp	.+54     	; 0x1c48 <bno055_write_page_id+0x6e>
    1c12:	19 83       	std	Y+1, r17	; 0x01
    1c14:	a0 91 e4 21 	lds	r26, 0x21E4	; 0x8021e4 <p_bno055>
    1c18:	b0 91 e5 21 	lds	r27, 0x21E5	; 0x8021e5 <p_bno055+0x1>
    1c1c:	19 96       	adiw	r26, 0x09	; 9
    1c1e:	ed 91       	ld	r30, X+
    1c20:	fc 91       	ld	r31, X
    1c22:	1a 97       	sbiw	r26, 0x0a	; 10
    1c24:	21 e0       	ldi	r18, 0x01	; 1
    1c26:	ae 01       	movw	r20, r28
    1c28:	4f 5f       	subi	r20, 0xFF	; 255
    1c2a:	5f 4f       	sbci	r21, 0xFF	; 255
    1c2c:	67 e0       	ldi	r22, 0x07	; 7
    1c2e:	18 96       	adiw	r26, 0x08	; 8
    1c30:	8c 91       	ld	r24, X
    1c32:	19 95       	eicall
    1c34:	81 11       	cpse	r24, r1
    1c36:	09 c0       	rjmp	.+18     	; 0x1c4a <bno055_write_page_id+0x70>
    1c38:	e0 91 e4 21 	lds	r30, 0x21E4	; 0x8021e4 <p_bno055>
    1c3c:	f0 91 e5 21 	lds	r31, 0x21E5	; 0x8021e5 <p_bno055+0x1>
    1c40:	13 83       	std	Z+3, r17	; 0x03
    1c42:	03 c0       	rjmp	.+6      	; 0x1c4a <bno055_write_page_id+0x70>
    1c44:	81 e8       	ldi	r24, 0x81	; 129
    1c46:	01 c0       	rjmp	.+2      	; 0x1c4a <bno055_write_page_id+0x70>
    1c48:	8f ef       	ldi	r24, 0xFF	; 255
    1c4a:	0f 90       	pop	r0
    1c4c:	df 91       	pop	r29
    1c4e:	cf 91       	pop	r28
    1c50:	1f 91       	pop	r17
    1c52:	08 95       	ret

00001c54 <bno055_read_euler_hrp>:
    1c54:	0f 93       	push	r16
    1c56:	1f 93       	push	r17
    1c58:	cf 93       	push	r28
    1c5a:	df 93       	push	r29
    1c5c:	00 d0       	rcall	.+0      	; 0x1c5e <bno055_read_euler_hrp+0xa>
    1c5e:	00 d0       	rcall	.+0      	; 0x1c60 <bno055_read_euler_hrp+0xc>
    1c60:	cd b7       	in	r28, 0x3d	; 61
    1c62:	de b7       	in	r29, 0x3e	; 62
    1c64:	8c 01       	movw	r16, r24
    1c66:	fe 01       	movw	r30, r28
    1c68:	31 96       	adiw	r30, 0x01	; 1
    1c6a:	96 e0       	ldi	r25, 0x06	; 6
    1c6c:	df 01       	movw	r26, r30
    1c6e:	1d 92       	st	X+, r1
    1c70:	9a 95       	dec	r25
    1c72:	e9 f7       	brne	.-6      	; 0x1c6e <bno055_read_euler_hrp+0x1a>
    1c74:	e0 91 e4 21 	lds	r30, 0x21E4	; 0x8021e4 <p_bno055>
    1c78:	f0 91 e5 21 	lds	r31, 0x21E5	; 0x8021e5 <p_bno055+0x1>
    1c7c:	30 97       	sbiw	r30, 0x00	; 0
    1c7e:	09 f4       	brne	.+2      	; 0x1c82 <bno055_read_euler_hrp+0x2e>
    1c80:	3e c0       	rjmp	.+124    	; 0x1cfe <bno055_read_euler_hrp+0xaa>
    1c82:	83 81       	ldd	r24, Z+3	; 0x03
    1c84:	88 23       	and	r24, r24
    1c86:	59 f0       	breq	.+22     	; 0x1c9e <bno055_read_euler_hrp+0x4a>
    1c88:	80 e0       	ldi	r24, 0x00	; 0
    1c8a:	a7 df       	rcall	.-178    	; 0x1bda <bno055_write_page_id>
    1c8c:	88 23       	and	r24, r24
    1c8e:	39 f0       	breq	.+14     	; 0x1c9e <bno055_read_euler_hrp+0x4a>
    1c90:	e0 91 e4 21 	lds	r30, 0x21E4	; 0x8021e4 <p_bno055>
    1c94:	f0 91 e5 21 	lds	r31, 0x21E5	; 0x8021e5 <p_bno055+0x1>
    1c98:	83 81       	ldd	r24, Z+3	; 0x03
    1c9a:	81 11       	cpse	r24, r1
    1c9c:	32 c0       	rjmp	.+100    	; 0x1d02 <bno055_read_euler_hrp+0xae>
    1c9e:	a0 91 e4 21 	lds	r26, 0x21E4	; 0x8021e4 <p_bno055>
    1ca2:	b0 91 e5 21 	lds	r27, 0x21E5	; 0x8021e5 <p_bno055+0x1>
    1ca6:	1b 96       	adiw	r26, 0x0b	; 11
    1ca8:	ed 91       	ld	r30, X+
    1caa:	fc 91       	ld	r31, X
    1cac:	1c 97       	sbiw	r26, 0x0c	; 12
    1cae:	26 e0       	ldi	r18, 0x06	; 6
    1cb0:	ae 01       	movw	r20, r28
    1cb2:	4f 5f       	subi	r20, 0xFF	; 255
    1cb4:	5f 4f       	sbci	r21, 0xFF	; 255
    1cb6:	6a e1       	ldi	r22, 0x1A	; 26
    1cb8:	18 96       	adiw	r26, 0x08	; 8
    1cba:	8c 91       	ld	r24, X
    1cbc:	19 95       	eicall
    1cbe:	2a 81       	ldd	r18, Y+2	; 0x02
    1cc0:	02 2e       	mov	r0, r18
    1cc2:	00 0c       	add	r0, r0
    1cc4:	33 0b       	sbc	r19, r19
    1cc6:	32 2f       	mov	r19, r18
    1cc8:	22 27       	eor	r18, r18
    1cca:	99 81       	ldd	r25, Y+1	; 0x01
    1ccc:	29 2b       	or	r18, r25
    1cce:	f8 01       	movw	r30, r16
    1cd0:	20 83       	st	Z, r18
    1cd2:	31 83       	std	Z+1, r19	; 0x01
    1cd4:	2c 81       	ldd	r18, Y+4	; 0x04
    1cd6:	02 2e       	mov	r0, r18
    1cd8:	00 0c       	add	r0, r0
    1cda:	33 0b       	sbc	r19, r19
    1cdc:	32 2f       	mov	r19, r18
    1cde:	22 27       	eor	r18, r18
    1ce0:	9b 81       	ldd	r25, Y+3	; 0x03
    1ce2:	29 2b       	or	r18, r25
    1ce4:	22 83       	std	Z+2, r18	; 0x02
    1ce6:	33 83       	std	Z+3, r19	; 0x03
    1ce8:	2e 81       	ldd	r18, Y+6	; 0x06
    1cea:	02 2e       	mov	r0, r18
    1cec:	00 0c       	add	r0, r0
    1cee:	33 0b       	sbc	r19, r19
    1cf0:	32 2f       	mov	r19, r18
    1cf2:	22 27       	eor	r18, r18
    1cf4:	9d 81       	ldd	r25, Y+5	; 0x05
    1cf6:	29 2b       	or	r18, r25
    1cf8:	24 83       	std	Z+4, r18	; 0x04
    1cfa:	35 83       	std	Z+5, r19	; 0x05
    1cfc:	03 c0       	rjmp	.+6      	; 0x1d04 <bno055_read_euler_hrp+0xb0>
    1cfe:	81 e8       	ldi	r24, 0x81	; 129
    1d00:	01 c0       	rjmp	.+2      	; 0x1d04 <bno055_read_euler_hrp+0xb0>
    1d02:	8f ef       	ldi	r24, 0xFF	; 255
    1d04:	26 96       	adiw	r28, 0x06	; 6
    1d06:	cd bf       	out	0x3d, r28	; 61
    1d08:	de bf       	out	0x3e, r29	; 62
    1d0a:	df 91       	pop	r29
    1d0c:	cf 91       	pop	r28
    1d0e:	1f 91       	pop	r17
    1d10:	0f 91       	pop	r16
    1d12:	08 95       	ret

00001d14 <bno055_read_linear_accel_xyz>:
    1d14:	0f 93       	push	r16
    1d16:	1f 93       	push	r17
    1d18:	cf 93       	push	r28
    1d1a:	df 93       	push	r29
    1d1c:	00 d0       	rcall	.+0      	; 0x1d1e <bno055_read_linear_accel_xyz+0xa>
    1d1e:	00 d0       	rcall	.+0      	; 0x1d20 <bno055_read_linear_accel_xyz+0xc>
    1d20:	cd b7       	in	r28, 0x3d	; 61
    1d22:	de b7       	in	r29, 0x3e	; 62
    1d24:	8c 01       	movw	r16, r24
    1d26:	fe 01       	movw	r30, r28
    1d28:	31 96       	adiw	r30, 0x01	; 1
    1d2a:	96 e0       	ldi	r25, 0x06	; 6
    1d2c:	df 01       	movw	r26, r30
    1d2e:	1d 92       	st	X+, r1
    1d30:	9a 95       	dec	r25
    1d32:	e9 f7       	brne	.-6      	; 0x1d2e <bno055_read_linear_accel_xyz+0x1a>
    1d34:	e0 91 e4 21 	lds	r30, 0x21E4	; 0x8021e4 <p_bno055>
    1d38:	f0 91 e5 21 	lds	r31, 0x21E5	; 0x8021e5 <p_bno055+0x1>
    1d3c:	30 97       	sbiw	r30, 0x00	; 0
    1d3e:	09 f4       	brne	.+2      	; 0x1d42 <bno055_read_linear_accel_xyz+0x2e>
    1d40:	3e c0       	rjmp	.+124    	; 0x1dbe <bno055_read_linear_accel_xyz+0xaa>
    1d42:	83 81       	ldd	r24, Z+3	; 0x03
    1d44:	88 23       	and	r24, r24
    1d46:	59 f0       	breq	.+22     	; 0x1d5e <bno055_read_linear_accel_xyz+0x4a>
    1d48:	80 e0       	ldi	r24, 0x00	; 0
    1d4a:	47 df       	rcall	.-370    	; 0x1bda <bno055_write_page_id>
    1d4c:	88 23       	and	r24, r24
    1d4e:	39 f0       	breq	.+14     	; 0x1d5e <bno055_read_linear_accel_xyz+0x4a>
    1d50:	e0 91 e4 21 	lds	r30, 0x21E4	; 0x8021e4 <p_bno055>
    1d54:	f0 91 e5 21 	lds	r31, 0x21E5	; 0x8021e5 <p_bno055+0x1>
    1d58:	83 81       	ldd	r24, Z+3	; 0x03
    1d5a:	81 11       	cpse	r24, r1
    1d5c:	32 c0       	rjmp	.+100    	; 0x1dc2 <bno055_read_linear_accel_xyz+0xae>
    1d5e:	a0 91 e4 21 	lds	r26, 0x21E4	; 0x8021e4 <p_bno055>
    1d62:	b0 91 e5 21 	lds	r27, 0x21E5	; 0x8021e5 <p_bno055+0x1>
    1d66:	1b 96       	adiw	r26, 0x0b	; 11
    1d68:	ed 91       	ld	r30, X+
    1d6a:	fc 91       	ld	r31, X
    1d6c:	1c 97       	sbiw	r26, 0x0c	; 12
    1d6e:	26 e0       	ldi	r18, 0x06	; 6
    1d70:	ae 01       	movw	r20, r28
    1d72:	4f 5f       	subi	r20, 0xFF	; 255
    1d74:	5f 4f       	sbci	r21, 0xFF	; 255
    1d76:	68 e2       	ldi	r22, 0x28	; 40
    1d78:	18 96       	adiw	r26, 0x08	; 8
    1d7a:	8c 91       	ld	r24, X
    1d7c:	19 95       	eicall
    1d7e:	2a 81       	ldd	r18, Y+2	; 0x02
    1d80:	02 2e       	mov	r0, r18
    1d82:	00 0c       	add	r0, r0
    1d84:	33 0b       	sbc	r19, r19
    1d86:	32 2f       	mov	r19, r18
    1d88:	22 27       	eor	r18, r18
    1d8a:	99 81       	ldd	r25, Y+1	; 0x01
    1d8c:	29 2b       	or	r18, r25
    1d8e:	f8 01       	movw	r30, r16
    1d90:	20 83       	st	Z, r18
    1d92:	31 83       	std	Z+1, r19	; 0x01
    1d94:	2c 81       	ldd	r18, Y+4	; 0x04
    1d96:	02 2e       	mov	r0, r18
    1d98:	00 0c       	add	r0, r0
    1d9a:	33 0b       	sbc	r19, r19
    1d9c:	32 2f       	mov	r19, r18
    1d9e:	22 27       	eor	r18, r18
    1da0:	9b 81       	ldd	r25, Y+3	; 0x03
    1da2:	29 2b       	or	r18, r25
    1da4:	22 83       	std	Z+2, r18	; 0x02
    1da6:	33 83       	std	Z+3, r19	; 0x03
    1da8:	2e 81       	ldd	r18, Y+6	; 0x06
    1daa:	02 2e       	mov	r0, r18
    1dac:	00 0c       	add	r0, r0
    1dae:	33 0b       	sbc	r19, r19
    1db0:	32 2f       	mov	r19, r18
    1db2:	22 27       	eor	r18, r18
    1db4:	9d 81       	ldd	r25, Y+5	; 0x05
    1db6:	29 2b       	or	r18, r25
    1db8:	24 83       	std	Z+4, r18	; 0x04
    1dba:	35 83       	std	Z+5, r19	; 0x05
    1dbc:	03 c0       	rjmp	.+6      	; 0x1dc4 <bno055_read_linear_accel_xyz+0xb0>
    1dbe:	81 e8       	ldi	r24, 0x81	; 129
    1dc0:	01 c0       	rjmp	.+2      	; 0x1dc4 <bno055_read_linear_accel_xyz+0xb0>
    1dc2:	8f ef       	ldi	r24, 0xFF	; 255
    1dc4:	26 96       	adiw	r28, 0x06	; 6
    1dc6:	cd bf       	out	0x3d, r28	; 61
    1dc8:	de bf       	out	0x3e, r29	; 62
    1dca:	df 91       	pop	r29
    1dcc:	cf 91       	pop	r28
    1dce:	1f 91       	pop	r17
    1dd0:	0f 91       	pop	r16
    1dd2:	08 95       	ret

00001dd4 <bno055_convert_double_linear_accel_xyz_msq>:
    1dd4:	ff 92       	push	r15
    1dd6:	0f 93       	push	r16
    1dd8:	1f 93       	push	r17
    1dda:	cf 93       	push	r28
    1ddc:	df 93       	push	r29
    1dde:	00 d0       	rcall	.+0      	; 0x1de0 <bno055_convert_double_linear_accel_xyz_msq+0xc>
    1de0:	00 d0       	rcall	.+0      	; 0x1de2 <bno055_convert_double_linear_accel_xyz_msq+0xe>
    1de2:	cd b7       	in	r28, 0x3d	; 61
    1de4:	de b7       	in	r29, 0x3e	; 62
    1de6:	8c 01       	movw	r16, r24
    1de8:	19 82       	std	Y+1, r1	; 0x01
    1dea:	1a 82       	std	Y+2, r1	; 0x02
    1dec:	1b 82       	std	Y+3, r1	; 0x03
    1dee:	1c 82       	std	Y+4, r1	; 0x04
    1df0:	1d 82       	std	Y+5, r1	; 0x05
    1df2:	1e 82       	std	Y+6, r1	; 0x06
    1df4:	ce 01       	movw	r24, r28
    1df6:	01 96       	adiw	r24, 0x01	; 1
    1df8:	8d df       	rcall	.-230    	; 0x1d14 <bno055_read_linear_accel_xyz>
    1dfa:	f8 2e       	mov	r15, r24
    1dfc:	81 11       	cpse	r24, r1
    1dfe:	3a c0       	rjmp	.+116    	; 0x1e74 <bno055_convert_double_linear_accel_xyz_msq+0xa0>
    1e00:	69 81       	ldd	r22, Y+1	; 0x01
    1e02:	7a 81       	ldd	r23, Y+2	; 0x02
    1e04:	07 2e       	mov	r0, r23
    1e06:	00 0c       	add	r0, r0
    1e08:	88 0b       	sbc	r24, r24
    1e0a:	99 0b       	sbc	r25, r25
    1e0c:	0e 94 b4 2f 	call	0x5f68	; 0x5f68 <__floatsisf>
    1e10:	20 e0       	ldi	r18, 0x00	; 0
    1e12:	30 e0       	ldi	r19, 0x00	; 0
    1e14:	48 ec       	ldi	r20, 0xC8	; 200
    1e16:	52 e4       	ldi	r21, 0x42	; 66
    1e18:	0e 94 df 2e 	call	0x5dbe	; 0x5dbe <__divsf3>
    1e1c:	f8 01       	movw	r30, r16
    1e1e:	60 83       	st	Z, r22
    1e20:	71 83       	std	Z+1, r23	; 0x01
    1e22:	82 83       	std	Z+2, r24	; 0x02
    1e24:	93 83       	std	Z+3, r25	; 0x03
    1e26:	6b 81       	ldd	r22, Y+3	; 0x03
    1e28:	7c 81       	ldd	r23, Y+4	; 0x04
    1e2a:	07 2e       	mov	r0, r23
    1e2c:	00 0c       	add	r0, r0
    1e2e:	88 0b       	sbc	r24, r24
    1e30:	99 0b       	sbc	r25, r25
    1e32:	0e 94 b4 2f 	call	0x5f68	; 0x5f68 <__floatsisf>
    1e36:	20 e0       	ldi	r18, 0x00	; 0
    1e38:	30 e0       	ldi	r19, 0x00	; 0
    1e3a:	48 ec       	ldi	r20, 0xC8	; 200
    1e3c:	52 e4       	ldi	r21, 0x42	; 66
    1e3e:	0e 94 df 2e 	call	0x5dbe	; 0x5dbe <__divsf3>
    1e42:	f8 01       	movw	r30, r16
    1e44:	64 83       	std	Z+4, r22	; 0x04
    1e46:	75 83       	std	Z+5, r23	; 0x05
    1e48:	86 83       	std	Z+6, r24	; 0x06
    1e4a:	97 83       	std	Z+7, r25	; 0x07
    1e4c:	6d 81       	ldd	r22, Y+5	; 0x05
    1e4e:	7e 81       	ldd	r23, Y+6	; 0x06
    1e50:	07 2e       	mov	r0, r23
    1e52:	00 0c       	add	r0, r0
    1e54:	88 0b       	sbc	r24, r24
    1e56:	99 0b       	sbc	r25, r25
    1e58:	0e 94 b4 2f 	call	0x5f68	; 0x5f68 <__floatsisf>
    1e5c:	20 e0       	ldi	r18, 0x00	; 0
    1e5e:	30 e0       	ldi	r19, 0x00	; 0
    1e60:	48 ec       	ldi	r20, 0xC8	; 200
    1e62:	52 e4       	ldi	r21, 0x42	; 66
    1e64:	0e 94 df 2e 	call	0x5dbe	; 0x5dbe <__divsf3>
    1e68:	f8 01       	movw	r30, r16
    1e6a:	60 87       	std	Z+8, r22	; 0x08
    1e6c:	71 87       	std	Z+9, r23	; 0x09
    1e6e:	82 87       	std	Z+10, r24	; 0x0a
    1e70:	93 87       	std	Z+11, r25	; 0x0b
    1e72:	02 c0       	rjmp	.+4      	; 0x1e78 <bno055_convert_double_linear_accel_xyz_msq+0xa4>
    1e74:	ff 24       	eor	r15, r15
    1e76:	fa 94       	dec	r15
    1e78:	8f 2d       	mov	r24, r15
    1e7a:	26 96       	adiw	r28, 0x06	; 6
    1e7c:	cd bf       	out	0x3d, r28	; 61
    1e7e:	de bf       	out	0x3e, r29	; 62
    1e80:	df 91       	pop	r29
    1e82:	cf 91       	pop	r28
    1e84:	1f 91       	pop	r17
    1e86:	0f 91       	pop	r16
    1e88:	ff 90       	pop	r15
    1e8a:	08 95       	ret

00001e8c <bno055_get_mag_calib_stat>:
    1e8c:	0f 93       	push	r16
    1e8e:	1f 93       	push	r17
    1e90:	cf 93       	push	r28
    1e92:	df 93       	push	r29
    1e94:	1f 92       	push	r1
    1e96:	cd b7       	in	r28, 0x3d	; 61
    1e98:	de b7       	in	r29, 0x3e	; 62
    1e9a:	19 82       	std	Y+1, r1	; 0x01
    1e9c:	e0 91 e4 21 	lds	r30, 0x21E4	; 0x8021e4 <p_bno055>
    1ea0:	f0 91 e5 21 	lds	r31, 0x21E5	; 0x8021e5 <p_bno055+0x1>
    1ea4:	30 97       	sbiw	r30, 0x00	; 0
    1ea6:	21 f1       	breq	.+72     	; 0x1ef0 <bno055_get_mag_calib_stat+0x64>
    1ea8:	8c 01       	movw	r16, r24
    1eaa:	83 81       	ldd	r24, Z+3	; 0x03
    1eac:	88 23       	and	r24, r24
    1eae:	59 f0       	breq	.+22     	; 0x1ec6 <bno055_get_mag_calib_stat+0x3a>
    1eb0:	80 e0       	ldi	r24, 0x00	; 0
    1eb2:	93 de       	rcall	.-730    	; 0x1bda <bno055_write_page_id>
    1eb4:	88 23       	and	r24, r24
    1eb6:	39 f0       	breq	.+14     	; 0x1ec6 <bno055_get_mag_calib_stat+0x3a>
    1eb8:	e0 91 e4 21 	lds	r30, 0x21E4	; 0x8021e4 <p_bno055>
    1ebc:	f0 91 e5 21 	lds	r31, 0x21E5	; 0x8021e5 <p_bno055+0x1>
    1ec0:	83 81       	ldd	r24, Z+3	; 0x03
    1ec2:	81 11       	cpse	r24, r1
    1ec4:	17 c0       	rjmp	.+46     	; 0x1ef4 <bno055_get_mag_calib_stat+0x68>
    1ec6:	a0 91 e4 21 	lds	r26, 0x21E4	; 0x8021e4 <p_bno055>
    1eca:	b0 91 e5 21 	lds	r27, 0x21E5	; 0x8021e5 <p_bno055+0x1>
    1ece:	1b 96       	adiw	r26, 0x0b	; 11
    1ed0:	ed 91       	ld	r30, X+
    1ed2:	fc 91       	ld	r31, X
    1ed4:	1c 97       	sbiw	r26, 0x0c	; 12
    1ed6:	21 e0       	ldi	r18, 0x01	; 1
    1ed8:	ae 01       	movw	r20, r28
    1eda:	4f 5f       	subi	r20, 0xFF	; 255
    1edc:	5f 4f       	sbci	r21, 0xFF	; 255
    1ede:	65 e3       	ldi	r22, 0x35	; 53
    1ee0:	18 96       	adiw	r26, 0x08	; 8
    1ee2:	8c 91       	ld	r24, X
    1ee4:	19 95       	eicall
    1ee6:	99 81       	ldd	r25, Y+1	; 0x01
    1ee8:	93 70       	andi	r25, 0x03	; 3
    1eea:	f8 01       	movw	r30, r16
    1eec:	90 83       	st	Z, r25
    1eee:	03 c0       	rjmp	.+6      	; 0x1ef6 <bno055_get_mag_calib_stat+0x6a>
    1ef0:	81 e8       	ldi	r24, 0x81	; 129
    1ef2:	01 c0       	rjmp	.+2      	; 0x1ef6 <bno055_get_mag_calib_stat+0x6a>
    1ef4:	8f ef       	ldi	r24, 0xFF	; 255
    1ef6:	0f 90       	pop	r0
    1ef8:	df 91       	pop	r29
    1efa:	cf 91       	pop	r28
    1efc:	1f 91       	pop	r17
    1efe:	0f 91       	pop	r16
    1f00:	08 95       	ret

00001f02 <bno055_get_accel_calib_stat>:
    1f02:	0f 93       	push	r16
    1f04:	1f 93       	push	r17
    1f06:	cf 93       	push	r28
    1f08:	df 93       	push	r29
    1f0a:	1f 92       	push	r1
    1f0c:	cd b7       	in	r28, 0x3d	; 61
    1f0e:	de b7       	in	r29, 0x3e	; 62
    1f10:	19 82       	std	Y+1, r1	; 0x01
    1f12:	e0 91 e4 21 	lds	r30, 0x21E4	; 0x8021e4 <p_bno055>
    1f16:	f0 91 e5 21 	lds	r31, 0x21E5	; 0x8021e5 <p_bno055+0x1>
    1f1a:	30 97       	sbiw	r30, 0x00	; 0
    1f1c:	49 f1       	breq	.+82     	; 0x1f70 <bno055_get_accel_calib_stat+0x6e>
    1f1e:	8c 01       	movw	r16, r24
    1f20:	83 81       	ldd	r24, Z+3	; 0x03
    1f22:	88 23       	and	r24, r24
    1f24:	59 f0       	breq	.+22     	; 0x1f3c <bno055_get_accel_calib_stat+0x3a>
    1f26:	80 e0       	ldi	r24, 0x00	; 0
    1f28:	58 de       	rcall	.-848    	; 0x1bda <bno055_write_page_id>
    1f2a:	88 23       	and	r24, r24
    1f2c:	39 f0       	breq	.+14     	; 0x1f3c <bno055_get_accel_calib_stat+0x3a>
    1f2e:	e0 91 e4 21 	lds	r30, 0x21E4	; 0x8021e4 <p_bno055>
    1f32:	f0 91 e5 21 	lds	r31, 0x21E5	; 0x8021e5 <p_bno055+0x1>
    1f36:	83 81       	ldd	r24, Z+3	; 0x03
    1f38:	81 11       	cpse	r24, r1
    1f3a:	1c c0       	rjmp	.+56     	; 0x1f74 <bno055_get_accel_calib_stat+0x72>
    1f3c:	a0 91 e4 21 	lds	r26, 0x21E4	; 0x8021e4 <p_bno055>
    1f40:	b0 91 e5 21 	lds	r27, 0x21E5	; 0x8021e5 <p_bno055+0x1>
    1f44:	1b 96       	adiw	r26, 0x0b	; 11
    1f46:	ed 91       	ld	r30, X+
    1f48:	fc 91       	ld	r31, X
    1f4a:	1c 97       	sbiw	r26, 0x0c	; 12
    1f4c:	21 e0       	ldi	r18, 0x01	; 1
    1f4e:	ae 01       	movw	r20, r28
    1f50:	4f 5f       	subi	r20, 0xFF	; 255
    1f52:	5f 4f       	sbci	r21, 0xFF	; 255
    1f54:	65 e3       	ldi	r22, 0x35	; 53
    1f56:	18 96       	adiw	r26, 0x08	; 8
    1f58:	8c 91       	ld	r24, X
    1f5a:	19 95       	eicall
    1f5c:	29 81       	ldd	r18, Y+1	; 0x01
    1f5e:	2c 70       	andi	r18, 0x0C	; 12
    1f60:	30 e0       	ldi	r19, 0x00	; 0
    1f62:	35 95       	asr	r19
    1f64:	27 95       	ror	r18
    1f66:	35 95       	asr	r19
    1f68:	27 95       	ror	r18
    1f6a:	f8 01       	movw	r30, r16
    1f6c:	20 83       	st	Z, r18
    1f6e:	03 c0       	rjmp	.+6      	; 0x1f76 <bno055_get_accel_calib_stat+0x74>
    1f70:	81 e8       	ldi	r24, 0x81	; 129
    1f72:	01 c0       	rjmp	.+2      	; 0x1f76 <bno055_get_accel_calib_stat+0x74>
    1f74:	8f ef       	ldi	r24, 0xFF	; 255
    1f76:	0f 90       	pop	r0
    1f78:	df 91       	pop	r29
    1f7a:	cf 91       	pop	r28
    1f7c:	1f 91       	pop	r17
    1f7e:	0f 91       	pop	r16
    1f80:	08 95       	ret

00001f82 <bno055_get_gyro_calib_stat>:
    1f82:	0f 93       	push	r16
    1f84:	1f 93       	push	r17
    1f86:	cf 93       	push	r28
    1f88:	df 93       	push	r29
    1f8a:	1f 92       	push	r1
    1f8c:	cd b7       	in	r28, 0x3d	; 61
    1f8e:	de b7       	in	r29, 0x3e	; 62
    1f90:	19 82       	std	Y+1, r1	; 0x01
    1f92:	e0 91 e4 21 	lds	r30, 0x21E4	; 0x8021e4 <p_bno055>
    1f96:	f0 91 e5 21 	lds	r31, 0x21E5	; 0x8021e5 <p_bno055+0x1>
    1f9a:	30 97       	sbiw	r30, 0x00	; 0
    1f9c:	69 f1       	breq	.+90     	; 0x1ff8 <bno055_get_gyro_calib_stat+0x76>
    1f9e:	8c 01       	movw	r16, r24
    1fa0:	83 81       	ldd	r24, Z+3	; 0x03
    1fa2:	88 23       	and	r24, r24
    1fa4:	59 f0       	breq	.+22     	; 0x1fbc <bno055_get_gyro_calib_stat+0x3a>
    1fa6:	80 e0       	ldi	r24, 0x00	; 0
    1fa8:	18 de       	rcall	.-976    	; 0x1bda <bno055_write_page_id>
    1faa:	88 23       	and	r24, r24
    1fac:	39 f0       	breq	.+14     	; 0x1fbc <bno055_get_gyro_calib_stat+0x3a>
    1fae:	e0 91 e4 21 	lds	r30, 0x21E4	; 0x8021e4 <p_bno055>
    1fb2:	f0 91 e5 21 	lds	r31, 0x21E5	; 0x8021e5 <p_bno055+0x1>
    1fb6:	83 81       	ldd	r24, Z+3	; 0x03
    1fb8:	81 11       	cpse	r24, r1
    1fba:	20 c0       	rjmp	.+64     	; 0x1ffc <bno055_get_gyro_calib_stat+0x7a>
    1fbc:	a0 91 e4 21 	lds	r26, 0x21E4	; 0x8021e4 <p_bno055>
    1fc0:	b0 91 e5 21 	lds	r27, 0x21E5	; 0x8021e5 <p_bno055+0x1>
    1fc4:	1b 96       	adiw	r26, 0x0b	; 11
    1fc6:	ed 91       	ld	r30, X+
    1fc8:	fc 91       	ld	r31, X
    1fca:	1c 97       	sbiw	r26, 0x0c	; 12
    1fcc:	21 e0       	ldi	r18, 0x01	; 1
    1fce:	ae 01       	movw	r20, r28
    1fd0:	4f 5f       	subi	r20, 0xFF	; 255
    1fd2:	5f 4f       	sbci	r21, 0xFF	; 255
    1fd4:	65 e3       	ldi	r22, 0x35	; 53
    1fd6:	18 96       	adiw	r26, 0x08	; 8
    1fd8:	8c 91       	ld	r24, X
    1fda:	19 95       	eicall
    1fdc:	29 81       	ldd	r18, Y+1	; 0x01
    1fde:	20 73       	andi	r18, 0x30	; 48
    1fe0:	30 e0       	ldi	r19, 0x00	; 0
    1fe2:	35 95       	asr	r19
    1fe4:	27 95       	ror	r18
    1fe6:	35 95       	asr	r19
    1fe8:	27 95       	ror	r18
    1fea:	35 95       	asr	r19
    1fec:	27 95       	ror	r18
    1fee:	35 95       	asr	r19
    1ff0:	27 95       	ror	r18
    1ff2:	f8 01       	movw	r30, r16
    1ff4:	20 83       	st	Z, r18
    1ff6:	03 c0       	rjmp	.+6      	; 0x1ffe <bno055_get_gyro_calib_stat+0x7c>
    1ff8:	81 e8       	ldi	r24, 0x81	; 129
    1ffa:	01 c0       	rjmp	.+2      	; 0x1ffe <bno055_get_gyro_calib_stat+0x7c>
    1ffc:	8f ef       	ldi	r24, 0xFF	; 255
    1ffe:	0f 90       	pop	r0
    2000:	df 91       	pop	r29
    2002:	cf 91       	pop	r28
    2004:	1f 91       	pop	r17
    2006:	0f 91       	pop	r16
    2008:	08 95       	ret

0000200a <bno055_get_sys_calib_stat>:
    200a:	0f 93       	push	r16
    200c:	1f 93       	push	r17
    200e:	cf 93       	push	r28
    2010:	df 93       	push	r29
    2012:	1f 92       	push	r1
    2014:	cd b7       	in	r28, 0x3d	; 61
    2016:	de b7       	in	r29, 0x3e	; 62
    2018:	19 82       	std	Y+1, r1	; 0x01
    201a:	e0 91 e4 21 	lds	r30, 0x21E4	; 0x8021e4 <p_bno055>
    201e:	f0 91 e5 21 	lds	r31, 0x21E5	; 0x8021e5 <p_bno055+0x1>
    2022:	30 97       	sbiw	r30, 0x00	; 0
    2024:	39 f1       	breq	.+78     	; 0x2074 <bno055_get_sys_calib_stat+0x6a>
    2026:	8c 01       	movw	r16, r24
    2028:	83 81       	ldd	r24, Z+3	; 0x03
    202a:	88 23       	and	r24, r24
    202c:	59 f0       	breq	.+22     	; 0x2044 <bno055_get_sys_calib_stat+0x3a>
    202e:	80 e0       	ldi	r24, 0x00	; 0
    2030:	d4 dd       	rcall	.-1112   	; 0x1bda <bno055_write_page_id>
    2032:	88 23       	and	r24, r24
    2034:	39 f0       	breq	.+14     	; 0x2044 <bno055_get_sys_calib_stat+0x3a>
    2036:	e0 91 e4 21 	lds	r30, 0x21E4	; 0x8021e4 <p_bno055>
    203a:	f0 91 e5 21 	lds	r31, 0x21E5	; 0x8021e5 <p_bno055+0x1>
    203e:	83 81       	ldd	r24, Z+3	; 0x03
    2040:	81 11       	cpse	r24, r1
    2042:	1a c0       	rjmp	.+52     	; 0x2078 <bno055_get_sys_calib_stat+0x6e>
    2044:	a0 91 e4 21 	lds	r26, 0x21E4	; 0x8021e4 <p_bno055>
    2048:	b0 91 e5 21 	lds	r27, 0x21E5	; 0x8021e5 <p_bno055+0x1>
    204c:	1b 96       	adiw	r26, 0x0b	; 11
    204e:	ed 91       	ld	r30, X+
    2050:	fc 91       	ld	r31, X
    2052:	1c 97       	sbiw	r26, 0x0c	; 12
    2054:	21 e0       	ldi	r18, 0x01	; 1
    2056:	ae 01       	movw	r20, r28
    2058:	4f 5f       	subi	r20, 0xFF	; 255
    205a:	5f 4f       	sbci	r21, 0xFF	; 255
    205c:	65 e3       	ldi	r22, 0x35	; 53
    205e:	18 96       	adiw	r26, 0x08	; 8
    2060:	8c 91       	ld	r24, X
    2062:	19 95       	eicall
    2064:	99 81       	ldd	r25, Y+1	; 0x01
    2066:	92 95       	swap	r25
    2068:	96 95       	lsr	r25
    206a:	96 95       	lsr	r25
    206c:	93 70       	andi	r25, 0x03	; 3
    206e:	f8 01       	movw	r30, r16
    2070:	90 83       	st	Z, r25
    2072:	03 c0       	rjmp	.+6      	; 0x207a <bno055_get_sys_calib_stat+0x70>
    2074:	81 e8       	ldi	r24, 0x81	; 129
    2076:	01 c0       	rjmp	.+2      	; 0x207a <bno055_get_sys_calib_stat+0x70>
    2078:	8f ef       	ldi	r24, 0xFF	; 255
    207a:	0f 90       	pop	r0
    207c:	df 91       	pop	r29
    207e:	cf 91       	pop	r28
    2080:	1f 91       	pop	r17
    2082:	0f 91       	pop	r16
    2084:	08 95       	ret

00002086 <bno055_get_euler_unit>:
    2086:	0f 93       	push	r16
    2088:	1f 93       	push	r17
    208a:	cf 93       	push	r28
    208c:	df 93       	push	r29
    208e:	1f 92       	push	r1
    2090:	cd b7       	in	r28, 0x3d	; 61
    2092:	de b7       	in	r29, 0x3e	; 62
    2094:	19 82       	std	Y+1, r1	; 0x01
    2096:	e0 91 e4 21 	lds	r30, 0x21E4	; 0x8021e4 <p_bno055>
    209a:	f0 91 e5 21 	lds	r31, 0x21E5	; 0x8021e5 <p_bno055+0x1>
    209e:	30 97       	sbiw	r30, 0x00	; 0
    20a0:	31 f1       	breq	.+76     	; 0x20ee <bno055_get_euler_unit+0x68>
    20a2:	8c 01       	movw	r16, r24
    20a4:	83 81       	ldd	r24, Z+3	; 0x03
    20a6:	88 23       	and	r24, r24
    20a8:	59 f0       	breq	.+22     	; 0x20c0 <bno055_get_euler_unit+0x3a>
    20aa:	80 e0       	ldi	r24, 0x00	; 0
    20ac:	96 dd       	rcall	.-1236   	; 0x1bda <bno055_write_page_id>
    20ae:	88 23       	and	r24, r24
    20b0:	39 f0       	breq	.+14     	; 0x20c0 <bno055_get_euler_unit+0x3a>
    20b2:	e0 91 e4 21 	lds	r30, 0x21E4	; 0x8021e4 <p_bno055>
    20b6:	f0 91 e5 21 	lds	r31, 0x21E5	; 0x8021e5 <p_bno055+0x1>
    20ba:	83 81       	ldd	r24, Z+3	; 0x03
    20bc:	81 11       	cpse	r24, r1
    20be:	19 c0       	rjmp	.+50     	; 0x20f2 <bno055_get_euler_unit+0x6c>
    20c0:	a0 91 e4 21 	lds	r26, 0x21E4	; 0x8021e4 <p_bno055>
    20c4:	b0 91 e5 21 	lds	r27, 0x21E5	; 0x8021e5 <p_bno055+0x1>
    20c8:	1b 96       	adiw	r26, 0x0b	; 11
    20ca:	ed 91       	ld	r30, X+
    20cc:	fc 91       	ld	r31, X
    20ce:	1c 97       	sbiw	r26, 0x0c	; 12
    20d0:	21 e0       	ldi	r18, 0x01	; 1
    20d2:	ae 01       	movw	r20, r28
    20d4:	4f 5f       	subi	r20, 0xFF	; 255
    20d6:	5f 4f       	sbci	r21, 0xFF	; 255
    20d8:	6b e3       	ldi	r22, 0x3B	; 59
    20da:	18 96       	adiw	r26, 0x08	; 8
    20dc:	8c 91       	ld	r24, X
    20de:	19 95       	eicall
    20e0:	99 81       	ldd	r25, Y+1	; 0x01
    20e2:	92 fb       	bst	r25, 2
    20e4:	99 27       	eor	r25, r25
    20e6:	90 f9       	bld	r25, 0
    20e8:	f8 01       	movw	r30, r16
    20ea:	90 83       	st	Z, r25
    20ec:	03 c0       	rjmp	.+6      	; 0x20f4 <bno055_get_euler_unit+0x6e>
    20ee:	81 e8       	ldi	r24, 0x81	; 129
    20f0:	01 c0       	rjmp	.+2      	; 0x20f4 <bno055_get_euler_unit+0x6e>
    20f2:	8f ef       	ldi	r24, 0xFF	; 255
    20f4:	0f 90       	pop	r0
    20f6:	df 91       	pop	r29
    20f8:	cf 91       	pop	r28
    20fa:	1f 91       	pop	r17
    20fc:	0f 91       	pop	r16
    20fe:	08 95       	ret

00002100 <bno055_get_operation_mode>:
    2100:	0f 93       	push	r16
    2102:	1f 93       	push	r17
    2104:	cf 93       	push	r28
    2106:	df 93       	push	r29
    2108:	1f 92       	push	r1
    210a:	cd b7       	in	r28, 0x3d	; 61
    210c:	de b7       	in	r29, 0x3e	; 62
    210e:	19 82       	std	Y+1, r1	; 0x01
    2110:	e0 91 e4 21 	lds	r30, 0x21E4	; 0x8021e4 <p_bno055>
    2114:	f0 91 e5 21 	lds	r31, 0x21E5	; 0x8021e5 <p_bno055+0x1>
    2118:	30 97       	sbiw	r30, 0x00	; 0
    211a:	21 f1       	breq	.+72     	; 0x2164 <bno055_get_operation_mode+0x64>
    211c:	8c 01       	movw	r16, r24
    211e:	83 81       	ldd	r24, Z+3	; 0x03
    2120:	88 23       	and	r24, r24
    2122:	59 f0       	breq	.+22     	; 0x213a <bno055_get_operation_mode+0x3a>
    2124:	80 e0       	ldi	r24, 0x00	; 0
    2126:	59 dd       	rcall	.-1358   	; 0x1bda <bno055_write_page_id>
    2128:	88 23       	and	r24, r24
    212a:	39 f0       	breq	.+14     	; 0x213a <bno055_get_operation_mode+0x3a>
    212c:	e0 91 e4 21 	lds	r30, 0x21E4	; 0x8021e4 <p_bno055>
    2130:	f0 91 e5 21 	lds	r31, 0x21E5	; 0x8021e5 <p_bno055+0x1>
    2134:	83 81       	ldd	r24, Z+3	; 0x03
    2136:	81 11       	cpse	r24, r1
    2138:	17 c0       	rjmp	.+46     	; 0x2168 <bno055_get_operation_mode+0x68>
    213a:	a0 91 e4 21 	lds	r26, 0x21E4	; 0x8021e4 <p_bno055>
    213e:	b0 91 e5 21 	lds	r27, 0x21E5	; 0x8021e5 <p_bno055+0x1>
    2142:	1b 96       	adiw	r26, 0x0b	; 11
    2144:	ed 91       	ld	r30, X+
    2146:	fc 91       	ld	r31, X
    2148:	1c 97       	sbiw	r26, 0x0c	; 12
    214a:	21 e0       	ldi	r18, 0x01	; 1
    214c:	ae 01       	movw	r20, r28
    214e:	4f 5f       	subi	r20, 0xFF	; 255
    2150:	5f 4f       	sbci	r21, 0xFF	; 255
    2152:	6d e3       	ldi	r22, 0x3D	; 61
    2154:	18 96       	adiw	r26, 0x08	; 8
    2156:	8c 91       	ld	r24, X
    2158:	19 95       	eicall
    215a:	99 81       	ldd	r25, Y+1	; 0x01
    215c:	9f 70       	andi	r25, 0x0F	; 15
    215e:	f8 01       	movw	r30, r16
    2160:	90 83       	st	Z, r25
    2162:	03 c0       	rjmp	.+6      	; 0x216a <bno055_get_operation_mode+0x6a>
    2164:	81 e8       	ldi	r24, 0x81	; 129
    2166:	01 c0       	rjmp	.+2      	; 0x216a <bno055_get_operation_mode+0x6a>
    2168:	8f ef       	ldi	r24, 0xFF	; 255
    216a:	0f 90       	pop	r0
    216c:	df 91       	pop	r29
    216e:	cf 91       	pop	r28
    2170:	1f 91       	pop	r17
    2172:	0f 91       	pop	r16
    2174:	08 95       	ret

00002176 <bno055_set_operation_mode>:
    2176:	0f 93       	push	r16
    2178:	1f 93       	push	r17
    217a:	cf 93       	push	r28
    217c:	df 93       	push	r29
    217e:	1f 92       	push	r1
    2180:	1f 92       	push	r1
    2182:	cd b7       	in	r28, 0x3d	; 61
    2184:	de b7       	in	r29, 0x3e	; 62
    2186:	19 82       	std	Y+1, r1	; 0x01
    2188:	1a 82       	std	Y+2, r1	; 0x02
    218a:	20 91 e4 21 	lds	r18, 0x21E4	; 0x8021e4 <p_bno055>
    218e:	30 91 e5 21 	lds	r19, 0x21E5	; 0x8021e5 <p_bno055+0x1>
    2192:	23 2b       	or	r18, r19
    2194:	09 f4       	brne	.+2      	; 0x2198 <bno055_set_operation_mode+0x22>
    2196:	9c c0       	rjmp	.+312    	; 0x22d0 <bno055_set_operation_mode+0x15a>
    2198:	08 2f       	mov	r16, r24
    219a:	ce 01       	movw	r24, r28
    219c:	02 96       	adiw	r24, 0x02	; 2
    219e:	b0 df       	rcall	.-160    	; 0x2100 <bno055_get_operation_mode>
    21a0:	81 11       	cpse	r24, r1
    21a2:	98 c0       	rjmp	.+304    	; 0x22d4 <bno055_set_operation_mode+0x15e>
    21a4:	8a 81       	ldd	r24, Y+2	; 0x02
    21a6:	81 11       	cpse	r24, r1
    21a8:	35 c0       	rjmp	.+106    	; 0x2214 <bno055_set_operation_mode+0x9e>
    21aa:	a0 91 e4 21 	lds	r26, 0x21E4	; 0x8021e4 <p_bno055>
    21ae:	b0 91 e5 21 	lds	r27, 0x21E5	; 0x8021e5 <p_bno055+0x1>
    21b2:	1b 96       	adiw	r26, 0x0b	; 11
    21b4:	ed 91       	ld	r30, X+
    21b6:	fc 91       	ld	r31, X
    21b8:	1c 97       	sbiw	r26, 0x0c	; 12
    21ba:	21 e0       	ldi	r18, 0x01	; 1
    21bc:	ae 01       	movw	r20, r28
    21be:	4f 5f       	subi	r20, 0xFF	; 255
    21c0:	5f 4f       	sbci	r21, 0xFF	; 255
    21c2:	6d e3       	ldi	r22, 0x3D	; 61
    21c4:	18 96       	adiw	r26, 0x08	; 8
    21c6:	8c 91       	ld	r24, X
    21c8:	19 95       	eicall
    21ca:	81 11       	cpse	r24, r1
    21cc:	85 c0       	rjmp	.+266    	; 0x22d8 <bno055_set_operation_mode+0x162>
    21ce:	89 81       	ldd	r24, Y+1	; 0x01
    21d0:	98 2f       	mov	r25, r24
    21d2:	90 7f       	andi	r25, 0xF0	; 240
    21d4:	80 2f       	mov	r24, r16
    21d6:	8f 70       	andi	r24, 0x0F	; 15
    21d8:	89 2b       	or	r24, r25
    21da:	89 83       	std	Y+1, r24	; 0x01
    21dc:	a0 91 e4 21 	lds	r26, 0x21E4	; 0x8021e4 <p_bno055>
    21e0:	b0 91 e5 21 	lds	r27, 0x21E5	; 0x8021e5 <p_bno055+0x1>
    21e4:	19 96       	adiw	r26, 0x09	; 9
    21e6:	ed 91       	ld	r30, X+
    21e8:	fc 91       	ld	r31, X
    21ea:	1a 97       	sbiw	r26, 0x0a	; 10
    21ec:	21 e0       	ldi	r18, 0x01	; 1
    21ee:	ae 01       	movw	r20, r28
    21f0:	4f 5f       	subi	r20, 0xFF	; 255
    21f2:	5f 4f       	sbci	r21, 0xFF	; 255
    21f4:	6d e3       	ldi	r22, 0x3D	; 61
    21f6:	18 96       	adiw	r26, 0x08	; 8
    21f8:	8c 91       	ld	r24, X
    21fa:	19 95       	eicall
    21fc:	18 2f       	mov	r17, r24
    21fe:	e0 91 e4 21 	lds	r30, 0x21E4	; 0x8021e4 <p_bno055>
    2202:	f0 91 e5 21 	lds	r31, 0x21E5	; 0x8021e5 <p_bno055+0x1>
    2206:	05 84       	ldd	r0, Z+13	; 0x0d
    2208:	f6 85       	ldd	r31, Z+14	; 0x0e
    220a:	e0 2d       	mov	r30, r0
    220c:	88 e5       	ldi	r24, 0x58	; 88
    220e:	92 e0       	ldi	r25, 0x02	; 2
    2210:	19 95       	eicall
    2212:	65 c0       	rjmp	.+202    	; 0x22de <bno055_set_operation_mode+0x168>
    2214:	a0 91 e4 21 	lds	r26, 0x21E4	; 0x8021e4 <p_bno055>
    2218:	b0 91 e5 21 	lds	r27, 0x21E5	; 0x8021e5 <p_bno055+0x1>
    221c:	1b 96       	adiw	r26, 0x0b	; 11
    221e:	ed 91       	ld	r30, X+
    2220:	fc 91       	ld	r31, X
    2222:	1c 97       	sbiw	r26, 0x0c	; 12
    2224:	21 e0       	ldi	r18, 0x01	; 1
    2226:	ae 01       	movw	r20, r28
    2228:	4f 5f       	subi	r20, 0xFF	; 255
    222a:	5f 4f       	sbci	r21, 0xFF	; 255
    222c:	6d e3       	ldi	r22, 0x3D	; 61
    222e:	18 96       	adiw	r26, 0x08	; 8
    2230:	8c 91       	ld	r24, X
    2232:	19 95       	eicall
    2234:	18 2f       	mov	r17, r24
    2236:	81 11       	cpse	r24, r1
    2238:	14 c0       	rjmp	.+40     	; 0x2262 <bno055_set_operation_mode+0xec>
    223a:	89 81       	ldd	r24, Y+1	; 0x01
    223c:	80 7f       	andi	r24, 0xF0	; 240
    223e:	89 83       	std	Y+1, r24	; 0x01
    2240:	41 e0       	ldi	r20, 0x01	; 1
    2242:	be 01       	movw	r22, r28
    2244:	6f 5f       	subi	r22, 0xFF	; 255
    2246:	7f 4f       	sbci	r23, 0xFF	; 255
    2248:	8d e3       	ldi	r24, 0x3D	; 61
    224a:	b4 dc       	rcall	.-1688   	; 0x1bb4 <bno055_write_register>
    224c:	18 2f       	mov	r17, r24
    224e:	e0 91 e4 21 	lds	r30, 0x21E4	; 0x8021e4 <p_bno055>
    2252:	f0 91 e5 21 	lds	r31, 0x21E5	; 0x8021e5 <p_bno055+0x1>
    2256:	05 84       	ldd	r0, Z+13	; 0x0d
    2258:	f6 85       	ldd	r31, Z+14	; 0x0e
    225a:	e0 2d       	mov	r30, r0
    225c:	84 e1       	ldi	r24, 0x14	; 20
    225e:	90 e0       	ldi	r25, 0x00	; 0
    2260:	19 95       	eicall
    2262:	00 23       	and	r16, r16
    2264:	e1 f1       	breq	.+120    	; 0x22de <bno055_set_operation_mode+0x168>
    2266:	a0 91 e4 21 	lds	r26, 0x21E4	; 0x8021e4 <p_bno055>
    226a:	b0 91 e5 21 	lds	r27, 0x21E5	; 0x8021e5 <p_bno055+0x1>
    226e:	1b 96       	adiw	r26, 0x0b	; 11
    2270:	ed 91       	ld	r30, X+
    2272:	fc 91       	ld	r31, X
    2274:	1c 97       	sbiw	r26, 0x0c	; 12
    2276:	21 e0       	ldi	r18, 0x01	; 1
    2278:	ae 01       	movw	r20, r28
    227a:	4f 5f       	subi	r20, 0xFF	; 255
    227c:	5f 4f       	sbci	r21, 0xFF	; 255
    227e:	6d e3       	ldi	r22, 0x3D	; 61
    2280:	18 96       	adiw	r26, 0x08	; 8
    2282:	8c 91       	ld	r24, X
    2284:	19 95       	eicall
    2286:	81 11       	cpse	r24, r1
    2288:	29 c0       	rjmp	.+82     	; 0x22dc <bno055_set_operation_mode+0x166>
    228a:	89 81       	ldd	r24, Y+1	; 0x01
    228c:	98 2f       	mov	r25, r24
    228e:	90 7f       	andi	r25, 0xF0	; 240
    2290:	80 2f       	mov	r24, r16
    2292:	8f 70       	andi	r24, 0x0F	; 15
    2294:	89 2b       	or	r24, r25
    2296:	89 83       	std	Y+1, r24	; 0x01
    2298:	a0 91 e4 21 	lds	r26, 0x21E4	; 0x8021e4 <p_bno055>
    229c:	b0 91 e5 21 	lds	r27, 0x21E5	; 0x8021e5 <p_bno055+0x1>
    22a0:	19 96       	adiw	r26, 0x09	; 9
    22a2:	ed 91       	ld	r30, X+
    22a4:	fc 91       	ld	r31, X
    22a6:	1a 97       	sbiw	r26, 0x0a	; 10
    22a8:	21 e0       	ldi	r18, 0x01	; 1
    22aa:	ae 01       	movw	r20, r28
    22ac:	4f 5f       	subi	r20, 0xFF	; 255
    22ae:	5f 4f       	sbci	r21, 0xFF	; 255
    22b0:	6d e3       	ldi	r22, 0x3D	; 61
    22b2:	18 96       	adiw	r26, 0x08	; 8
    22b4:	8c 91       	ld	r24, X
    22b6:	19 95       	eicall
    22b8:	18 2f       	mov	r17, r24
    22ba:	e0 91 e4 21 	lds	r30, 0x21E4	; 0x8021e4 <p_bno055>
    22be:	f0 91 e5 21 	lds	r31, 0x21E5	; 0x8021e5 <p_bno055+0x1>
    22c2:	05 84       	ldd	r0, Z+13	; 0x0d
    22c4:	f6 85       	ldd	r31, Z+14	; 0x0e
    22c6:	e0 2d       	mov	r30, r0
    22c8:	88 e5       	ldi	r24, 0x58	; 88
    22ca:	92 e0       	ldi	r25, 0x02	; 2
    22cc:	19 95       	eicall
    22ce:	07 c0       	rjmp	.+14     	; 0x22de <bno055_set_operation_mode+0x168>
    22d0:	11 e8       	ldi	r17, 0x81	; 129
    22d2:	05 c0       	rjmp	.+10     	; 0x22de <bno055_set_operation_mode+0x168>
    22d4:	1f ef       	ldi	r17, 0xFF	; 255
    22d6:	03 c0       	rjmp	.+6      	; 0x22de <bno055_set_operation_mode+0x168>
    22d8:	18 2f       	mov	r17, r24
    22da:	01 c0       	rjmp	.+2      	; 0x22de <bno055_set_operation_mode+0x168>
    22dc:	18 2f       	mov	r17, r24
    22de:	81 2f       	mov	r24, r17
    22e0:	0f 90       	pop	r0
    22e2:	0f 90       	pop	r0
    22e4:	df 91       	pop	r29
    22e6:	cf 91       	pop	r28
    22e8:	1f 91       	pop	r17
    22ea:	0f 91       	pop	r16
    22ec:	08 95       	ret

000022ee <bno055_set_euler_unit>:
    22ee:	0f 93       	push	r16
    22f0:	1f 93       	push	r17
    22f2:	cf 93       	push	r28
    22f4:	df 93       	push	r29
    22f6:	1f 92       	push	r1
    22f8:	1f 92       	push	r1
    22fa:	cd b7       	in	r28, 0x3d	; 61
    22fc:	de b7       	in	r29, 0x3e	; 62
    22fe:	19 82       	std	Y+1, r1	; 0x01
    2300:	1a 82       	std	Y+2, r1	; 0x02
    2302:	20 91 e4 21 	lds	r18, 0x21E4	; 0x8021e4 <p_bno055>
    2306:	30 91 e5 21 	lds	r19, 0x21E5	; 0x8021e5 <p_bno055+0x1>
    230a:	23 2b       	or	r18, r19
    230c:	09 f4       	brne	.+2      	; 0x2310 <bno055_set_euler_unit+0x22>
    230e:	44 c0       	rjmp	.+136    	; 0x2398 <bno055_set_euler_unit+0xaa>
    2310:	08 2f       	mov	r16, r24
    2312:	ce 01       	movw	r24, r28
    2314:	02 96       	adiw	r24, 0x02	; 2
    2316:	f4 de       	rcall	.-536    	; 0x2100 <bno055_get_operation_mode>
    2318:	81 11       	cpse	r24, r1
    231a:	35 c0       	rjmp	.+106    	; 0x2386 <bno055_set_euler_unit+0x98>
    231c:	8a 81       	ldd	r24, Y+2	; 0x02
    231e:	88 23       	and	r24, r24
    2320:	21 f0       	breq	.+8      	; 0x232a <bno055_set_euler_unit+0x3c>
    2322:	80 e0       	ldi	r24, 0x00	; 0
    2324:	28 df       	rcall	.-432    	; 0x2176 <bno055_set_operation_mode>
    2326:	81 11       	cpse	r24, r1
    2328:	30 c0       	rjmp	.+96     	; 0x238a <bno055_set_euler_unit+0x9c>
    232a:	a0 91 e4 21 	lds	r26, 0x21E4	; 0x8021e4 <p_bno055>
    232e:	b0 91 e5 21 	lds	r27, 0x21E5	; 0x8021e5 <p_bno055+0x1>
    2332:	1b 96       	adiw	r26, 0x0b	; 11
    2334:	ed 91       	ld	r30, X+
    2336:	fc 91       	ld	r31, X
    2338:	1c 97       	sbiw	r26, 0x0c	; 12
    233a:	21 e0       	ldi	r18, 0x01	; 1
    233c:	ae 01       	movw	r20, r28
    233e:	4f 5f       	subi	r20, 0xFF	; 255
    2340:	5f 4f       	sbci	r21, 0xFF	; 255
    2342:	6b e3       	ldi	r22, 0x3B	; 59
    2344:	18 96       	adiw	r26, 0x08	; 8
    2346:	8c 91       	ld	r24, X
    2348:	19 95       	eicall
    234a:	18 2f       	mov	r17, r24
    234c:	81 11       	cpse	r24, r1
    234e:	1e c0       	rjmp	.+60     	; 0x238c <bno055_set_euler_unit+0x9e>
    2350:	89 81       	ldd	r24, Y+1	; 0x01
    2352:	98 2f       	mov	r25, r24
    2354:	9b 7f       	andi	r25, 0xFB	; 251
    2356:	80 2f       	mov	r24, r16
    2358:	88 0f       	add	r24, r24
    235a:	88 0f       	add	r24, r24
    235c:	84 70       	andi	r24, 0x04	; 4
    235e:	89 2b       	or	r24, r25
    2360:	89 83       	std	Y+1, r24	; 0x01
    2362:	a0 91 e4 21 	lds	r26, 0x21E4	; 0x8021e4 <p_bno055>
    2366:	b0 91 e5 21 	lds	r27, 0x21E5	; 0x8021e5 <p_bno055+0x1>
    236a:	19 96       	adiw	r26, 0x09	; 9
    236c:	ed 91       	ld	r30, X+
    236e:	fc 91       	ld	r31, X
    2370:	1a 97       	sbiw	r26, 0x0a	; 10
    2372:	21 e0       	ldi	r18, 0x01	; 1
    2374:	ae 01       	movw	r20, r28
    2376:	4f 5f       	subi	r20, 0xFF	; 255
    2378:	5f 4f       	sbci	r21, 0xFF	; 255
    237a:	6b e3       	ldi	r22, 0x3B	; 59
    237c:	18 96       	adiw	r26, 0x08	; 8
    237e:	8c 91       	ld	r24, X
    2380:	19 95       	eicall
    2382:	18 2f       	mov	r17, r24
    2384:	03 c0       	rjmp	.+6      	; 0x238c <bno055_set_euler_unit+0x9e>
    2386:	1f ef       	ldi	r17, 0xFF	; 255
    2388:	01 c0       	rjmp	.+2      	; 0x238c <bno055_set_euler_unit+0x9e>
    238a:	1f ef       	ldi	r17, 0xFF	; 255
    238c:	8a 81       	ldd	r24, Y+2	; 0x02
    238e:	88 23       	and	r24, r24
    2390:	29 f0       	breq	.+10     	; 0x239c <bno055_set_euler_unit+0xae>
    2392:	f1 de       	rcall	.-542    	; 0x2176 <bno055_set_operation_mode>
    2394:	81 0f       	add	r24, r17
    2396:	03 c0       	rjmp	.+6      	; 0x239e <bno055_set_euler_unit+0xb0>
    2398:	81 e8       	ldi	r24, 0x81	; 129
    239a:	01 c0       	rjmp	.+2      	; 0x239e <bno055_set_euler_unit+0xb0>
    239c:	81 2f       	mov	r24, r17
    239e:	0f 90       	pop	r0
    23a0:	0f 90       	pop	r0
    23a2:	df 91       	pop	r29
    23a4:	cf 91       	pop	r28
    23a6:	1f 91       	pop	r17
    23a8:	0f 91       	pop	r16
    23aa:	08 95       	ret

000023ac <bno055_convert_double_euler_hpr_deg>:
    23ac:	ef 92       	push	r14
    23ae:	ff 92       	push	r15
    23b0:	1f 93       	push	r17
    23b2:	cf 93       	push	r28
    23b4:	df 93       	push	r29
    23b6:	cd b7       	in	r28, 0x3d	; 61
    23b8:	de b7       	in	r29, 0x3e	; 62
    23ba:	27 97       	sbiw	r28, 0x07	; 7
    23bc:	cd bf       	out	0x3d, r28	; 61
    23be:	de bf       	out	0x3e, r29	; 62
    23c0:	7c 01       	movw	r14, r24
    23c2:	19 82       	std	Y+1, r1	; 0x01
    23c4:	1a 82       	std	Y+2, r1	; 0x02
    23c6:	1b 82       	std	Y+3, r1	; 0x03
    23c8:	1c 82       	std	Y+4, r1	; 0x04
    23ca:	1d 82       	std	Y+5, r1	; 0x05
    23cc:	1e 82       	std	Y+6, r1	; 0x06
    23ce:	1f 82       	std	Y+7, r1	; 0x07
    23d0:	ce 01       	movw	r24, r28
    23d2:	07 96       	adiw	r24, 0x07	; 7
    23d4:	58 de       	rcall	.-848    	; 0x2086 <bno055_get_euler_unit>
    23d6:	18 2f       	mov	r17, r24
    23d8:	8f 81       	ldd	r24, Y+7	; 0x07
    23da:	88 23       	and	r24, r24
    23dc:	19 f0       	breq	.+6      	; 0x23e4 <bno055_convert_double_euler_hpr_deg+0x38>
    23de:	80 e0       	ldi	r24, 0x00	; 0
    23e0:	86 df       	rcall	.-244    	; 0x22ee <bno055_set_euler_unit>
    23e2:	18 0f       	add	r17, r24
    23e4:	11 11       	cpse	r17, r1
    23e6:	3f c0       	rjmp	.+126    	; 0x2466 <bno055_convert_double_euler_hpr_deg+0xba>
    23e8:	ce 01       	movw	r24, r28
    23ea:	01 96       	adiw	r24, 0x01	; 1
    23ec:	33 dc       	rcall	.-1946   	; 0x1c54 <bno055_read_euler_hrp>
    23ee:	81 11       	cpse	r24, r1
    23f0:	3c c0       	rjmp	.+120    	; 0x246a <bno055_convert_double_euler_hpr_deg+0xbe>
    23f2:	69 81       	ldd	r22, Y+1	; 0x01
    23f4:	7a 81       	ldd	r23, Y+2	; 0x02
    23f6:	07 2e       	mov	r0, r23
    23f8:	00 0c       	add	r0, r0
    23fa:	88 0b       	sbc	r24, r24
    23fc:	99 0b       	sbc	r25, r25
    23fe:	0e 94 b4 2f 	call	0x5f68	; 0x5f68 <__floatsisf>
    2402:	20 e0       	ldi	r18, 0x00	; 0
    2404:	30 e0       	ldi	r19, 0x00	; 0
    2406:	40 e8       	ldi	r20, 0x80	; 128
    2408:	5d e3       	ldi	r21, 0x3D	; 61
    240a:	0e 94 fb 30 	call	0x61f6	; 0x61f6 <__mulsf3>
    240e:	f7 01       	movw	r30, r14
    2410:	60 83       	st	Z, r22
    2412:	71 83       	std	Z+1, r23	; 0x01
    2414:	82 83       	std	Z+2, r24	; 0x02
    2416:	93 83       	std	Z+3, r25	; 0x03
    2418:	6d 81       	ldd	r22, Y+5	; 0x05
    241a:	7e 81       	ldd	r23, Y+6	; 0x06
    241c:	07 2e       	mov	r0, r23
    241e:	00 0c       	add	r0, r0
    2420:	88 0b       	sbc	r24, r24
    2422:	99 0b       	sbc	r25, r25
    2424:	0e 94 b4 2f 	call	0x5f68	; 0x5f68 <__floatsisf>
    2428:	20 e0       	ldi	r18, 0x00	; 0
    242a:	30 e0       	ldi	r19, 0x00	; 0
    242c:	40 e8       	ldi	r20, 0x80	; 128
    242e:	5d e3       	ldi	r21, 0x3D	; 61
    2430:	0e 94 fb 30 	call	0x61f6	; 0x61f6 <__mulsf3>
    2434:	f7 01       	movw	r30, r14
    2436:	60 87       	std	Z+8, r22	; 0x08
    2438:	71 87       	std	Z+9, r23	; 0x09
    243a:	82 87       	std	Z+10, r24	; 0x0a
    243c:	93 87       	std	Z+11, r25	; 0x0b
    243e:	6b 81       	ldd	r22, Y+3	; 0x03
    2440:	7c 81       	ldd	r23, Y+4	; 0x04
    2442:	07 2e       	mov	r0, r23
    2444:	00 0c       	add	r0, r0
    2446:	88 0b       	sbc	r24, r24
    2448:	99 0b       	sbc	r25, r25
    244a:	0e 94 b4 2f 	call	0x5f68	; 0x5f68 <__floatsisf>
    244e:	20 e0       	ldi	r18, 0x00	; 0
    2450:	30 e0       	ldi	r19, 0x00	; 0
    2452:	40 e8       	ldi	r20, 0x80	; 128
    2454:	5d e3       	ldi	r21, 0x3D	; 61
    2456:	0e 94 fb 30 	call	0x61f6	; 0x61f6 <__mulsf3>
    245a:	f7 01       	movw	r30, r14
    245c:	64 83       	std	Z+4, r22	; 0x04
    245e:	75 83       	std	Z+5, r23	; 0x05
    2460:	86 83       	std	Z+6, r24	; 0x06
    2462:	97 83       	std	Z+7, r25	; 0x07
    2464:	03 c0       	rjmp	.+6      	; 0x246c <bno055_convert_double_euler_hpr_deg+0xc0>
    2466:	1f ef       	ldi	r17, 0xFF	; 255
    2468:	01 c0       	rjmp	.+2      	; 0x246c <bno055_convert_double_euler_hpr_deg+0xc0>
    246a:	1f ef       	ldi	r17, 0xFF	; 255
    246c:	81 2f       	mov	r24, r17
    246e:	27 96       	adiw	r28, 0x07	; 7
    2470:	cd bf       	out	0x3d, r28	; 61
    2472:	de bf       	out	0x3e, r29	; 62
    2474:	df 91       	pop	r29
    2476:	cf 91       	pop	r28
    2478:	1f 91       	pop	r17
    247a:	ff 90       	pop	r15
    247c:	ef 90       	pop	r14
    247e:	08 95       	ret

00002480 <bno055_set_power_mode>:
    2480:	0f 93       	push	r16
    2482:	1f 93       	push	r17
    2484:	cf 93       	push	r28
    2486:	df 93       	push	r29
    2488:	1f 92       	push	r1
    248a:	1f 92       	push	r1
    248c:	cd b7       	in	r28, 0x3d	; 61
    248e:	de b7       	in	r29, 0x3e	; 62
    2490:	19 82       	std	Y+1, r1	; 0x01
    2492:	1a 82       	std	Y+2, r1	; 0x02
    2494:	20 91 e4 21 	lds	r18, 0x21E4	; 0x8021e4 <p_bno055>
    2498:	30 91 e5 21 	lds	r19, 0x21E5	; 0x8021e5 <p_bno055+0x1>
    249c:	23 2b       	or	r18, r19
    249e:	09 f4       	brne	.+2      	; 0x24a2 <bno055_set_power_mode+0x22>
    24a0:	42 c0       	rjmp	.+132    	; 0x2526 <bno055_set_power_mode+0xa6>
    24a2:	08 2f       	mov	r16, r24
    24a4:	ce 01       	movw	r24, r28
    24a6:	02 96       	adiw	r24, 0x02	; 2
    24a8:	2b de       	rcall	.-938    	; 0x2100 <bno055_get_operation_mode>
    24aa:	81 11       	cpse	r24, r1
    24ac:	33 c0       	rjmp	.+102    	; 0x2514 <bno055_set_power_mode+0x94>
    24ae:	8a 81       	ldd	r24, Y+2	; 0x02
    24b0:	88 23       	and	r24, r24
    24b2:	21 f0       	breq	.+8      	; 0x24bc <bno055_set_power_mode+0x3c>
    24b4:	80 e0       	ldi	r24, 0x00	; 0
    24b6:	5f de       	rcall	.-834    	; 0x2176 <bno055_set_operation_mode>
    24b8:	81 11       	cpse	r24, r1
    24ba:	2e c0       	rjmp	.+92     	; 0x2518 <bno055_set_power_mode+0x98>
    24bc:	a0 91 e4 21 	lds	r26, 0x21E4	; 0x8021e4 <p_bno055>
    24c0:	b0 91 e5 21 	lds	r27, 0x21E5	; 0x8021e5 <p_bno055+0x1>
    24c4:	1b 96       	adiw	r26, 0x0b	; 11
    24c6:	ed 91       	ld	r30, X+
    24c8:	fc 91       	ld	r31, X
    24ca:	1c 97       	sbiw	r26, 0x0c	; 12
    24cc:	21 e0       	ldi	r18, 0x01	; 1
    24ce:	ae 01       	movw	r20, r28
    24d0:	4f 5f       	subi	r20, 0xFF	; 255
    24d2:	5f 4f       	sbci	r21, 0xFF	; 255
    24d4:	6e e3       	ldi	r22, 0x3E	; 62
    24d6:	18 96       	adiw	r26, 0x08	; 8
    24d8:	8c 91       	ld	r24, X
    24da:	19 95       	eicall
    24dc:	18 2f       	mov	r17, r24
    24de:	81 11       	cpse	r24, r1
    24e0:	1c c0       	rjmp	.+56     	; 0x251a <bno055_set_power_mode+0x9a>
    24e2:	89 81       	ldd	r24, Y+1	; 0x01
    24e4:	98 2f       	mov	r25, r24
    24e6:	9c 7f       	andi	r25, 0xFC	; 252
    24e8:	80 2f       	mov	r24, r16
    24ea:	83 70       	andi	r24, 0x03	; 3
    24ec:	89 2b       	or	r24, r25
    24ee:	89 83       	std	Y+1, r24	; 0x01
    24f0:	a0 91 e4 21 	lds	r26, 0x21E4	; 0x8021e4 <p_bno055>
    24f4:	b0 91 e5 21 	lds	r27, 0x21E5	; 0x8021e5 <p_bno055+0x1>
    24f8:	19 96       	adiw	r26, 0x09	; 9
    24fa:	ed 91       	ld	r30, X+
    24fc:	fc 91       	ld	r31, X
    24fe:	1a 97       	sbiw	r26, 0x0a	; 10
    2500:	21 e0       	ldi	r18, 0x01	; 1
    2502:	ae 01       	movw	r20, r28
    2504:	4f 5f       	subi	r20, 0xFF	; 255
    2506:	5f 4f       	sbci	r21, 0xFF	; 255
    2508:	6e e3       	ldi	r22, 0x3E	; 62
    250a:	18 96       	adiw	r26, 0x08	; 8
    250c:	8c 91       	ld	r24, X
    250e:	19 95       	eicall
    2510:	18 2f       	mov	r17, r24
    2512:	03 c0       	rjmp	.+6      	; 0x251a <bno055_set_power_mode+0x9a>
    2514:	1f ef       	ldi	r17, 0xFF	; 255
    2516:	01 c0       	rjmp	.+2      	; 0x251a <bno055_set_power_mode+0x9a>
    2518:	1f ef       	ldi	r17, 0xFF	; 255
    251a:	8a 81       	ldd	r24, Y+2	; 0x02
    251c:	88 23       	and	r24, r24
    251e:	29 f0       	breq	.+10     	; 0x252a <bno055_set_power_mode+0xaa>
    2520:	2a de       	rcall	.-940    	; 0x2176 <bno055_set_operation_mode>
    2522:	81 0f       	add	r24, r17
    2524:	03 c0       	rjmp	.+6      	; 0x252c <bno055_set_power_mode+0xac>
    2526:	81 e8       	ldi	r24, 0x81	; 129
    2528:	01 c0       	rjmp	.+2      	; 0x252c <bno055_set_power_mode+0xac>
    252a:	81 2f       	mov	r24, r17
    252c:	0f 90       	pop	r0
    252e:	0f 90       	pop	r0
    2530:	df 91       	pop	r29
    2532:	cf 91       	pop	r28
    2534:	1f 91       	pop	r17
    2536:	0f 91       	pop	r16
    2538:	08 95       	ret

0000253a <__portable_avr_delay_cycles>:
    253a:	04 c0       	rjmp	.+8      	; 0x2544 <__portable_avr_delay_cycles+0xa>
    253c:	61 50       	subi	r22, 0x01	; 1
    253e:	71 09       	sbc	r23, r1
    2540:	81 09       	sbc	r24, r1
    2542:	91 09       	sbc	r25, r1
    2544:	61 15       	cp	r22, r1
    2546:	71 05       	cpc	r23, r1
    2548:	81 05       	cpc	r24, r1
    254a:	91 05       	cpc	r25, r1
    254c:	b9 f7       	brne	.-18     	; 0x253c <__portable_avr_delay_cycles+0x2>
    254e:	08 95       	ret

00002550 <BNO055_delay_msek>:
    2550:	af 92       	push	r10
    2552:	bf 92       	push	r11
    2554:	cf 92       	push	r12
    2556:	df 92       	push	r13
    2558:	ef 92       	push	r14
    255a:	ff 92       	push	r15
    255c:	0f 93       	push	r16
    255e:	1f 93       	push	r17
    2560:	cf 93       	push	r28
    2562:	df 93       	push	r29
    2564:	00 97       	sbiw	r24, 0x00	; 0
    2566:	d1 f1       	breq	.+116    	; 0x25dc <BNO055_delay_msek+0x8c>
    2568:	a1 2c       	mov	r10, r1
    256a:	0f 2e       	mov	r0, r31
    256c:	f8 e4       	ldi	r31, 0x48	; 72
    256e:	bf 2e       	mov	r11, r31
    2570:	f0 2d       	mov	r31, r0
    2572:	0f 2e       	mov	r0, r31
    2574:	f8 ee       	ldi	r31, 0xE8	; 232
    2576:	cf 2e       	mov	r12, r31
    2578:	f0 2d       	mov	r31, r0
    257a:	dd 24       	eor	r13, r13
    257c:	d3 94       	inc	r13
    257e:	e1 2c       	mov	r14, r1
    2580:	f1 2c       	mov	r15, r1
    2582:	00 e0       	ldi	r16, 0x00	; 0
    2584:	10 e0       	ldi	r17, 0x00	; 0
    2586:	28 2f       	mov	r18, r24
    2588:	39 2f       	mov	r19, r25
    258a:	40 e0       	ldi	r20, 0x00	; 0
    258c:	50 e0       	ldi	r21, 0x00	; 0
    258e:	60 e0       	ldi	r22, 0x00	; 0
    2590:	70 e0       	ldi	r23, 0x00	; 0
    2592:	80 e0       	ldi	r24, 0x00	; 0
    2594:	90 e0       	ldi	r25, 0x00	; 0
    2596:	0e 94 14 33 	call	0x6628	; 0x6628 <__muldi3>
    259a:	0f 2e       	mov	r0, r31
    259c:	f6 e0       	ldi	r31, 0x06	; 6
    259e:	af 2e       	mov	r10, r31
    25a0:	f0 2d       	mov	r31, r0
    25a2:	b1 2c       	mov	r11, r1
    25a4:	c1 2c       	mov	r12, r1
    25a6:	d1 2c       	mov	r13, r1
    25a8:	0e 94 67 33 	call	0x66ce	; 0x66ce <__udivdi3>
    25ac:	29 51       	subi	r18, 0x19	; 25
    25ae:	3c 4f       	sbci	r19, 0xFC	; 252
    25b0:	4f 4f       	sbci	r20, 0xFF	; 255
    25b2:	5f 4f       	sbci	r21, 0xFF	; 255
    25b4:	6f 4f       	sbci	r22, 0xFF	; 255
    25b6:	7f 4f       	sbci	r23, 0xFF	; 255
    25b8:	8f 4f       	sbci	r24, 0xFF	; 255
    25ba:	9f 4f       	sbci	r25, 0xFF	; 255
    25bc:	0e 94 ef 2f 	call	0x5fde	; 0x5fde <__floatundisf>
    25c0:	20 e0       	ldi	r18, 0x00	; 0
    25c2:	30 e0       	ldi	r19, 0x00	; 0
    25c4:	4a e7       	ldi	r20, 0x7A	; 122
    25c6:	54 e4       	ldi	r21, 0x44	; 68
    25c8:	0e 94 df 2e 	call	0x5dbe	; 0x5dbe <__divsf3>
    25cc:	0e 94 4c 2f 	call	0x5e98	; 0x5e98 <__fixunssfdi>
    25d0:	62 2f       	mov	r22, r18
    25d2:	73 2f       	mov	r23, r19
    25d4:	84 2f       	mov	r24, r20
    25d6:	95 2f       	mov	r25, r21
    25d8:	b0 df       	rcall	.-160    	; 0x253a <__portable_avr_delay_cycles>
    25da:	05 c0       	rjmp	.+10     	; 0x25e6 <BNO055_delay_msek+0x96>
    25dc:	66 e0       	ldi	r22, 0x06	; 6
    25de:	70 e0       	ldi	r23, 0x00	; 0
    25e0:	80 e0       	ldi	r24, 0x00	; 0
    25e2:	90 e0       	ldi	r25, 0x00	; 0
    25e4:	aa df       	rcall	.-172    	; 0x253a <__portable_avr_delay_cycles>
    25e6:	df 91       	pop	r29
    25e8:	cf 91       	pop	r28
    25ea:	1f 91       	pop	r17
    25ec:	0f 91       	pop	r16
    25ee:	ff 90       	pop	r15
    25f0:	ef 90       	pop	r14
    25f2:	df 90       	pop	r13
    25f4:	cf 90       	pop	r12
    25f6:	bf 90       	pop	r11
    25f8:	af 90       	pop	r10
    25fa:	08 95       	ret

000025fc <BNO055_I2C_bus_write>:
    25fc:	cf 92       	push	r12
    25fe:	df 92       	push	r13
    2600:	ff 92       	push	r15
    2602:	0f 93       	push	r16
    2604:	1f 93       	push	r17
    2606:	cf 93       	push	r28
    2608:	df 93       	push	r29
    260a:	cd b7       	in	r28, 0x3d	; 61
    260c:	de b7       	in	r29, 0x3e	; 62
    260e:	cb 54       	subi	r28, 0x4B	; 75
    2610:	d1 09       	sbc	r29, r1
    2612:	cd bf       	out	0x3d, r28	; 61
    2614:	de bf       	out	0x3e, r29	; 62
    2616:	f8 2e       	mov	r15, r24
    2618:	06 2f       	mov	r16, r22
    261a:	6a 01       	movw	r12, r20
    261c:	12 2f       	mov	r17, r18
    261e:	22 30       	cpi	r18, 0x02	; 2
    2620:	40 f0       	brcs	.+16     	; 0x2632 <BNO055_I2C_bus_write+0x36>
    2622:	86 e5       	ldi	r24, 0x56	; 86
    2624:	90 e2       	ldi	r25, 0x20	; 32
    2626:	9f 93       	push	r25
    2628:	8f 93       	push	r24
    262a:	0e 94 4d 34 	call	0x689a	; 0x689a <printf>
    262e:	0f 90       	pop	r0
    2630:	0f 90       	pop	r0
    2632:	19 82       	std	Y+1, r1	; 0x01
    2634:	f6 01       	movw	r30, r12
    2636:	80 81       	ld	r24, Z
    2638:	8a 83       	std	Y+2, r24	; 0x02
    263a:	01 50       	subi	r16, 0x01	; 1
    263c:	23 96       	adiw	r28, 0x03	; 3
    263e:	0f af       	std	Y+63, r16	; 0x3f
    2640:	23 97       	sbiw	r28, 0x03	; 3
    2642:	81 e0       	ldi	r24, 0x01	; 1
    2644:	90 e0       	ldi	r25, 0x00	; 0
    2646:	27 96       	adiw	r28, 0x07	; 7
    2648:	8e af       	std	Y+62, r24	; 0x3e
    264a:	9f af       	std	Y+63, r25	; 0x3f
    264c:	27 97       	sbiw	r28, 0x07	; 7
    264e:	22 96       	adiw	r28, 0x02	; 2
    2650:	ff ae       	std	Y+63, r15	; 0x3f
    2652:	22 97       	sbiw	r28, 0x02	; 2
    2654:	ce 01       	movw	r24, r28
    2656:	01 96       	adiw	r24, 0x01	; 1
    2658:	29 96       	adiw	r28, 0x09	; 9
    265a:	8e af       	std	Y+62, r24	; 0x3e
    265c:	9f af       	std	Y+63, r25	; 0x3f
    265e:	29 97       	sbiw	r28, 0x09	; 9
    2660:	1f 5f       	subi	r17, 0xFF	; 255
    2662:	21 2f       	mov	r18, r17
    2664:	30 e0       	ldi	r19, 0x00	; 0
    2666:	2b 96       	adiw	r28, 0x0b	; 11
    2668:	2e af       	std	Y+62, r18	; 0x3e
    266a:	3f af       	std	Y+63, r19	; 0x3f
    266c:	2b 97       	sbiw	r28, 0x0b	; 11
    266e:	2c 96       	adiw	r28, 0x0c	; 12
    2670:	1f ae       	std	Y+63, r1	; 0x3f
    2672:	2c 97       	sbiw	r28, 0x0c	; 12
    2674:	40 e0       	ldi	r20, 0x00	; 0
    2676:	be 01       	movw	r22, r28
    2678:	6f 5b       	subi	r22, 0xBF	; 191
    267a:	7f 4f       	sbci	r23, 0xFF	; 255
    267c:	80 e8       	ldi	r24, 0x80	; 128
    267e:	94 e0       	ldi	r25, 0x04	; 4
    2680:	0e 94 97 0a 	call	0x152e	; 0x152e <twi_master_transfer>
    2684:	c5 5b       	subi	r28, 0xB5	; 181
    2686:	df 4f       	sbci	r29, 0xFF	; 255
    2688:	cd bf       	out	0x3d, r28	; 61
    268a:	de bf       	out	0x3e, r29	; 62
    268c:	df 91       	pop	r29
    268e:	cf 91       	pop	r28
    2690:	1f 91       	pop	r17
    2692:	0f 91       	pop	r16
    2694:	ff 90       	pop	r15
    2696:	df 90       	pop	r13
    2698:	cf 90       	pop	r12
    269a:	08 95       	ret

0000269c <BNO055_I2C_bus_read>:
    269c:	af 92       	push	r10
    269e:	bf 92       	push	r11
    26a0:	df 92       	push	r13
    26a2:	ef 92       	push	r14
    26a4:	ff 92       	push	r15
    26a6:	0f 93       	push	r16
    26a8:	1f 93       	push	r17
    26aa:	cf 93       	push	r28
    26ac:	df 93       	push	r29
    26ae:	cd b7       	in	r28, 0x3d	; 61
    26b0:	de b7       	in	r29, 0x3e	; 62
    26b2:	cb 54       	subi	r28, 0x4B	; 75
    26b4:	d1 09       	sbc	r29, r1
    26b6:	cd bf       	out	0x3d, r28	; 61
    26b8:	de bf       	out	0x3e, r29	; 62
    26ba:	5a 01       	movw	r10, r20
    26bc:	ae 01       	movw	r20, r28
    26be:	4f 5f       	subi	r20, 0xFF	; 255
    26c0:	5f 4f       	sbci	r21, 0xFF	; 255
    26c2:	7a 01       	movw	r14, r20
    26c4:	90 e4       	ldi	r25, 0x40	; 64
    26c6:	fa 01       	movw	r30, r20
    26c8:	11 92       	st	Z+, r1
    26ca:	9a 95       	dec	r25
    26cc:	e9 f7       	brne	.-6      	; 0x26c8 <BNO055_I2C_bus_read+0x2c>
    26ce:	23 96       	adiw	r28, 0x03	; 3
    26d0:	6f af       	std	Y+63, r22	; 0x3f
    26d2:	23 97       	sbiw	r28, 0x03	; 3
    26d4:	41 e0       	ldi	r20, 0x01	; 1
    26d6:	50 e0       	ldi	r21, 0x00	; 0
    26d8:	27 96       	adiw	r28, 0x07	; 7
    26da:	4e af       	std	Y+62, r20	; 0x3e
    26dc:	5f af       	std	Y+63, r21	; 0x3f
    26de:	27 97       	sbiw	r28, 0x07	; 7
    26e0:	22 96       	adiw	r28, 0x02	; 2
    26e2:	8f af       	std	Y+63, r24	; 0x3f
    26e4:	22 97       	sbiw	r28, 0x02	; 2
    26e6:	29 96       	adiw	r28, 0x09	; 9
    26e8:	ee ae       	std	Y+62, r14	; 0x3e
    26ea:	ff ae       	std	Y+63, r15	; 0x3f
    26ec:	29 97       	sbiw	r28, 0x09	; 9
    26ee:	02 2f       	mov	r16, r18
    26f0:	10 e0       	ldi	r17, 0x00	; 0
    26f2:	2b 96       	adiw	r28, 0x0b	; 11
    26f4:	0e af       	std	Y+62, r16	; 0x3e
    26f6:	1f af       	std	Y+63, r17	; 0x3f
    26f8:	2b 97       	sbiw	r28, 0x0b	; 11
    26fa:	2c 96       	adiw	r28, 0x0c	; 12
    26fc:	1f ae       	std	Y+63, r1	; 0x3f
    26fe:	2c 97       	sbiw	r28, 0x0c	; 12
    2700:	be 01       	movw	r22, r28
    2702:	6f 5b       	subi	r22, 0xBF	; 191
    2704:	7f 4f       	sbci	r23, 0xFF	; 255
    2706:	80 e8       	ldi	r24, 0x80	; 128
    2708:	94 e0       	ldi	r25, 0x04	; 4
    270a:	0e 94 97 0a 	call	0x152e	; 0x152e <twi_master_transfer>
    270e:	d8 2e       	mov	r13, r24
    2710:	a8 01       	movw	r20, r16
    2712:	b7 01       	movw	r22, r14
    2714:	c5 01       	movw	r24, r10
    2716:	0e 94 fa 33 	call	0x67f4	; 0x67f4 <memcpy>
    271a:	8d 2d       	mov	r24, r13
    271c:	c5 5b       	subi	r28, 0xB5	; 181
    271e:	df 4f       	sbci	r29, 0xFF	; 255
    2720:	cd bf       	out	0x3d, r28	; 61
    2722:	de bf       	out	0x3e, r29	; 62
    2724:	df 91       	pop	r29
    2726:	cf 91       	pop	r28
    2728:	1f 91       	pop	r17
    272a:	0f 91       	pop	r16
    272c:	ff 90       	pop	r15
    272e:	ef 90       	pop	r14
    2730:	df 90       	pop	r13
    2732:	bf 90       	pop	r11
    2734:	af 90       	pop	r10
    2736:	08 95       	ret

00002738 <imu_init>:
    2738:	0f 93       	push	r16
    273a:	1f 93       	push	r17
    273c:	cf 93       	push	r28
    273e:	df 93       	push	r29
    2740:	cd b7       	in	r28, 0x3d	; 61
    2742:	de b7       	in	r29, 0x3e	; 62
    2744:	2a 97       	sbiw	r28, 0x0a	; 10
    2746:	cd bf       	out	0x3d, r28	; 61
    2748:	de bf       	out	0x3e, r29	; 62
    274a:	8e 01       	movw	r16, r28
    274c:	0f 5f       	subi	r16, 0xFF	; 255
    274e:	1f 4f       	sbci	r17, 0xFF	; 255
    2750:	89 e0       	ldi	r24, 0x09	; 9
    2752:	f8 01       	movw	r30, r16
    2754:	11 92       	st	Z+, r1
    2756:	8a 95       	dec	r24
    2758:	e9 f7       	brne	.-6      	; 0x2754 <imu_init+0x1c>
    275a:	80 e8       	ldi	r24, 0x80	; 128
    275c:	9a e1       	ldi	r25, 0x1A	; 26
    275e:	a6 e0       	ldi	r26, 0x06	; 6
    2760:	b0 e0       	ldi	r27, 0x00	; 0
    2762:	89 83       	std	Y+1, r24	; 0x01
    2764:	9a 83       	std	Y+2, r25	; 0x02
    2766:	ab 83       	std	Y+3, r26	; 0x03
    2768:	bc 83       	std	Y+4, r27	; 0x04
    276a:	83 e2       	ldi	r24, 0x23	; 35
    276c:	90 e0       	ldi	r25, 0x00	; 0
    276e:	a0 e0       	ldi	r26, 0x00	; 0
    2770:	b0 e0       	ldi	r27, 0x00	; 0
    2772:	8d 83       	std	Y+5, r24	; 0x05
    2774:	9e 83       	std	Y+6, r25	; 0x06
    2776:	af 83       	std	Y+7, r26	; 0x07
    2778:	b8 87       	std	Y+8, r27	; 0x08
    277a:	60 e4       	ldi	r22, 0x40	; 64
    277c:	83 e0       	ldi	r24, 0x03	; 3
    277e:	9b d3       	rcall	.+1846   	; 0x2eb6 <sysclk_enable_module>
    2780:	b8 01       	movw	r22, r16
    2782:	80 e8       	ldi	r24, 0x80	; 128
    2784:	94 e0       	ldi	r25, 0x04	; 4
    2786:	0e 94 82 0a 	call	0x1504	; 0x1504 <twi_master_init>
    278a:	e0 e8       	ldi	r30, 0x80	; 128
    278c:	f4 e0       	ldi	r31, 0x04	; 4
    278e:	81 81       	ldd	r24, Z+1	; 0x01
    2790:	88 60       	ori	r24, 0x08	; 8
    2792:	81 83       	std	Z+1, r24	; 0x01
    2794:	e1 e5       	ldi	r30, 0x51	; 81
    2796:	f2 e2       	ldi	r31, 0x22	; 34
    2798:	8e ef       	ldi	r24, 0xFE	; 254
    279a:	92 e1       	ldi	r25, 0x12	; 18
    279c:	81 87       	std	Z+9, r24	; 0x09
    279e:	92 87       	std	Z+10, r25	; 0x0a
    27a0:	8e e4       	ldi	r24, 0x4E	; 78
    27a2:	93 e1       	ldi	r25, 0x13	; 19
    27a4:	83 87       	std	Z+11, r24	; 0x0b
    27a6:	94 87       	std	Z+12, r25	; 0x0c
    27a8:	88 ea       	ldi	r24, 0xA8	; 168
    27aa:	92 e1       	ldi	r25, 0x12	; 18
    27ac:	85 87       	std	Z+13, r24	; 0x0d
    27ae:	96 87       	std	Z+14, r25	; 0x0e
    27b0:	88 e2       	ldi	r24, 0x28	; 40
    27b2:	80 87       	std	Z+8, r24	; 0x08
    27b4:	cf 01       	movw	r24, r30
    27b6:	41 d9       	rcall	.-3454   	; 0x1a3a <bno055_init>
    27b8:	88 23       	and	r24, r24
    27ba:	81 f0       	breq	.+32     	; 0x27dc <imu_init+0xa4>
    27bc:	28 2f       	mov	r18, r24
    27be:	08 2e       	mov	r0, r24
    27c0:	00 0c       	add	r0, r0
    27c2:	33 0b       	sbc	r19, r19
    27c4:	3f 93       	push	r19
    27c6:	8f 93       	push	r24
    27c8:	8c ed       	ldi	r24, 0xDC	; 220
    27ca:	90 e2       	ldi	r25, 0x20	; 32
    27cc:	9f 93       	push	r25
    27ce:	8f 93       	push	r24
    27d0:	0e 94 4d 34 	call	0x689a	; 0x689a <printf>
    27d4:	0f 90       	pop	r0
    27d6:	0f 90       	pop	r0
    27d8:	0f 90       	pop	r0
    27da:	0f 90       	pop	r0
    27dc:	80 e0       	ldi	r24, 0x00	; 0
    27de:	50 de       	rcall	.-864    	; 0x2480 <bno055_set_power_mode>
    27e0:	8c e0       	ldi	r24, 0x0C	; 12
    27e2:	c9 dc       	rcall	.-1646   	; 0x2176 <bno055_set_operation_mode>
    27e4:	18 2f       	mov	r17, r24
    27e6:	1a 86       	std	Y+10, r1	; 0x0a
    27e8:	ce 01       	movw	r24, r28
    27ea:	0a 96       	adiw	r24, 0x0a	; 10
    27ec:	89 dc       	rcall	.-1774   	; 0x2100 <bno055_get_operation_mode>
    27ee:	8a 85       	ldd	r24, Y+10	; 0x0a
    27f0:	8c 30       	cpi	r24, 0x0C	; 12
    27f2:	99 f0       	breq	.+38     	; 0x281a <imu_init+0xe2>
    27f4:	21 2f       	mov	r18, r17
    27f6:	01 2e       	mov	r0, r17
    27f8:	00 0c       	add	r0, r0
    27fa:	33 0b       	sbc	r19, r19
    27fc:	3f 93       	push	r19
    27fe:	1f 93       	push	r17
    2800:	1f 92       	push	r1
    2802:	9c e0       	ldi	r25, 0x0C	; 12
    2804:	9f 93       	push	r25
    2806:	1f 92       	push	r1
    2808:	8f 93       	push	r24
    280a:	80 e0       	ldi	r24, 0x00	; 0
    280c:	91 e2       	ldi	r25, 0x21	; 33
    280e:	9f 93       	push	r25
    2810:	8f 93       	push	r24
    2812:	0e 94 4d 34 	call	0x689a	; 0x689a <printf>
    2816:	cd bf       	out	0x3d, r28	; 61
    2818:	de bf       	out	0x3e, r29	; 62
    281a:	2a 96       	adiw	r28, 0x0a	; 10
    281c:	cd bf       	out	0x3d, r28	; 61
    281e:	de bf       	out	0x3e, r29	; 62
    2820:	df 91       	pop	r29
    2822:	cf 91       	pop	r28
    2824:	1f 91       	pop	r17
    2826:	0f 91       	pop	r16
    2828:	08 95       	ret

0000282a <imu_update>:
    282a:	80 e6       	ldi	r24, 0x60	; 96
    282c:	92 e2       	ldi	r25, 0x22	; 34
    282e:	d2 da       	rcall	.-2652   	; 0x1dd4 <bno055_convert_double_linear_accel_xyz_msq>
    2830:	8c e6       	ldi	r24, 0x6C	; 108
    2832:	92 e2       	ldi	r25, 0x22	; 34
    2834:	bb dd       	rcall	.-1162   	; 0x23ac <bno055_convert_double_euler_hpr_deg>
    2836:	89 e7       	ldi	r24, 0x79	; 121
    2838:	92 e2       	ldi	r25, 0x22	; 34
    283a:	63 db       	rcall	.-2362   	; 0x1f02 <bno055_get_accel_calib_stat>
    283c:	8b e7       	ldi	r24, 0x7B	; 123
    283e:	92 e2       	ldi	r25, 0x22	; 34
    2840:	a0 db       	rcall	.-2240   	; 0x1f82 <bno055_get_gyro_calib_stat>
    2842:	88 e7       	ldi	r24, 0x78	; 120
    2844:	92 e2       	ldi	r25, 0x22	; 34
    2846:	22 db       	rcall	.-2492   	; 0x1e8c <bno055_get_mag_calib_stat>
    2848:	8a e7       	ldi	r24, 0x7A	; 122
    284a:	92 e2       	ldi	r25, 0x22	; 34
    284c:	de cb       	rjmp	.-2116   	; 0x200a <bno055_get_sys_calib_stat>
    284e:	08 95       	ret

00002850 <imu_roll>:
    2850:	60 91 70 22 	lds	r22, 0x2270	; 0x802270 <bno055_euler+0x4>
    2854:	70 91 71 22 	lds	r23, 0x2271	; 0x802271 <bno055_euler+0x5>
    2858:	80 91 72 22 	lds	r24, 0x2272	; 0x802272 <bno055_euler+0x6>
    285c:	90 91 73 22 	lds	r25, 0x2273	; 0x802273 <bno055_euler+0x7>
    2860:	08 95       	ret

00002862 <imu_pitch>:
    2862:	60 91 74 22 	lds	r22, 0x2274	; 0x802274 <bno055_euler+0x8>
    2866:	70 91 75 22 	lds	r23, 0x2275	; 0x802275 <bno055_euler+0x9>
    286a:	80 91 76 22 	lds	r24, 0x2276	; 0x802276 <bno055_euler+0xa>
    286e:	90 91 77 22 	lds	r25, 0x2277	; 0x802277 <bno055_euler+0xb>
    2872:	08 95       	ret

00002874 <imu_heading>:
    2874:	60 91 6c 22 	lds	r22, 0x226C	; 0x80226c <bno055_euler>
    2878:	70 91 6d 22 	lds	r23, 0x226D	; 0x80226d <bno055_euler+0x1>
    287c:	80 91 6e 22 	lds	r24, 0x226E	; 0x80226e <bno055_euler+0x2>
    2880:	90 91 6f 22 	lds	r25, 0x226F	; 0x80226f <bno055_euler+0x3>
    2884:	08 95       	ret

00002886 <cam_switch>:
    2886:	e0 e0       	ldi	r30, 0x00	; 0
    2888:	f6 e0       	ldi	r31, 0x06	; 6
    288a:	94 81       	ldd	r25, Z+4	; 0x04
    288c:	88 e0       	ldi	r24, 0x08	; 8
    288e:	89 27       	eor	r24, r25
    2890:	84 83       	std	Z+4, r24	; 0x04
    2892:	08 95       	ret

00002894 <cam_init>:
    2894:	e0 e0       	ldi	r30, 0x00	; 0
    2896:	f6 e0       	ldi	r31, 0x06	; 6
    2898:	80 81       	ld	r24, Z
    289a:	88 60       	ori	r24, 0x08	; 8
    289c:	80 83       	st	Z, r24
    289e:	f3 cf       	rjmp	.-26     	; 0x2886 <cam_switch>
    28a0:	08 95       	ret

000028a2 <thermistor_init>:
    28a2:	ff 92       	push	r15
    28a4:	0f 93       	push	r16
    28a6:	1f 93       	push	r17
    28a8:	cf 93       	push	r28
    28aa:	df 93       	push	r29
    28ac:	62 e0       	ldi	r22, 0x02	; 2
    28ae:	81 e0       	ldi	r24, 0x01	; 1
    28b0:	02 d3       	rcall	.+1540   	; 0x2eb6 <sysclk_enable_module>
    28b2:	c0 e0       	ldi	r28, 0x00	; 0
    28b4:	d2 e0       	ldi	r29, 0x02	; 2
    28b6:	ff 24       	eor	r15, r15
    28b8:	f3 94       	inc	r15
    28ba:	f8 82       	st	Y, r15
    28bc:	19 82       	std	Y+1, r1	; 0x01
    28be:	80 e1       	ldi	r24, 0x10	; 16
    28c0:	8a 83       	std	Y+2, r24	; 0x02
    28c2:	85 e0       	ldi	r24, 0x05	; 5
    28c4:	8c 83       	std	Y+4, r24	; 0x04
    28c6:	61 e2       	ldi	r22, 0x21	; 33
    28c8:	70 e0       	ldi	r23, 0x00	; 0
    28ca:	82 e0       	ldi	r24, 0x02	; 2
    28cc:	1f d3       	rcall	.+1598   	; 0x2f0c <nvm_read_byte>
    28ce:	08 2f       	mov	r16, r24
    28d0:	10 e0       	ldi	r17, 0x00	; 0
    28d2:	10 2f       	mov	r17, r16
    28d4:	00 27       	eor	r16, r16
    28d6:	60 e2       	ldi	r22, 0x20	; 32
    28d8:	70 e0       	ldi	r23, 0x00	; 0
    28da:	82 e0       	ldi	r24, 0x02	; 2
    28dc:	17 d3       	rcall	.+1582   	; 0x2f0c <nvm_read_byte>
    28de:	08 2b       	or	r16, r24
    28e0:	0c 87       	std	Y+12, r16	; 0x0c
    28e2:	1d 87       	std	Y+13, r17	; 0x0d
    28e4:	f8 a2       	std	Y+32, r15	; 0x20
    28e6:	80 e3       	ldi	r24, 0x30	; 48
    28e8:	89 a3       	std	Y+33, r24	; 0x21
    28ea:	df 91       	pop	r29
    28ec:	cf 91       	pop	r28
    28ee:	1f 91       	pop	r17
    28f0:	0f 91       	pop	r16
    28f2:	ff 90       	pop	r15
    28f4:	08 95       	ret

000028f6 <thermistor_read>:
    28f6:	e0 e0       	ldi	r30, 0x00	; 0
    28f8:	f2 e0       	ldi	r31, 0x02	; 2
    28fa:	80 a1       	ldd	r24, Z+32	; 0x20
    28fc:	80 68       	ori	r24, 0x80	; 128
    28fe:	80 a3       	std	Z+32, r24	; 0x20
    2900:	83 a1       	ldd	r24, Z+35	; 0x23
    2902:	88 23       	and	r24, r24
    2904:	e9 f3       	breq	.-6      	; 0x2900 <thermistor_read+0xa>
    2906:	80 91 24 02 	lds	r24, 0x0224	; 0x800224 <__TEXT_REGION_LENGTH__+0x700224>
    290a:	90 91 25 02 	lds	r25, 0x0225	; 0x800225 <__TEXT_REGION_LENGTH__+0x700225>
    290e:	08 95       	ret

00002910 <gps_uart_init>:
    2910:	cf 93       	push	r28
    2912:	df 93       	push	r29
    2914:	cd b7       	in	r28, 0x3d	; 61
    2916:	de b7       	in	r29, 0x3e	; 62
    2918:	27 97       	sbiw	r28, 0x07	; 7
    291a:	cd bf       	out	0x3d, r28	; 61
    291c:	de bf       	out	0x3e, r29	; 62
    291e:	60 e2       	ldi	r22, 0x20	; 32
    2920:	84 e0       	ldi	r24, 0x04	; 4
    2922:	c9 d2       	rcall	.+1426   	; 0x2eb6 <sysclk_enable_module>
    2924:	e0 e6       	ldi	r30, 0x60	; 96
    2926:	f6 e0       	ldi	r31, 0x06	; 6
    2928:	80 81       	ld	r24, Z
    292a:	80 68       	ori	r24, 0x80	; 128
    292c:	80 83       	st	Z, r24
    292e:	e6 e0       	ldi	r30, 0x06	; 6
    2930:	f0 e2       	ldi	r31, 0x20	; 32
    2932:	84 81       	ldd	r24, Z+4	; 0x04
    2934:	8d 83       	std	Y+5, r24	; 0x05
    2936:	85 81       	ldd	r24, Z+5	; 0x05
    2938:	8e 83       	std	Y+6, r24	; 0x06
    293a:	86 81       	ldd	r24, Z+6	; 0x06
    293c:	8f 83       	std	Y+7, r24	; 0x07
    293e:	80 81       	ld	r24, Z
    2940:	91 81       	ldd	r25, Z+1	; 0x01
    2942:	a2 81       	ldd	r26, Z+2	; 0x02
    2944:	b3 81       	ldd	r27, Z+3	; 0x03
    2946:	89 83       	std	Y+1, r24	; 0x01
    2948:	9a 83       	std	Y+2, r25	; 0x02
    294a:	ab 83       	std	Y+3, r26	; 0x03
    294c:	bc 83       	std	Y+4, r27	; 0x04
    294e:	60 e2       	ldi	r22, 0x20	; 32
    2950:	84 e0       	ldi	r24, 0x04	; 4
    2952:	b1 d2       	rcall	.+1378   	; 0x2eb6 <sysclk_enable_module>
    2954:	be 01       	movw	r22, r28
    2956:	6f 5f       	subi	r22, 0xFF	; 255
    2958:	7f 4f       	sbci	r23, 0xFF	; 255
    295a:	80 eb       	ldi	r24, 0xB0	; 176
    295c:	99 e0       	ldi	r25, 0x09	; 9
    295e:	0e 94 1c 0c 	call	0x1838	; 0x1838 <usart_init_rs232>
    2962:	27 96       	adiw	r28, 0x07	; 7
    2964:	cd bf       	out	0x3d, r28	; 61
    2966:	de bf       	out	0x3e, r29	; 62
    2968:	df 91       	pop	r29
    296a:	cf 91       	pop	r28
    296c:	08 95       	ret

0000296e <__portable_avr_delay_cycles>:
    296e:	04 c0       	rjmp	.+8      	; 0x2978 <__portable_avr_delay_cycles+0xa>
    2970:	61 50       	subi	r22, 0x01	; 1
    2972:	71 09       	sbc	r23, r1
    2974:	81 09       	sbc	r24, r1
    2976:	91 09       	sbc	r25, r1
    2978:	61 15       	cp	r22, r1
    297a:	71 05       	cpc	r23, r1
    297c:	81 05       	cpc	r24, r1
    297e:	91 05       	cpc	r25, r1
    2980:	b9 f7       	brne	.-18     	; 0x2970 <__portable_avr_delay_cycles+0x2>
    2982:	08 95       	ret

00002984 <flip_ms5607>:
    2984:	e0 e4       	ldi	r30, 0x40	; 64
    2986:	f6 e0       	ldi	r31, 0x06	; 6
    2988:	94 81       	ldd	r25, Z+4	; 0x04
    298a:	80 e1       	ldi	r24, 0x10	; 16
    298c:	89 27       	eor	r24, r25
    298e:	84 83       	std	Z+4, r24	; 0x04
    2990:	08 95       	ret

00002992 <ms5607_init>:
    2992:	e0 e4       	ldi	r30, 0x40	; 64
    2994:	f6 e0       	ldi	r31, 0x06	; 6
    2996:	84 81       	ldd	r24, Z+4	; 0x04
    2998:	80 61       	ori	r24, 0x10	; 16
    299a:	84 83       	std	Z+4, r24	; 0x04
    299c:	f3 df       	rcall	.-26     	; 0x2984 <flip_ms5607>
    299e:	8e e1       	ldi	r24, 0x1E	; 30
    29a0:	b9 d0       	rcall	.+370    	; 0x2b14 <spi_write>
    29a2:	60 e8       	ldi	r22, 0x80	; 128
    29a4:	7e e3       	ldi	r23, 0x3E	; 62
    29a6:	80 e0       	ldi	r24, 0x00	; 0
    29a8:	90 e0       	ldi	r25, 0x00	; 0
    29aa:	e1 df       	rcall	.-62     	; 0x296e <__portable_avr_delay_cycles>
    29ac:	eb df       	rcall	.-42     	; 0x2984 <flip_ms5607>
    29ae:	6b ea       	ldi	r22, 0xAB	; 171
    29b0:	79 e2       	ldi	r23, 0x29	; 41
    29b2:	80 e0       	ldi	r24, 0x00	; 0
    29b4:	90 e0       	ldi	r25, 0x00	; 0
    29b6:	db cf       	rjmp	.-74     	; 0x296e <__portable_avr_delay_cycles>
    29b8:	08 95       	ret

000029ba <ms5607_read>:
    29ba:	cf 93       	push	r28
    29bc:	df 93       	push	r29
    29be:	c8 2f       	mov	r28, r24
    29c0:	e1 df       	rcall	.-62     	; 0x2984 <flip_ms5607>
    29c2:	8c 2f       	mov	r24, r28
    29c4:	a7 d0       	rcall	.+334    	; 0x2b14 <spi_write>
    29c6:	97 d0       	rcall	.+302    	; 0x2af6 <spi_read>
    29c8:	c8 2f       	mov	r28, r24
    29ca:	d0 e0       	ldi	r29, 0x00	; 0
    29cc:	dc 2f       	mov	r29, r28
    29ce:	cc 27       	eor	r28, r28
    29d0:	92 d0       	rcall	.+292    	; 0x2af6 <spi_read>
    29d2:	c8 2b       	or	r28, r24
    29d4:	d7 df       	rcall	.-82     	; 0x2984 <flip_ms5607>
    29d6:	ce 01       	movw	r24, r28
    29d8:	df 91       	pop	r29
    29da:	cf 91       	pop	r28
    29dc:	08 95       	ret

000029de <ms5607_convert_d1>:
    29de:	cf 93       	push	r28
    29e0:	df 93       	push	r29
    29e2:	00 d0       	rcall	.+0      	; 0x29e4 <ms5607_convert_d1+0x6>
    29e4:	1f 92       	push	r1
    29e6:	cd b7       	in	r28, 0x3d	; 61
    29e8:	de b7       	in	r29, 0x3e	; 62
    29ea:	19 82       	std	Y+1, r1	; 0x01
    29ec:	1a 82       	std	Y+2, r1	; 0x02
    29ee:	1b 82       	std	Y+3, r1	; 0x03
    29f0:	1c 82       	std	Y+4, r1	; 0x04
    29f2:	c8 df       	rcall	.-112    	; 0x2984 <flip_ms5607>
    29f4:	88 e4       	ldi	r24, 0x48	; 72
    29f6:	8e d0       	rcall	.+284    	; 0x2b14 <spi_write>
    29f8:	66 e5       	ldi	r22, 0x56	; 86
    29fa:	70 ed       	ldi	r23, 0xD0	; 208
    29fc:	80 e0       	ldi	r24, 0x00	; 0
    29fe:	90 e0       	ldi	r25, 0x00	; 0
    2a00:	b6 df       	rcall	.-148    	; 0x296e <__portable_avr_delay_cycles>
    2a02:	c0 df       	rcall	.-128    	; 0x2984 <flip_ms5607>
    2a04:	bf df       	rcall	.-130    	; 0x2984 <flip_ms5607>
    2a06:	80 e0       	ldi	r24, 0x00	; 0
    2a08:	85 d0       	rcall	.+266    	; 0x2b14 <spi_write>
    2a0a:	75 d0       	rcall	.+234    	; 0x2af6 <spi_read>
    2a0c:	90 e0       	ldi	r25, 0x00	; 0
    2a0e:	a0 e0       	ldi	r26, 0x00	; 0
    2a10:	b0 e0       	ldi	r27, 0x00	; 0
    2a12:	dc 01       	movw	r26, r24
    2a14:	99 27       	eor	r25, r25
    2a16:	88 27       	eor	r24, r24
    2a18:	89 83       	std	Y+1, r24	; 0x01
    2a1a:	9a 83       	std	Y+2, r25	; 0x02
    2a1c:	ab 83       	std	Y+3, r26	; 0x03
    2a1e:	bc 83       	std	Y+4, r27	; 0x04
    2a20:	6a d0       	rcall	.+212    	; 0x2af6 <spi_read>
    2a22:	49 81       	ldd	r20, Y+1	; 0x01
    2a24:	5a 81       	ldd	r21, Y+2	; 0x02
    2a26:	6b 81       	ldd	r22, Y+3	; 0x03
    2a28:	7c 81       	ldd	r23, Y+4	; 0x04
    2a2a:	58 2b       	or	r21, r24
    2a2c:	49 83       	std	Y+1, r20	; 0x01
    2a2e:	5a 83       	std	Y+2, r21	; 0x02
    2a30:	6b 83       	std	Y+3, r22	; 0x03
    2a32:	7c 83       	std	Y+4, r23	; 0x04
    2a34:	60 d0       	rcall	.+192    	; 0x2af6 <spi_read>
    2a36:	49 81       	ldd	r20, Y+1	; 0x01
    2a38:	5a 81       	ldd	r21, Y+2	; 0x02
    2a3a:	6b 81       	ldd	r22, Y+3	; 0x03
    2a3c:	7c 81       	ldd	r23, Y+4	; 0x04
    2a3e:	48 2b       	or	r20, r24
    2a40:	49 83       	std	Y+1, r20	; 0x01
    2a42:	5a 83       	std	Y+2, r21	; 0x02
    2a44:	6b 83       	std	Y+3, r22	; 0x03
    2a46:	7c 83       	std	Y+4, r23	; 0x04
    2a48:	9d df       	rcall	.-198    	; 0x2984 <flip_ms5607>
    2a4a:	69 81       	ldd	r22, Y+1	; 0x01
    2a4c:	7a 81       	ldd	r23, Y+2	; 0x02
    2a4e:	8b 81       	ldd	r24, Y+3	; 0x03
    2a50:	9c 81       	ldd	r25, Y+4	; 0x04
    2a52:	24 96       	adiw	r28, 0x04	; 4
    2a54:	cd bf       	out	0x3d, r28	; 61
    2a56:	de bf       	out	0x3e, r29	; 62
    2a58:	df 91       	pop	r29
    2a5a:	cf 91       	pop	r28
    2a5c:	08 95       	ret

00002a5e <ms5607_convert_d2>:
    2a5e:	cf 93       	push	r28
    2a60:	df 93       	push	r29
    2a62:	00 d0       	rcall	.+0      	; 0x2a64 <ms5607_convert_d2+0x6>
    2a64:	1f 92       	push	r1
    2a66:	cd b7       	in	r28, 0x3d	; 61
    2a68:	de b7       	in	r29, 0x3e	; 62
    2a6a:	19 82       	std	Y+1, r1	; 0x01
    2a6c:	1a 82       	std	Y+2, r1	; 0x02
    2a6e:	1b 82       	std	Y+3, r1	; 0x03
    2a70:	1c 82       	std	Y+4, r1	; 0x04
    2a72:	88 df       	rcall	.-240    	; 0x2984 <flip_ms5607>
    2a74:	88 e5       	ldi	r24, 0x58	; 88
    2a76:	4e d0       	rcall	.+156    	; 0x2b14 <spi_write>
    2a78:	66 e5       	ldi	r22, 0x56	; 86
    2a7a:	70 ed       	ldi	r23, 0xD0	; 208
    2a7c:	80 e0       	ldi	r24, 0x00	; 0
    2a7e:	90 e0       	ldi	r25, 0x00	; 0
    2a80:	76 df       	rcall	.-276    	; 0x296e <__portable_avr_delay_cycles>
    2a82:	80 df       	rcall	.-256    	; 0x2984 <flip_ms5607>
    2a84:	7f df       	rcall	.-258    	; 0x2984 <flip_ms5607>
    2a86:	80 e0       	ldi	r24, 0x00	; 0
    2a88:	45 d0       	rcall	.+138    	; 0x2b14 <spi_write>
    2a8a:	35 d0       	rcall	.+106    	; 0x2af6 <spi_read>
    2a8c:	90 e0       	ldi	r25, 0x00	; 0
    2a8e:	a0 e0       	ldi	r26, 0x00	; 0
    2a90:	b0 e0       	ldi	r27, 0x00	; 0
    2a92:	dc 01       	movw	r26, r24
    2a94:	99 27       	eor	r25, r25
    2a96:	88 27       	eor	r24, r24
    2a98:	89 83       	std	Y+1, r24	; 0x01
    2a9a:	9a 83       	std	Y+2, r25	; 0x02
    2a9c:	ab 83       	std	Y+3, r26	; 0x03
    2a9e:	bc 83       	std	Y+4, r27	; 0x04
    2aa0:	2a d0       	rcall	.+84     	; 0x2af6 <spi_read>
    2aa2:	49 81       	ldd	r20, Y+1	; 0x01
    2aa4:	5a 81       	ldd	r21, Y+2	; 0x02
    2aa6:	6b 81       	ldd	r22, Y+3	; 0x03
    2aa8:	7c 81       	ldd	r23, Y+4	; 0x04
    2aaa:	58 2b       	or	r21, r24
    2aac:	49 83       	std	Y+1, r20	; 0x01
    2aae:	5a 83       	std	Y+2, r21	; 0x02
    2ab0:	6b 83       	std	Y+3, r22	; 0x03
    2ab2:	7c 83       	std	Y+4, r23	; 0x04
    2ab4:	20 d0       	rcall	.+64     	; 0x2af6 <spi_read>
    2ab6:	49 81       	ldd	r20, Y+1	; 0x01
    2ab8:	5a 81       	ldd	r21, Y+2	; 0x02
    2aba:	6b 81       	ldd	r22, Y+3	; 0x03
    2abc:	7c 81       	ldd	r23, Y+4	; 0x04
    2abe:	48 2b       	or	r20, r24
    2ac0:	49 83       	std	Y+1, r20	; 0x01
    2ac2:	5a 83       	std	Y+2, r21	; 0x02
    2ac4:	6b 83       	std	Y+3, r22	; 0x03
    2ac6:	7c 83       	std	Y+4, r23	; 0x04
    2ac8:	5d df       	rcall	.-326    	; 0x2984 <flip_ms5607>
    2aca:	69 81       	ldd	r22, Y+1	; 0x01
    2acc:	7a 81       	ldd	r23, Y+2	; 0x02
    2ace:	8b 81       	ldd	r24, Y+3	; 0x03
    2ad0:	9c 81       	ldd	r25, Y+4	; 0x04
    2ad2:	24 96       	adiw	r28, 0x04	; 4
    2ad4:	cd bf       	out	0x3d, r28	; 61
    2ad6:	de bf       	out	0x3e, r29	; 62
    2ad8:	df 91       	pop	r29
    2ada:	cf 91       	pop	r28
    2adc:	08 95       	ret

00002ade <spi_init>:
    2ade:	e0 e4       	ldi	r30, 0x40	; 64
    2ae0:	f6 e0       	ldi	r31, 0x06	; 6
    2ae2:	80 81       	ld	r24, Z
    2ae4:	80 6b       	ori	r24, 0xB0	; 176
    2ae6:	80 83       	st	Z, r24
    2ae8:	68 e0       	ldi	r22, 0x08	; 8
    2aea:	83 e0       	ldi	r24, 0x03	; 3
    2aec:	e4 d1       	rcall	.+968    	; 0x2eb6 <sysclk_enable_module>
    2aee:	80 e5       	ldi	r24, 0x50	; 80
    2af0:	80 93 c0 08 	sts	0x08C0, r24	; 0x8008c0 <__TEXT_REGION_LENGTH__+0x7008c0>
    2af4:	08 95       	ret

00002af6 <spi_read>:
    2af6:	9f b7       	in	r25, 0x3f	; 63
    2af8:	f8 94       	cli
    2afa:	8f ef       	ldi	r24, 0xFF	; 255
    2afc:	80 93 c3 08 	sts	0x08C3, r24	; 0x8008c3 <__TEXT_REGION_LENGTH__+0x7008c3>
    2b00:	e0 ec       	ldi	r30, 0xC0	; 192
    2b02:	f8 e0       	ldi	r31, 0x08	; 8
    2b04:	82 81       	ldd	r24, Z+2	; 0x02
    2b06:	88 23       	and	r24, r24
    2b08:	ec f7       	brge	.-6      	; 0x2b04 <spi_read+0xe>
    2b0a:	78 94       	sei
    2b0c:	9f bf       	out	0x3f, r25	; 63
    2b0e:	80 91 c3 08 	lds	r24, 0x08C3	; 0x8008c3 <__TEXT_REGION_LENGTH__+0x7008c3>
    2b12:	08 95       	ret

00002b14 <spi_write>:
    2b14:	9f b7       	in	r25, 0x3f	; 63
    2b16:	f8 94       	cli
    2b18:	80 93 c3 08 	sts	0x08C3, r24	; 0x8008c3 <__TEXT_REGION_LENGTH__+0x7008c3>
    2b1c:	e0 ec       	ldi	r30, 0xC0	; 192
    2b1e:	f8 e0       	ldi	r31, 0x08	; 8
    2b20:	82 81       	ldd	r24, Z+2	; 0x02
    2b22:	88 23       	and	r24, r24
    2b24:	ec f7       	brge	.-6      	; 0x2b20 <spi_write+0xc>
    2b26:	78 94       	sei
    2b28:	9f bf       	out	0x3f, r25	; 63
    2b2a:	08 95       	ret

00002b2c <usart_serial_getchar>:
 * \param usart   Base address of the USART instance.
 * \param data   Data to read
 *
 */
static inline void usart_serial_getchar(usart_if usart, uint8_t *data)
{
    2b2c:	cf 93       	push	r28
    2b2e:	df 93       	push	r29
    2b30:	eb 01       	movw	r28, r22
	*data = usart_getchar(usart);
    2b32:	0e 94 03 0b 	call	0x1606	; 0x1606 <usart_getchar>
    2b36:	88 83       	st	Y, r24
}
    2b38:	df 91       	pop	r29
    2b3a:	cf 91       	pop	r28
    2b3c:	08 95       	ret

00002b3e <usart_serial_putchar>:
 *
 * \return Status code
 */
static inline enum status_code usart_serial_putchar(usart_if usart, uint8_t c)
{
	return usart_putchar(usart, c);
    2b3e:	0c 94 fb 0a 	jmp	0x15f6	; 0x15f6 <usart_putchar>
}
    2b42:	08 95       	ret

00002b44 <data_terminal_init>:
#include <asf.h>
#include <string.h>
#include "data_logger.h"

void data_terminal_init()
{
    2b44:	cf 93       	push	r28
    2b46:	df 93       	push	r29
    2b48:	cd b7       	in	r28, 0x3d	; 61
    2b4a:	de b7       	in	r29, 0x3e	; 62
    2b4c:	27 97       	sbiw	r28, 0x07	; 7
    2b4e:	cd bf       	out	0x3d, r28	; 61
    2b50:	de bf       	out	0x3e, r29	; 62
		sysclk_enable_module(SYSCLK_PORT_D, SYSCLK_USART0);
	}
#endif
#ifdef USARTE0
	else if (module == &USARTE0) {
		sysclk_enable_module(SYSCLK_PORT_E, SYSCLK_USART0);
    2b52:	60 e1       	ldi	r22, 0x10	; 16
    2b54:	85 e0       	ldi	r24, 0x05	; 5
    2b56:	af d1       	rcall	.+862    	; 0x2eb6 <sysclk_enable_module>
		.charlength =	UART_TERMINAL_SERIAL_CHAR_LEN,
		.paritytype =	UART_TERMINAL_SERIAL_PARITY,
		.stopbits	=	UART_TERMINAL_SERIAL_STOP_BIT
	};
	
	UART_TERMINAL_PORT.DIR |= UART_TERMINAL_TX_PIN;	// set the USART transmit pin to output
    2b58:	e0 e8       	ldi	r30, 0x80	; 128
    2b5a:	f6 e0       	ldi	r31, 0x06	; 6
    2b5c:	80 81       	ld	r24, Z
    2b5e:	88 60       	ori	r24, 0x08	; 8
    2b60:	80 83       	st	Z, r24
 * \param opt         Options needed to set up RS232 communication (see \ref usart_options_t).
 *
 */
static inline void stdio_serial_init(volatile void *usart, const usart_serial_options_t *opt)
{
	stdio_base = (void *)usart;
    2b62:	80 ea       	ldi	r24, 0xA0	; 160
    2b64:	9a e0       	ldi	r25, 0x0A	; 10
    2b66:	80 93 4d 22 	sts	0x224D, r24	; 0x80224d <stdio_base>
    2b6a:	90 93 4e 22 	sts	0x224E, r25	; 0x80224e <stdio_base+0x1>
	ptr_put = (int (*)(void volatile*,char))&usart_serial_putchar;
    2b6e:	8f e9       	ldi	r24, 0x9F	; 159
    2b70:	95 e1       	ldi	r25, 0x15	; 21
    2b72:	80 93 4b 22 	sts	0x224B, r24	; 0x80224b <ptr_put>
    2b76:	90 93 4c 22 	sts	0x224C, r25	; 0x80224c <ptr_put+0x1>
	ptr_get = (void (*)(void volatile*,char*))&usart_serial_getchar;
    2b7a:	86 e9       	ldi	r24, 0x96	; 150
    2b7c:	95 e1       	ldi	r25, 0x15	; 21
    2b7e:	80 93 49 22 	sts	0x2249, r24	; 0x802249 <ptr_get>
    2b82:	90 93 4a 22 	sts	0x224A, r25	; 0x80224a <ptr_get+0x1>
static inline bool usart_serial_init(usart_if usart, const
		usart_serial_options_t *options)
{
	// USART options.
	usart_rs232_options_t usart_rs232_options;
	usart_rs232_options.charlength   = options->charlength;
    2b86:	ed e0       	ldi	r30, 0x0D	; 13
    2b88:	f0 e2       	ldi	r31, 0x20	; 32
    2b8a:	84 81       	ldd	r24, Z+4	; 0x04
    2b8c:	8d 83       	std	Y+5, r24	; 0x05
	usart_rs232_options.paritytype   = options->paritytype;
    2b8e:	85 81       	ldd	r24, Z+5	; 0x05
    2b90:	8e 83       	std	Y+6, r24	; 0x06
	usart_rs232_options.stopbits     = options->stopbits;
    2b92:	86 81       	ldd	r24, Z+6	; 0x06
    2b94:	8f 83       	std	Y+7, r24	; 0x07
	usart_rs232_options.baudrate     = options->baudrate;
    2b96:	80 81       	ld	r24, Z
    2b98:	91 81       	ldd	r25, Z+1	; 0x01
    2b9a:	a2 81       	ldd	r26, Z+2	; 0x02
    2b9c:	b3 81       	ldd	r27, Z+3	; 0x03
    2b9e:	89 83       	std	Y+1, r24	; 0x01
    2ba0:	9a 83       	std	Y+2, r25	; 0x02
    2ba2:	ab 83       	std	Y+3, r26	; 0x03
    2ba4:	bc 83       	std	Y+4, r27	; 0x04
		sysclk_enable_module(SYSCLK_PORT_D,PR_USART1_bm);
	}
#endif
#ifdef USARTE0
	if((uint16_t)usart == (uint16_t)&USARTE0) {
		sysclk_enable_module(SYSCLK_PORT_E,PR_USART0_bm);
    2ba6:	60 e1       	ldi	r22, 0x10	; 16
    2ba8:	85 e0       	ldi	r24, 0x05	; 5
    2baa:	85 d1       	rcall	.+778    	; 0x2eb6 <sysclk_enable_module>
#ifdef USARTF1
	if((uint16_t)usart == (uint16_t)&USARTF1) {
		sysclk_enable_module(SYSCLK_PORT_F,PR_USART1_bm);
	}
#endif
	if (usart_init_rs232(usart, &usart_rs232_options)) {
    2bac:	be 01       	movw	r22, r28
    2bae:	6f 5f       	subi	r22, 0xFF	; 255
    2bb0:	7f 4f       	sbci	r23, 0xFF	; 255
    2bb2:	80 ea       	ldi	r24, 0xA0	; 160
    2bb4:	9a e0       	ldi	r25, 0x0A	; 10
    2bb6:	0e 94 1c 0c 	call	0x1838	; 0x1838 <usart_init_rs232>
# endif

# if defined(__GNUC__)
#  if (XMEGA || MEGA_RF)
	// For AVR GCC libc print redirection uses fdevopen.
	fdevopen((int (*)(char, FILE*))(_write),(int (*)(FILE*))(_read));
    2bba:	6f e7       	ldi	r22, 0x7F	; 127
    2bbc:	71 e0       	ldi	r23, 0x01	; 1
    2bbe:	88 e9       	ldi	r24, 0x98	; 152
    2bc0:	91 e0       	ldi	r25, 0x01	; 1
    2bc2:	0e 94 03 34 	call	0x6806	; 0x6806 <fdevopen>
	
	//usart_serial_init(UART_TERMINAL_SERIAL, &usart_config);
	stdio_serial_init(UART_TERMINAL_SERIAL, &usart_config); // function maps the serial output to printf, not necessary to know how it works
}
    2bc6:	27 96       	adiw	r28, 0x07	; 7
    2bc8:	cd bf       	out	0x3d, r28	; 61
    2bca:	de bf       	out	0x3e, r29	; 62
    2bcc:	df 91       	pop	r29
    2bce:	cf 91       	pop	r28
    2bd0:	08 95       	ret

00002bd2 <voltage_init>:
    2bd2:	ff 92       	push	r15
    2bd4:	0f 93       	push	r16
    2bd6:	1f 93       	push	r17
    2bd8:	cf 93       	push	r28
    2bda:	df 93       	push	r29
    2bdc:	62 e0       	ldi	r22, 0x02	; 2
    2bde:	81 e0       	ldi	r24, 0x01	; 1
    2be0:	6a d1       	rcall	.+724    	; 0x2eb6 <sysclk_enable_module>
    2be2:	c0 e0       	ldi	r28, 0x00	; 0
    2be4:	d2 e0       	ldi	r29, 0x02	; 2
    2be6:	ff 24       	eor	r15, r15
    2be8:	f3 94       	inc	r15
    2bea:	f8 82       	st	Y, r15
    2bec:	19 82       	std	Y+1, r1	; 0x01
    2bee:	80 e1       	ldi	r24, 0x10	; 16
    2bf0:	8a 83       	std	Y+2, r24	; 0x02
    2bf2:	85 e0       	ldi	r24, 0x05	; 5
    2bf4:	8c 83       	std	Y+4, r24	; 0x04
    2bf6:	61 e2       	ldi	r22, 0x21	; 33
    2bf8:	70 e0       	ldi	r23, 0x00	; 0
    2bfa:	82 e0       	ldi	r24, 0x02	; 2
    2bfc:	87 d1       	rcall	.+782    	; 0x2f0c <nvm_read_byte>
    2bfe:	08 2f       	mov	r16, r24
    2c00:	10 e0       	ldi	r17, 0x00	; 0
    2c02:	10 2f       	mov	r17, r16
    2c04:	00 27       	eor	r16, r16
    2c06:	60 e2       	ldi	r22, 0x20	; 32
    2c08:	70 e0       	ldi	r23, 0x00	; 0
    2c0a:	82 e0       	ldi	r24, 0x02	; 2
    2c0c:	7f d1       	rcall	.+766    	; 0x2f0c <nvm_read_byte>
    2c0e:	08 2b       	or	r16, r24
    2c10:	0c 87       	std	Y+12, r16	; 0x0c
    2c12:	1d 87       	std	Y+13, r17	; 0x0d
    2c14:	f8 a6       	std	Y+40, r15	; 0x28
    2c16:	88 e3       	ldi	r24, 0x38	; 56
    2c18:	89 a7       	std	Y+41, r24	; 0x29
    2c1a:	df 91       	pop	r29
    2c1c:	cf 91       	pop	r28
    2c1e:	1f 91       	pop	r17
    2c20:	0f 91       	pop	r16
    2c22:	ff 90       	pop	r15
    2c24:	08 95       	ret

00002c26 <voltage_read>:
    2c26:	e0 e0       	ldi	r30, 0x00	; 0
    2c28:	f2 e0       	ldi	r31, 0x02	; 2
    2c2a:	80 a5       	ldd	r24, Z+40	; 0x28
    2c2c:	80 68       	ori	r24, 0x80	; 128
    2c2e:	80 a7       	std	Z+40, r24	; 0x28
    2c30:	83 a5       	ldd	r24, Z+43	; 0x2b
    2c32:	88 23       	and	r24, r24
    2c34:	e9 f3       	breq	.-6      	; 0x2c30 <voltage_read+0xa>
    2c36:	80 91 2c 02 	lds	r24, 0x022C	; 0x80022c <__TEXT_REGION_LENGTH__+0x70022c>
    2c3a:	90 91 2d 02 	lds	r25, 0x022D	; 0x80022d <__TEXT_REGION_LENGTH__+0x70022d>
    2c3e:	08 95       	ret

00002c40 <rb16_write>:
    2c40:	cf 93       	push	r28
    2c42:	df 93       	push	r29
    2c44:	fc 01       	movw	r30, r24
    2c46:	41 15       	cp	r20, r1
    2c48:	51 05       	cpc	r21, r1
    2c4a:	b1 f1       	breq	.+108    	; 0x2cb8 <rb16_write+0x78>
    2c4c:	80 e0       	ldi	r24, 0x00	; 0
    2c4e:	90 e0       	ldi	r25, 0x00	; 0
    2c50:	20 e0       	ldi	r18, 0x00	; 0
    2c52:	88 0f       	add	r24, r24
    2c54:	99 1f       	adc	r25, r25
    2c56:	db 01       	movw	r26, r22
    2c58:	a8 0f       	add	r26, r24
    2c5a:	b9 1f       	adc	r27, r25
    2c5c:	8d 91       	ld	r24, X+
    2c5e:	9c 91       	ld	r25, X
    2c60:	a2 81       	ldd	r26, Z+2	; 0x02
    2c62:	b3 81       	ldd	r27, Z+3	; 0x03
    2c64:	aa 0f       	add	r26, r26
    2c66:	bb 1f       	adc	r27, r27
    2c68:	c6 81       	ldd	r28, Z+6	; 0x06
    2c6a:	d7 81       	ldd	r29, Z+7	; 0x07
    2c6c:	ac 0f       	add	r26, r28
    2c6e:	bd 1f       	adc	r27, r29
    2c70:	8d 93       	st	X+, r24
    2c72:	9c 93       	st	X, r25
    2c74:	82 81       	ldd	r24, Z+2	; 0x02
    2c76:	93 81       	ldd	r25, Z+3	; 0x03
    2c78:	01 96       	adiw	r24, 0x01	; 1
    2c7a:	82 83       	std	Z+2, r24	; 0x02
    2c7c:	93 83       	std	Z+3, r25	; 0x03
    2c7e:	a0 81       	ld	r26, Z
    2c80:	b1 81       	ldd	r27, Z+1	; 0x01
    2c82:	8a 17       	cp	r24, r26
    2c84:	9b 07       	cpc	r25, r27
    2c86:	11 f4       	brne	.+4      	; 0x2c8c <rb16_write+0x4c>
    2c88:	12 82       	std	Z+2, r1	; 0x02
    2c8a:	13 82       	std	Z+3, r1	; 0x03
    2c8c:	82 81       	ldd	r24, Z+2	; 0x02
    2c8e:	93 81       	ldd	r25, Z+3	; 0x03
    2c90:	c4 81       	ldd	r28, Z+4	; 0x04
    2c92:	d5 81       	ldd	r29, Z+5	; 0x05
    2c94:	8c 17       	cp	r24, r28
    2c96:	9d 07       	cpc	r25, r29
    2c98:	49 f4       	brne	.+18     	; 0x2cac <rb16_write+0x6c>
    2c9a:	01 96       	adiw	r24, 0x01	; 1
    2c9c:	a8 17       	cp	r26, r24
    2c9e:	b9 07       	cpc	r27, r25
    2ca0:	19 f0       	breq	.+6      	; 0x2ca8 <rb16_write+0x68>
    2ca2:	84 83       	std	Z+4, r24	; 0x04
    2ca4:	95 83       	std	Z+5, r25	; 0x05
    2ca6:	02 c0       	rjmp	.+4      	; 0x2cac <rb16_write+0x6c>
    2ca8:	14 82       	std	Z+4, r1	; 0x04
    2caa:	15 82       	std	Z+5, r1	; 0x05
    2cac:	2f 5f       	subi	r18, 0xFF	; 255
    2cae:	82 2f       	mov	r24, r18
    2cb0:	90 e0       	ldi	r25, 0x00	; 0
    2cb2:	84 17       	cp	r24, r20
    2cb4:	95 07       	cpc	r25, r21
    2cb6:	68 f2       	brcs	.-102    	; 0x2c52 <rb16_write+0x12>
    2cb8:	df 91       	pop	r29
    2cba:	cf 91       	pop	r28
    2cbc:	08 95       	ret

00002cbe <rb16_init>:
    2cbe:	fc 01       	movw	r30, r24
    2cc0:	12 82       	std	Z+2, r1	; 0x02
    2cc2:	13 82       	std	Z+3, r1	; 0x03
    2cc4:	14 82       	std	Z+4, r1	; 0x04
    2cc6:	15 82       	std	Z+5, r1	; 0x05
    2cc8:	66 83       	std	Z+6, r22	; 0x06
    2cca:	77 83       	std	Z+7, r23	; 0x07
    2ccc:	40 83       	st	Z, r20
    2cce:	51 83       	std	Z+1, r21	; 0x01
    2cd0:	08 95       	ret

00002cd2 <rb16_get_nth>:
    2cd2:	dc 01       	movw	r26, r24
    2cd4:	12 96       	adiw	r26, 0x02	; 2
    2cd6:	ed 91       	ld	r30, X+
    2cd8:	fc 91       	ld	r31, X
    2cda:	13 97       	sbiw	r26, 0x03	; 3
    2cdc:	cb 01       	movw	r24, r22
    2cde:	01 96       	adiw	r24, 0x01	; 1
    2ce0:	e8 17       	cp	r30, r24
    2ce2:	f9 07       	cpc	r31, r25
    2ce4:	78 f0       	brcs	.+30     	; 0x2d04 <rb16_get_nth+0x32>
    2ce6:	e1 50       	subi	r30, 0x01	; 1
    2ce8:	f0 48       	sbci	r31, 0x80	; 128
    2cea:	e6 1b       	sub	r30, r22
    2cec:	f7 0b       	sbc	r31, r23
    2cee:	ee 0f       	add	r30, r30
    2cf0:	ff 1f       	adc	r31, r31
    2cf2:	16 96       	adiw	r26, 0x06	; 6
    2cf4:	8d 91       	ld	r24, X+
    2cf6:	9c 91       	ld	r25, X
    2cf8:	17 97       	sbiw	r26, 0x07	; 7
    2cfa:	e8 0f       	add	r30, r24
    2cfc:	f9 1f       	adc	r31, r25
    2cfe:	80 81       	ld	r24, Z
    2d00:	91 81       	ldd	r25, Z+1	; 0x01
    2d02:	08 95       	ret
    2d04:	2d 91       	ld	r18, X+
    2d06:	3c 91       	ld	r19, X
    2d08:	11 97       	sbiw	r26, 0x01	; 1
    2d0a:	e2 0f       	add	r30, r18
    2d0c:	f3 1f       	adc	r31, r19
    2d0e:	e1 50       	subi	r30, 0x01	; 1
    2d10:	f0 48       	sbci	r31, 0x80	; 128
    2d12:	e6 1b       	sub	r30, r22
    2d14:	f7 0b       	sbc	r31, r23
    2d16:	ee 0f       	add	r30, r30
    2d18:	ff 1f       	adc	r31, r31
    2d1a:	16 96       	adiw	r26, 0x06	; 6
    2d1c:	8d 91       	ld	r24, X+
    2d1e:	9c 91       	ld	r25, X
    2d20:	17 97       	sbiw	r26, 0x07	; 7
    2d22:	e8 0f       	add	r30, r24
    2d24:	f9 1f       	adc	r31, r25
    2d26:	80 81       	ld	r24, Z
    2d28:	91 81       	ldd	r25, Z+1	; 0x01
    2d2a:	08 95       	ret

00002d2c <rb32_write>:
    2d2c:	cf 92       	push	r12
    2d2e:	df 92       	push	r13
    2d30:	ef 92       	push	r14
    2d32:	ff 92       	push	r15
    2d34:	cf 93       	push	r28
    2d36:	df 93       	push	r29
    2d38:	fc 01       	movw	r30, r24
    2d3a:	41 15       	cp	r20, r1
    2d3c:	51 05       	cpc	r21, r1
    2d3e:	09 f4       	brne	.+2      	; 0x2d42 <rb32_write+0x16>
    2d40:	3f c0       	rjmp	.+126    	; 0x2dc0 <rb32_write+0x94>
    2d42:	80 e0       	ldi	r24, 0x00	; 0
    2d44:	90 e0       	ldi	r25, 0x00	; 0
    2d46:	20 e0       	ldi	r18, 0x00	; 0
    2d48:	88 0f       	add	r24, r24
    2d4a:	99 1f       	adc	r25, r25
    2d4c:	88 0f       	add	r24, r24
    2d4e:	99 1f       	adc	r25, r25
    2d50:	db 01       	movw	r26, r22
    2d52:	a8 0f       	add	r26, r24
    2d54:	b9 1f       	adc	r27, r25
    2d56:	cd 90       	ld	r12, X+
    2d58:	dd 90       	ld	r13, X+
    2d5a:	ed 90       	ld	r14, X+
    2d5c:	fc 90       	ld	r15, X
    2d5e:	a2 81       	ldd	r26, Z+2	; 0x02
    2d60:	b3 81       	ldd	r27, Z+3	; 0x03
    2d62:	aa 0f       	add	r26, r26
    2d64:	bb 1f       	adc	r27, r27
    2d66:	aa 0f       	add	r26, r26
    2d68:	bb 1f       	adc	r27, r27
    2d6a:	86 81       	ldd	r24, Z+6	; 0x06
    2d6c:	97 81       	ldd	r25, Z+7	; 0x07
    2d6e:	a8 0f       	add	r26, r24
    2d70:	b9 1f       	adc	r27, r25
    2d72:	cd 92       	st	X+, r12
    2d74:	dd 92       	st	X+, r13
    2d76:	ed 92       	st	X+, r14
    2d78:	fc 92       	st	X, r15
    2d7a:	13 97       	sbiw	r26, 0x03	; 3
    2d7c:	82 81       	ldd	r24, Z+2	; 0x02
    2d7e:	93 81       	ldd	r25, Z+3	; 0x03
    2d80:	01 96       	adiw	r24, 0x01	; 1
    2d82:	82 83       	std	Z+2, r24	; 0x02
    2d84:	93 83       	std	Z+3, r25	; 0x03
    2d86:	a0 81       	ld	r26, Z
    2d88:	b1 81       	ldd	r27, Z+1	; 0x01
    2d8a:	8a 17       	cp	r24, r26
    2d8c:	9b 07       	cpc	r25, r27
    2d8e:	11 f4       	brne	.+4      	; 0x2d94 <rb32_write+0x68>
    2d90:	12 82       	std	Z+2, r1	; 0x02
    2d92:	13 82       	std	Z+3, r1	; 0x03
    2d94:	82 81       	ldd	r24, Z+2	; 0x02
    2d96:	93 81       	ldd	r25, Z+3	; 0x03
    2d98:	c4 81       	ldd	r28, Z+4	; 0x04
    2d9a:	d5 81       	ldd	r29, Z+5	; 0x05
    2d9c:	8c 17       	cp	r24, r28
    2d9e:	9d 07       	cpc	r25, r29
    2da0:	49 f4       	brne	.+18     	; 0x2db4 <rb32_write+0x88>
    2da2:	01 96       	adiw	r24, 0x01	; 1
    2da4:	a8 17       	cp	r26, r24
    2da6:	b9 07       	cpc	r27, r25
    2da8:	19 f0       	breq	.+6      	; 0x2db0 <rb32_write+0x84>
    2daa:	84 83       	std	Z+4, r24	; 0x04
    2dac:	95 83       	std	Z+5, r25	; 0x05
    2dae:	02 c0       	rjmp	.+4      	; 0x2db4 <rb32_write+0x88>
    2db0:	14 82       	std	Z+4, r1	; 0x04
    2db2:	15 82       	std	Z+5, r1	; 0x05
    2db4:	2f 5f       	subi	r18, 0xFF	; 255
    2db6:	82 2f       	mov	r24, r18
    2db8:	90 e0       	ldi	r25, 0x00	; 0
    2dba:	84 17       	cp	r24, r20
    2dbc:	95 07       	cpc	r25, r21
    2dbe:	20 f2       	brcs	.-120    	; 0x2d48 <rb32_write+0x1c>
    2dc0:	df 91       	pop	r29
    2dc2:	cf 91       	pop	r28
    2dc4:	ff 90       	pop	r15
    2dc6:	ef 90       	pop	r14
    2dc8:	df 90       	pop	r13
    2dca:	cf 90       	pop	r12
    2dcc:	08 95       	ret

00002dce <rb32_init>:
    2dce:	fc 01       	movw	r30, r24
    2dd0:	12 82       	std	Z+2, r1	; 0x02
    2dd2:	13 82       	std	Z+3, r1	; 0x03
    2dd4:	14 82       	std	Z+4, r1	; 0x04
    2dd6:	15 82       	std	Z+5, r1	; 0x05
    2dd8:	66 83       	std	Z+6, r22	; 0x06
    2dda:	77 83       	std	Z+7, r23	; 0x07
    2ddc:	40 83       	st	Z, r20
    2dde:	51 83       	std	Z+1, r21	; 0x01
    2de0:	08 95       	ret

00002de2 <rb32_get_nth>:
    2de2:	dc 01       	movw	r26, r24
    2de4:	12 96       	adiw	r26, 0x02	; 2
    2de6:	ed 91       	ld	r30, X+
    2de8:	fc 91       	ld	r31, X
    2dea:	13 97       	sbiw	r26, 0x03	; 3
    2dec:	cb 01       	movw	r24, r22
    2dee:	01 96       	adiw	r24, 0x01	; 1
    2df0:	e8 17       	cp	r30, r24
    2df2:	f9 07       	cpc	r31, r25
    2df4:	98 f0       	brcs	.+38     	; 0x2e1c <rb32_get_nth+0x3a>
    2df6:	e1 50       	subi	r30, 0x01	; 1
    2df8:	f0 4c       	sbci	r31, 0xC0	; 192
    2dfa:	e6 1b       	sub	r30, r22
    2dfc:	f7 0b       	sbc	r31, r23
    2dfe:	ee 0f       	add	r30, r30
    2e00:	ff 1f       	adc	r31, r31
    2e02:	ee 0f       	add	r30, r30
    2e04:	ff 1f       	adc	r31, r31
    2e06:	16 96       	adiw	r26, 0x06	; 6
    2e08:	8d 91       	ld	r24, X+
    2e0a:	9c 91       	ld	r25, X
    2e0c:	17 97       	sbiw	r26, 0x07	; 7
    2e0e:	e8 0f       	add	r30, r24
    2e10:	f9 1f       	adc	r31, r25
    2e12:	60 81       	ld	r22, Z
    2e14:	71 81       	ldd	r23, Z+1	; 0x01
    2e16:	82 81       	ldd	r24, Z+2	; 0x02
    2e18:	93 81       	ldd	r25, Z+3	; 0x03
    2e1a:	08 95       	ret
    2e1c:	2d 91       	ld	r18, X+
    2e1e:	3c 91       	ld	r19, X
    2e20:	11 97       	sbiw	r26, 0x01	; 1
    2e22:	e2 0f       	add	r30, r18
    2e24:	f3 1f       	adc	r31, r19
    2e26:	e1 50       	subi	r30, 0x01	; 1
    2e28:	f0 4c       	sbci	r31, 0xC0	; 192
    2e2a:	e6 1b       	sub	r30, r22
    2e2c:	f7 0b       	sbc	r31, r23
    2e2e:	ee 0f       	add	r30, r30
    2e30:	ff 1f       	adc	r31, r31
    2e32:	ee 0f       	add	r30, r30
    2e34:	ff 1f       	adc	r31, r31
    2e36:	16 96       	adiw	r26, 0x06	; 6
    2e38:	8d 91       	ld	r24, X+
    2e3a:	9c 91       	ld	r25, X
    2e3c:	17 97       	sbiw	r26, 0x07	; 7
    2e3e:	e8 0f       	add	r30, r24
    2e40:	f9 1f       	adc	r31, r25
    2e42:	60 81       	ld	r22, Z
    2e44:	71 81       	ldd	r23, Z+1	; 0x01
    2e46:	82 81       	ldd	r24, Z+2	; 0x02
    2e48:	93 81       	ldd	r25, Z+3	; 0x03
    2e4a:	08 95       	ret

00002e4c <sysclk_init>:
    2e4c:	cf 93       	push	r28
    2e4e:	df 93       	push	r29
    2e50:	1f 92       	push	r1
    2e52:	1f 92       	push	r1
    2e54:	cd b7       	in	r28, 0x3d	; 61
    2e56:	de b7       	in	r29, 0x3e	; 62
    2e58:	8f ef       	ldi	r24, 0xFF	; 255
    2e5a:	80 93 70 00 	sts	0x0070, r24	; 0x800070 <__TEXT_REGION_LENGTH__+0x700070>
    2e5e:	80 93 71 00 	sts	0x0071, r24	; 0x800071 <__TEXT_REGION_LENGTH__+0x700071>
    2e62:	80 93 72 00 	sts	0x0072, r24	; 0x800072 <__TEXT_REGION_LENGTH__+0x700072>
    2e66:	80 93 73 00 	sts	0x0073, r24	; 0x800073 <__TEXT_REGION_LENGTH__+0x700073>
    2e6a:	80 93 74 00 	sts	0x0074, r24	; 0x800074 <__TEXT_REGION_LENGTH__+0x700074>
    2e6e:	80 93 75 00 	sts	0x0075, r24	; 0x800075 <__TEXT_REGION_LENGTH__+0x700075>
    2e72:	80 93 76 00 	sts	0x0076, r24	; 0x800076 <__TEXT_REGION_LENGTH__+0x700076>
    2e76:	8f b7       	in	r24, 0x3f	; 63
    2e78:	8a 83       	std	Y+2, r24	; 0x02
    2e7a:	f8 94       	cli
    2e7c:	9a 81       	ldd	r25, Y+2	; 0x02
    2e7e:	e0 e5       	ldi	r30, 0x50	; 80
    2e80:	f0 e0       	ldi	r31, 0x00	; 0
    2e82:	80 81       	ld	r24, Z
    2e84:	82 60       	ori	r24, 0x02	; 2
    2e86:	80 83       	st	Z, r24
    2e88:	9f bf       	out	0x3f, r25	; 63
    2e8a:	81 81       	ldd	r24, Z+1	; 0x01
    2e8c:	81 ff       	sbrs	r24, 1
    2e8e:	fd cf       	rjmp	.-6      	; 0x2e8a <sysclk_init+0x3e>
    2e90:	61 e0       	ldi	r22, 0x01	; 1
    2e92:	80 e4       	ldi	r24, 0x40	; 64
    2e94:	90 e0       	ldi	r25, 0x00	; 0
    2e96:	44 d0       	rcall	.+136    	; 0x2f20 <ccp_write_io>
    2e98:	8f b7       	in	r24, 0x3f	; 63
    2e9a:	89 83       	std	Y+1, r24	; 0x01
    2e9c:	f8 94       	cli
    2e9e:	99 81       	ldd	r25, Y+1	; 0x01
    2ea0:	e0 e5       	ldi	r30, 0x50	; 80
    2ea2:	f0 e0       	ldi	r31, 0x00	; 0
    2ea4:	80 81       	ld	r24, Z
    2ea6:	8e 7f       	andi	r24, 0xFE	; 254
    2ea8:	80 83       	st	Z, r24
    2eaa:	9f bf       	out	0x3f, r25	; 63
    2eac:	0f 90       	pop	r0
    2eae:	0f 90       	pop	r0
    2eb0:	df 91       	pop	r29
    2eb2:	cf 91       	pop	r28
    2eb4:	08 95       	ret

00002eb6 <sysclk_enable_module>:
    2eb6:	cf 93       	push	r28
    2eb8:	df 93       	push	r29
    2eba:	1f 92       	push	r1
    2ebc:	cd b7       	in	r28, 0x3d	; 61
    2ebe:	de b7       	in	r29, 0x3e	; 62
    2ec0:	9f b7       	in	r25, 0x3f	; 63
    2ec2:	99 83       	std	Y+1, r25	; 0x01
    2ec4:	f8 94       	cli
    2ec6:	99 81       	ldd	r25, Y+1	; 0x01
    2ec8:	e8 2f       	mov	r30, r24
    2eca:	f0 e0       	ldi	r31, 0x00	; 0
    2ecc:	e0 59       	subi	r30, 0x90	; 144
    2ece:	ff 4f       	sbci	r31, 0xFF	; 255
    2ed0:	60 95       	com	r22
    2ed2:	80 81       	ld	r24, Z
    2ed4:	68 23       	and	r22, r24
    2ed6:	60 83       	st	Z, r22
    2ed8:	9f bf       	out	0x3f, r25	; 63
    2eda:	0f 90       	pop	r0
    2edc:	df 91       	pop	r29
    2ede:	cf 91       	pop	r28
    2ee0:	08 95       	ret

00002ee2 <sysclk_disable_module>:
    2ee2:	cf 93       	push	r28
    2ee4:	df 93       	push	r29
    2ee6:	1f 92       	push	r1
    2ee8:	cd b7       	in	r28, 0x3d	; 61
    2eea:	de b7       	in	r29, 0x3e	; 62
    2eec:	9f b7       	in	r25, 0x3f	; 63
    2eee:	99 83       	std	Y+1, r25	; 0x01
    2ef0:	f8 94       	cli
    2ef2:	99 81       	ldd	r25, Y+1	; 0x01
    2ef4:	e8 2f       	mov	r30, r24
    2ef6:	f0 e0       	ldi	r31, 0x00	; 0
    2ef8:	e0 59       	subi	r30, 0x90	; 144
    2efa:	ff 4f       	sbci	r31, 0xFF	; 255
    2efc:	80 81       	ld	r24, Z
    2efe:	68 2b       	or	r22, r24
    2f00:	60 83       	st	Z, r22
    2f02:	9f bf       	out	0x3f, r25	; 63
    2f04:	0f 90       	pop	r0
    2f06:	df 91       	pop	r29
    2f08:	cf 91       	pop	r28
    2f0a:	08 95       	ret

00002f0c <nvm_read_byte>:
    2f0c:	40 91 ca 01 	lds	r20, 0x01CA	; 0x8001ca <__TEXT_REGION_LENGTH__+0x7001ca>
    2f10:	e6 2f       	mov	r30, r22
    2f12:	f7 2f       	mov	r31, r23
    2f14:	80 93 ca 01 	sts	0x01CA, r24	; 0x8001ca <__TEXT_REGION_LENGTH__+0x7001ca>
    2f18:	84 91       	lpm	r24, Z
    2f1a:	40 93 ca 01 	sts	0x01CA, r20	; 0x8001ca <__TEXT_REGION_LENGTH__+0x7001ca>
    2f1e:	08 95       	ret

00002f20 <ccp_write_io>:
    2f20:	1b be       	out	0x3b, r1	; 59
    2f22:	fc 01       	movw	r30, r24
    2f24:	28 ed       	ldi	r18, 0xD8	; 216
    2f26:	24 bf       	out	0x34, r18	; 52
    2f28:	60 83       	st	Z, r22
    2f2a:	08 95       	ret

00002f2c <__portable_avr_delay_cycles>:
	ac_enable(&ACA, 0);

}

void release(void){
	servo_release();
    2f2c:	04 c0       	rjmp	.+8      	; 0x2f36 <__portable_avr_delay_cycles+0xa>
    2f2e:	61 50       	subi	r22, 0x01	; 1
    2f30:	71 09       	sbc	r23, r1
    2f32:	81 09       	sbc	r24, r1
    2f34:	91 09       	sbc	r25, r1
    2f36:	61 15       	cp	r22, r1
    2f38:	71 05       	cpc	r23, r1
    2f3a:	81 05       	cpc	r24, r1
    2f3c:	91 05       	cpc	r25, r1
    2f3e:	b9 f7       	brne	.-18     	; 0x2f2e <__portable_avr_delay_cycles+0x2>
    2f40:	08 95       	ret

00002f42 <hall_sensor_measure>:
    2f42:	80 91 28 22 	lds	r24, 0x2228	; 0x802228 <ticks_per_sec>
    2f46:	90 91 29 22 	lds	r25, 0x2229	; 0x802229 <ticks_per_sec+0x1>
    2f4a:	01 96       	adiw	r24, 0x01	; 1
    2f4c:	80 93 28 22 	sts	0x2228, r24	; 0x802228 <ticks_per_sec>
    2f50:	90 93 29 22 	sts	0x2229, r25	; 0x802229 <ticks_per_sec+0x1>
    2f54:	08 95       	ret

00002f56 <pressure_init>:
    2f56:	cf 93       	push	r28
    2f58:	df 93       	push	r29
    2f5a:	1b dd       	rcall	.-1482   	; 0x2992 <ms5607_init>
    2f5c:	82 ea       	ldi	r24, 0xA2	; 162
    2f5e:	90 e0       	ldi	r25, 0x00	; 0
    2f60:	2c dd       	rcall	.-1448   	; 0x29ba <ms5607_read>
    2f62:	c3 e3       	ldi	r28, 0x33	; 51
    2f64:	d2 e2       	ldi	r29, 0x22	; 34
    2f66:	88 83       	st	Y, r24
    2f68:	99 83       	std	Y+1, r25	; 0x01
    2f6a:	84 ea       	ldi	r24, 0xA4	; 164
    2f6c:	90 e0       	ldi	r25, 0x00	; 0
    2f6e:	25 dd       	rcall	.-1462   	; 0x29ba <ms5607_read>
    2f70:	8a 83       	std	Y+2, r24	; 0x02
    2f72:	9b 83       	std	Y+3, r25	; 0x03
    2f74:	86 ea       	ldi	r24, 0xA6	; 166
    2f76:	90 e0       	ldi	r25, 0x00	; 0
    2f78:	20 dd       	rcall	.-1472   	; 0x29ba <ms5607_read>
    2f7a:	8c 83       	std	Y+4, r24	; 0x04
    2f7c:	9d 83       	std	Y+5, r25	; 0x05
    2f7e:	88 ea       	ldi	r24, 0xA8	; 168
    2f80:	90 e0       	ldi	r25, 0x00	; 0
    2f82:	1b dd       	rcall	.-1482   	; 0x29ba <ms5607_read>
    2f84:	8e 83       	std	Y+6, r24	; 0x06
    2f86:	9f 83       	std	Y+7, r25	; 0x07
    2f88:	8a ea       	ldi	r24, 0xAA	; 170
    2f8a:	90 e0       	ldi	r25, 0x00	; 0
    2f8c:	16 dd       	rcall	.-1492   	; 0x29ba <ms5607_read>
    2f8e:	88 87       	std	Y+8, r24	; 0x08
    2f90:	99 87       	std	Y+9, r25	; 0x09
    2f92:	8c ea       	ldi	r24, 0xAC	; 172
    2f94:	90 e0       	ldi	r25, 0x00	; 0
    2f96:	11 dd       	rcall	.-1502   	; 0x29ba <ms5607_read>
    2f98:	8a 87       	std	Y+10, r24	; 0x0a
    2f9a:	9b 87       	std	Y+11, r25	; 0x0b
    2f9c:	df 91       	pop	r29
    2f9e:	cf 91       	pop	r28
    2fa0:	08 95       	ret

00002fa2 <gps_init>:
    2fa2:	b6 dc       	rcall	.-1684   	; 0x2910 <gps_uart_init>
    2fa4:	6b ea       	ldi	r22, 0xAB	; 171
    2fa6:	79 e2       	ldi	r23, 0x29	; 41
    2fa8:	80 e0       	ldi	r24, 0x00	; 0
    2faa:	90 e0       	ldi	r25, 0x00	; 0
    2fac:	bf df       	rcall	.-130    	; 0x2f2c <__portable_avr_delay_cycles>
    2fae:	80 e3       	ldi	r24, 0x30	; 48
    2fb0:	80 93 b3 09 	sts	0x09B3, r24	; 0x8009b3 <__TEXT_REGION_LENGTH__+0x7009b3>
    2fb4:	08 95       	ret

00002fb6 <bno_init>:
    2fb6:	60 e4       	ldi	r22, 0x40	; 64
    2fb8:	83 e0       	ldi	r24, 0x03	; 3
    2fba:	7d df       	rcall	.-262    	; 0x2eb6 <sysclk_enable_module>
    2fbc:	60 e4       	ldi	r22, 0x40	; 64
    2fbe:	83 e0       	ldi	r24, 0x03	; 3
    2fc0:	7a df       	rcall	.-268    	; 0x2eb6 <sysclk_enable_module>
    2fc2:	ba db       	rcall	.-2188   	; 0x2738 <imu_init>
    2fc4:	32 dc       	rcall	.-1948   	; 0x282a <imu_update>
    2fc6:	44 dc       	rcall	.-1912   	; 0x2850 <imu_roll>
    2fc8:	60 93 2a 22 	sts	0x222A, r22	; 0x80222a <ref_roll>
    2fcc:	70 93 2b 22 	sts	0x222B, r23	; 0x80222b <ref_roll+0x1>
    2fd0:	80 93 2c 22 	sts	0x222C, r24	; 0x80222c <ref_roll+0x2>
    2fd4:	90 93 2d 22 	sts	0x222D, r25	; 0x80222d <ref_roll+0x3>
    2fd8:	44 dc       	rcall	.-1912   	; 0x2862 <imu_pitch>
    2fda:	60 93 21 20 	sts	0x2021, r22	; 0x802021 <ref_pitch>
    2fde:	70 93 22 20 	sts	0x2022, r23	; 0x802022 <ref_pitch+0x1>
    2fe2:	80 93 23 20 	sts	0x2023, r24	; 0x802023 <ref_pitch+0x2>
    2fe6:	90 93 24 20 	sts	0x2024, r25	; 0x802024 <ref_pitch+0x3>
    2fea:	44 dc       	rcall	.-1912   	; 0x2874 <imu_heading>
    2fec:	60 93 2e 22 	sts	0x222E, r22	; 0x80222e <ref_yaw>
    2ff0:	70 93 2f 22 	sts	0x222F, r23	; 0x80222f <ref_yaw+0x1>
    2ff4:	80 93 30 22 	sts	0x2230, r24	; 0x802230 <ref_yaw+0x2>
    2ff8:	90 93 31 22 	sts	0x2231, r25	; 0x802231 <ref_yaw+0x3>
    2ffc:	08 95       	ret

00002ffe <hall_sensor_init>:
    2ffe:	cf 93       	push	r28
    3000:	df 93       	push	r29
    3002:	00 d0       	rcall	.+0      	; 0x3004 <hall_sensor_init+0x6>
    3004:	1f 92       	push	r1
    3006:	cd b7       	in	r28, 0x3d	; 61
    3008:	de b7       	in	r29, 0x3e	; 62
    300a:	84 e0       	ldi	r24, 0x04	; 4
    300c:	fe 01       	movw	r30, r28
    300e:	31 96       	adiw	r30, 0x01	; 1
    3010:	df 01       	movw	r26, r30
    3012:	98 2f       	mov	r25, r24
    3014:	1d 92       	st	X+, r1
    3016:	9a 95       	dec	r25
    3018:	e9 f7       	brne	.-6      	; 0x3014 <hall_sensor_init+0x16>
    301a:	89 83       	std	Y+1, r24	; 0x01
    301c:	8d e2       	ldi	r24, 0x2D	; 45
    301e:	8b 83       	std	Y+3, r24	; 0x03
    3020:	8f e2       	ldi	r24, 0x2F	; 47
    3022:	8a 83       	std	Y+2, r24	; 0x02
    3024:	e0 e8       	ldi	r30, 0x80	; 128
    3026:	f3 e0       	ldi	r31, 0x03	; 3
    3028:	80 81       	ld	r24, Z
    302a:	88 60       	ori	r24, 0x08	; 8
    302c:	80 83       	st	Z, r24
    302e:	61 ea       	ldi	r22, 0xA1	; 161
    3030:	77 e1       	ldi	r23, 0x17	; 23
    3032:	80 e8       	ldi	r24, 0x80	; 128
    3034:	93 e0       	ldi	r25, 0x03	; 3
    3036:	0e 94 13 03 	call	0x626	; 0x626 <ac_set_interrupt_callback>
    303a:	89 81       	ldd	r24, Y+1	; 0x01
    303c:	98 2f       	mov	r25, r24
    303e:	90 6c       	ori	r25, 0xC0	; 192
    3040:	99 83       	std	Y+1, r25	; 0x01
    3042:	9c 81       	ldd	r25, Y+4	; 0x04
    3044:	29 2f       	mov	r18, r25
    3046:	20 73       	andi	r18, 0x30	; 48
    3048:	21 f0       	breq	.+8      	; 0x3052 <hall_sensor_init+0x54>
    304a:	9c 7f       	andi	r25, 0xFC	; 252
    304c:	92 60       	ori	r25, 0x02	; 2
    304e:	9c 83       	std	Y+4, r25	; 0x04
    3050:	03 c0       	rjmp	.+6      	; 0x3058 <hall_sensor_init+0x5a>
    3052:	8f 70       	andi	r24, 0x0F	; 15
    3054:	80 6e       	ori	r24, 0xE0	; 224
    3056:	89 83       	std	Y+1, r24	; 0x01
    3058:	ae 01       	movw	r20, r28
    305a:	4f 5f       	subi	r20, 0xFF	; 255
    305c:	5f 4f       	sbci	r21, 0xFF	; 255
    305e:	60 e0       	ldi	r22, 0x00	; 0
    3060:	80 e8       	ldi	r24, 0x80	; 128
    3062:	93 e0       	ldi	r25, 0x03	; 3
    3064:	0e 94 74 02 	call	0x4e8	; 0x4e8 <ac_write_config>
    3068:	60 e0       	ldi	r22, 0x00	; 0
    306a:	80 e8       	ldi	r24, 0x80	; 128
    306c:	93 e0       	ldi	r25, 0x03	; 3
    306e:	0e 94 cb 02 	call	0x596	; 0x596 <ac_enable>
    3072:	24 96       	adiw	r28, 0x04	; 4
    3074:	cd bf       	out	0x3d, r28	; 61
    3076:	de bf       	out	0x3e, r29	; 62
    3078:	df 91       	pop	r29
    307a:	cf 91       	pop	r28
    307c:	08 95       	ret

0000307e <get_pressure>:
    307e:	4f 92       	push	r4
    3080:	5f 92       	push	r5
    3082:	6f 92       	push	r6
    3084:	7f 92       	push	r7
    3086:	8f 92       	push	r8
    3088:	9f 92       	push	r9
    308a:	af 92       	push	r10
    308c:	bf 92       	push	r11
    308e:	cf 92       	push	r12
    3090:	df 92       	push	r13
    3092:	ef 92       	push	r14
    3094:	ff 92       	push	r15
    3096:	cf 93       	push	r28
    3098:	df 93       	push	r29
    309a:	a1 dc       	rcall	.-1726   	; 0x29de <ms5607_convert_d1>
    309c:	6b 01       	movw	r12, r22
    309e:	7c 01       	movw	r14, r24
    30a0:	de dc       	rcall	.-1604   	; 0x2a5e <ms5607_convert_d2>
    30a2:	0e 94 b2 2f 	call	0x5f64	; 0x5f64 <__floatunsisf>
    30a6:	4b 01       	movw	r8, r22
    30a8:	5c 01       	movw	r10, r24
    30aa:	c3 e3       	ldi	r28, 0x33	; 51
    30ac:	d2 e2       	ldi	r29, 0x22	; 34
    30ae:	68 85       	ldd	r22, Y+8	; 0x08
    30b0:	79 85       	ldd	r23, Y+9	; 0x09
    30b2:	80 e0       	ldi	r24, 0x00	; 0
    30b4:	90 e0       	ldi	r25, 0x00	; 0
    30b6:	0e 94 b2 2f 	call	0x5f64	; 0x5f64 <__floatunsisf>
    30ba:	20 e0       	ldi	r18, 0x00	; 0
    30bc:	30 e0       	ldi	r19, 0x00	; 0
    30be:	40 e8       	ldi	r20, 0x80	; 128
    30c0:	53 e4       	ldi	r21, 0x43	; 67
    30c2:	0e 94 fb 30 	call	0x61f6	; 0x61f6 <__mulsf3>
    30c6:	9b 01       	movw	r18, r22
    30c8:	ac 01       	movw	r20, r24
    30ca:	c5 01       	movw	r24, r10
    30cc:	b4 01       	movw	r22, r8
    30ce:	0e 94 76 2e 	call	0x5cec	; 0x5cec <__subsf3>
    30d2:	4b 01       	movw	r8, r22
    30d4:	5c 01       	movw	r10, r24
    30d6:	6c 81       	ldd	r22, Y+4	; 0x04
    30d8:	7d 81       	ldd	r23, Y+5	; 0x05
    30da:	80 e0       	ldi	r24, 0x00	; 0
    30dc:	90 e0       	ldi	r25, 0x00	; 0
    30de:	0e 94 b2 2f 	call	0x5f64	; 0x5f64 <__floatunsisf>
    30e2:	a5 01       	movw	r20, r10
    30e4:	94 01       	movw	r18, r8
    30e6:	0e 94 fb 30 	call	0x61f6	; 0x61f6 <__mulsf3>
    30ea:	20 e0       	ldi	r18, 0x00	; 0
    30ec:	30 e0       	ldi	r19, 0x00	; 0
    30ee:	40 e0       	ldi	r20, 0x00	; 0
    30f0:	5c e3       	ldi	r21, 0x3C	; 60
    30f2:	0e 94 fb 30 	call	0x61f6	; 0x61f6 <__mulsf3>
    30f6:	2b 01       	movw	r4, r22
    30f8:	3c 01       	movw	r6, r24
    30fa:	68 81       	ld	r22, Y
    30fc:	79 81       	ldd	r23, Y+1	; 0x01
    30fe:	80 e0       	ldi	r24, 0x00	; 0
    3100:	90 e0       	ldi	r25, 0x00	; 0
    3102:	0e 94 b2 2f 	call	0x5f64	; 0x5f64 <__floatunsisf>
    3106:	20 e0       	ldi	r18, 0x00	; 0
    3108:	30 e0       	ldi	r19, 0x00	; 0
    310a:	40 e8       	ldi	r20, 0x80	; 128
    310c:	57 e4       	ldi	r21, 0x47	; 71
    310e:	0e 94 fb 30 	call	0x61f6	; 0x61f6 <__mulsf3>
    3112:	9b 01       	movw	r18, r22
    3114:	ac 01       	movw	r20, r24
    3116:	c3 01       	movw	r24, r6
    3118:	b2 01       	movw	r22, r4
    311a:	0e 94 77 2e 	call	0x5cee	; 0x5cee <__addsf3>
    311e:	2b 01       	movw	r4, r22
    3120:	3c 01       	movw	r6, r24
    3122:	c7 01       	movw	r24, r14
    3124:	b6 01       	movw	r22, r12
    3126:	0e 94 b2 2f 	call	0x5f64	; 0x5f64 <__floatunsisf>
    312a:	9b 01       	movw	r18, r22
    312c:	ac 01       	movw	r20, r24
    312e:	c3 01       	movw	r24, r6
    3130:	b2 01       	movw	r22, r4
    3132:	0e 94 fb 30 	call	0x61f6	; 0x61f6 <__mulsf3>
    3136:	20 e0       	ldi	r18, 0x00	; 0
    3138:	30 e0       	ldi	r19, 0x00	; 0
    313a:	40 e0       	ldi	r20, 0x00	; 0
    313c:	55 e3       	ldi	r21, 0x35	; 53
    313e:	0e 94 fb 30 	call	0x61f6	; 0x61f6 <__mulsf3>
    3142:	6b 01       	movw	r12, r22
    3144:	7c 01       	movw	r14, r24
    3146:	6e 81       	ldd	r22, Y+6	; 0x06
    3148:	7f 81       	ldd	r23, Y+7	; 0x07
    314a:	80 e0       	ldi	r24, 0x00	; 0
    314c:	90 e0       	ldi	r25, 0x00	; 0
    314e:	0e 94 b2 2f 	call	0x5f64	; 0x5f64 <__floatunsisf>
    3152:	a5 01       	movw	r20, r10
    3154:	94 01       	movw	r18, r8
    3156:	0e 94 fb 30 	call	0x61f6	; 0x61f6 <__mulsf3>
    315a:	20 e0       	ldi	r18, 0x00	; 0
    315c:	30 e0       	ldi	r19, 0x00	; 0
    315e:	40 e8       	ldi	r20, 0x80	; 128
    3160:	5c e3       	ldi	r21, 0x3C	; 60
    3162:	0e 94 fb 30 	call	0x61f6	; 0x61f6 <__mulsf3>
    3166:	4b 01       	movw	r8, r22
    3168:	5c 01       	movw	r10, r24
    316a:	6a 81       	ldd	r22, Y+2	; 0x02
    316c:	7b 81       	ldd	r23, Y+3	; 0x03
    316e:	80 e0       	ldi	r24, 0x00	; 0
    3170:	90 e0       	ldi	r25, 0x00	; 0
    3172:	0e 94 b2 2f 	call	0x5f64	; 0x5f64 <__floatunsisf>
    3176:	20 e0       	ldi	r18, 0x00	; 0
    3178:	30 e0       	ldi	r19, 0x00	; 0
    317a:	40 e0       	ldi	r20, 0x00	; 0
    317c:	58 e4       	ldi	r21, 0x48	; 72
    317e:	0e 94 fb 30 	call	0x61f6	; 0x61f6 <__mulsf3>
    3182:	9b 01       	movw	r18, r22
    3184:	ac 01       	movw	r20, r24
    3186:	c5 01       	movw	r24, r10
    3188:	b4 01       	movw	r22, r8
    318a:	0e 94 77 2e 	call	0x5cee	; 0x5cee <__addsf3>
    318e:	9b 01       	movw	r18, r22
    3190:	ac 01       	movw	r20, r24
    3192:	c7 01       	movw	r24, r14
    3194:	b6 01       	movw	r22, r12
    3196:	0e 94 76 2e 	call	0x5cec	; 0x5cec <__subsf3>
    319a:	20 e0       	ldi	r18, 0x00	; 0
    319c:	30 e0       	ldi	r19, 0x00	; 0
    319e:	40 e0       	ldi	r20, 0x00	; 0
    31a0:	58 e3       	ldi	r21, 0x38	; 56
    31a2:	0e 94 fb 30 	call	0x61f6	; 0x61f6 <__mulsf3>
    31a6:	df 91       	pop	r29
    31a8:	cf 91       	pop	r28
    31aa:	ff 90       	pop	r15
    31ac:	ef 90       	pop	r14
    31ae:	df 90       	pop	r13
    31b0:	cf 90       	pop	r12
    31b2:	bf 90       	pop	r11
    31b4:	af 90       	pop	r10
    31b6:	9f 90       	pop	r9
    31b8:	8f 90       	pop	r8
    31ba:	7f 90       	pop	r7
    31bc:	6f 90       	pop	r6
    31be:	5f 90       	pop	r5
    31c0:	4f 90       	pop	r4
    31c2:	08 95       	ret

000031c4 <get_temperature>:
    31c4:	4f 92       	push	r4
    31c6:	5f 92       	push	r5
    31c8:	6f 92       	push	r6
    31ca:	7f 92       	push	r7
    31cc:	8f 92       	push	r8
    31ce:	9f 92       	push	r9
    31d0:	af 92       	push	r10
    31d2:	bf 92       	push	r11
    31d4:	cf 92       	push	r12
    31d6:	df 92       	push	r13
    31d8:	ef 92       	push	r14
    31da:	ff 92       	push	r15
    31dc:	cf 93       	push	r28
    31de:	df 93       	push	r29
    31e0:	1f 92       	push	r1
    31e2:	1f 92       	push	r1
    31e4:	cd b7       	in	r28, 0x3d	; 61
    31e6:	de b7       	in	r29, 0x3e	; 62
    31e8:	86 db       	rcall	.-2292   	; 0x28f6 <thermistor_read>
    31ea:	89 83       	std	Y+1, r24	; 0x01
    31ec:	9a 83       	std	Y+2, r25	; 0x02
    31ee:	69 81       	ldd	r22, Y+1	; 0x01
    31f0:	7a 81       	ldd	r23, Y+2	; 0x02
    31f2:	80 e0       	ldi	r24, 0x00	; 0
    31f4:	90 e0       	ldi	r25, 0x00	; 0
    31f6:	0e 94 b2 2f 	call	0x5f64	; 0x5f64 <__floatunsisf>
    31fa:	20 91 19 20 	lds	r18, 0x2019	; 0x802019 <m>
    31fe:	30 91 1a 20 	lds	r19, 0x201A	; 0x80201a <m+0x1>
    3202:	40 91 1b 20 	lds	r20, 0x201B	; 0x80201b <m+0x2>
    3206:	50 91 1c 20 	lds	r21, 0x201C	; 0x80201c <m+0x3>
    320a:	0e 94 fb 30 	call	0x61f6	; 0x61f6 <__mulsf3>
    320e:	20 91 15 20 	lds	r18, 0x2015	; 0x802015 <b>
    3212:	30 91 16 20 	lds	r19, 0x2016	; 0x802016 <b+0x1>
    3216:	40 91 17 20 	lds	r20, 0x2017	; 0x802017 <b+0x2>
    321a:	50 91 18 20 	lds	r21, 0x2018	; 0x802018 <b+0x3>
    321e:	0e 94 77 2e 	call	0x5cee	; 0x5cee <__addsf3>
    3222:	6b 01       	movw	r12, r22
    3224:	7c 01       	movw	r14, r24
    3226:	9b 01       	movw	r18, r22
    3228:	ac 01       	movw	r20, r24
    322a:	63 e3       	ldi	r22, 0x33	; 51
    322c:	73 e3       	ldi	r23, 0x33	; 51
    322e:	83 e5       	ldi	r24, 0x53	; 83
    3230:	90 e4       	ldi	r25, 0x40	; 64
    3232:	0e 94 76 2e 	call	0x5cec	; 0x5cec <__subsf3>
    3236:	20 e0       	ldi	r18, 0x00	; 0
    3238:	30 e4       	ldi	r19, 0x40	; 64
    323a:	4e e4       	ldi	r20, 0x4E	; 78
    323c:	55 e4       	ldi	r21, 0x45	; 69
    323e:	0e 94 fb 30 	call	0x61f6	; 0x61f6 <__mulsf3>
    3242:	a7 01       	movw	r20, r14
    3244:	96 01       	movw	r18, r12
    3246:	0e 94 df 2e 	call	0x5dbe	; 0x5dbe <__divsf3>
    324a:	20 e0       	ldi	r18, 0x00	; 0
    324c:	30 e4       	ldi	r19, 0x40	; 64
    324e:	4c e1       	ldi	r20, 0x1C	; 28
    3250:	56 e4       	ldi	r21, 0x46	; 70
    3252:	0e 94 df 2e 	call	0x5dbe	; 0x5dbe <__divsf3>
    3256:	0e 94 bb 30 	call	0x6176	; 0x6176 <log>
    325a:	6b 01       	movw	r12, r22
    325c:	7c 01       	movw	r14, r24
    325e:	20 e0       	ldi	r18, 0x00	; 0
    3260:	30 e0       	ldi	r19, 0x00	; 0
    3262:	40 e4       	ldi	r20, 0x40	; 64
    3264:	50 e4       	ldi	r21, 0x40	; 64
    3266:	0e 94 5e 31 	call	0x62bc	; 0x62bc <pow>
    326a:	4b 01       	movw	r8, r22
    326c:	5c 01       	movw	r10, r24
    326e:	21 ef       	ldi	r18, 0xF1	; 241
    3270:	3b eb       	ldi	r19, 0xBB	; 187
    3272:	46 e8       	ldi	r20, 0x86	; 134
    3274:	59 e3       	ldi	r21, 0x39	; 57
    3276:	c7 01       	movw	r24, r14
    3278:	b6 01       	movw	r22, r12
    327a:	0e 94 fb 30 	call	0x61f6	; 0x61f6 <__mulsf3>
    327e:	2d e0       	ldi	r18, 0x0D	; 13
    3280:	3f ec       	ldi	r19, 0xCF	; 207
    3282:	4b e5       	ldi	r20, 0x5B	; 91
    3284:	5b e3       	ldi	r21, 0x3B	; 59
    3286:	0e 94 77 2e 	call	0x5cee	; 0x5cee <__addsf3>
    328a:	2b 01       	movw	r4, r22
    328c:	3c 01       	movw	r6, r24
    328e:	a7 01       	movw	r20, r14
    3290:	96 01       	movw	r18, r12
    3292:	c7 01       	movw	r24, r14
    3294:	b6 01       	movw	r22, r12
    3296:	0e 94 fb 30 	call	0x61f6	; 0x61f6 <__mulsf3>
    329a:	22 e8       	ldi	r18, 0x82	; 130
    329c:	35 ed       	ldi	r19, 0xD5	; 213
    329e:	4f e2       	ldi	r20, 0x2F	; 47
    32a0:	56 e3       	ldi	r21, 0x36	; 54
    32a2:	0e 94 fb 30 	call	0x61f6	; 0x61f6 <__mulsf3>
    32a6:	9b 01       	movw	r18, r22
    32a8:	ac 01       	movw	r20, r24
    32aa:	c3 01       	movw	r24, r6
    32ac:	b2 01       	movw	r22, r4
    32ae:	0e 94 77 2e 	call	0x5cee	; 0x5cee <__addsf3>
    32b2:	6b 01       	movw	r12, r22
    32b4:	7c 01       	movw	r14, r24
    32b6:	2a e6       	ldi	r18, 0x6A	; 106
    32b8:	33 e1       	ldi	r19, 0x13	; 19
    32ba:	49 e8       	ldi	r20, 0x89	; 137
    32bc:	53 e3       	ldi	r21, 0x33	; 51
    32be:	c5 01       	movw	r24, r10
    32c0:	b4 01       	movw	r22, r8
    32c2:	0e 94 fb 30 	call	0x61f6	; 0x61f6 <__mulsf3>
    32c6:	9b 01       	movw	r18, r22
    32c8:	ac 01       	movw	r20, r24
    32ca:	c7 01       	movw	r24, r14
    32cc:	b6 01       	movw	r22, r12
    32ce:	0e 94 77 2e 	call	0x5cee	; 0x5cee <__addsf3>
    32d2:	9b 01       	movw	r18, r22
    32d4:	ac 01       	movw	r20, r24
    32d6:	60 e0       	ldi	r22, 0x00	; 0
    32d8:	70 e0       	ldi	r23, 0x00	; 0
    32da:	80 e8       	ldi	r24, 0x80	; 128
    32dc:	9f e3       	ldi	r25, 0x3F	; 63
    32de:	0e 94 df 2e 	call	0x5dbe	; 0x5dbe <__divsf3>
    32e2:	0f 90       	pop	r0
    32e4:	0f 90       	pop	r0
    32e6:	df 91       	pop	r29
    32e8:	cf 91       	pop	r28
    32ea:	ff 90       	pop	r15
    32ec:	ef 90       	pop	r14
    32ee:	df 90       	pop	r13
    32f0:	cf 90       	pop	r12
    32f2:	bf 90       	pop	r11
    32f4:	af 90       	pop	r10
    32f6:	9f 90       	pop	r9
    32f8:	8f 90       	pop	r8
    32fa:	7f 90       	pop	r7
    32fc:	6f 90       	pop	r6
    32fe:	5f 90       	pop	r5
    3300:	4f 90       	pop	r4
    3302:	08 95       	ret

00003304 <get_altitude>:
    3304:	4f 92       	push	r4
    3306:	5f 92       	push	r5
    3308:	6f 92       	push	r6
    330a:	7f 92       	push	r7
    330c:	8f 92       	push	r8
    330e:	9f 92       	push	r9
    3310:	af 92       	push	r10
    3312:	bf 92       	push	r11
    3314:	cf 92       	push	r12
    3316:	df 92       	push	r13
    3318:	ef 92       	push	r14
    331a:	ff 92       	push	r15
    331c:	2b 01       	movw	r4, r22
    331e:	3c 01       	movw	r6, r24
    3320:	c0 90 2b 20 	lds	r12, 0x202B	; 0x80202b <L>
    3324:	d0 90 2c 20 	lds	r13, 0x202C	; 0x80202c <L+0x1>
    3328:	e0 90 2d 20 	lds	r14, 0x202D	; 0x80202d <L+0x2>
    332c:	f0 90 2e 20 	lds	r15, 0x202E	; 0x80202e <L+0x3>
    3330:	20 91 2f 20 	lds	r18, 0x202F	; 0x80202f <R>
    3334:	30 91 30 20 	lds	r19, 0x2030	; 0x802030 <R+0x1>
    3338:	40 91 31 20 	lds	r20, 0x2031	; 0x802031 <R+0x2>
    333c:	50 91 32 20 	lds	r21, 0x2032	; 0x802032 <R+0x3>
    3340:	c7 01       	movw	r24, r14
    3342:	b6 01       	movw	r22, r12
    3344:	0e 94 fb 30 	call	0x61f6	; 0x61f6 <__mulsf3>
    3348:	20 91 27 20 	lds	r18, 0x2027	; 0x802027 <g_0>
    334c:	30 91 28 20 	lds	r19, 0x2028	; 0x802028 <g_0+0x1>
    3350:	40 91 29 20 	lds	r20, 0x2029	; 0x802029 <g_0+0x2>
    3354:	50 91 2a 20 	lds	r21, 0x202A	; 0x80202a <g_0+0x3>
    3358:	0e 94 df 2e 	call	0x5dbe	; 0x5dbe <__divsf3>
    335c:	4b 01       	movw	r8, r22
    335e:	5c 01       	movw	r10, r24
    3360:	a3 01       	movw	r20, r6
    3362:	92 01       	movw	r18, r4
    3364:	60 91 37 20 	lds	r22, 0x2037	; 0x802037 <ground_p>
    3368:	70 91 38 20 	lds	r23, 0x2038	; 0x802038 <ground_p+0x1>
    336c:	80 91 39 20 	lds	r24, 0x2039	; 0x802039 <ground_p+0x2>
    3370:	90 91 3a 20 	lds	r25, 0x203A	; 0x80203a <ground_p+0x3>
    3374:	0e 94 df 2e 	call	0x5dbe	; 0x5dbe <__divsf3>
    3378:	a5 01       	movw	r20, r10
    337a:	94 01       	movw	r18, r8
    337c:	0e 94 5e 31 	call	0x62bc	; 0x62bc <pow>
    3380:	20 e0       	ldi	r18, 0x00	; 0
    3382:	30 e0       	ldi	r19, 0x00	; 0
    3384:	40 e8       	ldi	r20, 0x80	; 128
    3386:	5f e3       	ldi	r21, 0x3F	; 63
    3388:	0e 94 76 2e 	call	0x5cec	; 0x5cec <__subsf3>
    338c:	20 91 33 20 	lds	r18, 0x2033	; 0x802033 <ground_t>
    3390:	30 91 34 20 	lds	r19, 0x2034	; 0x802034 <ground_t+0x1>
    3394:	40 91 35 20 	lds	r20, 0x2035	; 0x802035 <ground_t+0x2>
    3398:	50 91 36 20 	lds	r21, 0x2036	; 0x802036 <ground_t+0x3>
    339c:	0e 94 fb 30 	call	0x61f6	; 0x61f6 <__mulsf3>
    33a0:	a7 01       	movw	r20, r14
    33a2:	96 01       	movw	r18, r12
    33a4:	0e 94 df 2e 	call	0x5dbe	; 0x5dbe <__divsf3>
    33a8:	ff 90       	pop	r15
    33aa:	ef 90       	pop	r14
    33ac:	df 90       	pop	r13
    33ae:	cf 90       	pop	r12
    33b0:	bf 90       	pop	r11
    33b2:	af 90       	pop	r10
    33b4:	9f 90       	pop	r9
    33b6:	8f 90       	pop	r8
    33b8:	7f 90       	pop	r7
    33ba:	6f 90       	pop	r6
    33bc:	5f 90       	pop	r5
    33be:	4f 90       	pop	r4
    33c0:	08 95       	ret

000033c2 <get_voltage>:
    33c2:	cf 92       	push	r12
    33c4:	df 92       	push	r13
    33c6:	ef 92       	push	r14
    33c8:	ff 92       	push	r15
    33ca:	2d dc       	rcall	.-1958   	; 0x2c26 <voltage_read>
    33cc:	bc 01       	movw	r22, r24
    33ce:	80 e0       	ldi	r24, 0x00	; 0
    33d0:	90 e0       	ldi	r25, 0x00	; 0
    33d2:	0e 94 b2 2f 	call	0x5f64	; 0x5f64 <__floatunsisf>
    33d6:	20 91 19 20 	lds	r18, 0x2019	; 0x802019 <m>
    33da:	30 91 1a 20 	lds	r19, 0x201A	; 0x80201a <m+0x1>
    33de:	40 91 1b 20 	lds	r20, 0x201B	; 0x80201b <m+0x2>
    33e2:	50 91 1c 20 	lds	r21, 0x201C	; 0x80201c <m+0x3>
    33e6:	0e 94 fb 30 	call	0x61f6	; 0x61f6 <__mulsf3>
    33ea:	20 91 15 20 	lds	r18, 0x2015	; 0x802015 <b>
    33ee:	30 91 16 20 	lds	r19, 0x2016	; 0x802016 <b+0x1>
    33f2:	40 91 17 20 	lds	r20, 0x2017	; 0x802017 <b+0x2>
    33f6:	50 91 18 20 	lds	r21, 0x2018	; 0x802018 <b+0x3>
    33fa:	0e 94 77 2e 	call	0x5cee	; 0x5cee <__addsf3>
    33fe:	6b 01       	movw	r12, r22
    3400:	7c 01       	movw	r14, r24
    3402:	2b e2       	ldi	r18, 0x2B	; 43
    3404:	35 eb       	ldi	r19, 0xB5	; 181
    3406:	42 e1       	ldi	r20, 0x12	; 18
    3408:	50 e4       	ldi	r21, 0x40	; 64
    340a:	0e 94 fb 30 	call	0x61f6	; 0x61f6 <__mulsf3>
    340e:	9b 01       	movw	r18, r22
    3410:	ac 01       	movw	r20, r24
    3412:	c7 01       	movw	r24, r14
    3414:	b6 01       	movw	r22, r12
    3416:	0e 94 77 2e 	call	0x5cee	; 0x5cee <__addsf3>
    341a:	ff 90       	pop	r15
    341c:	ef 90       	pop	r14
    341e:	df 90       	pop	r13
    3420:	cf 90       	pop	r12
    3422:	08 95       	ret

00003424 <diff>:
    3424:	2f 92       	push	r2
    3426:	3f 92       	push	r3
    3428:	4f 92       	push	r4
    342a:	5f 92       	push	r5
    342c:	6f 92       	push	r6
    342e:	7f 92       	push	r7
    3430:	8f 92       	push	r8
    3432:	9f 92       	push	r9
    3434:	af 92       	push	r10
    3436:	bf 92       	push	r11
    3438:	cf 92       	push	r12
    343a:	df 92       	push	r13
    343c:	ef 92       	push	r14
    343e:	ff 92       	push	r15
    3440:	0f 93       	push	r16
    3442:	1f 93       	push	r17
    3444:	cf 93       	push	r28
    3446:	df 93       	push	r29
    3448:	00 d0       	rcall	.+0      	; 0x344a <diff+0x26>
    344a:	00 d0       	rcall	.+0      	; 0x344c <diff+0x28>
    344c:	cd b7       	in	r28, 0x3d	; 61
    344e:	de b7       	in	r29, 0x3e	; 62
    3450:	6c 01       	movw	r12, r24
    3452:	80 91 14 20 	lds	r24, 0x2014	; 0x802014 <data_samples>
    3456:	88 23       	and	r24, r24
    3458:	09 f4       	brne	.+2      	; 0x345c <diff+0x38>
    345a:	6c c0       	rjmp	.+216    	; 0x3534 <diff+0x110>
    345c:	00 e0       	ldi	r16, 0x00	; 0
    345e:	10 e0       	ldi	r17, 0x00	; 0
    3460:	41 2c       	mov	r4, r1
    3462:	51 2c       	mov	r5, r1
    3464:	32 01       	movw	r6, r4
    3466:	86 2e       	mov	r8, r22
    3468:	91 2c       	mov	r9, r1
    346a:	a1 2c       	mov	r10, r1
    346c:	b1 2c       	mov	r11, r1
    346e:	89 82       	std	Y+1, r8	; 0x01
    3470:	9a 82       	std	Y+2, r9	; 0x02
    3472:	ab 82       	std	Y+3, r10	; 0x03
    3474:	bc 82       	std	Y+4, r11	; 0x04
    3476:	b8 01       	movw	r22, r16
    3478:	c6 01       	movw	r24, r12
    347a:	2b dc       	rcall	.-1962   	; 0x2cd2 <rb16_get_nth>
    347c:	5c 01       	movw	r10, r24
    347e:	18 01       	movw	r2, r16
    3480:	2f ef       	ldi	r18, 0xFF	; 255
    3482:	22 1a       	sub	r2, r18
    3484:	32 0a       	sbc	r3, r18
    3486:	b1 01       	movw	r22, r2
    3488:	c6 01       	movw	r24, r12
    348a:	23 dc       	rcall	.-1978   	; 0x2cd2 <rb16_get_nth>
    348c:	7c 01       	movw	r14, r24
    348e:	b8 01       	movw	r22, r16
    3490:	6e 5f       	subi	r22, 0xFE	; 254
    3492:	7f 4f       	sbci	r23, 0xFF	; 255
    3494:	c6 01       	movw	r24, r12
    3496:	1d dc       	rcall	.-1990   	; 0x2cd2 <rb16_get_nth>
    3498:	a5 01       	movw	r20, r10
    349a:	bb 0c       	add	r11, r11
    349c:	66 0b       	sbc	r22, r22
    349e:	77 0b       	sbc	r23, r23
    34a0:	8a 01       	movw	r16, r20
    34a2:	9b 01       	movw	r18, r22
    34a4:	00 0f       	add	r16, r16
    34a6:	11 1f       	adc	r17, r17
    34a8:	22 1f       	adc	r18, r18
    34aa:	33 1f       	adc	r19, r19
    34ac:	40 0f       	add	r20, r16
    34ae:	51 1f       	adc	r21, r17
    34b0:	62 1f       	adc	r22, r18
    34b2:	73 1f       	adc	r23, r19
    34b4:	87 01       	movw	r16, r14
    34b6:	ff 0c       	add	r15, r15
    34b8:	22 0b       	sbc	r18, r18
    34ba:	33 0b       	sbc	r19, r19
    34bc:	78 01       	movw	r14, r16
    34be:	89 01       	movw	r16, r18
    34c0:	ee 0c       	add	r14, r14
    34c2:	ff 1c       	adc	r15, r15
    34c4:	00 1f       	adc	r16, r16
    34c6:	11 1f       	adc	r17, r17
    34c8:	ee 0c       	add	r14, r14
    34ca:	ff 1c       	adc	r15, r15
    34cc:	00 1f       	adc	r16, r16
    34ce:	11 1f       	adc	r17, r17
    34d0:	4a 01       	movw	r8, r20
    34d2:	5b 01       	movw	r10, r22
    34d4:	8e 18       	sub	r8, r14
    34d6:	9f 08       	sbc	r9, r15
    34d8:	a0 0a       	sbc	r10, r16
    34da:	b1 0a       	sbc	r11, r17
    34dc:	ac 01       	movw	r20, r24
    34de:	99 0f       	add	r25, r25
    34e0:	66 0b       	sbc	r22, r22
    34e2:	77 0b       	sbc	r23, r23
    34e4:	d5 01       	movw	r26, r10
    34e6:	c4 01       	movw	r24, r8
    34e8:	84 0f       	add	r24, r20
    34ea:	95 1f       	adc	r25, r21
    34ec:	a6 1f       	adc	r26, r22
    34ee:	b7 1f       	adc	r27, r23
    34f0:	9c 01       	movw	r18, r24
    34f2:	ad 01       	movw	r20, r26
    34f4:	69 81       	ldd	r22, Y+1	; 0x01
    34f6:	7a 81       	ldd	r23, Y+2	; 0x02
    34f8:	8b 81       	ldd	r24, Y+3	; 0x03
    34fa:	9c 81       	ldd	r25, Y+4	; 0x04
    34fc:	0e 94 7e 32 	call	0x64fc	; 0x64fc <__mulsi3>
    3500:	0e 94 b4 2f 	call	0x5f68	; 0x5f68 <__floatsisf>
    3504:	20 e0       	ldi	r18, 0x00	; 0
    3506:	30 e0       	ldi	r19, 0x00	; 0
    3508:	40 e0       	ldi	r20, 0x00	; 0
    350a:	5f e3       	ldi	r21, 0x3F	; 63
    350c:	0e 94 fb 30 	call	0x61f6	; 0x61f6 <__mulsf3>
    3510:	9b 01       	movw	r18, r22
    3512:	ac 01       	movw	r20, r24
    3514:	c3 01       	movw	r24, r6
    3516:	b2 01       	movw	r22, r4
    3518:	0e 94 77 2e 	call	0x5cee	; 0x5cee <__addsf3>
    351c:	2b 01       	movw	r4, r22
    351e:	3c 01       	movw	r6, r24
    3520:	80 91 14 20 	lds	r24, 0x2014	; 0x802014 <data_samples>
    3524:	81 01       	movw	r16, r2
    3526:	28 2f       	mov	r18, r24
    3528:	30 e0       	ldi	r19, 0x00	; 0
    352a:	22 16       	cp	r2, r18
    352c:	33 06       	cpc	r3, r19
    352e:	08 f4       	brcc	.+2      	; 0x3532 <diff+0x10e>
    3530:	a2 cf       	rjmp	.-188    	; 0x3476 <diff+0x52>
    3532:	03 c0       	rjmp	.+6      	; 0x353a <diff+0x116>
    3534:	41 2c       	mov	r4, r1
    3536:	51 2c       	mov	r5, r1
    3538:	32 01       	movw	r6, r4
    353a:	68 2f       	mov	r22, r24
    353c:	70 e0       	ldi	r23, 0x00	; 0
    353e:	80 e0       	ldi	r24, 0x00	; 0
    3540:	90 e0       	ldi	r25, 0x00	; 0
    3542:	0e 94 b4 2f 	call	0x5f68	; 0x5f68 <__floatsisf>
    3546:	9b 01       	movw	r18, r22
    3548:	ac 01       	movw	r20, r24
    354a:	c3 01       	movw	r24, r6
    354c:	b2 01       	movw	r22, r4
    354e:	0e 94 df 2e 	call	0x5dbe	; 0x5dbe <__divsf3>
    3552:	20 e0       	ldi	r18, 0x00	; 0
    3554:	30 e0       	ldi	r19, 0x00	; 0
    3556:	48 ec       	ldi	r20, 0xC8	; 200
    3558:	52 e4       	ldi	r21, 0x42	; 66
    355a:	0e 94 df 2e 	call	0x5dbe	; 0x5dbe <__divsf3>
    355e:	26 96       	adiw	r28, 0x06	; 6
    3560:	cd bf       	out	0x3d, r28	; 61
    3562:	de bf       	out	0x3e, r29	; 62
    3564:	df 91       	pop	r29
    3566:	cf 91       	pop	r28
    3568:	1f 91       	pop	r17
    356a:	0f 91       	pop	r16
    356c:	ff 90       	pop	r15
    356e:	ef 90       	pop	r14
    3570:	df 90       	pop	r13
    3572:	cf 90       	pop	r12
    3574:	bf 90       	pop	r11
    3576:	af 90       	pop	r10
    3578:	9f 90       	pop	r9
    357a:	8f 90       	pop	r8
    357c:	7f 90       	pop	r7
    357e:	6f 90       	pop	r6
    3580:	5f 90       	pop	r5
    3582:	4f 90       	pop	r4
    3584:	3f 90       	pop	r3
    3586:	2f 90       	pop	r2
    3588:	08 95       	ret

0000358a <data_check>:
    358a:	3f 92       	push	r3
    358c:	4f 92       	push	r4
    358e:	5f 92       	push	r5
    3590:	6f 92       	push	r6
    3592:	7f 92       	push	r7
    3594:	8f 92       	push	r8
    3596:	9f 92       	push	r9
    3598:	af 92       	push	r10
    359a:	bf 92       	push	r11
    359c:	cf 92       	push	r12
    359e:	df 92       	push	r13
    35a0:	ef 92       	push	r14
    35a2:	ff 92       	push	r15
    35a4:	0f 93       	push	r16
    35a6:	1f 93       	push	r17
    35a8:	cf 93       	push	r28
    35aa:	df 93       	push	r29
    35ac:	00 d0       	rcall	.+0      	; 0x35ae <data_check+0x24>
    35ae:	00 d0       	rcall	.+0      	; 0x35b0 <data_check+0x26>
    35b0:	cd b7       	in	r28, 0x3d	; 61
    35b2:	de b7       	in	r29, 0x3e	; 62
    35b4:	8c 01       	movw	r16, r24
    35b6:	19 82       	std	Y+1, r1	; 0x01
    35b8:	1a 82       	std	Y+2, r1	; 0x02
    35ba:	c1 2c       	mov	r12, r1
    35bc:	d1 2c       	mov	r13, r1
    35be:	76 01       	movw	r14, r12
    35c0:	69 81       	ldd	r22, Y+1	; 0x01
    35c2:	7a 81       	ldd	r23, Y+2	; 0x02
    35c4:	c8 01       	movw	r24, r16
    35c6:	0d dc       	rcall	.-2022   	; 0x2de2 <rb32_get_nth>
    35c8:	4b 01       	movw	r8, r22
    35ca:	5c 01       	movw	r10, r24
    35cc:	21 e6       	ldi	r18, 0x61	; 97
    35ce:	82 1a       	sub	r8, r18
    35d0:	2e ea       	ldi	r18, 0xAE	; 174
    35d2:	92 0a       	sbc	r9, r18
    35d4:	2a e0       	ldi	r18, 0x0A	; 10
    35d6:	a2 0a       	sbc	r10, r18
    35d8:	b1 08       	sbc	r11, r1
    35da:	2f e7       	ldi	r18, 0x7F	; 127
    35dc:	82 16       	cp	r8, r18
    35de:	2a e1       	ldi	r18, 0x1A	; 26
    35e0:	92 06       	cpc	r9, r18
    35e2:	26 e0       	ldi	r18, 0x06	; 6
    35e4:	a2 06       	cpc	r10, r18
    35e6:	b1 04       	cpc	r11, r1
    35e8:	80 f4       	brcc	.+32     	; 0x360a <data_check+0x80>
    35ea:	0e 94 b4 2f 	call	0x5f68	; 0x5f68 <__floatsisf>
    35ee:	20 e0       	ldi	r18, 0x00	; 0
    35f0:	30 e0       	ldi	r19, 0x00	; 0
    35f2:	40 ea       	ldi	r20, 0xA0	; 160
    35f4:	50 e4       	ldi	r21, 0x40	; 64
    35f6:	0e 94 df 2e 	call	0x5dbe	; 0x5dbe <__divsf3>
    35fa:	9b 01       	movw	r18, r22
    35fc:	ac 01       	movw	r20, r24
    35fe:	c7 01       	movw	r24, r14
    3600:	b6 01       	movw	r22, r12
    3602:	0e 94 77 2e 	call	0x5cee	; 0x5cee <__addsf3>
    3606:	6b 01       	movw	r12, r22
    3608:	7c 01       	movw	r14, r24
    360a:	89 81       	ldd	r24, Y+1	; 0x01
    360c:	9a 81       	ldd	r25, Y+2	; 0x02
    360e:	01 96       	adiw	r24, 0x01	; 1
    3610:	89 83       	std	Y+1, r24	; 0x01
    3612:	9a 83       	std	Y+2, r25	; 0x02
    3614:	05 97       	sbiw	r24, 0x05	; 5
    3616:	a1 f6       	brne	.-88     	; 0x35c0 <data_check+0x36>
    3618:	19 82       	std	Y+1, r1	; 0x01
    361a:	1a 82       	std	Y+2, r1	; 0x02
    361c:	81 2c       	mov	r8, r1
    361e:	91 2c       	mov	r9, r1
    3620:	54 01       	movw	r10, r8
    3622:	69 81       	ldd	r22, Y+1	; 0x01
    3624:	7a 81       	ldd	r23, Y+2	; 0x02
    3626:	c8 01       	movw	r24, r16
    3628:	dc db       	rcall	.-2120   	; 0x2de2 <rb32_get_nth>
    362a:	2b 01       	movw	r4, r22
    362c:	3c 01       	movw	r6, r24
    362e:	21 e6       	ldi	r18, 0x61	; 97
    3630:	42 1a       	sub	r4, r18
    3632:	2e ea       	ldi	r18, 0xAE	; 174
    3634:	52 0a       	sbc	r5, r18
    3636:	2a e0       	ldi	r18, 0x0A	; 10
    3638:	62 0a       	sbc	r6, r18
    363a:	71 08       	sbc	r7, r1
    363c:	2f e7       	ldi	r18, 0x7F	; 127
    363e:	42 16       	cp	r4, r18
    3640:	2a e1       	ldi	r18, 0x1A	; 26
    3642:	52 06       	cpc	r5, r18
    3644:	26 e0       	ldi	r18, 0x06	; 6
    3646:	62 06       	cpc	r6, r18
    3648:	71 04       	cpc	r7, r1
    364a:	90 f4       	brcc	.+36     	; 0x3670 <data_check+0xe6>
    364c:	0e 94 b4 2f 	call	0x5f68	; 0x5f68 <__floatsisf>
    3650:	a7 01       	movw	r20, r14
    3652:	96 01       	movw	r18, r12
    3654:	0e 94 76 2e 	call	0x5cec	; 0x5cec <__subsf3>
    3658:	9b 01       	movw	r18, r22
    365a:	ac 01       	movw	r20, r24
    365c:	0e 94 fb 30 	call	0x61f6	; 0x61f6 <__mulsf3>
    3660:	9b 01       	movw	r18, r22
    3662:	ac 01       	movw	r20, r24
    3664:	c5 01       	movw	r24, r10
    3666:	b4 01       	movw	r22, r8
    3668:	0e 94 77 2e 	call	0x5cee	; 0x5cee <__addsf3>
    366c:	4b 01       	movw	r8, r22
    366e:	5c 01       	movw	r10, r24
    3670:	89 81       	ldd	r24, Y+1	; 0x01
    3672:	9a 81       	ldd	r25, Y+2	; 0x02
    3674:	01 96       	adiw	r24, 0x01	; 1
    3676:	89 83       	std	Y+1, r24	; 0x01
    3678:	9a 83       	std	Y+2, r25	; 0x02
    367a:	05 97       	sbiw	r24, 0x05	; 5
    367c:	91 f6       	brne	.-92     	; 0x3622 <data_check+0x98>
    367e:	20 e0       	ldi	r18, 0x00	; 0
    3680:	30 e0       	ldi	r19, 0x00	; 0
    3682:	40 e8       	ldi	r20, 0x80	; 128
    3684:	5e e3       	ldi	r21, 0x3E	; 62
    3686:	c5 01       	movw	r24, r10
    3688:	b4 01       	movw	r22, r8
    368a:	0e 94 fb 30 	call	0x61f6	; 0x61f6 <__mulsf3>
    368e:	69 83       	std	Y+1, r22	; 0x01
    3690:	7a 83       	std	Y+2, r23	; 0x02
    3692:	8b 83       	std	Y+3, r24	; 0x03
    3694:	9c 83       	std	Y+4, r25	; 0x04
    3696:	1d 82       	std	Y+5, r1	; 0x05
    3698:	1e 82       	std	Y+6, r1	; 0x06
    369a:	31 2c       	mov	r3, r1
    369c:	41 2c       	mov	r4, r1
    369e:	51 2c       	mov	r5, r1
    36a0:	32 01       	movw	r6, r4
    36a2:	6d 81       	ldd	r22, Y+5	; 0x05
    36a4:	7e 81       	ldd	r23, Y+6	; 0x06
    36a6:	c8 01       	movw	r24, r16
    36a8:	9c db       	rcall	.-2248   	; 0x2de2 <rb32_get_nth>
    36aa:	4b 01       	movw	r8, r22
    36ac:	5c 01       	movw	r10, r24
    36ae:	21 e6       	ldi	r18, 0x61	; 97
    36b0:	82 1a       	sub	r8, r18
    36b2:	2e ea       	ldi	r18, 0xAE	; 174
    36b4:	92 0a       	sbc	r9, r18
    36b6:	2a e0       	ldi	r18, 0x0A	; 10
    36b8:	a2 0a       	sbc	r10, r18
    36ba:	b1 08       	sbc	r11, r1
    36bc:	2f e7       	ldi	r18, 0x7F	; 127
    36be:	82 16       	cp	r8, r18
    36c0:	2a e1       	ldi	r18, 0x1A	; 26
    36c2:	92 06       	cpc	r9, r18
    36c4:	26 e0       	ldi	r18, 0x06	; 6
    36c6:	a2 06       	cpc	r10, r18
    36c8:	b1 04       	cpc	r11, r1
    36ca:	50 f5       	brcc	.+84     	; 0x3720 <data_check+0x196>
    36cc:	0e 94 b4 2f 	call	0x5f68	; 0x5f68 <__floatsisf>
    36d0:	4b 01       	movw	r8, r22
    36d2:	5c 01       	movw	r10, r24
    36d4:	a7 01       	movw	r20, r14
    36d6:	96 01       	movw	r18, r12
    36d8:	0e 94 76 2e 	call	0x5cec	; 0x5cec <__subsf3>
    36dc:	0e 94 81 2f 	call	0x5f02	; 0x5f02 <__fixsfsi>
    36e0:	9b 01       	movw	r18, r22
    36e2:	77 23       	and	r23, r23
    36e4:	24 f4       	brge	.+8      	; 0x36ee <data_check+0x164>
    36e6:	22 27       	eor	r18, r18
    36e8:	33 27       	eor	r19, r19
    36ea:	26 1b       	sub	r18, r22
    36ec:	37 0b       	sbc	r19, r23
    36ee:	b9 01       	movw	r22, r18
    36f0:	33 0f       	add	r19, r19
    36f2:	88 0b       	sbc	r24, r24
    36f4:	99 0b       	sbc	r25, r25
    36f6:	0e 94 b4 2f 	call	0x5f68	; 0x5f68 <__floatsisf>
    36fa:	9b 01       	movw	r18, r22
    36fc:	ac 01       	movw	r20, r24
    36fe:	69 81       	ldd	r22, Y+1	; 0x01
    3700:	7a 81       	ldd	r23, Y+2	; 0x02
    3702:	8b 81       	ldd	r24, Y+3	; 0x03
    3704:	9c 81       	ldd	r25, Y+4	; 0x04
    3706:	0e 94 b2 30 	call	0x6164	; 0x6164 <__gesf2>
    370a:	88 23       	and	r24, r24
    370c:	4c f0       	brlt	.+18     	; 0x3720 <data_check+0x196>
    370e:	a5 01       	movw	r20, r10
    3710:	94 01       	movw	r18, r8
    3712:	c3 01       	movw	r24, r6
    3714:	b2 01       	movw	r22, r4
    3716:	0e 94 77 2e 	call	0x5cee	; 0x5cee <__addsf3>
    371a:	2b 01       	movw	r4, r22
    371c:	3c 01       	movw	r6, r24
    371e:	33 94       	inc	r3
    3720:	8d 81       	ldd	r24, Y+5	; 0x05
    3722:	9e 81       	ldd	r25, Y+6	; 0x06
    3724:	01 96       	adiw	r24, 0x01	; 1
    3726:	8d 83       	std	Y+5, r24	; 0x05
    3728:	9e 83       	std	Y+6, r25	; 0x06
    372a:	05 97       	sbiw	r24, 0x05	; 5
    372c:	09 f0       	breq	.+2      	; 0x3730 <data_check+0x1a6>
    372e:	b9 cf       	rjmp	.-142    	; 0x36a2 <data_check+0x118>
    3730:	33 20       	and	r3, r3
    3732:	69 f0       	breq	.+26     	; 0x374e <data_check+0x1c4>
    3734:	63 2d       	mov	r22, r3
    3736:	70 e0       	ldi	r23, 0x00	; 0
    3738:	80 e0       	ldi	r24, 0x00	; 0
    373a:	90 e0       	ldi	r25, 0x00	; 0
    373c:	0e 94 b2 2f 	call	0x5f64	; 0x5f64 <__floatunsisf>
    3740:	9b 01       	movw	r18, r22
    3742:	ac 01       	movw	r20, r24
    3744:	c3 01       	movw	r24, r6
    3746:	b2 01       	movw	r22, r4
    3748:	0e 94 df 2e 	call	0x5dbe	; 0x5dbe <__divsf3>
    374c:	04 c0       	rjmp	.+8      	; 0x3756 <data_check+0x1cc>
    374e:	60 e0       	ldi	r22, 0x00	; 0
    3750:	70 e0       	ldi	r23, 0x00	; 0
    3752:	80 e8       	ldi	r24, 0x80	; 128
    3754:	9f eb       	ldi	r25, 0xBF	; 191
    3756:	26 96       	adiw	r28, 0x06	; 6
    3758:	cd bf       	out	0x3d, r28	; 61
    375a:	de bf       	out	0x3e, r29	; 62
    375c:	df 91       	pop	r29
    375e:	cf 91       	pop	r28
    3760:	1f 91       	pop	r17
    3762:	0f 91       	pop	r16
    3764:	ff 90       	pop	r15
    3766:	ef 90       	pop	r14
    3768:	df 90       	pop	r13
    376a:	cf 90       	pop	r12
    376c:	bf 90       	pop	r11
    376e:	af 90       	pop	r10
    3770:	9f 90       	pop	r9
    3772:	8f 90       	pop	r8
    3774:	7f 90       	pop	r7
    3776:	6f 90       	pop	r6
    3778:	5f 90       	pop	r5
    377a:	4f 90       	pop	r4
    377c:	3f 90       	pop	r3
    377e:	08 95       	ret

00003780 <data_collect>:
    3780:	af 92       	push	r10
    3782:	bf 92       	push	r11
    3784:	cf 92       	push	r12
    3786:	df 92       	push	r13
    3788:	ef 92       	push	r14
    378a:	ff 92       	push	r15
    378c:	0f 93       	push	r16
    378e:	1f 93       	push	r17
    3790:	cf 93       	push	r28
    3792:	df 93       	push	r29
    3794:	00 d0       	rcall	.+0      	; 0x3796 <data_collect+0x16>
    3796:	00 d0       	rcall	.+0      	; 0x3798 <data_collect+0x18>
    3798:	cd b7       	in	r28, 0x3d	; 61
    379a:	de b7       	in	r29, 0x3e	; 62
    379c:	5c 01       	movw	r10, r24
    379e:	8b 01       	movw	r16, r22
    37a0:	6e dc       	rcall	.-1828   	; 0x307e <get_pressure>
    37a2:	20 e0       	ldi	r18, 0x00	; 0
    37a4:	30 e0       	ldi	r19, 0x00	; 0
    37a6:	40 e2       	ldi	r20, 0x20	; 32
    37a8:	51 e4       	ldi	r21, 0x41	; 65
    37aa:	0e 94 fb 30 	call	0x61f6	; 0x61f6 <__mulsf3>
    37ae:	0e 94 81 2f 	call	0x5f02	; 0x5f02 <__fixsfsi>
    37b2:	69 83       	std	Y+1, r22	; 0x01
    37b4:	7a 83       	std	Y+2, r23	; 0x02
    37b6:	8b 83       	std	Y+3, r24	; 0x03
    37b8:	9c 83       	std	Y+4, r25	; 0x04
    37ba:	41 e0       	ldi	r20, 0x01	; 1
    37bc:	50 e0       	ldi	r21, 0x00	; 0
    37be:	be 01       	movw	r22, r28
    37c0:	6f 5f       	subi	r22, 0xFF	; 255
    37c2:	7f 4f       	sbci	r23, 0xFF	; 255
    37c4:	c8 01       	movw	r24, r16
    37c6:	b2 da       	rcall	.-2716   	; 0x2d2c <rb32_write>
    37c8:	c8 01       	movw	r24, r16
    37ca:	df de       	rcall	.-578    	; 0x358a <data_check>
    37cc:	20 e0       	ldi	r18, 0x00	; 0
    37ce:	30 e0       	ldi	r19, 0x00	; 0
    37d0:	40 e2       	ldi	r20, 0x20	; 32
    37d2:	51 e4       	ldi	r21, 0x41	; 65
    37d4:	0e 94 df 2e 	call	0x5dbe	; 0x5dbe <__divsf3>
    37d8:	6b 01       	movw	r12, r22
    37da:	7c 01       	movw	r14, r24
    37dc:	20 e0       	ldi	r18, 0x00	; 0
    37de:	30 e0       	ldi	r19, 0x00	; 0
    37e0:	40 e8       	ldi	r20, 0x80	; 128
    37e2:	5f eb       	ldi	r21, 0xBF	; 191
    37e4:	0e 94 db 2e 	call	0x5db6	; 0x5db6 <__cmpsf2>
    37e8:	88 23       	and	r24, r24
    37ea:	d1 f1       	breq	.+116    	; 0x3860 <data_collect+0xe0>
    37ec:	c0 92 18 22 	sts	0x2218, r12	; 0x802218 <press>
    37f0:	d0 92 19 22 	sts	0x2219, r13	; 0x802219 <press+0x1>
    37f4:	e0 92 1a 22 	sts	0x221A, r14	; 0x80221a <press+0x2>
    37f8:	f0 92 1b 22 	sts	0x221B, r15	; 0x80221b <press+0x3>
    37fc:	c7 01       	movw	r24, r14
    37fe:	b6 01       	movw	r22, r12
    3800:	81 dd       	rcall	.-1278   	; 0x3304 <get_altitude>
    3802:	60 93 10 22 	sts	0x2210, r22	; 0x802210 <alt>
    3806:	70 93 11 22 	sts	0x2211, r23	; 0x802211 <alt+0x1>
    380a:	80 93 12 22 	sts	0x2212, r24	; 0x802212 <alt+0x2>
    380e:	90 93 13 22 	sts	0x2213, r25	; 0x802213 <alt+0x3>
    3812:	60 91 10 22 	lds	r22, 0x2210	; 0x802210 <alt>
    3816:	70 91 11 22 	lds	r23, 0x2211	; 0x802211 <alt+0x1>
    381a:	80 91 12 22 	lds	r24, 0x2212	; 0x802212 <alt+0x2>
    381e:	90 91 13 22 	lds	r25, 0x2213	; 0x802213 <alt+0x3>
    3822:	20 e0       	ldi	r18, 0x00	; 0
    3824:	30 e0       	ldi	r19, 0x00	; 0
    3826:	48 ec       	ldi	r20, 0xC8	; 200
    3828:	52 e4       	ldi	r21, 0x42	; 66
    382a:	0e 94 fb 30 	call	0x61f6	; 0x61f6 <__mulsf3>
    382e:	0e 94 81 2f 	call	0x5f02	; 0x5f02 <__fixsfsi>
    3832:	6d 83       	std	Y+5, r22	; 0x05
    3834:	7e 83       	std	Y+6, r23	; 0x06
    3836:	41 e0       	ldi	r20, 0x01	; 1
    3838:	50 e0       	ldi	r21, 0x00	; 0
    383a:	be 01       	movw	r22, r28
    383c:	6b 5f       	subi	r22, 0xFB	; 251
    383e:	7f 4f       	sbci	r23, 0xFF	; 255
    3840:	c5 01       	movw	r24, r10
    3842:	fe d9       	rcall	.-3076   	; 0x2c40 <rb16_write>
    3844:	60 91 1f 20 	lds	r22, 0x201F	; 0x80201f <rate>
    3848:	70 91 20 20 	lds	r23, 0x2020	; 0x802020 <rate+0x1>
    384c:	c5 01       	movw	r24, r10
    384e:	ea dd       	rcall	.-1068   	; 0x3424 <diff>
    3850:	60 93 08 22 	sts	0x2208, r22	; 0x802208 <velocity>
    3854:	70 93 09 22 	sts	0x2209, r23	; 0x802209 <velocity+0x1>
    3858:	80 93 0a 22 	sts	0x220A, r24	; 0x80220a <velocity+0x2>
    385c:	90 93 0b 22 	sts	0x220B, r25	; 0x80220b <velocity+0x3>
    3860:	b1 dc       	rcall	.-1694   	; 0x31c4 <get_temperature>
    3862:	60 93 14 22 	sts	0x2214, r22	; 0x802214 <temp>
    3866:	70 93 15 22 	sts	0x2215, r23	; 0x802215 <temp+0x1>
    386a:	80 93 16 22 	sts	0x2216, r24	; 0x802216 <temp+0x2>
    386e:	90 93 17 22 	sts	0x2217, r25	; 0x802217 <temp+0x3>
    3872:	a7 dd       	rcall	.-1202   	; 0x33c2 <get_voltage>
    3874:	60 93 0c 22 	sts	0x220C, r22	; 0x80220c <volt>
    3878:	70 93 0d 22 	sts	0x220D, r23	; 0x80220d <volt+0x1>
    387c:	80 93 0e 22 	sts	0x220E, r24	; 0x80220e <volt+0x2>
    3880:	90 93 0f 22 	sts	0x220F, r25	; 0x80220f <volt+0x3>
    3884:	26 96       	adiw	r28, 0x06	; 6
    3886:	cd bf       	out	0x3d, r28	; 61
    3888:	de bf       	out	0x3e, r29	; 62
    388a:	df 91       	pop	r29
    388c:	cf 91       	pop	r28
    388e:	1f 91       	pop	r17
    3890:	0f 91       	pop	r16
    3892:	ff 90       	pop	r15
    3894:	ef 90       	pop	r14
    3896:	df 90       	pop	r13
    3898:	cf 90       	pop	r12
    389a:	bf 90       	pop	r11
    389c:	af 90       	pop	r10
    389e:	08 95       	ret

000038a0 <imu_read>:
    38a0:	4f 92       	push	r4
    38a2:	5f 92       	push	r5
    38a4:	6f 92       	push	r6
    38a6:	7f 92       	push	r7
    38a8:	8f 92       	push	r8
    38aa:	9f 92       	push	r9
    38ac:	af 92       	push	r10
    38ae:	bf 92       	push	r11
    38b0:	cf 92       	push	r12
    38b2:	df 92       	push	r13
    38b4:	ef 92       	push	r14
    38b6:	ff 92       	push	r15
    38b8:	cf 93       	push	r28
    38ba:	df 93       	push	r29
    38bc:	00 d0       	rcall	.+0      	; 0x38be <imu_read+0x1e>
    38be:	00 d0       	rcall	.+0      	; 0x38c0 <imu_read+0x20>
    38c0:	cd b7       	in	r28, 0x3d	; 61
    38c2:	de b7       	in	r29, 0x3e	; 62
    38c4:	0e 94 15 14 	call	0x282a	; 0x282a <imu_update>
    38c8:	0e 94 28 14 	call	0x2850	; 0x2850 <imu_roll>
    38cc:	20 91 2a 22 	lds	r18, 0x222A	; 0x80222a <ref_roll>
    38d0:	30 91 2b 22 	lds	r19, 0x222B	; 0x80222b <ref_roll+0x1>
    38d4:	40 91 2c 22 	lds	r20, 0x222C	; 0x80222c <ref_roll+0x2>
    38d8:	50 91 2d 22 	lds	r21, 0x222D	; 0x80222d <ref_roll+0x3>
    38dc:	0e 94 76 2e 	call	0x5cec	; 0x5cec <__subsf3>
    38e0:	6b 01       	movw	r12, r22
    38e2:	7c 01       	movw	r14, r24
    38e4:	0e 94 31 14 	call	0x2862	; 0x2862 <imu_pitch>
    38e8:	20 91 21 20 	lds	r18, 0x2021	; 0x802021 <ref_pitch>
    38ec:	30 91 22 20 	lds	r19, 0x2022	; 0x802022 <ref_pitch+0x1>
    38f0:	40 91 23 20 	lds	r20, 0x2023	; 0x802023 <ref_pitch+0x2>
    38f4:	50 91 24 20 	lds	r21, 0x2024	; 0x802024 <ref_pitch+0x3>
    38f8:	0e 94 76 2e 	call	0x5cec	; 0x5cec <__subsf3>
    38fc:	4b 01       	movw	r8, r22
    38fe:	5c 01       	movw	r10, r24
    3900:	0e 94 3a 14 	call	0x2874	; 0x2874 <imu_heading>
    3904:	20 91 2e 22 	lds	r18, 0x222E	; 0x80222e <ref_yaw>
    3908:	30 91 2f 22 	lds	r19, 0x222F	; 0x80222f <ref_yaw+0x1>
    390c:	40 91 30 22 	lds	r20, 0x2230	; 0x802230 <ref_yaw+0x2>
    3910:	50 91 31 22 	lds	r21, 0x2231	; 0x802231 <ref_yaw+0x3>
    3914:	0e 94 76 2e 	call	0x5cec	; 0x5cec <__subsf3>
    3918:	2b 01       	movw	r4, r22
    391a:	3c 01       	movw	r6, r24
    391c:	c7 01       	movw	r24, r14
    391e:	b6 01       	movw	r22, r12
    3920:	0e 94 81 2f 	call	0x5f02	; 0x5f02 <__fixsfsi>
    3924:	6d 83       	std	Y+5, r22	; 0x05
    3926:	7e 83       	std	Y+6, r23	; 0x06
    3928:	77 23       	and	r23, r23
    392a:	34 f4       	brge	.+12     	; 0x3938 <imu_read+0x98>
    392c:	22 27       	eor	r18, r18
    392e:	33 27       	eor	r19, r19
    3930:	26 1b       	sub	r18, r22
    3932:	37 0b       	sbc	r19, r23
    3934:	2d 83       	std	Y+5, r18	; 0x05
    3936:	3e 83       	std	Y+6, r19	; 0x06
    3938:	8d 81       	ldd	r24, Y+5	; 0x05
    393a:	9e 81       	ldd	r25, Y+6	; 0x06
    393c:	85 3b       	cpi	r24, 0xB5	; 181
    393e:	91 05       	cpc	r25, r1
    3940:	24 f1       	brlt	.+72     	; 0x398a <imu_read+0xea>
    3942:	20 e0       	ldi	r18, 0x00	; 0
    3944:	30 e0       	ldi	r19, 0x00	; 0
    3946:	44 eb       	ldi	r20, 0xB4	; 180
    3948:	53 e4       	ldi	r21, 0x43	; 67
    394a:	c7 01       	movw	r24, r14
    394c:	b6 01       	movw	r22, r12
    394e:	0e 94 fb 30 	call	0x61f6	; 0x61f6 <__mulsf3>
    3952:	69 83       	std	Y+1, r22	; 0x01
    3954:	7a 83       	std	Y+2, r23	; 0x02
    3956:	8b 83       	std	Y+3, r24	; 0x03
    3958:	9c 83       	std	Y+4, r25	; 0x04
    395a:	2d 81       	ldd	r18, Y+5	; 0x05
    395c:	3e 81       	ldd	r19, Y+6	; 0x06
    395e:	b9 01       	movw	r22, r18
    3960:	33 0f       	add	r19, r19
    3962:	88 0b       	sbc	r24, r24
    3964:	99 0b       	sbc	r25, r25
    3966:	0e 94 b4 2f 	call	0x5f68	; 0x5f68 <__floatsisf>
    396a:	9b 01       	movw	r18, r22
    396c:	ac 01       	movw	r20, r24
    396e:	69 81       	ldd	r22, Y+1	; 0x01
    3970:	7a 81       	ldd	r23, Y+2	; 0x02
    3972:	8b 81       	ldd	r24, Y+3	; 0x03
    3974:	9c 81       	ldd	r25, Y+4	; 0x04
    3976:	0e 94 df 2e 	call	0x5dbe	; 0x5dbe <__divsf3>
    397a:	9b 01       	movw	r18, r22
    397c:	ac 01       	movw	r20, r24
    397e:	c7 01       	movw	r24, r14
    3980:	b6 01       	movw	r22, r12
    3982:	0e 94 76 2e 	call	0x5cec	; 0x5cec <__subsf3>
    3986:	6b 01       	movw	r12, r22
    3988:	7c 01       	movw	r14, r24
    398a:	c5 01       	movw	r24, r10
    398c:	b4 01       	movw	r22, r8
    398e:	0e 94 81 2f 	call	0x5f02	; 0x5f02 <__fixsfsi>
    3992:	6d 83       	std	Y+5, r22	; 0x05
    3994:	7e 83       	std	Y+6, r23	; 0x06
    3996:	77 23       	and	r23, r23
    3998:	34 f4       	brge	.+12     	; 0x39a6 <imu_read+0x106>
    399a:	22 27       	eor	r18, r18
    399c:	33 27       	eor	r19, r19
    399e:	26 1b       	sub	r18, r22
    39a0:	37 0b       	sbc	r19, r23
    39a2:	2d 83       	std	Y+5, r18	; 0x05
    39a4:	3e 83       	std	Y+6, r19	; 0x06
    39a6:	8d 81       	ldd	r24, Y+5	; 0x05
    39a8:	9e 81       	ldd	r25, Y+6	; 0x06
    39aa:	8b 35       	cpi	r24, 0x5B	; 91
    39ac:	91 05       	cpc	r25, r1
    39ae:	24 f1       	brlt	.+72     	; 0x39f8 <imu_read+0x158>
    39b0:	20 e0       	ldi	r18, 0x00	; 0
    39b2:	30 e0       	ldi	r19, 0x00	; 0
    39b4:	44 e3       	ldi	r20, 0x34	; 52
    39b6:	53 e4       	ldi	r21, 0x43	; 67
    39b8:	c5 01       	movw	r24, r10
    39ba:	b4 01       	movw	r22, r8
    39bc:	0e 94 fb 30 	call	0x61f6	; 0x61f6 <__mulsf3>
    39c0:	69 83       	std	Y+1, r22	; 0x01
    39c2:	7a 83       	std	Y+2, r23	; 0x02
    39c4:	8b 83       	std	Y+3, r24	; 0x03
    39c6:	9c 83       	std	Y+4, r25	; 0x04
    39c8:	2d 81       	ldd	r18, Y+5	; 0x05
    39ca:	3e 81       	ldd	r19, Y+6	; 0x06
    39cc:	b9 01       	movw	r22, r18
    39ce:	33 0f       	add	r19, r19
    39d0:	88 0b       	sbc	r24, r24
    39d2:	99 0b       	sbc	r25, r25
    39d4:	0e 94 b4 2f 	call	0x5f68	; 0x5f68 <__floatsisf>
    39d8:	9b 01       	movw	r18, r22
    39da:	ac 01       	movw	r20, r24
    39dc:	69 81       	ldd	r22, Y+1	; 0x01
    39de:	7a 81       	ldd	r23, Y+2	; 0x02
    39e0:	8b 81       	ldd	r24, Y+3	; 0x03
    39e2:	9c 81       	ldd	r25, Y+4	; 0x04
    39e4:	0e 94 df 2e 	call	0x5dbe	; 0x5dbe <__divsf3>
    39e8:	9b 01       	movw	r18, r22
    39ea:	ac 01       	movw	r20, r24
    39ec:	c5 01       	movw	r24, r10
    39ee:	b4 01       	movw	r22, r8
    39f0:	0e 94 76 2e 	call	0x5cec	; 0x5cec <__subsf3>
    39f4:	4b 01       	movw	r8, r22
    39f6:	5c 01       	movw	r10, r24
    39f8:	c3 01       	movw	r24, r6
    39fa:	b2 01       	movw	r22, r4
    39fc:	0e 94 81 2f 	call	0x5f02	; 0x5f02 <__fixsfsi>
    3a00:	6d 83       	std	Y+5, r22	; 0x05
    3a02:	7e 83       	std	Y+6, r23	; 0x06
    3a04:	77 23       	and	r23, r23
    3a06:	34 f4       	brge	.+12     	; 0x3a14 <imu_read+0x174>
    3a08:	22 27       	eor	r18, r18
    3a0a:	33 27       	eor	r19, r19
    3a0c:	26 1b       	sub	r18, r22
    3a0e:	37 0b       	sbc	r19, r23
    3a10:	2d 83       	std	Y+5, r18	; 0x05
    3a12:	3e 83       	std	Y+6, r19	; 0x06
    3a14:	8d 81       	ldd	r24, Y+5	; 0x05
    3a16:	9e 81       	ldd	r25, Y+6	; 0x06
    3a18:	85 3b       	cpi	r24, 0xB5	; 181
    3a1a:	91 05       	cpc	r25, r1
    3a1c:	24 f1       	brlt	.+72     	; 0x3a66 <imu_read+0x1c6>
    3a1e:	20 e0       	ldi	r18, 0x00	; 0
    3a20:	30 e0       	ldi	r19, 0x00	; 0
    3a22:	44 eb       	ldi	r20, 0xB4	; 180
    3a24:	53 e4       	ldi	r21, 0x43	; 67
    3a26:	c3 01       	movw	r24, r6
    3a28:	b2 01       	movw	r22, r4
    3a2a:	0e 94 fb 30 	call	0x61f6	; 0x61f6 <__mulsf3>
    3a2e:	69 83       	std	Y+1, r22	; 0x01
    3a30:	7a 83       	std	Y+2, r23	; 0x02
    3a32:	8b 83       	std	Y+3, r24	; 0x03
    3a34:	9c 83       	std	Y+4, r25	; 0x04
    3a36:	2d 81       	ldd	r18, Y+5	; 0x05
    3a38:	3e 81       	ldd	r19, Y+6	; 0x06
    3a3a:	b9 01       	movw	r22, r18
    3a3c:	33 0f       	add	r19, r19
    3a3e:	88 0b       	sbc	r24, r24
    3a40:	99 0b       	sbc	r25, r25
    3a42:	0e 94 b4 2f 	call	0x5f68	; 0x5f68 <__floatsisf>
    3a46:	9b 01       	movw	r18, r22
    3a48:	ac 01       	movw	r20, r24
    3a4a:	69 81       	ldd	r22, Y+1	; 0x01
    3a4c:	7a 81       	ldd	r23, Y+2	; 0x02
    3a4e:	8b 81       	ldd	r24, Y+3	; 0x03
    3a50:	9c 81       	ldd	r25, Y+4	; 0x04
    3a52:	0e 94 df 2e 	call	0x5dbe	; 0x5dbe <__divsf3>
    3a56:	9b 01       	movw	r18, r22
    3a58:	ac 01       	movw	r20, r24
    3a5a:	c3 01       	movw	r24, r6
    3a5c:	b2 01       	movw	r22, r4
    3a5e:	0e 94 76 2e 	call	0x5cec	; 0x5cec <__subsf3>
    3a62:	2b 01       	movw	r4, r22
    3a64:	3c 01       	movw	r6, r24
    3a66:	c7 01       	movw	r24, r14
    3a68:	b6 01       	movw	r22, r12
    3a6a:	0e 94 81 2f 	call	0x5f02	; 0x5f02 <__fixsfsi>
    3a6e:	6d 54       	subi	r22, 0x4D	; 77
    3a70:	7f 4f       	sbci	r23, 0xFF	; 255
    3a72:	67 36       	cpi	r22, 0x67	; 103
    3a74:	71 40       	sbci	r23, 0x01	; 1
    3a76:	50 f5       	brcc	.+84     	; 0x3acc <imu_read+0x22c>
    3a78:	c5 01       	movw	r24, r10
    3a7a:	b4 01       	movw	r22, r8
    3a7c:	0e 94 81 2f 	call	0x5f02	; 0x5f02 <__fixsfsi>
    3a80:	67 5a       	subi	r22, 0xA7	; 167
    3a82:	7f 4f       	sbci	r23, 0xFF	; 255
    3a84:	63 3b       	cpi	r22, 0xB3	; 179
    3a86:	71 05       	cpc	r23, r1
    3a88:	08 f5       	brcc	.+66     	; 0x3acc <imu_read+0x22c>
    3a8a:	c3 01       	movw	r24, r6
    3a8c:	b2 01       	movw	r22, r4
    3a8e:	0e 94 81 2f 	call	0x5f02	; 0x5f02 <__fixsfsi>
    3a92:	6d 54       	subi	r22, 0x4D	; 77
    3a94:	7f 4f       	sbci	r23, 0xFF	; 255
    3a96:	67 36       	cpi	r22, 0x67	; 103
    3a98:	71 40       	sbci	r23, 0x01	; 1
    3a9a:	c0 f4       	brcc	.+48     	; 0x3acc <imu_read+0x22c>
    3a9c:	c0 92 ee 21 	sts	0x21EE, r12	; 0x8021ee <roll>
    3aa0:	d0 92 ef 21 	sts	0x21EF, r13	; 0x8021ef <roll+0x1>
    3aa4:	e0 92 f0 21 	sts	0x21F0, r14	; 0x8021f0 <roll+0x2>
    3aa8:	f0 92 f1 21 	sts	0x21F1, r15	; 0x8021f1 <roll+0x3>
    3aac:	80 92 f2 21 	sts	0x21F2, r8	; 0x8021f2 <pitch>
    3ab0:	90 92 f3 21 	sts	0x21F3, r9	; 0x8021f3 <pitch+0x1>
    3ab4:	a0 92 f4 21 	sts	0x21F4, r10	; 0x8021f4 <pitch+0x2>
    3ab8:	b0 92 f5 21 	sts	0x21F5, r11	; 0x8021f5 <pitch+0x3>
    3abc:	40 92 e6 21 	sts	0x21E6, r4	; 0x8021e6 <angle>
    3ac0:	50 92 e7 21 	sts	0x21E7, r5	; 0x8021e7 <angle+0x1>
    3ac4:	60 92 e8 21 	sts	0x21E8, r6	; 0x8021e8 <angle+0x2>
    3ac8:	70 92 e9 21 	sts	0x21E9, r7	; 0x8021e9 <angle+0x3>
    3acc:	26 96       	adiw	r28, 0x06	; 6
    3ace:	cd bf       	out	0x3d, r28	; 61
    3ad0:	de bf       	out	0x3e, r29	; 62
    3ad2:	df 91       	pop	r29
    3ad4:	cf 91       	pop	r28
    3ad6:	ff 90       	pop	r15
    3ad8:	ef 90       	pop	r14
    3ada:	df 90       	pop	r13
    3adc:	cf 90       	pop	r12
    3ade:	bf 90       	pop	r11
    3ae0:	af 90       	pop	r10
    3ae2:	9f 90       	pop	r9
    3ae4:	8f 90       	pop	r8
    3ae6:	7f 90       	pop	r7
    3ae8:	6f 90       	pop	r6
    3aea:	5f 90       	pop	r5
    3aec:	4f 90       	pop	r4
    3aee:	08 95       	ret

00003af0 <state_check>:
    3af0:	80 91 42 22 	lds	r24, 0x2242	; 0x802242 <state>
    3af4:	81 30       	cpi	r24, 0x01	; 1
    3af6:	81 f1       	breq	.+96     	; 0x3b58 <state_check+0x68>
    3af8:	38 f0       	brcs	.+14     	; 0x3b08 <state_check+0x18>
    3afa:	82 30       	cpi	r24, 0x02	; 2
    3afc:	09 f4       	brne	.+2      	; 0x3b00 <state_check+0x10>
    3afe:	55 c0       	rjmp	.+170    	; 0x3baa <state_check+0xba>
    3b00:	83 30       	cpi	r24, 0x03	; 3
    3b02:	09 f4       	brne	.+2      	; 0x3b06 <state_check+0x16>
    3b04:	f4 c0       	rjmp	.+488    	; 0x3cee <state_check+0x1fe>
    3b06:	7c c0       	rjmp	.+248    	; 0x3c00 <state_check+0x110>
    3b08:	60 91 08 22 	lds	r22, 0x2208	; 0x802208 <velocity>
    3b0c:	70 91 09 22 	lds	r23, 0x2209	; 0x802209 <velocity+0x1>
    3b10:	80 91 0a 22 	lds	r24, 0x220A	; 0x80220a <velocity+0x2>
    3b14:	90 91 0b 22 	lds	r25, 0x220B	; 0x80220b <velocity+0x3>
    3b18:	20 e0       	ldi	r18, 0x00	; 0
    3b1a:	30 e0       	ldi	r19, 0x00	; 0
    3b1c:	40 ea       	ldi	r20, 0xA0	; 160
    3b1e:	50 e4       	ldi	r21, 0x40	; 64
    3b20:	0e 94 db 2e 	call	0x5db6	; 0x5db6 <__cmpsf2>
    3b24:	88 23       	and	r24, r24
    3b26:	0c f0       	brlt	.+2      	; 0x3b2a <state_check+0x3a>
    3b28:	e2 c0       	rjmp	.+452    	; 0x3cee <state_check+0x1fe>
    3b2a:	60 91 10 22 	lds	r22, 0x2210	; 0x802210 <alt>
    3b2e:	70 91 11 22 	lds	r23, 0x2211	; 0x802211 <alt+0x1>
    3b32:	80 91 12 22 	lds	r24, 0x2212	; 0x802212 <alt+0x2>
    3b36:	90 91 13 22 	lds	r25, 0x2213	; 0x802213 <alt+0x3>
    3b3a:	20 e0       	ldi	r18, 0x00	; 0
    3b3c:	30 e0       	ldi	r19, 0x00	; 0
    3b3e:	41 ee       	ldi	r20, 0xE1	; 225
    3b40:	53 e4       	ldi	r21, 0x43	; 67
    3b42:	0e 94 b2 30 	call	0x6164	; 0x6164 <__gesf2>
    3b46:	18 16       	cp	r1, r24
    3b48:	0c f0       	brlt	.+2      	; 0x3b4c <state_check+0x5c>
    3b4a:	d1 c0       	rjmp	.+418    	; 0x3cee <state_check+0x1fe>
    3b4c:	80 91 42 22 	lds	r24, 0x2242	; 0x802242 <state>
    3b50:	8f 5f       	subi	r24, 0xFF	; 255
    3b52:	80 93 42 22 	sts	0x2242, r24	; 0x802242 <state>
    3b56:	08 95       	ret
    3b58:	60 91 08 22 	lds	r22, 0x2208	; 0x802208 <velocity>
    3b5c:	70 91 09 22 	lds	r23, 0x2209	; 0x802209 <velocity+0x1>
    3b60:	80 91 0a 22 	lds	r24, 0x220A	; 0x80220a <velocity+0x2>
    3b64:	90 91 0b 22 	lds	r25, 0x220B	; 0x80220b <velocity+0x3>
    3b68:	20 e0       	ldi	r18, 0x00	; 0
    3b6a:	30 e0       	ldi	r19, 0x00	; 0
    3b6c:	40 ea       	ldi	r20, 0xA0	; 160
    3b6e:	50 e4       	ldi	r21, 0x40	; 64
    3b70:	0e 94 db 2e 	call	0x5db6	; 0x5db6 <__cmpsf2>
    3b74:	88 23       	and	r24, r24
    3b76:	84 f4       	brge	.+32     	; 0x3b98 <state_check+0xa8>
    3b78:	60 91 10 22 	lds	r22, 0x2210	; 0x802210 <alt>
    3b7c:	70 91 11 22 	lds	r23, 0x2211	; 0x802211 <alt+0x1>
    3b80:	80 91 12 22 	lds	r24, 0x2212	; 0x802212 <alt+0x2>
    3b84:	90 91 13 22 	lds	r25, 0x2213	; 0x802213 <alt+0x3>
    3b88:	20 e0       	ldi	r18, 0x00	; 0
    3b8a:	30 e0       	ldi	r19, 0x00	; 0
    3b8c:	41 ee       	ldi	r20, 0xE1	; 225
    3b8e:	53 e4       	ldi	r21, 0x43	; 67
    3b90:	0e 94 db 2e 	call	0x5db6	; 0x5db6 <__cmpsf2>
    3b94:	88 23       	and	r24, r24
    3b96:	1c f0       	brlt	.+6      	; 0x3b9e <state_check+0xae>
    3b98:	81 e0       	ldi	r24, 0x01	; 1
    3b9a:	80 93 41 22 	sts	0x2241, r24	; 0x802241 <released>
    3b9e:	80 91 42 22 	lds	r24, 0x2242	; 0x802242 <state>
    3ba2:	8f 5f       	subi	r24, 0xFF	; 255
    3ba4:	80 93 42 22 	sts	0x2242, r24	; 0x802242 <state>
    3ba8:	08 95       	ret
    3baa:	60 91 08 22 	lds	r22, 0x2208	; 0x802208 <velocity>
    3bae:	70 91 09 22 	lds	r23, 0x2209	; 0x802209 <velocity+0x1>
    3bb2:	80 91 0a 22 	lds	r24, 0x220A	; 0x80220a <velocity+0x2>
    3bb6:	90 91 0b 22 	lds	r25, 0x220B	; 0x80220b <velocity+0x3>
    3bba:	0e 94 81 2f 	call	0x5f02	; 0x5f02 <__fixsfsi>
    3bbe:	9b 01       	movw	r18, r22
    3bc0:	77 23       	and	r23, r23
    3bc2:	24 f4       	brge	.+8      	; 0x3bcc <state_check+0xdc>
    3bc4:	22 27       	eor	r18, r18
    3bc6:	33 27       	eor	r19, r19
    3bc8:	26 1b       	sub	r18, r22
    3bca:	37 0b       	sbc	r19, r23
    3bcc:	25 30       	cpi	r18, 0x05	; 5
    3bce:	31 05       	cpc	r19, r1
    3bd0:	8c f0       	brlt	.+34     	; 0x3bf4 <state_check+0x104>
    3bd2:	60 91 10 22 	lds	r22, 0x2210	; 0x802210 <alt>
    3bd6:	70 91 11 22 	lds	r23, 0x2211	; 0x802211 <alt+0x1>
    3bda:	80 91 12 22 	lds	r24, 0x2212	; 0x802212 <alt+0x2>
    3bde:	90 91 13 22 	lds	r25, 0x2213	; 0x802213 <alt+0x3>
    3be2:	20 e0       	ldi	r18, 0x00	; 0
    3be4:	30 e0       	ldi	r19, 0x00	; 0
    3be6:	40 e2       	ldi	r20, 0x20	; 32
    3be8:	51 e4       	ldi	r21, 0x41	; 65
    3bea:	0e 94 db 2e 	call	0x5db6	; 0x5db6 <__cmpsf2>
    3bee:	88 23       	and	r24, r24
    3bf0:	0c f0       	brlt	.+2      	; 0x3bf4 <state_check+0x104>
    3bf2:	7d c0       	rjmp	.+250    	; 0x3cee <state_check+0x1fe>
    3bf4:	80 91 42 22 	lds	r24, 0x2242	; 0x802242 <state>
    3bf8:	8f 5f       	subi	r24, 0xFF	; 255
    3bfa:	80 93 42 22 	sts	0x2242, r24	; 0x802242 <state>
    3bfe:	08 95       	ret
    3c00:	60 91 08 22 	lds	r22, 0x2208	; 0x802208 <velocity>
    3c04:	70 91 09 22 	lds	r23, 0x2209	; 0x802209 <velocity+0x1>
    3c08:	80 91 0a 22 	lds	r24, 0x220A	; 0x80220a <velocity+0x2>
    3c0c:	90 91 0b 22 	lds	r25, 0x220B	; 0x80220b <velocity+0x3>
    3c10:	20 e0       	ldi	r18, 0x00	; 0
    3c12:	30 e0       	ldi	r19, 0x00	; 0
    3c14:	40 ea       	ldi	r20, 0xA0	; 160
    3c16:	50 e4       	ldi	r21, 0x40	; 64
    3c18:	0e 94 b2 30 	call	0x6164	; 0x6164 <__gesf2>
    3c1c:	18 16       	cp	r1, r24
    3c1e:	14 f4       	brge	.+4      	; 0x3c24 <state_check+0x134>
    3c20:	10 92 42 22 	sts	0x2242, r1	; 0x802242 <state>
    3c24:	60 91 10 22 	lds	r22, 0x2210	; 0x802210 <alt>
    3c28:	70 91 11 22 	lds	r23, 0x2211	; 0x802211 <alt+0x1>
    3c2c:	80 91 12 22 	lds	r24, 0x2212	; 0x802212 <alt+0x2>
    3c30:	90 91 13 22 	lds	r25, 0x2213	; 0x802213 <alt+0x3>
    3c34:	20 e0       	ldi	r18, 0x00	; 0
    3c36:	30 e0       	ldi	r19, 0x00	; 0
    3c38:	41 ee       	ldi	r20, 0xE1	; 225
    3c3a:	53 e4       	ldi	r21, 0x43	; 67
    3c3c:	0e 94 b2 30 	call	0x6164	; 0x6164 <__gesf2>
    3c40:	18 16       	cp	r1, r24
    3c42:	9c f4       	brge	.+38     	; 0x3c6a <state_check+0x17a>
    3c44:	60 91 08 22 	lds	r22, 0x2208	; 0x802208 <velocity>
    3c48:	70 91 09 22 	lds	r23, 0x2209	; 0x802209 <velocity+0x1>
    3c4c:	80 91 0a 22 	lds	r24, 0x220A	; 0x80220a <velocity+0x2>
    3c50:	90 91 0b 22 	lds	r25, 0x220B	; 0x80220b <velocity+0x3>
    3c54:	20 e0       	ldi	r18, 0x00	; 0
    3c56:	30 e0       	ldi	r19, 0x00	; 0
    3c58:	40 ea       	ldi	r20, 0xA0	; 160
    3c5a:	50 e4       	ldi	r21, 0x40	; 64
    3c5c:	0e 94 db 2e 	call	0x5db6	; 0x5db6 <__cmpsf2>
    3c60:	88 23       	and	r24, r24
    3c62:	1c f4       	brge	.+6      	; 0x3c6a <state_check+0x17a>
    3c64:	81 e0       	ldi	r24, 0x01	; 1
    3c66:	80 93 42 22 	sts	0x2242, r24	; 0x802242 <state>
    3c6a:	60 91 10 22 	lds	r22, 0x2210	; 0x802210 <alt>
    3c6e:	70 91 11 22 	lds	r23, 0x2211	; 0x802211 <alt+0x1>
    3c72:	80 91 12 22 	lds	r24, 0x2212	; 0x802212 <alt+0x2>
    3c76:	90 91 13 22 	lds	r25, 0x2213	; 0x802213 <alt+0x3>
    3c7a:	20 e0       	ldi	r18, 0x00	; 0
    3c7c:	30 e0       	ldi	r19, 0x00	; 0
    3c7e:	41 ee       	ldi	r20, 0xE1	; 225
    3c80:	53 e4       	ldi	r21, 0x43	; 67
    3c82:	0e 94 db 2e 	call	0x5db6	; 0x5db6 <__cmpsf2>
    3c86:	88 23       	and	r24, r24
    3c88:	3c f4       	brge	.+14     	; 0x3c98 <state_check+0x1a8>
    3c8a:	80 91 41 22 	lds	r24, 0x2241	; 0x802241 <released>
    3c8e:	88 23       	and	r24, r24
    3c90:	19 f0       	breq	.+6      	; 0x3c98 <state_check+0x1a8>
    3c92:	82 e0       	ldi	r24, 0x02	; 2
    3c94:	80 93 42 22 	sts	0x2242, r24	; 0x802242 <state>
    3c98:	60 91 08 22 	lds	r22, 0x2208	; 0x802208 <velocity>
    3c9c:	70 91 09 22 	lds	r23, 0x2209	; 0x802209 <velocity+0x1>
    3ca0:	80 91 0a 22 	lds	r24, 0x220A	; 0x80220a <velocity+0x2>
    3ca4:	90 91 0b 22 	lds	r25, 0x220B	; 0x80220b <velocity+0x3>
    3ca8:	0e 94 81 2f 	call	0x5f02	; 0x5f02 <__fixsfsi>
    3cac:	9b 01       	movw	r18, r22
    3cae:	77 23       	and	r23, r23
    3cb0:	24 f4       	brge	.+8      	; 0x3cba <state_check+0x1ca>
    3cb2:	22 27       	eor	r18, r18
    3cb4:	33 27       	eor	r19, r19
    3cb6:	26 1b       	sub	r18, r22
    3cb8:	37 0b       	sbc	r19, r23
    3cba:	25 30       	cpi	r18, 0x05	; 5
    3cbc:	31 05       	cpc	r19, r1
    3cbe:	bc f4       	brge	.+46     	; 0x3cee <state_check+0x1fe>
    3cc0:	60 91 10 22 	lds	r22, 0x2210	; 0x802210 <alt>
    3cc4:	70 91 11 22 	lds	r23, 0x2211	; 0x802211 <alt+0x1>
    3cc8:	80 91 12 22 	lds	r24, 0x2212	; 0x802212 <alt+0x2>
    3ccc:	90 91 13 22 	lds	r25, 0x2213	; 0x802213 <alt+0x3>
    3cd0:	20 e0       	ldi	r18, 0x00	; 0
    3cd2:	30 e0       	ldi	r19, 0x00	; 0
    3cd4:	40 e2       	ldi	r20, 0x20	; 32
    3cd6:	51 e4       	ldi	r21, 0x41	; 65
    3cd8:	0e 94 db 2e 	call	0x5db6	; 0x5db6 <__cmpsf2>
    3cdc:	88 23       	and	r24, r24
    3cde:	3c f4       	brge	.+14     	; 0x3cee <state_check+0x1fe>
    3ce0:	80 91 41 22 	lds	r24, 0x2241	; 0x802241 <released>
    3ce4:	88 23       	and	r24, r24
    3ce6:	19 f0       	breq	.+6      	; 0x3cee <state_check+0x1fe>
    3ce8:	83 e0       	ldi	r24, 0x03	; 3
    3cea:	80 93 42 22 	sts	0x2242, r24	; 0x802242 <state>
    3cee:	08 95       	ret

00003cf0 <release_servo_init>:
    3cf0:	61 e0       	ldi	r22, 0x01	; 1
    3cf2:	84 e0       	ldi	r24, 0x04	; 4
    3cf4:	e0 d8       	rcall	.-3648   	; 0x2eb6 <sysclk_enable_module>
    3cf6:	64 e0       	ldi	r22, 0x04	; 4
    3cf8:	84 e0       	ldi	r24, 0x04	; 4
    3cfa:	dd d8       	rcall	.-3654   	; 0x2eb6 <sysclk_enable_module>
    3cfc:	e0 e6       	ldi	r30, 0x60	; 96
    3cfe:	f6 e0       	ldi	r31, 0x06	; 6
    3d00:	80 81       	ld	r24, Z
    3d02:	87 60       	ori	r24, 0x07	; 7
    3d04:	80 83       	st	Z, r24
    3d06:	e0 e0       	ldi	r30, 0x00	; 0
    3d08:	f9 e0       	ldi	r31, 0x09	; 9
    3d0a:	85 e0       	ldi	r24, 0x05	; 5
    3d0c:	80 83       	st	Z, r24
    3d0e:	83 e1       	ldi	r24, 0x13	; 19
    3d10:	81 83       	std	Z+1, r24	; 0x01
    3d12:	80 e1       	ldi	r24, 0x10	; 16
    3d14:	97 e2       	ldi	r25, 0x27	; 39
    3d16:	86 a3       	std	Z+38, r24	; 0x26
    3d18:	97 a3       	std	Z+39, r25	; 0x27
    3d1a:	86 a1       	ldd	r24, Z+38	; 0x26
    3d1c:	97 a1       	ldd	r25, Z+39	; 0x27
    3d1e:	88 55       	subi	r24, 0x58	; 88
    3d20:	92 40       	sbci	r25, 0x02	; 2
    3d22:	80 a7       	std	Z+40, r24	; 0x28
    3d24:	91 a7       	std	Z+41, r25	; 0x29
    3d26:	08 95       	ret

00003d28 <servo_timer_init>:
    3d28:	e0 e0       	ldi	r30, 0x00	; 0
    3d2a:	f6 e0       	ldi	r31, 0x06	; 6
    3d2c:	80 81       	ld	r24, Z
    3d2e:	84 60       	ori	r24, 0x04	; 4
    3d30:	80 83       	st	Z, r24
    3d32:	84 81       	ldd	r24, Z+4	; 0x04
    3d34:	84 60       	ori	r24, 0x04	; 4
    3d36:	84 83       	std	Z+4, r24	; 0x04
    3d38:	e0 e0       	ldi	r30, 0x00	; 0
    3d3a:	f9 e0       	ldi	r31, 0x09	; 9
    3d3c:	86 a1       	ldd	r24, Z+38	; 0x26
    3d3e:	97 a1       	ldd	r25, Z+39	; 0x27
    3d40:	8e 5e       	subi	r24, 0xEE	; 238
    3d42:	92 40       	sbci	r25, 0x02	; 2
    3d44:	82 a7       	std	Z+42, r24	; 0x2a
    3d46:	93 a7       	std	Z+43, r25	; 0x2b
    3d48:	86 a1       	ldd	r24, Z+38	; 0x26
    3d4a:	97 a1       	ldd	r25, Z+39	; 0x27
    3d4c:	8e 5e       	subi	r24, 0xEE	; 238
    3d4e:	92 40       	sbci	r25, 0x02	; 2
    3d50:	84 a7       	std	Z+44, r24	; 0x2c
    3d52:	95 a7       	std	Z+45, r25	; 0x2d
    3d54:	08 95       	ret

00003d56 <servo_pid>:
    3d56:	8f 92       	push	r8
    3d58:	9f 92       	push	r9
    3d5a:	af 92       	push	r10
    3d5c:	bf 92       	push	r11
    3d5e:	cf 92       	push	r12
    3d60:	df 92       	push	r13
    3d62:	ef 92       	push	r14
    3d64:	ff 92       	push	r15
    3d66:	0f 93       	push	r16
    3d68:	1f 93       	push	r17
    3d6a:	cf 93       	push	r28
    3d6c:	df 93       	push	r29
    3d6e:	7c 01       	movw	r14, r24
    3d70:	c0 e0       	ldi	r28, 0x00	; 0
    3d72:	d0 e0       	ldi	r29, 0x00	; 0
    3d74:	00 e0       	ldi	r16, 0x00	; 0
    3d76:	10 e0       	ldi	r17, 0x00	; 0
    3d78:	be 01       	movw	r22, r28
    3d7a:	c7 01       	movw	r24, r14
    3d7c:	0e 94 69 16 	call	0x2cd2	; 0x2cd2 <rb16_get_nth>
    3d80:	08 0f       	add	r16, r24
    3d82:	19 1f       	adc	r17, r25
    3d84:	21 96       	adiw	r28, 0x01	; 1
    3d86:	ca 30       	cpi	r28, 0x0A	; 10
    3d88:	d1 05       	cpc	r29, r1
    3d8a:	b1 f7       	brne	.-20     	; 0x3d78 <servo_pid+0x22>
    3d8c:	60 e0       	ldi	r22, 0x00	; 0
    3d8e:	70 e0       	ldi	r23, 0x00	; 0
    3d90:	c7 01       	movw	r24, r14
    3d92:	0e 94 69 16 	call	0x2cd2	; 0x2cd2 <rb16_get_nth>
    3d96:	ec 01       	movw	r28, r24
    3d98:	60 91 1f 20 	lds	r22, 0x201F	; 0x80201f <rate>
    3d9c:	70 91 20 20 	lds	r23, 0x2020	; 0x802020 <rate+0x1>
    3da0:	c7 01       	movw	r24, r14
    3da2:	40 db       	rcall	.-2432   	; 0x3424 <diff>
    3da4:	6b 01       	movw	r12, r22
    3da6:	7c 01       	movw	r14, r24
    3da8:	be 01       	movw	r22, r28
    3daa:	dd 0f       	add	r29, r29
    3dac:	88 0b       	sbc	r24, r24
    3dae:	99 0b       	sbc	r25, r25
    3db0:	0e 94 b4 2f 	call	0x5f68	; 0x5f68 <__floatsisf>
    3db4:	20 e0       	ldi	r18, 0x00	; 0
    3db6:	30 e0       	ldi	r19, 0x00	; 0
    3db8:	a9 01       	movw	r20, r18
    3dba:	0e 94 fb 30 	call	0x61f6	; 0x61f6 <__mulsf3>
    3dbe:	20 e0       	ldi	r18, 0x00	; 0
    3dc0:	30 e0       	ldi	r19, 0x00	; 0
    3dc2:	48 ec       	ldi	r20, 0xC8	; 200
    3dc4:	52 e4       	ldi	r21, 0x42	; 66
    3dc6:	0e 94 df 2e 	call	0x5dbe	; 0x5dbe <__divsf3>
    3dca:	4b 01       	movw	r8, r22
    3dcc:	5c 01       	movw	r10, r24
    3dce:	b8 01       	movw	r22, r16
    3dd0:	11 0f       	add	r17, r17
    3dd2:	88 0b       	sbc	r24, r24
    3dd4:	99 0b       	sbc	r25, r25
    3dd6:	0e 94 b4 2f 	call	0x5f68	; 0x5f68 <__floatsisf>
    3dda:	20 e0       	ldi	r18, 0x00	; 0
    3ddc:	30 e0       	ldi	r19, 0x00	; 0
    3dde:	a9 01       	movw	r20, r18
    3de0:	0e 94 fb 30 	call	0x61f6	; 0x61f6 <__mulsf3>
    3de4:	20 e0       	ldi	r18, 0x00	; 0
    3de6:	30 e0       	ldi	r19, 0x00	; 0
    3de8:	48 ec       	ldi	r20, 0xC8	; 200
    3dea:	52 e4       	ldi	r21, 0x42	; 66
    3dec:	0e 94 df 2e 	call	0x5dbe	; 0x5dbe <__divsf3>
    3df0:	9b 01       	movw	r18, r22
    3df2:	ac 01       	movw	r20, r24
    3df4:	c5 01       	movw	r24, r10
    3df6:	b4 01       	movw	r22, r8
    3df8:	0e 94 77 2e 	call	0x5cee	; 0x5cee <__addsf3>
    3dfc:	4b 01       	movw	r8, r22
    3dfe:	5c 01       	movw	r10, r24
    3e00:	20 e0       	ldi	r18, 0x00	; 0
    3e02:	30 e0       	ldi	r19, 0x00	; 0
    3e04:	a9 01       	movw	r20, r18
    3e06:	c7 01       	movw	r24, r14
    3e08:	b6 01       	movw	r22, r12
    3e0a:	0e 94 fb 30 	call	0x61f6	; 0x61f6 <__mulsf3>
    3e0e:	9b 01       	movw	r18, r22
    3e10:	ac 01       	movw	r20, r24
    3e12:	c5 01       	movw	r24, r10
    3e14:	b4 01       	movw	r22, r8
    3e16:	0e 94 77 2e 	call	0x5cee	; 0x5cee <__addsf3>
    3e1a:	20 e0       	ldi	r18, 0x00	; 0
    3e1c:	30 e8       	ldi	r19, 0x80	; 128
    3e1e:	4b eb       	ldi	r20, 0xBB	; 187
    3e20:	54 e4       	ldi	r21, 0x44	; 68
    3e22:	0e 94 77 2e 	call	0x5cee	; 0x5cee <__addsf3>
    3e26:	0e 94 86 2f 	call	0x5f0c	; 0x5f0c <__fixunssfsi>
    3e2a:	60 93 25 20 	sts	0x2025, r22	; 0x802025 <servo_pulse>
    3e2e:	70 93 26 20 	sts	0x2026, r23	; 0x802026 <servo_pulse+0x1>
    3e32:	60 91 25 20 	lds	r22, 0x2025	; 0x802025 <servo_pulse>
    3e36:	70 91 26 20 	lds	r23, 0x2026	; 0x802026 <servo_pulse+0x1>
    3e3a:	80 e0       	ldi	r24, 0x00	; 0
    3e3c:	90 e0       	ldi	r25, 0x00	; 0
    3e3e:	0e 94 b2 2f 	call	0x5f64	; 0x5f64 <__floatunsisf>
    3e42:	20 e0       	ldi	r18, 0x00	; 0
    3e44:	30 e0       	ldi	r19, 0x00	; 0
    3e46:	4a e7       	ldi	r20, 0x7A	; 122
    3e48:	54 e4       	ldi	r21, 0x44	; 68
    3e4a:	0e 94 df 2e 	call	0x5dbe	; 0x5dbe <__divsf3>
    3e4e:	20 e0       	ldi	r18, 0x00	; 0
    3e50:	30 e0       	ldi	r19, 0x00	; 0
    3e52:	4a ef       	ldi	r20, 0xFA	; 250
    3e54:	53 e4       	ldi	r21, 0x43	; 67
    3e56:	0e 94 fb 30 	call	0x61f6	; 0x61f6 <__mulsf3>
    3e5a:	0e 94 86 2f 	call	0x5f0c	; 0x5f0c <__fixunssfsi>
    3e5e:	e0 e0       	ldi	r30, 0x00	; 0
    3e60:	f9 e0       	ldi	r31, 0x09	; 9
    3e62:	62 a7       	std	Z+42, r22	; 0x2a
    3e64:	73 a7       	std	Z+43, r23	; 0x2b
    3e66:	64 a7       	std	Z+44, r22	; 0x2c
    3e68:	75 a7       	std	Z+45, r23	; 0x2d
    3e6a:	df 91       	pop	r29
    3e6c:	cf 91       	pop	r28
    3e6e:	1f 91       	pop	r17
    3e70:	0f 91       	pop	r16
    3e72:	ff 90       	pop	r15
    3e74:	ef 90       	pop	r14
    3e76:	df 90       	pop	r13
    3e78:	cf 90       	pop	r12
    3e7a:	bf 90       	pop	r11
    3e7c:	af 90       	pop	r10
    3e7e:	9f 90       	pop	r9
    3e80:	8f 90       	pop	r8
    3e82:	08 95       	ret

00003e84 <clock_init>:
    3e84:	61 e0       	ldi	r22, 0x01	; 1
    3e86:	85 e0       	ldi	r24, 0x05	; 5
    3e88:	16 d8       	rcall	.-4052   	; 0x2eb6 <sysclk_enable_module>
    3e8a:	e0 e0       	ldi	r30, 0x00	; 0
    3e8c:	fa e0       	ldi	r31, 0x0A	; 10
    3e8e:	87 e0       	ldi	r24, 0x07	; 7
    3e90:	80 83       	st	Z, r24
    3e92:	81 e1       	ldi	r24, 0x11	; 17
    3e94:	9a e7       	ldi	r25, 0x7A	; 122
    3e96:	86 a3       	std	Z+38, r24	; 0x26
    3e98:	97 a3       	std	Z+39, r25	; 0x27
    3e9a:	81 e0       	ldi	r24, 0x01	; 1
    3e9c:	86 83       	std	Z+6, r24	; 0x06
    3e9e:	08 95       	ret

00003ea0 <buzzer_init>:
    3ea0:	62 e0       	ldi	r22, 0x02	; 2
    3ea2:	84 e0       	ldi	r24, 0x04	; 4
    3ea4:	08 d8       	rcall	.-4080   	; 0x2eb6 <sysclk_enable_module>
    3ea6:	64 e0       	ldi	r22, 0x04	; 4
    3ea8:	84 e0       	ldi	r24, 0x04	; 4
    3eaa:	05 d8       	rcall	.-4086   	; 0x2eb6 <sysclk_enable_module>
    3eac:	e0 e6       	ldi	r30, 0x60	; 96
    3eae:	f6 e0       	ldi	r31, 0x06	; 6
    3eb0:	80 81       	ld	r24, Z
    3eb2:	80 61       	ori	r24, 0x10	; 16
    3eb4:	80 83       	st	Z, r24
    3eb6:	e0 e4       	ldi	r30, 0x40	; 64
    3eb8:	f9 e0       	ldi	r31, 0x09	; 9
    3eba:	85 e0       	ldi	r24, 0x05	; 5
    3ebc:	80 83       	st	Z, r24
    3ebe:	83 e1       	ldi	r24, 0x13	; 19
    3ec0:	81 83       	std	Z+1, r24	; 0x01
    3ec2:	88 eb       	ldi	r24, 0xB8	; 184
    3ec4:	90 e0       	ldi	r25, 0x00	; 0
    3ec6:	86 a3       	std	Z+38, r24	; 0x26
    3ec8:	97 a3       	std	Z+39, r25	; 0x27
    3eca:	8c e5       	ldi	r24, 0x5C	; 92
    3ecc:	90 e0       	ldi	r25, 0x00	; 0
    3ece:	80 a7       	std	Z+40, r24	; 0x28
    3ed0:	91 a7       	std	Z+41, r25	; 0x29
    3ed2:	08 95       	ret

00003ed4 <buzzer_stop>:
    3ed4:	e0 e4       	ldi	r30, 0x40	; 64
    3ed6:	f9 e0       	ldi	r31, 0x09	; 9
    3ed8:	16 a2       	std	Z+38, r1	; 0x26
    3eda:	17 a2       	std	Z+39, r1	; 0x27
    3edc:	10 a6       	std	Z+40, r1	; 0x28
    3ede:	11 a6       	std	Z+41, r1	; 0x29
    3ee0:	08 95       	ret

00003ee2 <calc_rpm>:
    3ee2:	cf 92       	push	r12
    3ee4:	df 92       	push	r13
    3ee6:	ef 92       	push	r14
    3ee8:	ff 92       	push	r15
    3eea:	80 91 28 22 	lds	r24, 0x2228	; 0x802228 <ticks_per_sec>
    3eee:	90 91 29 22 	lds	r25, 0x2229	; 0x802229 <ticks_per_sec+0x1>
    3ef2:	c0 90 ea 21 	lds	r12, 0x21EA	; 0x8021ea <rpm>
    3ef6:	d0 90 eb 21 	lds	r13, 0x21EB	; 0x8021eb <rpm+0x1>
    3efa:	e0 90 ec 21 	lds	r14, 0x21EC	; 0x8021ec <rpm+0x2>
    3efe:	f0 90 ed 21 	lds	r15, 0x21ED	; 0x8021ed <rpm+0x3>
    3f02:	2c e3       	ldi	r18, 0x3C	; 60
    3f04:	28 9f       	mul	r18, r24
    3f06:	b0 01       	movw	r22, r0
    3f08:	29 9f       	mul	r18, r25
    3f0a:	70 0d       	add	r23, r0
    3f0c:	11 24       	eor	r1, r1
    3f0e:	80 e0       	ldi	r24, 0x00	; 0
    3f10:	90 e0       	ldi	r25, 0x00	; 0
    3f12:	0e 94 b2 2f 	call	0x5f64	; 0x5f64 <__floatunsisf>
    3f16:	a7 01       	movw	r20, r14
    3f18:	96 01       	movw	r18, r12
    3f1a:	0e 94 77 2e 	call	0x5cee	; 0x5cee <__addsf3>
    3f1e:	20 e0       	ldi	r18, 0x00	; 0
    3f20:	30 e0       	ldi	r19, 0x00	; 0
    3f22:	40 e0       	ldi	r20, 0x00	; 0
    3f24:	5f e3       	ldi	r21, 0x3F	; 63
    3f26:	0e 94 fb 30 	call	0x61f6	; 0x61f6 <__mulsf3>
    3f2a:	60 93 ea 21 	sts	0x21EA, r22	; 0x8021ea <rpm>
    3f2e:	70 93 eb 21 	sts	0x21EB, r23	; 0x8021eb <rpm+0x1>
    3f32:	80 93 ec 21 	sts	0x21EC, r24	; 0x8021ec <rpm+0x2>
    3f36:	90 93 ed 21 	sts	0x21ED, r25	; 0x8021ed <rpm+0x3>
    3f3a:	10 92 28 22 	sts	0x2228, r1	; 0x802228 <ticks_per_sec>
    3f3e:	10 92 29 22 	sts	0x2229, r1	; 0x802229 <ticks_per_sec+0x1>
    3f42:	ff 90       	pop	r15
    3f44:	ef 90       	pop	r14
    3f46:	df 90       	pop	r13
    3f48:	cf 90       	pop	r12
    3f4a:	08 95       	ret

00003f4c <cali_alt>:
    3f4c:	80 91 18 22 	lds	r24, 0x2218	; 0x802218 <press>
    3f50:	90 91 19 22 	lds	r25, 0x2219	; 0x802219 <press+0x1>
    3f54:	a0 91 1a 22 	lds	r26, 0x221A	; 0x80221a <press+0x2>
    3f58:	b0 91 1b 22 	lds	r27, 0x221B	; 0x80221b <press+0x3>
    3f5c:	80 93 37 20 	sts	0x2037, r24	; 0x802037 <ground_p>
    3f60:	90 93 38 20 	sts	0x2038, r25	; 0x802038 <ground_p+0x1>
    3f64:	a0 93 39 20 	sts	0x2039, r26	; 0x802039 <ground_p+0x2>
    3f68:	b0 93 3a 20 	sts	0x203A, r27	; 0x80203a <ground_p+0x3>
    3f6c:	2b d9       	rcall	.-3498   	; 0x31c4 <get_temperature>
    3f6e:	60 93 33 20 	sts	0x2033, r22	; 0x802033 <ground_t>
    3f72:	70 93 34 20 	sts	0x2034, r23	; 0x802034 <ground_t+0x1>
    3f76:	80 93 35 20 	sts	0x2035, r24	; 0x802035 <ground_t+0x2>
    3f7a:	90 93 36 20 	sts	0x2036, r25	; 0x802036 <ground_t+0x3>
    3f7e:	08 95       	ret

00003f80 <cali_ang>:
    3f80:	0e 94 28 14 	call	0x2850	; 0x2850 <imu_roll>
    3f84:	60 93 2a 22 	sts	0x222A, r22	; 0x80222a <ref_roll>
    3f88:	70 93 2b 22 	sts	0x222B, r23	; 0x80222b <ref_roll+0x1>
    3f8c:	80 93 2c 22 	sts	0x222C, r24	; 0x80222c <ref_roll+0x2>
    3f90:	90 93 2d 22 	sts	0x222D, r25	; 0x80222d <ref_roll+0x3>
    3f94:	0e 94 31 14 	call	0x2862	; 0x2862 <imu_pitch>
    3f98:	60 93 21 20 	sts	0x2021, r22	; 0x802021 <ref_pitch>
    3f9c:	70 93 22 20 	sts	0x2022, r23	; 0x802022 <ref_pitch+0x1>
    3fa0:	80 93 23 20 	sts	0x2023, r24	; 0x802023 <ref_pitch+0x2>
    3fa4:	90 93 24 20 	sts	0x2024, r25	; 0x802024 <ref_pitch+0x3>
    3fa8:	0e 94 3a 14 	call	0x2874	; 0x2874 <imu_heading>
    3fac:	60 93 2e 22 	sts	0x222E, r22	; 0x80222e <ref_yaw>
    3fb0:	70 93 2f 22 	sts	0x222F, r23	; 0x80222f <ref_yaw+0x1>
    3fb4:	80 93 30 22 	sts	0x2230, r24	; 0x802230 <ref_yaw+0x2>
    3fb8:	90 93 31 22 	sts	0x2231, r25	; 0x802231 <ref_yaw+0x3>
    3fbc:	08 95       	ret

00003fbe <calibrate>:
    3fbe:	c6 df       	rcall	.-116    	; 0x3f4c <cali_alt>
    3fc0:	df cf       	rjmp	.-66     	; 0x3f80 <cali_ang>
    3fc2:	08 95       	ret

00003fc4 <servo_release>:
    3fc4:	e0 e0       	ldi	r30, 0x00	; 0
    3fc6:	f9 e0       	ldi	r31, 0x09	; 9
    3fc8:	86 a1       	ldd	r24, Z+38	; 0x26
    3fca:	97 a1       	ldd	r25, Z+39	; 0x27
    3fcc:	88 5e       	subi	r24, 0xE8	; 232
    3fce:	93 40       	sbci	r25, 0x03	; 3
    3fd0:	80 a7       	std	Z+40, r24	; 0x28
    3fd2:	91 a7       	std	Z+41, r25	; 0x29
    3fd4:	81 e0       	ldi	r24, 0x01	; 1
    3fd6:	80 93 41 22 	sts	0x2241, r24	; 0x802241 <released>
    3fda:	08 95       	ret

00003fdc <servo_close>:

	released = 1;
}

void servo_close(void){
	TCD0.CCA = TCD0.PER - 600;
    3fdc:	e0 e0       	ldi	r30, 0x00	; 0
    3fde:	f9 e0       	ldi	r31, 0x09	; 9
    3fe0:	86 a1       	ldd	r24, Z+38	; 0x26
    3fe2:	97 a1       	ldd	r25, Z+39	; 0x27
    3fe4:	88 55       	subi	r24, 0x58	; 88
    3fe6:	92 40       	sbci	r25, 0x02	; 2
    3fe8:	80 a7       	std	Z+40, r24	; 0x28
    3fea:	91 a7       	std	Z+41, r25	; 0x29

	released = 0;
    3fec:	10 92 41 22 	sts	0x2241, r1	; 0x802241 <released>
    3ff0:	08 95       	ret

00003ff2 <packet>:
}

void packet(void){
    3ff2:	2f 92       	push	r2
    3ff4:	3f 92       	push	r3
    3ff6:	4f 92       	push	r4
    3ff8:	5f 92       	push	r5
    3ffa:	6f 92       	push	r6
    3ffc:	7f 92       	push	r7
    3ffe:	8f 92       	push	r8
    4000:	9f 92       	push	r9
    4002:	af 92       	push	r10
    4004:	bf 92       	push	r11
    4006:	cf 92       	push	r12
    4008:	df 92       	push	r13
    400a:	ef 92       	push	r14
    400c:	ff 92       	push	r15
    400e:	0f 93       	push	r16
    4010:	1f 93       	push	r17
    4012:	cf 93       	push	r28
    4014:	df 93       	push	r29
    4016:	cd b7       	in	r28, 0x3d	; 61
    4018:	de b7       	in	r29, 0x3e	; 62
    401a:	e9 97       	sbiw	r28, 0x39	; 57
    401c:	cd bf       	out	0x3d, r28	; 61
    401e:	de bf       	out	0x3e, r29	; 62
	//XBEE_spi_write(str);
	packets++;
    4020:	80 91 1c 22 	lds	r24, 0x221C	; 0x80221c <packets>
    4024:	90 91 1d 22 	lds	r25, 0x221D	; 0x80221d <packets+0x1>
    4028:	01 96       	adiw	r24, 0x01	; 1
    402a:	80 93 1c 22 	sts	0x221C, r24	; 0x80221c <packets>
    402e:	90 93 1d 22 	sts	0x221D, r25	; 0x80221d <packets+0x1>
	sprintf(str,format,timer/10,timer%10,packets,
    4032:	60 91 e6 21 	lds	r22, 0x21E6	; 0x8021e6 <angle>
    4036:	70 91 e7 21 	lds	r23, 0x21E7	; 0x8021e7 <angle+0x1>
    403a:	80 91 e8 21 	lds	r24, 0x21E8	; 0x8021e8 <angle+0x2>
    403e:	90 91 e9 21 	lds	r25, 0x21E9	; 0x8021e9 <angle+0x3>
    4042:	20 91 42 22 	lds	r18, 0x2242	; 0x802242 <state>
    4046:	29 83       	std	Y+1, r18	; 0x01
    4048:	40 90 ea 21 	lds	r4, 0x21EA	; 0x8021ea <rpm>
    404c:	50 90 eb 21 	lds	r5, 0x21EB	; 0x8021eb <rpm+0x1>
    4050:	60 90 ec 21 	lds	r6, 0x21EC	; 0x8021ec <rpm+0x2>
    4054:	70 90 ed 21 	lds	r7, 0x21ED	; 0x8021ed <rpm+0x3>
    4058:	80 90 ee 21 	lds	r8, 0x21EE	; 0x8021ee <roll>
    405c:	90 90 ef 21 	lds	r9, 0x21EF	; 0x8021ef <roll+0x1>
    4060:	a0 90 f0 21 	lds	r10, 0x21F0	; 0x8021f0 <roll+0x2>
    4064:	b0 90 f1 21 	lds	r11, 0x21F1	; 0x8021f1 <roll+0x3>
    4068:	c0 90 f2 21 	lds	r12, 0x21F2	; 0x8021f2 <pitch>
    406c:	d0 90 f3 21 	lds	r13, 0x21F3	; 0x8021f3 <pitch+0x1>
    4070:	e0 90 f4 21 	lds	r14, 0x21F4	; 0x8021f4 <pitch+0x2>
    4074:	f0 90 f5 21 	lds	r15, 0x21F5	; 0x8021f5 <pitch+0x3>
    4078:	40 91 f6 21 	lds	r20, 0x21F6	; 0x8021f6 <gps_sats>
    407c:	50 91 f7 21 	lds	r21, 0x21F7	; 0x8021f7 <gps_sats+0x1>
    4080:	48 af       	std	Y+56, r20	; 0x38
    4082:	59 af       	std	Y+57, r21	; 0x39
	(int16_t) (alt),						(int32_t) press,							(int16_t) (temp-273.15),				(int16_t)volt,
	(int16_t) (((int32_t)gps_t)/10000),		(int16_t) ((((int32_t)gps_t)%10000)/100),	(int16_t) (((int32_t)gps_t)%100),
	(int16_t) gps_lat,						((int32_t) (gps_lat*1000000))%1000000,		(int16_t) gps_long,						(int32_t)(abs(((int32_t)(gps_long*1000000))%1000000)),
	(int16_t) gps_alt,						((int16_t) (gps_alt)*10)%10,				gps_sats,
    4084:	20 91 f8 21 	lds	r18, 0x21F8	; 0x8021f8 <gps_alt>
    4088:	30 91 f9 21 	lds	r19, 0x21F9	; 0x8021f9 <gps_alt+0x1>
    408c:	40 91 fa 21 	lds	r20, 0x21FA	; 0x8021fa <gps_alt+0x2>
    4090:	50 91 fb 21 	lds	r21, 0x21FB	; 0x8021fb <gps_alt+0x3>
    4094:	2a 83       	std	Y+2, r18	; 0x02
    4096:	3b 83       	std	Y+3, r19	; 0x03
    4098:	4c 83       	std	Y+4, r20	; 0x04
    409a:	5d 83       	std	Y+5, r21	; 0x05
}

void packet(void){
	//XBEE_spi_write(str);
	packets++;
	sprintf(str,format,timer/10,timer%10,packets,
    409c:	20 91 f8 21 	lds	r18, 0x21F8	; 0x8021f8 <gps_alt>
    40a0:	30 91 f9 21 	lds	r19, 0x21F9	; 0x8021f9 <gps_alt+0x1>
    40a4:	40 91 fa 21 	lds	r20, 0x21FA	; 0x8021fa <gps_alt+0x2>
    40a8:	50 91 fb 21 	lds	r21, 0x21FB	; 0x8021fb <gps_alt+0x3>
    40ac:	2e 83       	std	Y+6, r18	; 0x06
    40ae:	3f 83       	std	Y+7, r19	; 0x07
    40b0:	48 87       	std	Y+8, r20	; 0x08
    40b2:	59 87       	std	Y+9, r21	; 0x09
	(int16_t) (alt),						(int32_t) press,							(int16_t) (temp-273.15),				(int16_t)volt,
	(int16_t) (((int32_t)gps_t)/10000),		(int16_t) ((((int32_t)gps_t)%10000)/100),	(int16_t) (((int32_t)gps_t)%100),
	(int16_t) gps_lat,						((int32_t) (gps_lat*1000000))%1000000,		(int16_t) gps_long,						(int32_t)(abs(((int32_t)(gps_long*1000000))%1000000)),
    40b4:	20 91 fc 21 	lds	r18, 0x21FC	; 0x8021fc <gps_long>
    40b8:	30 91 fd 21 	lds	r19, 0x21FD	; 0x8021fd <gps_long+0x1>
    40bc:	40 91 fe 21 	lds	r20, 0x21FE	; 0x8021fe <gps_long+0x2>
    40c0:	50 91 ff 21 	lds	r21, 0x21FF	; 0x8021ff <gps_long+0x3>
    40c4:	2a 87       	std	Y+10, r18	; 0x0a
    40c6:	3b 87       	std	Y+11, r19	; 0x0b
    40c8:	4c 87       	std	Y+12, r20	; 0x0c
    40ca:	5d 87       	std	Y+13, r21	; 0x0d
}

void packet(void){
	//XBEE_spi_write(str);
	packets++;
	sprintf(str,format,timer/10,timer%10,packets,
    40cc:	20 91 fc 21 	lds	r18, 0x21FC	; 0x8021fc <gps_long>
    40d0:	30 91 fd 21 	lds	r19, 0x21FD	; 0x8021fd <gps_long+0x1>
    40d4:	40 91 fe 21 	lds	r20, 0x21FE	; 0x8021fe <gps_long+0x2>
    40d8:	50 91 ff 21 	lds	r21, 0x21FF	; 0x8021ff <gps_long+0x3>
    40dc:	2e 87       	std	Y+14, r18	; 0x0e
    40de:	3f 87       	std	Y+15, r19	; 0x0f
    40e0:	48 8b       	std	Y+16, r20	; 0x10
    40e2:	59 8b       	std	Y+17, r21	; 0x11
	(int16_t) (alt),						(int32_t) press,							(int16_t) (temp-273.15),				(int16_t)volt,
	(int16_t) (((int32_t)gps_t)/10000),		(int16_t) ((((int32_t)gps_t)%10000)/100),	(int16_t) (((int32_t)gps_t)%100),
	(int16_t) gps_lat,						((int32_t) (gps_lat*1000000))%1000000,		(int16_t) gps_long,						(int32_t)(abs(((int32_t)(gps_long*1000000))%1000000)),
    40e4:	20 91 00 22 	lds	r18, 0x2200	; 0x802200 <gps_lat>
    40e8:	30 91 01 22 	lds	r19, 0x2201	; 0x802201 <gps_lat+0x1>
    40ec:	40 91 02 22 	lds	r20, 0x2202	; 0x802202 <gps_lat+0x2>
    40f0:	50 91 03 22 	lds	r21, 0x2203	; 0x802203 <gps_lat+0x3>
    40f4:	2a 8b       	std	Y+18, r18	; 0x12
    40f6:	3b 8b       	std	Y+19, r19	; 0x13
    40f8:	4c 8b       	std	Y+20, r20	; 0x14
    40fa:	5d 8b       	std	Y+21, r21	; 0x15
}

void packet(void){
	//XBEE_spi_write(str);
	packets++;
	sprintf(str,format,timer/10,timer%10,packets,
    40fc:	20 91 00 22 	lds	r18, 0x2200	; 0x802200 <gps_lat>
    4100:	30 91 01 22 	lds	r19, 0x2201	; 0x802201 <gps_lat+0x1>
    4104:	40 91 02 22 	lds	r20, 0x2202	; 0x802202 <gps_lat+0x2>
    4108:	50 91 03 22 	lds	r21, 0x2203	; 0x802203 <gps_lat+0x3>
    410c:	2e 8b       	std	Y+22, r18	; 0x16
    410e:	3f 8b       	std	Y+23, r19	; 0x17
    4110:	48 8f       	std	Y+24, r20	; 0x18
    4112:	59 8f       	std	Y+25, r21	; 0x19
	(int16_t) (alt),						(int32_t) press,							(int16_t) (temp-273.15),				(int16_t)volt,
	(int16_t) (((int32_t)gps_t)/10000),		(int16_t) ((((int32_t)gps_t)%10000)/100),	(int16_t) (((int32_t)gps_t)%100),
    4114:	20 91 04 22 	lds	r18, 0x2204	; 0x802204 <gps_t>
    4118:	30 91 05 22 	lds	r19, 0x2205	; 0x802205 <gps_t+0x1>
    411c:	40 91 06 22 	lds	r20, 0x2206	; 0x802206 <gps_t+0x2>
    4120:	50 91 07 22 	lds	r21, 0x2207	; 0x802207 <gps_t+0x3>
    4124:	2a 8f       	std	Y+26, r18	; 0x1a
    4126:	3b 8f       	std	Y+27, r19	; 0x1b
    4128:	4c 8f       	std	Y+28, r20	; 0x1c
    412a:	5d 8f       	std	Y+29, r21	; 0x1d
    412c:	20 91 04 22 	lds	r18, 0x2204	; 0x802204 <gps_t>
    4130:	30 91 05 22 	lds	r19, 0x2205	; 0x802205 <gps_t+0x1>
    4134:	40 91 06 22 	lds	r20, 0x2206	; 0x802206 <gps_t+0x2>
    4138:	50 91 07 22 	lds	r21, 0x2207	; 0x802207 <gps_t+0x3>
    413c:	2e 8f       	std	Y+30, r18	; 0x1e
    413e:	3f 8f       	std	Y+31, r19	; 0x1f
    4140:	48 a3       	std	Y+32, r20	; 0x20
    4142:	59 a3       	std	Y+33, r21	; 0x21
    4144:	20 91 04 22 	lds	r18, 0x2204	; 0x802204 <gps_t>
    4148:	30 91 05 22 	lds	r19, 0x2205	; 0x802205 <gps_t+0x1>
    414c:	40 91 06 22 	lds	r20, 0x2206	; 0x802206 <gps_t+0x2>
    4150:	50 91 07 22 	lds	r21, 0x2207	; 0x802207 <gps_t+0x3>
    4154:	2a a3       	std	Y+34, r18	; 0x22
    4156:	3b a3       	std	Y+35, r19	; 0x23
    4158:	4c a3       	std	Y+36, r20	; 0x24
    415a:	5d a3       	std	Y+37, r21	; 0x25
}

void packet(void){
	//XBEE_spi_write(str);
	packets++;
	sprintf(str,format,timer/10,timer%10,packets,
    415c:	20 91 0c 22 	lds	r18, 0x220C	; 0x80220c <volt>
    4160:	30 91 0d 22 	lds	r19, 0x220D	; 0x80220d <volt+0x1>
    4164:	40 91 0e 22 	lds	r20, 0x220E	; 0x80220e <volt+0x2>
    4168:	50 91 0f 22 	lds	r21, 0x220F	; 0x80220f <volt+0x3>
    416c:	2e a3       	std	Y+38, r18	; 0x26
    416e:	3f a3       	std	Y+39, r19	; 0x27
    4170:	48 a7       	std	Y+40, r20	; 0x28
    4172:	59 a7       	std	Y+41, r21	; 0x29
	(int16_t) (alt),						(int32_t) press,							(int16_t) (temp-273.15),				(int16_t)volt,
    4174:	20 91 14 22 	lds	r18, 0x2214	; 0x802214 <temp>
    4178:	30 91 15 22 	lds	r19, 0x2215	; 0x802215 <temp+0x1>
    417c:	40 91 16 22 	lds	r20, 0x2216	; 0x802216 <temp+0x2>
    4180:	50 91 17 22 	lds	r21, 0x2217	; 0x802217 <temp+0x3>
    4184:	2a a7       	std	Y+42, r18	; 0x2a
    4186:	3b a7       	std	Y+43, r19	; 0x2b
    4188:	4c a7       	std	Y+44, r20	; 0x2c
    418a:	5d a7       	std	Y+45, r21	; 0x2d
}

void packet(void){
	//XBEE_spi_write(str);
	packets++;
	sprintf(str,format,timer/10,timer%10,packets,
    418c:	20 91 18 22 	lds	r18, 0x2218	; 0x802218 <press>
    4190:	30 91 19 22 	lds	r19, 0x2219	; 0x802219 <press+0x1>
    4194:	40 91 1a 22 	lds	r20, 0x221A	; 0x80221a <press+0x2>
    4198:	50 91 1b 22 	lds	r21, 0x221B	; 0x80221b <press+0x3>
    419c:	2e a7       	std	Y+46, r18	; 0x2e
    419e:	3f a7       	std	Y+47, r19	; 0x2f
    41a0:	48 ab       	std	Y+48, r20	; 0x30
    41a2:	59 ab       	std	Y+49, r21	; 0x31
    41a4:	20 91 10 22 	lds	r18, 0x2210	; 0x802210 <alt>
    41a8:	30 91 11 22 	lds	r19, 0x2211	; 0x802211 <alt+0x1>
    41ac:	40 91 12 22 	lds	r20, 0x2212	; 0x802212 <alt+0x2>
    41b0:	50 91 13 22 	lds	r21, 0x2213	; 0x802213 <alt+0x3>
    41b4:	2a ab       	std	Y+50, r18	; 0x32
    41b6:	3b ab       	std	Y+51, r19	; 0x33
    41b8:	4c ab       	std	Y+52, r20	; 0x34
    41ba:	5d ab       	std	Y+53, r21	; 0x35
    41bc:	00 91 1c 22 	lds	r16, 0x221C	; 0x80221c <packets>
    41c0:	10 91 1d 22 	lds	r17, 0x221D	; 0x80221d <packets+0x1>
    41c4:	20 90 20 22 	lds	r2, 0x2220	; 0x802220 <timer>
    41c8:	30 90 21 22 	lds	r3, 0x2221	; 0x802221 <timer+0x1>
    41cc:	40 91 20 22 	lds	r20, 0x2220	; 0x802220 <timer>
    41d0:	50 91 21 22 	lds	r21, 0x2221	; 0x802221 <timer+0x1>
    41d4:	4e ab       	std	Y+54, r20	; 0x36
    41d6:	5f ab       	std	Y+55, r21	; 0x37
    41d8:	0e 94 81 2f 	call	0x5f02	; 0x5f02 <__fixsfsi>
    41dc:	7f 93       	push	r23
    41de:	6f 93       	push	r22
    41e0:	1f 92       	push	r1
    41e2:	59 81       	ldd	r21, Y+1	; 0x01
    41e4:	5f 93       	push	r21
    41e6:	c3 01       	movw	r24, r6
    41e8:	b2 01       	movw	r22, r4
    41ea:	0e 94 81 2f 	call	0x5f02	; 0x5f02 <__fixsfsi>
    41ee:	7f 93       	push	r23
    41f0:	6f 93       	push	r22
    41f2:	c5 01       	movw	r24, r10
    41f4:	b4 01       	movw	r22, r8
    41f6:	0e 94 81 2f 	call	0x5f02	; 0x5f02 <__fixsfsi>
    41fa:	7f 93       	push	r23
    41fc:	6f 93       	push	r22
    41fe:	c7 01       	movw	r24, r14
    4200:	b6 01       	movw	r22, r12
    4202:	0e 94 81 2f 	call	0x5f02	; 0x5f02 <__fixsfsi>
    4206:	7f 93       	push	r23
    4208:	6f 93       	push	r22
    420a:	89 ad       	ldd	r24, Y+57	; 0x39
    420c:	8f 93       	push	r24
    420e:	98 ad       	ldd	r25, Y+56	; 0x38
    4210:	9f 93       	push	r25
    4212:	6a 81       	ldd	r22, Y+2	; 0x02
    4214:	7b 81       	ldd	r23, Y+3	; 0x03
    4216:	8c 81       	ldd	r24, Y+4	; 0x04
    4218:	9d 81       	ldd	r25, Y+5	; 0x05
    421a:	0e 94 81 2f 	call	0x5f02	; 0x5f02 <__fixsfsi>
    421e:	9b 01       	movw	r18, r22
    4220:	22 0f       	add	r18, r18
    4222:	33 1f       	adc	r19, r19
    4224:	66 0f       	add	r22, r22
    4226:	77 1f       	adc	r23, r23
    4228:	66 0f       	add	r22, r22
    422a:	77 1f       	adc	r23, r23
    422c:	66 0f       	add	r22, r22
    422e:	77 1f       	adc	r23, r23
    4230:	c9 01       	movw	r24, r18
    4232:	86 0f       	add	r24, r22
    4234:	97 1f       	adc	r25, r23
    4236:	6a e0       	ldi	r22, 0x0A	; 10
    4238:	70 e0       	ldi	r23, 0x00	; 0
    423a:	0e 94 a1 32 	call	0x6542	; 0x6542 <__divmodhi4>
    423e:	9f 93       	push	r25
    4240:	8f 93       	push	r24
    4242:	6e 81       	ldd	r22, Y+6	; 0x06
    4244:	7f 81       	ldd	r23, Y+7	; 0x07
    4246:	88 85       	ldd	r24, Y+8	; 0x08
    4248:	99 85       	ldd	r25, Y+9	; 0x09
    424a:	0e 94 81 2f 	call	0x5f02	; 0x5f02 <__fixsfsi>
    424e:	7f 93       	push	r23
    4250:	6f 93       	push	r22
    4252:	20 e0       	ldi	r18, 0x00	; 0
    4254:	34 e2       	ldi	r19, 0x24	; 36
    4256:	44 e7       	ldi	r20, 0x74	; 116
    4258:	59 e4       	ldi	r21, 0x49	; 73
    425a:	6a 85       	ldd	r22, Y+10	; 0x0a
    425c:	7b 85       	ldd	r23, Y+11	; 0x0b
    425e:	8c 85       	ldd	r24, Y+12	; 0x0c
    4260:	9d 85       	ldd	r25, Y+13	; 0x0d
    4262:	0e 94 fb 30 	call	0x61f6	; 0x61f6 <__mulsf3>
    4266:	0e 94 81 2f 	call	0x5f02	; 0x5f02 <__fixsfsi>
    426a:	20 e4       	ldi	r18, 0x40	; 64
    426c:	32 e4       	ldi	r19, 0x42	; 66
    426e:	4f e0       	ldi	r20, 0x0F	; 15
    4270:	50 e0       	ldi	r21, 0x00	; 0
    4272:	0e 94 d6 32 	call	0x65ac	; 0x65ac <__divmodsi4>
    4276:	9b 01       	movw	r18, r22
    4278:	77 23       	and	r23, r23
    427a:	24 f4       	brge	.+8      	; 0x4284 <__stack+0x285>
    427c:	22 27       	eor	r18, r18
    427e:	33 27       	eor	r19, r19
    4280:	26 1b       	sub	r18, r22
    4282:	37 0b       	sbc	r19, r23
    4284:	c9 01       	movw	r24, r18
    4286:	33 0f       	add	r19, r19
    4288:	aa 0b       	sbc	r26, r26
    428a:	bb 0b       	sbc	r27, r27
    428c:	bf 93       	push	r27
    428e:	af 93       	push	r26
    4290:	9f 93       	push	r25
    4292:	8f 93       	push	r24
    4294:	6e 85       	ldd	r22, Y+14	; 0x0e
    4296:	7f 85       	ldd	r23, Y+15	; 0x0f
    4298:	88 89       	ldd	r24, Y+16	; 0x10
    429a:	99 89       	ldd	r25, Y+17	; 0x11
    429c:	0e 94 81 2f 	call	0x5f02	; 0x5f02 <__fixsfsi>
    42a0:	7f 93       	push	r23
    42a2:	6f 93       	push	r22
    42a4:	20 e0       	ldi	r18, 0x00	; 0
    42a6:	34 e2       	ldi	r19, 0x24	; 36
    42a8:	44 e7       	ldi	r20, 0x74	; 116
    42aa:	59 e4       	ldi	r21, 0x49	; 73
    42ac:	6a 89       	ldd	r22, Y+18	; 0x12
    42ae:	7b 89       	ldd	r23, Y+19	; 0x13
    42b0:	8c 89       	ldd	r24, Y+20	; 0x14
    42b2:	9d 89       	ldd	r25, Y+21	; 0x15
    42b4:	0e 94 fb 30 	call	0x61f6	; 0x61f6 <__mulsf3>
    42b8:	0e 94 81 2f 	call	0x5f02	; 0x5f02 <__fixsfsi>
    42bc:	20 e4       	ldi	r18, 0x40	; 64
    42be:	32 e4       	ldi	r19, 0x42	; 66
    42c0:	4f e0       	ldi	r20, 0x0F	; 15
    42c2:	50 e0       	ldi	r21, 0x00	; 0
    42c4:	0e 94 d6 32 	call	0x65ac	; 0x65ac <__divmodsi4>
    42c8:	9f 93       	push	r25
    42ca:	8f 93       	push	r24
    42cc:	7f 93       	push	r23
    42ce:	6f 93       	push	r22
    42d0:	6e 89       	ldd	r22, Y+22	; 0x16
    42d2:	7f 89       	ldd	r23, Y+23	; 0x17
    42d4:	88 8d       	ldd	r24, Y+24	; 0x18
    42d6:	99 8d       	ldd	r25, Y+25	; 0x19
    42d8:	0e 94 81 2f 	call	0x5f02	; 0x5f02 <__fixsfsi>
    42dc:	7f 93       	push	r23
    42de:	6f 93       	push	r22
    42e0:	6a 8d       	ldd	r22, Y+26	; 0x1a
    42e2:	7b 8d       	ldd	r23, Y+27	; 0x1b
    42e4:	8c 8d       	ldd	r24, Y+28	; 0x1c
    42e6:	9d 8d       	ldd	r25, Y+29	; 0x1d
    42e8:	0e 94 81 2f 	call	0x5f02	; 0x5f02 <__fixsfsi>
    42ec:	0f 2e       	mov	r0, r31
    42ee:	f4 e6       	ldi	r31, 0x64	; 100
    42f0:	cf 2e       	mov	r12, r31
    42f2:	d1 2c       	mov	r13, r1
    42f4:	e1 2c       	mov	r14, r1
    42f6:	f1 2c       	mov	r15, r1
    42f8:	f0 2d       	mov	r31, r0
    42fa:	a7 01       	movw	r20, r14
    42fc:	96 01       	movw	r18, r12
    42fe:	0e 94 d6 32 	call	0x65ac	; 0x65ac <__divmodsi4>
    4302:	7f 93       	push	r23
    4304:	6f 93       	push	r22
    4306:	6e 8d       	ldd	r22, Y+30	; 0x1e
    4308:	7f 8d       	ldd	r23, Y+31	; 0x1f
    430a:	88 a1       	ldd	r24, Y+32	; 0x20
    430c:	99 a1       	ldd	r25, Y+33	; 0x21
    430e:	0e 94 81 2f 	call	0x5f02	; 0x5f02 <__fixsfsi>
    4312:	0f 2e       	mov	r0, r31
    4314:	f0 e1       	ldi	r31, 0x10	; 16
    4316:	8f 2e       	mov	r8, r31
    4318:	f7 e2       	ldi	r31, 0x27	; 39
    431a:	9f 2e       	mov	r9, r31
    431c:	a1 2c       	mov	r10, r1
    431e:	b1 2c       	mov	r11, r1
    4320:	f0 2d       	mov	r31, r0
    4322:	a5 01       	movw	r20, r10
    4324:	94 01       	movw	r18, r8
    4326:	0e 94 d6 32 	call	0x65ac	; 0x65ac <__divmodsi4>
    432a:	a7 01       	movw	r20, r14
    432c:	96 01       	movw	r18, r12
    432e:	0e 94 d6 32 	call	0x65ac	; 0x65ac <__divmodsi4>
    4332:	3f 93       	push	r19
    4334:	2f 93       	push	r18
    4336:	6a a1       	ldd	r22, Y+34	; 0x22
    4338:	7b a1       	ldd	r23, Y+35	; 0x23
    433a:	8c a1       	ldd	r24, Y+36	; 0x24
    433c:	9d a1       	ldd	r25, Y+37	; 0x25
    433e:	0e 94 81 2f 	call	0x5f02	; 0x5f02 <__fixsfsi>
    4342:	a5 01       	movw	r20, r10
    4344:	94 01       	movw	r18, r8
    4346:	0e 94 d6 32 	call	0x65ac	; 0x65ac <__divmodsi4>
    434a:	3f 93       	push	r19
    434c:	2f 93       	push	r18
    434e:	6e a1       	ldd	r22, Y+38	; 0x26
    4350:	7f a1       	ldd	r23, Y+39	; 0x27
    4352:	88 a5       	ldd	r24, Y+40	; 0x28
    4354:	99 a5       	ldd	r25, Y+41	; 0x29
    4356:	0e 94 81 2f 	call	0x5f02	; 0x5f02 <__fixsfsi>
    435a:	7f 93       	push	r23
    435c:	6f 93       	push	r22
    435e:	23 e3       	ldi	r18, 0x33	; 51
    4360:	33 e9       	ldi	r19, 0x93	; 147
    4362:	48 e8       	ldi	r20, 0x88	; 136
    4364:	53 e4       	ldi	r21, 0x43	; 67
    4366:	6a a5       	ldd	r22, Y+42	; 0x2a
    4368:	7b a5       	ldd	r23, Y+43	; 0x2b
    436a:	8c a5       	ldd	r24, Y+44	; 0x2c
    436c:	9d a5       	ldd	r25, Y+45	; 0x2d
    436e:	0e 94 76 2e 	call	0x5cec	; 0x5cec <__subsf3>
    4372:	0e 94 81 2f 	call	0x5f02	; 0x5f02 <__fixsfsi>
    4376:	7f 93       	push	r23
    4378:	6f 93       	push	r22
    437a:	6e a5       	ldd	r22, Y+46	; 0x2e
    437c:	7f a5       	ldd	r23, Y+47	; 0x2f
    437e:	88 a9       	ldd	r24, Y+48	; 0x30
    4380:	99 a9       	ldd	r25, Y+49	; 0x31
    4382:	0e 94 81 2f 	call	0x5f02	; 0x5f02 <__fixsfsi>
    4386:	9f 93       	push	r25
    4388:	8f 93       	push	r24
    438a:	7f 93       	push	r23
    438c:	6f 93       	push	r22
    438e:	6a a9       	ldd	r22, Y+50	; 0x32
    4390:	7b a9       	ldd	r23, Y+51	; 0x33
    4392:	8c a9       	ldd	r24, Y+52	; 0x34
    4394:	9d a9       	ldd	r25, Y+53	; 0x35
    4396:	0e 94 81 2f 	call	0x5f02	; 0x5f02 <__fixsfsi>
    439a:	7f 93       	push	r23
    439c:	6f 93       	push	r22
    439e:	1f 93       	push	r17
    43a0:	0f 93       	push	r16
    43a2:	91 01       	movw	r18, r2
    43a4:	ad ec       	ldi	r26, 0xCD	; 205
    43a6:	bc ec       	ldi	r27, 0xCC	; 204
    43a8:	0e 94 fb 32 	call	0x65f6	; 0x65f6 <__umulhisi3>
    43ac:	96 95       	lsr	r25
    43ae:	87 95       	ror	r24
    43b0:	96 95       	lsr	r25
    43b2:	87 95       	ror	r24
    43b4:	96 95       	lsr	r25
    43b6:	87 95       	ror	r24
    43b8:	9c 01       	movw	r18, r24
    43ba:	22 0f       	add	r18, r18
    43bc:	33 1f       	adc	r19, r19
    43be:	88 0f       	add	r24, r24
    43c0:	99 1f       	adc	r25, r25
    43c2:	88 0f       	add	r24, r24
    43c4:	99 1f       	adc	r25, r25
    43c6:	88 0f       	add	r24, r24
    43c8:	99 1f       	adc	r25, r25
    43ca:	82 0f       	add	r24, r18
    43cc:	93 1f       	adc	r25, r19
    43ce:	28 1a       	sub	r2, r24
    43d0:	39 0a       	sbc	r3, r25
    43d2:	3f 92       	push	r3
    43d4:	2f 92       	push	r2
    43d6:	2e a9       	ldd	r18, Y+54	; 0x36
    43d8:	3f a9       	ldd	r19, Y+55	; 0x37
    43da:	0e 94 fb 32 	call	0x65f6	; 0x65f6 <__umulhisi3>
    43de:	96 95       	lsr	r25
    43e0:	87 95       	ror	r24
    43e2:	96 95       	lsr	r25
    43e4:	87 95       	ror	r24
    43e6:	96 95       	lsr	r25
    43e8:	87 95       	ror	r24
    43ea:	9f 93       	push	r25
    43ec:	8f 93       	push	r24
    43ee:	80 91 1e 20 	lds	r24, 0x201E	; 0x80201e <format+0x1>
    43f2:	8f 93       	push	r24
    43f4:	80 91 1d 20 	lds	r24, 0x201D	; 0x80201d <format>
    43f8:	8f 93       	push	r24
    43fa:	20 e9       	ldi	r18, 0x90	; 144
    43fc:	32 e2       	ldi	r19, 0x22	; 34
    43fe:	3f 93       	push	r19
    4400:	2f 93       	push	r18
    4402:	0e 94 60 34 	call	0x68c0	; 0x68c0 <sprintf>
	(int16_t) (((int32_t)gps_t)/10000),		(int16_t) ((((int32_t)gps_t)%10000)/100),	(int16_t) (((int32_t)gps_t)%100),
	(int16_t) gps_lat,						((int32_t) (gps_lat*1000000))%1000000,		(int16_t) gps_long,						(int32_t)(abs(((int32_t)(gps_long*1000000))%1000000)),
	(int16_t) gps_alt,						((int16_t) (gps_alt)*10)%10,				gps_sats,
	(int16_t) pitch,						(int16_t) roll,								(int16_t) rpm,
	state,									(int16_t) angle); // Data Logging Test
	printf(str);
    4406:	cd bf       	out	0x3d, r28	; 61
    4408:	de bf       	out	0x3e, r29	; 62
    440a:	20 e9       	ldi	r18, 0x90	; 144
    440c:	32 e2       	ldi	r19, 0x22	; 34
    440e:	3f 93       	push	r19
    4410:	2f 93       	push	r18
    4412:	0e 94 4d 34 	call	0x689a	; 0x689a <printf>
}
    4416:	0f 90       	pop	r0
    4418:	0f 90       	pop	r0
    441a:	e9 96       	adiw	r28, 0x39	; 57
    441c:	cd bf       	out	0x3d, r28	; 61
    441e:	de bf       	out	0x3e, r29	; 62
    4420:	df 91       	pop	r29
    4422:	cf 91       	pop	r28
    4424:	1f 91       	pop	r17
    4426:	0f 91       	pop	r16
    4428:	ff 90       	pop	r15
    442a:	ef 90       	pop	r14
    442c:	df 90       	pop	r13
    442e:	cf 90       	pop	r12
    4430:	bf 90       	pop	r11
    4432:	af 90       	pop	r10
    4434:	9f 90       	pop	r9
    4436:	8f 90       	pop	r8
    4438:	7f 90       	pop	r7
    443a:	6f 90       	pop	r6
    443c:	5f 90       	pop	r5
    443e:	4f 90       	pop	r4
    4440:	3f 90       	pop	r3
    4442:	2f 90       	pop	r2
    4444:	08 95       	ret

00004446 <eeprom_write_const>:

void eeprom_write_const(void){
    4446:	4f 92       	push	r4
    4448:	5f 92       	push	r5
    444a:	6f 92       	push	r6
    444c:	7f 92       	push	r7
    444e:	8f 92       	push	r8
    4450:	9f 92       	push	r9
    4452:	af 92       	push	r10
    4454:	bf 92       	push	r11
    4456:	cf 92       	push	r12
    4458:	df 92       	push	r13
    445a:	ef 92       	push	r14
    445c:	ff 92       	push	r15
    445e:	0f 93       	push	r16
    4460:	1f 93       	push	r17
    4462:	cf 93       	push	r28
    4464:	df 93       	push	r29
    4466:	cd b7       	in	r28, 0x3d	; 61
    4468:	de b7       	in	r29, 0x3e	; 62
    446a:	a0 97       	sbiw	r28, 0x20	; 32
    446c:	cd bf       	out	0x3d, r28	; 61
    446e:	de bf       	out	0x3e, r29	; 62
	uint64_t p = 0;
	uint64_t t = 0;

	memcpy(&p, &ground_p, 8);
    4470:	a7 e3       	ldi	r26, 0x37	; 55
    4472:	b0 e2       	ldi	r27, 0x20	; 32
    4474:	fc 91       	ld	r31, X
    4476:	11 96       	adiw	r26, 0x01	; 1
    4478:	5c 90       	ld	r5, X
    447a:	11 97       	sbiw	r26, 0x01	; 1
    447c:	12 96       	adiw	r26, 0x02	; 2
    447e:	6c 90       	ld	r6, X
    4480:	12 97       	sbiw	r26, 0x02	; 2
    4482:	13 96       	adiw	r26, 0x03	; 3
    4484:	7c 90       	ld	r7, X
    4486:	13 97       	sbiw	r26, 0x03	; 3
    4488:	14 96       	adiw	r26, 0x04	; 4
    448a:	8c 90       	ld	r8, X
    448c:	14 97       	sbiw	r26, 0x04	; 4
    448e:	15 96       	adiw	r26, 0x05	; 5
    4490:	9c 90       	ld	r9, X
    4492:	15 97       	sbiw	r26, 0x05	; 5
    4494:	16 96       	adiw	r26, 0x06	; 6
    4496:	ac 90       	ld	r10, X
    4498:	16 97       	sbiw	r26, 0x06	; 6
    449a:	17 96       	adiw	r26, 0x07	; 7
    449c:	4c 90       	ld	r4, X
	memcpy(&t, &ground_t, 8);
    449e:	a3 e3       	ldi	r26, 0x33	; 51
    44a0:	b0 e2       	ldi	r27, 0x20	; 32
    44a2:	ec 91       	ld	r30, X
    44a4:	11 96       	adiw	r26, 0x01	; 1
    44a6:	bc 90       	ld	r11, X
    44a8:	11 97       	sbiw	r26, 0x01	; 1
    44aa:	12 96       	adiw	r26, 0x02	; 2
    44ac:	cc 90       	ld	r12, X
    44ae:	12 97       	sbiw	r26, 0x02	; 2
    44b0:	13 96       	adiw	r26, 0x03	; 3
    44b2:	dc 90       	ld	r13, X
    44b4:	13 97       	sbiw	r26, 0x03	; 3
    44b6:	14 96       	adiw	r26, 0x04	; 4
    44b8:	ec 90       	ld	r14, X
    44ba:	14 97       	sbiw	r26, 0x04	; 4
    44bc:	15 96       	adiw	r26, 0x05	; 5
    44be:	fc 90       	ld	r15, X
    44c0:	15 97       	sbiw	r26, 0x05	; 5
    44c2:	16 96       	adiw	r26, 0x06	; 6
    44c4:	1c 91       	ld	r17, X
    44c6:	16 97       	sbiw	r26, 0x06	; 6
    44c8:	17 96       	adiw	r26, 0x07	; 7
    44ca:	ac 91       	ld	r26, X

	uint8_t data[] = {p & 0xFF, (p >> 8) & 0xFF, (p >> 16) & 0xFF, (p >> 24) & 0xFF, (p >> 32) & 0xFF, (p >> 40) & 0xFF, (p >> 48) & 0xFF, p >> 56,
    44cc:	f9 83       	std	Y+1, r31	; 0x01
    44ce:	2f 2f       	mov	r18, r31
    44d0:	35 2d       	mov	r19, r5
    44d2:	46 2d       	mov	r20, r6
    44d4:	57 2d       	mov	r21, r7
    44d6:	68 2d       	mov	r22, r8
    44d8:	79 2d       	mov	r23, r9
    44da:	8a 2d       	mov	r24, r10
    44dc:	94 2d       	mov	r25, r4
    44de:	08 e0       	ldi	r16, 0x08	; 8
    44e0:	0e 94 de 33 	call	0x67bc	; 0x67bc <__lshrdi3>
    44e4:	2a 83       	std	Y+2, r18	; 0x02
    44e6:	2f 2f       	mov	r18, r31
    44e8:	35 2d       	mov	r19, r5
    44ea:	46 2d       	mov	r20, r6
    44ec:	57 2d       	mov	r21, r7
    44ee:	68 2d       	mov	r22, r8
    44f0:	79 2d       	mov	r23, r9
    44f2:	8a 2d       	mov	r24, r10
    44f4:	94 2d       	mov	r25, r4
    44f6:	00 e1       	ldi	r16, 0x10	; 16
    44f8:	0e 94 de 33 	call	0x67bc	; 0x67bc <__lshrdi3>
    44fc:	2b 83       	std	Y+3, r18	; 0x03
    44fe:	2f 2f       	mov	r18, r31
    4500:	35 2d       	mov	r19, r5
    4502:	46 2d       	mov	r20, r6
    4504:	57 2d       	mov	r21, r7
    4506:	68 2d       	mov	r22, r8
    4508:	79 2d       	mov	r23, r9
    450a:	8a 2d       	mov	r24, r10
    450c:	94 2d       	mov	r25, r4
    450e:	08 e1       	ldi	r16, 0x18	; 24
    4510:	0e 94 de 33 	call	0x67bc	; 0x67bc <__lshrdi3>
    4514:	2c 83       	std	Y+4, r18	; 0x04
    4516:	2f 2f       	mov	r18, r31
    4518:	35 2d       	mov	r19, r5
    451a:	46 2d       	mov	r20, r6
    451c:	57 2d       	mov	r21, r7
    451e:	68 2d       	mov	r22, r8
    4520:	79 2d       	mov	r23, r9
    4522:	8a 2d       	mov	r24, r10
    4524:	94 2d       	mov	r25, r4
    4526:	00 e2       	ldi	r16, 0x20	; 32
    4528:	0e 94 de 33 	call	0x67bc	; 0x67bc <__lshrdi3>
    452c:	2d 83       	std	Y+5, r18	; 0x05
    452e:	2f 2f       	mov	r18, r31
    4530:	35 2d       	mov	r19, r5
    4532:	46 2d       	mov	r20, r6
    4534:	57 2d       	mov	r21, r7
    4536:	68 2d       	mov	r22, r8
    4538:	79 2d       	mov	r23, r9
    453a:	8a 2d       	mov	r24, r10
    453c:	94 2d       	mov	r25, r4
    453e:	08 e2       	ldi	r16, 0x28	; 40
    4540:	0e 94 de 33 	call	0x67bc	; 0x67bc <__lshrdi3>
    4544:	2e 83       	std	Y+6, r18	; 0x06
    4546:	2f 2f       	mov	r18, r31
    4548:	35 2d       	mov	r19, r5
    454a:	46 2d       	mov	r20, r6
    454c:	57 2d       	mov	r21, r7
    454e:	68 2d       	mov	r22, r8
    4550:	79 2d       	mov	r23, r9
    4552:	8a 2d       	mov	r24, r10
    4554:	94 2d       	mov	r25, r4
    4556:	00 e3       	ldi	r16, 0x30	; 48
    4558:	0e 94 de 33 	call	0x67bc	; 0x67bc <__lshrdi3>
    455c:	2f 83       	std	Y+7, r18	; 0x07
    455e:	2f 2f       	mov	r18, r31
    4560:	35 2d       	mov	r19, r5
    4562:	46 2d       	mov	r20, r6
    4564:	57 2d       	mov	r21, r7
    4566:	68 2d       	mov	r22, r8
    4568:	79 2d       	mov	r23, r9
    456a:	8a 2d       	mov	r24, r10
    456c:	94 2d       	mov	r25, r4
    456e:	08 e3       	ldi	r16, 0x38	; 56
    4570:	0e 94 de 33 	call	0x67bc	; 0x67bc <__lshrdi3>
    4574:	28 87       	std	Y+8, r18	; 0x08
    4576:	e9 87       	std	Y+9, r30	; 0x09
    4578:	2e 2f       	mov	r18, r30
    457a:	3b 2d       	mov	r19, r11
    457c:	4c 2d       	mov	r20, r12
    457e:	5d 2d       	mov	r21, r13
    4580:	6e 2d       	mov	r22, r14
    4582:	7f 2d       	mov	r23, r15
    4584:	81 2f       	mov	r24, r17
    4586:	9a 2f       	mov	r25, r26
    4588:	08 e0       	ldi	r16, 0x08	; 8
    458a:	0e 94 de 33 	call	0x67bc	; 0x67bc <__lshrdi3>
    458e:	2a 87       	std	Y+10, r18	; 0x0a
    4590:	2e 2f       	mov	r18, r30
    4592:	3b 2d       	mov	r19, r11
    4594:	4c 2d       	mov	r20, r12
    4596:	5d 2d       	mov	r21, r13
    4598:	6e 2d       	mov	r22, r14
    459a:	7f 2d       	mov	r23, r15
    459c:	81 2f       	mov	r24, r17
    459e:	9a 2f       	mov	r25, r26
    45a0:	00 e1       	ldi	r16, 0x10	; 16
    45a2:	0e 94 de 33 	call	0x67bc	; 0x67bc <__lshrdi3>
    45a6:	2b 87       	std	Y+11, r18	; 0x0b
    45a8:	2e 2f       	mov	r18, r30
    45aa:	3b 2d       	mov	r19, r11
    45ac:	4c 2d       	mov	r20, r12
    45ae:	5d 2d       	mov	r21, r13
    45b0:	6e 2d       	mov	r22, r14
    45b2:	7f 2d       	mov	r23, r15
    45b4:	81 2f       	mov	r24, r17
    45b6:	9a 2f       	mov	r25, r26
    45b8:	08 e1       	ldi	r16, 0x18	; 24
    45ba:	0e 94 de 33 	call	0x67bc	; 0x67bc <__lshrdi3>
    45be:	2c 87       	std	Y+12, r18	; 0x0c
    45c0:	2e 2f       	mov	r18, r30
    45c2:	3b 2d       	mov	r19, r11
    45c4:	4c 2d       	mov	r20, r12
    45c6:	5d 2d       	mov	r21, r13
    45c8:	6e 2d       	mov	r22, r14
    45ca:	7f 2d       	mov	r23, r15
    45cc:	81 2f       	mov	r24, r17
    45ce:	9a 2f       	mov	r25, r26
    45d0:	00 e2       	ldi	r16, 0x20	; 32
    45d2:	0e 94 de 33 	call	0x67bc	; 0x67bc <__lshrdi3>
    45d6:	2d 87       	std	Y+13, r18	; 0x0d
    45d8:	2e 2f       	mov	r18, r30
    45da:	3b 2d       	mov	r19, r11
    45dc:	4c 2d       	mov	r20, r12
    45de:	5d 2d       	mov	r21, r13
    45e0:	6e 2d       	mov	r22, r14
    45e2:	7f 2d       	mov	r23, r15
    45e4:	81 2f       	mov	r24, r17
    45e6:	9a 2f       	mov	r25, r26
    45e8:	08 e2       	ldi	r16, 0x28	; 40
    45ea:	0e 94 de 33 	call	0x67bc	; 0x67bc <__lshrdi3>
    45ee:	2e 87       	std	Y+14, r18	; 0x0e
    45f0:	2e 2f       	mov	r18, r30
    45f2:	3b 2d       	mov	r19, r11
    45f4:	4c 2d       	mov	r20, r12
    45f6:	5d 2d       	mov	r21, r13
    45f8:	6e 2d       	mov	r22, r14
    45fa:	7f 2d       	mov	r23, r15
    45fc:	81 2f       	mov	r24, r17
    45fe:	9a 2f       	mov	r25, r26
    4600:	00 e3       	ldi	r16, 0x30	; 48
    4602:	0e 94 de 33 	call	0x67bc	; 0x67bc <__lshrdi3>
    4606:	2f 87       	std	Y+15, r18	; 0x0f
    4608:	2e 2f       	mov	r18, r30
    460a:	3b 2d       	mov	r19, r11
    460c:	4c 2d       	mov	r20, r12
    460e:	5d 2d       	mov	r21, r13
    4610:	6e 2d       	mov	r22, r14
    4612:	7f 2d       	mov	r23, r15
    4614:	81 2f       	mov	r24, r17
    4616:	9a 2f       	mov	r25, r26
    4618:	08 e3       	ldi	r16, 0x38	; 56
    461a:	0e 94 de 33 	call	0x67bc	; 0x67bc <__lshrdi3>
    461e:	28 8b       	std	Y+16, r18	; 0x10
					  t & 0xFF, (t >> 8) & 0xFF, (t >> 16) & 0xFF, (t >> 24) & 0xFF, (t >> 32) & 0xFF, (t >> 40) & 0xFF, (t >> 48) & 0xFF, t >> 56,};
	uint8_t addresses[] = {	GROUND_PRESS_ADDR0, GROUND_PRESS_ADDR1, GROUND_PRESS_ADDR2, GROUND_PRESS_ADDR3, GROUND_PRESS_ADDR4, GROUND_PRESS_ADDR5, GROUND_PRESS_ADDR6, GROUND_PRESS_ADDR7,
    4620:	80 e1       	ldi	r24, 0x10	; 16
    4622:	eb e3       	ldi	r30, 0x3B	; 59
    4624:	f0 e2       	ldi	r31, 0x20	; 32
    4626:	de 01       	movw	r26, r28
    4628:	51 96       	adiw	r26, 0x11	; 17
    462a:	01 90       	ld	r0, Z+
    462c:	0d 92       	st	X+, r0
    462e:	8a 95       	dec	r24
    4630:	e1 f7       	brne	.-8      	; 0x462a <eeprom_write_const+0x1e4>
							GROUND_TEMP_ADDR0,  GROUND_TEMP_ADDR1,  GROUND_TEMP_ADDR2,  GROUND_TEMP_ADDR3,  GROUND_TEMP_ADDR4,  GROUND_TEMP_ADDR5,  GROUND_TEMP_ADDR6,  GROUND_TEMP_ADDR7};

	NVM.CMD = LOAD_BUFFER_CMD;
    4632:	83 e3       	ldi	r24, 0x33	; 51
    4634:	80 93 ca 01 	sts	0x01CA, r24	; 0x8001ca <__TEXT_REGION_LENGTH__+0x7001ca>
    4638:	fe 01       	movw	r30, r28
    463a:	71 96       	adiw	r30, 0x11	; 17
    463c:	ce 01       	movw	r24, r28
    463e:	01 96       	adiw	r24, 0x01	; 1
    4640:	ae 01       	movw	r20, r28
    4642:	4f 5d       	subi	r20, 0xDF	; 223
    4644:	5f 4f       	sbci	r21, 0xFF	; 255
	for(uint8_t i = 0; i < 16; i++){
		NVM.ADDR0 = addresses[i];
    4646:	60 ec       	ldi	r22, 0xC0	; 192
    4648:	71 e0       	ldi	r23, 0x01	; 1
    464a:	21 91       	ld	r18, Z+
    464c:	db 01       	movw	r26, r22
    464e:	2c 93       	st	X, r18
		NVM.DATA0 = data[i];
    4650:	dc 01       	movw	r26, r24
    4652:	2d 91       	ld	r18, X+
    4654:	cd 01       	movw	r24, r26
    4656:	db 01       	movw	r26, r22
    4658:	14 96       	adiw	r26, 0x04	; 4
    465a:	2c 93       	st	X, r18
					  t & 0xFF, (t >> 8) & 0xFF, (t >> 16) & 0xFF, (t >> 24) & 0xFF, (t >> 32) & 0xFF, (t >> 40) & 0xFF, (t >> 48) & 0xFF, t >> 56,};
	uint8_t addresses[] = {	GROUND_PRESS_ADDR0, GROUND_PRESS_ADDR1, GROUND_PRESS_ADDR2, GROUND_PRESS_ADDR3, GROUND_PRESS_ADDR4, GROUND_PRESS_ADDR5, GROUND_PRESS_ADDR6, GROUND_PRESS_ADDR7,
							GROUND_TEMP_ADDR0,  GROUND_TEMP_ADDR1,  GROUND_TEMP_ADDR2,  GROUND_TEMP_ADDR3,  GROUND_TEMP_ADDR4,  GROUND_TEMP_ADDR5,  GROUND_TEMP_ADDR6,  GROUND_TEMP_ADDR7};

	NVM.CMD = LOAD_BUFFER_CMD;
	for(uint8_t i = 0; i < 16; i++){
    465c:	e4 17       	cp	r30, r20
    465e:	f5 07       	cpc	r31, r21
    4660:	a1 f7       	brne	.-24     	; 0x464a <eeprom_write_const+0x204>
		NVM.ADDR0 = addresses[i];
		NVM.DATA0 = data[i];
	}

	// Erases and writes the page buffer
	NVM.CMD = ATOMIC_WRITE_CMD;
    4662:	e0 ec       	ldi	r30, 0xC0	; 192
    4664:	f1 e0       	ldi	r31, 0x01	; 1
    4666:	85 e3       	ldi	r24, 0x35	; 53
    4668:	82 87       	std	Z+10, r24	; 0x0a
	NVM.ADDR0 = EEPROM_PAGE & 0xFF;
    466a:	10 82       	st	Z, r1
	NVM.ADDR1 = EEPROM_PAGE >> 8;
    466c:	80 e1       	ldi	r24, 0x10	; 16
    466e:	81 83       	std	Z+1, r24	; 0x01
	CCP = CCP_IOREG_MODE;
    4670:	88 ed       	ldi	r24, 0xD8	; 216
    4672:	84 bf       	out	0x34, r24	; 52
	NVM.CTRLA = CTRLA_CMDEX_BYTE;
    4674:	81 e0       	ldi	r24, 0x01	; 1
    4676:	83 87       	std	Z+11, r24	; 0x0b
	while(NVM.STATUS>>7);
    4678:	87 85       	ldd	r24, Z+15	; 0x0f
    467a:	88 23       	and	r24, r24
    467c:	ec f3       	brlt	.-6      	; 0x4678 <eeprom_write_const+0x232>
}
    467e:	a0 96       	adiw	r28, 0x20	; 32
    4680:	cd bf       	out	0x3d, r28	; 61
    4682:	de bf       	out	0x3e, r29	; 62
    4684:	df 91       	pop	r29
    4686:	cf 91       	pop	r28
    4688:	1f 91       	pop	r17
    468a:	0f 91       	pop	r16
    468c:	ff 90       	pop	r15
    468e:	ef 90       	pop	r14
    4690:	df 90       	pop	r13
    4692:	cf 90       	pop	r12
    4694:	bf 90       	pop	r11
    4696:	af 90       	pop	r10
    4698:	9f 90       	pop	r9
    469a:	8f 90       	pop	r8
    469c:	7f 90       	pop	r7
    469e:	6f 90       	pop	r6
    46a0:	5f 90       	pop	r5
    46a2:	4f 90       	pop	r4
    46a4:	08 95       	ret

000046a6 <eeprom_write>:

void eeprom_write(void){
    46a6:	0f 93       	push	r16
    46a8:	1f 93       	push	r17
    46aa:	cf 93       	push	r28
    46ac:	df 93       	push	r29
    46ae:	cd b7       	in	r28, 0x3d	; 61
    46b0:	de b7       	in	r29, 0x3e	; 62
    46b2:	a1 97       	sbiw	r28, 0x21	; 33
    46b4:	cd bf       	out	0x3d, r28	; 61
    46b6:	de bf       	out	0x3e, r29	; 62
	uint16_t a = (uint16_t) ((int16_t) alt); // creates an unsigned int of the altitude
    46b8:	60 91 10 22 	lds	r22, 0x2210	; 0x802210 <alt>
    46bc:	70 91 11 22 	lds	r23, 0x2211	; 0x802211 <alt+0x1>
    46c0:	80 91 12 22 	lds	r24, 0x2212	; 0x802212 <alt+0x2>
    46c4:	90 91 13 22 	lds	r25, 0x2213	; 0x802213 <alt+0x3>
    46c8:	0e 94 81 2f 	call	0x5f02	; 0x5f02 <__fixsfsi>
    46cc:	16 2f       	mov	r17, r22
    46ce:	07 2f       	mov	r16, r23
	uint16_t v = (uint16_t) ((int16_t) velocity);
    46d0:	60 91 08 22 	lds	r22, 0x2208	; 0x802208 <velocity>
    46d4:	70 91 09 22 	lds	r23, 0x2209	; 0x802209 <velocity+0x1>
    46d8:	80 91 0a 22 	lds	r24, 0x220A	; 0x80220a <velocity+0x2>
    46dc:	90 91 0b 22 	lds	r25, 0x220B	; 0x80220b <velocity+0x3>
    46e0:	0e 94 81 2f 	call	0x5f02	; 0x5f02 <__fixsfsi>
    46e4:	26 2f       	mov	r18, r22
    46e6:	37 2f       	mov	r19, r23

	check_write = (check_write + 1) % 100;
    46e8:	80 91 22 22 	lds	r24, 0x2222	; 0x802222 <check_write>
    46ec:	90 e0       	ldi	r25, 0x00	; 0
    46ee:	01 96       	adiw	r24, 0x01	; 1
    46f0:	64 e6       	ldi	r22, 0x64	; 100
    46f2:	70 e0       	ldi	r23, 0x00	; 0
    46f4:	0e 94 a1 32 	call	0x6542	; 0x6542 <__divmodhi4>
    46f8:	80 93 22 22 	sts	0x2222, r24	; 0x802222 <check_write>

	// saves data and addresses in array
	volatile uint8_t data[] = {a >> 8, a & 0xFF, packets >> 8, packets & 0xFF, timer >> 8, timer & 0xFF, v >> 8, v & 0xFF, check_write, check_write, state};
    46fc:	a0 91 1c 22 	lds	r26, 0x221C	; 0x80221c <packets>
    4700:	b0 91 1d 22 	lds	r27, 0x221D	; 0x80221d <packets+0x1>
    4704:	e0 91 1c 22 	lds	r30, 0x221C	; 0x80221c <packets>
    4708:	f0 91 1d 22 	lds	r31, 0x221D	; 0x80221d <packets+0x1>
    470c:	60 91 20 22 	lds	r22, 0x2220	; 0x802220 <timer>
    4710:	70 91 21 22 	lds	r23, 0x2221	; 0x802221 <timer+0x1>
    4714:	40 91 20 22 	lds	r20, 0x2220	; 0x802220 <timer>
    4718:	50 91 21 22 	lds	r21, 0x2221	; 0x802221 <timer+0x1>
    471c:	90 91 42 22 	lds	r25, 0x2242	; 0x802242 <state>
    4720:	09 83       	std	Y+1, r16	; 0x01
    4722:	1a 83       	std	Y+2, r17	; 0x02
    4724:	bb 83       	std	Y+3, r27	; 0x03
    4726:	ec 83       	std	Y+4, r30	; 0x04
    4728:	7d 83       	std	Y+5, r23	; 0x05
    472a:	4e 83       	std	Y+6, r20	; 0x06
    472c:	3f 83       	std	Y+7, r19	; 0x07
    472e:	28 87       	std	Y+8, r18	; 0x08
    4730:	89 87       	std	Y+9, r24	; 0x09
    4732:	8a 87       	std	Y+10, r24	; 0x0a
    4734:	9b 87       	std	Y+11, r25	; 0x0b
    4736:	8b e0       	ldi	r24, 0x0B	; 11
    4738:	fe 01       	movw	r30, r28
    473a:	31 96       	adiw	r30, 0x01	; 1
    473c:	de 01       	movw	r26, r28
    473e:	1c 96       	adiw	r26, 0x0c	; 12
    4740:	01 90       	ld	r0, Z+
    4742:	0d 92       	st	X+, r0
    4744:	8a 95       	dec	r24
    4746:	e1 f7       	brne	.-8      	; 0x4740 <eeprom_write+0x9a>
	volatile uint8_t addresses[] = {ALT_ADDR_BYTE1, ALT_ADDR_BYTE0, PACKET_ADDR_BYTE1, PACKET_ADDR_BYTE0, TIME_ADDR_BYTE1, TIME_ADDR_BYTE0, VEL_ADDR_BYTE1, VEL_ADDR_BYTE0, CHECK_WRITE_BYTE0, CHECK_WRITE_BYTE1, STATE_BYTE};
    4748:	8b e0       	ldi	r24, 0x0B	; 11
    474a:	eb e4       	ldi	r30, 0x4B	; 75
    474c:	f0 e2       	ldi	r31, 0x20	; 32
    474e:	de 01       	movw	r26, r28
    4750:	57 96       	adiw	r26, 0x17	; 23
    4752:	01 90       	ld	r0, Z+
    4754:	0d 92       	st	X+, r0
    4756:	8a 95       	dec	r24
    4758:	e1 f7       	brne	.-8      	; 0x4752 <eeprom_write+0xac>

	// Writes the NVM Registers to write the buffer
	NVM.CMD = LOAD_BUFFER_CMD;
    475a:	83 e3       	ldi	r24, 0x33	; 51
    475c:	80 93 ca 01 	sts	0x01CA, r24	; 0x8001ca <__TEXT_REGION_LENGTH__+0x7001ca>
    4760:	80 e0       	ldi	r24, 0x00	; 0
    4762:	90 e0       	ldi	r25, 0x00	; 0
	for(uint8_t i = 0; i < 10; i++){
		NVM.ADDR0 = addresses[i];
    4764:	e0 ec       	ldi	r30, 0xC0	; 192
    4766:	f1 e0       	ldi	r31, 0x01	; 1
    4768:	a7 e1       	ldi	r26, 0x17	; 23
    476a:	b0 e0       	ldi	r27, 0x00	; 0
    476c:	ac 0f       	add	r26, r28
    476e:	bd 1f       	adc	r27, r29
    4770:	a8 0f       	add	r26, r24
    4772:	b9 1f       	adc	r27, r25
    4774:	2c 91       	ld	r18, X
    4776:	20 83       	st	Z, r18
		NVM.DATA0 = data[i];
    4778:	ac e0       	ldi	r26, 0x0C	; 12
    477a:	b0 e0       	ldi	r27, 0x00	; 0
    477c:	ac 0f       	add	r26, r28
    477e:	bd 1f       	adc	r27, r29
    4780:	a8 0f       	add	r26, r24
    4782:	b9 1f       	adc	r27, r25
    4784:	2c 91       	ld	r18, X
    4786:	24 83       	std	Z+4, r18	; 0x04
    4788:	01 96       	adiw	r24, 0x01	; 1
	volatile uint8_t data[] = {a >> 8, a & 0xFF, packets >> 8, packets & 0xFF, timer >> 8, timer & 0xFF, v >> 8, v & 0xFF, check_write, check_write, state};
	volatile uint8_t addresses[] = {ALT_ADDR_BYTE1, ALT_ADDR_BYTE0, PACKET_ADDR_BYTE1, PACKET_ADDR_BYTE0, TIME_ADDR_BYTE1, TIME_ADDR_BYTE0, VEL_ADDR_BYTE1, VEL_ADDR_BYTE0, CHECK_WRITE_BYTE0, CHECK_WRITE_BYTE1, STATE_BYTE};

	// Writes the NVM Registers to write the buffer
	NVM.CMD = LOAD_BUFFER_CMD;
	for(uint8_t i = 0; i < 10; i++){
    478a:	8a 30       	cpi	r24, 0x0A	; 10
    478c:	91 05       	cpc	r25, r1
    478e:	61 f7       	brne	.-40     	; 0x4768 <eeprom_write+0xc2>
		NVM.ADDR0 = addresses[i];
		NVM.DATA0 = data[i];
	}

	// Erases and writes the page buffer
	NVM.CMD = ATOMIC_WRITE_CMD;
    4790:	e0 ec       	ldi	r30, 0xC0	; 192
    4792:	f1 e0       	ldi	r31, 0x01	; 1
    4794:	85 e3       	ldi	r24, 0x35	; 53
    4796:	82 87       	std	Z+10, r24	; 0x0a
	NVM.ADDR0 = EEPROM_PAGE & 0xFF;
    4798:	10 82       	st	Z, r1
	NVM.ADDR1 = EEPROM_PAGE >> 8;
    479a:	80 e1       	ldi	r24, 0x10	; 16
    479c:	81 83       	std	Z+1, r24	; 0x01
	CCP = CCP_IOREG_MODE;
    479e:	88 ed       	ldi	r24, 0xD8	; 216
    47a0:	84 bf       	out	0x34, r24	; 52
	NVM.CTRLA = CTRLA_CMDEX_BYTE;
    47a2:	81 e0       	ldi	r24, 0x01	; 1
    47a4:	83 87       	std	Z+11, r24	; 0x0b
	while(NVM.STATUS>>7);
    47a6:	87 85       	ldd	r24, Z+15	; 0x0f
    47a8:	88 23       	and	r24, r24
    47aa:	ec f3       	brlt	.-6      	; 0x47a6 <eeprom_write+0x100>
}
    47ac:	a1 96       	adiw	r28, 0x21	; 33
    47ae:	cd bf       	out	0x3d, r28	; 61
    47b0:	de bf       	out	0x3e, r29	; 62
    47b2:	df 91       	pop	r29
    47b4:	cf 91       	pop	r28
    47b6:	1f 91       	pop	r17
    47b8:	0f 91       	pop	r16
    47ba:	08 95       	ret

000047bc <time_update>:
	TCE0.CTRLA = 0x07; // divisor set to 1024 0x07
	TCE0.PER = 31249; // 1 Hz
	TCE0.INTCTRLA = TC_OVFINTLVL_LO_gc; // CCA int flag Lo level
}

void time_update(void){
    47bc:	2f 92       	push	r2
    47be:	3f 92       	push	r3
    47c0:	4f 92       	push	r4
    47c2:	5f 92       	push	r5
    47c4:	6f 92       	push	r6
    47c6:	7f 92       	push	r7
    47c8:	8f 92       	push	r8
    47ca:	9f 92       	push	r9
    47cc:	af 92       	push	r10
    47ce:	bf 92       	push	r11
    47d0:	cf 92       	push	r12
    47d2:	df 92       	push	r13
    47d4:	ef 92       	push	r14
    47d6:	ff 92       	push	r15
    47d8:	0f 93       	push	r16
    47da:	1f 93       	push	r17
    47dc:	cf 93       	push	r28
    47de:	df 93       	push	r29
    47e0:	cd b7       	in	r28, 0x3d	; 61
    47e2:	de b7       	in	r29, 0x3e	; 62
    47e4:	ef 97       	sbiw	r28, 0x3f	; 63
    47e6:	cd bf       	out	0x3d, r28	; 61
    47e8:	de bf       	out	0x3e, r29	; 62
	//packets++;
	
	packets++;
    47ea:	80 91 1c 22 	lds	r24, 0x221C	; 0x80221c <packets>
    47ee:	90 91 1d 22 	lds	r25, 0x221D	; 0x80221d <packets+0x1>
    47f2:	01 96       	adiw	r24, 0x01	; 1
    47f4:	80 93 1c 22 	sts	0x221C, r24	; 0x80221c <packets>
    47f8:	90 93 1d 22 	sts	0x221D, r25	; 0x80221d <packets+0x1>
	sprintf(str,format,timer,packets,
    47fc:	60 91 e6 21 	lds	r22, 0x21E6	; 0x8021e6 <angle>
    4800:	70 91 e7 21 	lds	r23, 0x21E7	; 0x8021e7 <angle+0x1>
    4804:	80 91 e8 21 	lds	r24, 0x21E8	; 0x8021e8 <angle+0x2>
    4808:	90 91 e9 21 	lds	r25, 0x21E9	; 0x8021e9 <angle+0x3>
    480c:	20 91 42 22 	lds	r18, 0x2242	; 0x802242 <state>
    4810:	29 83       	std	Y+1, r18	; 0x01
    4812:	40 90 ea 21 	lds	r4, 0x21EA	; 0x8021ea <rpm>
    4816:	50 90 eb 21 	lds	r5, 0x21EB	; 0x8021eb <rpm+0x1>
    481a:	60 90 ec 21 	lds	r6, 0x21EC	; 0x8021ec <rpm+0x2>
    481e:	70 90 ed 21 	lds	r7, 0x21ED	; 0x8021ed <rpm+0x3>
    4822:	80 90 ee 21 	lds	r8, 0x21EE	; 0x8021ee <roll>
    4826:	90 90 ef 21 	lds	r9, 0x21EF	; 0x8021ef <roll+0x1>
    482a:	a0 90 f0 21 	lds	r10, 0x21F0	; 0x8021f0 <roll+0x2>
    482e:	b0 90 f1 21 	lds	r11, 0x21F1	; 0x8021f1 <roll+0x3>
    4832:	c0 90 f2 21 	lds	r12, 0x21F2	; 0x8021f2 <pitch>
    4836:	d0 90 f3 21 	lds	r13, 0x21F3	; 0x8021f3 <pitch+0x1>
    483a:	e0 90 f4 21 	lds	r14, 0x21F4	; 0x8021f4 <pitch+0x2>
    483e:	f0 90 f5 21 	lds	r15, 0x21F5	; 0x8021f5 <pitch+0x3>
    4842:	40 91 f6 21 	lds	r20, 0x21F6	; 0x8021f6 <gps_sats>
    4846:	50 91 f7 21 	lds	r21, 0x21F7	; 0x8021f7 <gps_sats+0x1>
    484a:	4e af       	std	Y+62, r20	; 0x3e
    484c:	5f af       	std	Y+63, r21	; 0x3f
	(int16_t) (alt),						(int32_t) press,							(int16_t) (temp-273.15),  ((int16_t) (temp*10-2731.5))%10, 		(int16_t)volt, ((int16_t) (volt *10)) %10, 
	(int16_t) (((int32_t)gps_t)/10000),		(int16_t) ((((int32_t)gps_t)%10000)/100),	(int16_t) (((int32_t)gps_t)%100),
	(int16_t) gps_lat,						((int32_t) (gps_lat*1000000))%1000000,		(int16_t) gps_long,						(int32_t)(abs(((int32_t)(gps_long*1000000))%1000000)),
	(int16_t) gps_alt,						((int16_t) (gps_alt)*10)%10,				gps_sats,
    484e:	20 91 f8 21 	lds	r18, 0x21F8	; 0x8021f8 <gps_alt>
    4852:	30 91 f9 21 	lds	r19, 0x21F9	; 0x8021f9 <gps_alt+0x1>
    4856:	40 91 fa 21 	lds	r20, 0x21FA	; 0x8021fa <gps_alt+0x2>
    485a:	50 91 fb 21 	lds	r21, 0x21FB	; 0x8021fb <gps_alt+0x3>
    485e:	2a 83       	std	Y+2, r18	; 0x02
    4860:	3b 83       	std	Y+3, r19	; 0x03
    4862:	4c 83       	std	Y+4, r20	; 0x04
    4864:	5d 83       	std	Y+5, r21	; 0x05

void time_update(void){
	//packets++;
	
	packets++;
	sprintf(str,format,timer,packets,
    4866:	20 91 f8 21 	lds	r18, 0x21F8	; 0x8021f8 <gps_alt>
    486a:	30 91 f9 21 	lds	r19, 0x21F9	; 0x8021f9 <gps_alt+0x1>
    486e:	40 91 fa 21 	lds	r20, 0x21FA	; 0x8021fa <gps_alt+0x2>
    4872:	50 91 fb 21 	lds	r21, 0x21FB	; 0x8021fb <gps_alt+0x3>
    4876:	2e 83       	std	Y+6, r18	; 0x06
    4878:	3f 83       	std	Y+7, r19	; 0x07
    487a:	48 87       	std	Y+8, r20	; 0x08
    487c:	59 87       	std	Y+9, r21	; 0x09
	(int16_t) (alt),						(int32_t) press,							(int16_t) (temp-273.15),  ((int16_t) (temp*10-2731.5))%10, 		(int16_t)volt, ((int16_t) (volt *10)) %10, 
	(int16_t) (((int32_t)gps_t)/10000),		(int16_t) ((((int32_t)gps_t)%10000)/100),	(int16_t) (((int32_t)gps_t)%100),
	(int16_t) gps_lat,						((int32_t) (gps_lat*1000000))%1000000,		(int16_t) gps_long,						(int32_t)(abs(((int32_t)(gps_long*1000000))%1000000)),
    487e:	20 91 fc 21 	lds	r18, 0x21FC	; 0x8021fc <gps_long>
    4882:	30 91 fd 21 	lds	r19, 0x21FD	; 0x8021fd <gps_long+0x1>
    4886:	40 91 fe 21 	lds	r20, 0x21FE	; 0x8021fe <gps_long+0x2>
    488a:	50 91 ff 21 	lds	r21, 0x21FF	; 0x8021ff <gps_long+0x3>
    488e:	2a 87       	std	Y+10, r18	; 0x0a
    4890:	3b 87       	std	Y+11, r19	; 0x0b
    4892:	4c 87       	std	Y+12, r20	; 0x0c
    4894:	5d 87       	std	Y+13, r21	; 0x0d

void time_update(void){
	//packets++;
	
	packets++;
	sprintf(str,format,timer,packets,
    4896:	20 91 fc 21 	lds	r18, 0x21FC	; 0x8021fc <gps_long>
    489a:	30 91 fd 21 	lds	r19, 0x21FD	; 0x8021fd <gps_long+0x1>
    489e:	40 91 fe 21 	lds	r20, 0x21FE	; 0x8021fe <gps_long+0x2>
    48a2:	50 91 ff 21 	lds	r21, 0x21FF	; 0x8021ff <gps_long+0x3>
    48a6:	2e 87       	std	Y+14, r18	; 0x0e
    48a8:	3f 87       	std	Y+15, r19	; 0x0f
    48aa:	48 8b       	std	Y+16, r20	; 0x10
    48ac:	59 8b       	std	Y+17, r21	; 0x11
	(int16_t) (alt),						(int32_t) press,							(int16_t) (temp-273.15),  ((int16_t) (temp*10-2731.5))%10, 		(int16_t)volt, ((int16_t) (volt *10)) %10, 
	(int16_t) (((int32_t)gps_t)/10000),		(int16_t) ((((int32_t)gps_t)%10000)/100),	(int16_t) (((int32_t)gps_t)%100),
	(int16_t) gps_lat,						((int32_t) (gps_lat*1000000))%1000000,		(int16_t) gps_long,						(int32_t)(abs(((int32_t)(gps_long*1000000))%1000000)),
    48ae:	20 91 00 22 	lds	r18, 0x2200	; 0x802200 <gps_lat>
    48b2:	30 91 01 22 	lds	r19, 0x2201	; 0x802201 <gps_lat+0x1>
    48b6:	40 91 02 22 	lds	r20, 0x2202	; 0x802202 <gps_lat+0x2>
    48ba:	50 91 03 22 	lds	r21, 0x2203	; 0x802203 <gps_lat+0x3>
    48be:	2a 8b       	std	Y+18, r18	; 0x12
    48c0:	3b 8b       	std	Y+19, r19	; 0x13
    48c2:	4c 8b       	std	Y+20, r20	; 0x14
    48c4:	5d 8b       	std	Y+21, r21	; 0x15

void time_update(void){
	//packets++;
	
	packets++;
	sprintf(str,format,timer,packets,
    48c6:	20 91 00 22 	lds	r18, 0x2200	; 0x802200 <gps_lat>
    48ca:	30 91 01 22 	lds	r19, 0x2201	; 0x802201 <gps_lat+0x1>
    48ce:	40 91 02 22 	lds	r20, 0x2202	; 0x802202 <gps_lat+0x2>
    48d2:	50 91 03 22 	lds	r21, 0x2203	; 0x802203 <gps_lat+0x3>
    48d6:	2e 8b       	std	Y+22, r18	; 0x16
    48d8:	3f 8b       	std	Y+23, r19	; 0x17
    48da:	48 8f       	std	Y+24, r20	; 0x18
    48dc:	59 8f       	std	Y+25, r21	; 0x19
	(int16_t) (alt),						(int32_t) press,							(int16_t) (temp-273.15),  ((int16_t) (temp*10-2731.5))%10, 		(int16_t)volt, ((int16_t) (volt *10)) %10, 
	(int16_t) (((int32_t)gps_t)/10000),		(int16_t) ((((int32_t)gps_t)%10000)/100),	(int16_t) (((int32_t)gps_t)%100),
    48de:	20 91 04 22 	lds	r18, 0x2204	; 0x802204 <gps_t>
    48e2:	30 91 05 22 	lds	r19, 0x2205	; 0x802205 <gps_t+0x1>
    48e6:	40 91 06 22 	lds	r20, 0x2206	; 0x802206 <gps_t+0x2>
    48ea:	50 91 07 22 	lds	r21, 0x2207	; 0x802207 <gps_t+0x3>
    48ee:	2a 8f       	std	Y+26, r18	; 0x1a
    48f0:	3b 8f       	std	Y+27, r19	; 0x1b
    48f2:	4c 8f       	std	Y+28, r20	; 0x1c
    48f4:	5d 8f       	std	Y+29, r21	; 0x1d
    48f6:	20 91 04 22 	lds	r18, 0x2204	; 0x802204 <gps_t>
    48fa:	30 91 05 22 	lds	r19, 0x2205	; 0x802205 <gps_t+0x1>
    48fe:	40 91 06 22 	lds	r20, 0x2206	; 0x802206 <gps_t+0x2>
    4902:	50 91 07 22 	lds	r21, 0x2207	; 0x802207 <gps_t+0x3>
    4906:	2e 8f       	std	Y+30, r18	; 0x1e
    4908:	3f 8f       	std	Y+31, r19	; 0x1f
    490a:	48 a3       	std	Y+32, r20	; 0x20
    490c:	59 a3       	std	Y+33, r21	; 0x21
    490e:	20 91 04 22 	lds	r18, 0x2204	; 0x802204 <gps_t>
    4912:	30 91 05 22 	lds	r19, 0x2205	; 0x802205 <gps_t+0x1>
    4916:	40 91 06 22 	lds	r20, 0x2206	; 0x802206 <gps_t+0x2>
    491a:	50 91 07 22 	lds	r21, 0x2207	; 0x802207 <gps_t+0x3>
    491e:	2a a3       	std	Y+34, r18	; 0x22
    4920:	3b a3       	std	Y+35, r19	; 0x23
    4922:	4c a3       	std	Y+36, r20	; 0x24
    4924:	5d a3       	std	Y+37, r21	; 0x25
void time_update(void){
	//packets++;
	
	packets++;
	sprintf(str,format,timer,packets,
	(int16_t) (alt),						(int32_t) press,							(int16_t) (temp-273.15),  ((int16_t) (temp*10-2731.5))%10, 		(int16_t)volt, ((int16_t) (volt *10)) %10, 
    4926:	20 91 0c 22 	lds	r18, 0x220C	; 0x80220c <volt>
    492a:	30 91 0d 22 	lds	r19, 0x220D	; 0x80220d <volt+0x1>
    492e:	40 91 0e 22 	lds	r20, 0x220E	; 0x80220e <volt+0x2>
    4932:	50 91 0f 22 	lds	r21, 0x220F	; 0x80220f <volt+0x3>
    4936:	2e a3       	std	Y+38, r18	; 0x26
    4938:	3f a3       	std	Y+39, r19	; 0x27
    493a:	48 a7       	std	Y+40, r20	; 0x28
    493c:	59 a7       	std	Y+41, r21	; 0x29

void time_update(void){
	//packets++;
	
	packets++;
	sprintf(str,format,timer,packets,
    493e:	20 91 0c 22 	lds	r18, 0x220C	; 0x80220c <volt>
    4942:	30 91 0d 22 	lds	r19, 0x220D	; 0x80220d <volt+0x1>
    4946:	40 91 0e 22 	lds	r20, 0x220E	; 0x80220e <volt+0x2>
    494a:	50 91 0f 22 	lds	r21, 0x220F	; 0x80220f <volt+0x3>
    494e:	2a a7       	std	Y+42, r18	; 0x2a
    4950:	3b a7       	std	Y+43, r19	; 0x2b
    4952:	4c a7       	std	Y+44, r20	; 0x2c
    4954:	5d a7       	std	Y+45, r21	; 0x2d
	(int16_t) (alt),						(int32_t) press,							(int16_t) (temp-273.15),  ((int16_t) (temp*10-2731.5))%10, 		(int16_t)volt, ((int16_t) (volt *10)) %10, 
    4956:	20 91 14 22 	lds	r18, 0x2214	; 0x802214 <temp>
    495a:	30 91 15 22 	lds	r19, 0x2215	; 0x802215 <temp+0x1>
    495e:	40 91 16 22 	lds	r20, 0x2216	; 0x802216 <temp+0x2>
    4962:	50 91 17 22 	lds	r21, 0x2217	; 0x802217 <temp+0x3>
    4966:	2e a7       	std	Y+46, r18	; 0x2e
    4968:	3f a7       	std	Y+47, r19	; 0x2f
    496a:	48 ab       	std	Y+48, r20	; 0x30
    496c:	59 ab       	std	Y+49, r21	; 0x31
    496e:	20 91 14 22 	lds	r18, 0x2214	; 0x802214 <temp>
    4972:	30 91 15 22 	lds	r19, 0x2215	; 0x802215 <temp+0x1>
    4976:	40 91 16 22 	lds	r20, 0x2216	; 0x802216 <temp+0x2>
    497a:	50 91 17 22 	lds	r21, 0x2217	; 0x802217 <temp+0x3>
    497e:	2a ab       	std	Y+50, r18	; 0x32
    4980:	3b ab       	std	Y+51, r19	; 0x33
    4982:	4c ab       	std	Y+52, r20	; 0x34
    4984:	5d ab       	std	Y+53, r21	; 0x35

void time_update(void){
	//packets++;
	
	packets++;
	sprintf(str,format,timer,packets,
    4986:	20 91 18 22 	lds	r18, 0x2218	; 0x802218 <press>
    498a:	30 91 19 22 	lds	r19, 0x2219	; 0x802219 <press+0x1>
    498e:	40 91 1a 22 	lds	r20, 0x221A	; 0x80221a <press+0x2>
    4992:	50 91 1b 22 	lds	r21, 0x221B	; 0x80221b <press+0x3>
    4996:	2e ab       	std	Y+54, r18	; 0x36
    4998:	3f ab       	std	Y+55, r19	; 0x37
    499a:	48 af       	std	Y+56, r20	; 0x38
    499c:	59 af       	std	Y+57, r21	; 0x39
    499e:	20 91 10 22 	lds	r18, 0x2210	; 0x802210 <alt>
    49a2:	30 91 11 22 	lds	r19, 0x2211	; 0x802211 <alt+0x1>
    49a6:	40 91 12 22 	lds	r20, 0x2212	; 0x802212 <alt+0x2>
    49aa:	50 91 13 22 	lds	r21, 0x2213	; 0x802213 <alt+0x3>
    49ae:	2a af       	std	Y+58, r18	; 0x3a
    49b0:	3b af       	std	Y+59, r19	; 0x3b
    49b2:	4c af       	std	Y+60, r20	; 0x3c
    49b4:	5d af       	std	Y+61, r21	; 0x3d
    49b6:	20 90 1c 22 	lds	r2, 0x221C	; 0x80221c <packets>
    49ba:	30 90 1d 22 	lds	r3, 0x221D	; 0x80221d <packets+0x1>
    49be:	00 91 20 22 	lds	r16, 0x2220	; 0x802220 <timer>
    49c2:	10 91 21 22 	lds	r17, 0x2221	; 0x802221 <timer+0x1>
    49c6:	0e 94 81 2f 	call	0x5f02	; 0x5f02 <__fixsfsi>
    49ca:	7f 93       	push	r23
    49cc:	6f 93       	push	r22
    49ce:	1f 92       	push	r1
    49d0:	39 81       	ldd	r19, Y+1	; 0x01
    49d2:	3f 93       	push	r19
    49d4:	c3 01       	movw	r24, r6
    49d6:	b2 01       	movw	r22, r4
    49d8:	0e 94 81 2f 	call	0x5f02	; 0x5f02 <__fixsfsi>
    49dc:	7f 93       	push	r23
    49de:	6f 93       	push	r22
    49e0:	c5 01       	movw	r24, r10
    49e2:	b4 01       	movw	r22, r8
    49e4:	0e 94 81 2f 	call	0x5f02	; 0x5f02 <__fixsfsi>
    49e8:	7f 93       	push	r23
    49ea:	6f 93       	push	r22
    49ec:	c7 01       	movw	r24, r14
    49ee:	b6 01       	movw	r22, r12
    49f0:	0e 94 81 2f 	call	0x5f02	; 0x5f02 <__fixsfsi>
    49f4:	7f 93       	push	r23
    49f6:	6f 93       	push	r22
    49f8:	4f ad       	ldd	r20, Y+63	; 0x3f
    49fa:	4f 93       	push	r20
    49fc:	5e ad       	ldd	r21, Y+62	; 0x3e
    49fe:	5f 93       	push	r21
    4a00:	6a 81       	ldd	r22, Y+2	; 0x02
    4a02:	7b 81       	ldd	r23, Y+3	; 0x03
    4a04:	8c 81       	ldd	r24, Y+4	; 0x04
    4a06:	9d 81       	ldd	r25, Y+5	; 0x05
    4a08:	0e 94 81 2f 	call	0x5f02	; 0x5f02 <__fixsfsi>
    4a0c:	9b 01       	movw	r18, r22
    4a0e:	22 0f       	add	r18, r18
    4a10:	33 1f       	adc	r19, r19
    4a12:	66 0f       	add	r22, r22
    4a14:	77 1f       	adc	r23, r23
    4a16:	66 0f       	add	r22, r22
    4a18:	77 1f       	adc	r23, r23
    4a1a:	66 0f       	add	r22, r22
    4a1c:	77 1f       	adc	r23, r23
    4a1e:	c9 01       	movw	r24, r18
    4a20:	86 0f       	add	r24, r22
    4a22:	97 1f       	adc	r25, r23
    4a24:	6a e0       	ldi	r22, 0x0A	; 10
    4a26:	70 e0       	ldi	r23, 0x00	; 0
    4a28:	0e 94 a1 32 	call	0x6542	; 0x6542 <__divmodhi4>
    4a2c:	9f 93       	push	r25
    4a2e:	8f 93       	push	r24
    4a30:	6e 81       	ldd	r22, Y+6	; 0x06
    4a32:	7f 81       	ldd	r23, Y+7	; 0x07
    4a34:	88 85       	ldd	r24, Y+8	; 0x08
    4a36:	99 85       	ldd	r25, Y+9	; 0x09
    4a38:	0e 94 81 2f 	call	0x5f02	; 0x5f02 <__fixsfsi>
    4a3c:	7f 93       	push	r23
    4a3e:	6f 93       	push	r22
    4a40:	20 e0       	ldi	r18, 0x00	; 0
    4a42:	34 e2       	ldi	r19, 0x24	; 36
    4a44:	44 e7       	ldi	r20, 0x74	; 116
    4a46:	59 e4       	ldi	r21, 0x49	; 73
    4a48:	6a 85       	ldd	r22, Y+10	; 0x0a
    4a4a:	7b 85       	ldd	r23, Y+11	; 0x0b
    4a4c:	8c 85       	ldd	r24, Y+12	; 0x0c
    4a4e:	9d 85       	ldd	r25, Y+13	; 0x0d
    4a50:	0e 94 fb 30 	call	0x61f6	; 0x61f6 <__mulsf3>
    4a54:	0e 94 81 2f 	call	0x5f02	; 0x5f02 <__fixsfsi>
    4a58:	20 e4       	ldi	r18, 0x40	; 64
    4a5a:	32 e4       	ldi	r19, 0x42	; 66
    4a5c:	4f e0       	ldi	r20, 0x0F	; 15
    4a5e:	50 e0       	ldi	r21, 0x00	; 0
    4a60:	0e 94 d6 32 	call	0x65ac	; 0x65ac <__divmodsi4>
    4a64:	9b 01       	movw	r18, r22
    4a66:	77 23       	and	r23, r23
    4a68:	24 f4       	brge	.+8      	; 0x4a72 <time_update+0x2b6>
    4a6a:	22 27       	eor	r18, r18
    4a6c:	33 27       	eor	r19, r19
    4a6e:	26 1b       	sub	r18, r22
    4a70:	37 0b       	sbc	r19, r23
    4a72:	c9 01       	movw	r24, r18
    4a74:	33 0f       	add	r19, r19
    4a76:	aa 0b       	sbc	r26, r26
    4a78:	bb 0b       	sbc	r27, r27
    4a7a:	bf 93       	push	r27
    4a7c:	af 93       	push	r26
    4a7e:	9f 93       	push	r25
    4a80:	8f 93       	push	r24
    4a82:	6e 85       	ldd	r22, Y+14	; 0x0e
    4a84:	7f 85       	ldd	r23, Y+15	; 0x0f
    4a86:	88 89       	ldd	r24, Y+16	; 0x10
    4a88:	99 89       	ldd	r25, Y+17	; 0x11
    4a8a:	0e 94 81 2f 	call	0x5f02	; 0x5f02 <__fixsfsi>
    4a8e:	7f 93       	push	r23
    4a90:	6f 93       	push	r22
    4a92:	20 e0       	ldi	r18, 0x00	; 0
    4a94:	34 e2       	ldi	r19, 0x24	; 36
    4a96:	44 e7       	ldi	r20, 0x74	; 116
    4a98:	59 e4       	ldi	r21, 0x49	; 73
    4a9a:	6a 89       	ldd	r22, Y+18	; 0x12
    4a9c:	7b 89       	ldd	r23, Y+19	; 0x13
    4a9e:	8c 89       	ldd	r24, Y+20	; 0x14
    4aa0:	9d 89       	ldd	r25, Y+21	; 0x15
    4aa2:	0e 94 fb 30 	call	0x61f6	; 0x61f6 <__mulsf3>
    4aa6:	0e 94 81 2f 	call	0x5f02	; 0x5f02 <__fixsfsi>
    4aaa:	20 e4       	ldi	r18, 0x40	; 64
    4aac:	32 e4       	ldi	r19, 0x42	; 66
    4aae:	4f e0       	ldi	r20, 0x0F	; 15
    4ab0:	50 e0       	ldi	r21, 0x00	; 0
    4ab2:	0e 94 d6 32 	call	0x65ac	; 0x65ac <__divmodsi4>
    4ab6:	9f 93       	push	r25
    4ab8:	8f 93       	push	r24
    4aba:	7f 93       	push	r23
    4abc:	6f 93       	push	r22
    4abe:	6e 89       	ldd	r22, Y+22	; 0x16
    4ac0:	7f 89       	ldd	r23, Y+23	; 0x17
    4ac2:	88 8d       	ldd	r24, Y+24	; 0x18
    4ac4:	99 8d       	ldd	r25, Y+25	; 0x19
    4ac6:	0e 94 81 2f 	call	0x5f02	; 0x5f02 <__fixsfsi>
    4aca:	7f 93       	push	r23
    4acc:	6f 93       	push	r22
    4ace:	6a 8d       	ldd	r22, Y+26	; 0x1a
    4ad0:	7b 8d       	ldd	r23, Y+27	; 0x1b
    4ad2:	8c 8d       	ldd	r24, Y+28	; 0x1c
    4ad4:	9d 8d       	ldd	r25, Y+29	; 0x1d
    4ad6:	0e 94 81 2f 	call	0x5f02	; 0x5f02 <__fixsfsi>
    4ada:	0f 2e       	mov	r0, r31
    4adc:	f4 e6       	ldi	r31, 0x64	; 100
    4ade:	cf 2e       	mov	r12, r31
    4ae0:	d1 2c       	mov	r13, r1
    4ae2:	e1 2c       	mov	r14, r1
    4ae4:	f1 2c       	mov	r15, r1
    4ae6:	f0 2d       	mov	r31, r0
    4ae8:	a7 01       	movw	r20, r14
    4aea:	96 01       	movw	r18, r12
    4aec:	0e 94 d6 32 	call	0x65ac	; 0x65ac <__divmodsi4>
    4af0:	7f 93       	push	r23
    4af2:	6f 93       	push	r22
    4af4:	6e 8d       	ldd	r22, Y+30	; 0x1e
    4af6:	7f 8d       	ldd	r23, Y+31	; 0x1f
    4af8:	88 a1       	ldd	r24, Y+32	; 0x20
    4afa:	99 a1       	ldd	r25, Y+33	; 0x21
    4afc:	0e 94 81 2f 	call	0x5f02	; 0x5f02 <__fixsfsi>
    4b00:	0f 2e       	mov	r0, r31
    4b02:	f0 e1       	ldi	r31, 0x10	; 16
    4b04:	8f 2e       	mov	r8, r31
    4b06:	f7 e2       	ldi	r31, 0x27	; 39
    4b08:	9f 2e       	mov	r9, r31
    4b0a:	a1 2c       	mov	r10, r1
    4b0c:	b1 2c       	mov	r11, r1
    4b0e:	f0 2d       	mov	r31, r0
    4b10:	a5 01       	movw	r20, r10
    4b12:	94 01       	movw	r18, r8
    4b14:	0e 94 d6 32 	call	0x65ac	; 0x65ac <__divmodsi4>
    4b18:	a7 01       	movw	r20, r14
    4b1a:	96 01       	movw	r18, r12
    4b1c:	0e 94 d6 32 	call	0x65ac	; 0x65ac <__divmodsi4>
    4b20:	3f 93       	push	r19
    4b22:	2f 93       	push	r18
    4b24:	6a a1       	ldd	r22, Y+34	; 0x22
    4b26:	7b a1       	ldd	r23, Y+35	; 0x23
    4b28:	8c a1       	ldd	r24, Y+36	; 0x24
    4b2a:	9d a1       	ldd	r25, Y+37	; 0x25
    4b2c:	0e 94 81 2f 	call	0x5f02	; 0x5f02 <__fixsfsi>
    4b30:	a5 01       	movw	r20, r10
    4b32:	94 01       	movw	r18, r8
    4b34:	0e 94 d6 32 	call	0x65ac	; 0x65ac <__divmodsi4>
    4b38:	3f 93       	push	r19
    4b3a:	2f 93       	push	r18
    4b3c:	20 e0       	ldi	r18, 0x00	; 0
    4b3e:	30 e0       	ldi	r19, 0x00	; 0
    4b40:	40 e2       	ldi	r20, 0x20	; 32
    4b42:	51 e4       	ldi	r21, 0x41	; 65
    4b44:	6e a1       	ldd	r22, Y+38	; 0x26
    4b46:	7f a1       	ldd	r23, Y+39	; 0x27
    4b48:	88 a5       	ldd	r24, Y+40	; 0x28
    4b4a:	99 a5       	ldd	r25, Y+41	; 0x29
    4b4c:	0e 94 fb 30 	call	0x61f6	; 0x61f6 <__mulsf3>
    4b50:	0e 94 81 2f 	call	0x5f02	; 0x5f02 <__fixsfsi>
    4b54:	cb 01       	movw	r24, r22
    4b56:	6a e0       	ldi	r22, 0x0A	; 10
    4b58:	70 e0       	ldi	r23, 0x00	; 0
    4b5a:	0e 94 a1 32 	call	0x6542	; 0x6542 <__divmodhi4>
    4b5e:	9f 93       	push	r25
    4b60:	8f 93       	push	r24
    4b62:	6a a5       	ldd	r22, Y+42	; 0x2a
    4b64:	7b a5       	ldd	r23, Y+43	; 0x2b
    4b66:	8c a5       	ldd	r24, Y+44	; 0x2c
    4b68:	9d a5       	ldd	r25, Y+45	; 0x2d
    4b6a:	0e 94 81 2f 	call	0x5f02	; 0x5f02 <__fixsfsi>
    4b6e:	7f 93       	push	r23
    4b70:	6f 93       	push	r22
    4b72:	20 e0       	ldi	r18, 0x00	; 0
    4b74:	30 e0       	ldi	r19, 0x00	; 0
    4b76:	40 e2       	ldi	r20, 0x20	; 32
    4b78:	51 e4       	ldi	r21, 0x41	; 65
    4b7a:	6e a5       	ldd	r22, Y+46	; 0x2e
    4b7c:	7f a5       	ldd	r23, Y+47	; 0x2f
    4b7e:	88 a9       	ldd	r24, Y+48	; 0x30
    4b80:	99 a9       	ldd	r25, Y+49	; 0x31
    4b82:	0e 94 fb 30 	call	0x61f6	; 0x61f6 <__mulsf3>
    4b86:	20 e0       	ldi	r18, 0x00	; 0
    4b88:	38 eb       	ldi	r19, 0xB8	; 184
    4b8a:	4a e2       	ldi	r20, 0x2A	; 42
    4b8c:	55 e4       	ldi	r21, 0x45	; 69
    4b8e:	0e 94 76 2e 	call	0x5cec	; 0x5cec <__subsf3>
    4b92:	0e 94 81 2f 	call	0x5f02	; 0x5f02 <__fixsfsi>
    4b96:	cb 01       	movw	r24, r22
    4b98:	6a e0       	ldi	r22, 0x0A	; 10
    4b9a:	70 e0       	ldi	r23, 0x00	; 0
    4b9c:	0e 94 a1 32 	call	0x6542	; 0x6542 <__divmodhi4>
    4ba0:	9f 93       	push	r25
    4ba2:	8f 93       	push	r24
    4ba4:	23 e3       	ldi	r18, 0x33	; 51
    4ba6:	33 e9       	ldi	r19, 0x93	; 147
    4ba8:	48 e8       	ldi	r20, 0x88	; 136
    4baa:	53 e4       	ldi	r21, 0x43	; 67
    4bac:	6a a9       	ldd	r22, Y+50	; 0x32
    4bae:	7b a9       	ldd	r23, Y+51	; 0x33
    4bb0:	8c a9       	ldd	r24, Y+52	; 0x34
    4bb2:	9d a9       	ldd	r25, Y+53	; 0x35
    4bb4:	0e 94 76 2e 	call	0x5cec	; 0x5cec <__subsf3>
    4bb8:	0e 94 81 2f 	call	0x5f02	; 0x5f02 <__fixsfsi>
    4bbc:	7f 93       	push	r23
    4bbe:	6f 93       	push	r22
    4bc0:	6e a9       	ldd	r22, Y+54	; 0x36
    4bc2:	7f a9       	ldd	r23, Y+55	; 0x37
    4bc4:	88 ad       	ldd	r24, Y+56	; 0x38
    4bc6:	99 ad       	ldd	r25, Y+57	; 0x39
    4bc8:	0e 94 81 2f 	call	0x5f02	; 0x5f02 <__fixsfsi>
    4bcc:	9f 93       	push	r25
    4bce:	8f 93       	push	r24
    4bd0:	7f 93       	push	r23
    4bd2:	6f 93       	push	r22
    4bd4:	6a ad       	ldd	r22, Y+58	; 0x3a
    4bd6:	7b ad       	ldd	r23, Y+59	; 0x3b
    4bd8:	8c ad       	ldd	r24, Y+60	; 0x3c
    4bda:	9d ad       	ldd	r25, Y+61	; 0x3d
    4bdc:	0e 94 81 2f 	call	0x5f02	; 0x5f02 <__fixsfsi>
    4be0:	7f 93       	push	r23
    4be2:	6f 93       	push	r22
    4be4:	3f 92       	push	r3
    4be6:	2f 92       	push	r2
    4be8:	1f 93       	push	r17
    4bea:	0f 93       	push	r16
    4bec:	80 91 1e 20 	lds	r24, 0x201E	; 0x80201e <format+0x1>
    4bf0:	8f 93       	push	r24
    4bf2:	80 91 1d 20 	lds	r24, 0x201D	; 0x80201d <format>
    4bf6:	8f 93       	push	r24
    4bf8:	80 e9       	ldi	r24, 0x90	; 144
    4bfa:	92 e2       	ldi	r25, 0x22	; 34
    4bfc:	9f 93       	push	r25
    4bfe:	8f 93       	push	r24
    4c00:	0e 94 60 34 	call	0x68c0	; 0x68c0 <sprintf>
	(int16_t) (((int32_t)gps_t)/10000),		(int16_t) ((((int32_t)gps_t)%10000)/100),	(int16_t) (((int32_t)gps_t)%100),
	(int16_t) gps_lat,						((int32_t) (gps_lat*1000000))%1000000,		(int16_t) gps_long,						(int32_t)(abs(((int32_t)(gps_long*1000000))%1000000)),
	(int16_t) gps_alt,						((int16_t) (gps_alt)*10)%10,				gps_sats,
	(int16_t) pitch,						(int16_t) roll,								(int16_t) rpm,
	state,									(int16_t) angle); // Data Logging Test
	printf(str);
    4c04:	cd bf       	out	0x3d, r28	; 61
    4c06:	de bf       	out	0x3e, r29	; 62
    4c08:	80 e9       	ldi	r24, 0x90	; 144
    4c0a:	92 e2       	ldi	r25, 0x22	; 34
    4c0c:	9f 93       	push	r25
    4c0e:	8f 93       	push	r24
    4c10:	0e 94 4d 34 	call	0x689a	; 0x689a <printf>
	
	//printf("%i.%i, %i, %li, %i\n", timer/10, timer%10, (int16_t) alt, (int32_t) press, (int16_t) velocity);
	eeprom_write();
    4c14:	48 dd       	rcall	.-1392   	; 0x46a6 <eeprom_write>

	time_flag = 0;
    4c16:	10 92 40 22 	sts	0x2240, r1	; 0x802240 <time_flag>
}
    4c1a:	0f 90       	pop	r0
    4c1c:	0f 90       	pop	r0
    4c1e:	ef 96       	adiw	r28, 0x3f	; 63
    4c20:	cd bf       	out	0x3d, r28	; 61
    4c22:	de bf       	out	0x3e, r29	; 62
    4c24:	df 91       	pop	r29
    4c26:	cf 91       	pop	r28
    4c28:	1f 91       	pop	r17
    4c2a:	0f 91       	pop	r16
    4c2c:	ff 90       	pop	r15
    4c2e:	ef 90       	pop	r14
    4c30:	df 90       	pop	r13
    4c32:	cf 90       	pop	r12
    4c34:	bf 90       	pop	r11
    4c36:	af 90       	pop	r10
    4c38:	9f 90       	pop	r9
    4c3a:	8f 90       	pop	r8
    4c3c:	7f 90       	pop	r7
    4c3e:	6f 90       	pop	r6
    4c40:	5f 90       	pop	r5
    4c42:	4f 90       	pop	r4
    4c44:	3f 90       	pop	r3
    4c46:	2f 90       	pop	r2
    4c48:	08 95       	ret

00004c4a <eeprom_read>:
	CCP = CCP_IOREG_MODE;
	NVM.CTRLA = CTRLA_CMDEX_BYTE;
	while(NVM.STATUS>>7);
}

uint8_t	eeprom_read(uint16_t address){
    4c4a:	cf 93       	push	r28
    4c4c:	df 93       	push	r29
	NVM.CMD = READ_EEPROM;
    4c4e:	c0 ec       	ldi	r28, 0xC0	; 192
    4c50:	d1 e0       	ldi	r29, 0x01	; 1
    4c52:	26 e0       	ldi	r18, 0x06	; 6
    4c54:	2a 87       	std	Y+10, r18	; 0x0a
	NVM.ADDR0 = address & 0xFF;
    4c56:	88 83       	st	Y, r24
	NVM.ADDR1 = address >> 8;
    4c58:	99 83       	std	Y+1, r25	; 0x01
	CCP = CCP_IOREG_MODE;
    4c5a:	88 ed       	ldi	r24, 0xD8	; 216
    4c5c:	84 bf       	out	0x34, r24	; 52
	NVM.CTRLA = CTRLA_CMDEX_BYTE;
    4c5e:	81 e0       	ldi	r24, 0x01	; 1
    4c60:	8b 87       	std	Y+11, r24	; 0x0b
	delay_ms(1);
    4c62:	66 ed       	ldi	r22, 0xD6	; 214
    4c64:	74 e1       	ldi	r23, 0x14	; 20
    4c66:	80 e0       	ldi	r24, 0x00	; 0
    4c68:	90 e0       	ldi	r25, 0x00	; 0
    4c6a:	0e 94 96 17 	call	0x2f2c	; 0x2f2c <__portable_avr_delay_cycles>
	uint8_t byte = NVM.DATA0;
    4c6e:	8c 81       	ldd	r24, Y+4	; 0x04
	return byte;
}
    4c70:	df 91       	pop	r29
    4c72:	cf 91       	pop	r28
    4c74:	08 95       	ret

00004c76 <system_init>:
	}
}


// Sensor functions
void system_init(void){
    4c76:	2f 92       	push	r2
    4c78:	3f 92       	push	r3
    4c7a:	4f 92       	push	r4
    4c7c:	5f 92       	push	r5
    4c7e:	6f 92       	push	r6
    4c80:	7f 92       	push	r7
    4c82:	8f 92       	push	r8
    4c84:	9f 92       	push	r9
    4c86:	af 92       	push	r10
    4c88:	bf 92       	push	r11
    4c8a:	cf 92       	push	r12
    4c8c:	df 92       	push	r13
    4c8e:	ef 92       	push	r14
    4c90:	ff 92       	push	r15
    4c92:	0f 93       	push	r16
    4c94:	1f 93       	push	r17
    4c96:	cf 93       	push	r28
    4c98:	df 93       	push	r29
    4c9a:	cd b7       	in	r28, 0x3d	; 61
    4c9c:	de b7       	in	r29, 0x3e	; 62
    4c9e:	27 97       	sbiw	r28, 0x07	; 7
    4ca0:	cd bf       	out	0x3d, r28	; 61
    4ca2:	de bf       	out	0x3e, r29	; 62
	// Initialization of systems
	sysclk_init(); // initializes the system clock
    4ca4:	0e 94 26 17 	call	0x2e4c	; 0x2e4c <sysclk_init>
	delay_ms(2); // delays the rest of the processes to ensure a started clock
    4ca8:	6b ea       	ldi	r22, 0xAB	; 171
    4caa:	79 e2       	ldi	r23, 0x29	; 41
    4cac:	80 e0       	ldi	r24, 0x00	; 0
    4cae:	90 e0       	ldi	r25, 0x00	; 0
    4cb0:	0e 94 96 17 	call	0x2f2c	; 0x2f2c <__portable_avr_delay_cycles>
	sei();	// Enables global interrupts
    4cb4:	78 94       	sei

	// Initialization of pins
	PORTC.DIR = 0xBC; // makes Port C have pins, 7, 5, 4, 3, and 2 be output (0b10111100)
    4cb6:	8c eb       	ldi	r24, 0xBC	; 188
    4cb8:	80 93 40 06 	sts	0x0640, r24	; 0x800640 <__TEXT_REGION_LENGTH__+0x700640>
	PMIC.CTRL = PMIC_LOLVLEN_bm | PMIC_MEDLVLEN_bm | PMIC_HILVLEN_bm; // enables all level interrupts
    4cbc:	87 e0       	ldi	r24, 0x07	; 7
    4cbe:	80 93 a2 00 	sts	0x00A2, r24	; 0x8000a2 <__TEXT_REGION_LENGTH__+0x7000a2>

	// Driver Initialization
	cam_init();				// Initializes the Camera
    4cc2:	0e 94 4a 14 	call	0x2894	; 0x2894 <cam_init>
	data_terminal_init();	// Initializes the OpenLog
    4cc6:	0e 94 a2 15 	call	0x2b44	; 0x2b44 <data_terminal_init>
	delay_ms(500);			// Delay to ensure clean writing
    4cca:	6b ea       	ldi	r22, 0xAB	; 171
    4ccc:	70 eb       	ldi	r23, 0xB0	; 176
    4cce:	88 e2       	ldi	r24, 0x28	; 40
    4cd0:	90 e0       	ldi	r25, 0x00	; 0
    4cd2:	0e 94 96 17 	call	0x2f2c	; 0x2f2c <__portable_avr_delay_cycles>

	(*GPS_TERMINAL_SERIAL).CTRLA = USART_RXCINTLVL_HI_gc;
}

void xbee_init(void){
	USARTE0.CTRLA = USART_RXCINTLVL_MED_gc;
    4cd6:	80 e2       	ldi	r24, 0x20	; 32
    4cd8:	80 93 a3 0a 	sts	0x0AA3, r24	; 0x800aa3 <__TEXT_REGION_LENGTH__+0x700aa3>
	// Driver Initialization
	cam_init();				// Initializes the Camera
	data_terminal_init();	// Initializes the OpenLog
	delay_ms(500);			// Delay to ensure clean writing
	xbee_init();			// Sets up XBEE command interrupt
	gps_init();				// Starts the GPS interrupt
    4cdc:	0e 94 d1 17 	call	0x2fa2	; 0x2fa2 <gps_init>
	//buzzer_init();		// Starts the buzzer (used here for debugging)
	//delay_ms(100);

	hall_sensor_init();		// Initializes the hall effect sensor (used here for debugging)
    4ce0:	0e 94 ff 17 	call	0x2ffe	; 0x2ffe <hall_sensor_init>
	thermistor_init();		// Initializes the thermistor
    4ce4:	0e 94 51 14 	call	0x28a2	; 0x28a2 <thermistor_init>
	voltage_init();			// Initializes the voltage reader
    4ce8:	0e 94 e9 15 	call	0x2bd2	; 0x2bd2 <voltage_init>
	spi_init();				// Initializes the SPI communication
    4cec:	0e 94 6f 15 	call	0x2ade	; 0x2ade <spi_init>
	pressure_init();		// Initializes the pressure sensor
    4cf0:	0e 94 ab 17 	call	0x2f56	; 0x2f56 <pressure_init>
	bno_init();				// Initializes the IMU
    4cf4:	0e 94 db 17 	call	0x2fb6	; 0x2fb6 <bno_init>
	cam_switch();			// Starts the camera (used for debugging)
    4cf8:	0e 94 43 14 	call	0x2886	; 0x2886 <cam_switch>
	clock_init();			// Starts the clock for data transmission
    4cfc:	c3 d8       	rcall	.-3706   	; 0x3e84 <clock_init>

	release_servo_init();	// Initializes the release servo
    4cfe:	0e 94 78 1e 	call	0x3cf0	; 0x3cf0 <release_servo_init>
	servo_timer_init();		// Initializes the timer for the servo
    4d02:	12 d8       	rcall	.-4060   	; 0x3d28 <servo_timer_init>

	// Check EEPROM

	volatile uint8_t b1 = eeprom_read(EEPROM_PAGE|CHECK_WRITE_BYTE0);
    4d04:	82 e0       	ldi	r24, 0x02	; 2
    4d06:	90 e1       	ldi	r25, 0x10	; 16
    4d08:	a0 df       	rcall	.-192    	; 0x4c4a <eeprom_read>
    4d0a:	89 83       	std	Y+1, r24	; 0x01
	volatile uint8_t b2 = eeprom_read(EEPROM_PAGE|CHECK_WRITE_BYTE1);
    4d0c:	8f e1       	ldi	r24, 0x1F	; 31
    4d0e:	90 e1       	ldi	r25, 0x10	; 16
    4d10:	9c df       	rcall	.-200    	; 0x4c4a <eeprom_read>
    4d12:	8a 83       	std	Y+2, r24	; 0x02

	if((b1 == b2) && (b1 != 0xFF)){
    4d14:	99 81       	ldd	r25, Y+1	; 0x01
    4d16:	8a 81       	ldd	r24, Y+2	; 0x02
    4d18:	98 13       	cpse	r25, r24
    4d1a:	bc c1       	rjmp	.+888    	; 0x5094 <system_init+0x41e>
    4d1c:	89 81       	ldd	r24, Y+1	; 0x01
    4d1e:	8f 3f       	cpi	r24, 0xFF	; 255
    4d20:	09 f4       	brne	.+2      	; 0x4d24 <system_init+0xae>
		//printf("Reading EEPROM\n");
		uint64_t p =  ((uint64_t) eeprom_read(EEPROM_PAGE|GROUND_PRESS_ADDR7)<<56 | (uint64_t) eeprom_read(EEPROM_PAGE|GROUND_PRESS_ADDR6)<<48 |
    4d22:	b8 c1       	rjmp	.+880    	; 0x5094 <system_init+0x41e>
    4d24:	80 e1       	ldi	r24, 0x10	; 16
    4d26:	90 e1       	ldi	r25, 0x10	; 16
    4d28:	90 df       	rcall	.-224    	; 0x4c4a <eeprom_read>
    4d2a:	18 2f       	mov	r17, r24
    4d2c:	8f e0       	ldi	r24, 0x0F	; 15
    4d2e:	90 e1       	ldi	r25, 0x10	; 16
    4d30:	8c df       	rcall	.-232    	; 0x4c4a <eeprom_read>
    4d32:	b8 2f       	mov	r27, r24
    4d34:	21 2f       	mov	r18, r17
    4d36:	30 e0       	ldi	r19, 0x00	; 0
    4d38:	40 e0       	ldi	r20, 0x00	; 0
    4d3a:	50 e0       	ldi	r21, 0x00	; 0
    4d3c:	60 e0       	ldi	r22, 0x00	; 0
    4d3e:	70 e0       	ldi	r23, 0x00	; 0
    4d40:	80 e0       	ldi	r24, 0x00	; 0
    4d42:	90 e0       	ldi	r25, 0x00	; 0
    4d44:	08 e3       	ldi	r16, 0x38	; 56
    4d46:	0e 94 c3 33 	call	0x6786	; 0x6786 <__ashldi3>
    4d4a:	f2 2e       	mov	r15, r18
    4d4c:	c3 2e       	mov	r12, r19
    4d4e:	d4 2e       	mov	r13, r20
    4d50:	a5 2f       	mov	r26, r21
    4d52:	f6 2f       	mov	r31, r22
    4d54:	e7 2f       	mov	r30, r23
    4d56:	e8 2e       	mov	r14, r24
    4d58:	19 2f       	mov	r17, r25
    4d5a:	2b 2f       	mov	r18, r27
    4d5c:	30 e0       	ldi	r19, 0x00	; 0
    4d5e:	40 e0       	ldi	r20, 0x00	; 0
    4d60:	50 e0       	ldi	r21, 0x00	; 0
    4d62:	60 e0       	ldi	r22, 0x00	; 0
    4d64:	70 e0       	ldi	r23, 0x00	; 0
    4d66:	80 e0       	ldi	r24, 0x00	; 0
    4d68:	90 e0       	ldi	r25, 0x00	; 0
    4d6a:	00 e3       	ldi	r16, 0x30	; 48
    4d6c:	0e 94 c3 33 	call	0x6786	; 0x6786 <__ashldi3>
    4d70:	f2 2a       	or	r15, r18
    4d72:	c3 2a       	or	r12, r19
    4d74:	d4 2a       	or	r13, r20
    4d76:	9a 2e       	mov	r9, r26
    4d78:	95 2a       	or	r9, r21
    4d7a:	af 2e       	mov	r10, r31
    4d7c:	a6 2a       	or	r10, r22
    4d7e:	be 2e       	mov	r11, r30
    4d80:	b7 2a       	or	r11, r23
    4d82:	e8 2a       	or	r14, r24
					   (uint64_t) eeprom_read(EEPROM_PAGE|GROUND_PRESS_ADDR5)<<40 | (uint64_t) eeprom_read(EEPROM_PAGE|GROUND_PRESS_ADDR4)<<32 |
    4d84:	19 2b       	or	r17, r25
    4d86:	8e e0       	ldi	r24, 0x0E	; 14
    4d88:	90 e1       	ldi	r25, 0x10	; 16
    4d8a:	5f df       	rcall	.-322    	; 0x4c4a <eeprom_read>
    4d8c:	08 2f       	mov	r16, r24
    4d8e:	8d e0       	ldi	r24, 0x0D	; 13
    4d90:	90 e1       	ldi	r25, 0x10	; 16
    4d92:	5b df       	rcall	.-330    	; 0x4c4a <eeprom_read>
					   (uint64_t) eeprom_read(EEPROM_PAGE|GROUND_PRESS_ADDR3)<<24 | (uint64_t) eeprom_read(EEPROM_PAGE|GROUND_PRESS_ADDR2)<<16 |
    4d94:	28 2e       	mov	r2, r24
    4d96:	8c e0       	ldi	r24, 0x0C	; 12
    4d98:	90 e1       	ldi	r25, 0x10	; 16
    4d9a:	57 df       	rcall	.-338    	; 0x4c4a <eeprom_read>
    4d9c:	38 2e       	mov	r3, r24
    4d9e:	8b e0       	ldi	r24, 0x0B	; 11
    4da0:	90 e1       	ldi	r25, 0x10	; 16
    4da2:	53 df       	rcall	.-346    	; 0x4c4a <eeprom_read>
					   (uint64_t) eeprom_read(EEPROM_PAGE|GROUND_PRESS_ADDR1)<<8  | (uint64_t) eeprom_read(EEPROM_PAGE|GROUND_PRESS_ADDR0));
    4da4:	48 2e       	mov	r4, r24
    4da6:	8a e0       	ldi	r24, 0x0A	; 10
    4da8:	90 e1       	ldi	r25, 0x10	; 16
    4daa:	4f df       	rcall	.-354    	; 0x4c4a <eeprom_read>
    4dac:	58 2e       	mov	r5, r24
    4dae:	89 e0       	ldi	r24, 0x09	; 9
    4db0:	90 e1       	ldi	r25, 0x10	; 16
    4db2:	4b df       	rcall	.-362    	; 0x4c4a <eeprom_read>
    4db4:	e8 2f       	mov	r30, r24
    4db6:	20 2f       	mov	r18, r16
    4db8:	30 e0       	ldi	r19, 0x00	; 0
    4dba:	40 e0       	ldi	r20, 0x00	; 0
    4dbc:	50 e0       	ldi	r21, 0x00	; 0
    4dbe:	60 e0       	ldi	r22, 0x00	; 0
    4dc0:	70 e0       	ldi	r23, 0x00	; 0
    4dc2:	80 e0       	ldi	r24, 0x00	; 0
    4dc4:	90 e0       	ldi	r25, 0x00	; 0
    4dc6:	08 e2       	ldi	r16, 0x28	; 40
    4dc8:	0e 94 c3 33 	call	0x6786	; 0x6786 <__ashldi3>
    4dcc:	fe 2a       	or	r15, r30
    4dce:	f2 2a       	or	r15, r18
    4dd0:	c3 2a       	or	r12, r19
    4dd2:	d4 2a       	or	r13, r20
    4dd4:	a5 2f       	mov	r26, r21
    4dd6:	a9 29       	or	r26, r9
    4dd8:	f6 2f       	mov	r31, r22
    4dda:	fa 29       	or	r31, r10
    4ddc:	e7 2f       	mov	r30, r23
    4dde:	eb 29       	or	r30, r11
    4de0:	b8 2f       	mov	r27, r24
    4de2:	be 29       	or	r27, r14
    4de4:	e9 2e       	mov	r14, r25
    4de6:	e1 2a       	or	r14, r17
    4de8:	22 2d       	mov	r18, r2
    4dea:	30 e0       	ldi	r19, 0x00	; 0
    4dec:	40 e0       	ldi	r20, 0x00	; 0
    4dee:	50 e0       	ldi	r21, 0x00	; 0
    4df0:	60 e0       	ldi	r22, 0x00	; 0
    4df2:	70 e0       	ldi	r23, 0x00	; 0
    4df4:	80 e0       	ldi	r24, 0x00	; 0
    4df6:	90 e0       	ldi	r25, 0x00	; 0
    4df8:	00 e2       	ldi	r16, 0x20	; 32
    4dfa:	0e 94 c3 33 	call	0x6786	; 0x6786 <__ashldi3>
    4dfe:	f2 2a       	or	r15, r18
    4e00:	c3 2a       	or	r12, r19
    4e02:	d4 2a       	or	r13, r20
    4e04:	a5 2b       	or	r26, r21
    4e06:	f6 2b       	or	r31, r22
    4e08:	e7 2b       	or	r30, r23
    4e0a:	b8 2b       	or	r27, r24
    4e0c:	e9 2a       	or	r14, r25
    4e0e:	23 2d       	mov	r18, r3
    4e10:	30 e0       	ldi	r19, 0x00	; 0
    4e12:	40 e0       	ldi	r20, 0x00	; 0
    4e14:	50 e0       	ldi	r21, 0x00	; 0
    4e16:	60 e0       	ldi	r22, 0x00	; 0
    4e18:	70 e0       	ldi	r23, 0x00	; 0
    4e1a:	80 e0       	ldi	r24, 0x00	; 0
    4e1c:	90 e0       	ldi	r25, 0x00	; 0
    4e1e:	08 e1       	ldi	r16, 0x18	; 24
    4e20:	0e 94 c3 33 	call	0x6786	; 0x6786 <__ashldi3>
    4e24:	f2 2a       	or	r15, r18
    4e26:	c3 2a       	or	r12, r19
    4e28:	8d 2c       	mov	r8, r13
    4e2a:	84 2a       	or	r8, r20
    4e2c:	a5 2b       	or	r26, r21
    4e2e:	f6 2b       	or	r31, r22
    4e30:	e7 2b       	or	r30, r23
    4e32:	db 2e       	mov	r13, r27
    4e34:	d8 2a       	or	r13, r24
    4e36:	e9 2a       	or	r14, r25
    4e38:	24 2d       	mov	r18, r4
    4e3a:	30 e0       	ldi	r19, 0x00	; 0
    4e3c:	40 e0       	ldi	r20, 0x00	; 0
    4e3e:	50 e0       	ldi	r21, 0x00	; 0
    4e40:	60 e0       	ldi	r22, 0x00	; 0
    4e42:	70 e0       	ldi	r23, 0x00	; 0
    4e44:	80 e0       	ldi	r24, 0x00	; 0
    4e46:	90 e0       	ldi	r25, 0x00	; 0
    4e48:	00 e1       	ldi	r16, 0x10	; 16
    4e4a:	0e 94 c3 33 	call	0x6786	; 0x6786 <__ashldi3>
    4e4e:	f2 2a       	or	r15, r18
    4e50:	c3 2a       	or	r12, r19
    4e52:	84 2a       	or	r8, r20
    4e54:	a5 2b       	or	r26, r21
    4e56:	f6 2b       	or	r31, r22
    4e58:	e7 2b       	or	r30, r23
    4e5a:	d8 2a       	or	r13, r24
    4e5c:	e9 2a       	or	r14, r25
    4e5e:	25 2d       	mov	r18, r5
    4e60:	30 e0       	ldi	r19, 0x00	; 0
    4e62:	40 e0       	ldi	r20, 0x00	; 0
    4e64:	50 e0       	ldi	r21, 0x00	; 0
    4e66:	60 e0       	ldi	r22, 0x00	; 0
    4e68:	70 e0       	ldi	r23, 0x00	; 0
    4e6a:	80 e0       	ldi	r24, 0x00	; 0
    4e6c:	90 e0       	ldi	r25, 0x00	; 0
    4e6e:	08 e0       	ldi	r16, 0x08	; 8
    4e70:	0e 94 c3 33 	call	0x6786	; 0x6786 <__ashldi3>
    4e74:	6f 2c       	mov	r6, r15
    4e76:	62 2a       	or	r6, r18
    4e78:	7c 2c       	mov	r7, r12
    4e7a:	73 2a       	or	r7, r19
    4e7c:	84 2a       	or	r8, r20
    4e7e:	9a 2e       	mov	r9, r26
    4e80:	95 2a       	or	r9, r21
    4e82:	af 2e       	mov	r10, r31
    4e84:	a6 2a       	or	r10, r22
    4e86:	be 2e       	mov	r11, r30
    4e88:	b7 2a       	or	r11, r23
    4e8a:	d8 2a       	or	r13, r24
		uint64_t t =  ((uint64_t) eeprom_read(EEPROM_PAGE|GROUND_TEMP_ADDR7)<<56  | (uint64_t) eeprom_read(EEPROM_PAGE|GROUND_TEMP_ADDR6)<<48 |
    4e8c:	e9 2a       	or	r14, r25
    4e8e:	89 e1       	ldi	r24, 0x19	; 25
    4e90:	90 e1       	ldi	r25, 0x10	; 16
    4e92:	db de       	rcall	.-586    	; 0x4c4a <eeprom_read>
    4e94:	18 2f       	mov	r17, r24
    4e96:	88 e1       	ldi	r24, 0x18	; 24
    4e98:	90 e1       	ldi	r25, 0x10	; 16
    4e9a:	d7 de       	rcall	.-594    	; 0x4c4a <eeprom_read>
    4e9c:	48 2e       	mov	r4, r24
    4e9e:	21 2f       	mov	r18, r17
    4ea0:	30 e0       	ldi	r19, 0x00	; 0
    4ea2:	40 e0       	ldi	r20, 0x00	; 0
    4ea4:	50 e0       	ldi	r21, 0x00	; 0
    4ea6:	60 e0       	ldi	r22, 0x00	; 0
    4ea8:	70 e0       	ldi	r23, 0x00	; 0
    4eaa:	80 e0       	ldi	r24, 0x00	; 0
    4eac:	90 e0       	ldi	r25, 0x00	; 0
    4eae:	08 e3       	ldi	r16, 0x38	; 56
    4eb0:	0e 94 c3 33 	call	0x6786	; 0x6786 <__ashldi3>
    4eb4:	c2 2e       	mov	r12, r18
    4eb6:	53 2e       	mov	r5, r19
    4eb8:	b4 2f       	mov	r27, r20
    4eba:	a5 2f       	mov	r26, r21
    4ebc:	f6 2f       	mov	r31, r22
    4ebe:	e7 2f       	mov	r30, r23
    4ec0:	f8 2e       	mov	r15, r24
    4ec2:	19 2f       	mov	r17, r25
    4ec4:	24 2d       	mov	r18, r4
    4ec6:	30 e0       	ldi	r19, 0x00	; 0
    4ec8:	40 e0       	ldi	r20, 0x00	; 0
    4eca:	50 e0       	ldi	r21, 0x00	; 0
    4ecc:	60 e0       	ldi	r22, 0x00	; 0
    4ece:	70 e0       	ldi	r23, 0x00	; 0
    4ed0:	80 e0       	ldi	r24, 0x00	; 0
    4ed2:	90 e0       	ldi	r25, 0x00	; 0
    4ed4:	00 e3       	ldi	r16, 0x30	; 48
    4ed6:	0e 94 c3 33 	call	0x6786	; 0x6786 <__ashldi3>
    4eda:	c2 2a       	or	r12, r18
    4edc:	53 2a       	or	r5, r19
    4ede:	5f 82       	std	Y+7, r5	; 0x07
    4ee0:	2b 2e       	mov	r2, r27
    4ee2:	24 2a       	or	r2, r20
    4ee4:	3a 2e       	mov	r3, r26
    4ee6:	35 2a       	or	r3, r21
    4ee8:	4f 2e       	mov	r4, r31
    4eea:	46 2a       	or	r4, r22
    4eec:	5e 2e       	mov	r5, r30
    4eee:	57 2a       	or	r5, r23
					   (uint64_t) eeprom_read(EEPROM_PAGE|GROUND_TEMP_ADDR5)<<40  | (uint64_t) eeprom_read(EEPROM_PAGE|GROUND_TEMP_ADDR4)<<32 |
    4ef0:	f8 2a       	or	r15, r24
    4ef2:	19 2b       	or	r17, r25
    4ef4:	87 e1       	ldi	r24, 0x17	; 23
    4ef6:	90 e1       	ldi	r25, 0x10	; 16
    4ef8:	a8 de       	rcall	.-688    	; 0x4c4a <eeprom_read>
    4efa:	08 2f       	mov	r16, r24
    4efc:	86 e1       	ldi	r24, 0x16	; 22
    4efe:	90 e1       	ldi	r25, 0x10	; 16
					   (uint64_t) eeprom_read(EEPROM_PAGE|GROUND_TEMP_ADDR3)<<24  | (uint64_t) eeprom_read(EEPROM_PAGE|GROUND_TEMP_ADDR2)<<16 |
    4f00:	a4 de       	rcall	.-696    	; 0x4c4a <eeprom_read>
    4f02:	8b 83       	std	Y+3, r24	; 0x03
    4f04:	85 e1       	ldi	r24, 0x15	; 21
    4f06:	90 e1       	ldi	r25, 0x10	; 16
    4f08:	a0 de       	rcall	.-704    	; 0x4c4a <eeprom_read>
    4f0a:	8c 83       	std	Y+4, r24	; 0x04
    4f0c:	84 e1       	ldi	r24, 0x14	; 20
    4f0e:	90 e1       	ldi	r25, 0x10	; 16
    4f10:	9c de       	rcall	.-712    	; 0x4c4a <eeprom_read>
    4f12:	8d 83       	std	Y+5, r24	; 0x05
					   (uint64_t) eeprom_read(EEPROM_PAGE|GROUND_TEMP_ADDR1)<<8   | (uint64_t) eeprom_read(EEPROM_PAGE|GROUND_TEMP_ADDR0));
    4f14:	83 e1       	ldi	r24, 0x13	; 19
    4f16:	90 e1       	ldi	r25, 0x10	; 16
    4f18:	98 de       	rcall	.-720    	; 0x4c4a <eeprom_read>
    4f1a:	8e 83       	std	Y+6, r24	; 0x06
    4f1c:	82 e1       	ldi	r24, 0x12	; 18
    4f1e:	90 e1       	ldi	r25, 0x10	; 16
    4f20:	94 de       	rcall	.-728    	; 0x4c4a <eeprom_read>
    4f22:	a8 2f       	mov	r26, r24
    4f24:	e7 e3       	ldi	r30, 0x37	; 55
    4f26:	f0 e2       	ldi	r31, 0x20	; 32
		memcpy(&ground_p, &p, 8);
    4f28:	60 82       	st	Z, r6
    4f2a:	71 82       	std	Z+1, r7	; 0x01
    4f2c:	82 82       	std	Z+2, r8	; 0x02
    4f2e:	93 82       	std	Z+3, r9	; 0x03
    4f30:	a4 82       	std	Z+4, r10	; 0x04
    4f32:	b5 82       	std	Z+5, r11	; 0x05
    4f34:	d6 82       	std	Z+6, r13	; 0x06
    4f36:	e7 82       	std	Z+7, r14	; 0x07
    4f38:	e3 e3       	ldi	r30, 0x33	; 51
    4f3a:	f0 e2       	ldi	r31, 0x20	; 32
		memcpy(&ground_t, &t, 8);
    4f3c:	20 2f       	mov	r18, r16
    4f3e:	30 e0       	ldi	r19, 0x00	; 0
    4f40:	40 e0       	ldi	r20, 0x00	; 0
    4f42:	50 e0       	ldi	r21, 0x00	; 0
    4f44:	60 e0       	ldi	r22, 0x00	; 0
    4f46:	70 e0       	ldi	r23, 0x00	; 0
    4f48:	80 e0       	ldi	r24, 0x00	; 0
    4f4a:	90 e0       	ldi	r25, 0x00	; 0
    4f4c:	08 e2       	ldi	r16, 0x28	; 40
    4f4e:	0e 94 c3 33 	call	0x6786	; 0x6786 <__ashldi3>
    4f52:	ca 2a       	or	r12, r26
    4f54:	c2 2a       	or	r12, r18
    4f56:	af 80       	ldd	r10, Y+7	; 0x07
    4f58:	a3 2a       	or	r10, r19
    4f5a:	b4 2e       	mov	r11, r20
    4f5c:	b2 28       	or	r11, r2
    4f5e:	d5 2e       	mov	r13, r21
    4f60:	d3 28       	or	r13, r3
    4f62:	e6 2e       	mov	r14, r22
    4f64:	e4 28       	or	r14, r4
    4f66:	b7 2f       	mov	r27, r23
    4f68:	b5 29       	or	r27, r5
    4f6a:	f8 2a       	or	r15, r24
    4f6c:	19 2b       	or	r17, r25
    4f6e:	2b 81       	ldd	r18, Y+3	; 0x03
    4f70:	30 e0       	ldi	r19, 0x00	; 0
    4f72:	40 e0       	ldi	r20, 0x00	; 0
    4f74:	50 e0       	ldi	r21, 0x00	; 0
    4f76:	60 e0       	ldi	r22, 0x00	; 0
    4f78:	70 e0       	ldi	r23, 0x00	; 0
    4f7a:	80 e0       	ldi	r24, 0x00	; 0
    4f7c:	90 e0       	ldi	r25, 0x00	; 0
    4f7e:	00 e2       	ldi	r16, 0x20	; 32
    4f80:	0e 94 c3 33 	call	0x6786	; 0x6786 <__ashldi3>
    4f84:	c2 2a       	or	r12, r18
    4f86:	a3 2a       	or	r10, r19
    4f88:	b4 2a       	or	r11, r20
    4f8a:	d5 2a       	or	r13, r21
    4f8c:	e6 2a       	or	r14, r22
    4f8e:	b7 2b       	or	r27, r23
    4f90:	f8 2a       	or	r15, r24
    4f92:	19 2b       	or	r17, r25
    4f94:	2c 81       	ldd	r18, Y+4	; 0x04
    4f96:	30 e0       	ldi	r19, 0x00	; 0
    4f98:	40 e0       	ldi	r20, 0x00	; 0
    4f9a:	50 e0       	ldi	r21, 0x00	; 0
    4f9c:	60 e0       	ldi	r22, 0x00	; 0
    4f9e:	70 e0       	ldi	r23, 0x00	; 0
    4fa0:	80 e0       	ldi	r24, 0x00	; 0
    4fa2:	90 e0       	ldi	r25, 0x00	; 0
    4fa4:	08 e1       	ldi	r16, 0x18	; 24
    4fa6:	0e 94 c3 33 	call	0x6786	; 0x6786 <__ashldi3>
    4faa:	c2 2a       	or	r12, r18
    4fac:	a3 2a       	or	r10, r19
    4fae:	b4 2a       	or	r11, r20
    4fb0:	d5 2a       	or	r13, r21
    4fb2:	e6 2a       	or	r14, r22
    4fb4:	b7 2b       	or	r27, r23
    4fb6:	f8 2a       	or	r15, r24
    4fb8:	19 2b       	or	r17, r25
    4fba:	2d 81       	ldd	r18, Y+5	; 0x05
    4fbc:	30 e0       	ldi	r19, 0x00	; 0
    4fbe:	40 e0       	ldi	r20, 0x00	; 0
    4fc0:	50 e0       	ldi	r21, 0x00	; 0
    4fc2:	60 e0       	ldi	r22, 0x00	; 0
    4fc4:	70 e0       	ldi	r23, 0x00	; 0
    4fc6:	80 e0       	ldi	r24, 0x00	; 0
    4fc8:	90 e0       	ldi	r25, 0x00	; 0
    4fca:	00 e1       	ldi	r16, 0x10	; 16
    4fcc:	0e 94 c3 33 	call	0x6786	; 0x6786 <__ashldi3>
    4fd0:	c2 2a       	or	r12, r18
    4fd2:	a3 2a       	or	r10, r19
    4fd4:	b4 2a       	or	r11, r20
    4fd6:	d5 2a       	or	r13, r21
    4fd8:	e6 2a       	or	r14, r22
    4fda:	b7 2b       	or	r27, r23
    4fdc:	f8 2a       	or	r15, r24
    4fde:	19 2b       	or	r17, r25
    4fe0:	2e 81       	ldd	r18, Y+6	; 0x06
    4fe2:	30 e0       	ldi	r19, 0x00	; 0
    4fe4:	40 e0       	ldi	r20, 0x00	; 0
    4fe6:	50 e0       	ldi	r21, 0x00	; 0
    4fe8:	60 e0       	ldi	r22, 0x00	; 0
    4fea:	70 e0       	ldi	r23, 0x00	; 0
    4fec:	80 e0       	ldi	r24, 0x00	; 0
    4fee:	90 e0       	ldi	r25, 0x00	; 0
    4ff0:	08 e0       	ldi	r16, 0x08	; 8
    4ff2:	0e 94 c3 33 	call	0x6786	; 0x6786 <__ashldi3>
    4ff6:	2c 29       	or	r18, r12
    4ff8:	20 83       	st	Z, r18
    4ffa:	3a 29       	or	r19, r10
    4ffc:	31 83       	std	Z+1, r19	; 0x01
    4ffe:	4b 29       	or	r20, r11
    5000:	42 83       	std	Z+2, r20	; 0x02
    5002:	5d 29       	or	r21, r13
    5004:	53 83       	std	Z+3, r21	; 0x03
    5006:	6e 29       	or	r22, r14
    5008:	64 83       	std	Z+4, r22	; 0x04
    500a:	7b 2b       	or	r23, r27
    500c:	75 83       	std	Z+5, r23	; 0x05
    500e:	8f 29       	or	r24, r15
    5010:	86 83       	std	Z+6, r24	; 0x06
    5012:	91 2b       	or	r25, r17

		alt = (double) ((int16_t) (eeprom_read(EEPROM_PAGE|ALT_ADDR_BYTE1)<<8 | eeprom_read(EEPROM_PAGE|ALT_ADDR_BYTE0)));
    5014:	97 83       	std	Z+7, r25	; 0x07
    5016:	81 e0       	ldi	r24, 0x01	; 1
    5018:	90 e1       	ldi	r25, 0x10	; 16
    501a:	17 de       	rcall	.-978    	; 0x4c4a <eeprom_read>
    501c:	18 2f       	mov	r17, r24
    501e:	80 e0       	ldi	r24, 0x00	; 0
    5020:	90 e1       	ldi	r25, 0x10	; 16
    5022:	13 de       	rcall	.-986    	; 0x4c4a <eeprom_read>
    5024:	61 2f       	mov	r22, r17
    5026:	70 e0       	ldi	r23, 0x00	; 0
    5028:	76 2f       	mov	r23, r22
    502a:	66 27       	eor	r22, r22
    502c:	68 2b       	or	r22, r24
    502e:	07 2e       	mov	r0, r23
    5030:	00 0c       	add	r0, r0
    5032:	88 0b       	sbc	r24, r24
    5034:	99 0b       	sbc	r25, r25
    5036:	98 d7       	rcall	.+3888   	; 0x5f68 <__floatsisf>
    5038:	60 93 10 22 	sts	0x2210, r22	; 0x802210 <alt>
    503c:	70 93 11 22 	sts	0x2211, r23	; 0x802211 <alt+0x1>
    5040:	80 93 12 22 	sts	0x2212, r24	; 0x802212 <alt+0x2>
    5044:	90 93 13 22 	sts	0x2213, r25	; 0x802213 <alt+0x3>
		timer = (uint16_t) (eeprom_read(EEPROM_PAGE|TIME_ADDR_BYTE1)<<8 | eeprom_read(EEPROM_PAGE|TIME_ADDR_BYTE0));
    5048:	87 e0       	ldi	r24, 0x07	; 7
    504a:	90 e1       	ldi	r25, 0x10	; 16
    504c:	fe dd       	rcall	.-1028   	; 0x4c4a <eeprom_read>
    504e:	18 2f       	mov	r17, r24
    5050:	86 e0       	ldi	r24, 0x06	; 6
    5052:	90 e1       	ldi	r25, 0x10	; 16
    5054:	fa dd       	rcall	.-1036   	; 0x4c4a <eeprom_read>
    5056:	21 2f       	mov	r18, r17
    5058:	30 e0       	ldi	r19, 0x00	; 0
    505a:	32 2f       	mov	r19, r18
    505c:	22 27       	eor	r18, r18
    505e:	28 2b       	or	r18, r24
    5060:	20 93 20 22 	sts	0x2220, r18	; 0x802220 <timer>
    5064:	30 93 21 22 	sts	0x2221, r19	; 0x802221 <timer+0x1>
		packets = (uint16_t) (eeprom_read(EEPROM_PAGE|PACKET_ADDR_BYTE1)<<8 | eeprom_read(EEPROM_PAGE|PACKET_ADDR_BYTE0));
    5068:	84 e0       	ldi	r24, 0x04	; 4
    506a:	90 e1       	ldi	r25, 0x10	; 16
    506c:	ee dd       	rcall	.-1060   	; 0x4c4a <eeprom_read>
    506e:	18 2f       	mov	r17, r24
    5070:	83 e0       	ldi	r24, 0x03	; 3
    5072:	90 e1       	ldi	r25, 0x10	; 16
    5074:	ea dd       	rcall	.-1068   	; 0x4c4a <eeprom_read>
    5076:	21 2f       	mov	r18, r17
    5078:	30 e0       	ldi	r19, 0x00	; 0
    507a:	32 2f       	mov	r19, r18
    507c:	22 27       	eor	r18, r18
    507e:	28 2b       	or	r18, r24
    5080:	20 93 1c 22 	sts	0x221C, r18	; 0x80221c <packets>
    5084:	30 93 1d 22 	sts	0x221D, r19	; 0x80221d <packets+0x1>
		state = eeprom_read(EEPROM_PAGE|STATE_BYTE);
    5088:	85 e0       	ldi	r24, 0x05	; 5
    508a:	90 e1       	ldi	r25, 0x10	; 16
    508c:	de dd       	rcall	.-1092   	; 0x4c4a <eeprom_read>
    508e:	80 93 42 22 	sts	0x2242, r24	; 0x802242 <state>
	// Check EEPROM

	volatile uint8_t b1 = eeprom_read(EEPROM_PAGE|CHECK_WRITE_BYTE0);
	volatile uint8_t b2 = eeprom_read(EEPROM_PAGE|CHECK_WRITE_BYTE1);

	if((b1 == b2) && (b1 != 0xFF)){
    5092:	95 c1       	rjmp	.+810    	; 0x53be <system_init+0x748>
		timer = (uint16_t) (eeprom_read(EEPROM_PAGE|TIME_ADDR_BYTE1)<<8 | eeprom_read(EEPROM_PAGE|TIME_ADDR_BYTE0));
		packets = (uint16_t) (eeprom_read(EEPROM_PAGE|PACKET_ADDR_BYTE1)<<8 | eeprom_read(EEPROM_PAGE|PACKET_ADDR_BYTE0));
		state = eeprom_read(EEPROM_PAGE|STATE_BYTE);
		//printf("Ground Pressure: %li\nGround Temperature: %i\n", (int32_t) ground_p, (int16_t) ground_t);
	}
	else if(b1 != 0xFF){
    5094:	89 81       	ldd	r24, Y+1	; 0x01
    5096:	8f 3f       	cpi	r24, 0xFF	; 255
    5098:	09 f4       	brne	.+2      	; 0x509c <system_init+0x426>
    509a:	7a c1       	rjmp	.+756    	; 0x5390 <system_init+0x71a>
		state = -1;
    509c:	8f ef       	ldi	r24, 0xFF	; 255
    509e:	80 93 42 22 	sts	0x2242, r24	; 0x802242 <state>
		uint64_t p =  ((uint64_t) eeprom_read(EEPROM_PAGE|GROUND_PRESS_ADDR7)<<56 | (uint64_t) eeprom_read(EEPROM_PAGE|GROUND_PRESS_ADDR6)<<48 |
    50a2:	80 e1       	ldi	r24, 0x10	; 16
    50a4:	90 e1       	ldi	r25, 0x10	; 16
    50a6:	d1 dd       	rcall	.-1118   	; 0x4c4a <eeprom_read>
    50a8:	18 2f       	mov	r17, r24
    50aa:	8f e0       	ldi	r24, 0x0F	; 15
    50ac:	90 e1       	ldi	r25, 0x10	; 16
    50ae:	cd dd       	rcall	.-1126   	; 0x4c4a <eeprom_read>
    50b0:	b8 2f       	mov	r27, r24
    50b2:	21 2f       	mov	r18, r17
    50b4:	30 e0       	ldi	r19, 0x00	; 0
    50b6:	40 e0       	ldi	r20, 0x00	; 0
    50b8:	50 e0       	ldi	r21, 0x00	; 0
    50ba:	60 e0       	ldi	r22, 0x00	; 0
    50bc:	70 e0       	ldi	r23, 0x00	; 0
    50be:	80 e0       	ldi	r24, 0x00	; 0
    50c0:	90 e0       	ldi	r25, 0x00	; 0
    50c2:	08 e3       	ldi	r16, 0x38	; 56
    50c4:	0e 94 c3 33 	call	0x6786	; 0x6786 <__ashldi3>
    50c8:	12 2f       	mov	r17, r18
    50ca:	c3 2e       	mov	r12, r19
    50cc:	f4 2e       	mov	r15, r20
    50ce:	a5 2f       	mov	r26, r21
    50d0:	f6 2f       	mov	r31, r22
    50d2:	e7 2f       	mov	r30, r23
    50d4:	d8 2e       	mov	r13, r24
    50d6:	e9 2e       	mov	r14, r25
    50d8:	2b 2f       	mov	r18, r27
    50da:	30 e0       	ldi	r19, 0x00	; 0
    50dc:	40 e0       	ldi	r20, 0x00	; 0
    50de:	50 e0       	ldi	r21, 0x00	; 0
    50e0:	60 e0       	ldi	r22, 0x00	; 0
    50e2:	70 e0       	ldi	r23, 0x00	; 0
    50e4:	80 e0       	ldi	r24, 0x00	; 0
    50e6:	90 e0       	ldi	r25, 0x00	; 0
    50e8:	00 e3       	ldi	r16, 0x30	; 48
    50ea:	0e 94 c3 33 	call	0x6786	; 0x6786 <__ashldi3>
    50ee:	12 2b       	or	r17, r18
    50f0:	c3 2a       	or	r12, r19
    50f2:	f4 2a       	or	r15, r20
    50f4:	9a 2e       	mov	r9, r26
    50f6:	95 2a       	or	r9, r21
    50f8:	af 2e       	mov	r10, r31
    50fa:	a6 2a       	or	r10, r22
		(uint64_t) eeprom_read(EEPROM_PAGE|GROUND_PRESS_ADDR5)<<40 | (uint64_t) eeprom_read(EEPROM_PAGE|GROUND_PRESS_ADDR4)<<32 |
    50fc:	be 2e       	mov	r11, r30
    50fe:	b7 2a       	or	r11, r23
    5100:	d8 2a       	or	r13, r24
    5102:	e9 2a       	or	r14, r25
    5104:	8e e0       	ldi	r24, 0x0E	; 14
    5106:	90 e1       	ldi	r25, 0x10	; 16
    5108:	a0 dd       	rcall	.-1216   	; 0x4c4a <eeprom_read>
    510a:	08 2f       	mov	r16, r24
    510c:	8d e0       	ldi	r24, 0x0D	; 13
    510e:	90 e1       	ldi	r25, 0x10	; 16
		(uint64_t) eeprom_read(EEPROM_PAGE|GROUND_PRESS_ADDR3)<<24 | (uint64_t) eeprom_read(EEPROM_PAGE|GROUND_PRESS_ADDR2)<<16 |
    5110:	9c dd       	rcall	.-1224   	; 0x4c4a <eeprom_read>
    5112:	28 2e       	mov	r2, r24
    5114:	8c e0       	ldi	r24, 0x0C	; 12
    5116:	90 e1       	ldi	r25, 0x10	; 16
    5118:	98 dd       	rcall	.-1232   	; 0x4c4a <eeprom_read>
    511a:	38 2e       	mov	r3, r24
    511c:	8b e0       	ldi	r24, 0x0B	; 11
    511e:	90 e1       	ldi	r25, 0x10	; 16
    5120:	94 dd       	rcall	.-1240   	; 0x4c4a <eeprom_read>
    5122:	48 2e       	mov	r4, r24
		(uint64_t) eeprom_read(EEPROM_PAGE|GROUND_PRESS_ADDR1)<<8  | (uint64_t) eeprom_read(EEPROM_PAGE|GROUND_PRESS_ADDR0));
    5124:	8a e0       	ldi	r24, 0x0A	; 10
    5126:	90 e1       	ldi	r25, 0x10	; 16
    5128:	90 dd       	rcall	.-1248   	; 0x4c4a <eeprom_read>
    512a:	58 2e       	mov	r5, r24
    512c:	89 e0       	ldi	r24, 0x09	; 9
    512e:	90 e1       	ldi	r25, 0x10	; 16
    5130:	8c dd       	rcall	.-1256   	; 0x4c4a <eeprom_read>
    5132:	68 2e       	mov	r6, r24
    5134:	20 2f       	mov	r18, r16
    5136:	30 e0       	ldi	r19, 0x00	; 0
    5138:	40 e0       	ldi	r20, 0x00	; 0
    513a:	50 e0       	ldi	r21, 0x00	; 0
    513c:	60 e0       	ldi	r22, 0x00	; 0
    513e:	70 e0       	ldi	r23, 0x00	; 0
    5140:	80 e0       	ldi	r24, 0x00	; 0
    5142:	90 e0       	ldi	r25, 0x00	; 0
    5144:	08 e2       	ldi	r16, 0x28	; 40
    5146:	0e 94 c3 33 	call	0x6786	; 0x6786 <__ashldi3>
    514a:	16 29       	or	r17, r6
    514c:	12 2b       	or	r17, r18
    514e:	c3 2a       	or	r12, r19
    5150:	f4 2a       	or	r15, r20
    5152:	a5 2f       	mov	r26, r21
    5154:	a9 29       	or	r26, r9
    5156:	f6 2f       	mov	r31, r22
    5158:	fa 29       	or	r31, r10
    515a:	e7 2f       	mov	r30, r23
    515c:	eb 29       	or	r30, r11
    515e:	d8 2a       	or	r13, r24
    5160:	e9 2a       	or	r14, r25
    5162:	22 2d       	mov	r18, r2
    5164:	30 e0       	ldi	r19, 0x00	; 0
    5166:	40 e0       	ldi	r20, 0x00	; 0
    5168:	50 e0       	ldi	r21, 0x00	; 0
    516a:	60 e0       	ldi	r22, 0x00	; 0
    516c:	70 e0       	ldi	r23, 0x00	; 0
    516e:	80 e0       	ldi	r24, 0x00	; 0
    5170:	90 e0       	ldi	r25, 0x00	; 0
    5172:	00 e2       	ldi	r16, 0x20	; 32
    5174:	0e 94 c3 33 	call	0x6786	; 0x6786 <__ashldi3>
    5178:	12 2b       	or	r17, r18
    517a:	c3 2a       	or	r12, r19
    517c:	f4 2a       	or	r15, r20
    517e:	a5 2b       	or	r26, r21
    5180:	f6 2b       	or	r31, r22
    5182:	e7 2b       	or	r30, r23
    5184:	d8 2a       	or	r13, r24
    5186:	e9 2a       	or	r14, r25
    5188:	23 2d       	mov	r18, r3
    518a:	30 e0       	ldi	r19, 0x00	; 0
    518c:	40 e0       	ldi	r20, 0x00	; 0
    518e:	50 e0       	ldi	r21, 0x00	; 0
    5190:	60 e0       	ldi	r22, 0x00	; 0
    5192:	70 e0       	ldi	r23, 0x00	; 0
    5194:	80 e0       	ldi	r24, 0x00	; 0
    5196:	90 e0       	ldi	r25, 0x00	; 0
    5198:	08 e1       	ldi	r16, 0x18	; 24
    519a:	0e 94 c3 33 	call	0x6786	; 0x6786 <__ashldi3>
    519e:	12 2b       	or	r17, r18
    51a0:	c3 2a       	or	r12, r19
    51a2:	f4 2a       	or	r15, r20
    51a4:	a5 2b       	or	r26, r21
    51a6:	f6 2b       	or	r31, r22
    51a8:	e7 2b       	or	r30, r23
    51aa:	d8 2a       	or	r13, r24
    51ac:	e9 2a       	or	r14, r25
    51ae:	24 2d       	mov	r18, r4
    51b0:	30 e0       	ldi	r19, 0x00	; 0
    51b2:	40 e0       	ldi	r20, 0x00	; 0
    51b4:	50 e0       	ldi	r21, 0x00	; 0
    51b6:	60 e0       	ldi	r22, 0x00	; 0
    51b8:	70 e0       	ldi	r23, 0x00	; 0
    51ba:	80 e0       	ldi	r24, 0x00	; 0
    51bc:	90 e0       	ldi	r25, 0x00	; 0
    51be:	00 e1       	ldi	r16, 0x10	; 16
    51c0:	0e 94 c3 33 	call	0x6786	; 0x6786 <__ashldi3>
    51c4:	12 2b       	or	r17, r18
    51c6:	c3 2a       	or	r12, r19
    51c8:	f4 2a       	or	r15, r20
    51ca:	a5 2b       	or	r26, r21
    51cc:	f6 2b       	or	r31, r22
    51ce:	e7 2b       	or	r30, r23
    51d0:	d8 2a       	or	r13, r24
    51d2:	e9 2a       	or	r14, r25
    51d4:	25 2d       	mov	r18, r5
    51d6:	30 e0       	ldi	r19, 0x00	; 0
    51d8:	40 e0       	ldi	r20, 0x00	; 0
    51da:	50 e0       	ldi	r21, 0x00	; 0
    51dc:	60 e0       	ldi	r22, 0x00	; 0
    51de:	70 e0       	ldi	r23, 0x00	; 0
    51e0:	80 e0       	ldi	r24, 0x00	; 0
    51e2:	90 e0       	ldi	r25, 0x00	; 0
    51e4:	08 e0       	ldi	r16, 0x08	; 8
    51e6:	0e 94 c3 33 	call	0x6786	; 0x6786 <__ashldi3>
    51ea:	61 2e       	mov	r6, r17
    51ec:	62 2a       	or	r6, r18
    51ee:	7c 2c       	mov	r7, r12
    51f0:	73 2a       	or	r7, r19
    51f2:	8f 2c       	mov	r8, r15
    51f4:	84 2a       	or	r8, r20
    51f6:	9a 2e       	mov	r9, r26
    51f8:	95 2a       	or	r9, r21
    51fa:	af 2e       	mov	r10, r31
    51fc:	a6 2a       	or	r10, r22
    51fe:	be 2e       	mov	r11, r30
    5200:	b7 2a       	or	r11, r23
    5202:	d8 2a       	or	r13, r24
    5204:	e9 2a       	or	r14, r25
		uint64_t t =  ((uint64_t) eeprom_read(EEPROM_PAGE|GROUND_TEMP_ADDR7)<<56  | (uint64_t) eeprom_read(EEPROM_PAGE|GROUND_TEMP_ADDR6)<<48 |
    5206:	89 e1       	ldi	r24, 0x19	; 25
    5208:	90 e1       	ldi	r25, 0x10	; 16
    520a:	1f dd       	rcall	.-1474   	; 0x4c4a <eeprom_read>
    520c:	18 2f       	mov	r17, r24
    520e:	88 e1       	ldi	r24, 0x18	; 24
    5210:	90 e1       	ldi	r25, 0x10	; 16
    5212:	1b dd       	rcall	.-1482   	; 0x4c4a <eeprom_read>
    5214:	48 2e       	mov	r4, r24
    5216:	21 2f       	mov	r18, r17
    5218:	30 e0       	ldi	r19, 0x00	; 0
    521a:	40 e0       	ldi	r20, 0x00	; 0
    521c:	50 e0       	ldi	r21, 0x00	; 0
    521e:	60 e0       	ldi	r22, 0x00	; 0
    5220:	70 e0       	ldi	r23, 0x00	; 0
    5222:	80 e0       	ldi	r24, 0x00	; 0
    5224:	90 e0       	ldi	r25, 0x00	; 0
    5226:	08 e3       	ldi	r16, 0x38	; 56
    5228:	0e 94 c3 33 	call	0x6786	; 0x6786 <__ashldi3>
    522c:	c2 2e       	mov	r12, r18
    522e:	53 2e       	mov	r5, r19
    5230:	b4 2f       	mov	r27, r20
    5232:	a5 2f       	mov	r26, r21
    5234:	f6 2f       	mov	r31, r22
    5236:	e7 2f       	mov	r30, r23
    5238:	f8 2e       	mov	r15, r24
    523a:	19 2f       	mov	r17, r25
    523c:	24 2d       	mov	r18, r4
    523e:	30 e0       	ldi	r19, 0x00	; 0
    5240:	40 e0       	ldi	r20, 0x00	; 0
    5242:	50 e0       	ldi	r21, 0x00	; 0
    5244:	60 e0       	ldi	r22, 0x00	; 0
    5246:	70 e0       	ldi	r23, 0x00	; 0
    5248:	80 e0       	ldi	r24, 0x00	; 0
    524a:	90 e0       	ldi	r25, 0x00	; 0
    524c:	00 e3       	ldi	r16, 0x30	; 48
    524e:	0e 94 c3 33 	call	0x6786	; 0x6786 <__ashldi3>
    5252:	c2 2a       	or	r12, r18
    5254:	53 2a       	or	r5, r19
    5256:	5f 82       	std	Y+7, r5	; 0x07
    5258:	2b 2e       	mov	r2, r27
    525a:	24 2a       	or	r2, r20
    525c:	3a 2e       	mov	r3, r26
    525e:	35 2a       	or	r3, r21
    5260:	4f 2e       	mov	r4, r31
    5262:	46 2a       	or	r4, r22
		(uint64_t) eeprom_read(EEPROM_PAGE|GROUND_TEMP_ADDR5)<<40  | (uint64_t) eeprom_read(EEPROM_PAGE|GROUND_TEMP_ADDR4)<<32 |
    5264:	5e 2e       	mov	r5, r30
    5266:	57 2a       	or	r5, r23
    5268:	f8 2a       	or	r15, r24
    526a:	19 2b       	or	r17, r25
    526c:	87 e1       	ldi	r24, 0x17	; 23
    526e:	90 e1       	ldi	r25, 0x10	; 16
    5270:	ec dc       	rcall	.-1576   	; 0x4c4a <eeprom_read>
    5272:	08 2f       	mov	r16, r24
    5274:	86 e1       	ldi	r24, 0x16	; 22
    5276:	90 e1       	ldi	r25, 0x10	; 16
		(uint64_t) eeprom_read(EEPROM_PAGE|GROUND_TEMP_ADDR3)<<24  | (uint64_t) eeprom_read(EEPROM_PAGE|GROUND_TEMP_ADDR2)<<16 |
    5278:	e8 dc       	rcall	.-1584   	; 0x4c4a <eeprom_read>
    527a:	8b 83       	std	Y+3, r24	; 0x03
    527c:	85 e1       	ldi	r24, 0x15	; 21
    527e:	90 e1       	ldi	r25, 0x10	; 16
    5280:	e4 dc       	rcall	.-1592   	; 0x4c4a <eeprom_read>
    5282:	8c 83       	std	Y+4, r24	; 0x04
    5284:	84 e1       	ldi	r24, 0x14	; 20
    5286:	90 e1       	ldi	r25, 0x10	; 16
    5288:	e0 dc       	rcall	.-1600   	; 0x4c4a <eeprom_read>
    528a:	8d 83       	std	Y+5, r24	; 0x05
		(uint64_t) eeprom_read(EEPROM_PAGE|GROUND_TEMP_ADDR1)<<8   | (uint64_t) eeprom_read(EEPROM_PAGE|GROUND_TEMP_ADDR0));
    528c:	83 e1       	ldi	r24, 0x13	; 19
    528e:	90 e1       	ldi	r25, 0x10	; 16
    5290:	dc dc       	rcall	.-1608   	; 0x4c4a <eeprom_read>
    5292:	8e 83       	std	Y+6, r24	; 0x06
    5294:	82 e1       	ldi	r24, 0x12	; 18
    5296:	90 e1       	ldi	r25, 0x10	; 16
    5298:	d8 dc       	rcall	.-1616   	; 0x4c4a <eeprom_read>
    529a:	a8 2f       	mov	r26, r24
    529c:	e7 e3       	ldi	r30, 0x37	; 55
    529e:	f0 e2       	ldi	r31, 0x20	; 32
		memcpy(&ground_p, &p, 8);
    52a0:	60 82       	st	Z, r6
    52a2:	71 82       	std	Z+1, r7	; 0x01
    52a4:	82 82       	std	Z+2, r8	; 0x02
    52a6:	93 82       	std	Z+3, r9	; 0x03
    52a8:	a4 82       	std	Z+4, r10	; 0x04
    52aa:	b5 82       	std	Z+5, r11	; 0x05
    52ac:	d6 82       	std	Z+6, r13	; 0x06
    52ae:	e7 82       	std	Z+7, r14	; 0x07
    52b0:	e3 e3       	ldi	r30, 0x33	; 51
    52b2:	f0 e2       	ldi	r31, 0x20	; 32
		memcpy(&ground_t, &t, 8);		
    52b4:	20 2f       	mov	r18, r16
    52b6:	30 e0       	ldi	r19, 0x00	; 0
    52b8:	40 e0       	ldi	r20, 0x00	; 0
    52ba:	50 e0       	ldi	r21, 0x00	; 0
    52bc:	60 e0       	ldi	r22, 0x00	; 0
    52be:	70 e0       	ldi	r23, 0x00	; 0
    52c0:	80 e0       	ldi	r24, 0x00	; 0
    52c2:	90 e0       	ldi	r25, 0x00	; 0
    52c4:	08 e2       	ldi	r16, 0x28	; 40
    52c6:	0e 94 c3 33 	call	0x6786	; 0x6786 <__ashldi3>
    52ca:	ca 2a       	or	r12, r26
    52cc:	c2 2a       	or	r12, r18
    52ce:	af 80       	ldd	r10, Y+7	; 0x07
    52d0:	a3 2a       	or	r10, r19
    52d2:	b4 2e       	mov	r11, r20
    52d4:	b2 28       	or	r11, r2
    52d6:	d5 2e       	mov	r13, r21
    52d8:	d3 28       	or	r13, r3
    52da:	e6 2e       	mov	r14, r22
    52dc:	e4 28       	or	r14, r4
    52de:	b7 2f       	mov	r27, r23
    52e0:	b5 29       	or	r27, r5
    52e2:	f8 2a       	or	r15, r24
    52e4:	19 2b       	or	r17, r25
    52e6:	2b 81       	ldd	r18, Y+3	; 0x03
    52e8:	30 e0       	ldi	r19, 0x00	; 0
    52ea:	40 e0       	ldi	r20, 0x00	; 0
    52ec:	50 e0       	ldi	r21, 0x00	; 0
    52ee:	60 e0       	ldi	r22, 0x00	; 0
    52f0:	70 e0       	ldi	r23, 0x00	; 0
    52f2:	80 e0       	ldi	r24, 0x00	; 0
    52f4:	90 e0       	ldi	r25, 0x00	; 0
    52f6:	00 e2       	ldi	r16, 0x20	; 32
    52f8:	0e 94 c3 33 	call	0x6786	; 0x6786 <__ashldi3>
    52fc:	c2 2a       	or	r12, r18
    52fe:	a3 2a       	or	r10, r19
    5300:	b4 2a       	or	r11, r20
    5302:	d5 2a       	or	r13, r21
    5304:	e6 2a       	or	r14, r22
    5306:	b7 2b       	or	r27, r23
    5308:	f8 2a       	or	r15, r24
    530a:	19 2b       	or	r17, r25
    530c:	2c 81       	ldd	r18, Y+4	; 0x04
    530e:	30 e0       	ldi	r19, 0x00	; 0
    5310:	40 e0       	ldi	r20, 0x00	; 0
    5312:	50 e0       	ldi	r21, 0x00	; 0
    5314:	60 e0       	ldi	r22, 0x00	; 0
    5316:	70 e0       	ldi	r23, 0x00	; 0
    5318:	80 e0       	ldi	r24, 0x00	; 0
    531a:	90 e0       	ldi	r25, 0x00	; 0
    531c:	08 e1       	ldi	r16, 0x18	; 24
    531e:	0e 94 c3 33 	call	0x6786	; 0x6786 <__ashldi3>
    5322:	c2 2a       	or	r12, r18
    5324:	a3 2a       	or	r10, r19
    5326:	b4 2a       	or	r11, r20
    5328:	d5 2a       	or	r13, r21
    532a:	e6 2a       	or	r14, r22
    532c:	b7 2b       	or	r27, r23
    532e:	f8 2a       	or	r15, r24
    5330:	19 2b       	or	r17, r25
    5332:	2d 81       	ldd	r18, Y+5	; 0x05
    5334:	30 e0       	ldi	r19, 0x00	; 0
    5336:	40 e0       	ldi	r20, 0x00	; 0
    5338:	50 e0       	ldi	r21, 0x00	; 0
    533a:	60 e0       	ldi	r22, 0x00	; 0
    533c:	70 e0       	ldi	r23, 0x00	; 0
    533e:	80 e0       	ldi	r24, 0x00	; 0
    5340:	90 e0       	ldi	r25, 0x00	; 0
    5342:	00 e1       	ldi	r16, 0x10	; 16
    5344:	0e 94 c3 33 	call	0x6786	; 0x6786 <__ashldi3>
    5348:	c2 2a       	or	r12, r18
    534a:	a3 2a       	or	r10, r19
    534c:	b4 2a       	or	r11, r20
    534e:	d5 2a       	or	r13, r21
    5350:	e6 2a       	or	r14, r22
    5352:	b7 2b       	or	r27, r23
    5354:	f8 2a       	or	r15, r24
    5356:	19 2b       	or	r17, r25
    5358:	2e 81       	ldd	r18, Y+6	; 0x06
    535a:	30 e0       	ldi	r19, 0x00	; 0
    535c:	40 e0       	ldi	r20, 0x00	; 0
    535e:	50 e0       	ldi	r21, 0x00	; 0
    5360:	60 e0       	ldi	r22, 0x00	; 0
    5362:	70 e0       	ldi	r23, 0x00	; 0
    5364:	80 e0       	ldi	r24, 0x00	; 0
    5366:	90 e0       	ldi	r25, 0x00	; 0
    5368:	08 e0       	ldi	r16, 0x08	; 8
    536a:	0e 94 c3 33 	call	0x6786	; 0x6786 <__ashldi3>
    536e:	2c 29       	or	r18, r12
    5370:	20 83       	st	Z, r18
    5372:	3a 29       	or	r19, r10
    5374:	31 83       	std	Z+1, r19	; 0x01
    5376:	4b 29       	or	r20, r11
    5378:	42 83       	std	Z+2, r20	; 0x02
    537a:	5d 29       	or	r21, r13
    537c:	53 83       	std	Z+3, r21	; 0x03
    537e:	6e 29       	or	r22, r14
    5380:	64 83       	std	Z+4, r22	; 0x04
    5382:	7b 2b       	or	r23, r27
    5384:	75 83       	std	Z+5, r23	; 0x05
    5386:	8f 29       	or	r24, r15
    5388:	86 83       	std	Z+6, r24	; 0x06
    538a:	91 2b       	or	r25, r17
    538c:	97 83       	std	Z+7, r25	; 0x07
    538e:	17 c0       	rjmp	.+46     	; 0x53be <system_init+0x748>
    5390:	0e 94 3f 18 	call	0x307e	; 0x307e <get_pressure>
	}
	else{
		// Initialization of variables
		ground_p = get_pressure();
    5394:	60 93 37 20 	sts	0x2037, r22	; 0x802037 <ground_p>
    5398:	70 93 38 20 	sts	0x2038, r23	; 0x802038 <ground_p+0x1>
    539c:	80 93 39 20 	sts	0x2039, r24	; 0x802039 <ground_p+0x2>
    53a0:	90 93 3a 20 	sts	0x203A, r25	; 0x80203a <ground_p+0x3>
    53a4:	0e 94 e2 18 	call	0x31c4	; 0x31c4 <get_temperature>
		ground_t = get_temperature();
    53a8:	60 93 33 20 	sts	0x2033, r22	; 0x802033 <ground_t>
    53ac:	70 93 34 20 	sts	0x2034, r23	; 0x802034 <ground_t+0x1>
    53b0:	80 93 35 20 	sts	0x2035, r24	; 0x802035 <ground_t+0x2>
    53b4:	90 93 36 20 	sts	0x2036, r25	; 0x802036 <ground_t+0x3>
    53b8:	10 92 42 22 	sts	0x2242, r1	; 0x802242 <state>
		state = 0;
    53bc:	44 d8       	rcall	.-3960   	; 0x4446 <eeprom_write_const>
		eeprom_write_const();
    53be:	0e 94 78 1d 	call	0x3af0	; 0x3af0 <state_check>
	}

	state_check();
    53c2:	27 96       	adiw	r28, 0x07	; 7
    53c4:	cd bf       	out	0x3d, r28	; 61
}
    53c6:	de bf       	out	0x3e, r29	; 62
    53c8:	df 91       	pop	r29
    53ca:	cf 91       	pop	r28
    53cc:	1f 91       	pop	r17
    53ce:	0f 91       	pop	r16
    53d0:	ff 90       	pop	r15
    53d2:	ef 90       	pop	r14
    53d4:	df 90       	pop	r13
    53d6:	cf 90       	pop	r12
    53d8:	bf 90       	pop	r11
    53da:	af 90       	pop	r10
    53dc:	9f 90       	pop	r9
    53de:	8f 90       	pop	r8
    53e0:	7f 90       	pop	r7
    53e2:	6f 90       	pop	r6
    53e4:	5f 90       	pop	r5
    53e6:	4f 90       	pop	r4
    53e8:	3f 90       	pop	r3
    53ea:	2f 90       	pop	r2
    53ec:	08 95       	ret

000053ee <eeprom_erase>:
    53ee:	83 e3       	ldi	r24, 0x33	; 51
    53f0:	80 93 ca 01 	sts	0x01CA, r24	; 0x8001ca <__TEXT_REGION_LENGTH__+0x7001ca>
	return byte;
}

void eeprom_erase(void){
	NVM.CMD = LOAD_BUFFER_CMD;
	for(uint8_t i = 0; i < 32; i++){
    53f4:	80 e0       	ldi	r24, 0x00	; 0
		NVM.ADDR0 = i;
    53f6:	e0 ec       	ldi	r30, 0xC0	; 192
    53f8:	f1 e0       	ldi	r31, 0x01	; 1
		NVM.DATA0 = 0xFF;
    53fa:	9f ef       	ldi	r25, 0xFF	; 255
}

void eeprom_erase(void){
	NVM.CMD = LOAD_BUFFER_CMD;
	for(uint8_t i = 0; i < 32; i++){
		NVM.ADDR0 = i;
    53fc:	80 83       	st	Z, r24
		NVM.DATA0 = 0xFF;
    53fe:	94 83       	std	Z+4, r25	; 0x04
	return byte;
}

void eeprom_erase(void){
	NVM.CMD = LOAD_BUFFER_CMD;
	for(uint8_t i = 0; i < 32; i++){
    5400:	8f 5f       	subi	r24, 0xFF	; 255
    5402:	80 32       	cpi	r24, 0x20	; 32
    5404:	d9 f7       	brne	.-10     	; 0x53fc <eeprom_erase+0xe>
		NVM.ADDR0 = i;
		NVM.DATA0 = 0xFF;
	}

	NVM.CMD = ERASE_EEPROM;
    5406:	e0 ec       	ldi	r30, 0xC0	; 192
    5408:	f1 e0       	ldi	r31, 0x01	; 1
    540a:	80 e3       	ldi	r24, 0x30	; 48
    540c:	82 87       	std	Z+10, r24	; 0x0a
	CCP = CCP_IOREG_MODE;
    540e:	88 ed       	ldi	r24, 0xD8	; 216
    5410:	84 bf       	out	0x34, r24	; 52
	NVM.CTRLA = CTRLA_CMDEX_BYTE;
    5412:	81 e0       	ldi	r24, 0x01	; 1
    5414:	83 87       	std	Z+11, r24	; 0x0b
	while(NVM.STATUS>>7);
    5416:	87 85       	ldd	r24, Z+15	; 0x0f
    5418:	88 23       	and	r24, r24
    541a:	ec f3       	brlt	.-6      	; 0x5416 <eeprom_erase+0x28>
}
    541c:	08 95       	ret

0000541e <reset>:
			break;
	}
}

void reset(void){
	eeprom_erase();
    541e:	e7 df       	rcall	.-50     	; 0x53ee <eeprom_erase>

	uint8_t oldInterruptState = SREG;	// no real need to store the interrupt context as the reset will pre-empt its restoration
    5420:	8f b7       	in	r24, 0x3f	; 63
	cli();		                        // Disable interrupts
    5422:	f8 94       	cli

	CCP = 0xD8;							// Configuration change protection: allow protected IO register write
    5424:	98 ed       	ldi	r25, 0xD8	; 216
    5426:	94 bf       	out	0x34, r25	; 52
	RST.CTRL = RST_SWRST_bm;			// Request software reset by writing to protected IO register
    5428:	91 e0       	ldi	r25, 0x01	; 1
    542a:	90 93 79 00 	sts	0x0079, r25	; 0x800079 <__TEXT_REGION_LENGTH__+0x700079>

	SREG=oldInterruptState;
    542e:	8f bf       	out	0x3f, r24	; 63
    5430:	08 95       	ret

00005432 <command>:
static void hall_sensor_measure(AC_t *ac, uint8_t channel, enum ac_status_t status){
	ticks_per_sec++;
}

void command(uint8_t c){
	switch(c){
    5432:	90 e0       	ldi	r25, 0x00	; 0
    5434:	fc 01       	movw	r30, r24
    5436:	e1 56       	subi	r30, 0x61	; 97
    5438:	f1 09       	sbc	r31, r1
    543a:	e3 31       	cpi	r30, 0x13	; 19
    543c:	f1 05       	cpc	r31, r1
    543e:	c8 f4       	brcc	.+50     	; 0x5472 <command+0x40>
    5440:	88 27       	eor	r24, r24
    5442:	e2 50       	subi	r30, 0x02	; 2
    5444:	ff 4f       	sbci	r31, 0xFF	; 255
    5446:	8f 4f       	sbci	r24, 0xFF	; 255
    5448:	0c 94 f2 32 	jmp	0x65e4	; 0x65e4 <__tablejump2__>
		case RESET:
			reset();
    544c:	e8 cf       	rjmp	.-48     	; 0x541e <reset>
			break;
    544e:	08 95       	ret
		case CALIBRATE:
			calibrate();
    5450:	0c 94 df 1f 	jmp	0x3fbe	; 0x3fbe <calibrate>
			break;
    5454:	08 95       	ret
		case CALIBRATE_ALTITUDE:
			cali_alt();
    5456:	0c 94 a6 1f 	jmp	0x3f4c	; 0x3f4c <cali_alt>
			break;
    545a:	08 95       	ret
		case CALIBRATE_ANGLE:
			cali_ang();
    545c:	0c 94 c0 1f 	jmp	0x3f80	; 0x3f80 <cali_ang>
			break;
    5460:	08 95       	ret
		case SERVO_RELEASE:
			servo_release();
    5462:	0c 94 e2 1f 	jmp	0x3fc4	; 0x3fc4 <servo_release>
			break;
    5466:	08 95       	ret
		case SERVO_CLOSE:
			servo_close();
    5468:	0c 94 ee 1f 	jmp	0x3fdc	; 0x3fdc <servo_close>
			break;
    546c:	08 95       	ret
		case PACKET:
			packet();
    546e:	0c 94 f9 1f 	jmp	0x3ff2	; 0x3ff2 <packet>
    5472:	08 95       	ret

00005474 <main>:

char* format = "5343,%i,%i,%i,%li,%i.%i,%i.%i,%02i:%02i:%02i,%i.%li,%i.%li,%i.%i,%i,%i,%i,%i,%i,%i\n"; // Format for output string


////////////////////////////// Functions ///////////////////////////////
int main(void){
    5474:	cf 93       	push	r28
    5476:	df 93       	push	r29
    5478:	cd b7       	in	r28, 0x3d	; 61
    547a:	de b7       	in	r29, 0x3e	; 62
    547c:	c8 56       	subi	r28, 0x68	; 104
    547e:	d1 09       	sbc	r29, r1
    5480:	cd bf       	out	0x3d, r28	; 61
    5482:	de bf       	out	0x3e, r29	; 62
	system_init();
    5484:	f8 db       	rcall	.-2064   	; 0x4c76 <system_init>
	//delay_ms(100);

	// Turns on status LED
	PORTD.DIR |= PIN3_bm;
    5486:	e0 e6       	ldi	r30, 0x60	; 96
    5488:	f6 e0       	ldi	r31, 0x06	; 6
    548a:	80 81       	ld	r24, Z
    548c:	88 60       	ori	r24, 0x08	; 8
    548e:	80 83       	st	Z, r24
	PORTD.OUT |= PIN3_bm;
    5490:	84 81       	ldd	r24, Z+4	; 0x04
    5492:	88 60       	ori	r24, 0x08	; 8
    5494:	84 83       	std	Z+4, r24	; 0x04
	buzzer_init();
    5496:	0e 94 50 1f 	call	0x3ea0	; 0x3ea0 <buzzer_init>
	delay_ms(125);
    549a:	6b e2       	ldi	r22, 0x2B	; 43
    549c:	7c e2       	ldi	r23, 0x2C	; 44
    549e:	8a e0       	ldi	r24, 0x0A	; 10
    54a0:	90 e0       	ldi	r25, 0x00	; 0
    54a2:	0e 94 96 17 	call	0x2f2c	; 0x2f2c <__portable_avr_delay_cycles>
	buzzer_stop();
    54a6:	0e 94 6a 1f 	call	0x3ed4	; 0x3ed4 <buzzer_stop>

	// Integer ring buffer for storing multiple older values
	int16_t alt_array[] = {0,0,0,0,0,0,0,0,0,0};
    54aa:	14 e1       	ldi	r17, 0x14	; 20
    54ac:	be 01       	movw	r22, r28
    54ae:	6f 5f       	subi	r22, 0xFF	; 255
    54b0:	7f 4f       	sbci	r23, 0xFF	; 255
    54b2:	fb 01       	movw	r30, r22
    54b4:	81 2f       	mov	r24, r17
    54b6:	11 92       	st	Z+, r1
    54b8:	8a 95       	dec	r24
    54ba:	e9 f7       	brne	.-6      	; 0x54b6 <main+0x42>
	RingBuffer16_t altitudes;	// in centimeters
	rb16_init(&altitudes, alt_array, (uint16_t) 10);
    54bc:	4a e0       	ldi	r20, 0x0A	; 10
    54be:	50 e0       	ldi	r21, 0x00	; 0
    54c0:	ce 01       	movw	r24, r28
    54c2:	45 96       	adiw	r24, 0x15	; 21
    54c4:	0e 94 5f 16 	call	0x2cbe	; 0x2cbe <rb16_init>

	int32_t press_array[] = {0,0,0,0,0,0,0,0,0,0};
    54c8:	be 01       	movw	r22, r28
    54ca:	63 5e       	subi	r22, 0xE3	; 227
    54cc:	7f 4f       	sbci	r23, 0xFF	; 255
    54ce:	88 e2       	ldi	r24, 0x28	; 40
    54d0:	fb 01       	movw	r30, r22
    54d2:	11 92       	st	Z+, r1
    54d4:	8a 95       	dec	r24
    54d6:	e9 f7       	brne	.-6      	; 0x54d2 <main+0x5e>
	RingBuffer32_t pressures;	// in Pascals / 10
	rb32_init(&pressures, press_array, (uint16_t) 10);
    54d8:	4a e0       	ldi	r20, 0x0A	; 10
    54da:	50 e0       	ldi	r21, 0x00	; 0
    54dc:	ce 01       	movw	r24, r28
    54de:	8b 5b       	subi	r24, 0xBB	; 187
    54e0:	9f 4f       	sbci	r25, 0xFF	; 255
    54e2:	0e 94 e7 16 	call	0x2dce	; 0x2dce <rb32_init>

	int16_t direct_array[] = {0,0,0,0,0,0,0,0,0,0};
    54e6:	be 01       	movw	r22, r28
    54e8:	63 5b       	subi	r22, 0xB3	; 179
    54ea:	7f 4f       	sbci	r23, 0xFF	; 255
    54ec:	fb 01       	movw	r30, r22
    54ee:	11 92       	st	Z+, r1
    54f0:	1a 95       	dec	r17
    54f2:	e9 f7       	brne	.-6      	; 0x54ee <main+0x7a>
	RingBuffer16_t directions;	// in hundredths degrees
	rb16_init(&directions, direct_array, (uint16_t) 10);
    54f4:	4a e0       	ldi	r20, 0x0A	; 10
    54f6:	50 e0       	ldi	r21, 0x00	; 0
    54f8:	ce 01       	movw	r24, r28
    54fa:	8f 59       	subi	r24, 0x9F	; 159
    54fc:	9f 4f       	sbci	r25, 0xFF	; 255
    54fe:	0e 94 5f 16 	call	0x2cbe	; 0x2cbe <rb16_init>

	// Boolean values of the state of the camera and buzzer
	uint8_t cam_initialized = 0;
	uint8_t buzzer_initialized = 0;
    5502:	00 e0       	ldi	r16, 0x00	; 0
	int16_t direct_array[] = {0,0,0,0,0,0,0,0,0,0};
	RingBuffer16_t directions;	// in hundredths degrees
	rb16_init(&directions, direct_array, (uint16_t) 10);

	// Boolean values of the state of the camera and buzzer
	uint8_t cam_initialized = 0;
    5504:	10 e0       	ldi	r17, 0x00	; 0
	uint8_t buzzer_initialized = 0;


	while(1){
		// Check Sensors
		data_collect(&altitudes,&pressures);
    5506:	be 01       	movw	r22, r28
    5508:	6b 5b       	subi	r22, 0xBB	; 187
    550a:	7f 4f       	sbci	r23, 0xFF	; 255
    550c:	ce 01       	movw	r24, r28
    550e:	45 96       	adiw	r24, 0x15	; 21
    5510:	0e 94 c0 1b 	call	0x3780	; 0x3780 <data_collect>

		// Checks the Flight State
		state_check();
    5514:	0e 94 78 1d 	call	0x3af0	; 0x3af0 <state_check>

		// IMU Check
		//imu_read();

		//Gives each flight state their unique tasks
		switch(state){
    5518:	80 91 42 22 	lds	r24, 0x2242	; 0x802242 <state>
    551c:	81 30       	cpi	r24, 0x01	; 1
    551e:	41 f0       	breq	.+16     	; 0x5530 <main+0xbc>
    5520:	08 f4       	brcc	.+2      	; 0x5524 <main+0xb0>
    5522:	50 c0       	rjmp	.+160    	; 0x55c4 <main+0x150>
    5524:	82 30       	cpi	r24, 0x02	; 2
    5526:	51 f0       	breq	.+20     	; 0x553c <main+0xc8>
    5528:	83 30       	cpi	r24, 0x03	; 3
    552a:	09 f4       	brne	.+2      	; 0x552e <main+0xba>
    552c:	45 c0       	rjmp	.+138    	; 0x55b8 <main+0x144>
    552e:	48 c0       	rjmp	.+144    	; 0x55c0 <main+0x14c>
			case 0:
				break;
			case 1:
				if(!cam_initialized){
    5530:	11 11       	cpse	r17, r1
    5532:	48 c0       	rjmp	.+144    	; 0x55c4 <main+0x150>
					cam_initialized = 1;
					cam_switch();	//	Turns on Camera
    5534:	0e 94 43 14 	call	0x2886	; 0x2886 <cam_switch>
		switch(state){
			case 0:
				break;
			case 1:
				if(!cam_initialized){
					cam_initialized = 1;
    5538:	11 e0       	ldi	r17, 0x01	; 1
    553a:	44 c0       	rjmp	.+136    	; 0x55c4 <main+0x150>
					cam_switch();	//	Turns on Camera
				}
				break;
			case 2:
				if(abs(alt-450)<EPSILON_ALTITUDE){
    553c:	60 91 10 22 	lds	r22, 0x2210	; 0x802210 <alt>
    5540:	70 91 11 22 	lds	r23, 0x2211	; 0x802211 <alt+0x1>
    5544:	80 91 12 22 	lds	r24, 0x2212	; 0x802212 <alt+0x2>
    5548:	90 91 13 22 	lds	r25, 0x2213	; 0x802213 <alt+0x3>
    554c:	20 e0       	ldi	r18, 0x00	; 0
    554e:	30 e0       	ldi	r19, 0x00	; 0
    5550:	41 ee       	ldi	r20, 0xE1	; 225
    5552:	53 e4       	ldi	r21, 0x43	; 67
    5554:	cb d3       	rcall	.+1942   	; 0x5cec <__subsf3>
    5556:	d5 d4       	rcall	.+2474   	; 0x5f02 <__fixsfsi>
    5558:	9b 01       	movw	r18, r22
    555a:	77 23       	and	r23, r23
    555c:	24 f4       	brge	.+8      	; 0x5566 <main+0xf2>
    555e:	22 27       	eor	r18, r18
    5560:	33 27       	eor	r19, r19
    5562:	26 1b       	sub	r18, r22
    5564:	37 0b       	sbc	r19, r23
    5566:	2a 30       	cpi	r18, 0x0A	; 10
    5568:	31 05       	cpc	r19, r1
    556a:	bc f4       	brge	.+46     	; 0x559a <main+0x126>
	ac_enable(&ACA, 0);

}

void release(void){
	servo_release();
    556c:	0e 94 e2 1f 	call	0x3fc4	; 0x3fc4 <servo_release>
				}
				break;
			case 2:
				if(abs(alt-450)<EPSILON_ALTITUDE){
					release();				// Releases the payload
					hall_sensor_init();		// Starts hall effect sensor to read rpm
    5570:	0e 94 ff 17 	call	0x2ffe	; 0x2ffe <hall_sensor_init>
					imu_read();
    5574:	0e 94 50 1c 	call	0x38a0	; 0x38a0 <imu_read>
					ref_yaw = angle;
    5578:	80 91 e6 21 	lds	r24, 0x21E6	; 0x8021e6 <angle>
    557c:	90 91 e7 21 	lds	r25, 0x21E7	; 0x8021e7 <angle+0x1>
    5580:	a0 91 e8 21 	lds	r26, 0x21E8	; 0x8021e8 <angle+0x2>
    5584:	b0 91 e9 21 	lds	r27, 0x21E9	; 0x8021e9 <angle+0x3>
    5588:	80 93 2e 22 	sts	0x222E, r24	; 0x80222e <ref_yaw>
    558c:	90 93 2f 22 	sts	0x222F, r25	; 0x80222f <ref_yaw+0x1>
    5590:	a0 93 30 22 	sts	0x2230, r26	; 0x802230 <ref_yaw+0x2>
    5594:	b0 93 31 22 	sts	0x2231, r27	; 0x802231 <ref_yaw+0x3>
    5598:	09 c0       	rjmp	.+18     	; 0x55ac <main+0x138>
				}
				else if(released){
    559a:	80 91 41 22 	lds	r24, 0x2241	; 0x802241 <released>
    559e:	88 23       	and	r24, r24
    55a0:	29 f0       	breq	.+10     	; 0x55ac <main+0x138>
					servo_pid(&directions);	// Updates the PID
    55a2:	ce 01       	movw	r24, r28
    55a4:	8f 59       	subi	r24, 0x9F	; 159
    55a6:	9f 4f       	sbci	r25, 0xFF	; 255
    55a8:	0e 94 ab 1e 	call	0x3d56	; 0x3d56 <servo_pid>
				}
				if(!cam_initialized){
    55ac:	11 11       	cpse	r17, r1
    55ae:	0a c0       	rjmp	.+20     	; 0x55c4 <main+0x150>
					cam_initialized = 1;
					cam_switch();
    55b0:	0e 94 43 14 	call	0x2886	; 0x2886 <cam_switch>
				}
				else if(released){
					servo_pid(&directions);	// Updates the PID
				}
				if(!cam_initialized){
					cam_initialized = 1;
    55b4:	11 e0       	ldi	r17, 0x01	; 1
    55b6:	06 c0       	rjmp	.+12     	; 0x55c4 <main+0x150>
					cam_switch();
				}
				break;
			case 3:
				if(!buzzer_initialized){
    55b8:	01 11       	cpse	r16, r1
    55ba:	04 c0       	rjmp	.+8      	; 0x55c4 <main+0x150>
					//buzzer_init();			//UNCOMMENT BEFORE FLIGHT
					buzzer_initialized = 1;
    55bc:	01 e0       	ldi	r16, 0x01	; 1
    55be:	02 c0       	rjmp	.+4      	; 0x55c4 <main+0x150>
				}
				break;
			default:
				state_check();
    55c0:	0e 94 78 1d 	call	0x3af0	; 0x3af0 <state_check>
				break;
		}

		// 1 Hz timer interrupt function
		if(time_flag){
    55c4:	80 91 40 22 	lds	r24, 0x2240	; 0x802240 <time_flag>
    55c8:	88 23       	and	r24, r24
			calc_rpm();	// Resets the tick counter and averages it with the new values
    55ca:	29 f0       	breq	.+10     	; 0x55d6 <main+0x162>
    55cc:	0e 94 71 1f 	call	0x3ee2	; 0x3ee2 <calc_rpm>
			time_update();	// Transmits the data packet and writes the EEPROM
    55d0:	f5 d8       	rcall	.-3606   	; 0x47bc <time_update>
			time_flag = 0;
    55d2:	10 92 40 22 	sts	0x2240, r1	; 0x802240 <time_flag>
		}
		// XBEE command received
		if(xbee_flag){
    55d6:	80 91 3f 22 	lds	r24, 0x223F	; 0x80223f <xbee_flag>
    55da:	88 23       	and	r24, r24
			command(xbee_comm);
    55dc:	39 f0       	breq	.+14     	; 0x55ec <main+0x178>
    55de:	80 91 32 22 	lds	r24, 0x2232	; 0x802232 <xbee_comm>
    55e2:	27 df       	rcall	.-434    	; 0x5432 <command>
			xbee_comm = 0;
    55e4:	10 92 32 22 	sts	0x2232, r1	; 0x802232 <xbee_comm>
			xbee_flag = 0;
    55e8:	10 92 3f 22 	sts	0x223F, r1	; 0x80223f <xbee_flag>
		}

		// Recalculates the data writing rate
		data_packets++;
    55ec:	80 91 1e 22 	lds	r24, 0x221E	; 0x80221e <data_packets>
    55f0:	90 91 1f 22 	lds	r25, 0x221F	; 0x80221f <data_packets+0x1>
    55f4:	01 96       	adiw	r24, 0x01	; 1
    55f6:	80 93 1e 22 	sts	0x221E, r24	; 0x80221e <data_packets>
    55fa:	90 93 1f 22 	sts	0x221F, r25	; 0x80221f <data_packets+0x1>
		if(timer != 0){
    55fe:	80 91 20 22 	lds	r24, 0x2220	; 0x802220 <timer>
    5602:	90 91 21 22 	lds	r25, 0x2221	; 0x802221 <timer+0x1>
    5606:	89 2b       	or	r24, r25
    5608:	09 f4       	brne	.+2      	; 0x560c <main+0x198>
    560a:	7d cf       	rjmp	.-262    	; 0x5506 <main+0x92>
			rate = data_packets / timer;
    560c:	80 91 1e 22 	lds	r24, 0x221E	; 0x80221e <data_packets>
    5610:	90 91 1f 22 	lds	r25, 0x221F	; 0x80221f <data_packets+0x1>
    5614:	60 91 20 22 	lds	r22, 0x2220	; 0x802220 <timer>
    5618:	70 91 21 22 	lds	r23, 0x2221	; 0x802221 <timer+0x1>
    561c:	7e d7       	rcall	.+3836   	; 0x651a <__udivmodhi4>
    561e:	60 93 1f 20 	sts	0x201F, r22	; 0x80201f <rate>
    5622:	70 93 20 20 	sts	0x2020, r23	; 0x802020 <rate+0x1>
    5626:	6f cf       	rjmp	.-290    	; 0x5506 <main+0x92>

00005628 <__vector_47>:
	NVM.CTRLA = CTRLA_CMDEX_BYTE;
	while(NVM.STATUS>>7);
}


ISR(TCE0_OVF_vect){
    5628:	1f 92       	push	r1
    562a:	0f 92       	push	r0
    562c:	0f b6       	in	r0, 0x3f	; 63
    562e:	0f 92       	push	r0
    5630:	11 24       	eor	r1, r1
    5632:	08 b6       	in	r0, 0x38	; 56
    5634:	0f 92       	push	r0
    5636:	18 be       	out	0x38, r1	; 56
    5638:	8f 93       	push	r24
    563a:	9f 93       	push	r25
	timer++;
    563c:	80 91 20 22 	lds	r24, 0x2220	; 0x802220 <timer>
    5640:	90 91 21 22 	lds	r25, 0x2221	; 0x802221 <timer+0x1>
    5644:	01 96       	adiw	r24, 0x01	; 1
    5646:	80 93 20 22 	sts	0x2220, r24	; 0x802220 <timer>
    564a:	90 93 21 22 	sts	0x2221, r25	; 0x802221 <timer+0x1>
	time_flag = 1;
    564e:	81 e0       	ldi	r24, 0x01	; 1
    5650:	80 93 40 22 	sts	0x2240, r24	; 0x802240 <time_flag>
}
    5654:	9f 91       	pop	r25
    5656:	8f 91       	pop	r24
    5658:	0f 90       	pop	r0
    565a:	08 be       	out	0x38, r0	; 56
    565c:	0f 90       	pop	r0
    565e:	0f be       	out	0x3f, r0	; 63
    5660:	0f 90       	pop	r0
    5662:	1f 90       	pop	r1
    5664:	18 95       	reti

00005666 <__vector_58>:


ISR(USARTE0_RXC_vect){
    5666:	1f 92       	push	r1
    5668:	0f 92       	push	r0
    566a:	0f b6       	in	r0, 0x3f	; 63
    566c:	0f 92       	push	r0
    566e:	11 24       	eor	r1, r1
    5670:	08 b6       	in	r0, 0x38	; 56
    5672:	0f 92       	push	r0
    5674:	18 be       	out	0x38, r1	; 56
    5676:	09 b6       	in	r0, 0x39	; 57
    5678:	0f 92       	push	r0
    567a:	19 be       	out	0x39, r1	; 57
    567c:	0b b6       	in	r0, 0x3b	; 59
    567e:	0f 92       	push	r0
    5680:	1b be       	out	0x3b, r1	; 59
    5682:	2f 93       	push	r18
    5684:	3f 93       	push	r19
    5686:	4f 93       	push	r20
    5688:	5f 93       	push	r21
    568a:	6f 93       	push	r22
    568c:	7f 93       	push	r23
    568e:	8f 93       	push	r24
    5690:	9f 93       	push	r25
    5692:	af 93       	push	r26
    5694:	bf 93       	push	r27
    5696:	ef 93       	push	r30
    5698:	ff 93       	push	r31
	xbee_comm = usart_getchar(UART_TERMINAL_SERIAL);
    569a:	80 ea       	ldi	r24, 0xA0	; 160
    569c:	9a e0       	ldi	r25, 0x0A	; 10
    569e:	0e 94 03 0b 	call	0x1606	; 0x1606 <usart_getchar>
    56a2:	80 93 32 22 	sts	0x2232, r24	; 0x802232 <xbee_comm>
	//printf("%c\n", xbee_comm);
	xbee_flag = 1;
    56a6:	81 e0       	ldi	r24, 0x01	; 1
    56a8:	80 93 3f 22 	sts	0x223F, r24	; 0x80223f <xbee_flag>
}
    56ac:	ff 91       	pop	r31
    56ae:	ef 91       	pop	r30
    56b0:	bf 91       	pop	r27
    56b2:	af 91       	pop	r26
    56b4:	9f 91       	pop	r25
    56b6:	8f 91       	pop	r24
    56b8:	7f 91       	pop	r23
    56ba:	6f 91       	pop	r22
    56bc:	5f 91       	pop	r21
    56be:	4f 91       	pop	r20
    56c0:	3f 91       	pop	r19
    56c2:	2f 91       	pop	r18
    56c4:	0f 90       	pop	r0
    56c6:	0b be       	out	0x3b, r0	; 59
    56c8:	0f 90       	pop	r0
    56ca:	09 be       	out	0x39, r0	; 57
    56cc:	0f 90       	pop	r0
    56ce:	08 be       	out	0x38, r0	; 56
    56d0:	0f 90       	pop	r0
    56d2:	0f be       	out	0x3f, r0	; 63
    56d4:	0f 90       	pop	r0
    56d6:	1f 90       	pop	r1
    56d8:	18 95       	reti

000056da <__vector_91>:


// GPS recording
ISR(USARTD1_RXC_vect){
    56da:	1f 92       	push	r1
    56dc:	0f 92       	push	r0
    56de:	0f b6       	in	r0, 0x3f	; 63
    56e0:	0f 92       	push	r0
    56e2:	11 24       	eor	r1, r1
    56e4:	08 b6       	in	r0, 0x38	; 56
    56e6:	0f 92       	push	r0
    56e8:	18 be       	out	0x38, r1	; 56
    56ea:	09 b6       	in	r0, 0x39	; 57
    56ec:	0f 92       	push	r0
    56ee:	19 be       	out	0x39, r1	; 57
    56f0:	0a b6       	in	r0, 0x3a	; 58
    56f2:	0f 92       	push	r0
    56f4:	1a be       	out	0x3a, r1	; 58
    56f6:	0b b6       	in	r0, 0x3b	; 59
    56f8:	0f 92       	push	r0
    56fa:	1b be       	out	0x3b, r1	; 59
    56fc:	8f 92       	push	r8
    56fe:	9f 92       	push	r9
    5700:	af 92       	push	r10
    5702:	bf 92       	push	r11
    5704:	cf 92       	push	r12
    5706:	df 92       	push	r13
    5708:	ef 92       	push	r14
    570a:	ff 92       	push	r15
    570c:	1f 93       	push	r17
    570e:	2f 93       	push	r18
    5710:	3f 93       	push	r19
    5712:	4f 93       	push	r20
    5714:	5f 93       	push	r21
    5716:	6f 93       	push	r22
    5718:	7f 93       	push	r23
    571a:	8f 93       	push	r24
    571c:	9f 93       	push	r25
    571e:	af 93       	push	r26
    5720:	bf 93       	push	r27
    5722:	ef 93       	push	r30
    5724:	ff 93       	push	r31
    5726:	cf 93       	push	r28
    5728:	df 93       	push	r29
    572a:	00 d0       	rcall	.+0      	; 0x572c <__vector_91+0x52>
    572c:	00 d0       	rcall	.+0      	; 0x572e <__vector_91+0x54>
    572e:	cd b7       	in	r28, 0x3d	; 61
    5730:	de b7       	in	r29, 0x3e	; 62
	uint8_t c = usart_getchar(GPS_TERMINAL_SERIAL);
    5732:	80 eb       	ldi	r24, 0xB0	; 176
    5734:	99 e0       	ldi	r25, 0x09	; 9
    5736:	0e 94 03 0b 	call	0x1606	; 0x1606 <usart_getchar>
    573a:	18 2f       	mov	r17, r24
	//printf("%c",c);

	if(c == (uint8_t) '$'){
    573c:	84 32       	cpi	r24, 0x24	; 36
    573e:	51 f4       	brne	.+20     	; 0x5754 <__vector_91+0x7a>
		writing = 1;
    5740:	81 e0       	ldi	r24, 0x01	; 1
    5742:	80 93 27 22 	sts	0x2227, r24	; 0x802227 <writing>
		pos = 0;
    5746:	10 92 26 22 	sts	0x2226, r1	; 0x802226 <pos>
		word_pos = 0;
    574a:	10 92 25 22 	sts	0x2225, r1	; 0x802225 <word_pos>
		commas = 0;
    574e:	10 92 24 22 	sts	0x2224, r1	; 0x802224 <commas>
    5752:	5d c2       	rjmp	.+1210   	; 0x5c0e <__vector_91+0x534>
	}
	else if(c == (uint8_t) '*'){
    5754:	8a 32       	cpi	r24, 0x2A	; 42
    5756:	29 f4       	brne	.+10     	; 0x5762 <__vector_91+0x88>
		commas = 0;
    5758:	10 92 24 22 	sts	0x2224, r1	; 0x802224 <commas>
		writing = 0;
    575c:	10 92 27 22 	sts	0x2227, r1	; 0x802227 <writing>
    5760:	56 c2       	rjmp	.+1196   	; 0x5c0e <__vector_91+0x534>
	}
	else if(c == (uint8_t) ','){
    5762:	8c 32       	cpi	r24, 0x2C	; 44
    5764:	09 f0       	breq	.+2      	; 0x5768 <__vector_91+0x8e>
    5766:	53 c2       	rjmp	.+1190   	; 0x5c0e <__vector_91+0x534>
		gps[0] = 32;
    5768:	ec e7       	ldi	r30, 0x7C	; 124
    576a:	f2 e2       	ldi	r31, 0x22	; 34
    576c:	80 e2       	ldi	r24, 0x20	; 32
    576e:	80 83       	st	Z, r24
		if(gps[1] == 32){
    5770:	81 81       	ldd	r24, Z+1	; 0x01
    5772:	80 32       	cpi	r24, 0x20	; 32
    5774:	09 f0       	breq	.+2      	; 0x5778 <__vector_91+0x9e>
    5776:	7a c2       	rjmp	.+1268   	; 0x5c6c <__vector_91+0x592>
			gps[0] = '0';
    5778:	80 e3       	ldi	r24, 0x30	; 48
    577a:	80 93 7c 22 	sts	0x227C, r24	; 0x80227c <gps>
    577e:	76 c2       	rjmp	.+1260   	; 0x5c6c <__vector_91+0x592>
			case 7:			//Sats
				sscanf(gps,"%d",&gps_sats);
				break;
			case 9:			//Altitude
				for(uint8_t i = 0; i < 15; i++){
					if(gps[i] == (uint8_t) '.'){
    5780:	80 91 7c 22 	lds	r24, 0x227C	; 0x80227c <gps>
    5784:	8e 32       	cpi	r24, 0x2E	; 46
    5786:	09 f0       	breq	.+2      	; 0x578a <__vector_91+0xb0>
    5788:	a6 c1       	rjmp	.+844    	; 0x5ad6 <__vector_91+0x3fc>
    578a:	ac c1       	rjmp	.+856    	; 0x5ae4 <__vector_91+0x40a>
				sscanf(dec,"%d",&val2);
				gps_lat = val/100 + ((double)(val%100) + ((double)(val2))/10000) / 60.0;
				break;
			case 4:			//Longitude
				for(uint8_t i = 0; i < 15; i++){
					if(gps[i] == (uint8_t) '.'){
    578c:	80 91 7c 22 	lds	r24, 0x227C	; 0x80227c <gps>
    5790:	8e 32       	cpi	r24, 0x2E	; 46
    5792:	09 f0       	breq	.+2      	; 0x5796 <__vector_91+0xbc>
    5794:	f2 c0       	rjmp	.+484    	; 0x597a <__vector_91+0x2a0>
    5796:	f8 c0       	rjmp	.+496    	; 0x5988 <__vector_91+0x2ae>
				sscanf(gps,"%ld",&val);
				gps_t = (double) val;
				break;
			case 2:			//Latitude
				for(uint8_t i = 0; i < 15; i++){
					if(gps[i] == (uint8_t) '.'){
    5798:	80 91 7c 22 	lds	r24, 0x227C	; 0x80227c <gps>
    579c:	8e 32       	cpi	r24, 0x2E	; 46
    579e:	09 f0       	breq	.+2      	; 0x57a2 <__vector_91+0xc8>
    57a0:	53 c0       	rjmp	.+166    	; 0x5848 <__vector_91+0x16e>
    57a2:	59 c0       	rjmp	.+178    	; 0x5856 <__vector_91+0x17c>
		int32_t val = 0;
		int16_t val2 = 0;
		switch(commas){
			case 1:			//Time
				for(uint8_t i = 0; i < 15; i++){
					if(gps[i] == (uint8_t) '.'){
    57a4:	91 91       	ld	r25, Z+
    57a6:	9e 32       	cpi	r25, 0x2E	; 46
    57a8:	29 f4       	brne	.+10     	; 0x57b4 <__vector_91+0xda>
    57aa:	01 c0       	rjmp	.+2      	; 0x57ae <__vector_91+0xd4>
    57ac:	80 e0       	ldi	r24, 0x00	; 0
						idx = i;
    57ae:	80 93 23 22 	sts	0x2223, r24	; 0x802223 <idx>
						break;
    57b2:	03 c0       	rjmp	.+6      	; 0x57ba <__vector_91+0xe0>
		}
		int32_t val = 0;
		int16_t val2 = 0;
		switch(commas){
			case 1:			//Time
				for(uint8_t i = 0; i < 15; i++){
    57b4:	8f 5f       	subi	r24, 0xFF	; 255
    57b6:	8f 30       	cpi	r24, 0x0F	; 15
    57b8:	a9 f7       	brne	.-22     	; 0x57a4 <__vector_91+0xca>
					if(gps[i] == (uint8_t) '.'){
						idx = i;
						break;
					}
				}
				gps[idx] = 32;
    57ba:	e0 91 23 22 	lds	r30, 0x2223	; 0x802223 <idx>
    57be:	f0 e0       	ldi	r31, 0x00	; 0
    57c0:	e4 58       	subi	r30, 0x84	; 132
    57c2:	fd 4d       	sbci	r31, 0xDD	; 221
    57c4:	80 e2       	ldi	r24, 0x20	; 32
    57c6:	80 83       	st	Z, r24
				for(uint8_t i = idx+1; i < 15; i++){
    57c8:	20 91 23 22 	lds	r18, 0x2223	; 0x802223 <idx>
    57cc:	2f 5f       	subi	r18, 0xFF	; 255
    57ce:	2f 30       	cpi	r18, 0x0F	; 15
    57d0:	c8 f4       	brcc	.+50     	; 0x5804 <__vector_91+0x12a>
					if(gps[i] == 32){
    57d2:	82 2f       	mov	r24, r18
    57d4:	90 e0       	ldi	r25, 0x00	; 0
    57d6:	fc 01       	movw	r30, r24
    57d8:	e4 58       	subi	r30, 0x84	; 132
    57da:	fd 4d       	sbci	r31, 0xDD	; 221
    57dc:	30 81       	ld	r19, Z
    57de:	30 32       	cpi	r19, 0x20	; 32
    57e0:	89 f0       	breq	.+34     	; 0x5804 <__vector_91+0x12a>
						break;
					}
					gps[i] = 32;
    57e2:	40 e2       	ldi	r20, 0x20	; 32
    57e4:	08 c0       	rjmp	.+16     	; 0x57f6 <__vector_91+0x11c>
						break;
					}
				}
				gps[idx] = 32;
				for(uint8_t i = idx+1; i < 15; i++){
					if(gps[i] == 32){
    57e6:	82 2f       	mov	r24, r18
    57e8:	90 e0       	ldi	r25, 0x00	; 0
    57ea:	fc 01       	movw	r30, r24
    57ec:	e4 58       	subi	r30, 0x84	; 132
    57ee:	fd 4d       	sbci	r31, 0xDD	; 221
    57f0:	30 81       	ld	r19, Z
    57f2:	30 32       	cpi	r19, 0x20	; 32
    57f4:	39 f0       	breq	.+14     	; 0x5804 <__vector_91+0x12a>
						break;
					}
					gps[i] = 32;
    57f6:	fc 01       	movw	r30, r24
    57f8:	e4 58       	subi	r30, 0x84	; 132
    57fa:	fd 4d       	sbci	r31, 0xDD	; 221
    57fc:	40 83       	st	Z, r20
						idx = i;
						break;
					}
				}
				gps[idx] = 32;
				for(uint8_t i = idx+1; i < 15; i++){
    57fe:	2f 5f       	subi	r18, 0xFF	; 255
    5800:	2f 30       	cpi	r18, 0x0F	; 15
    5802:	89 f7       	brne	.-30     	; 0x57e6 <__vector_91+0x10c>
					if(gps[i] == 32){
						break;
					}
					gps[i] = 32;
				}
				sscanf(gps,"%ld",&val);
    5804:	ce 01       	movw	r24, r28
    5806:	01 96       	adiw	r24, 0x01	; 1
    5808:	9f 93       	push	r25
    580a:	8f 93       	push	r24
    580c:	89 e4       	ldi	r24, 0x49	; 73
    580e:	91 e2       	ldi	r25, 0x21	; 33
    5810:	9f 93       	push	r25
    5812:	8f 93       	push	r24
    5814:	8c e7       	ldi	r24, 0x7C	; 124
    5816:	92 e2       	ldi	r25, 0x22	; 34
    5818:	9f 93       	push	r25
    581a:	8f 93       	push	r24
    581c:	0e 94 88 34 	call	0x6910	; 0x6910 <sscanf>
				gps_t = (double) val;
    5820:	69 81       	ldd	r22, Y+1	; 0x01
    5822:	7a 81       	ldd	r23, Y+2	; 0x02
    5824:	8b 81       	ldd	r24, Y+3	; 0x03
    5826:	9c 81       	ldd	r25, Y+4	; 0x04
    5828:	9f d3       	rcall	.+1854   	; 0x5f68 <__floatsisf>
    582a:	60 93 04 22 	sts	0x2204, r22	; 0x802204 <gps_t>
    582e:	70 93 05 22 	sts	0x2205, r23	; 0x802205 <gps_t+0x1>
    5832:	80 93 06 22 	sts	0x2206, r24	; 0x802206 <gps_t+0x2>
    5836:	90 93 07 22 	sts	0x2207, r25	; 0x802207 <gps_t+0x3>
				break;
    583a:	0f 90       	pop	r0
    583c:	0f 90       	pop	r0
    583e:	0f 90       	pop	r0
    5840:	0f 90       	pop	r0
    5842:	0f 90       	pop	r0
    5844:	0f 90       	pop	r0
    5846:	c5 c1       	rjmp	.+906    	; 0x5bd2 <__vector_91+0x4f8>
    5848:	ed e7       	ldi	r30, 0x7D	; 125
    584a:	f2 e2       	ldi	r31, 0x22	; 34
			case 2:			//Latitude
				for(uint8_t i = 0; i < 15; i++){
    584c:	81 e0       	ldi	r24, 0x01	; 1
					if(gps[i] == (uint8_t) '.'){
    584e:	91 91       	ld	r25, Z+
    5850:	9e 32       	cpi	r25, 0x2E	; 46
    5852:	29 f4       	brne	.+10     	; 0x585e <__vector_91+0x184>
    5854:	01 c0       	rjmp	.+2      	; 0x5858 <__vector_91+0x17e>
    5856:	80 e0       	ldi	r24, 0x00	; 0
						idx = i;
    5858:	80 93 23 22 	sts	0x2223, r24	; 0x802223 <idx>
						break;
    585c:	03 c0       	rjmp	.+6      	; 0x5864 <__vector_91+0x18a>
				}
				sscanf(gps,"%ld",&val);
				gps_t = (double) val;
				break;
			case 2:			//Latitude
				for(uint8_t i = 0; i < 15; i++){
    585e:	8f 5f       	subi	r24, 0xFF	; 255
    5860:	8f 30       	cpi	r24, 0x0F	; 15
    5862:	a9 f7       	brne	.-22     	; 0x584e <__vector_91+0x174>
					if(gps[i] == (uint8_t) '.'){
						idx = i;
						break;
					}
				}
				gps[idx] = 32;
    5864:	e0 91 23 22 	lds	r30, 0x2223	; 0x802223 <idx>
    5868:	f0 e0       	ldi	r31, 0x00	; 0
    586a:	e4 58       	subi	r30, 0x84	; 132
    586c:	fd 4d       	sbci	r31, 0xDD	; 221
    586e:	80 e2       	ldi	r24, 0x20	; 32
    5870:	80 83       	st	Z, r24
				for(uint8_t i = idx+1; i < 15; i++){
    5872:	20 91 23 22 	lds	r18, 0x2223	; 0x802223 <idx>
    5876:	2f 5f       	subi	r18, 0xFF	; 255
    5878:	2f 30       	cpi	r18, 0x0F	; 15
    587a:	08 f5       	brcc	.+66     	; 0x58be <__vector_91+0x1e4>
					if(gps[i] == 32){
    587c:	82 2f       	mov	r24, r18
    587e:	90 e0       	ldi	r25, 0x00	; 0
    5880:	fc 01       	movw	r30, r24
    5882:	e4 58       	subi	r30, 0x84	; 132
    5884:	fd 4d       	sbci	r31, 0xDD	; 221
    5886:	30 81       	ld	r19, Z
    5888:	30 32       	cpi	r19, 0x20	; 32
    588a:	c9 f0       	breq	.+50     	; 0x58be <__vector_91+0x1e4>
						break;
					}
					dec[i-idx-1] = gps[i];
					gps[i] = 32;
    588c:	50 e2       	ldi	r21, 0x20	; 32
    588e:	08 c0       	rjmp	.+16     	; 0x58a0 <__vector_91+0x1c6>
						break;
					}
				}
				gps[idx] = 32;
				for(uint8_t i = idx+1; i < 15; i++){
					if(gps[i] == 32){
    5890:	82 2f       	mov	r24, r18
    5892:	90 e0       	ldi	r25, 0x00	; 0
    5894:	fc 01       	movw	r30, r24
    5896:	e4 58       	subi	r30, 0x84	; 132
    5898:	fd 4d       	sbci	r31, 0xDD	; 221
    589a:	30 81       	ld	r19, Z
    589c:	30 32       	cpi	r19, 0x20	; 32
    589e:	79 f0       	breq	.+30     	; 0x58be <__vector_91+0x1e4>
						break;
					}
					dec[i-idx-1] = gps[i];
    58a0:	40 91 23 22 	lds	r20, 0x2223	; 0x802223 <idx>
    58a4:	fc 01       	movw	r30, r24
    58a6:	e4 1b       	sub	r30, r20
    58a8:	f1 09       	sbc	r31, r1
    58aa:	e6 57       	subi	r30, 0x76	; 118
    58ac:	fd 4d       	sbci	r31, 0xDD	; 221
    58ae:	30 83       	st	Z, r19
					gps[i] = 32;
    58b0:	fc 01       	movw	r30, r24
    58b2:	e4 58       	subi	r30, 0x84	; 132
    58b4:	fd 4d       	sbci	r31, 0xDD	; 221
    58b6:	50 83       	st	Z, r21
						idx = i;
						break;
					}
				}
				gps[idx] = 32;
				for(uint8_t i = idx+1; i < 15; i++){
    58b8:	2f 5f       	subi	r18, 0xFF	; 255
    58ba:	2f 30       	cpi	r18, 0x0F	; 15
    58bc:	49 f7       	brne	.-46     	; 0x5890 <__vector_91+0x1b6>
						break;
					}
					dec[i-idx-1] = gps[i];
					gps[i] = 32;
				}
				if(dec[0] == 32){
    58be:	80 91 8b 22 	lds	r24, 0x228B	; 0x80228b <dec>
    58c2:	80 32       	cpi	r24, 0x20	; 32
    58c4:	19 f4       	brne	.+6      	; 0x58cc <__vector_91+0x1f2>
					dec[0] = '0';
    58c6:	80 e3       	ldi	r24, 0x30	; 48
    58c8:	80 93 8b 22 	sts	0x228B, r24	; 0x80228b <dec>
				}
				sscanf(gps,"%ld",&val);
    58cc:	ce 01       	movw	r24, r28
    58ce:	01 96       	adiw	r24, 0x01	; 1
    58d0:	9f 93       	push	r25
    58d2:	8f 93       	push	r24
    58d4:	89 e4       	ldi	r24, 0x49	; 73
    58d6:	91 e2       	ldi	r25, 0x21	; 33
    58d8:	9f 93       	push	r25
    58da:	8f 93       	push	r24
    58dc:	8c e7       	ldi	r24, 0x7C	; 124
    58de:	92 e2       	ldi	r25, 0x22	; 34
    58e0:	9f 93       	push	r25
    58e2:	8f 93       	push	r24
    58e4:	0e 94 88 34 	call	0x6910	; 0x6910 <sscanf>
				sscanf(dec,"%d",&val2);
    58e8:	ce 01       	movw	r24, r28
    58ea:	05 96       	adiw	r24, 0x05	; 5
    58ec:	9f 93       	push	r25
    58ee:	8f 93       	push	r24
    58f0:	8d e4       	ldi	r24, 0x4D	; 77
    58f2:	91 e2       	ldi	r25, 0x21	; 33
    58f4:	9f 93       	push	r25
    58f6:	8f 93       	push	r24
    58f8:	8b e8       	ldi	r24, 0x8B	; 139
    58fa:	92 e2       	ldi	r25, 0x22	; 34
    58fc:	9f 93       	push	r25
    58fe:	8f 93       	push	r24
    5900:	0e 94 88 34 	call	0x6910	; 0x6910 <sscanf>
				gps_lat = val/100 + ((double)(val%100) + ((double)(val2))/10000) / 60.0;
    5904:	89 80       	ldd	r8, Y+1	; 0x01
    5906:	9a 80       	ldd	r9, Y+2	; 0x02
    5908:	ab 80       	ldd	r10, Y+3	; 0x03
    590a:	bc 80       	ldd	r11, Y+4	; 0x04
    590c:	6d 81       	ldd	r22, Y+5	; 0x05
    590e:	7e 81       	ldd	r23, Y+6	; 0x06
    5910:	07 2e       	mov	r0, r23
    5912:	00 0c       	add	r0, r0
    5914:	88 0b       	sbc	r24, r24
    5916:	99 0b       	sbc	r25, r25
    5918:	27 d3       	rcall	.+1614   	; 0x5f68 <__floatsisf>
    591a:	20 e0       	ldi	r18, 0x00	; 0
    591c:	30 e4       	ldi	r19, 0x40	; 64
    591e:	4c e1       	ldi	r20, 0x1C	; 28
    5920:	56 e4       	ldi	r21, 0x46	; 70
    5922:	4d d2       	rcall	.+1178   	; 0x5dbe <__divsf3>
    5924:	6b 01       	movw	r12, r22
    5926:	7c 01       	movw	r14, r24
    5928:	c5 01       	movw	r24, r10
    592a:	b4 01       	movw	r22, r8
    592c:	24 e6       	ldi	r18, 0x64	; 100
    592e:	30 e0       	ldi	r19, 0x00	; 0
    5930:	40 e0       	ldi	r20, 0x00	; 0
    5932:	50 e0       	ldi	r21, 0x00	; 0
    5934:	3b d6       	rcall	.+3190   	; 0x65ac <__divmodsi4>
    5936:	49 01       	movw	r8, r18
    5938:	5a 01       	movw	r10, r20
    593a:	16 d3       	rcall	.+1580   	; 0x5f68 <__floatsisf>
    593c:	9b 01       	movw	r18, r22
    593e:	ac 01       	movw	r20, r24
    5940:	c7 01       	movw	r24, r14
    5942:	b6 01       	movw	r22, r12
    5944:	d4 d1       	rcall	.+936    	; 0x5cee <__addsf3>
    5946:	20 e0       	ldi	r18, 0x00	; 0
    5948:	30 e0       	ldi	r19, 0x00	; 0
    594a:	40 e7       	ldi	r20, 0x70	; 112
    594c:	52 e4       	ldi	r21, 0x42	; 66
    594e:	37 d2       	rcall	.+1134   	; 0x5dbe <__divsf3>
    5950:	6b 01       	movw	r12, r22
    5952:	7c 01       	movw	r14, r24
    5954:	c5 01       	movw	r24, r10
    5956:	b4 01       	movw	r22, r8
    5958:	07 d3       	rcall	.+1550   	; 0x5f68 <__floatsisf>
    595a:	9b 01       	movw	r18, r22
    595c:	ac 01       	movw	r20, r24
    595e:	c7 01       	movw	r24, r14
    5960:	b6 01       	movw	r22, r12
    5962:	c5 d1       	rcall	.+906    	; 0x5cee <__addsf3>
    5964:	60 93 00 22 	sts	0x2200, r22	; 0x802200 <gps_lat>
    5968:	70 93 01 22 	sts	0x2201, r23	; 0x802201 <gps_lat+0x1>
    596c:	80 93 02 22 	sts	0x2202, r24	; 0x802202 <gps_lat+0x2>
    5970:	90 93 03 22 	sts	0x2203, r25	; 0x802203 <gps_lat+0x3>
				break;
    5974:	cd bf       	out	0x3d, r28	; 61
    5976:	de bf       	out	0x3e, r29	; 62
    5978:	2c c1       	rjmp	.+600    	; 0x5bd2 <__vector_91+0x4f8>
    597a:	ed e7       	ldi	r30, 0x7D	; 125
    597c:	f2 e2       	ldi	r31, 0x22	; 34
			case 4:			//Longitude
				for(uint8_t i = 0; i < 15; i++){
    597e:	81 e0       	ldi	r24, 0x01	; 1
					if(gps[i] == (uint8_t) '.'){
    5980:	91 91       	ld	r25, Z+
    5982:	9e 32       	cpi	r25, 0x2E	; 46
    5984:	29 f4       	brne	.+10     	; 0x5990 <__vector_91+0x2b6>
    5986:	01 c0       	rjmp	.+2      	; 0x598a <__vector_91+0x2b0>
    5988:	80 e0       	ldi	r24, 0x00	; 0
						idx = i;
    598a:	80 93 23 22 	sts	0x2223, r24	; 0x802223 <idx>
						break;
    598e:	03 c0       	rjmp	.+6      	; 0x5996 <__vector_91+0x2bc>
				sscanf(gps,"%ld",&val);
				sscanf(dec,"%d",&val2);
				gps_lat = val/100 + ((double)(val%100) + ((double)(val2))/10000) / 60.0;
				break;
			case 4:			//Longitude
				for(uint8_t i = 0; i < 15; i++){
    5990:	8f 5f       	subi	r24, 0xFF	; 255
    5992:	8f 30       	cpi	r24, 0x0F	; 15
    5994:	a9 f7       	brne	.-22     	; 0x5980 <__vector_91+0x2a6>
					if(gps[i] == (uint8_t) '.'){
						idx = i;
						break;
					}
				}
				gps[idx] = 32;
    5996:	e0 91 23 22 	lds	r30, 0x2223	; 0x802223 <idx>
    599a:	f0 e0       	ldi	r31, 0x00	; 0
    599c:	e4 58       	subi	r30, 0x84	; 132
    599e:	fd 4d       	sbci	r31, 0xDD	; 221
    59a0:	80 e2       	ldi	r24, 0x20	; 32
    59a2:	80 83       	st	Z, r24
				for(uint8_t i = idx+1; i < 15; i++){
    59a4:	20 91 23 22 	lds	r18, 0x2223	; 0x802223 <idx>
    59a8:	2f 5f       	subi	r18, 0xFF	; 255
    59aa:	2f 30       	cpi	r18, 0x0F	; 15
    59ac:	08 f5       	brcc	.+66     	; 0x59f0 <__vector_91+0x316>
					if(gps[i] == 32){
    59ae:	82 2f       	mov	r24, r18
    59b0:	90 e0       	ldi	r25, 0x00	; 0
    59b2:	fc 01       	movw	r30, r24
    59b4:	e4 58       	subi	r30, 0x84	; 132
    59b6:	fd 4d       	sbci	r31, 0xDD	; 221
    59b8:	30 81       	ld	r19, Z
    59ba:	30 32       	cpi	r19, 0x20	; 32
    59bc:	c9 f0       	breq	.+50     	; 0x59f0 <__vector_91+0x316>
						break;
					}
					dec[i-idx-1] = gps[i];
					gps[i] = 32;
    59be:	50 e2       	ldi	r21, 0x20	; 32
    59c0:	08 c0       	rjmp	.+16     	; 0x59d2 <__vector_91+0x2f8>
						break;
					}
				}
				gps[idx] = 32;
				for(uint8_t i = idx+1; i < 15; i++){
					if(gps[i] == 32){
    59c2:	82 2f       	mov	r24, r18
    59c4:	90 e0       	ldi	r25, 0x00	; 0
    59c6:	fc 01       	movw	r30, r24
    59c8:	e4 58       	subi	r30, 0x84	; 132
    59ca:	fd 4d       	sbci	r31, 0xDD	; 221
    59cc:	30 81       	ld	r19, Z
    59ce:	30 32       	cpi	r19, 0x20	; 32
    59d0:	79 f0       	breq	.+30     	; 0x59f0 <__vector_91+0x316>
						break;
					}
					dec[i-idx-1] = gps[i];
    59d2:	40 91 23 22 	lds	r20, 0x2223	; 0x802223 <idx>
    59d6:	fc 01       	movw	r30, r24
    59d8:	e4 1b       	sub	r30, r20
    59da:	f1 09       	sbc	r31, r1
    59dc:	e6 57       	subi	r30, 0x76	; 118
    59de:	fd 4d       	sbci	r31, 0xDD	; 221
    59e0:	30 83       	st	Z, r19
					gps[i] = 32;
    59e2:	fc 01       	movw	r30, r24
    59e4:	e4 58       	subi	r30, 0x84	; 132
    59e6:	fd 4d       	sbci	r31, 0xDD	; 221
    59e8:	50 83       	st	Z, r21
						idx = i;
						break;
					}
				}
				gps[idx] = 32;
				for(uint8_t i = idx+1; i < 15; i++){
    59ea:	2f 5f       	subi	r18, 0xFF	; 255
    59ec:	2f 30       	cpi	r18, 0x0F	; 15
    59ee:	49 f7       	brne	.-46     	; 0x59c2 <__vector_91+0x2e8>
						break;
					}
					dec[i-idx-1] = gps[i];
					gps[i] = 32;
				}
				if(dec[0] == 32){
    59f0:	80 91 8b 22 	lds	r24, 0x228B	; 0x80228b <dec>
    59f4:	80 32       	cpi	r24, 0x20	; 32
    59f6:	19 f4       	brne	.+6      	; 0x59fe <__vector_91+0x324>
					dec[0] = '0';
    59f8:	80 e3       	ldi	r24, 0x30	; 48
    59fa:	80 93 8b 22 	sts	0x228B, r24	; 0x80228b <dec>
				}
				sscanf(gps,"%ld",&val);
    59fe:	ce 01       	movw	r24, r28
    5a00:	01 96       	adiw	r24, 0x01	; 1
    5a02:	9f 93       	push	r25
    5a04:	8f 93       	push	r24
    5a06:	89 e4       	ldi	r24, 0x49	; 73
    5a08:	91 e2       	ldi	r25, 0x21	; 33
    5a0a:	9f 93       	push	r25
    5a0c:	8f 93       	push	r24
    5a0e:	8c e7       	ldi	r24, 0x7C	; 124
    5a10:	92 e2       	ldi	r25, 0x22	; 34
    5a12:	9f 93       	push	r25
    5a14:	8f 93       	push	r24
    5a16:	7c d7       	rcall	.+3832   	; 0x6910 <sscanf>
				sscanf(dec,"%d",&val2);
    5a18:	ce 01       	movw	r24, r28
    5a1a:	05 96       	adiw	r24, 0x05	; 5
    5a1c:	9f 93       	push	r25
    5a1e:	8f 93       	push	r24
    5a20:	8d e4       	ldi	r24, 0x4D	; 77
    5a22:	91 e2       	ldi	r25, 0x21	; 33
    5a24:	9f 93       	push	r25
    5a26:	8f 93       	push	r24
    5a28:	8b e8       	ldi	r24, 0x8B	; 139
    5a2a:	92 e2       	ldi	r25, 0x22	; 34
    5a2c:	9f 93       	push	r25
    5a2e:	8f 93       	push	r24
    5a30:	6f d7       	rcall	.+3806   	; 0x6910 <sscanf>
				gps_long = -(val/100 + ((double)(val%100) + ((double)(val2))/10000) / 60.0);
    5a32:	89 80       	ldd	r8, Y+1	; 0x01
    5a34:	9a 80       	ldd	r9, Y+2	; 0x02
    5a36:	ab 80       	ldd	r10, Y+3	; 0x03
    5a38:	bc 80       	ldd	r11, Y+4	; 0x04
    5a3a:	6d 81       	ldd	r22, Y+5	; 0x05
    5a3c:	7e 81       	ldd	r23, Y+6	; 0x06
    5a3e:	07 2e       	mov	r0, r23
    5a40:	00 0c       	add	r0, r0
    5a42:	88 0b       	sbc	r24, r24
    5a44:	99 0b       	sbc	r25, r25
    5a46:	90 d2       	rcall	.+1312   	; 0x5f68 <__floatsisf>
    5a48:	20 e0       	ldi	r18, 0x00	; 0
    5a4a:	30 e4       	ldi	r19, 0x40	; 64
    5a4c:	4c e1       	ldi	r20, 0x1C	; 28
    5a4e:	56 e4       	ldi	r21, 0x46	; 70
    5a50:	b6 d1       	rcall	.+876    	; 0x5dbe <__divsf3>
    5a52:	6b 01       	movw	r12, r22
    5a54:	7c 01       	movw	r14, r24
    5a56:	c5 01       	movw	r24, r10
    5a58:	b4 01       	movw	r22, r8
    5a5a:	24 e6       	ldi	r18, 0x64	; 100
    5a5c:	30 e0       	ldi	r19, 0x00	; 0
    5a5e:	40 e0       	ldi	r20, 0x00	; 0
    5a60:	50 e0       	ldi	r21, 0x00	; 0
    5a62:	a4 d5       	rcall	.+2888   	; 0x65ac <__divmodsi4>
    5a64:	49 01       	movw	r8, r18
    5a66:	5a 01       	movw	r10, r20
    5a68:	7f d2       	rcall	.+1278   	; 0x5f68 <__floatsisf>
    5a6a:	9b 01       	movw	r18, r22
    5a6c:	ac 01       	movw	r20, r24
    5a6e:	c7 01       	movw	r24, r14
    5a70:	b6 01       	movw	r22, r12
    5a72:	3d d1       	rcall	.+634    	; 0x5cee <__addsf3>
    5a74:	20 e0       	ldi	r18, 0x00	; 0
    5a76:	30 e0       	ldi	r19, 0x00	; 0
    5a78:	40 e7       	ldi	r20, 0x70	; 112
    5a7a:	52 e4       	ldi	r21, 0x42	; 66
    5a7c:	a0 d1       	rcall	.+832    	; 0x5dbe <__divsf3>
    5a7e:	6b 01       	movw	r12, r22
    5a80:	7c 01       	movw	r14, r24
    5a82:	c5 01       	movw	r24, r10
    5a84:	b4 01       	movw	r22, r8
    5a86:	70 d2       	rcall	.+1248   	; 0x5f68 <__floatsisf>
    5a88:	9b 01       	movw	r18, r22
    5a8a:	ac 01       	movw	r20, r24
    5a8c:	c7 01       	movw	r24, r14
    5a8e:	b6 01       	movw	r22, r12
    5a90:	2e d1       	rcall	.+604    	; 0x5cee <__addsf3>
    5a92:	dc 01       	movw	r26, r24
    5a94:	cb 01       	movw	r24, r22
    5a96:	b0 58       	subi	r27, 0x80	; 128
    5a98:	80 93 fc 21 	sts	0x21FC, r24	; 0x8021fc <gps_long>
    5a9c:	90 93 fd 21 	sts	0x21FD, r25	; 0x8021fd <gps_long+0x1>
    5aa0:	a0 93 fe 21 	sts	0x21FE, r26	; 0x8021fe <gps_long+0x2>
    5aa4:	b0 93 ff 21 	sts	0x21FF, r27	; 0x8021ff <gps_long+0x3>
    5aa8:	cd bf       	out	0x3d, r28	; 61
				break;
    5aaa:	de bf       	out	0x3e, r29	; 62
    5aac:	92 c0       	rjmp	.+292    	; 0x5bd2 <__vector_91+0x4f8>
    5aae:	86 ef       	ldi	r24, 0xF6	; 246
			case 7:			//Sats
				sscanf(gps,"%d",&gps_sats);
    5ab0:	91 e2       	ldi	r25, 0x21	; 33
    5ab2:	9f 93       	push	r25
    5ab4:	8f 93       	push	r24
    5ab6:	8d e4       	ldi	r24, 0x4D	; 77
    5ab8:	91 e2       	ldi	r25, 0x21	; 33
    5aba:	9f 93       	push	r25
    5abc:	8f 93       	push	r24
    5abe:	8c e7       	ldi	r24, 0x7C	; 124
    5ac0:	92 e2       	ldi	r25, 0x22	; 34
    5ac2:	9f 93       	push	r25
    5ac4:	8f 93       	push	r24
    5ac6:	24 d7       	rcall	.+3656   	; 0x6910 <sscanf>
    5ac8:	0f 90       	pop	r0
    5aca:	0f 90       	pop	r0
				break;
    5acc:	0f 90       	pop	r0
    5ace:	0f 90       	pop	r0
    5ad0:	0f 90       	pop	r0
    5ad2:	0f 90       	pop	r0
    5ad4:	7e c0       	rjmp	.+252    	; 0x5bd2 <__vector_91+0x4f8>
    5ad6:	ed e7       	ldi	r30, 0x7D	; 125
    5ad8:	f2 e2       	ldi	r31, 0x22	; 34
    5ada:	81 e0       	ldi	r24, 0x01	; 1
    5adc:	91 91       	ld	r25, Z+
			case 9:			//Altitude
				for(uint8_t i = 0; i < 15; i++){
    5ade:	9e 32       	cpi	r25, 0x2E	; 46
					if(gps[i] == (uint8_t) '.'){
    5ae0:	29 f4       	brne	.+10     	; 0x5aec <__vector_91+0x412>
    5ae2:	01 c0       	rjmp	.+2      	; 0x5ae6 <__vector_91+0x40c>
    5ae4:	80 e0       	ldi	r24, 0x00	; 0
    5ae6:	80 93 23 22 	sts	0x2223, r24	; 0x802223 <idx>
						idx = i;
    5aea:	03 c0       	rjmp	.+6      	; 0x5af2 <__vector_91+0x418>
    5aec:	8f 5f       	subi	r24, 0xFF	; 255
						break;
    5aee:	8f 30       	cpi	r24, 0x0F	; 15
				break;
			case 7:			//Sats
				sscanf(gps,"%d",&gps_sats);
				break;
			case 9:			//Altitude
				for(uint8_t i = 0; i < 15; i++){
    5af0:	a9 f7       	brne	.-22     	; 0x5adc <__vector_91+0x402>
    5af2:	e0 91 23 22 	lds	r30, 0x2223	; 0x802223 <idx>
					if(gps[i] == (uint8_t) '.'){
						idx = i;
						break;
					}
				}
				gps[idx] = 32;
    5af6:	f0 e0       	ldi	r31, 0x00	; 0
    5af8:	e4 58       	subi	r30, 0x84	; 132
    5afa:	fd 4d       	sbci	r31, 0xDD	; 221
    5afc:	80 e2       	ldi	r24, 0x20	; 32
    5afe:	80 83       	st	Z, r24
    5b00:	20 91 23 22 	lds	r18, 0x2223	; 0x802223 <idx>
				for(uint8_t i = idx+1; i < 15; i++){
    5b04:	2f 5f       	subi	r18, 0xFF	; 255
    5b06:	2f 30       	cpi	r18, 0x0F	; 15
    5b08:	08 f5       	brcc	.+66     	; 0x5b4c <__vector_91+0x472>
    5b0a:	82 2f       	mov	r24, r18
    5b0c:	90 e0       	ldi	r25, 0x00	; 0
					if(gps[i] == 32){
    5b0e:	fc 01       	movw	r30, r24
    5b10:	e4 58       	subi	r30, 0x84	; 132
    5b12:	fd 4d       	sbci	r31, 0xDD	; 221
    5b14:	30 81       	ld	r19, Z
    5b16:	30 32       	cpi	r19, 0x20	; 32
    5b18:	c9 f0       	breq	.+50     	; 0x5b4c <__vector_91+0x472>
    5b1a:	50 e2       	ldi	r21, 0x20	; 32
    5b1c:	08 c0       	rjmp	.+16     	; 0x5b2e <__vector_91+0x454>
						break;
					}
					dec[i-idx-1] = gps[i];
					gps[i] = 32;
    5b1e:	82 2f       	mov	r24, r18
    5b20:	90 e0       	ldi	r25, 0x00	; 0
						break;
					}
				}
				gps[idx] = 32;
				for(uint8_t i = idx+1; i < 15; i++){
					if(gps[i] == 32){
    5b22:	fc 01       	movw	r30, r24
    5b24:	e4 58       	subi	r30, 0x84	; 132
    5b26:	fd 4d       	sbci	r31, 0xDD	; 221
    5b28:	30 81       	ld	r19, Z
    5b2a:	30 32       	cpi	r19, 0x20	; 32
    5b2c:	79 f0       	breq	.+30     	; 0x5b4c <__vector_91+0x472>
    5b2e:	40 91 23 22 	lds	r20, 0x2223	; 0x802223 <idx>
						break;
					}
					dec[i-idx-1] = gps[i];
    5b32:	fc 01       	movw	r30, r24
    5b34:	e4 1b       	sub	r30, r20
    5b36:	f1 09       	sbc	r31, r1
    5b38:	e6 57       	subi	r30, 0x76	; 118
    5b3a:	fd 4d       	sbci	r31, 0xDD	; 221
    5b3c:	30 83       	st	Z, r19
    5b3e:	fc 01       	movw	r30, r24
    5b40:	e4 58       	subi	r30, 0x84	; 132
					gps[i] = 32;
    5b42:	fd 4d       	sbci	r31, 0xDD	; 221
    5b44:	50 83       	st	Z, r21
    5b46:	2f 5f       	subi	r18, 0xFF	; 255
    5b48:	2f 30       	cpi	r18, 0x0F	; 15
						idx = i;
						break;
					}
				}
				gps[idx] = 32;
				for(uint8_t i = idx+1; i < 15; i++){
    5b4a:	49 f7       	brne	.-46     	; 0x5b1e <__vector_91+0x444>
    5b4c:	80 91 8b 22 	lds	r24, 0x228B	; 0x80228b <dec>
						break;
					}
					dec[i-idx-1] = gps[i];
					gps[i] = 32;
				}
				if(dec[0] == 32){
    5b50:	80 32       	cpi	r24, 0x20	; 32
    5b52:	19 f4       	brne	.+6      	; 0x5b5a <__vector_91+0x480>
    5b54:	80 e3       	ldi	r24, 0x30	; 48
					dec[0] = '0';
    5b56:	80 93 8b 22 	sts	0x228B, r24	; 0x80228b <dec>
    5b5a:	ce 01       	movw	r24, r28
				}
				sscanf(gps,"%ld",&val);
    5b5c:	01 96       	adiw	r24, 0x01	; 1
    5b5e:	9f 93       	push	r25
    5b60:	8f 93       	push	r24
    5b62:	89 e4       	ldi	r24, 0x49	; 73
    5b64:	91 e2       	ldi	r25, 0x21	; 33
    5b66:	9f 93       	push	r25
    5b68:	8f 93       	push	r24
    5b6a:	8c e7       	ldi	r24, 0x7C	; 124
    5b6c:	92 e2       	ldi	r25, 0x22	; 34
    5b6e:	9f 93       	push	r25
    5b70:	8f 93       	push	r24
    5b72:	ce d6       	rcall	.+3484   	; 0x6910 <sscanf>
				sscanf(dec,"%d",&val2);
    5b74:	ce 01       	movw	r24, r28
    5b76:	05 96       	adiw	r24, 0x05	; 5
    5b78:	9f 93       	push	r25
    5b7a:	8f 93       	push	r24
    5b7c:	8d e4       	ldi	r24, 0x4D	; 77
    5b7e:	91 e2       	ldi	r25, 0x21	; 33
    5b80:	9f 93       	push	r25
    5b82:	8f 93       	push	r24
    5b84:	8b e8       	ldi	r24, 0x8B	; 139
    5b86:	92 e2       	ldi	r25, 0x22	; 34
    5b88:	9f 93       	push	r25
    5b8a:	8f 93       	push	r24
				gps_alt = (double) val + ((double) val2/10.0);
    5b8c:	c1 d6       	rcall	.+3458   	; 0x6910 <sscanf>
    5b8e:	69 81       	ldd	r22, Y+1	; 0x01
    5b90:	7a 81       	ldd	r23, Y+2	; 0x02
    5b92:	8b 81       	ldd	r24, Y+3	; 0x03
    5b94:	9c 81       	ldd	r25, Y+4	; 0x04
    5b96:	e8 d1       	rcall	.+976    	; 0x5f68 <__floatsisf>
    5b98:	6b 01       	movw	r12, r22
    5b9a:	7c 01       	movw	r14, r24
    5b9c:	6d 81       	ldd	r22, Y+5	; 0x05
    5b9e:	7e 81       	ldd	r23, Y+6	; 0x06
    5ba0:	07 2e       	mov	r0, r23
    5ba2:	00 0c       	add	r0, r0
    5ba4:	88 0b       	sbc	r24, r24
    5ba6:	99 0b       	sbc	r25, r25
    5ba8:	df d1       	rcall	.+958    	; 0x5f68 <__floatsisf>
    5baa:	20 e0       	ldi	r18, 0x00	; 0
    5bac:	30 e0       	ldi	r19, 0x00	; 0
    5bae:	40 e2       	ldi	r20, 0x20	; 32
    5bb0:	51 e4       	ldi	r21, 0x41	; 65
    5bb2:	05 d1       	rcall	.+522    	; 0x5dbe <__divsf3>
    5bb4:	9b 01       	movw	r18, r22
    5bb6:	ac 01       	movw	r20, r24
    5bb8:	c7 01       	movw	r24, r14
    5bba:	b6 01       	movw	r22, r12
    5bbc:	98 d0       	rcall	.+304    	; 0x5cee <__addsf3>
    5bbe:	60 93 f8 21 	sts	0x21F8, r22	; 0x8021f8 <gps_alt>
    5bc2:	70 93 f9 21 	sts	0x21F9, r23	; 0x8021f9 <gps_alt+0x1>
    5bc6:	80 93 fa 21 	sts	0x21FA, r24	; 0x8021fa <gps_alt+0x2>
    5bca:	90 93 fb 21 	sts	0x21FB, r25	; 0x8021fb <gps_alt+0x3>
    5bce:	cd bf       	out	0x3d, r28	; 61
    5bd0:	de bf       	out	0x3e, r29	; 62
				break;
    5bd2:	80 91 27 22 	lds	r24, 0x2227	; 0x802227 <writing>
		}

		if(writing){
    5bd6:	88 23       	and	r24, r24
    5bd8:	d1 f0       	breq	.+52     	; 0x5c0e <__vector_91+0x534>
    5bda:	10 92 23 22 	sts	0x2223, r1	; 0x802223 <idx>
			idx = 0;
    5bde:	80 91 24 22 	lds	r24, 0x2224	; 0x802224 <commas>
			commas++;
    5be2:	8f 5f       	subi	r24, 0xFF	; 255
    5be4:	80 93 24 22 	sts	0x2224, r24	; 0x802224 <commas>
    5be8:	10 92 25 22 	sts	0x2225, r1	; 0x802225 <word_pos>
			word_pos = 0;
    5bec:	ec e7       	ldi	r30, 0x7C	; 124
    5bee:	f2 e2       	ldi	r31, 0x22	; 34
    5bf0:	2b e8       	ldi	r18, 0x8B	; 139
    5bf2:	32 e2       	ldi	r19, 0x22	; 34
    5bf4:	80 e2       	ldi	r24, 0x20	; 32
    5bf6:	81 93       	st	Z+, r24
			for(uint8_t i = 0; i < 15; i++){
				gps[i] = 32;
    5bf8:	2e 17       	cp	r18, r30
    5bfa:	3f 07       	cpc	r19, r31

		if(writing){
			idx = 0;
			commas++;
			word_pos = 0;
			for(uint8_t i = 0; i < 15; i++){
    5bfc:	e1 f7       	brne	.-8      	; 0x5bf6 <__vector_91+0x51c>
    5bfe:	eb e8       	ldi	r30, 0x8B	; 139
    5c00:	f2 e2       	ldi	r31, 0x22	; 34
				gps[i] = 32;
			}
			for(uint8_t i = 0; i < 5; i++){
				dec[i] = 32;
    5c02:	80 e2       	ldi	r24, 0x20	; 32
    5c04:	80 83       	st	Z, r24
    5c06:	81 83       	std	Z+1, r24	; 0x01
    5c08:	82 83       	std	Z+2, r24	; 0x02
    5c0a:	83 83       	std	Z+3, r24	; 0x03
    5c0c:	84 83       	std	Z+4, r24	; 0x04
    5c0e:	80 91 27 22 	lds	r24, 0x2227	; 0x802227 <writing>
			}
		}
	}

	if(writing){
    5c12:	88 23       	and	r24, r24
    5c14:	09 f4       	brne	.+2      	; 0x5c18 <__vector_91+0x53e>
    5c16:	43 c0       	rjmp	.+134    	; 0x5c9e <__vector_91+0x5c4>
    5c18:	80 91 26 22 	lds	r24, 0x2226	; 0x802226 <pos>
		switch(pos){
    5c1c:	83 30       	cpi	r24, 0x03	; 3
    5c1e:	19 f0       	breq	.+6      	; 0x5c26 <__vector_91+0x54c>
    5c20:	84 30       	cpi	r24, 0x04	; 4
    5c22:	31 f0       	breq	.+12     	; 0x5c30 <__vector_91+0x556>
    5c24:	09 c0       	rjmp	.+18     	; 0x5c38 <__vector_91+0x55e>
    5c26:	17 34       	cpi	r17, 0x47	; 71
    5c28:	39 f0       	breq	.+14     	; 0x5c38 <__vector_91+0x55e>
			case 3:
				if(c != 'G'){
    5c2a:	10 92 27 22 	sts	0x2227, r1	; 0x802227 <writing>
					writing = 0;
    5c2e:	04 c0       	rjmp	.+8      	; 0x5c38 <__vector_91+0x55e>
    5c30:	17 34       	cpi	r17, 0x47	; 71
    5c32:	11 f0       	breq	.+4      	; 0x5c38 <__vector_91+0x55e>
				}
				break;

			case 4:
				if(c != 'G'){
    5c34:	10 92 27 22 	sts	0x2227, r1	; 0x802227 <writing>
					writing = 0;
    5c38:	e0 91 25 22 	lds	r30, 0x2225	; 0x802225 <word_pos>
				}
				break;
		}
		gps[word_pos] = c;
    5c3c:	f0 e0       	ldi	r31, 0x00	; 0
    5c3e:	e4 58       	subi	r30, 0x84	; 132
    5c40:	fd 4d       	sbci	r31, 0xDD	; 221
    5c42:	10 83       	st	Z, r17
    5c44:	80 91 25 22 	lds	r24, 0x2225	; 0x802225 <word_pos>
		word_pos++;
    5c48:	8f 5f       	subi	r24, 0xFF	; 255
    5c4a:	80 93 25 22 	sts	0x2225, r24	; 0x802225 <word_pos>
    5c4e:	80 91 26 22 	lds	r24, 0x2226	; 0x802226 <pos>
		pos++;
    5c52:	8f 5f       	subi	r24, 0xFF	; 255
    5c54:	80 93 26 22 	sts	0x2226, r24	; 0x802226 <pos>
    5c58:	22 c0       	rjmp	.+68     	; 0x5c9e <__vector_91+0x5c4>
    5c5a:	80 91 7c 22 	lds	r24, 0x227C	; 0x80227c <gps>
		int32_t val = 0;
		int16_t val2 = 0;
		switch(commas){
			case 1:			//Time
				for(uint8_t i = 0; i < 15; i++){
					if(gps[i] == (uint8_t) '.'){
    5c5e:	8e 32       	cpi	r24, 0x2E	; 46
    5c60:	09 f4       	brne	.+2      	; 0x5c64 <__vector_91+0x58a>
    5c62:	a4 cd       	rjmp	.-1208   	; 0x57ac <__vector_91+0xd2>
    5c64:	ed e7       	ldi	r30, 0x7D	; 125
    5c66:	f2 e2       	ldi	r31, 0x22	; 34
    5c68:	81 e0       	ldi	r24, 0x01	; 1
    5c6a:	9c cd       	rjmp	.-1224   	; 0x57a4 <__vector_91+0xca>
		}
		int32_t val = 0;
		int16_t val2 = 0;
		switch(commas){
			case 1:			//Time
				for(uint8_t i = 0; i < 15; i++){
    5c6c:	19 82       	std	Y+1, r1	; 0x01
    5c6e:	1a 82       	std	Y+2, r1	; 0x02
	else if(c == (uint8_t) ','){
		gps[0] = 32;
		if(gps[1] == 32){
			gps[0] = '0';
		}
		int32_t val = 0;
    5c70:	1b 82       	std	Y+3, r1	; 0x03
    5c72:	1c 82       	std	Y+4, r1	; 0x04
    5c74:	1d 82       	std	Y+5, r1	; 0x05
    5c76:	1e 82       	std	Y+6, r1	; 0x06
		int16_t val2 = 0;
    5c78:	80 91 24 22 	lds	r24, 0x2224	; 0x802224 <commas>
		switch(commas){
    5c7c:	84 30       	cpi	r24, 0x04	; 4
    5c7e:	09 f4       	brne	.+2      	; 0x5c82 <__vector_91+0x5a8>
    5c80:	85 cd       	rjmp	.-1270   	; 0x578c <__vector_91+0xb2>
    5c82:	30 f4       	brcc	.+12     	; 0x5c90 <__vector_91+0x5b6>
    5c84:	81 30       	cpi	r24, 0x01	; 1
    5c86:	49 f3       	breq	.-46     	; 0x5c5a <__vector_91+0x580>
    5c88:	82 30       	cpi	r24, 0x02	; 2
    5c8a:	09 f4       	brne	.+2      	; 0x5c8e <__vector_91+0x5b4>
    5c8c:	85 cd       	rjmp	.-1270   	; 0x5798 <__vector_91+0xbe>
    5c8e:	a1 cf       	rjmp	.-190    	; 0x5bd2 <__vector_91+0x4f8>
    5c90:	87 30       	cpi	r24, 0x07	; 7
    5c92:	09 f4       	brne	.+2      	; 0x5c96 <__vector_91+0x5bc>
    5c94:	0c cf       	rjmp	.-488    	; 0x5aae <__vector_91+0x3d4>
    5c96:	89 30       	cpi	r24, 0x09	; 9
    5c98:	09 f4       	brne	.+2      	; 0x5c9c <__vector_91+0x5c2>
    5c9a:	72 cd       	rjmp	.-1308   	; 0x5780 <__vector_91+0xa6>
    5c9c:	9a cf       	rjmp	.-204    	; 0x5bd2 <__vector_91+0x4f8>
    5c9e:	26 96       	adiw	r28, 0x06	; 6
    5ca0:	cd bf       	out	0x3d, r28	; 61
		}
		gps[word_pos] = c;
		word_pos++;
		pos++;
	}
    5ca2:	de bf       	out	0x3e, r29	; 62
    5ca4:	df 91       	pop	r29
    5ca6:	cf 91       	pop	r28
    5ca8:	ff 91       	pop	r31
    5caa:	ef 91       	pop	r30
    5cac:	bf 91       	pop	r27
    5cae:	af 91       	pop	r26
    5cb0:	9f 91       	pop	r25
    5cb2:	8f 91       	pop	r24
    5cb4:	7f 91       	pop	r23
    5cb6:	6f 91       	pop	r22
    5cb8:	5f 91       	pop	r21
    5cba:	4f 91       	pop	r20
    5cbc:	3f 91       	pop	r19
    5cbe:	2f 91       	pop	r18
    5cc0:	1f 91       	pop	r17
    5cc2:	ff 90       	pop	r15
    5cc4:	ef 90       	pop	r14
    5cc6:	df 90       	pop	r13
    5cc8:	cf 90       	pop	r12
    5cca:	bf 90       	pop	r11
    5ccc:	af 90       	pop	r10
    5cce:	9f 90       	pop	r9
    5cd0:	8f 90       	pop	r8
    5cd2:	0f 90       	pop	r0
    5cd4:	0b be       	out	0x3b, r0	; 59
    5cd6:	0f 90       	pop	r0
    5cd8:	0a be       	out	0x3a, r0	; 58
    5cda:	0f 90       	pop	r0
    5cdc:	09 be       	out	0x39, r0	; 57
    5cde:	0f 90       	pop	r0
    5ce0:	08 be       	out	0x38, r0	; 56
    5ce2:	0f 90       	pop	r0
    5ce4:	0f be       	out	0x3f, r0	; 63
    5ce6:	0f 90       	pop	r0
    5ce8:	1f 90       	pop	r1
    5cea:	18 95       	reti

00005cec <__subsf3>:
    5cec:	50 58       	subi	r21, 0x80	; 128

00005cee <__addsf3>:
    5cee:	bb 27       	eor	r27, r27
    5cf0:	aa 27       	eor	r26, r26
    5cf2:	0e d0       	rcall	.+28     	; 0x5d10 <__addsf3x>
    5cf4:	fd c1       	rjmp	.+1018   	; 0x60f0 <__fp_round>
    5cf6:	ee d1       	rcall	.+988    	; 0x60d4 <__fp_pscA>
    5cf8:	30 f0       	brcs	.+12     	; 0x5d06 <__addsf3+0x18>
    5cfa:	f3 d1       	rcall	.+998    	; 0x60e2 <__fp_pscB>
    5cfc:	20 f0       	brcs	.+8      	; 0x5d06 <__addsf3+0x18>
    5cfe:	31 f4       	brne	.+12     	; 0x5d0c <__addsf3+0x1e>
    5d00:	9f 3f       	cpi	r25, 0xFF	; 255
    5d02:	11 f4       	brne	.+4      	; 0x5d08 <__addsf3+0x1a>
    5d04:	1e f4       	brtc	.+6      	; 0x5d0c <__addsf3+0x1e>
    5d06:	d3 c1       	rjmp	.+934    	; 0x60ae <__fp_nan>
    5d08:	0e f4       	brtc	.+2      	; 0x5d0c <__addsf3+0x1e>
    5d0a:	e0 95       	com	r30
    5d0c:	e7 fb       	bst	r30, 7
    5d0e:	c9 c1       	rjmp	.+914    	; 0x60a2 <__fp_inf>

00005d10 <__addsf3x>:
    5d10:	e9 2f       	mov	r30, r25
    5d12:	ff d1       	rcall	.+1022   	; 0x6112 <__fp_split3>
    5d14:	80 f3       	brcs	.-32     	; 0x5cf6 <__addsf3+0x8>
    5d16:	ba 17       	cp	r27, r26
    5d18:	62 07       	cpc	r22, r18
    5d1a:	73 07       	cpc	r23, r19
    5d1c:	84 07       	cpc	r24, r20
    5d1e:	95 07       	cpc	r25, r21
    5d20:	18 f0       	brcs	.+6      	; 0x5d28 <__addsf3x+0x18>
    5d22:	71 f4       	brne	.+28     	; 0x5d40 <__addsf3x+0x30>
    5d24:	9e f5       	brtc	.+102    	; 0x5d8c <__addsf3x+0x7c>
    5d26:	17 c2       	rjmp	.+1070   	; 0x6156 <__fp_zero>
    5d28:	0e f4       	brtc	.+2      	; 0x5d2c <__addsf3x+0x1c>
    5d2a:	e0 95       	com	r30
    5d2c:	0b 2e       	mov	r0, r27
    5d2e:	ba 2f       	mov	r27, r26
    5d30:	a0 2d       	mov	r26, r0
    5d32:	0b 01       	movw	r0, r22
    5d34:	b9 01       	movw	r22, r18
    5d36:	90 01       	movw	r18, r0
    5d38:	0c 01       	movw	r0, r24
    5d3a:	ca 01       	movw	r24, r20
    5d3c:	a0 01       	movw	r20, r0
    5d3e:	11 24       	eor	r1, r1
    5d40:	ff 27       	eor	r31, r31
    5d42:	59 1b       	sub	r21, r25
    5d44:	99 f0       	breq	.+38     	; 0x5d6c <__addsf3x+0x5c>
    5d46:	59 3f       	cpi	r21, 0xF9	; 249
    5d48:	50 f4       	brcc	.+20     	; 0x5d5e <__addsf3x+0x4e>
    5d4a:	50 3e       	cpi	r21, 0xE0	; 224
    5d4c:	68 f1       	brcs	.+90     	; 0x5da8 <__addsf3x+0x98>
    5d4e:	1a 16       	cp	r1, r26
    5d50:	f0 40       	sbci	r31, 0x00	; 0
    5d52:	a2 2f       	mov	r26, r18
    5d54:	23 2f       	mov	r18, r19
    5d56:	34 2f       	mov	r19, r20
    5d58:	44 27       	eor	r20, r20
    5d5a:	58 5f       	subi	r21, 0xF8	; 248
    5d5c:	f3 cf       	rjmp	.-26     	; 0x5d44 <__addsf3x+0x34>
    5d5e:	46 95       	lsr	r20
    5d60:	37 95       	ror	r19
    5d62:	27 95       	ror	r18
    5d64:	a7 95       	ror	r26
    5d66:	f0 40       	sbci	r31, 0x00	; 0
    5d68:	53 95       	inc	r21
    5d6a:	c9 f7       	brne	.-14     	; 0x5d5e <__addsf3x+0x4e>
    5d6c:	7e f4       	brtc	.+30     	; 0x5d8c <__addsf3x+0x7c>
    5d6e:	1f 16       	cp	r1, r31
    5d70:	ba 0b       	sbc	r27, r26
    5d72:	62 0b       	sbc	r22, r18
    5d74:	73 0b       	sbc	r23, r19
    5d76:	84 0b       	sbc	r24, r20
    5d78:	ba f0       	brmi	.+46     	; 0x5da8 <__addsf3x+0x98>
    5d7a:	91 50       	subi	r25, 0x01	; 1
    5d7c:	a1 f0       	breq	.+40     	; 0x5da6 <__addsf3x+0x96>
    5d7e:	ff 0f       	add	r31, r31
    5d80:	bb 1f       	adc	r27, r27
    5d82:	66 1f       	adc	r22, r22
    5d84:	77 1f       	adc	r23, r23
    5d86:	88 1f       	adc	r24, r24
    5d88:	c2 f7       	brpl	.-16     	; 0x5d7a <__addsf3x+0x6a>
    5d8a:	0e c0       	rjmp	.+28     	; 0x5da8 <__addsf3x+0x98>
    5d8c:	ba 0f       	add	r27, r26
    5d8e:	62 1f       	adc	r22, r18
    5d90:	73 1f       	adc	r23, r19
    5d92:	84 1f       	adc	r24, r20
    5d94:	48 f4       	brcc	.+18     	; 0x5da8 <__addsf3x+0x98>
    5d96:	87 95       	ror	r24
    5d98:	77 95       	ror	r23
    5d9a:	67 95       	ror	r22
    5d9c:	b7 95       	ror	r27
    5d9e:	f7 95       	ror	r31
    5da0:	9e 3f       	cpi	r25, 0xFE	; 254
    5da2:	08 f0       	brcs	.+2      	; 0x5da6 <__addsf3x+0x96>
    5da4:	b3 cf       	rjmp	.-154    	; 0x5d0c <__addsf3+0x1e>
    5da6:	93 95       	inc	r25
    5da8:	88 0f       	add	r24, r24
    5daa:	08 f0       	brcs	.+2      	; 0x5dae <__addsf3x+0x9e>
    5dac:	99 27       	eor	r25, r25
    5dae:	ee 0f       	add	r30, r30
    5db0:	97 95       	ror	r25
    5db2:	87 95       	ror	r24
    5db4:	08 95       	ret

00005db6 <__cmpsf2>:
    5db6:	51 d1       	rcall	.+674    	; 0x605a <__fp_cmp>
    5db8:	08 f4       	brcc	.+2      	; 0x5dbc <__cmpsf2+0x6>
    5dba:	81 e0       	ldi	r24, 0x01	; 1
    5dbc:	08 95       	ret

00005dbe <__divsf3>:
    5dbe:	0c d0       	rcall	.+24     	; 0x5dd8 <__divsf3x>
    5dc0:	97 c1       	rjmp	.+814    	; 0x60f0 <__fp_round>
    5dc2:	8f d1       	rcall	.+798    	; 0x60e2 <__fp_pscB>
    5dc4:	40 f0       	brcs	.+16     	; 0x5dd6 <__divsf3+0x18>
    5dc6:	86 d1       	rcall	.+780    	; 0x60d4 <__fp_pscA>
    5dc8:	30 f0       	brcs	.+12     	; 0x5dd6 <__divsf3+0x18>
    5dca:	21 f4       	brne	.+8      	; 0x5dd4 <__divsf3+0x16>
    5dcc:	5f 3f       	cpi	r21, 0xFF	; 255
    5dce:	19 f0       	breq	.+6      	; 0x5dd6 <__divsf3+0x18>
    5dd0:	68 c1       	rjmp	.+720    	; 0x60a2 <__fp_inf>
    5dd2:	51 11       	cpse	r21, r1
    5dd4:	c1 c1       	rjmp	.+898    	; 0x6158 <__fp_szero>
    5dd6:	6b c1       	rjmp	.+726    	; 0x60ae <__fp_nan>

00005dd8 <__divsf3x>:
    5dd8:	9c d1       	rcall	.+824    	; 0x6112 <__fp_split3>
    5dda:	98 f3       	brcs	.-26     	; 0x5dc2 <__divsf3+0x4>

00005ddc <__divsf3_pse>:
    5ddc:	99 23       	and	r25, r25
    5dde:	c9 f3       	breq	.-14     	; 0x5dd2 <__divsf3+0x14>
    5de0:	55 23       	and	r21, r21
    5de2:	b1 f3       	breq	.-20     	; 0x5dd0 <__divsf3+0x12>
    5de4:	95 1b       	sub	r25, r21
    5de6:	55 0b       	sbc	r21, r21
    5de8:	bb 27       	eor	r27, r27
    5dea:	aa 27       	eor	r26, r26
    5dec:	62 17       	cp	r22, r18
    5dee:	73 07       	cpc	r23, r19
    5df0:	84 07       	cpc	r24, r20
    5df2:	38 f0       	brcs	.+14     	; 0x5e02 <__divsf3_pse+0x26>
    5df4:	9f 5f       	subi	r25, 0xFF	; 255
    5df6:	5f 4f       	sbci	r21, 0xFF	; 255
    5df8:	22 0f       	add	r18, r18
    5dfa:	33 1f       	adc	r19, r19
    5dfc:	44 1f       	adc	r20, r20
    5dfe:	aa 1f       	adc	r26, r26
    5e00:	a9 f3       	breq	.-22     	; 0x5dec <__divsf3_pse+0x10>
    5e02:	33 d0       	rcall	.+102    	; 0x5e6a <__divsf3_pse+0x8e>
    5e04:	0e 2e       	mov	r0, r30
    5e06:	3a f0       	brmi	.+14     	; 0x5e16 <__divsf3_pse+0x3a>
    5e08:	e0 e8       	ldi	r30, 0x80	; 128
    5e0a:	30 d0       	rcall	.+96     	; 0x5e6c <__divsf3_pse+0x90>
    5e0c:	91 50       	subi	r25, 0x01	; 1
    5e0e:	50 40       	sbci	r21, 0x00	; 0
    5e10:	e6 95       	lsr	r30
    5e12:	00 1c       	adc	r0, r0
    5e14:	ca f7       	brpl	.-14     	; 0x5e08 <__divsf3_pse+0x2c>
    5e16:	29 d0       	rcall	.+82     	; 0x5e6a <__divsf3_pse+0x8e>
    5e18:	fe 2f       	mov	r31, r30
    5e1a:	27 d0       	rcall	.+78     	; 0x5e6a <__divsf3_pse+0x8e>
    5e1c:	66 0f       	add	r22, r22
    5e1e:	77 1f       	adc	r23, r23
    5e20:	88 1f       	adc	r24, r24
    5e22:	bb 1f       	adc	r27, r27
    5e24:	26 17       	cp	r18, r22
    5e26:	37 07       	cpc	r19, r23
    5e28:	48 07       	cpc	r20, r24
    5e2a:	ab 07       	cpc	r26, r27
    5e2c:	b0 e8       	ldi	r27, 0x80	; 128
    5e2e:	09 f0       	breq	.+2      	; 0x5e32 <__divsf3_pse+0x56>
    5e30:	bb 0b       	sbc	r27, r27
    5e32:	80 2d       	mov	r24, r0
    5e34:	bf 01       	movw	r22, r30
    5e36:	ff 27       	eor	r31, r31
    5e38:	93 58       	subi	r25, 0x83	; 131
    5e3a:	5f 4f       	sbci	r21, 0xFF	; 255
    5e3c:	2a f0       	brmi	.+10     	; 0x5e48 <__divsf3_pse+0x6c>
    5e3e:	9e 3f       	cpi	r25, 0xFE	; 254
    5e40:	51 05       	cpc	r21, r1
    5e42:	68 f0       	brcs	.+26     	; 0x5e5e <__divsf3_pse+0x82>
    5e44:	2e c1       	rjmp	.+604    	; 0x60a2 <__fp_inf>
    5e46:	88 c1       	rjmp	.+784    	; 0x6158 <__fp_szero>
    5e48:	5f 3f       	cpi	r21, 0xFF	; 255
    5e4a:	ec f3       	brlt	.-6      	; 0x5e46 <__divsf3_pse+0x6a>
    5e4c:	98 3e       	cpi	r25, 0xE8	; 232
    5e4e:	dc f3       	brlt	.-10     	; 0x5e46 <__divsf3_pse+0x6a>
    5e50:	86 95       	lsr	r24
    5e52:	77 95       	ror	r23
    5e54:	67 95       	ror	r22
    5e56:	b7 95       	ror	r27
    5e58:	f7 95       	ror	r31
    5e5a:	9f 5f       	subi	r25, 0xFF	; 255
    5e5c:	c9 f7       	brne	.-14     	; 0x5e50 <__divsf3_pse+0x74>
    5e5e:	88 0f       	add	r24, r24
    5e60:	91 1d       	adc	r25, r1
    5e62:	96 95       	lsr	r25
    5e64:	87 95       	ror	r24
    5e66:	97 f9       	bld	r25, 7
    5e68:	08 95       	ret
    5e6a:	e1 e0       	ldi	r30, 0x01	; 1
    5e6c:	66 0f       	add	r22, r22
    5e6e:	77 1f       	adc	r23, r23
    5e70:	88 1f       	adc	r24, r24
    5e72:	bb 1f       	adc	r27, r27
    5e74:	62 17       	cp	r22, r18
    5e76:	73 07       	cpc	r23, r19
    5e78:	84 07       	cpc	r24, r20
    5e7a:	ba 07       	cpc	r27, r26
    5e7c:	20 f0       	brcs	.+8      	; 0x5e86 <__divsf3_pse+0xaa>
    5e7e:	62 1b       	sub	r22, r18
    5e80:	73 0b       	sbc	r23, r19
    5e82:	84 0b       	sbc	r24, r20
    5e84:	ba 0b       	sbc	r27, r26
    5e86:	ee 1f       	adc	r30, r30
    5e88:	88 f7       	brcc	.-30     	; 0x5e6c <__divsf3_pse+0x90>
    5e8a:	e0 95       	com	r30
    5e8c:	08 95       	ret

00005e8e <__fixsfdi>:
    5e8e:	be e3       	ldi	r27, 0x3E	; 62
    5e90:	04 d0       	rcall	.+8      	; 0x5e9a <__fixunssfdi+0x2>
    5e92:	08 f4       	brcc	.+2      	; 0x5e96 <__fixsfdi+0x8>
    5e94:	90 e8       	ldi	r25, 0x80	; 128
    5e96:	08 95       	ret

00005e98 <__fixunssfdi>:
    5e98:	bf e3       	ldi	r27, 0x3F	; 63
    5e9a:	22 27       	eor	r18, r18
    5e9c:	33 27       	eor	r19, r19
    5e9e:	a9 01       	movw	r20, r18
    5ea0:	40 d1       	rcall	.+640    	; 0x6122 <__fp_splitA>
    5ea2:	58 f1       	brcs	.+86     	; 0x5efa <__fixunssfdi+0x62>
    5ea4:	9f 57       	subi	r25, 0x7F	; 127
    5ea6:	40 f1       	brcs	.+80     	; 0x5ef8 <__fixunssfdi+0x60>
    5ea8:	b9 17       	cp	r27, r25
    5eaa:	38 f1       	brcs	.+78     	; 0x5efa <__fixunssfdi+0x62>
    5eac:	bf e3       	ldi	r27, 0x3F	; 63
    5eae:	b9 1b       	sub	r27, r25
    5eb0:	99 27       	eor	r25, r25
    5eb2:	b8 50       	subi	r27, 0x08	; 8
    5eb4:	3a f4       	brpl	.+14     	; 0x5ec4 <__fixunssfdi+0x2c>
    5eb6:	66 0f       	add	r22, r22
    5eb8:	77 1f       	adc	r23, r23
    5eba:	88 1f       	adc	r24, r24
    5ebc:	99 1f       	adc	r25, r25
    5ebe:	b3 95       	inc	r27
    5ec0:	d2 f3       	brmi	.-12     	; 0x5eb6 <__fixunssfdi+0x1e>
    5ec2:	16 c0       	rjmp	.+44     	; 0x5ef0 <__fixunssfdi+0x58>
    5ec4:	b8 50       	subi	r27, 0x08	; 8
    5ec6:	4a f0       	brmi	.+18     	; 0x5eda <__fixunssfdi+0x42>
    5ec8:	23 2f       	mov	r18, r19
    5eca:	34 2f       	mov	r19, r20
    5ecc:	45 2f       	mov	r20, r21
    5ece:	56 2f       	mov	r21, r22
    5ed0:	67 2f       	mov	r22, r23
    5ed2:	78 2f       	mov	r23, r24
    5ed4:	88 27       	eor	r24, r24
    5ed6:	b8 50       	subi	r27, 0x08	; 8
    5ed8:	ba f7       	brpl	.-18     	; 0x5ec8 <__fixunssfdi+0x30>
    5eda:	b8 5f       	subi	r27, 0xF8	; 248
    5edc:	49 f0       	breq	.+18     	; 0x5ef0 <__fixunssfdi+0x58>
    5ede:	86 95       	lsr	r24
    5ee0:	77 95       	ror	r23
    5ee2:	67 95       	ror	r22
    5ee4:	57 95       	ror	r21
    5ee6:	47 95       	ror	r20
    5ee8:	37 95       	ror	r19
    5eea:	27 95       	ror	r18
    5eec:	ba 95       	dec	r27
    5eee:	b9 f7       	brne	.-18     	; 0x5ede <__fixunssfdi+0x46>
    5ef0:	0e f4       	brtc	.+2      	; 0x5ef4 <__fixunssfdi+0x5c>
    5ef2:	e0 d0       	rcall	.+448    	; 0x60b4 <__fp_negdi>
    5ef4:	88 94       	clc
    5ef6:	08 95       	ret
    5ef8:	88 94       	clc
    5efa:	60 e0       	ldi	r22, 0x00	; 0
    5efc:	70 e0       	ldi	r23, 0x00	; 0
    5efe:	cb 01       	movw	r24, r22
    5f00:	08 95       	ret

00005f02 <__fixsfsi>:
    5f02:	04 d0       	rcall	.+8      	; 0x5f0c <__fixunssfsi>
    5f04:	68 94       	set
    5f06:	b1 11       	cpse	r27, r1
    5f08:	27 c1       	rjmp	.+590    	; 0x6158 <__fp_szero>
    5f0a:	08 95       	ret

00005f0c <__fixunssfsi>:
    5f0c:	0a d1       	rcall	.+532    	; 0x6122 <__fp_splitA>
    5f0e:	88 f0       	brcs	.+34     	; 0x5f32 <__fixunssfsi+0x26>
    5f10:	9f 57       	subi	r25, 0x7F	; 127
    5f12:	90 f0       	brcs	.+36     	; 0x5f38 <__fixunssfsi+0x2c>
    5f14:	b9 2f       	mov	r27, r25
    5f16:	99 27       	eor	r25, r25
    5f18:	b7 51       	subi	r27, 0x17	; 23
    5f1a:	a0 f0       	brcs	.+40     	; 0x5f44 <__fixunssfsi+0x38>
    5f1c:	d1 f0       	breq	.+52     	; 0x5f52 <__fixunssfsi+0x46>
    5f1e:	66 0f       	add	r22, r22
    5f20:	77 1f       	adc	r23, r23
    5f22:	88 1f       	adc	r24, r24
    5f24:	99 1f       	adc	r25, r25
    5f26:	1a f0       	brmi	.+6      	; 0x5f2e <__fixunssfsi+0x22>
    5f28:	ba 95       	dec	r27
    5f2a:	c9 f7       	brne	.-14     	; 0x5f1e <__fixunssfsi+0x12>
    5f2c:	12 c0       	rjmp	.+36     	; 0x5f52 <__fixunssfsi+0x46>
    5f2e:	b1 30       	cpi	r27, 0x01	; 1
    5f30:	81 f0       	breq	.+32     	; 0x5f52 <__fixunssfsi+0x46>
    5f32:	11 d1       	rcall	.+546    	; 0x6156 <__fp_zero>
    5f34:	b1 e0       	ldi	r27, 0x01	; 1
    5f36:	08 95       	ret
    5f38:	0e c1       	rjmp	.+540    	; 0x6156 <__fp_zero>
    5f3a:	67 2f       	mov	r22, r23
    5f3c:	78 2f       	mov	r23, r24
    5f3e:	88 27       	eor	r24, r24
    5f40:	b8 5f       	subi	r27, 0xF8	; 248
    5f42:	39 f0       	breq	.+14     	; 0x5f52 <__fixunssfsi+0x46>
    5f44:	b9 3f       	cpi	r27, 0xF9	; 249
    5f46:	cc f3       	brlt	.-14     	; 0x5f3a <__fixunssfsi+0x2e>
    5f48:	86 95       	lsr	r24
    5f4a:	77 95       	ror	r23
    5f4c:	67 95       	ror	r22
    5f4e:	b3 95       	inc	r27
    5f50:	d9 f7       	brne	.-10     	; 0x5f48 <__fixunssfsi+0x3c>
    5f52:	3e f4       	brtc	.+14     	; 0x5f62 <__fixunssfsi+0x56>
    5f54:	90 95       	com	r25
    5f56:	80 95       	com	r24
    5f58:	70 95       	com	r23
    5f5a:	61 95       	neg	r22
    5f5c:	7f 4f       	sbci	r23, 0xFF	; 255
    5f5e:	8f 4f       	sbci	r24, 0xFF	; 255
    5f60:	9f 4f       	sbci	r25, 0xFF	; 255
    5f62:	08 95       	ret

00005f64 <__floatunsisf>:
    5f64:	e8 94       	clt
    5f66:	09 c0       	rjmp	.+18     	; 0x5f7a <__floatsisf+0x12>

00005f68 <__floatsisf>:
    5f68:	97 fb       	bst	r25, 7
    5f6a:	3e f4       	brtc	.+14     	; 0x5f7a <__floatsisf+0x12>
    5f6c:	90 95       	com	r25
    5f6e:	80 95       	com	r24
    5f70:	70 95       	com	r23
    5f72:	61 95       	neg	r22
    5f74:	7f 4f       	sbci	r23, 0xFF	; 255
    5f76:	8f 4f       	sbci	r24, 0xFF	; 255
    5f78:	9f 4f       	sbci	r25, 0xFF	; 255
    5f7a:	99 23       	and	r25, r25
    5f7c:	a9 f0       	breq	.+42     	; 0x5fa8 <__floatsisf+0x40>
    5f7e:	f9 2f       	mov	r31, r25
    5f80:	96 e9       	ldi	r25, 0x96	; 150
    5f82:	bb 27       	eor	r27, r27
    5f84:	93 95       	inc	r25
    5f86:	f6 95       	lsr	r31
    5f88:	87 95       	ror	r24
    5f8a:	77 95       	ror	r23
    5f8c:	67 95       	ror	r22
    5f8e:	b7 95       	ror	r27
    5f90:	f1 11       	cpse	r31, r1
    5f92:	f8 cf       	rjmp	.-16     	; 0x5f84 <__floatsisf+0x1c>
    5f94:	fa f4       	brpl	.+62     	; 0x5fd4 <__floatsisf+0x6c>
    5f96:	bb 0f       	add	r27, r27
    5f98:	11 f4       	brne	.+4      	; 0x5f9e <__floatsisf+0x36>
    5f9a:	60 ff       	sbrs	r22, 0
    5f9c:	1b c0       	rjmp	.+54     	; 0x5fd4 <__floatsisf+0x6c>
    5f9e:	6f 5f       	subi	r22, 0xFF	; 255
    5fa0:	7f 4f       	sbci	r23, 0xFF	; 255
    5fa2:	8f 4f       	sbci	r24, 0xFF	; 255
    5fa4:	9f 4f       	sbci	r25, 0xFF	; 255
    5fa6:	16 c0       	rjmp	.+44     	; 0x5fd4 <__floatsisf+0x6c>
    5fa8:	88 23       	and	r24, r24
    5faa:	11 f0       	breq	.+4      	; 0x5fb0 <__floatsisf+0x48>
    5fac:	96 e9       	ldi	r25, 0x96	; 150
    5fae:	11 c0       	rjmp	.+34     	; 0x5fd2 <__floatsisf+0x6a>
    5fb0:	77 23       	and	r23, r23
    5fb2:	21 f0       	breq	.+8      	; 0x5fbc <__floatsisf+0x54>
    5fb4:	9e e8       	ldi	r25, 0x8E	; 142
    5fb6:	87 2f       	mov	r24, r23
    5fb8:	76 2f       	mov	r23, r22
    5fba:	05 c0       	rjmp	.+10     	; 0x5fc6 <__floatsisf+0x5e>
    5fbc:	66 23       	and	r22, r22
    5fbe:	71 f0       	breq	.+28     	; 0x5fdc <__floatsisf+0x74>
    5fc0:	96 e8       	ldi	r25, 0x86	; 134
    5fc2:	86 2f       	mov	r24, r22
    5fc4:	70 e0       	ldi	r23, 0x00	; 0
    5fc6:	60 e0       	ldi	r22, 0x00	; 0
    5fc8:	2a f0       	brmi	.+10     	; 0x5fd4 <__floatsisf+0x6c>
    5fca:	9a 95       	dec	r25
    5fcc:	66 0f       	add	r22, r22
    5fce:	77 1f       	adc	r23, r23
    5fd0:	88 1f       	adc	r24, r24
    5fd2:	da f7       	brpl	.-10     	; 0x5fca <__floatsisf+0x62>
    5fd4:	88 0f       	add	r24, r24
    5fd6:	96 95       	lsr	r25
    5fd8:	87 95       	ror	r24
    5fda:	97 f9       	bld	r25, 7
    5fdc:	08 95       	ret

00005fde <__floatundisf>:
    5fde:	e8 94       	clt

00005fe0 <__fp_di2sf>:
    5fe0:	f9 2f       	mov	r31, r25
    5fe2:	96 eb       	ldi	r25, 0xB6	; 182
    5fe4:	ff 23       	and	r31, r31
    5fe6:	81 f0       	breq	.+32     	; 0x6008 <__fp_di2sf+0x28>
    5fe8:	12 16       	cp	r1, r18
    5fea:	13 06       	cpc	r1, r19
    5fec:	14 06       	cpc	r1, r20
    5fee:	44 0b       	sbc	r20, r20
    5ff0:	93 95       	inc	r25
    5ff2:	f6 95       	lsr	r31
    5ff4:	87 95       	ror	r24
    5ff6:	77 95       	ror	r23
    5ff8:	67 95       	ror	r22
    5ffa:	57 95       	ror	r21
    5ffc:	40 40       	sbci	r20, 0x00	; 0
    5ffe:	ff 23       	and	r31, r31
    6000:	b9 f7       	brne	.-18     	; 0x5ff0 <__fp_di2sf+0x10>
    6002:	1b c0       	rjmp	.+54     	; 0x603a <__fp_di2sf+0x5a>
    6004:	99 27       	eor	r25, r25
    6006:	08 95       	ret
    6008:	88 23       	and	r24, r24
    600a:	51 f4       	brne	.+20     	; 0x6020 <__fp_di2sf+0x40>
    600c:	98 50       	subi	r25, 0x08	; 8
    600e:	d2 f7       	brpl	.-12     	; 0x6004 <__fp_di2sf+0x24>
    6010:	87 2b       	or	r24, r23
    6012:	76 2f       	mov	r23, r22
    6014:	65 2f       	mov	r22, r21
    6016:	54 2f       	mov	r21, r20
    6018:	43 2f       	mov	r20, r19
    601a:	32 2f       	mov	r19, r18
    601c:	20 e0       	ldi	r18, 0x00	; 0
    601e:	b1 f3       	breq	.-20     	; 0x600c <__fp_di2sf+0x2c>
    6020:	12 16       	cp	r1, r18
    6022:	13 06       	cpc	r1, r19
    6024:	14 06       	cpc	r1, r20
    6026:	44 0b       	sbc	r20, r20
    6028:	88 23       	and	r24, r24
    602a:	3a f0       	brmi	.+14     	; 0x603a <__fp_di2sf+0x5a>
    602c:	9a 95       	dec	r25
    602e:	44 0f       	add	r20, r20
    6030:	55 1f       	adc	r21, r21
    6032:	66 1f       	adc	r22, r22
    6034:	77 1f       	adc	r23, r23
    6036:	88 1f       	adc	r24, r24
    6038:	ca f7       	brpl	.-14     	; 0x602c <__fp_di2sf+0x4c>
    603a:	55 23       	and	r21, r21
    603c:	4a f4       	brpl	.+18     	; 0x6050 <__fp_di2sf+0x70>
    603e:	44 0f       	add	r20, r20
    6040:	55 1f       	adc	r21, r21
    6042:	11 f4       	brne	.+4      	; 0x6048 <__fp_di2sf+0x68>
    6044:	60 ff       	sbrs	r22, 0
    6046:	04 c0       	rjmp	.+8      	; 0x6050 <__fp_di2sf+0x70>
    6048:	6f 5f       	subi	r22, 0xFF	; 255
    604a:	7f 4f       	sbci	r23, 0xFF	; 255
    604c:	8f 4f       	sbci	r24, 0xFF	; 255
    604e:	9f 4f       	sbci	r25, 0xFF	; 255
    6050:	88 0f       	add	r24, r24
    6052:	96 95       	lsr	r25
    6054:	87 95       	ror	r24
    6056:	97 f9       	bld	r25, 7
    6058:	08 95       	ret

0000605a <__fp_cmp>:
    605a:	99 0f       	add	r25, r25
    605c:	00 08       	sbc	r0, r0
    605e:	55 0f       	add	r21, r21
    6060:	aa 0b       	sbc	r26, r26
    6062:	e0 e8       	ldi	r30, 0x80	; 128
    6064:	fe ef       	ldi	r31, 0xFE	; 254
    6066:	16 16       	cp	r1, r22
    6068:	17 06       	cpc	r1, r23
    606a:	e8 07       	cpc	r30, r24
    606c:	f9 07       	cpc	r31, r25
    606e:	c0 f0       	brcs	.+48     	; 0x60a0 <__fp_cmp+0x46>
    6070:	12 16       	cp	r1, r18
    6072:	13 06       	cpc	r1, r19
    6074:	e4 07       	cpc	r30, r20
    6076:	f5 07       	cpc	r31, r21
    6078:	98 f0       	brcs	.+38     	; 0x60a0 <__fp_cmp+0x46>
    607a:	62 1b       	sub	r22, r18
    607c:	73 0b       	sbc	r23, r19
    607e:	84 0b       	sbc	r24, r20
    6080:	95 0b       	sbc	r25, r21
    6082:	39 f4       	brne	.+14     	; 0x6092 <__fp_cmp+0x38>
    6084:	0a 26       	eor	r0, r26
    6086:	61 f0       	breq	.+24     	; 0x60a0 <__fp_cmp+0x46>
    6088:	23 2b       	or	r18, r19
    608a:	24 2b       	or	r18, r20
    608c:	25 2b       	or	r18, r21
    608e:	21 f4       	brne	.+8      	; 0x6098 <__fp_cmp+0x3e>
    6090:	08 95       	ret
    6092:	0a 26       	eor	r0, r26
    6094:	09 f4       	brne	.+2      	; 0x6098 <__fp_cmp+0x3e>
    6096:	a1 40       	sbci	r26, 0x01	; 1
    6098:	a6 95       	lsr	r26
    609a:	8f ef       	ldi	r24, 0xFF	; 255
    609c:	81 1d       	adc	r24, r1
    609e:	81 1d       	adc	r24, r1
    60a0:	08 95       	ret

000060a2 <__fp_inf>:
    60a2:	97 f9       	bld	r25, 7
    60a4:	9f 67       	ori	r25, 0x7F	; 127
    60a6:	80 e8       	ldi	r24, 0x80	; 128
    60a8:	70 e0       	ldi	r23, 0x00	; 0
    60aa:	60 e0       	ldi	r22, 0x00	; 0
    60ac:	08 95       	ret

000060ae <__fp_nan>:
    60ae:	9f ef       	ldi	r25, 0xFF	; 255
    60b0:	80 ec       	ldi	r24, 0xC0	; 192
    60b2:	08 95       	ret

000060b4 <__fp_negdi>:
    60b4:	90 95       	com	r25
    60b6:	80 95       	com	r24
    60b8:	70 95       	com	r23
    60ba:	60 95       	com	r22
    60bc:	50 95       	com	r21
    60be:	40 95       	com	r20
    60c0:	30 95       	com	r19
    60c2:	21 95       	neg	r18
    60c4:	3f 4f       	sbci	r19, 0xFF	; 255
    60c6:	4f 4f       	sbci	r20, 0xFF	; 255
    60c8:	5f 4f       	sbci	r21, 0xFF	; 255
    60ca:	6f 4f       	sbci	r22, 0xFF	; 255
    60cc:	7f 4f       	sbci	r23, 0xFF	; 255
    60ce:	8f 4f       	sbci	r24, 0xFF	; 255
    60d0:	9f 4f       	sbci	r25, 0xFF	; 255
    60d2:	08 95       	ret

000060d4 <__fp_pscA>:
    60d4:	00 24       	eor	r0, r0
    60d6:	0a 94       	dec	r0
    60d8:	16 16       	cp	r1, r22
    60da:	17 06       	cpc	r1, r23
    60dc:	18 06       	cpc	r1, r24
    60de:	09 06       	cpc	r0, r25
    60e0:	08 95       	ret

000060e2 <__fp_pscB>:
    60e2:	00 24       	eor	r0, r0
    60e4:	0a 94       	dec	r0
    60e6:	12 16       	cp	r1, r18
    60e8:	13 06       	cpc	r1, r19
    60ea:	14 06       	cpc	r1, r20
    60ec:	05 06       	cpc	r0, r21
    60ee:	08 95       	ret

000060f0 <__fp_round>:
    60f0:	09 2e       	mov	r0, r25
    60f2:	03 94       	inc	r0
    60f4:	00 0c       	add	r0, r0
    60f6:	11 f4       	brne	.+4      	; 0x60fc <__fp_round+0xc>
    60f8:	88 23       	and	r24, r24
    60fa:	52 f0       	brmi	.+20     	; 0x6110 <__fp_round+0x20>
    60fc:	bb 0f       	add	r27, r27
    60fe:	40 f4       	brcc	.+16     	; 0x6110 <__fp_round+0x20>
    6100:	bf 2b       	or	r27, r31
    6102:	11 f4       	brne	.+4      	; 0x6108 <__fp_round+0x18>
    6104:	60 ff       	sbrs	r22, 0
    6106:	04 c0       	rjmp	.+8      	; 0x6110 <__fp_round+0x20>
    6108:	6f 5f       	subi	r22, 0xFF	; 255
    610a:	7f 4f       	sbci	r23, 0xFF	; 255
    610c:	8f 4f       	sbci	r24, 0xFF	; 255
    610e:	9f 4f       	sbci	r25, 0xFF	; 255
    6110:	08 95       	ret

00006112 <__fp_split3>:
    6112:	57 fd       	sbrc	r21, 7
    6114:	90 58       	subi	r25, 0x80	; 128
    6116:	44 0f       	add	r20, r20
    6118:	55 1f       	adc	r21, r21
    611a:	59 f0       	breq	.+22     	; 0x6132 <__fp_splitA+0x10>
    611c:	5f 3f       	cpi	r21, 0xFF	; 255
    611e:	71 f0       	breq	.+28     	; 0x613c <__fp_splitA+0x1a>
    6120:	47 95       	ror	r20

00006122 <__fp_splitA>:
    6122:	88 0f       	add	r24, r24
    6124:	97 fb       	bst	r25, 7
    6126:	99 1f       	adc	r25, r25
    6128:	61 f0       	breq	.+24     	; 0x6142 <__fp_splitA+0x20>
    612a:	9f 3f       	cpi	r25, 0xFF	; 255
    612c:	79 f0       	breq	.+30     	; 0x614c <__fp_splitA+0x2a>
    612e:	87 95       	ror	r24
    6130:	08 95       	ret
    6132:	12 16       	cp	r1, r18
    6134:	13 06       	cpc	r1, r19
    6136:	14 06       	cpc	r1, r20
    6138:	55 1f       	adc	r21, r21
    613a:	f2 cf       	rjmp	.-28     	; 0x6120 <__fp_split3+0xe>
    613c:	46 95       	lsr	r20
    613e:	f1 df       	rcall	.-30     	; 0x6122 <__fp_splitA>
    6140:	08 c0       	rjmp	.+16     	; 0x6152 <__fp_splitA+0x30>
    6142:	16 16       	cp	r1, r22
    6144:	17 06       	cpc	r1, r23
    6146:	18 06       	cpc	r1, r24
    6148:	99 1f       	adc	r25, r25
    614a:	f1 cf       	rjmp	.-30     	; 0x612e <__fp_splitA+0xc>
    614c:	86 95       	lsr	r24
    614e:	71 05       	cpc	r23, r1
    6150:	61 05       	cpc	r22, r1
    6152:	08 94       	sec
    6154:	08 95       	ret

00006156 <__fp_zero>:
    6156:	e8 94       	clt

00006158 <__fp_szero>:
    6158:	bb 27       	eor	r27, r27
    615a:	66 27       	eor	r22, r22
    615c:	77 27       	eor	r23, r23
    615e:	cb 01       	movw	r24, r22
    6160:	97 f9       	bld	r25, 7
    6162:	08 95       	ret

00006164 <__gesf2>:
    6164:	7a df       	rcall	.-268    	; 0x605a <__fp_cmp>
    6166:	08 f4       	brcc	.+2      	; 0x616a <__gesf2+0x6>
    6168:	8f ef       	ldi	r24, 0xFF	; 255
    616a:	08 95       	ret
    616c:	0e f0       	brts	.+2      	; 0x6170 <__gesf2+0xc>
    616e:	23 c1       	rjmp	.+582    	; 0x63b6 <__fp_mpack>
    6170:	9e cf       	rjmp	.-196    	; 0x60ae <__fp_nan>
    6172:	68 94       	set
    6174:	96 cf       	rjmp	.-212    	; 0x60a2 <__fp_inf>

00006176 <log>:
    6176:	d5 df       	rcall	.-86     	; 0x6122 <__fp_splitA>
    6178:	c8 f3       	brcs	.-14     	; 0x616c <__gesf2+0x8>
    617a:	99 23       	and	r25, r25
    617c:	d1 f3       	breq	.-12     	; 0x6172 <__gesf2+0xe>
    617e:	c6 f3       	brts	.-16     	; 0x6170 <__gesf2+0xc>
    6180:	df 93       	push	r29
    6182:	cf 93       	push	r28
    6184:	1f 93       	push	r17
    6186:	0f 93       	push	r16
    6188:	ff 92       	push	r15
    618a:	c9 2f       	mov	r28, r25
    618c:	dd 27       	eor	r29, r29
    618e:	88 23       	and	r24, r24
    6190:	2a f0       	brmi	.+10     	; 0x619c <log+0x26>
    6192:	21 97       	sbiw	r28, 0x01	; 1
    6194:	66 0f       	add	r22, r22
    6196:	77 1f       	adc	r23, r23
    6198:	88 1f       	adc	r24, r24
    619a:	da f7       	brpl	.-10     	; 0x6192 <log+0x1c>
    619c:	20 e0       	ldi	r18, 0x00	; 0
    619e:	30 e0       	ldi	r19, 0x00	; 0
    61a0:	40 e8       	ldi	r20, 0x80	; 128
    61a2:	5f eb       	ldi	r21, 0xBF	; 191
    61a4:	9f e3       	ldi	r25, 0x3F	; 63
    61a6:	88 39       	cpi	r24, 0x98	; 152
    61a8:	20 f0       	brcs	.+8      	; 0x61b2 <log+0x3c>
    61aa:	80 3e       	cpi	r24, 0xE0	; 224
    61ac:	30 f0       	brcs	.+12     	; 0x61ba <log+0x44>
    61ae:	21 96       	adiw	r28, 0x01	; 1
    61b0:	8f 77       	andi	r24, 0x7F	; 127
    61b2:	9d dd       	rcall	.-1222   	; 0x5cee <__addsf3>
    61b4:	e2 e2       	ldi	r30, 0x22	; 34
    61b6:	f2 e0       	ldi	r31, 0x02	; 2
    61b8:	03 c0       	rjmp	.+6      	; 0x61c0 <log+0x4a>
    61ba:	99 dd       	rcall	.-1230   	; 0x5cee <__addsf3>
    61bc:	ef e4       	ldi	r30, 0x4F	; 79
    61be:	f2 e0       	ldi	r31, 0x02	; 2
    61c0:	08 d1       	rcall	.+528    	; 0x63d2 <__fp_powser>
    61c2:	8b 01       	movw	r16, r22
    61c4:	be 01       	movw	r22, r28
    61c6:	ec 01       	movw	r28, r24
    61c8:	fb 2e       	mov	r15, r27
    61ca:	6f 57       	subi	r22, 0x7F	; 127
    61cc:	71 09       	sbc	r23, r1
    61ce:	75 95       	asr	r23
    61d0:	77 1f       	adc	r23, r23
    61d2:	88 0b       	sbc	r24, r24
    61d4:	99 0b       	sbc	r25, r25
    61d6:	c8 de       	rcall	.-624    	; 0x5f68 <__floatsisf>
    61d8:	28 e1       	ldi	r18, 0x18	; 24
    61da:	32 e7       	ldi	r19, 0x72	; 114
    61dc:	41 e3       	ldi	r20, 0x31	; 49
    61de:	5f e3       	ldi	r21, 0x3F	; 63
    61e0:	16 d0       	rcall	.+44     	; 0x620e <__mulsf3x>
    61e2:	af 2d       	mov	r26, r15
    61e4:	98 01       	movw	r18, r16
    61e6:	ae 01       	movw	r20, r28
    61e8:	ff 90       	pop	r15
    61ea:	0f 91       	pop	r16
    61ec:	1f 91       	pop	r17
    61ee:	cf 91       	pop	r28
    61f0:	df 91       	pop	r29
    61f2:	8e dd       	rcall	.-1252   	; 0x5d10 <__addsf3x>
    61f4:	7d cf       	rjmp	.-262    	; 0x60f0 <__fp_round>

000061f6 <__mulsf3>:
    61f6:	0b d0       	rcall	.+22     	; 0x620e <__mulsf3x>
    61f8:	7b cf       	rjmp	.-266    	; 0x60f0 <__fp_round>
    61fa:	6c df       	rcall	.-296    	; 0x60d4 <__fp_pscA>
    61fc:	28 f0       	brcs	.+10     	; 0x6208 <__mulsf3+0x12>
    61fe:	71 df       	rcall	.-286    	; 0x60e2 <__fp_pscB>
    6200:	18 f0       	brcs	.+6      	; 0x6208 <__mulsf3+0x12>
    6202:	95 23       	and	r25, r21
    6204:	09 f0       	breq	.+2      	; 0x6208 <__mulsf3+0x12>
    6206:	4d cf       	rjmp	.-358    	; 0x60a2 <__fp_inf>
    6208:	52 cf       	rjmp	.-348    	; 0x60ae <__fp_nan>
    620a:	11 24       	eor	r1, r1
    620c:	a5 cf       	rjmp	.-182    	; 0x6158 <__fp_szero>

0000620e <__mulsf3x>:
    620e:	81 df       	rcall	.-254    	; 0x6112 <__fp_split3>
    6210:	a0 f3       	brcs	.-24     	; 0x61fa <__mulsf3+0x4>

00006212 <__mulsf3_pse>:
    6212:	95 9f       	mul	r25, r21
    6214:	d1 f3       	breq	.-12     	; 0x620a <__mulsf3+0x14>
    6216:	95 0f       	add	r25, r21
    6218:	50 e0       	ldi	r21, 0x00	; 0
    621a:	55 1f       	adc	r21, r21
    621c:	62 9f       	mul	r22, r18
    621e:	f0 01       	movw	r30, r0
    6220:	72 9f       	mul	r23, r18
    6222:	bb 27       	eor	r27, r27
    6224:	f0 0d       	add	r31, r0
    6226:	b1 1d       	adc	r27, r1
    6228:	63 9f       	mul	r22, r19
    622a:	aa 27       	eor	r26, r26
    622c:	f0 0d       	add	r31, r0
    622e:	b1 1d       	adc	r27, r1
    6230:	aa 1f       	adc	r26, r26
    6232:	64 9f       	mul	r22, r20
    6234:	66 27       	eor	r22, r22
    6236:	b0 0d       	add	r27, r0
    6238:	a1 1d       	adc	r26, r1
    623a:	66 1f       	adc	r22, r22
    623c:	82 9f       	mul	r24, r18
    623e:	22 27       	eor	r18, r18
    6240:	b0 0d       	add	r27, r0
    6242:	a1 1d       	adc	r26, r1
    6244:	62 1f       	adc	r22, r18
    6246:	73 9f       	mul	r23, r19
    6248:	b0 0d       	add	r27, r0
    624a:	a1 1d       	adc	r26, r1
    624c:	62 1f       	adc	r22, r18
    624e:	83 9f       	mul	r24, r19
    6250:	a0 0d       	add	r26, r0
    6252:	61 1d       	adc	r22, r1
    6254:	22 1f       	adc	r18, r18
    6256:	74 9f       	mul	r23, r20
    6258:	33 27       	eor	r19, r19
    625a:	a0 0d       	add	r26, r0
    625c:	61 1d       	adc	r22, r1
    625e:	23 1f       	adc	r18, r19
    6260:	84 9f       	mul	r24, r20
    6262:	60 0d       	add	r22, r0
    6264:	21 1d       	adc	r18, r1
    6266:	82 2f       	mov	r24, r18
    6268:	76 2f       	mov	r23, r22
    626a:	6a 2f       	mov	r22, r26
    626c:	11 24       	eor	r1, r1
    626e:	9f 57       	subi	r25, 0x7F	; 127
    6270:	50 40       	sbci	r21, 0x00	; 0
    6272:	8a f0       	brmi	.+34     	; 0x6296 <__mulsf3_pse+0x84>
    6274:	e1 f0       	breq	.+56     	; 0x62ae <__mulsf3_pse+0x9c>
    6276:	88 23       	and	r24, r24
    6278:	4a f0       	brmi	.+18     	; 0x628c <__mulsf3_pse+0x7a>
    627a:	ee 0f       	add	r30, r30
    627c:	ff 1f       	adc	r31, r31
    627e:	bb 1f       	adc	r27, r27
    6280:	66 1f       	adc	r22, r22
    6282:	77 1f       	adc	r23, r23
    6284:	88 1f       	adc	r24, r24
    6286:	91 50       	subi	r25, 0x01	; 1
    6288:	50 40       	sbci	r21, 0x00	; 0
    628a:	a9 f7       	brne	.-22     	; 0x6276 <__mulsf3_pse+0x64>
    628c:	9e 3f       	cpi	r25, 0xFE	; 254
    628e:	51 05       	cpc	r21, r1
    6290:	70 f0       	brcs	.+28     	; 0x62ae <__mulsf3_pse+0x9c>
    6292:	07 cf       	rjmp	.-498    	; 0x60a2 <__fp_inf>
    6294:	61 cf       	rjmp	.-318    	; 0x6158 <__fp_szero>
    6296:	5f 3f       	cpi	r21, 0xFF	; 255
    6298:	ec f3       	brlt	.-6      	; 0x6294 <__mulsf3_pse+0x82>
    629a:	98 3e       	cpi	r25, 0xE8	; 232
    629c:	dc f3       	brlt	.-10     	; 0x6294 <__mulsf3_pse+0x82>
    629e:	86 95       	lsr	r24
    62a0:	77 95       	ror	r23
    62a2:	67 95       	ror	r22
    62a4:	b7 95       	ror	r27
    62a6:	f7 95       	ror	r31
    62a8:	e7 95       	ror	r30
    62aa:	9f 5f       	subi	r25, 0xFF	; 255
    62ac:	c1 f7       	brne	.-16     	; 0x629e <__mulsf3_pse+0x8c>
    62ae:	fe 2b       	or	r31, r30
    62b0:	88 0f       	add	r24, r24
    62b2:	91 1d       	adc	r25, r1
    62b4:	96 95       	lsr	r25
    62b6:	87 95       	ror	r24
    62b8:	97 f9       	bld	r25, 7
    62ba:	08 95       	ret

000062bc <pow>:
    62bc:	fa 01       	movw	r30, r20
    62be:	ee 0f       	add	r30, r30
    62c0:	ff 1f       	adc	r31, r31
    62c2:	30 96       	adiw	r30, 0x00	; 0
    62c4:	21 05       	cpc	r18, r1
    62c6:	31 05       	cpc	r19, r1
    62c8:	99 f1       	breq	.+102    	; 0x6330 <pow+0x74>
    62ca:	61 15       	cp	r22, r1
    62cc:	71 05       	cpc	r23, r1
    62ce:	61 f4       	brne	.+24     	; 0x62e8 <pow+0x2c>
    62d0:	80 38       	cpi	r24, 0x80	; 128
    62d2:	bf e3       	ldi	r27, 0x3F	; 63
    62d4:	9b 07       	cpc	r25, r27
    62d6:	49 f1       	breq	.+82     	; 0x632a <pow+0x6e>
    62d8:	68 94       	set
    62da:	90 38       	cpi	r25, 0x80	; 128
    62dc:	81 05       	cpc	r24, r1
    62de:	61 f0       	breq	.+24     	; 0x62f8 <pow+0x3c>
    62e0:	80 38       	cpi	r24, 0x80	; 128
    62e2:	bf ef       	ldi	r27, 0xFF	; 255
    62e4:	9b 07       	cpc	r25, r27
    62e6:	41 f0       	breq	.+16     	; 0x62f8 <pow+0x3c>
    62e8:	99 23       	and	r25, r25
    62ea:	42 f5       	brpl	.+80     	; 0x633c <pow+0x80>
    62ec:	ff 3f       	cpi	r31, 0xFF	; 255
    62ee:	e1 05       	cpc	r30, r1
    62f0:	31 05       	cpc	r19, r1
    62f2:	21 05       	cpc	r18, r1
    62f4:	11 f1       	breq	.+68     	; 0x633a <pow+0x7e>
    62f6:	e8 94       	clt
    62f8:	08 94       	sec
    62fa:	e7 95       	ror	r30
    62fc:	d9 01       	movw	r26, r18
    62fe:	aa 23       	and	r26, r26
    6300:	29 f4       	brne	.+10     	; 0x630c <pow+0x50>
    6302:	ab 2f       	mov	r26, r27
    6304:	be 2f       	mov	r27, r30
    6306:	f8 5f       	subi	r31, 0xF8	; 248
    6308:	d0 f3       	brcs	.-12     	; 0x62fe <pow+0x42>
    630a:	10 c0       	rjmp	.+32     	; 0x632c <pow+0x70>
    630c:	ff 5f       	subi	r31, 0xFF	; 255
    630e:	70 f4       	brcc	.+28     	; 0x632c <pow+0x70>
    6310:	a6 95       	lsr	r26
    6312:	e0 f7       	brcc	.-8      	; 0x630c <pow+0x50>
    6314:	f7 39       	cpi	r31, 0x97	; 151
    6316:	50 f0       	brcs	.+20     	; 0x632c <pow+0x70>
    6318:	19 f0       	breq	.+6      	; 0x6320 <pow+0x64>
    631a:	ff 3a       	cpi	r31, 0xAF	; 175
    631c:	38 f4       	brcc	.+14     	; 0x632c <pow+0x70>
    631e:	9f 77       	andi	r25, 0x7F	; 127
    6320:	9f 93       	push	r25
    6322:	0c d0       	rcall	.+24     	; 0x633c <pow+0x80>
    6324:	0f 90       	pop	r0
    6326:	07 fc       	sbrc	r0, 7
    6328:	90 58       	subi	r25, 0x80	; 128
    632a:	08 95       	ret
    632c:	3e f0       	brts	.+14     	; 0x633c <pow+0x80>
    632e:	bf ce       	rjmp	.-642    	; 0x60ae <__fp_nan>
    6330:	60 e0       	ldi	r22, 0x00	; 0
    6332:	70 e0       	ldi	r23, 0x00	; 0
    6334:	80 e8       	ldi	r24, 0x80	; 128
    6336:	9f e3       	ldi	r25, 0x3F	; 63
    6338:	08 95       	ret
    633a:	4f e7       	ldi	r20, 0x7F	; 127
    633c:	9f 77       	andi	r25, 0x7F	; 127
    633e:	5f 93       	push	r21
    6340:	4f 93       	push	r20
    6342:	3f 93       	push	r19
    6344:	2f 93       	push	r18
    6346:	17 df       	rcall	.-466    	; 0x6176 <log>
    6348:	2f 91       	pop	r18
    634a:	3f 91       	pop	r19
    634c:	4f 91       	pop	r20
    634e:	5f 91       	pop	r21
    6350:	52 df       	rcall	.-348    	; 0x61f6 <__mulsf3>
    6352:	05 c0       	rjmp	.+10     	; 0x635e <exp>
    6354:	19 f4       	brne	.+6      	; 0x635c <pow+0xa0>
    6356:	0e f0       	brts	.+2      	; 0x635a <pow+0x9e>
    6358:	a4 ce       	rjmp	.-696    	; 0x60a2 <__fp_inf>
    635a:	fd ce       	rjmp	.-518    	; 0x6156 <__fp_zero>
    635c:	a8 ce       	rjmp	.-688    	; 0x60ae <__fp_nan>

0000635e <exp>:
    635e:	e1 de       	rcall	.-574    	; 0x6122 <__fp_splitA>
    6360:	c8 f3       	brcs	.-14     	; 0x6354 <pow+0x98>
    6362:	96 38       	cpi	r25, 0x86	; 134
    6364:	c0 f7       	brcc	.-16     	; 0x6356 <pow+0x9a>
    6366:	07 f8       	bld	r0, 7
    6368:	0f 92       	push	r0
    636a:	e8 94       	clt
    636c:	2b e3       	ldi	r18, 0x3B	; 59
    636e:	3a ea       	ldi	r19, 0xAA	; 170
    6370:	48 eb       	ldi	r20, 0xB8	; 184
    6372:	5f e7       	ldi	r21, 0x7F	; 127
    6374:	4e df       	rcall	.-356    	; 0x6212 <__mulsf3_pse>
    6376:	0f 92       	push	r0
    6378:	0f 92       	push	r0
    637a:	0f 92       	push	r0
    637c:	4d b7       	in	r20, 0x3d	; 61
    637e:	5e b7       	in	r21, 0x3e	; 62
    6380:	0f 92       	push	r0
    6382:	89 d0       	rcall	.+274    	; 0x6496 <modf>
    6384:	ec e7       	ldi	r30, 0x7C	; 124
    6386:	f2 e0       	ldi	r31, 0x02	; 2
    6388:	24 d0       	rcall	.+72     	; 0x63d2 <__fp_powser>
    638a:	4f 91       	pop	r20
    638c:	5f 91       	pop	r21
    638e:	ef 91       	pop	r30
    6390:	ff 91       	pop	r31
    6392:	e5 95       	asr	r30
    6394:	ee 1f       	adc	r30, r30
    6396:	ff 1f       	adc	r31, r31
    6398:	49 f0       	breq	.+18     	; 0x63ac <exp+0x4e>
    639a:	fe 57       	subi	r31, 0x7E	; 126
    639c:	e0 68       	ori	r30, 0x80	; 128
    639e:	44 27       	eor	r20, r20
    63a0:	ee 0f       	add	r30, r30
    63a2:	44 1f       	adc	r20, r20
    63a4:	fa 95       	dec	r31
    63a6:	e1 f7       	brne	.-8      	; 0x63a0 <exp+0x42>
    63a8:	41 95       	neg	r20
    63aa:	55 0b       	sbc	r21, r21
    63ac:	40 d0       	rcall	.+128    	; 0x642e <ldexp>
    63ae:	0f 90       	pop	r0
    63b0:	07 fe       	sbrs	r0, 7
    63b2:	34 c0       	rjmp	.+104    	; 0x641c <inverse>
    63b4:	08 95       	ret

000063b6 <__fp_mpack>:
    63b6:	9f 3f       	cpi	r25, 0xFF	; 255
    63b8:	31 f0       	breq	.+12     	; 0x63c6 <__fp_mpack_finite+0xc>

000063ba <__fp_mpack_finite>:
    63ba:	91 50       	subi	r25, 0x01	; 1
    63bc:	20 f4       	brcc	.+8      	; 0x63c6 <__fp_mpack_finite+0xc>
    63be:	87 95       	ror	r24
    63c0:	77 95       	ror	r23
    63c2:	67 95       	ror	r22
    63c4:	b7 95       	ror	r27
    63c6:	88 0f       	add	r24, r24
    63c8:	91 1d       	adc	r25, r1
    63ca:	96 95       	lsr	r25
    63cc:	87 95       	ror	r24
    63ce:	97 f9       	bld	r25, 7
    63d0:	08 95       	ret

000063d2 <__fp_powser>:
    63d2:	df 93       	push	r29
    63d4:	cf 93       	push	r28
    63d6:	1f 93       	push	r17
    63d8:	0f 93       	push	r16
    63da:	ff 92       	push	r15
    63dc:	ef 92       	push	r14
    63de:	df 92       	push	r13
    63e0:	7b 01       	movw	r14, r22
    63e2:	8c 01       	movw	r16, r24
    63e4:	68 94       	set
    63e6:	05 c0       	rjmp	.+10     	; 0x63f2 <__fp_powser+0x20>
    63e8:	da 2e       	mov	r13, r26
    63ea:	ef 01       	movw	r28, r30
    63ec:	10 df       	rcall	.-480    	; 0x620e <__mulsf3x>
    63ee:	fe 01       	movw	r30, r28
    63f0:	e8 94       	clt
    63f2:	a5 91       	lpm	r26, Z+
    63f4:	25 91       	lpm	r18, Z+
    63f6:	35 91       	lpm	r19, Z+
    63f8:	45 91       	lpm	r20, Z+
    63fa:	55 91       	lpm	r21, Z+
    63fc:	ae f3       	brts	.-22     	; 0x63e8 <__fp_powser+0x16>
    63fe:	ef 01       	movw	r28, r30
    6400:	87 dc       	rcall	.-1778   	; 0x5d10 <__addsf3x>
    6402:	fe 01       	movw	r30, r28
    6404:	97 01       	movw	r18, r14
    6406:	a8 01       	movw	r20, r16
    6408:	da 94       	dec	r13
    640a:	79 f7       	brne	.-34     	; 0x63ea <__fp_powser+0x18>
    640c:	df 90       	pop	r13
    640e:	ef 90       	pop	r14
    6410:	ff 90       	pop	r15
    6412:	0f 91       	pop	r16
    6414:	1f 91       	pop	r17
    6416:	cf 91       	pop	r28
    6418:	df 91       	pop	r29
    641a:	08 95       	ret

0000641c <inverse>:
    641c:	9b 01       	movw	r18, r22
    641e:	ac 01       	movw	r20, r24
    6420:	60 e0       	ldi	r22, 0x00	; 0
    6422:	70 e0       	ldi	r23, 0x00	; 0
    6424:	80 e8       	ldi	r24, 0x80	; 128
    6426:	9f e3       	ldi	r25, 0x3F	; 63
    6428:	ca cc       	rjmp	.-1644   	; 0x5dbe <__divsf3>
    642a:	3b ce       	rjmp	.-906    	; 0x60a2 <__fp_inf>
    642c:	c4 cf       	rjmp	.-120    	; 0x63b6 <__fp_mpack>

0000642e <ldexp>:
    642e:	79 de       	rcall	.-782    	; 0x6122 <__fp_splitA>
    6430:	e8 f3       	brcs	.-6      	; 0x642c <inverse+0x10>
    6432:	99 23       	and	r25, r25
    6434:	d9 f3       	breq	.-10     	; 0x642c <inverse+0x10>
    6436:	94 0f       	add	r25, r20
    6438:	51 1d       	adc	r21, r1
    643a:	bb f3       	brvs	.-18     	; 0x642a <inverse+0xe>
    643c:	91 50       	subi	r25, 0x01	; 1
    643e:	50 40       	sbci	r21, 0x00	; 0
    6440:	94 f0       	brlt	.+36     	; 0x6466 <ldexp+0x38>
    6442:	59 f0       	breq	.+22     	; 0x645a <ldexp+0x2c>
    6444:	88 23       	and	r24, r24
    6446:	32 f0       	brmi	.+12     	; 0x6454 <ldexp+0x26>
    6448:	66 0f       	add	r22, r22
    644a:	77 1f       	adc	r23, r23
    644c:	88 1f       	adc	r24, r24
    644e:	91 50       	subi	r25, 0x01	; 1
    6450:	50 40       	sbci	r21, 0x00	; 0
    6452:	c1 f7       	brne	.-16     	; 0x6444 <ldexp+0x16>
    6454:	9e 3f       	cpi	r25, 0xFE	; 254
    6456:	51 05       	cpc	r21, r1
    6458:	44 f7       	brge	.-48     	; 0x642a <inverse+0xe>
    645a:	88 0f       	add	r24, r24
    645c:	91 1d       	adc	r25, r1
    645e:	96 95       	lsr	r25
    6460:	87 95       	ror	r24
    6462:	97 f9       	bld	r25, 7
    6464:	08 95       	ret
    6466:	5f 3f       	cpi	r21, 0xFF	; 255
    6468:	ac f0       	brlt	.+42     	; 0x6494 <ldexp+0x66>
    646a:	98 3e       	cpi	r25, 0xE8	; 232
    646c:	9c f0       	brlt	.+38     	; 0x6494 <ldexp+0x66>
    646e:	bb 27       	eor	r27, r27
    6470:	86 95       	lsr	r24
    6472:	77 95       	ror	r23
    6474:	67 95       	ror	r22
    6476:	b7 95       	ror	r27
    6478:	08 f4       	brcc	.+2      	; 0x647c <ldexp+0x4e>
    647a:	b1 60       	ori	r27, 0x01	; 1
    647c:	93 95       	inc	r25
    647e:	c1 f7       	brne	.-16     	; 0x6470 <ldexp+0x42>
    6480:	bb 0f       	add	r27, r27
    6482:	58 f7       	brcc	.-42     	; 0x645a <ldexp+0x2c>
    6484:	11 f4       	brne	.+4      	; 0x648a <ldexp+0x5c>
    6486:	60 ff       	sbrs	r22, 0
    6488:	e8 cf       	rjmp	.-48     	; 0x645a <ldexp+0x2c>
    648a:	6f 5f       	subi	r22, 0xFF	; 255
    648c:	7f 4f       	sbci	r23, 0xFF	; 255
    648e:	8f 4f       	sbci	r24, 0xFF	; 255
    6490:	9f 4f       	sbci	r25, 0xFF	; 255
    6492:	e3 cf       	rjmp	.-58     	; 0x645a <ldexp+0x2c>
    6494:	61 ce       	rjmp	.-830    	; 0x6158 <__fp_szero>

00006496 <modf>:
    6496:	fa 01       	movw	r30, r20
    6498:	dc 01       	movw	r26, r24
    649a:	aa 0f       	add	r26, r26
    649c:	bb 1f       	adc	r27, r27
    649e:	9b 01       	movw	r18, r22
    64a0:	ac 01       	movw	r20, r24
    64a2:	bf 57       	subi	r27, 0x7F	; 127
    64a4:	28 f4       	brcc	.+10     	; 0x64b0 <modf+0x1a>
    64a6:	22 27       	eor	r18, r18
    64a8:	33 27       	eor	r19, r19
    64aa:	44 27       	eor	r20, r20
    64ac:	50 78       	andi	r21, 0x80	; 128
    64ae:	1f c0       	rjmp	.+62     	; 0x64ee <modf+0x58>
    64b0:	b7 51       	subi	r27, 0x17	; 23
    64b2:	88 f4       	brcc	.+34     	; 0x64d6 <modf+0x40>
    64b4:	ab 2f       	mov	r26, r27
    64b6:	00 24       	eor	r0, r0
    64b8:	46 95       	lsr	r20
    64ba:	37 95       	ror	r19
    64bc:	27 95       	ror	r18
    64be:	01 1c       	adc	r0, r1
    64c0:	a3 95       	inc	r26
    64c2:	d2 f3       	brmi	.-12     	; 0x64b8 <modf+0x22>
    64c4:	00 20       	and	r0, r0
    64c6:	69 f0       	breq	.+26     	; 0x64e2 <modf+0x4c>
    64c8:	22 0f       	add	r18, r18
    64ca:	33 1f       	adc	r19, r19
    64cc:	44 1f       	adc	r20, r20
    64ce:	b3 95       	inc	r27
    64d0:	da f3       	brmi	.-10     	; 0x64c8 <modf+0x32>
    64d2:	0d d0       	rcall	.+26     	; 0x64ee <modf+0x58>
    64d4:	0b cc       	rjmp	.-2026   	; 0x5cec <__subsf3>
    64d6:	61 30       	cpi	r22, 0x01	; 1
    64d8:	71 05       	cpc	r23, r1
    64da:	a0 e8       	ldi	r26, 0x80	; 128
    64dc:	8a 07       	cpc	r24, r26
    64de:	b9 46       	sbci	r27, 0x69	; 105
    64e0:	30 f4       	brcc	.+12     	; 0x64ee <modf+0x58>
    64e2:	9b 01       	movw	r18, r22
    64e4:	ac 01       	movw	r20, r24
    64e6:	66 27       	eor	r22, r22
    64e8:	77 27       	eor	r23, r23
    64ea:	88 27       	eor	r24, r24
    64ec:	90 78       	andi	r25, 0x80	; 128
    64ee:	30 96       	adiw	r30, 0x00	; 0
    64f0:	21 f0       	breq	.+8      	; 0x64fa <modf+0x64>
    64f2:	20 83       	st	Z, r18
    64f4:	31 83       	std	Z+1, r19	; 0x01
    64f6:	42 83       	std	Z+2, r20	; 0x02
    64f8:	53 83       	std	Z+3, r21	; 0x03
    64fa:	08 95       	ret

000064fc <__mulsi3>:
    64fc:	db 01       	movw	r26, r22
    64fe:	8f 93       	push	r24
    6500:	9f 93       	push	r25
    6502:	88 d0       	rcall	.+272    	; 0x6614 <__muluhisi3>
    6504:	bf 91       	pop	r27
    6506:	af 91       	pop	r26
    6508:	a2 9f       	mul	r26, r18
    650a:	80 0d       	add	r24, r0
    650c:	91 1d       	adc	r25, r1
    650e:	a3 9f       	mul	r26, r19
    6510:	90 0d       	add	r25, r0
    6512:	b2 9f       	mul	r27, r18
    6514:	90 0d       	add	r25, r0
    6516:	11 24       	eor	r1, r1
    6518:	08 95       	ret

0000651a <__udivmodhi4>:
    651a:	aa 1b       	sub	r26, r26
    651c:	bb 1b       	sub	r27, r27
    651e:	51 e1       	ldi	r21, 0x11	; 17
    6520:	07 c0       	rjmp	.+14     	; 0x6530 <__udivmodhi4_ep>

00006522 <__udivmodhi4_loop>:
    6522:	aa 1f       	adc	r26, r26
    6524:	bb 1f       	adc	r27, r27
    6526:	a6 17       	cp	r26, r22
    6528:	b7 07       	cpc	r27, r23
    652a:	10 f0       	brcs	.+4      	; 0x6530 <__udivmodhi4_ep>
    652c:	a6 1b       	sub	r26, r22
    652e:	b7 0b       	sbc	r27, r23

00006530 <__udivmodhi4_ep>:
    6530:	88 1f       	adc	r24, r24
    6532:	99 1f       	adc	r25, r25
    6534:	5a 95       	dec	r21
    6536:	a9 f7       	brne	.-22     	; 0x6522 <__udivmodhi4_loop>
    6538:	80 95       	com	r24
    653a:	90 95       	com	r25
    653c:	bc 01       	movw	r22, r24
    653e:	cd 01       	movw	r24, r26
    6540:	08 95       	ret

00006542 <__divmodhi4>:
    6542:	97 fb       	bst	r25, 7
    6544:	07 2e       	mov	r0, r23
    6546:	16 f4       	brtc	.+4      	; 0x654c <__divmodhi4+0xa>
    6548:	00 94       	com	r0
    654a:	06 d0       	rcall	.+12     	; 0x6558 <__divmodhi4_neg1>
    654c:	77 fd       	sbrc	r23, 7
    654e:	08 d0       	rcall	.+16     	; 0x6560 <__divmodhi4_neg2>
    6550:	e4 df       	rcall	.-56     	; 0x651a <__udivmodhi4>
    6552:	07 fc       	sbrc	r0, 7
    6554:	05 d0       	rcall	.+10     	; 0x6560 <__divmodhi4_neg2>
    6556:	3e f4       	brtc	.+14     	; 0x6566 <__divmodhi4_exit>

00006558 <__divmodhi4_neg1>:
    6558:	90 95       	com	r25
    655a:	81 95       	neg	r24
    655c:	9f 4f       	sbci	r25, 0xFF	; 255
    655e:	08 95       	ret

00006560 <__divmodhi4_neg2>:
    6560:	70 95       	com	r23
    6562:	61 95       	neg	r22
    6564:	7f 4f       	sbci	r23, 0xFF	; 255

00006566 <__divmodhi4_exit>:
    6566:	08 95       	ret

00006568 <__udivmodsi4>:
    6568:	a1 e2       	ldi	r26, 0x21	; 33
    656a:	1a 2e       	mov	r1, r26
    656c:	aa 1b       	sub	r26, r26
    656e:	bb 1b       	sub	r27, r27
    6570:	fd 01       	movw	r30, r26
    6572:	0d c0       	rjmp	.+26     	; 0x658e <__udivmodsi4_ep>

00006574 <__udivmodsi4_loop>:
    6574:	aa 1f       	adc	r26, r26
    6576:	bb 1f       	adc	r27, r27
    6578:	ee 1f       	adc	r30, r30
    657a:	ff 1f       	adc	r31, r31
    657c:	a2 17       	cp	r26, r18
    657e:	b3 07       	cpc	r27, r19
    6580:	e4 07       	cpc	r30, r20
    6582:	f5 07       	cpc	r31, r21
    6584:	20 f0       	brcs	.+8      	; 0x658e <__udivmodsi4_ep>
    6586:	a2 1b       	sub	r26, r18
    6588:	b3 0b       	sbc	r27, r19
    658a:	e4 0b       	sbc	r30, r20
    658c:	f5 0b       	sbc	r31, r21

0000658e <__udivmodsi4_ep>:
    658e:	66 1f       	adc	r22, r22
    6590:	77 1f       	adc	r23, r23
    6592:	88 1f       	adc	r24, r24
    6594:	99 1f       	adc	r25, r25
    6596:	1a 94       	dec	r1
    6598:	69 f7       	brne	.-38     	; 0x6574 <__udivmodsi4_loop>
    659a:	60 95       	com	r22
    659c:	70 95       	com	r23
    659e:	80 95       	com	r24
    65a0:	90 95       	com	r25
    65a2:	9b 01       	movw	r18, r22
    65a4:	ac 01       	movw	r20, r24
    65a6:	bd 01       	movw	r22, r26
    65a8:	cf 01       	movw	r24, r30
    65aa:	08 95       	ret

000065ac <__divmodsi4>:
    65ac:	05 2e       	mov	r0, r21
    65ae:	97 fb       	bst	r25, 7
    65b0:	16 f4       	brtc	.+4      	; 0x65b6 <__divmodsi4+0xa>
    65b2:	00 94       	com	r0
    65b4:	0f d0       	rcall	.+30     	; 0x65d4 <__negsi2>
    65b6:	57 fd       	sbrc	r21, 7
    65b8:	05 d0       	rcall	.+10     	; 0x65c4 <__divmodsi4_neg2>
    65ba:	d6 df       	rcall	.-84     	; 0x6568 <__udivmodsi4>
    65bc:	07 fc       	sbrc	r0, 7
    65be:	02 d0       	rcall	.+4      	; 0x65c4 <__divmodsi4_neg2>
    65c0:	46 f4       	brtc	.+16     	; 0x65d2 <__divmodsi4_exit>
    65c2:	08 c0       	rjmp	.+16     	; 0x65d4 <__negsi2>

000065c4 <__divmodsi4_neg2>:
    65c4:	50 95       	com	r21
    65c6:	40 95       	com	r20
    65c8:	30 95       	com	r19
    65ca:	21 95       	neg	r18
    65cc:	3f 4f       	sbci	r19, 0xFF	; 255
    65ce:	4f 4f       	sbci	r20, 0xFF	; 255
    65d0:	5f 4f       	sbci	r21, 0xFF	; 255

000065d2 <__divmodsi4_exit>:
    65d2:	08 95       	ret

000065d4 <__negsi2>:
    65d4:	90 95       	com	r25
    65d6:	80 95       	com	r24
    65d8:	70 95       	com	r23
    65da:	61 95       	neg	r22
    65dc:	7f 4f       	sbci	r23, 0xFF	; 255
    65de:	8f 4f       	sbci	r24, 0xFF	; 255
    65e0:	9f 4f       	sbci	r25, 0xFF	; 255
    65e2:	08 95       	ret

000065e4 <__tablejump2__>:
    65e4:	ee 0f       	add	r30, r30
    65e6:	ff 1f       	adc	r31, r31
    65e8:	88 1f       	adc	r24, r24
    65ea:	8b bf       	out	0x3b, r24	; 59
    65ec:	07 90       	elpm	r0, Z+
    65ee:	f6 91       	elpm	r31, Z
    65f0:	e0 2d       	mov	r30, r0
    65f2:	1b be       	out	0x3b, r1	; 59
    65f4:	19 94       	eijmp

000065f6 <__umulhisi3>:
    65f6:	a2 9f       	mul	r26, r18
    65f8:	b0 01       	movw	r22, r0
    65fa:	b3 9f       	mul	r27, r19
    65fc:	c0 01       	movw	r24, r0
    65fe:	a3 9f       	mul	r26, r19
    6600:	70 0d       	add	r23, r0
    6602:	81 1d       	adc	r24, r1
    6604:	11 24       	eor	r1, r1
    6606:	91 1d       	adc	r25, r1
    6608:	b2 9f       	mul	r27, r18
    660a:	70 0d       	add	r23, r0
    660c:	81 1d       	adc	r24, r1
    660e:	11 24       	eor	r1, r1
    6610:	91 1d       	adc	r25, r1
    6612:	08 95       	ret

00006614 <__muluhisi3>:
    6614:	f0 df       	rcall	.-32     	; 0x65f6 <__umulhisi3>
    6616:	a5 9f       	mul	r26, r21
    6618:	90 0d       	add	r25, r0
    661a:	b4 9f       	mul	r27, r20
    661c:	90 0d       	add	r25, r0
    661e:	a4 9f       	mul	r26, r20
    6620:	80 0d       	add	r24, r0
    6622:	91 1d       	adc	r25, r1
    6624:	11 24       	eor	r1, r1
    6626:	08 95       	ret

00006628 <__muldi3>:
    6628:	df 93       	push	r29
    662a:	cf 93       	push	r28
    662c:	1f 93       	push	r17
    662e:	0f 93       	push	r16
    6630:	9a 9d       	mul	r25, r10
    6632:	f0 2d       	mov	r31, r0
    6634:	21 9f       	mul	r18, r17
    6636:	f0 0d       	add	r31, r0
    6638:	8b 9d       	mul	r24, r11
    663a:	f0 0d       	add	r31, r0
    663c:	8a 9d       	mul	r24, r10
    663e:	e0 2d       	mov	r30, r0
    6640:	f1 0d       	add	r31, r1
    6642:	03 9f       	mul	r16, r19
    6644:	f0 0d       	add	r31, r0
    6646:	02 9f       	mul	r16, r18
    6648:	e0 0d       	add	r30, r0
    664a:	f1 1d       	adc	r31, r1
    664c:	4e 9d       	mul	r20, r14
    664e:	e0 0d       	add	r30, r0
    6650:	f1 1d       	adc	r31, r1
    6652:	5e 9d       	mul	r21, r14
    6654:	f0 0d       	add	r31, r0
    6656:	4f 9d       	mul	r20, r15
    6658:	f0 0d       	add	r31, r0
    665a:	7f 93       	push	r23
    665c:	6f 93       	push	r22
    665e:	bf 92       	push	r11
    6660:	af 92       	push	r10
    6662:	5f 93       	push	r21
    6664:	4f 93       	push	r20
    6666:	d5 01       	movw	r26, r10
    6668:	c6 df       	rcall	.-116    	; 0x65f6 <__umulhisi3>
    666a:	8b 01       	movw	r16, r22
    666c:	ac 01       	movw	r20, r24
    666e:	d7 01       	movw	r26, r14
    6670:	c2 df       	rcall	.-124    	; 0x65f6 <__umulhisi3>
    6672:	eb 01       	movw	r28, r22
    6674:	e8 0f       	add	r30, r24
    6676:	f9 1f       	adc	r31, r25
    6678:	d6 01       	movw	r26, r12
    667a:	1f d0       	rcall	.+62     	; 0x66ba <__muldi3_6>
    667c:	2f 91       	pop	r18
    667e:	3f 91       	pop	r19
    6680:	d6 01       	movw	r26, r12
    6682:	b9 df       	rcall	.-142    	; 0x65f6 <__umulhisi3>
    6684:	c6 0f       	add	r28, r22
    6686:	d7 1f       	adc	r29, r23
    6688:	e8 1f       	adc	r30, r24
    668a:	f9 1f       	adc	r31, r25
    668c:	af 91       	pop	r26
    668e:	bf 91       	pop	r27
    6690:	14 d0       	rcall	.+40     	; 0x66ba <__muldi3_6>
    6692:	2f 91       	pop	r18
    6694:	3f 91       	pop	r19
    6696:	af df       	rcall	.-162    	; 0x65f6 <__umulhisi3>
    6698:	c6 0f       	add	r28, r22
    669a:	d7 1f       	adc	r29, r23
    669c:	e8 1f       	adc	r30, r24
    669e:	f9 1f       	adc	r31, r25
    66a0:	d6 01       	movw	r26, r12
    66a2:	a9 df       	rcall	.-174    	; 0x65f6 <__umulhisi3>
    66a4:	e6 0f       	add	r30, r22
    66a6:	f7 1f       	adc	r31, r23
    66a8:	98 01       	movw	r18, r16
    66aa:	be 01       	movw	r22, r28
    66ac:	cf 01       	movw	r24, r30
    66ae:	11 24       	eor	r1, r1
    66b0:	0f 91       	pop	r16
    66b2:	1f 91       	pop	r17
    66b4:	cf 91       	pop	r28
    66b6:	df 91       	pop	r29
    66b8:	08 95       	ret

000066ba <__muldi3_6>:
    66ba:	9d df       	rcall	.-198    	; 0x65f6 <__umulhisi3>
    66bc:	46 0f       	add	r20, r22
    66be:	57 1f       	adc	r21, r23
    66c0:	c8 1f       	adc	r28, r24
    66c2:	d9 1f       	adc	r29, r25
    66c4:	08 f4       	brcc	.+2      	; 0x66c8 <__muldi3_6+0xe>
    66c6:	31 96       	adiw	r30, 0x01	; 1
    66c8:	08 95       	ret

000066ca <__umoddi3>:
    66ca:	68 94       	set
    66cc:	01 c0       	rjmp	.+2      	; 0x66d0 <__udivdi3_umoddi3>

000066ce <__udivdi3>:
    66ce:	e8 94       	clt

000066d0 <__udivdi3_umoddi3>:
    66d0:	8f 92       	push	r8
    66d2:	9f 92       	push	r9
    66d4:	cf 93       	push	r28
    66d6:	df 93       	push	r29
    66d8:	05 d0       	rcall	.+10     	; 0x66e4 <__udivmod64>
    66da:	df 91       	pop	r29
    66dc:	cf 91       	pop	r28
    66de:	9f 90       	pop	r9
    66e0:	8f 90       	pop	r8
    66e2:	08 95       	ret

000066e4 <__udivmod64>:
    66e4:	88 24       	eor	r8, r8
    66e6:	99 24       	eor	r9, r9
    66e8:	f4 01       	movw	r30, r8
    66ea:	e4 01       	movw	r28, r8
    66ec:	b0 e4       	ldi	r27, 0x40	; 64
    66ee:	9f 93       	push	r25
    66f0:	aa 27       	eor	r26, r26
    66f2:	9a 15       	cp	r25, r10
    66f4:	8b 04       	cpc	r8, r11
    66f6:	9c 04       	cpc	r9, r12
    66f8:	ed 05       	cpc	r30, r13
    66fa:	fe 05       	cpc	r31, r14
    66fc:	cf 05       	cpc	r28, r15
    66fe:	d0 07       	cpc	r29, r16
    6700:	a1 07       	cpc	r26, r17
    6702:	98 f4       	brcc	.+38     	; 0x672a <__udivmod64+0x46>
    6704:	ad 2f       	mov	r26, r29
    6706:	dc 2f       	mov	r29, r28
    6708:	cf 2f       	mov	r28, r31
    670a:	fe 2f       	mov	r31, r30
    670c:	e9 2d       	mov	r30, r9
    670e:	98 2c       	mov	r9, r8
    6710:	89 2e       	mov	r8, r25
    6712:	98 2f       	mov	r25, r24
    6714:	87 2f       	mov	r24, r23
    6716:	76 2f       	mov	r23, r22
    6718:	65 2f       	mov	r22, r21
    671a:	54 2f       	mov	r21, r20
    671c:	43 2f       	mov	r20, r19
    671e:	32 2f       	mov	r19, r18
    6720:	22 27       	eor	r18, r18
    6722:	b8 50       	subi	r27, 0x08	; 8
    6724:	31 f7       	brne	.-52     	; 0x66f2 <__udivmod64+0xe>
    6726:	bf 91       	pop	r27
    6728:	27 c0       	rjmp	.+78     	; 0x6778 <__udivmod64+0x94>
    672a:	1b 2e       	mov	r1, r27
    672c:	bf 91       	pop	r27
    672e:	bb 27       	eor	r27, r27
    6730:	22 0f       	add	r18, r18
    6732:	33 1f       	adc	r19, r19
    6734:	44 1f       	adc	r20, r20
    6736:	55 1f       	adc	r21, r21
    6738:	66 1f       	adc	r22, r22
    673a:	77 1f       	adc	r23, r23
    673c:	88 1f       	adc	r24, r24
    673e:	99 1f       	adc	r25, r25
    6740:	88 1c       	adc	r8, r8
    6742:	99 1c       	adc	r9, r9
    6744:	ee 1f       	adc	r30, r30
    6746:	ff 1f       	adc	r31, r31
    6748:	cc 1f       	adc	r28, r28
    674a:	dd 1f       	adc	r29, r29
    674c:	aa 1f       	adc	r26, r26
    674e:	bb 1f       	adc	r27, r27
    6750:	8a 14       	cp	r8, r10
    6752:	9b 04       	cpc	r9, r11
    6754:	ec 05       	cpc	r30, r12
    6756:	fd 05       	cpc	r31, r13
    6758:	ce 05       	cpc	r28, r14
    675a:	df 05       	cpc	r29, r15
    675c:	a0 07       	cpc	r26, r16
    675e:	b1 07       	cpc	r27, r17
    6760:	48 f0       	brcs	.+18     	; 0x6774 <__udivmod64+0x90>
    6762:	8a 18       	sub	r8, r10
    6764:	9b 08       	sbc	r9, r11
    6766:	ec 09       	sbc	r30, r12
    6768:	fd 09       	sbc	r31, r13
    676a:	ce 09       	sbc	r28, r14
    676c:	df 09       	sbc	r29, r15
    676e:	a0 0b       	sbc	r26, r16
    6770:	b1 0b       	sbc	r27, r17
    6772:	21 60       	ori	r18, 0x01	; 1
    6774:	1a 94       	dec	r1
    6776:	e1 f6       	brne	.-72     	; 0x6730 <__udivmod64+0x4c>
    6778:	2e f4       	brtc	.+10     	; 0x6784 <__udivmod64+0xa0>
    677a:	94 01       	movw	r18, r8
    677c:	af 01       	movw	r20, r30
    677e:	be 01       	movw	r22, r28
    6780:	cd 01       	movw	r24, r26
    6782:	00 0c       	add	r0, r0
    6784:	08 95       	ret

00006786 <__ashldi3>:
    6786:	0f 93       	push	r16
    6788:	08 30       	cpi	r16, 0x08	; 8
    678a:	90 f0       	brcs	.+36     	; 0x67b0 <__ashldi3+0x2a>
    678c:	98 2f       	mov	r25, r24
    678e:	87 2f       	mov	r24, r23
    6790:	76 2f       	mov	r23, r22
    6792:	65 2f       	mov	r22, r21
    6794:	54 2f       	mov	r21, r20
    6796:	43 2f       	mov	r20, r19
    6798:	32 2f       	mov	r19, r18
    679a:	22 27       	eor	r18, r18
    679c:	08 50       	subi	r16, 0x08	; 8
    679e:	f4 cf       	rjmp	.-24     	; 0x6788 <__ashldi3+0x2>
    67a0:	22 0f       	add	r18, r18
    67a2:	33 1f       	adc	r19, r19
    67a4:	44 1f       	adc	r20, r20
    67a6:	55 1f       	adc	r21, r21
    67a8:	66 1f       	adc	r22, r22
    67aa:	77 1f       	adc	r23, r23
    67ac:	88 1f       	adc	r24, r24
    67ae:	99 1f       	adc	r25, r25
    67b0:	0a 95       	dec	r16
    67b2:	b2 f7       	brpl	.-20     	; 0x67a0 <__ashldi3+0x1a>
    67b4:	0f 91       	pop	r16
    67b6:	08 95       	ret

000067b8 <__ashrdi3>:
    67b8:	97 fb       	bst	r25, 7
    67ba:	10 f8       	bld	r1, 0

000067bc <__lshrdi3>:
    67bc:	16 94       	lsr	r1
    67be:	00 08       	sbc	r0, r0
    67c0:	0f 93       	push	r16
    67c2:	08 30       	cpi	r16, 0x08	; 8
    67c4:	98 f0       	brcs	.+38     	; 0x67ec <__lshrdi3+0x30>
    67c6:	08 50       	subi	r16, 0x08	; 8
    67c8:	23 2f       	mov	r18, r19
    67ca:	34 2f       	mov	r19, r20
    67cc:	45 2f       	mov	r20, r21
    67ce:	56 2f       	mov	r21, r22
    67d0:	67 2f       	mov	r22, r23
    67d2:	78 2f       	mov	r23, r24
    67d4:	89 2f       	mov	r24, r25
    67d6:	90 2d       	mov	r25, r0
    67d8:	f4 cf       	rjmp	.-24     	; 0x67c2 <__lshrdi3+0x6>
    67da:	05 94       	asr	r0
    67dc:	97 95       	ror	r25
    67de:	87 95       	ror	r24
    67e0:	77 95       	ror	r23
    67e2:	67 95       	ror	r22
    67e4:	57 95       	ror	r21
    67e6:	47 95       	ror	r20
    67e8:	37 95       	ror	r19
    67ea:	27 95       	ror	r18
    67ec:	0a 95       	dec	r16
    67ee:	aa f7       	brpl	.-22     	; 0x67da <__lshrdi3+0x1e>
    67f0:	0f 91       	pop	r16
    67f2:	08 95       	ret

000067f4 <memcpy>:
    67f4:	fb 01       	movw	r30, r22
    67f6:	dc 01       	movw	r26, r24
    67f8:	02 c0       	rjmp	.+4      	; 0x67fe <memcpy+0xa>
    67fa:	01 90       	ld	r0, Z+
    67fc:	0d 92       	st	X+, r0
    67fe:	41 50       	subi	r20, 0x01	; 1
    6800:	50 40       	sbci	r21, 0x00	; 0
    6802:	d8 f7       	brcc	.-10     	; 0x67fa <memcpy+0x6>
    6804:	08 95       	ret

00006806 <fdevopen>:
    6806:	0f 93       	push	r16
    6808:	1f 93       	push	r17
    680a:	cf 93       	push	r28
    680c:	df 93       	push	r29
    680e:	00 97       	sbiw	r24, 0x00	; 0
    6810:	31 f4       	brne	.+12     	; 0x681e <fdevopen+0x18>
    6812:	61 15       	cp	r22, r1
    6814:	71 05       	cpc	r23, r1
    6816:	19 f4       	brne	.+6      	; 0x681e <fdevopen+0x18>
    6818:	80 e0       	ldi	r24, 0x00	; 0
    681a:	90 e0       	ldi	r25, 0x00	; 0
    681c:	39 c0       	rjmp	.+114    	; 0x6890 <fdevopen+0x8a>
    681e:	8b 01       	movw	r16, r22
    6820:	ec 01       	movw	r28, r24
    6822:	6e e0       	ldi	r22, 0x0E	; 14
    6824:	70 e0       	ldi	r23, 0x00	; 0
    6826:	81 e0       	ldi	r24, 0x01	; 1
    6828:	90 e0       	ldi	r25, 0x00	; 0
    682a:	47 d5       	rcall	.+2702   	; 0x72ba <calloc>
    682c:	fc 01       	movw	r30, r24
    682e:	89 2b       	or	r24, r25
    6830:	99 f3       	breq	.-26     	; 0x6818 <fdevopen+0x12>
    6832:	80 e8       	ldi	r24, 0x80	; 128
    6834:	83 83       	std	Z+3, r24	; 0x03
    6836:	01 15       	cp	r16, r1
    6838:	11 05       	cpc	r17, r1
    683a:	71 f0       	breq	.+28     	; 0x6858 <fdevopen+0x52>
    683c:	02 87       	std	Z+10, r16	; 0x0a
    683e:	13 87       	std	Z+11, r17	; 0x0b
    6840:	81 e8       	ldi	r24, 0x81	; 129
    6842:	83 83       	std	Z+3, r24	; 0x03
    6844:	80 91 f4 22 	lds	r24, 0x22F4	; 0x8022f4 <__iob>
    6848:	90 91 f5 22 	lds	r25, 0x22F5	; 0x8022f5 <__iob+0x1>
    684c:	89 2b       	or	r24, r25
    684e:	21 f4       	brne	.+8      	; 0x6858 <fdevopen+0x52>
    6850:	e0 93 f4 22 	sts	0x22F4, r30	; 0x8022f4 <__iob>
    6854:	f0 93 f5 22 	sts	0x22F5, r31	; 0x8022f5 <__iob+0x1>
    6858:	20 97       	sbiw	r28, 0x00	; 0
    685a:	c9 f0       	breq	.+50     	; 0x688e <fdevopen+0x88>
    685c:	c0 87       	std	Z+8, r28	; 0x08
    685e:	d1 87       	std	Z+9, r29	; 0x09
    6860:	83 81       	ldd	r24, Z+3	; 0x03
    6862:	82 60       	ori	r24, 0x02	; 2
    6864:	83 83       	std	Z+3, r24	; 0x03
    6866:	80 91 f6 22 	lds	r24, 0x22F6	; 0x8022f6 <__iob+0x2>
    686a:	90 91 f7 22 	lds	r25, 0x22F7	; 0x8022f7 <__iob+0x3>
    686e:	89 2b       	or	r24, r25
    6870:	71 f4       	brne	.+28     	; 0x688e <fdevopen+0x88>
    6872:	e0 93 f6 22 	sts	0x22F6, r30	; 0x8022f6 <__iob+0x2>
    6876:	f0 93 f7 22 	sts	0x22F7, r31	; 0x8022f7 <__iob+0x3>
    687a:	80 91 f8 22 	lds	r24, 0x22F8	; 0x8022f8 <__iob+0x4>
    687e:	90 91 f9 22 	lds	r25, 0x22F9	; 0x8022f9 <__iob+0x5>
    6882:	89 2b       	or	r24, r25
    6884:	21 f4       	brne	.+8      	; 0x688e <fdevopen+0x88>
    6886:	e0 93 f8 22 	sts	0x22F8, r30	; 0x8022f8 <__iob+0x4>
    688a:	f0 93 f9 22 	sts	0x22F9, r31	; 0x8022f9 <__iob+0x5>
    688e:	cf 01       	movw	r24, r30
    6890:	df 91       	pop	r29
    6892:	cf 91       	pop	r28
    6894:	1f 91       	pop	r17
    6896:	0f 91       	pop	r16
    6898:	08 95       	ret

0000689a <printf>:
    689a:	cf 93       	push	r28
    689c:	df 93       	push	r29
    689e:	cd b7       	in	r28, 0x3d	; 61
    68a0:	de b7       	in	r29, 0x3e	; 62
    68a2:	ae 01       	movw	r20, r28
    68a4:	4a 5f       	subi	r20, 0xFA	; 250
    68a6:	5f 4f       	sbci	r21, 0xFF	; 255
    68a8:	fa 01       	movw	r30, r20
    68aa:	61 91       	ld	r22, Z+
    68ac:	71 91       	ld	r23, Z+
    68ae:	af 01       	movw	r20, r30
    68b0:	80 91 f6 22 	lds	r24, 0x22F6	; 0x8022f6 <__iob+0x2>
    68b4:	90 91 f7 22 	lds	r25, 0x22F7	; 0x8022f7 <__iob+0x3>
    68b8:	46 d0       	rcall	.+140    	; 0x6946 <vfprintf>
    68ba:	df 91       	pop	r29
    68bc:	cf 91       	pop	r28
    68be:	08 95       	ret

000068c0 <sprintf>:
    68c0:	0f 93       	push	r16
    68c2:	1f 93       	push	r17
    68c4:	cf 93       	push	r28
    68c6:	df 93       	push	r29
    68c8:	cd b7       	in	r28, 0x3d	; 61
    68ca:	de b7       	in	r29, 0x3e	; 62
    68cc:	2e 97       	sbiw	r28, 0x0e	; 14
    68ce:	cd bf       	out	0x3d, r28	; 61
    68d0:	de bf       	out	0x3e, r29	; 62
    68d2:	0e 89       	ldd	r16, Y+22	; 0x16
    68d4:	1f 89       	ldd	r17, Y+23	; 0x17
    68d6:	86 e0       	ldi	r24, 0x06	; 6
    68d8:	8c 83       	std	Y+4, r24	; 0x04
    68da:	09 83       	std	Y+1, r16	; 0x01
    68dc:	1a 83       	std	Y+2, r17	; 0x02
    68de:	8f ef       	ldi	r24, 0xFF	; 255
    68e0:	9f e7       	ldi	r25, 0x7F	; 127
    68e2:	8d 83       	std	Y+5, r24	; 0x05
    68e4:	9e 83       	std	Y+6, r25	; 0x06
    68e6:	ae 01       	movw	r20, r28
    68e8:	46 5e       	subi	r20, 0xE6	; 230
    68ea:	5f 4f       	sbci	r21, 0xFF	; 255
    68ec:	68 8d       	ldd	r22, Y+24	; 0x18
    68ee:	79 8d       	ldd	r23, Y+25	; 0x19
    68f0:	ce 01       	movw	r24, r28
    68f2:	01 96       	adiw	r24, 0x01	; 1
    68f4:	28 d0       	rcall	.+80     	; 0x6946 <vfprintf>
    68f6:	ef 81       	ldd	r30, Y+7	; 0x07
    68f8:	f8 85       	ldd	r31, Y+8	; 0x08
    68fa:	e0 0f       	add	r30, r16
    68fc:	f1 1f       	adc	r31, r17
    68fe:	10 82       	st	Z, r1
    6900:	2e 96       	adiw	r28, 0x0e	; 14
    6902:	cd bf       	out	0x3d, r28	; 61
    6904:	de bf       	out	0x3e, r29	; 62
    6906:	df 91       	pop	r29
    6908:	cf 91       	pop	r28
    690a:	1f 91       	pop	r17
    690c:	0f 91       	pop	r16
    690e:	08 95       	ret

00006910 <sscanf>:
    6910:	cf 93       	push	r28
    6912:	df 93       	push	r29
    6914:	cd b7       	in	r28, 0x3d	; 61
    6916:	de b7       	in	r29, 0x3e	; 62
    6918:	2e 97       	sbiw	r28, 0x0e	; 14
    691a:	cd bf       	out	0x3d, r28	; 61
    691c:	de bf       	out	0x3e, r29	; 62
    691e:	85 e0       	ldi	r24, 0x05	; 5
    6920:	8c 83       	std	Y+4, r24	; 0x04
    6922:	8c 89       	ldd	r24, Y+20	; 0x14
    6924:	9d 89       	ldd	r25, Y+21	; 0x15
    6926:	89 83       	std	Y+1, r24	; 0x01
    6928:	9a 83       	std	Y+2, r25	; 0x02
    692a:	ae 01       	movw	r20, r28
    692c:	48 5e       	subi	r20, 0xE8	; 232
    692e:	5f 4f       	sbci	r21, 0xFF	; 255
    6930:	6e 89       	ldd	r22, Y+22	; 0x16
    6932:	7f 89       	ldd	r23, Y+23	; 0x17
    6934:	ce 01       	movw	r24, r28
    6936:	01 96       	adiw	r24, 0x01	; 1
    6938:	a9 d3       	rcall	.+1874   	; 0x708c <vfscanf>
    693a:	2e 96       	adiw	r28, 0x0e	; 14
    693c:	cd bf       	out	0x3d, r28	; 61
    693e:	de bf       	out	0x3e, r29	; 62
    6940:	df 91       	pop	r29
    6942:	cf 91       	pop	r28
    6944:	08 95       	ret

00006946 <vfprintf>:
    6946:	2f 92       	push	r2
    6948:	3f 92       	push	r3
    694a:	4f 92       	push	r4
    694c:	5f 92       	push	r5
    694e:	6f 92       	push	r6
    6950:	7f 92       	push	r7
    6952:	8f 92       	push	r8
    6954:	9f 92       	push	r9
    6956:	af 92       	push	r10
    6958:	bf 92       	push	r11
    695a:	cf 92       	push	r12
    695c:	df 92       	push	r13
    695e:	ef 92       	push	r14
    6960:	ff 92       	push	r15
    6962:	0f 93       	push	r16
    6964:	1f 93       	push	r17
    6966:	cf 93       	push	r28
    6968:	df 93       	push	r29
    696a:	cd b7       	in	r28, 0x3d	; 61
    696c:	de b7       	in	r29, 0x3e	; 62
    696e:	2b 97       	sbiw	r28, 0x0b	; 11
    6970:	cd bf       	out	0x3d, r28	; 61
    6972:	de bf       	out	0x3e, r29	; 62
    6974:	6c 01       	movw	r12, r24
    6976:	7b 01       	movw	r14, r22
    6978:	8a 01       	movw	r16, r20
    697a:	fc 01       	movw	r30, r24
    697c:	16 82       	std	Z+6, r1	; 0x06
    697e:	17 82       	std	Z+7, r1	; 0x07
    6980:	83 81       	ldd	r24, Z+3	; 0x03
    6982:	81 ff       	sbrs	r24, 1
    6984:	bf c1       	rjmp	.+894    	; 0x6d04 <vfprintf+0x3be>
    6986:	ce 01       	movw	r24, r28
    6988:	01 96       	adiw	r24, 0x01	; 1
    698a:	3c 01       	movw	r6, r24
    698c:	f6 01       	movw	r30, r12
    698e:	93 81       	ldd	r25, Z+3	; 0x03
    6990:	f7 01       	movw	r30, r14
    6992:	93 fd       	sbrc	r25, 3
    6994:	85 91       	lpm	r24, Z+
    6996:	93 ff       	sbrs	r25, 3
    6998:	81 91       	ld	r24, Z+
    699a:	7f 01       	movw	r14, r30
    699c:	88 23       	and	r24, r24
    699e:	09 f4       	brne	.+2      	; 0x69a2 <vfprintf+0x5c>
    69a0:	ad c1       	rjmp	.+858    	; 0x6cfc <vfprintf+0x3b6>
    69a2:	85 32       	cpi	r24, 0x25	; 37
    69a4:	39 f4       	brne	.+14     	; 0x69b4 <vfprintf+0x6e>
    69a6:	93 fd       	sbrc	r25, 3
    69a8:	85 91       	lpm	r24, Z+
    69aa:	93 ff       	sbrs	r25, 3
    69ac:	81 91       	ld	r24, Z+
    69ae:	7f 01       	movw	r14, r30
    69b0:	85 32       	cpi	r24, 0x25	; 37
    69b2:	21 f4       	brne	.+8      	; 0x69bc <vfprintf+0x76>
    69b4:	b6 01       	movw	r22, r12
    69b6:	90 e0       	ldi	r25, 0x00	; 0
    69b8:	29 d6       	rcall	.+3154   	; 0x760c <fputc>
    69ba:	e8 cf       	rjmp	.-48     	; 0x698c <vfprintf+0x46>
    69bc:	91 2c       	mov	r9, r1
    69be:	21 2c       	mov	r2, r1
    69c0:	31 2c       	mov	r3, r1
    69c2:	ff e1       	ldi	r31, 0x1F	; 31
    69c4:	f3 15       	cp	r31, r3
    69c6:	d8 f0       	brcs	.+54     	; 0x69fe <vfprintf+0xb8>
    69c8:	8b 32       	cpi	r24, 0x2B	; 43
    69ca:	79 f0       	breq	.+30     	; 0x69ea <vfprintf+0xa4>
    69cc:	38 f4       	brcc	.+14     	; 0x69dc <vfprintf+0x96>
    69ce:	80 32       	cpi	r24, 0x20	; 32
    69d0:	79 f0       	breq	.+30     	; 0x69f0 <vfprintf+0xaa>
    69d2:	83 32       	cpi	r24, 0x23	; 35
    69d4:	a1 f4       	brne	.+40     	; 0x69fe <vfprintf+0xb8>
    69d6:	23 2d       	mov	r18, r3
    69d8:	20 61       	ori	r18, 0x10	; 16
    69da:	1d c0       	rjmp	.+58     	; 0x6a16 <vfprintf+0xd0>
    69dc:	8d 32       	cpi	r24, 0x2D	; 45
    69de:	61 f0       	breq	.+24     	; 0x69f8 <vfprintf+0xb2>
    69e0:	80 33       	cpi	r24, 0x30	; 48
    69e2:	69 f4       	brne	.+26     	; 0x69fe <vfprintf+0xb8>
    69e4:	23 2d       	mov	r18, r3
    69e6:	21 60       	ori	r18, 0x01	; 1
    69e8:	16 c0       	rjmp	.+44     	; 0x6a16 <vfprintf+0xd0>
    69ea:	83 2d       	mov	r24, r3
    69ec:	82 60       	ori	r24, 0x02	; 2
    69ee:	38 2e       	mov	r3, r24
    69f0:	e3 2d       	mov	r30, r3
    69f2:	e4 60       	ori	r30, 0x04	; 4
    69f4:	3e 2e       	mov	r3, r30
    69f6:	2a c0       	rjmp	.+84     	; 0x6a4c <vfprintf+0x106>
    69f8:	f3 2d       	mov	r31, r3
    69fa:	f8 60       	ori	r31, 0x08	; 8
    69fc:	1d c0       	rjmp	.+58     	; 0x6a38 <vfprintf+0xf2>
    69fe:	37 fc       	sbrc	r3, 7
    6a00:	2d c0       	rjmp	.+90     	; 0x6a5c <vfprintf+0x116>
    6a02:	20 ed       	ldi	r18, 0xD0	; 208
    6a04:	28 0f       	add	r18, r24
    6a06:	2a 30       	cpi	r18, 0x0A	; 10
    6a08:	40 f0       	brcs	.+16     	; 0x6a1a <vfprintf+0xd4>
    6a0a:	8e 32       	cpi	r24, 0x2E	; 46
    6a0c:	b9 f4       	brne	.+46     	; 0x6a3c <vfprintf+0xf6>
    6a0e:	36 fc       	sbrc	r3, 6
    6a10:	75 c1       	rjmp	.+746    	; 0x6cfc <vfprintf+0x3b6>
    6a12:	23 2d       	mov	r18, r3
    6a14:	20 64       	ori	r18, 0x40	; 64
    6a16:	32 2e       	mov	r3, r18
    6a18:	19 c0       	rjmp	.+50     	; 0x6a4c <vfprintf+0x106>
    6a1a:	36 fe       	sbrs	r3, 6
    6a1c:	06 c0       	rjmp	.+12     	; 0x6a2a <vfprintf+0xe4>
    6a1e:	8a e0       	ldi	r24, 0x0A	; 10
    6a20:	98 9e       	mul	r9, r24
    6a22:	20 0d       	add	r18, r0
    6a24:	11 24       	eor	r1, r1
    6a26:	92 2e       	mov	r9, r18
    6a28:	11 c0       	rjmp	.+34     	; 0x6a4c <vfprintf+0x106>
    6a2a:	ea e0       	ldi	r30, 0x0A	; 10
    6a2c:	2e 9e       	mul	r2, r30
    6a2e:	20 0d       	add	r18, r0
    6a30:	11 24       	eor	r1, r1
    6a32:	22 2e       	mov	r2, r18
    6a34:	f3 2d       	mov	r31, r3
    6a36:	f0 62       	ori	r31, 0x20	; 32
    6a38:	3f 2e       	mov	r3, r31
    6a3a:	08 c0       	rjmp	.+16     	; 0x6a4c <vfprintf+0x106>
    6a3c:	8c 36       	cpi	r24, 0x6C	; 108
    6a3e:	21 f4       	brne	.+8      	; 0x6a48 <vfprintf+0x102>
    6a40:	83 2d       	mov	r24, r3
    6a42:	80 68       	ori	r24, 0x80	; 128
    6a44:	38 2e       	mov	r3, r24
    6a46:	02 c0       	rjmp	.+4      	; 0x6a4c <vfprintf+0x106>
    6a48:	88 36       	cpi	r24, 0x68	; 104
    6a4a:	41 f4       	brne	.+16     	; 0x6a5c <vfprintf+0x116>
    6a4c:	f7 01       	movw	r30, r14
    6a4e:	93 fd       	sbrc	r25, 3
    6a50:	85 91       	lpm	r24, Z+
    6a52:	93 ff       	sbrs	r25, 3
    6a54:	81 91       	ld	r24, Z+
    6a56:	7f 01       	movw	r14, r30
    6a58:	81 11       	cpse	r24, r1
    6a5a:	b3 cf       	rjmp	.-154    	; 0x69c2 <vfprintf+0x7c>
    6a5c:	98 2f       	mov	r25, r24
    6a5e:	9f 7d       	andi	r25, 0xDF	; 223
    6a60:	95 54       	subi	r25, 0x45	; 69
    6a62:	93 30       	cpi	r25, 0x03	; 3
    6a64:	28 f4       	brcc	.+10     	; 0x6a70 <vfprintf+0x12a>
    6a66:	0c 5f       	subi	r16, 0xFC	; 252
    6a68:	1f 4f       	sbci	r17, 0xFF	; 255
    6a6a:	9f e3       	ldi	r25, 0x3F	; 63
    6a6c:	99 83       	std	Y+1, r25	; 0x01
    6a6e:	0d c0       	rjmp	.+26     	; 0x6a8a <vfprintf+0x144>
    6a70:	83 36       	cpi	r24, 0x63	; 99
    6a72:	31 f0       	breq	.+12     	; 0x6a80 <vfprintf+0x13a>
    6a74:	83 37       	cpi	r24, 0x73	; 115
    6a76:	71 f0       	breq	.+28     	; 0x6a94 <vfprintf+0x14e>
    6a78:	83 35       	cpi	r24, 0x53	; 83
    6a7a:	09 f0       	breq	.+2      	; 0x6a7e <vfprintf+0x138>
    6a7c:	55 c0       	rjmp	.+170    	; 0x6b28 <vfprintf+0x1e2>
    6a7e:	20 c0       	rjmp	.+64     	; 0x6ac0 <vfprintf+0x17a>
    6a80:	f8 01       	movw	r30, r16
    6a82:	80 81       	ld	r24, Z
    6a84:	89 83       	std	Y+1, r24	; 0x01
    6a86:	0e 5f       	subi	r16, 0xFE	; 254
    6a88:	1f 4f       	sbci	r17, 0xFF	; 255
    6a8a:	88 24       	eor	r8, r8
    6a8c:	83 94       	inc	r8
    6a8e:	91 2c       	mov	r9, r1
    6a90:	53 01       	movw	r10, r6
    6a92:	12 c0       	rjmp	.+36     	; 0x6ab8 <vfprintf+0x172>
    6a94:	28 01       	movw	r4, r16
    6a96:	f2 e0       	ldi	r31, 0x02	; 2
    6a98:	4f 0e       	add	r4, r31
    6a9a:	51 1c       	adc	r5, r1
    6a9c:	f8 01       	movw	r30, r16
    6a9e:	a0 80       	ld	r10, Z
    6aa0:	b1 80       	ldd	r11, Z+1	; 0x01
    6aa2:	36 fe       	sbrs	r3, 6
    6aa4:	03 c0       	rjmp	.+6      	; 0x6aac <vfprintf+0x166>
    6aa6:	69 2d       	mov	r22, r9
    6aa8:	70 e0       	ldi	r23, 0x00	; 0
    6aaa:	02 c0       	rjmp	.+4      	; 0x6ab0 <vfprintf+0x16a>
    6aac:	6f ef       	ldi	r22, 0xFF	; 255
    6aae:	7f ef       	ldi	r23, 0xFF	; 255
    6ab0:	c5 01       	movw	r24, r10
    6ab2:	63 d5       	rcall	.+2758   	; 0x757a <strnlen>
    6ab4:	4c 01       	movw	r8, r24
    6ab6:	82 01       	movw	r16, r4
    6ab8:	f3 2d       	mov	r31, r3
    6aba:	ff 77       	andi	r31, 0x7F	; 127
    6abc:	3f 2e       	mov	r3, r31
    6abe:	15 c0       	rjmp	.+42     	; 0x6aea <vfprintf+0x1a4>
    6ac0:	28 01       	movw	r4, r16
    6ac2:	22 e0       	ldi	r18, 0x02	; 2
    6ac4:	42 0e       	add	r4, r18
    6ac6:	51 1c       	adc	r5, r1
    6ac8:	f8 01       	movw	r30, r16
    6aca:	a0 80       	ld	r10, Z
    6acc:	b1 80       	ldd	r11, Z+1	; 0x01
    6ace:	36 fe       	sbrs	r3, 6
    6ad0:	03 c0       	rjmp	.+6      	; 0x6ad8 <vfprintf+0x192>
    6ad2:	69 2d       	mov	r22, r9
    6ad4:	70 e0       	ldi	r23, 0x00	; 0
    6ad6:	02 c0       	rjmp	.+4      	; 0x6adc <vfprintf+0x196>
    6ad8:	6f ef       	ldi	r22, 0xFF	; 255
    6ada:	7f ef       	ldi	r23, 0xFF	; 255
    6adc:	c5 01       	movw	r24, r10
    6ade:	3b d5       	rcall	.+2678   	; 0x7556 <strnlen_P>
    6ae0:	4c 01       	movw	r8, r24
    6ae2:	f3 2d       	mov	r31, r3
    6ae4:	f0 68       	ori	r31, 0x80	; 128
    6ae6:	3f 2e       	mov	r3, r31
    6ae8:	82 01       	movw	r16, r4
    6aea:	33 fc       	sbrc	r3, 3
    6aec:	19 c0       	rjmp	.+50     	; 0x6b20 <vfprintf+0x1da>
    6aee:	82 2d       	mov	r24, r2
    6af0:	90 e0       	ldi	r25, 0x00	; 0
    6af2:	88 16       	cp	r8, r24
    6af4:	99 06       	cpc	r9, r25
    6af6:	a0 f4       	brcc	.+40     	; 0x6b20 <vfprintf+0x1da>
    6af8:	b6 01       	movw	r22, r12
    6afa:	80 e2       	ldi	r24, 0x20	; 32
    6afc:	90 e0       	ldi	r25, 0x00	; 0
    6afe:	86 d5       	rcall	.+2828   	; 0x760c <fputc>
    6b00:	2a 94       	dec	r2
    6b02:	f5 cf       	rjmp	.-22     	; 0x6aee <vfprintf+0x1a8>
    6b04:	f5 01       	movw	r30, r10
    6b06:	37 fc       	sbrc	r3, 7
    6b08:	85 91       	lpm	r24, Z+
    6b0a:	37 fe       	sbrs	r3, 7
    6b0c:	81 91       	ld	r24, Z+
    6b0e:	5f 01       	movw	r10, r30
    6b10:	b6 01       	movw	r22, r12
    6b12:	90 e0       	ldi	r25, 0x00	; 0
    6b14:	7b d5       	rcall	.+2806   	; 0x760c <fputc>
    6b16:	21 10       	cpse	r2, r1
    6b18:	2a 94       	dec	r2
    6b1a:	21 e0       	ldi	r18, 0x01	; 1
    6b1c:	82 1a       	sub	r8, r18
    6b1e:	91 08       	sbc	r9, r1
    6b20:	81 14       	cp	r8, r1
    6b22:	91 04       	cpc	r9, r1
    6b24:	79 f7       	brne	.-34     	; 0x6b04 <vfprintf+0x1be>
    6b26:	e1 c0       	rjmp	.+450    	; 0x6cea <vfprintf+0x3a4>
    6b28:	84 36       	cpi	r24, 0x64	; 100
    6b2a:	11 f0       	breq	.+4      	; 0x6b30 <vfprintf+0x1ea>
    6b2c:	89 36       	cpi	r24, 0x69	; 105
    6b2e:	39 f5       	brne	.+78     	; 0x6b7e <vfprintf+0x238>
    6b30:	f8 01       	movw	r30, r16
    6b32:	37 fe       	sbrs	r3, 7
    6b34:	07 c0       	rjmp	.+14     	; 0x6b44 <vfprintf+0x1fe>
    6b36:	60 81       	ld	r22, Z
    6b38:	71 81       	ldd	r23, Z+1	; 0x01
    6b3a:	82 81       	ldd	r24, Z+2	; 0x02
    6b3c:	93 81       	ldd	r25, Z+3	; 0x03
    6b3e:	0c 5f       	subi	r16, 0xFC	; 252
    6b40:	1f 4f       	sbci	r17, 0xFF	; 255
    6b42:	08 c0       	rjmp	.+16     	; 0x6b54 <vfprintf+0x20e>
    6b44:	60 81       	ld	r22, Z
    6b46:	71 81       	ldd	r23, Z+1	; 0x01
    6b48:	07 2e       	mov	r0, r23
    6b4a:	00 0c       	add	r0, r0
    6b4c:	88 0b       	sbc	r24, r24
    6b4e:	99 0b       	sbc	r25, r25
    6b50:	0e 5f       	subi	r16, 0xFE	; 254
    6b52:	1f 4f       	sbci	r17, 0xFF	; 255
    6b54:	f3 2d       	mov	r31, r3
    6b56:	ff 76       	andi	r31, 0x6F	; 111
    6b58:	3f 2e       	mov	r3, r31
    6b5a:	97 ff       	sbrs	r25, 7
    6b5c:	09 c0       	rjmp	.+18     	; 0x6b70 <vfprintf+0x22a>
    6b5e:	90 95       	com	r25
    6b60:	80 95       	com	r24
    6b62:	70 95       	com	r23
    6b64:	61 95       	neg	r22
    6b66:	7f 4f       	sbci	r23, 0xFF	; 255
    6b68:	8f 4f       	sbci	r24, 0xFF	; 255
    6b6a:	9f 4f       	sbci	r25, 0xFF	; 255
    6b6c:	f0 68       	ori	r31, 0x80	; 128
    6b6e:	3f 2e       	mov	r3, r31
    6b70:	2a e0       	ldi	r18, 0x0A	; 10
    6b72:	30 e0       	ldi	r19, 0x00	; 0
    6b74:	a3 01       	movw	r20, r6
    6b76:	9f d5       	rcall	.+2878   	; 0x76b6 <__ultoa_invert>
    6b78:	88 2e       	mov	r8, r24
    6b7a:	86 18       	sub	r8, r6
    6b7c:	44 c0       	rjmp	.+136    	; 0x6c06 <vfprintf+0x2c0>
    6b7e:	85 37       	cpi	r24, 0x75	; 117
    6b80:	31 f4       	brne	.+12     	; 0x6b8e <vfprintf+0x248>
    6b82:	23 2d       	mov	r18, r3
    6b84:	2f 7e       	andi	r18, 0xEF	; 239
    6b86:	b2 2e       	mov	r11, r18
    6b88:	2a e0       	ldi	r18, 0x0A	; 10
    6b8a:	30 e0       	ldi	r19, 0x00	; 0
    6b8c:	25 c0       	rjmp	.+74     	; 0x6bd8 <vfprintf+0x292>
    6b8e:	93 2d       	mov	r25, r3
    6b90:	99 7f       	andi	r25, 0xF9	; 249
    6b92:	b9 2e       	mov	r11, r25
    6b94:	8f 36       	cpi	r24, 0x6F	; 111
    6b96:	c1 f0       	breq	.+48     	; 0x6bc8 <vfprintf+0x282>
    6b98:	18 f4       	brcc	.+6      	; 0x6ba0 <vfprintf+0x25a>
    6b9a:	88 35       	cpi	r24, 0x58	; 88
    6b9c:	79 f0       	breq	.+30     	; 0x6bbc <vfprintf+0x276>
    6b9e:	ae c0       	rjmp	.+348    	; 0x6cfc <vfprintf+0x3b6>
    6ba0:	80 37       	cpi	r24, 0x70	; 112
    6ba2:	19 f0       	breq	.+6      	; 0x6baa <vfprintf+0x264>
    6ba4:	88 37       	cpi	r24, 0x78	; 120
    6ba6:	21 f0       	breq	.+8      	; 0x6bb0 <vfprintf+0x26a>
    6ba8:	a9 c0       	rjmp	.+338    	; 0x6cfc <vfprintf+0x3b6>
    6baa:	e9 2f       	mov	r30, r25
    6bac:	e0 61       	ori	r30, 0x10	; 16
    6bae:	be 2e       	mov	r11, r30
    6bb0:	b4 fe       	sbrs	r11, 4
    6bb2:	0d c0       	rjmp	.+26     	; 0x6bce <vfprintf+0x288>
    6bb4:	fb 2d       	mov	r31, r11
    6bb6:	f4 60       	ori	r31, 0x04	; 4
    6bb8:	bf 2e       	mov	r11, r31
    6bba:	09 c0       	rjmp	.+18     	; 0x6bce <vfprintf+0x288>
    6bbc:	34 fe       	sbrs	r3, 4
    6bbe:	0a c0       	rjmp	.+20     	; 0x6bd4 <vfprintf+0x28e>
    6bc0:	29 2f       	mov	r18, r25
    6bc2:	26 60       	ori	r18, 0x06	; 6
    6bc4:	b2 2e       	mov	r11, r18
    6bc6:	06 c0       	rjmp	.+12     	; 0x6bd4 <vfprintf+0x28e>
    6bc8:	28 e0       	ldi	r18, 0x08	; 8
    6bca:	30 e0       	ldi	r19, 0x00	; 0
    6bcc:	05 c0       	rjmp	.+10     	; 0x6bd8 <vfprintf+0x292>
    6bce:	20 e1       	ldi	r18, 0x10	; 16
    6bd0:	30 e0       	ldi	r19, 0x00	; 0
    6bd2:	02 c0       	rjmp	.+4      	; 0x6bd8 <vfprintf+0x292>
    6bd4:	20 e1       	ldi	r18, 0x10	; 16
    6bd6:	32 e0       	ldi	r19, 0x02	; 2
    6bd8:	f8 01       	movw	r30, r16
    6bda:	b7 fe       	sbrs	r11, 7
    6bdc:	07 c0       	rjmp	.+14     	; 0x6bec <vfprintf+0x2a6>
    6bde:	60 81       	ld	r22, Z
    6be0:	71 81       	ldd	r23, Z+1	; 0x01
    6be2:	82 81       	ldd	r24, Z+2	; 0x02
    6be4:	93 81       	ldd	r25, Z+3	; 0x03
    6be6:	0c 5f       	subi	r16, 0xFC	; 252
    6be8:	1f 4f       	sbci	r17, 0xFF	; 255
    6bea:	06 c0       	rjmp	.+12     	; 0x6bf8 <vfprintf+0x2b2>
    6bec:	60 81       	ld	r22, Z
    6bee:	71 81       	ldd	r23, Z+1	; 0x01
    6bf0:	80 e0       	ldi	r24, 0x00	; 0
    6bf2:	90 e0       	ldi	r25, 0x00	; 0
    6bf4:	0e 5f       	subi	r16, 0xFE	; 254
    6bf6:	1f 4f       	sbci	r17, 0xFF	; 255
    6bf8:	a3 01       	movw	r20, r6
    6bfa:	5d d5       	rcall	.+2746   	; 0x76b6 <__ultoa_invert>
    6bfc:	88 2e       	mov	r8, r24
    6bfe:	86 18       	sub	r8, r6
    6c00:	fb 2d       	mov	r31, r11
    6c02:	ff 77       	andi	r31, 0x7F	; 127
    6c04:	3f 2e       	mov	r3, r31
    6c06:	36 fe       	sbrs	r3, 6
    6c08:	0d c0       	rjmp	.+26     	; 0x6c24 <vfprintf+0x2de>
    6c0a:	23 2d       	mov	r18, r3
    6c0c:	2e 7f       	andi	r18, 0xFE	; 254
    6c0e:	a2 2e       	mov	r10, r18
    6c10:	89 14       	cp	r8, r9
    6c12:	58 f4       	brcc	.+22     	; 0x6c2a <vfprintf+0x2e4>
    6c14:	34 fe       	sbrs	r3, 4
    6c16:	0b c0       	rjmp	.+22     	; 0x6c2e <vfprintf+0x2e8>
    6c18:	32 fc       	sbrc	r3, 2
    6c1a:	09 c0       	rjmp	.+18     	; 0x6c2e <vfprintf+0x2e8>
    6c1c:	83 2d       	mov	r24, r3
    6c1e:	8e 7e       	andi	r24, 0xEE	; 238
    6c20:	a8 2e       	mov	r10, r24
    6c22:	05 c0       	rjmp	.+10     	; 0x6c2e <vfprintf+0x2e8>
    6c24:	b8 2c       	mov	r11, r8
    6c26:	a3 2c       	mov	r10, r3
    6c28:	03 c0       	rjmp	.+6      	; 0x6c30 <vfprintf+0x2ea>
    6c2a:	b8 2c       	mov	r11, r8
    6c2c:	01 c0       	rjmp	.+2      	; 0x6c30 <vfprintf+0x2ea>
    6c2e:	b9 2c       	mov	r11, r9
    6c30:	a4 fe       	sbrs	r10, 4
    6c32:	0f c0       	rjmp	.+30     	; 0x6c52 <vfprintf+0x30c>
    6c34:	fe 01       	movw	r30, r28
    6c36:	e8 0d       	add	r30, r8
    6c38:	f1 1d       	adc	r31, r1
    6c3a:	80 81       	ld	r24, Z
    6c3c:	80 33       	cpi	r24, 0x30	; 48
    6c3e:	21 f4       	brne	.+8      	; 0x6c48 <vfprintf+0x302>
    6c40:	9a 2d       	mov	r25, r10
    6c42:	99 7e       	andi	r25, 0xE9	; 233
    6c44:	a9 2e       	mov	r10, r25
    6c46:	09 c0       	rjmp	.+18     	; 0x6c5a <vfprintf+0x314>
    6c48:	a2 fe       	sbrs	r10, 2
    6c4a:	06 c0       	rjmp	.+12     	; 0x6c58 <vfprintf+0x312>
    6c4c:	b3 94       	inc	r11
    6c4e:	b3 94       	inc	r11
    6c50:	04 c0       	rjmp	.+8      	; 0x6c5a <vfprintf+0x314>
    6c52:	8a 2d       	mov	r24, r10
    6c54:	86 78       	andi	r24, 0x86	; 134
    6c56:	09 f0       	breq	.+2      	; 0x6c5a <vfprintf+0x314>
    6c58:	b3 94       	inc	r11
    6c5a:	a3 fc       	sbrc	r10, 3
    6c5c:	10 c0       	rjmp	.+32     	; 0x6c7e <vfprintf+0x338>
    6c5e:	a0 fe       	sbrs	r10, 0
    6c60:	06 c0       	rjmp	.+12     	; 0x6c6e <vfprintf+0x328>
    6c62:	b2 14       	cp	r11, r2
    6c64:	80 f4       	brcc	.+32     	; 0x6c86 <vfprintf+0x340>
    6c66:	28 0c       	add	r2, r8
    6c68:	92 2c       	mov	r9, r2
    6c6a:	9b 18       	sub	r9, r11
    6c6c:	0d c0       	rjmp	.+26     	; 0x6c88 <vfprintf+0x342>
    6c6e:	b2 14       	cp	r11, r2
    6c70:	58 f4       	brcc	.+22     	; 0x6c88 <vfprintf+0x342>
    6c72:	b6 01       	movw	r22, r12
    6c74:	80 e2       	ldi	r24, 0x20	; 32
    6c76:	90 e0       	ldi	r25, 0x00	; 0
    6c78:	c9 d4       	rcall	.+2450   	; 0x760c <fputc>
    6c7a:	b3 94       	inc	r11
    6c7c:	f8 cf       	rjmp	.-16     	; 0x6c6e <vfprintf+0x328>
    6c7e:	b2 14       	cp	r11, r2
    6c80:	18 f4       	brcc	.+6      	; 0x6c88 <vfprintf+0x342>
    6c82:	2b 18       	sub	r2, r11
    6c84:	02 c0       	rjmp	.+4      	; 0x6c8a <vfprintf+0x344>
    6c86:	98 2c       	mov	r9, r8
    6c88:	21 2c       	mov	r2, r1
    6c8a:	a4 fe       	sbrs	r10, 4
    6c8c:	0f c0       	rjmp	.+30     	; 0x6cac <vfprintf+0x366>
    6c8e:	b6 01       	movw	r22, r12
    6c90:	80 e3       	ldi	r24, 0x30	; 48
    6c92:	90 e0       	ldi	r25, 0x00	; 0
    6c94:	bb d4       	rcall	.+2422   	; 0x760c <fputc>
    6c96:	a2 fe       	sbrs	r10, 2
    6c98:	16 c0       	rjmp	.+44     	; 0x6cc6 <vfprintf+0x380>
    6c9a:	a1 fc       	sbrc	r10, 1
    6c9c:	03 c0       	rjmp	.+6      	; 0x6ca4 <vfprintf+0x35e>
    6c9e:	88 e7       	ldi	r24, 0x78	; 120
    6ca0:	90 e0       	ldi	r25, 0x00	; 0
    6ca2:	02 c0       	rjmp	.+4      	; 0x6ca8 <vfprintf+0x362>
    6ca4:	88 e5       	ldi	r24, 0x58	; 88
    6ca6:	90 e0       	ldi	r25, 0x00	; 0
    6ca8:	b6 01       	movw	r22, r12
    6caa:	0c c0       	rjmp	.+24     	; 0x6cc4 <vfprintf+0x37e>
    6cac:	8a 2d       	mov	r24, r10
    6cae:	86 78       	andi	r24, 0x86	; 134
    6cb0:	51 f0       	breq	.+20     	; 0x6cc6 <vfprintf+0x380>
    6cb2:	a1 fe       	sbrs	r10, 1
    6cb4:	02 c0       	rjmp	.+4      	; 0x6cba <vfprintf+0x374>
    6cb6:	8b e2       	ldi	r24, 0x2B	; 43
    6cb8:	01 c0       	rjmp	.+2      	; 0x6cbc <vfprintf+0x376>
    6cba:	80 e2       	ldi	r24, 0x20	; 32
    6cbc:	a7 fc       	sbrc	r10, 7
    6cbe:	8d e2       	ldi	r24, 0x2D	; 45
    6cc0:	b6 01       	movw	r22, r12
    6cc2:	90 e0       	ldi	r25, 0x00	; 0
    6cc4:	a3 d4       	rcall	.+2374   	; 0x760c <fputc>
    6cc6:	89 14       	cp	r8, r9
    6cc8:	30 f4       	brcc	.+12     	; 0x6cd6 <vfprintf+0x390>
    6cca:	b6 01       	movw	r22, r12
    6ccc:	80 e3       	ldi	r24, 0x30	; 48
    6cce:	90 e0       	ldi	r25, 0x00	; 0
    6cd0:	9d d4       	rcall	.+2362   	; 0x760c <fputc>
    6cd2:	9a 94       	dec	r9
    6cd4:	f8 cf       	rjmp	.-16     	; 0x6cc6 <vfprintf+0x380>
    6cd6:	8a 94       	dec	r8
    6cd8:	f3 01       	movw	r30, r6
    6cda:	e8 0d       	add	r30, r8
    6cdc:	f1 1d       	adc	r31, r1
    6cde:	80 81       	ld	r24, Z
    6ce0:	b6 01       	movw	r22, r12
    6ce2:	90 e0       	ldi	r25, 0x00	; 0
    6ce4:	93 d4       	rcall	.+2342   	; 0x760c <fputc>
    6ce6:	81 10       	cpse	r8, r1
    6ce8:	f6 cf       	rjmp	.-20     	; 0x6cd6 <vfprintf+0x390>
    6cea:	22 20       	and	r2, r2
    6cec:	09 f4       	brne	.+2      	; 0x6cf0 <vfprintf+0x3aa>
    6cee:	4e ce       	rjmp	.-868    	; 0x698c <vfprintf+0x46>
    6cf0:	b6 01       	movw	r22, r12
    6cf2:	80 e2       	ldi	r24, 0x20	; 32
    6cf4:	90 e0       	ldi	r25, 0x00	; 0
    6cf6:	8a d4       	rcall	.+2324   	; 0x760c <fputc>
    6cf8:	2a 94       	dec	r2
    6cfa:	f7 cf       	rjmp	.-18     	; 0x6cea <vfprintf+0x3a4>
    6cfc:	f6 01       	movw	r30, r12
    6cfe:	86 81       	ldd	r24, Z+6	; 0x06
    6d00:	97 81       	ldd	r25, Z+7	; 0x07
    6d02:	02 c0       	rjmp	.+4      	; 0x6d08 <vfprintf+0x3c2>
    6d04:	8f ef       	ldi	r24, 0xFF	; 255
    6d06:	9f ef       	ldi	r25, 0xFF	; 255
    6d08:	2b 96       	adiw	r28, 0x0b	; 11
    6d0a:	cd bf       	out	0x3d, r28	; 61
    6d0c:	de bf       	out	0x3e, r29	; 62
    6d0e:	df 91       	pop	r29
    6d10:	cf 91       	pop	r28
    6d12:	1f 91       	pop	r17
    6d14:	0f 91       	pop	r16
    6d16:	ff 90       	pop	r15
    6d18:	ef 90       	pop	r14
    6d1a:	df 90       	pop	r13
    6d1c:	cf 90       	pop	r12
    6d1e:	bf 90       	pop	r11
    6d20:	af 90       	pop	r10
    6d22:	9f 90       	pop	r9
    6d24:	8f 90       	pop	r8
    6d26:	7f 90       	pop	r7
    6d28:	6f 90       	pop	r6
    6d2a:	5f 90       	pop	r5
    6d2c:	4f 90       	pop	r4
    6d2e:	3f 90       	pop	r3
    6d30:	2f 90       	pop	r2
    6d32:	08 95       	ret

00006d34 <putval>:
    6d34:	20 fd       	sbrc	r18, 0
    6d36:	09 c0       	rjmp	.+18     	; 0x6d4a <putval+0x16>
    6d38:	fc 01       	movw	r30, r24
    6d3a:	23 fd       	sbrc	r18, 3
    6d3c:	05 c0       	rjmp	.+10     	; 0x6d48 <putval+0x14>
    6d3e:	22 ff       	sbrs	r18, 2
    6d40:	02 c0       	rjmp	.+4      	; 0x6d46 <putval+0x12>
    6d42:	73 83       	std	Z+3, r23	; 0x03
    6d44:	62 83       	std	Z+2, r22	; 0x02
    6d46:	51 83       	std	Z+1, r21	; 0x01
    6d48:	40 83       	st	Z, r20
    6d4a:	08 95       	ret

00006d4c <mulacc>:
    6d4c:	44 fd       	sbrc	r20, 4
    6d4e:	17 c0       	rjmp	.+46     	; 0x6d7e <mulacc+0x32>
    6d50:	46 fd       	sbrc	r20, 6
    6d52:	17 c0       	rjmp	.+46     	; 0x6d82 <mulacc+0x36>
    6d54:	ab 01       	movw	r20, r22
    6d56:	bc 01       	movw	r22, r24
    6d58:	da 01       	movw	r26, r20
    6d5a:	fb 01       	movw	r30, r22
    6d5c:	aa 0f       	add	r26, r26
    6d5e:	bb 1f       	adc	r27, r27
    6d60:	ee 1f       	adc	r30, r30
    6d62:	ff 1f       	adc	r31, r31
    6d64:	10 94       	com	r1
    6d66:	d1 f7       	brne	.-12     	; 0x6d5c <mulacc+0x10>
    6d68:	4a 0f       	add	r20, r26
    6d6a:	5b 1f       	adc	r21, r27
    6d6c:	6e 1f       	adc	r22, r30
    6d6e:	7f 1f       	adc	r23, r31
    6d70:	cb 01       	movw	r24, r22
    6d72:	ba 01       	movw	r22, r20
    6d74:	66 0f       	add	r22, r22
    6d76:	77 1f       	adc	r23, r23
    6d78:	88 1f       	adc	r24, r24
    6d7a:	99 1f       	adc	r25, r25
    6d7c:	09 c0       	rjmp	.+18     	; 0x6d90 <mulacc+0x44>
    6d7e:	33 e0       	ldi	r19, 0x03	; 3
    6d80:	01 c0       	rjmp	.+2      	; 0x6d84 <mulacc+0x38>
    6d82:	34 e0       	ldi	r19, 0x04	; 4
    6d84:	66 0f       	add	r22, r22
    6d86:	77 1f       	adc	r23, r23
    6d88:	88 1f       	adc	r24, r24
    6d8a:	99 1f       	adc	r25, r25
    6d8c:	31 50       	subi	r19, 0x01	; 1
    6d8e:	d1 f7       	brne	.-12     	; 0x6d84 <mulacc+0x38>
    6d90:	62 0f       	add	r22, r18
    6d92:	71 1d       	adc	r23, r1
    6d94:	81 1d       	adc	r24, r1
    6d96:	91 1d       	adc	r25, r1
    6d98:	08 95       	ret

00006d9a <skip_spaces>:
    6d9a:	0f 93       	push	r16
    6d9c:	1f 93       	push	r17
    6d9e:	cf 93       	push	r28
    6da0:	df 93       	push	r29
    6da2:	8c 01       	movw	r16, r24
    6da4:	c8 01       	movw	r24, r16
    6da6:	f4 d3       	rcall	.+2024   	; 0x7590 <fgetc>
    6da8:	ec 01       	movw	r28, r24
    6daa:	97 fd       	sbrc	r25, 7
    6dac:	06 c0       	rjmp	.+12     	; 0x6dba <skip_spaces+0x20>
    6dae:	c0 d3       	rcall	.+1920   	; 0x7530 <isspace>
    6db0:	89 2b       	or	r24, r25
    6db2:	c1 f7       	brne	.-16     	; 0x6da4 <skip_spaces+0xa>
    6db4:	b8 01       	movw	r22, r16
    6db6:	ce 01       	movw	r24, r28
    6db8:	65 d4       	rcall	.+2250   	; 0x7684 <ungetc>
    6dba:	ce 01       	movw	r24, r28
    6dbc:	df 91       	pop	r29
    6dbe:	cf 91       	pop	r28
    6dc0:	1f 91       	pop	r17
    6dc2:	0f 91       	pop	r16
    6dc4:	08 95       	ret

00006dc6 <conv_int>:
    6dc6:	8f 92       	push	r8
    6dc8:	9f 92       	push	r9
    6dca:	af 92       	push	r10
    6dcc:	bf 92       	push	r11
    6dce:	ef 92       	push	r14
    6dd0:	ff 92       	push	r15
    6dd2:	0f 93       	push	r16
    6dd4:	1f 93       	push	r17
    6dd6:	cf 93       	push	r28
    6dd8:	df 93       	push	r29
    6dda:	8c 01       	movw	r16, r24
    6ddc:	d6 2f       	mov	r29, r22
    6dde:	7a 01       	movw	r14, r20
    6de0:	b2 2e       	mov	r11, r18
    6de2:	d6 d3       	rcall	.+1964   	; 0x7590 <fgetc>
    6de4:	9c 01       	movw	r18, r24
    6de6:	33 27       	eor	r19, r19
    6de8:	2b 32       	cpi	r18, 0x2B	; 43
    6dea:	31 05       	cpc	r19, r1
    6dec:	31 f0       	breq	.+12     	; 0x6dfa <conv_int+0x34>
    6dee:	2d 32       	cpi	r18, 0x2D	; 45
    6df0:	31 05       	cpc	r19, r1
    6df2:	59 f4       	brne	.+22     	; 0x6e0a <conv_int+0x44>
    6df4:	8b 2d       	mov	r24, r11
    6df6:	80 68       	ori	r24, 0x80	; 128
    6df8:	b8 2e       	mov	r11, r24
    6dfa:	d1 50       	subi	r29, 0x01	; 1
    6dfc:	11 f4       	brne	.+4      	; 0x6e02 <conv_int+0x3c>
    6dfe:	80 e0       	ldi	r24, 0x00	; 0
    6e00:	61 c0       	rjmp	.+194    	; 0x6ec4 <conv_int+0xfe>
    6e02:	c8 01       	movw	r24, r16
    6e04:	c5 d3       	rcall	.+1930   	; 0x7590 <fgetc>
    6e06:	97 fd       	sbrc	r25, 7
    6e08:	fa cf       	rjmp	.-12     	; 0x6dfe <conv_int+0x38>
    6e0a:	cb 2d       	mov	r28, r11
    6e0c:	cd 7f       	andi	r28, 0xFD	; 253
    6e0e:	2b 2d       	mov	r18, r11
    6e10:	20 73       	andi	r18, 0x30	; 48
    6e12:	f9 f4       	brne	.+62     	; 0x6e52 <conv_int+0x8c>
    6e14:	80 33       	cpi	r24, 0x30	; 48
    6e16:	e9 f4       	brne	.+58     	; 0x6e52 <conv_int+0x8c>
    6e18:	aa 24       	eor	r10, r10
    6e1a:	aa 94       	dec	r10
    6e1c:	ad 0e       	add	r10, r29
    6e1e:	09 f4       	brne	.+2      	; 0x6e22 <conv_int+0x5c>
    6e20:	3e c0       	rjmp	.+124    	; 0x6e9e <conv_int+0xd8>
    6e22:	c8 01       	movw	r24, r16
    6e24:	b5 d3       	rcall	.+1898   	; 0x7590 <fgetc>
    6e26:	97 fd       	sbrc	r25, 7
    6e28:	3a c0       	rjmp	.+116    	; 0x6e9e <conv_int+0xd8>
    6e2a:	9c 01       	movw	r18, r24
    6e2c:	2f 7d       	andi	r18, 0xDF	; 223
    6e2e:	33 27       	eor	r19, r19
    6e30:	28 35       	cpi	r18, 0x58	; 88
    6e32:	31 05       	cpc	r19, r1
    6e34:	41 f4       	brne	.+16     	; 0x6e46 <conv_int+0x80>
    6e36:	c2 64       	ori	r28, 0x42	; 66
    6e38:	d2 50       	subi	r29, 0x02	; 2
    6e3a:	89 f1       	breq	.+98     	; 0x6e9e <conv_int+0xd8>
    6e3c:	c8 01       	movw	r24, r16
    6e3e:	a8 d3       	rcall	.+1872   	; 0x7590 <fgetc>
    6e40:	97 ff       	sbrs	r25, 7
    6e42:	07 c0       	rjmp	.+14     	; 0x6e52 <conv_int+0x8c>
    6e44:	2c c0       	rjmp	.+88     	; 0x6e9e <conv_int+0xd8>
    6e46:	b6 fe       	sbrs	r11, 6
    6e48:	02 c0       	rjmp	.+4      	; 0x6e4e <conv_int+0x88>
    6e4a:	c2 60       	ori	r28, 0x02	; 2
    6e4c:	01 c0       	rjmp	.+2      	; 0x6e50 <conv_int+0x8a>
    6e4e:	c2 61       	ori	r28, 0x12	; 18
    6e50:	da 2d       	mov	r29, r10
    6e52:	81 2c       	mov	r8, r1
    6e54:	91 2c       	mov	r9, r1
    6e56:	54 01       	movw	r10, r8
    6e58:	20 ed       	ldi	r18, 0xD0	; 208
    6e5a:	28 0f       	add	r18, r24
    6e5c:	28 30       	cpi	r18, 0x08	; 8
    6e5e:	78 f0       	brcs	.+30     	; 0x6e7e <conv_int+0xb8>
    6e60:	c4 ff       	sbrs	r28, 4
    6e62:	03 c0       	rjmp	.+6      	; 0x6e6a <conv_int+0xa4>
    6e64:	b8 01       	movw	r22, r16
    6e66:	0e d4       	rcall	.+2076   	; 0x7684 <ungetc>
    6e68:	17 c0       	rjmp	.+46     	; 0x6e98 <conv_int+0xd2>
    6e6a:	2a 30       	cpi	r18, 0x0A	; 10
    6e6c:	40 f0       	brcs	.+16     	; 0x6e7e <conv_int+0xb8>
    6e6e:	c6 ff       	sbrs	r28, 6
    6e70:	f9 cf       	rjmp	.-14     	; 0x6e64 <conv_int+0x9e>
    6e72:	2f 7d       	andi	r18, 0xDF	; 223
    6e74:	3f ee       	ldi	r19, 0xEF	; 239
    6e76:	32 0f       	add	r19, r18
    6e78:	36 30       	cpi	r19, 0x06	; 6
    6e7a:	a0 f7       	brcc	.-24     	; 0x6e64 <conv_int+0x9e>
    6e7c:	27 50       	subi	r18, 0x07	; 7
    6e7e:	4c 2f       	mov	r20, r28
    6e80:	c5 01       	movw	r24, r10
    6e82:	b4 01       	movw	r22, r8
    6e84:	63 df       	rcall	.-314    	; 0x6d4c <mulacc>
    6e86:	4b 01       	movw	r8, r22
    6e88:	5c 01       	movw	r10, r24
    6e8a:	c2 60       	ori	r28, 0x02	; 2
    6e8c:	d1 50       	subi	r29, 0x01	; 1
    6e8e:	51 f0       	breq	.+20     	; 0x6ea4 <conv_int+0xde>
    6e90:	c8 01       	movw	r24, r16
    6e92:	7e d3       	rcall	.+1788   	; 0x7590 <fgetc>
    6e94:	97 ff       	sbrs	r25, 7
    6e96:	e0 cf       	rjmp	.-64     	; 0x6e58 <conv_int+0x92>
    6e98:	c1 fd       	sbrc	r28, 1
    6e9a:	04 c0       	rjmp	.+8      	; 0x6ea4 <conv_int+0xde>
    6e9c:	b0 cf       	rjmp	.-160    	; 0x6dfe <conv_int+0x38>
    6e9e:	81 2c       	mov	r8, r1
    6ea0:	91 2c       	mov	r9, r1
    6ea2:	54 01       	movw	r10, r8
    6ea4:	c7 ff       	sbrs	r28, 7
    6ea6:	08 c0       	rjmp	.+16     	; 0x6eb8 <conv_int+0xf2>
    6ea8:	b0 94       	com	r11
    6eaa:	a0 94       	com	r10
    6eac:	90 94       	com	r9
    6eae:	80 94       	com	r8
    6eb0:	81 1c       	adc	r8, r1
    6eb2:	91 1c       	adc	r9, r1
    6eb4:	a1 1c       	adc	r10, r1
    6eb6:	b1 1c       	adc	r11, r1
    6eb8:	2c 2f       	mov	r18, r28
    6eba:	b5 01       	movw	r22, r10
    6ebc:	a4 01       	movw	r20, r8
    6ebe:	c7 01       	movw	r24, r14
    6ec0:	39 df       	rcall	.-398    	; 0x6d34 <putval>
    6ec2:	81 e0       	ldi	r24, 0x01	; 1
    6ec4:	df 91       	pop	r29
    6ec6:	cf 91       	pop	r28
    6ec8:	1f 91       	pop	r17
    6eca:	0f 91       	pop	r16
    6ecc:	ff 90       	pop	r15
    6ece:	ef 90       	pop	r14
    6ed0:	bf 90       	pop	r11
    6ed2:	af 90       	pop	r10
    6ed4:	9f 90       	pop	r9
    6ed6:	8f 90       	pop	r8
    6ed8:	08 95       	ret

00006eda <conv_brk>:
    6eda:	5f 92       	push	r5
    6edc:	6f 92       	push	r6
    6ede:	7f 92       	push	r7
    6ee0:	8f 92       	push	r8
    6ee2:	9f 92       	push	r9
    6ee4:	af 92       	push	r10
    6ee6:	bf 92       	push	r11
    6ee8:	cf 92       	push	r12
    6eea:	df 92       	push	r13
    6eec:	ef 92       	push	r14
    6eee:	ff 92       	push	r15
    6ef0:	0f 93       	push	r16
    6ef2:	1f 93       	push	r17
    6ef4:	cf 93       	push	r28
    6ef6:	df 93       	push	r29
    6ef8:	cd b7       	in	r28, 0x3d	; 61
    6efa:	de b7       	in	r29, 0x3e	; 62
    6efc:	a0 97       	sbiw	r28, 0x20	; 32
    6efe:	cd bf       	out	0x3d, r28	; 61
    6f00:	de bf       	out	0x3e, r29	; 62
    6f02:	5c 01       	movw	r10, r24
    6f04:	96 2e       	mov	r9, r22
    6f06:	7a 01       	movw	r14, r20
    6f08:	f9 01       	movw	r30, r18
    6f0a:	8e 01       	movw	r16, r28
    6f0c:	0f 5f       	subi	r16, 0xFF	; 255
    6f0e:	1f 4f       	sbci	r17, 0xFF	; 255
    6f10:	68 01       	movw	r12, r16
    6f12:	80 e2       	ldi	r24, 0x20	; 32
    6f14:	d8 01       	movw	r26, r16
    6f16:	1d 92       	st	X+, r1
    6f18:	8a 95       	dec	r24
    6f1a:	e9 f7       	brne	.-6      	; 0x6f16 <conv_brk+0x3c>
    6f1c:	d5 01       	movw	r26, r10
    6f1e:	13 96       	adiw	r26, 0x03	; 3
    6f20:	8c 90       	ld	r8, X
    6f22:	80 e0       	ldi	r24, 0x00	; 0
    6f24:	90 e0       	ldi	r25, 0x00	; 0
    6f26:	61 2c       	mov	r6, r1
    6f28:	71 2c       	mov	r7, r1
    6f2a:	30 e0       	ldi	r19, 0x00	; 0
    6f2c:	61 e0       	ldi	r22, 0x01	; 1
    6f2e:	70 e0       	ldi	r23, 0x00	; 0
    6f30:	83 fc       	sbrc	r8, 3
    6f32:	25 91       	lpm	r18, Z+
    6f34:	83 fe       	sbrs	r8, 3
    6f36:	21 91       	ld	r18, Z+
    6f38:	8f 01       	movw	r16, r30
    6f3a:	52 2e       	mov	r5, r18
    6f3c:	21 11       	cpse	r18, r1
    6f3e:	03 c0       	rjmp	.+6      	; 0x6f46 <conv_brk+0x6c>
    6f40:	80 e0       	ldi	r24, 0x00	; 0
    6f42:	90 e0       	ldi	r25, 0x00	; 0
    6f44:	90 c0       	rjmp	.+288    	; 0x7066 <conv_brk+0x18c>
    6f46:	2e 35       	cpi	r18, 0x5E	; 94
    6f48:	11 f4       	brne	.+4      	; 0x6f4e <conv_brk+0x74>
    6f4a:	00 97       	sbiw	r24, 0x00	; 0
    6f4c:	51 f1       	breq	.+84     	; 0x6fa2 <conv_brk+0xc8>
    6f4e:	43 2f       	mov	r20, r19
    6f50:	50 e0       	ldi	r21, 0x00	; 0
    6f52:	48 17       	cp	r20, r24
    6f54:	59 07       	cpc	r21, r25
    6f56:	3c f4       	brge	.+14     	; 0x6f66 <conv_brk+0x8c>
    6f58:	2d 35       	cpi	r18, 0x5D	; 93
    6f5a:	59 f1       	breq	.+86     	; 0x6fb2 <conv_brk+0xd8>
    6f5c:	2d 32       	cpi	r18, 0x2D	; 45
    6f5e:	19 f4       	brne	.+6      	; 0x6f66 <conv_brk+0x8c>
    6f60:	77 20       	and	r7, r7
    6f62:	09 f1       	breq	.+66     	; 0x6fa6 <conv_brk+0xcc>
    6f64:	03 c0       	rjmp	.+6      	; 0x6f6c <conv_brk+0x92>
    6f66:	77 20       	and	r7, r7
    6f68:	09 f4       	brne	.+2      	; 0x6f6c <conv_brk+0x92>
    6f6a:	68 c0       	rjmp	.+208    	; 0x703c <conv_brk+0x162>
    6f6c:	45 2d       	mov	r20, r5
    6f6e:	46 95       	lsr	r20
    6f70:	46 95       	lsr	r20
    6f72:	46 95       	lsr	r20
    6f74:	d6 01       	movw	r26, r12
    6f76:	a4 0f       	add	r26, r20
    6f78:	b1 1d       	adc	r27, r1
    6f7a:	45 2d       	mov	r20, r5
    6f7c:	47 70       	andi	r20, 0x07	; 7
    6f7e:	8b 01       	movw	r16, r22
    6f80:	02 c0       	rjmp	.+4      	; 0x6f86 <conv_brk+0xac>
    6f82:	00 0f       	add	r16, r16
    6f84:	11 1f       	adc	r17, r17
    6f86:	4a 95       	dec	r20
    6f88:	e2 f7       	brpl	.-8      	; 0x6f82 <conv_brk+0xa8>
    6f8a:	a8 01       	movw	r20, r16
    6f8c:	5c 91       	ld	r21, X
    6f8e:	45 2b       	or	r20, r21
    6f90:	4c 93       	st	X, r20
    6f92:	65 14       	cp	r6, r5
    6f94:	59 f0       	breq	.+22     	; 0x6fac <conv_brk+0xd2>
    6f96:	56 14       	cp	r5, r6
    6f98:	10 f4       	brcc	.+4      	; 0x6f9e <conv_brk+0xc4>
    6f9a:	53 94       	inc	r5
    6f9c:	e7 cf       	rjmp	.-50     	; 0x6f6c <conv_brk+0x92>
    6f9e:	5a 94       	dec	r5
    6fa0:	e5 cf       	rjmp	.-54     	; 0x6f6c <conv_brk+0x92>
    6fa2:	31 e0       	ldi	r19, 0x01	; 1
    6fa4:	04 c0       	rjmp	.+8      	; 0x6fae <conv_brk+0xd4>
    6fa6:	77 24       	eor	r7, r7
    6fa8:	73 94       	inc	r7
    6faa:	01 c0       	rjmp	.+2      	; 0x6fae <conv_brk+0xd4>
    6fac:	71 2c       	mov	r7, r1
    6fae:	01 96       	adiw	r24, 0x01	; 1
    6fb0:	bf cf       	rjmp	.-130    	; 0x6f30 <conv_brk+0x56>
    6fb2:	77 20       	and	r7, r7
    6fb4:	19 f0       	breq	.+6      	; 0x6fbc <conv_brk+0xe2>
    6fb6:	8e 81       	ldd	r24, Y+6	; 0x06
    6fb8:	80 62       	ori	r24, 0x20	; 32
    6fba:	8e 83       	std	Y+6, r24	; 0x06
    6fbc:	31 11       	cpse	r19, r1
    6fbe:	03 c0       	rjmp	.+6      	; 0x6fc6 <conv_brk+0xec>
    6fc0:	88 24       	eor	r8, r8
    6fc2:	83 94       	inc	r8
    6fc4:	17 c0       	rjmp	.+46     	; 0x6ff4 <conv_brk+0x11a>
    6fc6:	f6 01       	movw	r30, r12
    6fc8:	9e 01       	movw	r18, r28
    6fca:	2f 5d       	subi	r18, 0xDF	; 223
    6fcc:	3f 4f       	sbci	r19, 0xFF	; 255
    6fce:	80 81       	ld	r24, Z
    6fd0:	80 95       	com	r24
    6fd2:	81 93       	st	Z+, r24
    6fd4:	2e 17       	cp	r18, r30
    6fd6:	3f 07       	cpc	r19, r31
    6fd8:	d1 f7       	brne	.-12     	; 0x6fce <conv_brk+0xf4>
    6fda:	f2 cf       	rjmp	.-28     	; 0x6fc0 <conv_brk+0xe6>
    6fdc:	e1 14       	cp	r14, r1
    6fde:	f1 04       	cpc	r15, r1
    6fe0:	29 f0       	breq	.+10     	; 0x6fec <conv_brk+0x112>
    6fe2:	d7 01       	movw	r26, r14
    6fe4:	8c 93       	st	X, r24
    6fe6:	f7 01       	movw	r30, r14
    6fe8:	31 96       	adiw	r30, 0x01	; 1
    6fea:	7f 01       	movw	r14, r30
    6fec:	9a 94       	dec	r9
    6fee:	81 2c       	mov	r8, r1
    6ff0:	99 20       	and	r9, r9
    6ff2:	e9 f0       	breq	.+58     	; 0x702e <conv_brk+0x154>
    6ff4:	c5 01       	movw	r24, r10
    6ff6:	cc d2       	rcall	.+1432   	; 0x7590 <fgetc>
    6ff8:	97 fd       	sbrc	r25, 7
    6ffa:	17 c0       	rjmp	.+46     	; 0x702a <conv_brk+0x150>
    6ffc:	fc 01       	movw	r30, r24
    6ffe:	ff 27       	eor	r31, r31
    7000:	23 e0       	ldi	r18, 0x03	; 3
    7002:	f5 95       	asr	r31
    7004:	e7 95       	ror	r30
    7006:	2a 95       	dec	r18
    7008:	e1 f7       	brne	.-8      	; 0x7002 <conv_brk+0x128>
    700a:	ec 0d       	add	r30, r12
    700c:	fd 1d       	adc	r31, r13
    700e:	20 81       	ld	r18, Z
    7010:	30 e0       	ldi	r19, 0x00	; 0
    7012:	ac 01       	movw	r20, r24
    7014:	47 70       	andi	r20, 0x07	; 7
    7016:	55 27       	eor	r21, r21
    7018:	02 c0       	rjmp	.+4      	; 0x701e <conv_brk+0x144>
    701a:	35 95       	asr	r19
    701c:	27 95       	ror	r18
    701e:	4a 95       	dec	r20
    7020:	e2 f7       	brpl	.-8      	; 0x701a <conv_brk+0x140>
    7022:	20 fd       	sbrc	r18, 0
    7024:	db cf       	rjmp	.-74     	; 0x6fdc <conv_brk+0x102>
    7026:	b5 01       	movw	r22, r10
    7028:	2d d3       	rcall	.+1626   	; 0x7684 <ungetc>
    702a:	81 10       	cpse	r8, r1
    702c:	89 cf       	rjmp	.-238    	; 0x6f40 <conv_brk+0x66>
    702e:	e1 14       	cp	r14, r1
    7030:	f1 04       	cpc	r15, r1
    7032:	11 f0       	breq	.+4      	; 0x7038 <conv_brk+0x15e>
    7034:	d7 01       	movw	r26, r14
    7036:	1c 92       	st	X, r1
    7038:	c8 01       	movw	r24, r16
    703a:	15 c0       	rjmp	.+42     	; 0x7066 <conv_brk+0x18c>
    703c:	42 2f       	mov	r20, r18
    703e:	46 95       	lsr	r20
    7040:	46 95       	lsr	r20
    7042:	46 95       	lsr	r20
    7044:	d6 01       	movw	r26, r12
    7046:	a4 0f       	add	r26, r20
    7048:	b1 1d       	adc	r27, r1
    704a:	42 2f       	mov	r20, r18
    704c:	47 70       	andi	r20, 0x07	; 7
    704e:	8b 01       	movw	r16, r22
    7050:	02 c0       	rjmp	.+4      	; 0x7056 <conv_brk+0x17c>
    7052:	00 0f       	add	r16, r16
    7054:	11 1f       	adc	r17, r17
    7056:	4a 95       	dec	r20
    7058:	e2 f7       	brpl	.-8      	; 0x7052 <conv_brk+0x178>
    705a:	a8 01       	movw	r20, r16
    705c:	5c 91       	ld	r21, X
    705e:	45 2b       	or	r20, r21
    7060:	4c 93       	st	X, r20
    7062:	62 2e       	mov	r6, r18
    7064:	a4 cf       	rjmp	.-184    	; 0x6fae <conv_brk+0xd4>
    7066:	a0 96       	adiw	r28, 0x20	; 32
    7068:	cd bf       	out	0x3d, r28	; 61
    706a:	de bf       	out	0x3e, r29	; 62
    706c:	df 91       	pop	r29
    706e:	cf 91       	pop	r28
    7070:	1f 91       	pop	r17
    7072:	0f 91       	pop	r16
    7074:	ff 90       	pop	r15
    7076:	ef 90       	pop	r14
    7078:	df 90       	pop	r13
    707a:	cf 90       	pop	r12
    707c:	bf 90       	pop	r11
    707e:	af 90       	pop	r10
    7080:	9f 90       	pop	r9
    7082:	8f 90       	pop	r8
    7084:	7f 90       	pop	r7
    7086:	6f 90       	pop	r6
    7088:	5f 90       	pop	r5
    708a:	08 95       	ret

0000708c <vfscanf>:
    708c:	5f 92       	push	r5
    708e:	6f 92       	push	r6
    7090:	7f 92       	push	r7
    7092:	8f 92       	push	r8
    7094:	9f 92       	push	r9
    7096:	af 92       	push	r10
    7098:	bf 92       	push	r11
    709a:	cf 92       	push	r12
    709c:	df 92       	push	r13
    709e:	ef 92       	push	r14
    70a0:	ff 92       	push	r15
    70a2:	0f 93       	push	r16
    70a4:	1f 93       	push	r17
    70a6:	cf 93       	push	r28
    70a8:	df 93       	push	r29
    70aa:	6c 01       	movw	r12, r24
    70ac:	eb 01       	movw	r28, r22
    70ae:	5a 01       	movw	r10, r20
    70b0:	fc 01       	movw	r30, r24
    70b2:	16 82       	std	Z+6, r1	; 0x06
    70b4:	17 82       	std	Z+7, r1	; 0x07
    70b6:	51 2c       	mov	r5, r1
    70b8:	f6 01       	movw	r30, r12
    70ba:	e3 80       	ldd	r14, Z+3	; 0x03
    70bc:	fe 01       	movw	r30, r28
    70be:	e3 fc       	sbrc	r14, 3
    70c0:	85 91       	lpm	r24, Z+
    70c2:	e3 fe       	sbrs	r14, 3
    70c4:	81 91       	ld	r24, Z+
    70c6:	18 2f       	mov	r17, r24
    70c8:	ef 01       	movw	r28, r30
    70ca:	88 23       	and	r24, r24
    70cc:	09 f4       	brne	.+2      	; 0x70d0 <vfscanf+0x44>
    70ce:	e0 c0       	rjmp	.+448    	; 0x7290 <vfscanf+0x204>
    70d0:	90 e0       	ldi	r25, 0x00	; 0
    70d2:	2e d2       	rcall	.+1116   	; 0x7530 <isspace>
    70d4:	89 2b       	or	r24, r25
    70d6:	19 f0       	breq	.+6      	; 0x70de <vfscanf+0x52>
    70d8:	c6 01       	movw	r24, r12
    70da:	5f de       	rcall	.-834    	; 0x6d9a <skip_spaces>
    70dc:	ed cf       	rjmp	.-38     	; 0x70b8 <vfscanf+0x2c>
    70de:	15 32       	cpi	r17, 0x25	; 37
    70e0:	41 f4       	brne	.+16     	; 0x70f2 <vfscanf+0x66>
    70e2:	fe 01       	movw	r30, r28
    70e4:	e3 fc       	sbrc	r14, 3
    70e6:	15 91       	lpm	r17, Z+
    70e8:	e3 fe       	sbrs	r14, 3
    70ea:	11 91       	ld	r17, Z+
    70ec:	ef 01       	movw	r28, r30
    70ee:	15 32       	cpi	r17, 0x25	; 37
    70f0:	71 f4       	brne	.+28     	; 0x710e <vfscanf+0x82>
    70f2:	c6 01       	movw	r24, r12
    70f4:	4d d2       	rcall	.+1178   	; 0x7590 <fgetc>
    70f6:	97 fd       	sbrc	r25, 7
    70f8:	c9 c0       	rjmp	.+402    	; 0x728c <vfscanf+0x200>
    70fa:	41 2f       	mov	r20, r17
    70fc:	50 e0       	ldi	r21, 0x00	; 0
    70fe:	9c 01       	movw	r18, r24
    7100:	33 27       	eor	r19, r19
    7102:	24 17       	cp	r18, r20
    7104:	35 07       	cpc	r19, r21
    7106:	c1 f2       	breq	.-80     	; 0x70b8 <vfscanf+0x2c>
    7108:	b6 01       	movw	r22, r12
    710a:	bc d2       	rcall	.+1400   	; 0x7684 <ungetc>
    710c:	c1 c0       	rjmp	.+386    	; 0x7290 <vfscanf+0x204>
    710e:	1a 32       	cpi	r17, 0x2A	; 42
    7110:	39 f4       	brne	.+14     	; 0x7120 <vfscanf+0x94>
    7112:	e3 fc       	sbrc	r14, 3
    7114:	15 91       	lpm	r17, Z+
    7116:	e3 fe       	sbrs	r14, 3
    7118:	11 91       	ld	r17, Z+
    711a:	ef 01       	movw	r28, r30
    711c:	01 e0       	ldi	r16, 0x01	; 1
    711e:	01 c0       	rjmp	.+2      	; 0x7122 <vfscanf+0x96>
    7120:	00 e0       	ldi	r16, 0x00	; 0
    7122:	f1 2c       	mov	r15, r1
    7124:	20 ed       	ldi	r18, 0xD0	; 208
    7126:	21 0f       	add	r18, r17
    7128:	2a 30       	cpi	r18, 0x0A	; 10
    712a:	78 f4       	brcc	.+30     	; 0x714a <vfscanf+0xbe>
    712c:	02 60       	ori	r16, 0x02	; 2
    712e:	6f 2d       	mov	r22, r15
    7130:	70 e0       	ldi	r23, 0x00	; 0
    7132:	80 e0       	ldi	r24, 0x00	; 0
    7134:	90 e0       	ldi	r25, 0x00	; 0
    7136:	40 e2       	ldi	r20, 0x20	; 32
    7138:	09 de       	rcall	.-1006   	; 0x6d4c <mulacc>
    713a:	f6 2e       	mov	r15, r22
    713c:	fe 01       	movw	r30, r28
    713e:	e3 fc       	sbrc	r14, 3
    7140:	15 91       	lpm	r17, Z+
    7142:	e3 fe       	sbrs	r14, 3
    7144:	11 91       	ld	r17, Z+
    7146:	ef 01       	movw	r28, r30
    7148:	ed cf       	rjmp	.-38     	; 0x7124 <vfscanf+0x98>
    714a:	01 ff       	sbrs	r16, 1
    714c:	03 c0       	rjmp	.+6      	; 0x7154 <vfscanf+0xc8>
    714e:	f1 10       	cpse	r15, r1
    7150:	03 c0       	rjmp	.+6      	; 0x7158 <vfscanf+0xcc>
    7152:	9e c0       	rjmp	.+316    	; 0x7290 <vfscanf+0x204>
    7154:	ff 24       	eor	r15, r15
    7156:	fa 94       	dec	r15
    7158:	18 36       	cpi	r17, 0x68	; 104
    715a:	19 f0       	breq	.+6      	; 0x7162 <vfscanf+0xd6>
    715c:	1c 36       	cpi	r17, 0x6C	; 108
    715e:	51 f0       	breq	.+20     	; 0x7174 <vfscanf+0xe8>
    7160:	10 c0       	rjmp	.+32     	; 0x7182 <vfscanf+0xf6>
    7162:	fe 01       	movw	r30, r28
    7164:	e3 fc       	sbrc	r14, 3
    7166:	15 91       	lpm	r17, Z+
    7168:	e3 fe       	sbrs	r14, 3
    716a:	11 91       	ld	r17, Z+
    716c:	ef 01       	movw	r28, r30
    716e:	18 36       	cpi	r17, 0x68	; 104
    7170:	41 f4       	brne	.+16     	; 0x7182 <vfscanf+0xf6>
    7172:	08 60       	ori	r16, 0x08	; 8
    7174:	04 60       	ori	r16, 0x04	; 4
    7176:	fe 01       	movw	r30, r28
    7178:	e3 fc       	sbrc	r14, 3
    717a:	15 91       	lpm	r17, Z+
    717c:	e3 fe       	sbrs	r14, 3
    717e:	11 91       	ld	r17, Z+
    7180:	ef 01       	movw	r28, r30
    7182:	11 23       	and	r17, r17
    7184:	09 f4       	brne	.+2      	; 0x7188 <vfscanf+0xfc>
    7186:	84 c0       	rjmp	.+264    	; 0x7290 <vfscanf+0x204>
    7188:	61 2f       	mov	r22, r17
    718a:	70 e0       	ldi	r23, 0x00	; 0
    718c:	84 ea       	ldi	r24, 0xA4	; 164
    718e:	92 e0       	ldi	r25, 0x02	; 2
    7190:	d7 d1       	rcall	.+942    	; 0x7540 <strchr_P>
    7192:	89 2b       	or	r24, r25
    7194:	09 f4       	brne	.+2      	; 0x7198 <vfscanf+0x10c>
    7196:	7c c0       	rjmp	.+248    	; 0x7290 <vfscanf+0x204>
    7198:	00 fd       	sbrc	r16, 0
    719a:	07 c0       	rjmp	.+14     	; 0x71aa <vfscanf+0x11e>
    719c:	f5 01       	movw	r30, r10
    719e:	80 80       	ld	r8, Z
    71a0:	91 80       	ldd	r9, Z+1	; 0x01
    71a2:	c5 01       	movw	r24, r10
    71a4:	02 96       	adiw	r24, 0x02	; 2
    71a6:	5c 01       	movw	r10, r24
    71a8:	02 c0       	rjmp	.+4      	; 0x71ae <vfscanf+0x122>
    71aa:	81 2c       	mov	r8, r1
    71ac:	91 2c       	mov	r9, r1
    71ae:	1e 36       	cpi	r17, 0x6E	; 110
    71b0:	49 f4       	brne	.+18     	; 0x71c4 <vfscanf+0x138>
    71b2:	f6 01       	movw	r30, r12
    71b4:	46 81       	ldd	r20, Z+6	; 0x06
    71b6:	57 81       	ldd	r21, Z+7	; 0x07
    71b8:	60 e0       	ldi	r22, 0x00	; 0
    71ba:	70 e0       	ldi	r23, 0x00	; 0
    71bc:	20 2f       	mov	r18, r16
    71be:	c4 01       	movw	r24, r8
    71c0:	b9 dd       	rcall	.-1166   	; 0x6d34 <putval>
    71c2:	7a cf       	rjmp	.-268    	; 0x70b8 <vfscanf+0x2c>
    71c4:	13 36       	cpi	r17, 0x63	; 99
    71c6:	a1 f4       	brne	.+40     	; 0x71f0 <vfscanf+0x164>
    71c8:	01 fd       	sbrc	r16, 1
    71ca:	02 c0       	rjmp	.+4      	; 0x71d0 <vfscanf+0x144>
    71cc:	ff 24       	eor	r15, r15
    71ce:	f3 94       	inc	r15
    71d0:	c6 01       	movw	r24, r12
    71d2:	de d1       	rcall	.+956    	; 0x7590 <fgetc>
    71d4:	97 fd       	sbrc	r25, 7
    71d6:	5a c0       	rjmp	.+180    	; 0x728c <vfscanf+0x200>
    71d8:	81 14       	cp	r8, r1
    71da:	91 04       	cpc	r9, r1
    71dc:	29 f0       	breq	.+10     	; 0x71e8 <vfscanf+0x15c>
    71de:	f4 01       	movw	r30, r8
    71e0:	80 83       	st	Z, r24
    71e2:	c4 01       	movw	r24, r8
    71e4:	01 96       	adiw	r24, 0x01	; 1
    71e6:	4c 01       	movw	r8, r24
    71e8:	fa 94       	dec	r15
    71ea:	f1 10       	cpse	r15, r1
    71ec:	f1 cf       	rjmp	.-30     	; 0x71d0 <vfscanf+0x144>
    71ee:	4a c0       	rjmp	.+148    	; 0x7284 <vfscanf+0x1f8>
    71f0:	1b 35       	cpi	r17, 0x5B	; 91
    71f2:	51 f4       	brne	.+20     	; 0x7208 <vfscanf+0x17c>
    71f4:	9e 01       	movw	r18, r28
    71f6:	a4 01       	movw	r20, r8
    71f8:	6f 2d       	mov	r22, r15
    71fa:	c6 01       	movw	r24, r12
    71fc:	6e de       	rcall	.-804    	; 0x6eda <conv_brk>
    71fe:	ec 01       	movw	r28, r24
    7200:	89 2b       	or	r24, r25
    7202:	09 f0       	breq	.+2      	; 0x7206 <vfscanf+0x17a>
    7204:	3f c0       	rjmp	.+126    	; 0x7284 <vfscanf+0x1f8>
    7206:	39 c0       	rjmp	.+114    	; 0x727a <vfscanf+0x1ee>
    7208:	c6 01       	movw	r24, r12
    720a:	c7 dd       	rcall	.-1138   	; 0x6d9a <skip_spaces>
    720c:	97 fd       	sbrc	r25, 7
    720e:	3e c0       	rjmp	.+124    	; 0x728c <vfscanf+0x200>
    7210:	1f 36       	cpi	r17, 0x6F	; 111
    7212:	49 f1       	breq	.+82     	; 0x7266 <vfscanf+0x1da>
    7214:	28 f4       	brcc	.+10     	; 0x7220 <vfscanf+0x194>
    7216:	14 36       	cpi	r17, 0x64	; 100
    7218:	21 f1       	breq	.+72     	; 0x7262 <vfscanf+0x1d6>
    721a:	19 36       	cpi	r17, 0x69	; 105
    721c:	39 f1       	breq	.+78     	; 0x726c <vfscanf+0x1e0>
    721e:	25 c0       	rjmp	.+74     	; 0x726a <vfscanf+0x1de>
    7220:	13 37       	cpi	r17, 0x73	; 115
    7222:	71 f0       	breq	.+28     	; 0x7240 <vfscanf+0x1b4>
    7224:	15 37       	cpi	r17, 0x75	; 117
    7226:	e9 f0       	breq	.+58     	; 0x7262 <vfscanf+0x1d6>
    7228:	20 c0       	rjmp	.+64     	; 0x726a <vfscanf+0x1de>
    722a:	81 14       	cp	r8, r1
    722c:	91 04       	cpc	r9, r1
    722e:	29 f0       	breq	.+10     	; 0x723a <vfscanf+0x1ae>
    7230:	f4 01       	movw	r30, r8
    7232:	60 82       	st	Z, r6
    7234:	c4 01       	movw	r24, r8
    7236:	01 96       	adiw	r24, 0x01	; 1
    7238:	4c 01       	movw	r8, r24
    723a:	fa 94       	dec	r15
    723c:	ff 20       	and	r15, r15
    723e:	59 f0       	breq	.+22     	; 0x7256 <vfscanf+0x1ca>
    7240:	c6 01       	movw	r24, r12
    7242:	a6 d1       	rcall	.+844    	; 0x7590 <fgetc>
    7244:	3c 01       	movw	r6, r24
    7246:	97 fd       	sbrc	r25, 7
    7248:	06 c0       	rjmp	.+12     	; 0x7256 <vfscanf+0x1ca>
    724a:	72 d1       	rcall	.+740    	; 0x7530 <isspace>
    724c:	89 2b       	or	r24, r25
    724e:	69 f3       	breq	.-38     	; 0x722a <vfscanf+0x19e>
    7250:	b6 01       	movw	r22, r12
    7252:	c3 01       	movw	r24, r6
    7254:	17 d2       	rcall	.+1070   	; 0x7684 <ungetc>
    7256:	81 14       	cp	r8, r1
    7258:	91 04       	cpc	r9, r1
    725a:	a1 f0       	breq	.+40     	; 0x7284 <vfscanf+0x1f8>
    725c:	f4 01       	movw	r30, r8
    725e:	10 82       	st	Z, r1
    7260:	11 c0       	rjmp	.+34     	; 0x7284 <vfscanf+0x1f8>
    7262:	00 62       	ori	r16, 0x20	; 32
    7264:	03 c0       	rjmp	.+6      	; 0x726c <vfscanf+0x1e0>
    7266:	00 61       	ori	r16, 0x10	; 16
    7268:	01 c0       	rjmp	.+2      	; 0x726c <vfscanf+0x1e0>
    726a:	00 64       	ori	r16, 0x40	; 64
    726c:	20 2f       	mov	r18, r16
    726e:	a4 01       	movw	r20, r8
    7270:	6f 2d       	mov	r22, r15
    7272:	c6 01       	movw	r24, r12
    7274:	a8 dd       	rcall	.-1200   	; 0x6dc6 <conv_int>
    7276:	81 11       	cpse	r24, r1
    7278:	05 c0       	rjmp	.+10     	; 0x7284 <vfscanf+0x1f8>
    727a:	f6 01       	movw	r30, r12
    727c:	83 81       	ldd	r24, Z+3	; 0x03
    727e:	80 73       	andi	r24, 0x30	; 48
    7280:	29 f4       	brne	.+10     	; 0x728c <vfscanf+0x200>
    7282:	06 c0       	rjmp	.+12     	; 0x7290 <vfscanf+0x204>
    7284:	00 fd       	sbrc	r16, 0
    7286:	18 cf       	rjmp	.-464    	; 0x70b8 <vfscanf+0x2c>
    7288:	53 94       	inc	r5
    728a:	16 cf       	rjmp	.-468    	; 0x70b8 <vfscanf+0x2c>
    728c:	55 20       	and	r5, r5
    728e:	19 f0       	breq	.+6      	; 0x7296 <vfscanf+0x20a>
    7290:	85 2d       	mov	r24, r5
    7292:	90 e0       	ldi	r25, 0x00	; 0
    7294:	02 c0       	rjmp	.+4      	; 0x729a <vfscanf+0x20e>
    7296:	8f ef       	ldi	r24, 0xFF	; 255
    7298:	9f ef       	ldi	r25, 0xFF	; 255
    729a:	df 91       	pop	r29
    729c:	cf 91       	pop	r28
    729e:	1f 91       	pop	r17
    72a0:	0f 91       	pop	r16
    72a2:	ff 90       	pop	r15
    72a4:	ef 90       	pop	r14
    72a6:	df 90       	pop	r13
    72a8:	cf 90       	pop	r12
    72aa:	bf 90       	pop	r11
    72ac:	af 90       	pop	r10
    72ae:	9f 90       	pop	r9
    72b0:	8f 90       	pop	r8
    72b2:	7f 90       	pop	r7
    72b4:	6f 90       	pop	r6
    72b6:	5f 90       	pop	r5
    72b8:	08 95       	ret

000072ba <calloc>:
    72ba:	0f 93       	push	r16
    72bc:	1f 93       	push	r17
    72be:	cf 93       	push	r28
    72c0:	df 93       	push	r29
    72c2:	86 9f       	mul	r24, r22
    72c4:	80 01       	movw	r16, r0
    72c6:	87 9f       	mul	r24, r23
    72c8:	10 0d       	add	r17, r0
    72ca:	96 9f       	mul	r25, r22
    72cc:	10 0d       	add	r17, r0
    72ce:	11 24       	eor	r1, r1
    72d0:	c8 01       	movw	r24, r16
    72d2:	0d d0       	rcall	.+26     	; 0x72ee <malloc>
    72d4:	ec 01       	movw	r28, r24
    72d6:	00 97       	sbiw	r24, 0x00	; 0
    72d8:	21 f0       	breq	.+8      	; 0x72e2 <calloc+0x28>
    72da:	a8 01       	movw	r20, r16
    72dc:	60 e0       	ldi	r22, 0x00	; 0
    72de:	70 e0       	ldi	r23, 0x00	; 0
    72e0:	45 d1       	rcall	.+650    	; 0x756c <memset>
    72e2:	ce 01       	movw	r24, r28
    72e4:	df 91       	pop	r29
    72e6:	cf 91       	pop	r28
    72e8:	1f 91       	pop	r17
    72ea:	0f 91       	pop	r16
    72ec:	08 95       	ret

000072ee <malloc>:
    72ee:	0f 93       	push	r16
    72f0:	1f 93       	push	r17
    72f2:	cf 93       	push	r28
    72f4:	df 93       	push	r29
    72f6:	82 30       	cpi	r24, 0x02	; 2
    72f8:	91 05       	cpc	r25, r1
    72fa:	10 f4       	brcc	.+4      	; 0x7300 <malloc+0x12>
    72fc:	82 e0       	ldi	r24, 0x02	; 2
    72fe:	90 e0       	ldi	r25, 0x00	; 0
    7300:	e0 91 fc 22 	lds	r30, 0x22FC	; 0x8022fc <__flp>
    7304:	f0 91 fd 22 	lds	r31, 0x22FD	; 0x8022fd <__flp+0x1>
    7308:	20 e0       	ldi	r18, 0x00	; 0
    730a:	30 e0       	ldi	r19, 0x00	; 0
    730c:	a0 e0       	ldi	r26, 0x00	; 0
    730e:	b0 e0       	ldi	r27, 0x00	; 0
    7310:	30 97       	sbiw	r30, 0x00	; 0
    7312:	19 f1       	breq	.+70     	; 0x735a <malloc+0x6c>
    7314:	40 81       	ld	r20, Z
    7316:	51 81       	ldd	r21, Z+1	; 0x01
    7318:	02 81       	ldd	r16, Z+2	; 0x02
    731a:	13 81       	ldd	r17, Z+3	; 0x03
    731c:	48 17       	cp	r20, r24
    731e:	59 07       	cpc	r21, r25
    7320:	c8 f0       	brcs	.+50     	; 0x7354 <malloc+0x66>
    7322:	84 17       	cp	r24, r20
    7324:	95 07       	cpc	r25, r21
    7326:	69 f4       	brne	.+26     	; 0x7342 <malloc+0x54>
    7328:	10 97       	sbiw	r26, 0x00	; 0
    732a:	31 f0       	breq	.+12     	; 0x7338 <malloc+0x4a>
    732c:	12 96       	adiw	r26, 0x02	; 2
    732e:	0c 93       	st	X, r16
    7330:	12 97       	sbiw	r26, 0x02	; 2
    7332:	13 96       	adiw	r26, 0x03	; 3
    7334:	1c 93       	st	X, r17
    7336:	27 c0       	rjmp	.+78     	; 0x7386 <malloc+0x98>
    7338:	00 93 fc 22 	sts	0x22FC, r16	; 0x8022fc <__flp>
    733c:	10 93 fd 22 	sts	0x22FD, r17	; 0x8022fd <__flp+0x1>
    7340:	22 c0       	rjmp	.+68     	; 0x7386 <malloc+0x98>
    7342:	21 15       	cp	r18, r1
    7344:	31 05       	cpc	r19, r1
    7346:	19 f0       	breq	.+6      	; 0x734e <malloc+0x60>
    7348:	42 17       	cp	r20, r18
    734a:	53 07       	cpc	r21, r19
    734c:	18 f4       	brcc	.+6      	; 0x7354 <malloc+0x66>
    734e:	9a 01       	movw	r18, r20
    7350:	bd 01       	movw	r22, r26
    7352:	ef 01       	movw	r28, r30
    7354:	df 01       	movw	r26, r30
    7356:	f8 01       	movw	r30, r16
    7358:	db cf       	rjmp	.-74     	; 0x7310 <malloc+0x22>
    735a:	21 15       	cp	r18, r1
    735c:	31 05       	cpc	r19, r1
    735e:	f9 f0       	breq	.+62     	; 0x739e <malloc+0xb0>
    7360:	28 1b       	sub	r18, r24
    7362:	39 0b       	sbc	r19, r25
    7364:	24 30       	cpi	r18, 0x04	; 4
    7366:	31 05       	cpc	r19, r1
    7368:	80 f4       	brcc	.+32     	; 0x738a <malloc+0x9c>
    736a:	8a 81       	ldd	r24, Y+2	; 0x02
    736c:	9b 81       	ldd	r25, Y+3	; 0x03
    736e:	61 15       	cp	r22, r1
    7370:	71 05       	cpc	r23, r1
    7372:	21 f0       	breq	.+8      	; 0x737c <malloc+0x8e>
    7374:	fb 01       	movw	r30, r22
    7376:	82 83       	std	Z+2, r24	; 0x02
    7378:	93 83       	std	Z+3, r25	; 0x03
    737a:	04 c0       	rjmp	.+8      	; 0x7384 <malloc+0x96>
    737c:	80 93 fc 22 	sts	0x22FC, r24	; 0x8022fc <__flp>
    7380:	90 93 fd 22 	sts	0x22FD, r25	; 0x8022fd <__flp+0x1>
    7384:	fe 01       	movw	r30, r28
    7386:	32 96       	adiw	r30, 0x02	; 2
    7388:	44 c0       	rjmp	.+136    	; 0x7412 <malloc+0x124>
    738a:	fe 01       	movw	r30, r28
    738c:	e2 0f       	add	r30, r18
    738e:	f3 1f       	adc	r31, r19
    7390:	81 93       	st	Z+, r24
    7392:	91 93       	st	Z+, r25
    7394:	22 50       	subi	r18, 0x02	; 2
    7396:	31 09       	sbc	r19, r1
    7398:	28 83       	st	Y, r18
    739a:	39 83       	std	Y+1, r19	; 0x01
    739c:	3a c0       	rjmp	.+116    	; 0x7412 <malloc+0x124>
    739e:	20 91 fa 22 	lds	r18, 0x22FA	; 0x8022fa <__brkval>
    73a2:	30 91 fb 22 	lds	r19, 0x22FB	; 0x8022fb <__brkval+0x1>
    73a6:	23 2b       	or	r18, r19
    73a8:	41 f4       	brne	.+16     	; 0x73ba <malloc+0xcc>
    73aa:	20 91 02 20 	lds	r18, 0x2002	; 0x802002 <__malloc_heap_start>
    73ae:	30 91 03 20 	lds	r19, 0x2003	; 0x802003 <__malloc_heap_start+0x1>
    73b2:	20 93 fa 22 	sts	0x22FA, r18	; 0x8022fa <__brkval>
    73b6:	30 93 fb 22 	sts	0x22FB, r19	; 0x8022fb <__brkval+0x1>
    73ba:	20 91 00 20 	lds	r18, 0x2000	; 0x802000 <__data_start>
    73be:	30 91 01 20 	lds	r19, 0x2001	; 0x802001 <__data_start+0x1>
    73c2:	21 15       	cp	r18, r1
    73c4:	31 05       	cpc	r19, r1
    73c6:	41 f4       	brne	.+16     	; 0x73d8 <malloc+0xea>
    73c8:	2d b7       	in	r18, 0x3d	; 61
    73ca:	3e b7       	in	r19, 0x3e	; 62
    73cc:	40 91 04 20 	lds	r20, 0x2004	; 0x802004 <__malloc_margin>
    73d0:	50 91 05 20 	lds	r21, 0x2005	; 0x802005 <__malloc_margin+0x1>
    73d4:	24 1b       	sub	r18, r20
    73d6:	35 0b       	sbc	r19, r21
    73d8:	e0 91 fa 22 	lds	r30, 0x22FA	; 0x8022fa <__brkval>
    73dc:	f0 91 fb 22 	lds	r31, 0x22FB	; 0x8022fb <__brkval+0x1>
    73e0:	e2 17       	cp	r30, r18
    73e2:	f3 07       	cpc	r31, r19
    73e4:	a0 f4       	brcc	.+40     	; 0x740e <malloc+0x120>
    73e6:	2e 1b       	sub	r18, r30
    73e8:	3f 0b       	sbc	r19, r31
    73ea:	28 17       	cp	r18, r24
    73ec:	39 07       	cpc	r19, r25
    73ee:	78 f0       	brcs	.+30     	; 0x740e <malloc+0x120>
    73f0:	ac 01       	movw	r20, r24
    73f2:	4e 5f       	subi	r20, 0xFE	; 254
    73f4:	5f 4f       	sbci	r21, 0xFF	; 255
    73f6:	24 17       	cp	r18, r20
    73f8:	35 07       	cpc	r19, r21
    73fa:	48 f0       	brcs	.+18     	; 0x740e <malloc+0x120>
    73fc:	4e 0f       	add	r20, r30
    73fe:	5f 1f       	adc	r21, r31
    7400:	40 93 fa 22 	sts	0x22FA, r20	; 0x8022fa <__brkval>
    7404:	50 93 fb 22 	sts	0x22FB, r21	; 0x8022fb <__brkval+0x1>
    7408:	81 93       	st	Z+, r24
    740a:	91 93       	st	Z+, r25
    740c:	02 c0       	rjmp	.+4      	; 0x7412 <malloc+0x124>
    740e:	e0 e0       	ldi	r30, 0x00	; 0
    7410:	f0 e0       	ldi	r31, 0x00	; 0
    7412:	cf 01       	movw	r24, r30
    7414:	df 91       	pop	r29
    7416:	cf 91       	pop	r28
    7418:	1f 91       	pop	r17
    741a:	0f 91       	pop	r16
    741c:	08 95       	ret

0000741e <free>:
    741e:	cf 93       	push	r28
    7420:	df 93       	push	r29
    7422:	00 97       	sbiw	r24, 0x00	; 0
    7424:	09 f4       	brne	.+2      	; 0x7428 <free+0xa>
    7426:	81 c0       	rjmp	.+258    	; 0x752a <free+0x10c>
    7428:	fc 01       	movw	r30, r24
    742a:	32 97       	sbiw	r30, 0x02	; 2
    742c:	12 82       	std	Z+2, r1	; 0x02
    742e:	13 82       	std	Z+3, r1	; 0x03
    7430:	a0 91 fc 22 	lds	r26, 0x22FC	; 0x8022fc <__flp>
    7434:	b0 91 fd 22 	lds	r27, 0x22FD	; 0x8022fd <__flp+0x1>
    7438:	10 97       	sbiw	r26, 0x00	; 0
    743a:	81 f4       	brne	.+32     	; 0x745c <free+0x3e>
    743c:	20 81       	ld	r18, Z
    743e:	31 81       	ldd	r19, Z+1	; 0x01
    7440:	82 0f       	add	r24, r18
    7442:	93 1f       	adc	r25, r19
    7444:	20 91 fa 22 	lds	r18, 0x22FA	; 0x8022fa <__brkval>
    7448:	30 91 fb 22 	lds	r19, 0x22FB	; 0x8022fb <__brkval+0x1>
    744c:	28 17       	cp	r18, r24
    744e:	39 07       	cpc	r19, r25
    7450:	51 f5       	brne	.+84     	; 0x74a6 <free+0x88>
    7452:	e0 93 fa 22 	sts	0x22FA, r30	; 0x8022fa <__brkval>
    7456:	f0 93 fb 22 	sts	0x22FB, r31	; 0x8022fb <__brkval+0x1>
    745a:	67 c0       	rjmp	.+206    	; 0x752a <free+0x10c>
    745c:	ed 01       	movw	r28, r26
    745e:	20 e0       	ldi	r18, 0x00	; 0
    7460:	30 e0       	ldi	r19, 0x00	; 0
    7462:	ce 17       	cp	r28, r30
    7464:	df 07       	cpc	r29, r31
    7466:	40 f4       	brcc	.+16     	; 0x7478 <free+0x5a>
    7468:	4a 81       	ldd	r20, Y+2	; 0x02
    746a:	5b 81       	ldd	r21, Y+3	; 0x03
    746c:	9e 01       	movw	r18, r28
    746e:	41 15       	cp	r20, r1
    7470:	51 05       	cpc	r21, r1
    7472:	f1 f0       	breq	.+60     	; 0x74b0 <free+0x92>
    7474:	ea 01       	movw	r28, r20
    7476:	f5 cf       	rjmp	.-22     	; 0x7462 <free+0x44>
    7478:	c2 83       	std	Z+2, r28	; 0x02
    747a:	d3 83       	std	Z+3, r29	; 0x03
    747c:	40 81       	ld	r20, Z
    747e:	51 81       	ldd	r21, Z+1	; 0x01
    7480:	84 0f       	add	r24, r20
    7482:	95 1f       	adc	r25, r21
    7484:	c8 17       	cp	r28, r24
    7486:	d9 07       	cpc	r29, r25
    7488:	59 f4       	brne	.+22     	; 0x74a0 <free+0x82>
    748a:	88 81       	ld	r24, Y
    748c:	99 81       	ldd	r25, Y+1	; 0x01
    748e:	84 0f       	add	r24, r20
    7490:	95 1f       	adc	r25, r21
    7492:	02 96       	adiw	r24, 0x02	; 2
    7494:	80 83       	st	Z, r24
    7496:	91 83       	std	Z+1, r25	; 0x01
    7498:	8a 81       	ldd	r24, Y+2	; 0x02
    749a:	9b 81       	ldd	r25, Y+3	; 0x03
    749c:	82 83       	std	Z+2, r24	; 0x02
    749e:	93 83       	std	Z+3, r25	; 0x03
    74a0:	21 15       	cp	r18, r1
    74a2:	31 05       	cpc	r19, r1
    74a4:	29 f4       	brne	.+10     	; 0x74b0 <free+0x92>
    74a6:	e0 93 fc 22 	sts	0x22FC, r30	; 0x8022fc <__flp>
    74aa:	f0 93 fd 22 	sts	0x22FD, r31	; 0x8022fd <__flp+0x1>
    74ae:	3d c0       	rjmp	.+122    	; 0x752a <free+0x10c>
    74b0:	e9 01       	movw	r28, r18
    74b2:	ea 83       	std	Y+2, r30	; 0x02
    74b4:	fb 83       	std	Y+3, r31	; 0x03
    74b6:	49 91       	ld	r20, Y+
    74b8:	59 91       	ld	r21, Y+
    74ba:	c4 0f       	add	r28, r20
    74bc:	d5 1f       	adc	r29, r21
    74be:	ec 17       	cp	r30, r28
    74c0:	fd 07       	cpc	r31, r29
    74c2:	61 f4       	brne	.+24     	; 0x74dc <free+0xbe>
    74c4:	80 81       	ld	r24, Z
    74c6:	91 81       	ldd	r25, Z+1	; 0x01
    74c8:	84 0f       	add	r24, r20
    74ca:	95 1f       	adc	r25, r21
    74cc:	02 96       	adiw	r24, 0x02	; 2
    74ce:	e9 01       	movw	r28, r18
    74d0:	88 83       	st	Y, r24
    74d2:	99 83       	std	Y+1, r25	; 0x01
    74d4:	82 81       	ldd	r24, Z+2	; 0x02
    74d6:	93 81       	ldd	r25, Z+3	; 0x03
    74d8:	8a 83       	std	Y+2, r24	; 0x02
    74da:	9b 83       	std	Y+3, r25	; 0x03
    74dc:	e0 e0       	ldi	r30, 0x00	; 0
    74de:	f0 e0       	ldi	r31, 0x00	; 0
    74e0:	12 96       	adiw	r26, 0x02	; 2
    74e2:	8d 91       	ld	r24, X+
    74e4:	9c 91       	ld	r25, X
    74e6:	13 97       	sbiw	r26, 0x03	; 3
    74e8:	00 97       	sbiw	r24, 0x00	; 0
    74ea:	19 f0       	breq	.+6      	; 0x74f2 <free+0xd4>
    74ec:	fd 01       	movw	r30, r26
    74ee:	dc 01       	movw	r26, r24
    74f0:	f7 cf       	rjmp	.-18     	; 0x74e0 <free+0xc2>
    74f2:	8d 91       	ld	r24, X+
    74f4:	9c 91       	ld	r25, X
    74f6:	11 97       	sbiw	r26, 0x01	; 1
    74f8:	9d 01       	movw	r18, r26
    74fa:	2e 5f       	subi	r18, 0xFE	; 254
    74fc:	3f 4f       	sbci	r19, 0xFF	; 255
    74fe:	82 0f       	add	r24, r18
    7500:	93 1f       	adc	r25, r19
    7502:	20 91 fa 22 	lds	r18, 0x22FA	; 0x8022fa <__brkval>
    7506:	30 91 fb 22 	lds	r19, 0x22FB	; 0x8022fb <__brkval+0x1>
    750a:	28 17       	cp	r18, r24
    750c:	39 07       	cpc	r19, r25
    750e:	69 f4       	brne	.+26     	; 0x752a <free+0x10c>
    7510:	30 97       	sbiw	r30, 0x00	; 0
    7512:	29 f4       	brne	.+10     	; 0x751e <free+0x100>
    7514:	10 92 fc 22 	sts	0x22FC, r1	; 0x8022fc <__flp>
    7518:	10 92 fd 22 	sts	0x22FD, r1	; 0x8022fd <__flp+0x1>
    751c:	02 c0       	rjmp	.+4      	; 0x7522 <free+0x104>
    751e:	12 82       	std	Z+2, r1	; 0x02
    7520:	13 82       	std	Z+3, r1	; 0x03
    7522:	a0 93 fa 22 	sts	0x22FA, r26	; 0x8022fa <__brkval>
    7526:	b0 93 fb 22 	sts	0x22FB, r27	; 0x8022fb <__brkval+0x1>
    752a:	df 91       	pop	r29
    752c:	cf 91       	pop	r28
    752e:	08 95       	ret

00007530 <isspace>:
    7530:	91 11       	cpse	r25, r1
    7532:	1f c1       	rjmp	.+574    	; 0x7772 <__ctype_isfalse>
    7534:	80 32       	cpi	r24, 0x20	; 32
    7536:	19 f0       	breq	.+6      	; 0x753e <isspace+0xe>
    7538:	89 50       	subi	r24, 0x09	; 9
    753a:	85 50       	subi	r24, 0x05	; 5
    753c:	d0 f7       	brcc	.-12     	; 0x7532 <isspace+0x2>
    753e:	08 95       	ret

00007540 <strchr_P>:
    7540:	fc 01       	movw	r30, r24
    7542:	05 90       	lpm	r0, Z+
    7544:	06 16       	cp	r0, r22
    7546:	21 f0       	breq	.+8      	; 0x7550 <strchr_P+0x10>
    7548:	00 20       	and	r0, r0
    754a:	d9 f7       	brne	.-10     	; 0x7542 <strchr_P+0x2>
    754c:	c0 01       	movw	r24, r0
    754e:	08 95       	ret
    7550:	31 97       	sbiw	r30, 0x01	; 1
    7552:	cf 01       	movw	r24, r30
    7554:	08 95       	ret

00007556 <strnlen_P>:
    7556:	fc 01       	movw	r30, r24
    7558:	05 90       	lpm	r0, Z+
    755a:	61 50       	subi	r22, 0x01	; 1
    755c:	70 40       	sbci	r23, 0x00	; 0
    755e:	01 10       	cpse	r0, r1
    7560:	d8 f7       	brcc	.-10     	; 0x7558 <strnlen_P+0x2>
    7562:	80 95       	com	r24
    7564:	90 95       	com	r25
    7566:	8e 0f       	add	r24, r30
    7568:	9f 1f       	adc	r25, r31
    756a:	08 95       	ret

0000756c <memset>:
    756c:	dc 01       	movw	r26, r24
    756e:	01 c0       	rjmp	.+2      	; 0x7572 <memset+0x6>
    7570:	6d 93       	st	X+, r22
    7572:	41 50       	subi	r20, 0x01	; 1
    7574:	50 40       	sbci	r21, 0x00	; 0
    7576:	e0 f7       	brcc	.-8      	; 0x7570 <memset+0x4>
    7578:	08 95       	ret

0000757a <strnlen>:
    757a:	fc 01       	movw	r30, r24
    757c:	61 50       	subi	r22, 0x01	; 1
    757e:	70 40       	sbci	r23, 0x00	; 0
    7580:	01 90       	ld	r0, Z+
    7582:	01 10       	cpse	r0, r1
    7584:	d8 f7       	brcc	.-10     	; 0x757c <strnlen+0x2>
    7586:	80 95       	com	r24
    7588:	90 95       	com	r25
    758a:	8e 0f       	add	r24, r30
    758c:	9f 1f       	adc	r25, r31
    758e:	08 95       	ret

00007590 <fgetc>:
    7590:	cf 93       	push	r28
    7592:	df 93       	push	r29
    7594:	ec 01       	movw	r28, r24
    7596:	2b 81       	ldd	r18, Y+3	; 0x03
    7598:	20 ff       	sbrs	r18, 0
    759a:	33 c0       	rjmp	.+102    	; 0x7602 <fgetc+0x72>
    759c:	26 ff       	sbrs	r18, 6
    759e:	0a c0       	rjmp	.+20     	; 0x75b4 <fgetc+0x24>
    75a0:	2f 7b       	andi	r18, 0xBF	; 191
    75a2:	2b 83       	std	Y+3, r18	; 0x03
    75a4:	8e 81       	ldd	r24, Y+6	; 0x06
    75a6:	9f 81       	ldd	r25, Y+7	; 0x07
    75a8:	01 96       	adiw	r24, 0x01	; 1
    75aa:	8e 83       	std	Y+6, r24	; 0x06
    75ac:	9f 83       	std	Y+7, r25	; 0x07
    75ae:	8a 81       	ldd	r24, Y+2	; 0x02
    75b0:	90 e0       	ldi	r25, 0x00	; 0
    75b2:	29 c0       	rjmp	.+82     	; 0x7606 <fgetc+0x76>
    75b4:	22 ff       	sbrs	r18, 2
    75b6:	0f c0       	rjmp	.+30     	; 0x75d6 <fgetc+0x46>
    75b8:	e8 81       	ld	r30, Y
    75ba:	f9 81       	ldd	r31, Y+1	; 0x01
    75bc:	80 81       	ld	r24, Z
    75be:	08 2e       	mov	r0, r24
    75c0:	00 0c       	add	r0, r0
    75c2:	99 0b       	sbc	r25, r25
    75c4:	00 97       	sbiw	r24, 0x00	; 0
    75c6:	19 f4       	brne	.+6      	; 0x75ce <fgetc+0x3e>
    75c8:	20 62       	ori	r18, 0x20	; 32
    75ca:	2b 83       	std	Y+3, r18	; 0x03
    75cc:	1a c0       	rjmp	.+52     	; 0x7602 <fgetc+0x72>
    75ce:	31 96       	adiw	r30, 0x01	; 1
    75d0:	e8 83       	st	Y, r30
    75d2:	f9 83       	std	Y+1, r31	; 0x01
    75d4:	0e c0       	rjmp	.+28     	; 0x75f2 <fgetc+0x62>
    75d6:	ea 85       	ldd	r30, Y+10	; 0x0a
    75d8:	fb 85       	ldd	r31, Y+11	; 0x0b
    75da:	19 95       	eicall
    75dc:	97 ff       	sbrs	r25, 7
    75de:	09 c0       	rjmp	.+18     	; 0x75f2 <fgetc+0x62>
    75e0:	2b 81       	ldd	r18, Y+3	; 0x03
    75e2:	01 96       	adiw	r24, 0x01	; 1
    75e4:	11 f0       	breq	.+4      	; 0x75ea <fgetc+0x5a>
    75e6:	80 e2       	ldi	r24, 0x20	; 32
    75e8:	01 c0       	rjmp	.+2      	; 0x75ec <fgetc+0x5c>
    75ea:	80 e1       	ldi	r24, 0x10	; 16
    75ec:	82 2b       	or	r24, r18
    75ee:	8b 83       	std	Y+3, r24	; 0x03
    75f0:	08 c0       	rjmp	.+16     	; 0x7602 <fgetc+0x72>
    75f2:	2e 81       	ldd	r18, Y+6	; 0x06
    75f4:	3f 81       	ldd	r19, Y+7	; 0x07
    75f6:	2f 5f       	subi	r18, 0xFF	; 255
    75f8:	3f 4f       	sbci	r19, 0xFF	; 255
    75fa:	2e 83       	std	Y+6, r18	; 0x06
    75fc:	3f 83       	std	Y+7, r19	; 0x07
    75fe:	99 27       	eor	r25, r25
    7600:	02 c0       	rjmp	.+4      	; 0x7606 <fgetc+0x76>
    7602:	8f ef       	ldi	r24, 0xFF	; 255
    7604:	9f ef       	ldi	r25, 0xFF	; 255
    7606:	df 91       	pop	r29
    7608:	cf 91       	pop	r28
    760a:	08 95       	ret

0000760c <fputc>:
    760c:	0f 93       	push	r16
    760e:	1f 93       	push	r17
    7610:	cf 93       	push	r28
    7612:	df 93       	push	r29
    7614:	fb 01       	movw	r30, r22
    7616:	23 81       	ldd	r18, Z+3	; 0x03
    7618:	21 fd       	sbrc	r18, 1
    761a:	03 c0       	rjmp	.+6      	; 0x7622 <fputc+0x16>
    761c:	8f ef       	ldi	r24, 0xFF	; 255
    761e:	9f ef       	ldi	r25, 0xFF	; 255
    7620:	2c c0       	rjmp	.+88     	; 0x767a <fputc+0x6e>
    7622:	22 ff       	sbrs	r18, 2
    7624:	16 c0       	rjmp	.+44     	; 0x7652 <fputc+0x46>
    7626:	46 81       	ldd	r20, Z+6	; 0x06
    7628:	57 81       	ldd	r21, Z+7	; 0x07
    762a:	24 81       	ldd	r18, Z+4	; 0x04
    762c:	35 81       	ldd	r19, Z+5	; 0x05
    762e:	42 17       	cp	r20, r18
    7630:	53 07       	cpc	r21, r19
    7632:	44 f4       	brge	.+16     	; 0x7644 <fputc+0x38>
    7634:	a0 81       	ld	r26, Z
    7636:	b1 81       	ldd	r27, Z+1	; 0x01
    7638:	9d 01       	movw	r18, r26
    763a:	2f 5f       	subi	r18, 0xFF	; 255
    763c:	3f 4f       	sbci	r19, 0xFF	; 255
    763e:	20 83       	st	Z, r18
    7640:	31 83       	std	Z+1, r19	; 0x01
    7642:	8c 93       	st	X, r24
    7644:	26 81       	ldd	r18, Z+6	; 0x06
    7646:	37 81       	ldd	r19, Z+7	; 0x07
    7648:	2f 5f       	subi	r18, 0xFF	; 255
    764a:	3f 4f       	sbci	r19, 0xFF	; 255
    764c:	26 83       	std	Z+6, r18	; 0x06
    764e:	37 83       	std	Z+7, r19	; 0x07
    7650:	14 c0       	rjmp	.+40     	; 0x767a <fputc+0x6e>
    7652:	8b 01       	movw	r16, r22
    7654:	ec 01       	movw	r28, r24
    7656:	fb 01       	movw	r30, r22
    7658:	00 84       	ldd	r0, Z+8	; 0x08
    765a:	f1 85       	ldd	r31, Z+9	; 0x09
    765c:	e0 2d       	mov	r30, r0
    765e:	19 95       	eicall
    7660:	89 2b       	or	r24, r25
    7662:	e1 f6       	brne	.-72     	; 0x761c <fputc+0x10>
    7664:	d8 01       	movw	r26, r16
    7666:	16 96       	adiw	r26, 0x06	; 6
    7668:	8d 91       	ld	r24, X+
    766a:	9c 91       	ld	r25, X
    766c:	17 97       	sbiw	r26, 0x07	; 7
    766e:	01 96       	adiw	r24, 0x01	; 1
    7670:	16 96       	adiw	r26, 0x06	; 6
    7672:	8d 93       	st	X+, r24
    7674:	9c 93       	st	X, r25
    7676:	17 97       	sbiw	r26, 0x07	; 7
    7678:	ce 01       	movw	r24, r28
    767a:	df 91       	pop	r29
    767c:	cf 91       	pop	r28
    767e:	1f 91       	pop	r17
    7680:	0f 91       	pop	r16
    7682:	08 95       	ret

00007684 <ungetc>:
    7684:	fb 01       	movw	r30, r22
    7686:	23 81       	ldd	r18, Z+3	; 0x03
    7688:	20 ff       	sbrs	r18, 0
    768a:	12 c0       	rjmp	.+36     	; 0x76b0 <ungetc+0x2c>
    768c:	26 fd       	sbrc	r18, 6
    768e:	10 c0       	rjmp	.+32     	; 0x76b0 <ungetc+0x2c>
    7690:	8f 3f       	cpi	r24, 0xFF	; 255
    7692:	3f ef       	ldi	r19, 0xFF	; 255
    7694:	93 07       	cpc	r25, r19
    7696:	61 f0       	breq	.+24     	; 0x76b0 <ungetc+0x2c>
    7698:	82 83       	std	Z+2, r24	; 0x02
    769a:	2f 7d       	andi	r18, 0xDF	; 223
    769c:	20 64       	ori	r18, 0x40	; 64
    769e:	23 83       	std	Z+3, r18	; 0x03
    76a0:	26 81       	ldd	r18, Z+6	; 0x06
    76a2:	37 81       	ldd	r19, Z+7	; 0x07
    76a4:	21 50       	subi	r18, 0x01	; 1
    76a6:	31 09       	sbc	r19, r1
    76a8:	26 83       	std	Z+6, r18	; 0x06
    76aa:	37 83       	std	Z+7, r19	; 0x07
    76ac:	99 27       	eor	r25, r25
    76ae:	08 95       	ret
    76b0:	8f ef       	ldi	r24, 0xFF	; 255
    76b2:	9f ef       	ldi	r25, 0xFF	; 255
    76b4:	08 95       	ret

000076b6 <__ultoa_invert>:
    76b6:	fa 01       	movw	r30, r20
    76b8:	aa 27       	eor	r26, r26
    76ba:	28 30       	cpi	r18, 0x08	; 8
    76bc:	51 f1       	breq	.+84     	; 0x7712 <__ultoa_invert+0x5c>
    76be:	20 31       	cpi	r18, 0x10	; 16
    76c0:	81 f1       	breq	.+96     	; 0x7722 <__ultoa_invert+0x6c>
    76c2:	e8 94       	clt
    76c4:	6f 93       	push	r22
    76c6:	6e 7f       	andi	r22, 0xFE	; 254
    76c8:	6e 5f       	subi	r22, 0xFE	; 254
    76ca:	7f 4f       	sbci	r23, 0xFF	; 255
    76cc:	8f 4f       	sbci	r24, 0xFF	; 255
    76ce:	9f 4f       	sbci	r25, 0xFF	; 255
    76d0:	af 4f       	sbci	r26, 0xFF	; 255
    76d2:	b1 e0       	ldi	r27, 0x01	; 1
    76d4:	3e d0       	rcall	.+124    	; 0x7752 <__ultoa_invert+0x9c>
    76d6:	b4 e0       	ldi	r27, 0x04	; 4
    76d8:	3c d0       	rcall	.+120    	; 0x7752 <__ultoa_invert+0x9c>
    76da:	67 0f       	add	r22, r23
    76dc:	78 1f       	adc	r23, r24
    76de:	89 1f       	adc	r24, r25
    76e0:	9a 1f       	adc	r25, r26
    76e2:	a1 1d       	adc	r26, r1
    76e4:	68 0f       	add	r22, r24
    76e6:	79 1f       	adc	r23, r25
    76e8:	8a 1f       	adc	r24, r26
    76ea:	91 1d       	adc	r25, r1
    76ec:	a1 1d       	adc	r26, r1
    76ee:	6a 0f       	add	r22, r26
    76f0:	71 1d       	adc	r23, r1
    76f2:	81 1d       	adc	r24, r1
    76f4:	91 1d       	adc	r25, r1
    76f6:	a1 1d       	adc	r26, r1
    76f8:	20 d0       	rcall	.+64     	; 0x773a <__ultoa_invert+0x84>
    76fa:	09 f4       	brne	.+2      	; 0x76fe <__ultoa_invert+0x48>
    76fc:	68 94       	set
    76fe:	3f 91       	pop	r19
    7700:	2a e0       	ldi	r18, 0x0A	; 10
    7702:	26 9f       	mul	r18, r22
    7704:	11 24       	eor	r1, r1
    7706:	30 19       	sub	r19, r0
    7708:	30 5d       	subi	r19, 0xD0	; 208
    770a:	31 93       	st	Z+, r19
    770c:	de f6       	brtc	.-74     	; 0x76c4 <__ultoa_invert+0xe>
    770e:	cf 01       	movw	r24, r30
    7710:	08 95       	ret
    7712:	46 2f       	mov	r20, r22
    7714:	47 70       	andi	r20, 0x07	; 7
    7716:	40 5d       	subi	r20, 0xD0	; 208
    7718:	41 93       	st	Z+, r20
    771a:	b3 e0       	ldi	r27, 0x03	; 3
    771c:	0f d0       	rcall	.+30     	; 0x773c <__ultoa_invert+0x86>
    771e:	c9 f7       	brne	.-14     	; 0x7712 <__ultoa_invert+0x5c>
    7720:	f6 cf       	rjmp	.-20     	; 0x770e <__ultoa_invert+0x58>
    7722:	46 2f       	mov	r20, r22
    7724:	4f 70       	andi	r20, 0x0F	; 15
    7726:	40 5d       	subi	r20, 0xD0	; 208
    7728:	4a 33       	cpi	r20, 0x3A	; 58
    772a:	18 f0       	brcs	.+6      	; 0x7732 <__ultoa_invert+0x7c>
    772c:	49 5d       	subi	r20, 0xD9	; 217
    772e:	31 fd       	sbrc	r19, 1
    7730:	40 52       	subi	r20, 0x20	; 32
    7732:	41 93       	st	Z+, r20
    7734:	02 d0       	rcall	.+4      	; 0x773a <__ultoa_invert+0x84>
    7736:	a9 f7       	brne	.-22     	; 0x7722 <__ultoa_invert+0x6c>
    7738:	ea cf       	rjmp	.-44     	; 0x770e <__ultoa_invert+0x58>
    773a:	b4 e0       	ldi	r27, 0x04	; 4
    773c:	a6 95       	lsr	r26
    773e:	97 95       	ror	r25
    7740:	87 95       	ror	r24
    7742:	77 95       	ror	r23
    7744:	67 95       	ror	r22
    7746:	ba 95       	dec	r27
    7748:	c9 f7       	brne	.-14     	; 0x773c <__ultoa_invert+0x86>
    774a:	00 97       	sbiw	r24, 0x00	; 0
    774c:	61 05       	cpc	r22, r1
    774e:	71 05       	cpc	r23, r1
    7750:	08 95       	ret
    7752:	9b 01       	movw	r18, r22
    7754:	ac 01       	movw	r20, r24
    7756:	0a 2e       	mov	r0, r26
    7758:	06 94       	lsr	r0
    775a:	57 95       	ror	r21
    775c:	47 95       	ror	r20
    775e:	37 95       	ror	r19
    7760:	27 95       	ror	r18
    7762:	ba 95       	dec	r27
    7764:	c9 f7       	brne	.-14     	; 0x7758 <__ultoa_invert+0xa2>
    7766:	62 0f       	add	r22, r18
    7768:	73 1f       	adc	r23, r19
    776a:	84 1f       	adc	r24, r20
    776c:	95 1f       	adc	r25, r21
    776e:	a0 1d       	adc	r26, r0
    7770:	08 95       	ret

00007772 <__ctype_isfalse>:
    7772:	99 27       	eor	r25, r25
    7774:	88 27       	eor	r24, r24

00007776 <__ctype_istrue>:
    7776:	08 95       	ret

00007778 <_exit>:
    7778:	f8 94       	cli

0000777a <__stop_program>:
    777a:	ff cf       	rjmp	.-2      	; 0x777a <__stop_program>
