
SkyFire.elf:     file format elf32-avr

Sections:
Idx Name          Size      VMA       LMA       File off  Algn
  0 .text         0000215a  00000000  00000000  00000094  2**1
                  CONTENTS, ALLOC, LOAD, READONLY, CODE
  1 .data         00000044  00802000  0000215a  000021ee  2**0
                  CONTENTS, ALLOC, LOAD, DATA
  2 .bss          00000025  00802044  00802044  00002232  2**0
                  ALLOC
  3 .comment      0000005c  00000000  00000000  00002232  2**0
                  CONTENTS, READONLY
  4 .note.gnu.avr.deviceinfo 00000040  00000000  00000000  00002290  2**2
                  CONTENTS, READONLY
  5 .debug_aranges 00000020  00000000  00000000  000022d0  2**3
                  CONTENTS, READONLY, DEBUGGING
  6 .debug_info   00003eff  00000000  00000000  000022f0  2**0
                  CONTENTS, READONLY, DEBUGGING
  7 .debug_abbrev 00003b22  00000000  00000000  000061ef  2**0
                  CONTENTS, READONLY, DEBUGGING
  8 .debug_line   00000423  00000000  00000000  00009d11  2**0
                  CONTENTS, READONLY, DEBUGGING
  9 .debug_str    00002969  00000000  00000000  0000a134  2**0
                  CONTENTS, READONLY, DEBUGGING

Disassembly of section .text:

00000000 <__vectors>:
       0:	3e c1       	rjmp	.+636    	; 0x27e <__ctors_end>
       2:	00 00       	nop
       4:	61 c1       	rjmp	.+706    	; 0x2c8 <__bad_interrupt>
       6:	00 00       	nop
       8:	5f c1       	rjmp	.+702    	; 0x2c8 <__bad_interrupt>
       a:	00 00       	nop
       c:	5d c1       	rjmp	.+698    	; 0x2c8 <__bad_interrupt>
       e:	00 00       	nop
      10:	5b c1       	rjmp	.+694    	; 0x2c8 <__bad_interrupt>
      12:	00 00       	nop
      14:	59 c1       	rjmp	.+690    	; 0x2c8 <__bad_interrupt>
      16:	00 00       	nop
      18:	57 c1       	rjmp	.+686    	; 0x2c8 <__bad_interrupt>
      1a:	00 00       	nop
      1c:	55 c1       	rjmp	.+682    	; 0x2c8 <__bad_interrupt>
      1e:	00 00       	nop
      20:	53 c1       	rjmp	.+678    	; 0x2c8 <__bad_interrupt>
      22:	00 00       	nop
      24:	51 c1       	rjmp	.+674    	; 0x2c8 <__bad_interrupt>
      26:	00 00       	nop
      28:	4f c1       	rjmp	.+670    	; 0x2c8 <__bad_interrupt>
      2a:	00 00       	nop
      2c:	4d c1       	rjmp	.+666    	; 0x2c8 <__bad_interrupt>
      2e:	00 00       	nop
      30:	4b c1       	rjmp	.+662    	; 0x2c8 <__bad_interrupt>
      32:	00 00       	nop
      34:	49 c1       	rjmp	.+658    	; 0x2c8 <__bad_interrupt>
      36:	00 00       	nop
      38:	47 c1       	rjmp	.+654    	; 0x2c8 <__bad_interrupt>
      3a:	00 00       	nop
      3c:	45 c1       	rjmp	.+650    	; 0x2c8 <__bad_interrupt>
      3e:	00 00       	nop
      40:	43 c1       	rjmp	.+646    	; 0x2c8 <__bad_interrupt>
      42:	00 00       	nop
      44:	41 c1       	rjmp	.+642    	; 0x2c8 <__bad_interrupt>
      46:	00 00       	nop
      48:	3f c1       	rjmp	.+638    	; 0x2c8 <__bad_interrupt>
      4a:	00 00       	nop
      4c:	3d c1       	rjmp	.+634    	; 0x2c8 <__bad_interrupt>
      4e:	00 00       	nop
      50:	3b c1       	rjmp	.+630    	; 0x2c8 <__bad_interrupt>
      52:	00 00       	nop
      54:	39 c1       	rjmp	.+626    	; 0x2c8 <__bad_interrupt>
      56:	00 00       	nop
      58:	37 c1       	rjmp	.+622    	; 0x2c8 <__bad_interrupt>
      5a:	00 00       	nop
      5c:	35 c1       	rjmp	.+618    	; 0x2c8 <__bad_interrupt>
      5e:	00 00       	nop
      60:	33 c1       	rjmp	.+614    	; 0x2c8 <__bad_interrupt>
      62:	00 00       	nop
      64:	31 c1       	rjmp	.+610    	; 0x2c8 <__bad_interrupt>
      66:	00 00       	nop
      68:	2f c1       	rjmp	.+606    	; 0x2c8 <__bad_interrupt>
      6a:	00 00       	nop
      6c:	2d c1       	rjmp	.+602    	; 0x2c8 <__bad_interrupt>
      6e:	00 00       	nop
      70:	2b c1       	rjmp	.+598    	; 0x2c8 <__bad_interrupt>
      72:	00 00       	nop
      74:	29 c1       	rjmp	.+594    	; 0x2c8 <__bad_interrupt>
      76:	00 00       	nop
      78:	27 c1       	rjmp	.+590    	; 0x2c8 <__bad_interrupt>
      7a:	00 00       	nop
      7c:	25 c1       	rjmp	.+586    	; 0x2c8 <__bad_interrupt>
      7e:	00 00       	nop
      80:	23 c1       	rjmp	.+582    	; 0x2c8 <__bad_interrupt>
      82:	00 00       	nop
      84:	21 c1       	rjmp	.+578    	; 0x2c8 <__bad_interrupt>
      86:	00 00       	nop
      88:	1f c1       	rjmp	.+574    	; 0x2c8 <__bad_interrupt>
      8a:	00 00       	nop
      8c:	1d c1       	rjmp	.+570    	; 0x2c8 <__bad_interrupt>
      8e:	00 00       	nop
      90:	1b c1       	rjmp	.+566    	; 0x2c8 <__bad_interrupt>
      92:	00 00       	nop
      94:	19 c1       	rjmp	.+562    	; 0x2c8 <__bad_interrupt>
      96:	00 00       	nop
      98:	17 c1       	rjmp	.+558    	; 0x2c8 <__bad_interrupt>
      9a:	00 00       	nop
      9c:	1c c5       	rjmp	.+2616   	; 0xad6 <__vector_39>
      9e:	00 00       	nop
      a0:	57 c5       	rjmp	.+2734   	; 0xb50 <__vector_40>
      a2:	00 00       	nop
      a4:	92 c5       	rjmp	.+2852   	; 0xbca <__vector_41>
      a6:	00 00       	nop
      a8:	cd c5       	rjmp	.+2970   	; 0xc44 <__vector_42>
      aa:	00 00       	nop
      ac:	0d c1       	rjmp	.+538    	; 0x2c8 <__bad_interrupt>
      ae:	00 00       	nop
      b0:	0b c1       	rjmp	.+534    	; 0x2c8 <__bad_interrupt>
      b2:	00 00       	nop
      b4:	09 c1       	rjmp	.+530    	; 0x2c8 <__bad_interrupt>
      b6:	00 00       	nop
      b8:	07 c1       	rjmp	.+526    	; 0x2c8 <__bad_interrupt>
      ba:	00 00       	nop
      bc:	05 c1       	rjmp	.+522    	; 0x2c8 <__bad_interrupt>
      be:	00 00       	nop
      c0:	03 c1       	rjmp	.+518    	; 0x2c8 <__bad_interrupt>
      c2:	00 00       	nop
      c4:	01 c1       	rjmp	.+514    	; 0x2c8 <__bad_interrupt>
      c6:	00 00       	nop
      c8:	ff c0       	rjmp	.+510    	; 0x2c8 <__bad_interrupt>
      ca:	00 00       	nop
      cc:	fd c0       	rjmp	.+506    	; 0x2c8 <__bad_interrupt>
      ce:	00 00       	nop
      d0:	fb c0       	rjmp	.+502    	; 0x2c8 <__bad_interrupt>
      d2:	00 00       	nop
      d4:	f9 c0       	rjmp	.+498    	; 0x2c8 <__bad_interrupt>
      d6:	00 00       	nop
      d8:	f7 c0       	rjmp	.+494    	; 0x2c8 <__bad_interrupt>
      da:	00 00       	nop
      dc:	f5 c0       	rjmp	.+490    	; 0x2c8 <__bad_interrupt>
      de:	00 00       	nop
      e0:	f3 c0       	rjmp	.+486    	; 0x2c8 <__bad_interrupt>
      e2:	00 00       	nop
      e4:	f1 c0       	rjmp	.+482    	; 0x2c8 <__bad_interrupt>
      e6:	00 00       	nop
      e8:	ef c0       	rjmp	.+478    	; 0x2c8 <__bad_interrupt>
      ea:	00 00       	nop
      ec:	ed c0       	rjmp	.+474    	; 0x2c8 <__bad_interrupt>
      ee:	00 00       	nop
      f0:	eb c0       	rjmp	.+470    	; 0x2c8 <__bad_interrupt>
      f2:	00 00       	nop
      f4:	e9 c0       	rjmp	.+466    	; 0x2c8 <__bad_interrupt>
      f6:	00 00       	nop
      f8:	e7 c0       	rjmp	.+462    	; 0x2c8 <__bad_interrupt>
      fa:	00 00       	nop
      fc:	e5 c0       	rjmp	.+458    	; 0x2c8 <__bad_interrupt>
      fe:	00 00       	nop
     100:	e3 c0       	rjmp	.+454    	; 0x2c8 <__bad_interrupt>
     102:	00 00       	nop
     104:	e1 c0       	rjmp	.+450    	; 0x2c8 <__bad_interrupt>
     106:	00 00       	nop
     108:	df c0       	rjmp	.+446    	; 0x2c8 <__bad_interrupt>
     10a:	00 00       	nop
     10c:	dd c0       	rjmp	.+442    	; 0x2c8 <__bad_interrupt>
     10e:	00 00       	nop
     110:	db c0       	rjmp	.+438    	; 0x2c8 <__bad_interrupt>
     112:	00 00       	nop
     114:	d9 c0       	rjmp	.+434    	; 0x2c8 <__bad_interrupt>
     116:	00 00       	nop
     118:	d7 c0       	rjmp	.+430    	; 0x2c8 <__bad_interrupt>
     11a:	00 00       	nop
     11c:	e8 c3       	rjmp	.+2000   	; 0x8ee <__vector_71>
     11e:	00 00       	nop
     120:	23 c4       	rjmp	.+2118   	; 0x968 <__vector_72>
     122:	00 00       	nop
     124:	5e c4       	rjmp	.+2236   	; 0x9e2 <__vector_73>
     126:	00 00       	nop
     128:	99 c4       	rjmp	.+2354   	; 0xa5c <__vector_74>
     12a:	00 00       	nop
     12c:	cd c0       	rjmp	.+410    	; 0x2c8 <__bad_interrupt>
     12e:	00 00       	nop
     130:	cb c0       	rjmp	.+406    	; 0x2c8 <__bad_interrupt>
     132:	00 00       	nop
     134:	c9 c0       	rjmp	.+402    	; 0x2c8 <__bad_interrupt>
     136:	00 00       	nop
     138:	c7 c0       	rjmp	.+398    	; 0x2c8 <__bad_interrupt>
     13a:	00 00       	nop
     13c:	c5 c0       	rjmp	.+394    	; 0x2c8 <__bad_interrupt>
     13e:	00 00       	nop
     140:	c3 c0       	rjmp	.+390    	; 0x2c8 <__bad_interrupt>
     142:	00 00       	nop
     144:	c1 c0       	rjmp	.+386    	; 0x2c8 <__bad_interrupt>
     146:	00 00       	nop
     148:	bf c0       	rjmp	.+382    	; 0x2c8 <__bad_interrupt>
     14a:	00 00       	nop
     14c:	bd c0       	rjmp	.+378    	; 0x2c8 <__bad_interrupt>
     14e:	00 00       	nop
     150:	bb c0       	rjmp	.+374    	; 0x2c8 <__bad_interrupt>
     152:	00 00       	nop
     154:	b9 c0       	rjmp	.+370    	; 0x2c8 <__bad_interrupt>
     156:	00 00       	nop
     158:	b7 c0       	rjmp	.+366    	; 0x2c8 <__bad_interrupt>
     15a:	00 00       	nop
     15c:	b5 c0       	rjmp	.+362    	; 0x2c8 <__bad_interrupt>
     15e:	00 00       	nop
     160:	b3 c0       	rjmp	.+358    	; 0x2c8 <__bad_interrupt>
     162:	00 00       	nop
     164:	b1 c0       	rjmp	.+354    	; 0x2c8 <__bad_interrupt>
     166:	00 00       	nop
     168:	af c0       	rjmp	.+350    	; 0x2c8 <__bad_interrupt>
     16a:	00 00       	nop
     16c:	ad c0       	rjmp	.+346    	; 0x2c8 <__bad_interrupt>
     16e:	00 00       	nop
     170:	ab c0       	rjmp	.+342    	; 0x2c8 <__bad_interrupt>
     172:	00 00       	nop
     174:	a9 c0       	rjmp	.+338    	; 0x2c8 <__bad_interrupt>
     176:	00 00       	nop
     178:	a7 c0       	rjmp	.+334    	; 0x2c8 <__bad_interrupt>
     17a:	00 00       	nop
     17c:	a5 c0       	rjmp	.+330    	; 0x2c8 <__bad_interrupt>
     17e:	00 00       	nop
     180:	a3 c0       	rjmp	.+326    	; 0x2c8 <__bad_interrupt>
     182:	00 00       	nop
     184:	a1 c0       	rjmp	.+322    	; 0x2c8 <__bad_interrupt>
     186:	00 00       	nop
     188:	9f c0       	rjmp	.+318    	; 0x2c8 <__bad_interrupt>
     18a:	00 00       	nop
     18c:	9d c0       	rjmp	.+314    	; 0x2c8 <__bad_interrupt>
     18e:	00 00       	nop
     190:	9b c0       	rjmp	.+310    	; 0x2c8 <__bad_interrupt>
     192:	00 00       	nop
     194:	99 c0       	rjmp	.+306    	; 0x2c8 <__bad_interrupt>
     196:	00 00       	nop
     198:	97 c0       	rjmp	.+302    	; 0x2c8 <__bad_interrupt>
     19a:	00 00       	nop
     19c:	95 c0       	rjmp	.+298    	; 0x2c8 <__bad_interrupt>
     19e:	00 00       	nop
     1a0:	93 c0       	rjmp	.+294    	; 0x2c8 <__bad_interrupt>
     1a2:	00 00       	nop
     1a4:	91 c0       	rjmp	.+290    	; 0x2c8 <__bad_interrupt>
     1a6:	00 00       	nop
     1a8:	8f c0       	rjmp	.+286    	; 0x2c8 <__bad_interrupt>
     1aa:	00 00       	nop
     1ac:	8d c0       	rjmp	.+282    	; 0x2c8 <__bad_interrupt>
     1ae:	00 00       	nop
     1b0:	8b c0       	rjmp	.+278    	; 0x2c8 <__bad_interrupt>
     1b2:	00 00       	nop
     1b4:	89 c0       	rjmp	.+274    	; 0x2c8 <__bad_interrupt>
     1b6:	00 00       	nop
     1b8:	87 c0       	rjmp	.+270    	; 0x2c8 <__bad_interrupt>
     1ba:	00 00       	nop
     1bc:	85 c0       	rjmp	.+266    	; 0x2c8 <__bad_interrupt>
     1be:	00 00       	nop
     1c0:	83 c0       	rjmp	.+262    	; 0x2c8 <__bad_interrupt>
     1c2:	00 00       	nop
     1c4:	81 c0       	rjmp	.+258    	; 0x2c8 <__bad_interrupt>
     1c6:	00 00       	nop
     1c8:	7f c0       	rjmp	.+254    	; 0x2c8 <__bad_interrupt>
     1ca:	00 00       	nop
     1cc:	7d c0       	rjmp	.+250    	; 0x2c8 <__bad_interrupt>
     1ce:	00 00       	nop
     1d0:	7b c0       	rjmp	.+246    	; 0x2c8 <__bad_interrupt>
     1d2:	00 00       	nop
     1d4:	79 c0       	rjmp	.+242    	; 0x2c8 <__bad_interrupt>
     1d6:	00 00       	nop
     1d8:	77 c0       	rjmp	.+238    	; 0x2c8 <__bad_interrupt>
     1da:	00 00       	nop
     1dc:	75 c0       	rjmp	.+234    	; 0x2c8 <__bad_interrupt>
     1de:	00 00       	nop
     1e0:	73 c0       	rjmp	.+230    	; 0x2c8 <__bad_interrupt>
     1e2:	00 00       	nop
     1e4:	71 c0       	rjmp	.+226    	; 0x2c8 <__bad_interrupt>
     1e6:	00 00       	nop
     1e8:	6f c0       	rjmp	.+222    	; 0x2c8 <__bad_interrupt>
     1ea:	00 00       	nop
     1ec:	6d c0       	rjmp	.+218    	; 0x2c8 <__bad_interrupt>
     1ee:	00 00       	nop
     1f0:	6b c0       	rjmp	.+214    	; 0x2c8 <__bad_interrupt>
     1f2:	00 00       	nop
     1f4:	69 c0       	rjmp	.+210    	; 0x2c8 <__bad_interrupt>
     1f6:	00 00       	nop
     1f8:	67 c0       	rjmp	.+206    	; 0x2c8 <__bad_interrupt>
     1fa:	00 00       	nop
     1fc:	08 00       	.word	0x0008	; ????
     1fe:	00 00       	nop
     200:	be 92       	st	-X, r11
     202:	24 49       	sbci	r18, 0x94	; 148
     204:	12 3e       	cpi	r17, 0xE2	; 226
     206:	ab aa       	std	Y+51, r10	; 0x33
     208:	aa 2a       	or	r10, r26
     20a:	be cd       	rjmp	.-1156   	; 0xfffffd88 <__eeprom_end+0xff7efd88>
     20c:	cc cc       	rjmp	.-1640   	; 0xfffffba6 <__eeprom_end+0xff7efba6>
     20e:	4c 3e       	cpi	r20, 0xEC	; 236
     210:	00 00       	nop
     212:	00 80       	ld	r0, Z
     214:	be ab       	std	Y+54, r27	; 0x36
     216:	aa aa       	std	Y+50, r10	; 0x32
     218:	aa 3e       	cpi	r26, 0xEA	; 234
     21a:	00 00       	nop
     21c:	00 00       	nop
     21e:	bf 00       	.word	0x00bf	; ????
     220:	00 00       	nop
     222:	80 3f       	cpi	r24, 0xF0	; 240
     224:	00 00       	nop
     226:	00 00       	nop
     228:	00 08       	sbc	r0, r0
     22a:	41 78       	andi	r20, 0x81	; 129
     22c:	d3 bb       	out	0x13, r29	; 19
     22e:	43 87       	std	Z+11, r20	; 0x0b
     230:	d1 13       	cpse	r29, r17
     232:	3d 19       	sub	r19, r13
     234:	0e 3c       	cpi	r16, 0xCE	; 206
     236:	c3 bd       	out	0x23, r28	; 35
     238:	42 82       	std	Z+2, r4	; 0x02
     23a:	ad 2b       	or	r26, r29
     23c:	3e 68       	ori	r19, 0x8E	; 142
     23e:	ec 82       	std	Y+4, r14	; 0x04
     240:	76 be       	out	0x36, r7	; 54
     242:	d9 8f       	std	Y+25, r29	; 0x19
     244:	e1 a9       	ldd	r30, Z+49	; 0x31
     246:	3e 4c       	sbci	r19, 0xCE	; 206
     248:	80 ef       	ldi	r24, 0xF0	; 240
     24a:	ff be       	out	0x3f, r15	; 63
     24c:	01 c4       	rjmp	.+2050   	; 0xa50 <__vector_73+0x6e>
     24e:	ff 7f       	andi	r31, 0xFF	; 255
     250:	3f 00       	.word	0x003f	; ????
     252:	00 00       	nop
     254:	00 00       	nop
     256:	07 63       	ori	r16, 0x37	; 55
     258:	42 36       	cpi	r20, 0x62	; 98
     25a:	b7 9b       	sbis	0x16, 7	; 22
     25c:	d8 a7       	std	Y+40, r29	; 0x28
     25e:	1a 39       	cpi	r17, 0x9A	; 154
     260:	68 56       	subi	r22, 0x68	; 104
     262:	18 ae       	std	Y+56, r1	; 0x38
     264:	ba ab       	std	Y+50, r27	; 0x32
     266:	55 8c       	ldd	r5, Z+29	; 0x1d
     268:	1d 3c       	cpi	r17, 0xCD	; 205
     26a:	b7 cc       	rjmp	.-1682   	; 0xfffffbda <__eeprom_end+0xff7efbda>
     26c:	57 63       	ori	r21, 0x37	; 55
     26e:	bd 6d       	ori	r27, 0xDD	; 221
     270:	ed fd       	.word	0xfded	; ????
     272:	75 3e       	cpi	r23, 0xE5	; 229
     274:	f6 17       	cp	r31, r22
     276:	72 31       	cpi	r23, 0x12	; 18
     278:	bf 00       	.word	0x00bf	; ????
     27a:	00 00       	nop
     27c:	80 3f       	cpi	r24, 0xF0	; 240

0000027e <__ctors_end>:
     27e:	11 24       	eor	r1, r1
     280:	1f be       	out	0x3f, r1	; 63
     282:	cf ef       	ldi	r28, 0xFF	; 255
     284:	cd bf       	out	0x3d, r28	; 61
     286:	df e3       	ldi	r29, 0x3F	; 63
     288:	de bf       	out	0x3e, r29	; 62
     28a:	00 e0       	ldi	r16, 0x00	; 0
     28c:	0c bf       	out	0x3c, r16	; 60
     28e:	18 be       	out	0x38, r1	; 56
     290:	19 be       	out	0x39, r1	; 57
     292:	1a be       	out	0x3a, r1	; 58
     294:	1b be       	out	0x3b, r1	; 59

00000296 <__do_copy_data>:
     296:	10 e2       	ldi	r17, 0x20	; 32
     298:	a0 e0       	ldi	r26, 0x00	; 0
     29a:	b0 e2       	ldi	r27, 0x20	; 32
     29c:	ea e5       	ldi	r30, 0x5A	; 90
     29e:	f1 e2       	ldi	r31, 0x21	; 33
     2a0:	00 e0       	ldi	r16, 0x00	; 0
     2a2:	0b bf       	out	0x3b, r16	; 59
     2a4:	02 c0       	rjmp	.+4      	; 0x2aa <__do_copy_data+0x14>
     2a6:	07 90       	elpm	r0, Z+
     2a8:	0d 92       	st	X+, r0
     2aa:	a4 34       	cpi	r26, 0x44	; 68
     2ac:	b1 07       	cpc	r27, r17
     2ae:	d9 f7       	brne	.-10     	; 0x2a6 <__do_copy_data+0x10>
     2b0:	1b be       	out	0x3b, r1	; 59

000002b2 <__do_clear_bss>:
     2b2:	20 e2       	ldi	r18, 0x20	; 32
     2b4:	a4 e4       	ldi	r26, 0x44	; 68
     2b6:	b0 e2       	ldi	r27, 0x20	; 32
     2b8:	01 c0       	rjmp	.+2      	; 0x2bc <.do_clear_bss_start>

000002ba <.do_clear_bss_loop>:
     2ba:	1d 92       	st	X+, r1

000002bc <.do_clear_bss_start>:
     2bc:	a9 36       	cpi	r26, 0x69	; 105
     2be:	b2 07       	cpc	r27, r18
     2c0:	e1 f7       	brne	.-8      	; 0x2ba <.do_clear_bss_loop>
     2c2:	fa d6       	rcall	.+3572   	; 0x10b8 <main>
     2c4:	0c 94 ab 10 	jmp	0x2156	; 0x2156 <_exit>

000002c8 <__bad_interrupt>:
     2c8:	9b ce       	rjmp	.-714    	; 0x0 <__vectors>

000002ca <_read>:
     2ca:	cf 93       	push	r28
     2cc:	df 93       	push	r29
     2ce:	1f 92       	push	r1
     2d0:	cd b7       	in	r28, 0x3d	; 61
     2d2:	de b7       	in	r29, 0x3e	; 62
     2d4:	80 91 59 20 	lds	r24, 0x2059	; 0x802059 <stdio_base>
     2d8:	90 91 5a 20 	lds	r25, 0x205A	; 0x80205a <stdio_base+0x1>
     2dc:	e0 91 55 20 	lds	r30, 0x2055	; 0x802055 <ptr_get>
     2e0:	f0 91 56 20 	lds	r31, 0x2056	; 0x802056 <ptr_get+0x1>
     2e4:	be 01       	movw	r22, r28
     2e6:	6f 5f       	subi	r22, 0xFF	; 255
     2e8:	7f 4f       	sbci	r23, 0xFF	; 255
     2ea:	19 95       	eicall
     2ec:	89 81       	ldd	r24, Y+1	; 0x01
     2ee:	08 2e       	mov	r0, r24
     2f0:	00 0c       	add	r0, r0
     2f2:	99 0b       	sbc	r25, r25
     2f4:	0f 90       	pop	r0
     2f6:	df 91       	pop	r29
     2f8:	cf 91       	pop	r28
     2fa:	08 95       	ret

000002fc <_write>:
     2fc:	68 2f       	mov	r22, r24
     2fe:	80 91 59 20 	lds	r24, 0x2059	; 0x802059 <stdio_base>
     302:	90 91 5a 20 	lds	r25, 0x205A	; 0x80205a <stdio_base+0x1>
     306:	e0 91 57 20 	lds	r30, 0x2057	; 0x802057 <ptr_put>
     30a:	f0 91 58 20 	lds	r31, 0x2058	; 0x802058 <ptr_put+0x1>
     30e:	19 95       	eicall
     310:	97 fd       	sbrc	r25, 7
     312:	03 c0       	rjmp	.+6      	; 0x31a <_write+0x1e>
     314:	81 e0       	ldi	r24, 0x01	; 1
     316:	90 e0       	ldi	r25, 0x00	; 0
     318:	08 95       	ret
     31a:	8f ef       	ldi	r24, 0xFF	; 255
     31c:	9f ef       	ldi	r25, 0xFF	; 255
     31e:	08 95       	ret

00000320 <sysclk_enable_peripheral_clock>:
     320:	00 97       	sbiw	r24, 0x00	; 0
     322:	09 f4       	brne	.+2      	; 0x326 <sysclk_enable_peripheral_clock+0x6>
     324:	ef c0       	rjmp	.+478    	; 0x504 <__LOCK_REGION_LENGTH__+0x104>
     326:	80 3c       	cpi	r24, 0xC0	; 192
     328:	91 05       	cpc	r25, r1
     32a:	11 f4       	brne	.+4      	; 0x330 <sysclk_enable_peripheral_clock+0x10>
     32c:	60 e1       	ldi	r22, 0x10	; 16
     32e:	05 c0       	rjmp	.+10     	; 0x33a <sysclk_enable_peripheral_clock+0x1a>
     330:	80 34       	cpi	r24, 0x40	; 64
     332:	24 e0       	ldi	r18, 0x04	; 4
     334:	92 07       	cpc	r25, r18
     336:	19 f4       	brne	.+6      	; 0x33e <sysclk_enable_peripheral_clock+0x1e>
     338:	68 e0       	ldi	r22, 0x08	; 8
     33a:	80 e0       	ldi	r24, 0x00	; 0
     33c:	e2 c0       	rjmp	.+452    	; 0x502 <__LOCK_REGION_LENGTH__+0x102>
     33e:	81 15       	cp	r24, r1
     340:	24 e0       	ldi	r18, 0x04	; 4
     342:	92 07       	cpc	r25, r18
     344:	11 f4       	brne	.+4      	; 0x34a <sysclk_enable_peripheral_clock+0x2a>
     346:	64 e0       	ldi	r22, 0x04	; 4
     348:	f8 cf       	rjmp	.-16     	; 0x33a <sysclk_enable_peripheral_clock+0x1a>
     34a:	80 38       	cpi	r24, 0x80	; 128
     34c:	21 e0       	ldi	r18, 0x01	; 1
     34e:	92 07       	cpc	r25, r18
     350:	11 f4       	brne	.+4      	; 0x356 <sysclk_enable_peripheral_clock+0x36>
     352:	62 e0       	ldi	r22, 0x02	; 2
     354:	f2 cf       	rjmp	.-28     	; 0x33a <sysclk_enable_peripheral_clock+0x1a>
     356:	81 15       	cp	r24, r1
     358:	21 e0       	ldi	r18, 0x01	; 1
     35a:	92 07       	cpc	r25, r18
     35c:	11 f4       	brne	.+4      	; 0x362 <sysclk_enable_peripheral_clock+0x42>
     35e:	61 e0       	ldi	r22, 0x01	; 1
     360:	ec cf       	rjmp	.-40     	; 0x33a <sysclk_enable_peripheral_clock+0x1a>
     362:	80 38       	cpi	r24, 0x80	; 128
     364:	23 e0       	ldi	r18, 0x03	; 3
     366:	92 07       	cpc	r25, r18
     368:	11 f4       	brne	.+4      	; 0x36e <sysclk_enable_peripheral_clock+0x4e>
     36a:	61 e0       	ldi	r22, 0x01	; 1
     36c:	17 c0       	rjmp	.+46     	; 0x39c <sysclk_enable_peripheral_clock+0x7c>
     36e:	80 39       	cpi	r24, 0x90	; 144
     370:	23 e0       	ldi	r18, 0x03	; 3
     372:	92 07       	cpc	r25, r18
     374:	11 f4       	brne	.+4      	; 0x37a <sysclk_enable_peripheral_clock+0x5a>
     376:	61 e0       	ldi	r22, 0x01	; 1
     378:	18 c0       	rjmp	.+48     	; 0x3aa <sysclk_enable_peripheral_clock+0x8a>
     37a:	81 15       	cp	r24, r1
     37c:	22 e0       	ldi	r18, 0x02	; 2
     37e:	92 07       	cpc	r25, r18
     380:	11 f4       	brne	.+4      	; 0x386 <sysclk_enable_peripheral_clock+0x66>
     382:	62 e0       	ldi	r22, 0x02	; 2
     384:	0b c0       	rjmp	.+22     	; 0x39c <sysclk_enable_peripheral_clock+0x7c>
     386:	80 34       	cpi	r24, 0x40	; 64
     388:	22 e0       	ldi	r18, 0x02	; 2
     38a:	92 07       	cpc	r25, r18
     38c:	11 f4       	brne	.+4      	; 0x392 <sysclk_enable_peripheral_clock+0x72>
     38e:	62 e0       	ldi	r22, 0x02	; 2
     390:	0c c0       	rjmp	.+24     	; 0x3aa <sysclk_enable_peripheral_clock+0x8a>
     392:	81 15       	cp	r24, r1
     394:	23 e0       	ldi	r18, 0x03	; 3
     396:	92 07       	cpc	r25, r18
     398:	19 f4       	brne	.+6      	; 0x3a0 <sysclk_enable_peripheral_clock+0x80>
     39a:	64 e0       	ldi	r22, 0x04	; 4
     39c:	81 e0       	ldi	r24, 0x01	; 1
     39e:	b1 c0       	rjmp	.+354    	; 0x502 <__LOCK_REGION_LENGTH__+0x102>
     3a0:	80 32       	cpi	r24, 0x20	; 32
     3a2:	23 e0       	ldi	r18, 0x03	; 3
     3a4:	92 07       	cpc	r25, r18
     3a6:	19 f4       	brne	.+6      	; 0x3ae <sysclk_enable_peripheral_clock+0x8e>
     3a8:	64 e0       	ldi	r22, 0x04	; 4
     3aa:	82 e0       	ldi	r24, 0x02	; 2
     3ac:	aa c0       	rjmp	.+340    	; 0x502 <__LOCK_REGION_LENGTH__+0x102>
     3ae:	81 15       	cp	r24, r1
     3b0:	28 e0       	ldi	r18, 0x08	; 8
     3b2:	92 07       	cpc	r25, r18
     3b4:	11 f4       	brne	.+4      	; 0x3ba <sysclk_enable_peripheral_clock+0x9a>
     3b6:	61 e0       	ldi	r22, 0x01	; 1
     3b8:	8f c0       	rjmp	.+286    	; 0x4d8 <__LOCK_REGION_LENGTH__+0xd8>
     3ba:	81 15       	cp	r24, r1
     3bc:	29 e0       	ldi	r18, 0x09	; 9
     3be:	92 07       	cpc	r25, r18
     3c0:	11 f4       	brne	.+4      	; 0x3c6 <sysclk_enable_peripheral_clock+0xa6>
     3c2:	61 e0       	ldi	r22, 0x01	; 1
     3c4:	90 c0       	rjmp	.+288    	; 0x4e6 <__LOCK_REGION_LENGTH__+0xe6>
     3c6:	81 15       	cp	r24, r1
     3c8:	2a e0       	ldi	r18, 0x0A	; 10
     3ca:	92 07       	cpc	r25, r18
     3cc:	11 f4       	brne	.+4      	; 0x3d2 <sysclk_enable_peripheral_clock+0xb2>
     3ce:	61 e0       	ldi	r22, 0x01	; 1
     3d0:	91 c0       	rjmp	.+290    	; 0x4f4 <__LOCK_REGION_LENGTH__+0xf4>
     3d2:	81 15       	cp	r24, r1
     3d4:	2b e0       	ldi	r18, 0x0B	; 11
     3d6:	92 07       	cpc	r25, r18
     3d8:	11 f4       	brne	.+4      	; 0x3de <sysclk_enable_peripheral_clock+0xbe>
     3da:	61 e0       	ldi	r22, 0x01	; 1
     3dc:	91 c0       	rjmp	.+290    	; 0x500 <__LOCK_REGION_LENGTH__+0x100>
     3de:	80 34       	cpi	r24, 0x40	; 64
     3e0:	28 e0       	ldi	r18, 0x08	; 8
     3e2:	92 07       	cpc	r25, r18
     3e4:	11 f4       	brne	.+4      	; 0x3ea <sysclk_enable_peripheral_clock+0xca>
     3e6:	62 e0       	ldi	r22, 0x02	; 2
     3e8:	77 c0       	rjmp	.+238    	; 0x4d8 <__LOCK_REGION_LENGTH__+0xd8>
     3ea:	80 34       	cpi	r24, 0x40	; 64
     3ec:	29 e0       	ldi	r18, 0x09	; 9
     3ee:	92 07       	cpc	r25, r18
     3f0:	11 f4       	brne	.+4      	; 0x3f6 <sysclk_enable_peripheral_clock+0xd6>
     3f2:	62 e0       	ldi	r22, 0x02	; 2
     3f4:	78 c0       	rjmp	.+240    	; 0x4e6 <__LOCK_REGION_LENGTH__+0xe6>
     3f6:	80 34       	cpi	r24, 0x40	; 64
     3f8:	2a e0       	ldi	r18, 0x0A	; 10
     3fa:	92 07       	cpc	r25, r18
     3fc:	11 f4       	brne	.+4      	; 0x402 <__LOCK_REGION_LENGTH__+0x2>
     3fe:	62 e0       	ldi	r22, 0x02	; 2
     400:	79 c0       	rjmp	.+242    	; 0x4f4 <__LOCK_REGION_LENGTH__+0xf4>
     402:	80 34       	cpi	r24, 0x40	; 64
     404:	2b e0       	ldi	r18, 0x0B	; 11
     406:	92 07       	cpc	r25, r18
     408:	11 f4       	brne	.+4      	; 0x40e <__LOCK_REGION_LENGTH__+0xe>
     40a:	62 e0       	ldi	r22, 0x02	; 2
     40c:	79 c0       	rjmp	.+242    	; 0x500 <__LOCK_REGION_LENGTH__+0x100>
     40e:	80 39       	cpi	r24, 0x90	; 144
     410:	28 e0       	ldi	r18, 0x08	; 8
     412:	92 07       	cpc	r25, r18
     414:	11 f4       	brne	.+4      	; 0x41a <__LOCK_REGION_LENGTH__+0x1a>
     416:	64 e0       	ldi	r22, 0x04	; 4
     418:	5f c0       	rjmp	.+190    	; 0x4d8 <__LOCK_REGION_LENGTH__+0xd8>
     41a:	80 39       	cpi	r24, 0x90	; 144
     41c:	29 e0       	ldi	r18, 0x09	; 9
     41e:	92 07       	cpc	r25, r18
     420:	11 f4       	brne	.+4      	; 0x426 <__LOCK_REGION_LENGTH__+0x26>
     422:	64 e0       	ldi	r22, 0x04	; 4
     424:	60 c0       	rjmp	.+192    	; 0x4e6 <__LOCK_REGION_LENGTH__+0xe6>
     426:	80 39       	cpi	r24, 0x90	; 144
     428:	2a e0       	ldi	r18, 0x0A	; 10
     42a:	92 07       	cpc	r25, r18
     42c:	11 f4       	brne	.+4      	; 0x432 <__LOCK_REGION_LENGTH__+0x32>
     42e:	64 e0       	ldi	r22, 0x04	; 4
     430:	61 c0       	rjmp	.+194    	; 0x4f4 <__LOCK_REGION_LENGTH__+0xf4>
     432:	80 39       	cpi	r24, 0x90	; 144
     434:	2b e0       	ldi	r18, 0x0B	; 11
     436:	92 07       	cpc	r25, r18
     438:	11 f4       	brne	.+4      	; 0x43e <__LOCK_REGION_LENGTH__+0x3e>
     43a:	64 e0       	ldi	r22, 0x04	; 4
     43c:	61 c0       	rjmp	.+194    	; 0x500 <__LOCK_REGION_LENGTH__+0x100>
     43e:	80 3c       	cpi	r24, 0xC0	; 192
     440:	28 e0       	ldi	r18, 0x08	; 8
     442:	92 07       	cpc	r25, r18
     444:	11 f4       	brne	.+4      	; 0x44a <__LOCK_REGION_LENGTH__+0x4a>
     446:	68 e0       	ldi	r22, 0x08	; 8
     448:	47 c0       	rjmp	.+142    	; 0x4d8 <__LOCK_REGION_LENGTH__+0xd8>
     44a:	80 3c       	cpi	r24, 0xC0	; 192
     44c:	29 e0       	ldi	r18, 0x09	; 9
     44e:	92 07       	cpc	r25, r18
     450:	11 f4       	brne	.+4      	; 0x456 <__LOCK_REGION_LENGTH__+0x56>
     452:	68 e0       	ldi	r22, 0x08	; 8
     454:	48 c0       	rjmp	.+144    	; 0x4e6 <__LOCK_REGION_LENGTH__+0xe6>
     456:	80 3c       	cpi	r24, 0xC0	; 192
     458:	2a e0       	ldi	r18, 0x0A	; 10
     45a:	92 07       	cpc	r25, r18
     45c:	11 f4       	brne	.+4      	; 0x462 <__LOCK_REGION_LENGTH__+0x62>
     45e:	68 e0       	ldi	r22, 0x08	; 8
     460:	49 c0       	rjmp	.+146    	; 0x4f4 <__LOCK_REGION_LENGTH__+0xf4>
     462:	80 3c       	cpi	r24, 0xC0	; 192
     464:	2b e0       	ldi	r18, 0x0B	; 11
     466:	92 07       	cpc	r25, r18
     468:	11 f4       	brne	.+4      	; 0x46e <__LOCK_REGION_LENGTH__+0x6e>
     46a:	68 e0       	ldi	r22, 0x08	; 8
     46c:	49 c0       	rjmp	.+146    	; 0x500 <__LOCK_REGION_LENGTH__+0x100>
     46e:	80 3a       	cpi	r24, 0xA0	; 160
     470:	28 e0       	ldi	r18, 0x08	; 8
     472:	92 07       	cpc	r25, r18
     474:	11 f4       	brne	.+4      	; 0x47a <__LOCK_REGION_LENGTH__+0x7a>
     476:	60 e1       	ldi	r22, 0x10	; 16
     478:	2f c0       	rjmp	.+94     	; 0x4d8 <__LOCK_REGION_LENGTH__+0xd8>
     47a:	80 3a       	cpi	r24, 0xA0	; 160
     47c:	29 e0       	ldi	r18, 0x09	; 9
     47e:	92 07       	cpc	r25, r18
     480:	11 f4       	brne	.+4      	; 0x486 <__LOCK_REGION_LENGTH__+0x86>
     482:	60 e1       	ldi	r22, 0x10	; 16
     484:	30 c0       	rjmp	.+96     	; 0x4e6 <__LOCK_REGION_LENGTH__+0xe6>
     486:	80 3a       	cpi	r24, 0xA0	; 160
     488:	2a e0       	ldi	r18, 0x0A	; 10
     48a:	92 07       	cpc	r25, r18
     48c:	11 f4       	brne	.+4      	; 0x492 <__LOCK_REGION_LENGTH__+0x92>
     48e:	60 e1       	ldi	r22, 0x10	; 16
     490:	31 c0       	rjmp	.+98     	; 0x4f4 <__LOCK_REGION_LENGTH__+0xf4>
     492:	80 3a       	cpi	r24, 0xA0	; 160
     494:	2b e0       	ldi	r18, 0x0B	; 11
     496:	92 07       	cpc	r25, r18
     498:	11 f4       	brne	.+4      	; 0x49e <__LOCK_REGION_LENGTH__+0x9e>
     49a:	60 e1       	ldi	r22, 0x10	; 16
     49c:	31 c0       	rjmp	.+98     	; 0x500 <__LOCK_REGION_LENGTH__+0x100>
     49e:	80 3b       	cpi	r24, 0xB0	; 176
     4a0:	28 e0       	ldi	r18, 0x08	; 8
     4a2:	92 07       	cpc	r25, r18
     4a4:	11 f4       	brne	.+4      	; 0x4aa <__LOCK_REGION_LENGTH__+0xaa>
     4a6:	60 e2       	ldi	r22, 0x20	; 32
     4a8:	17 c0       	rjmp	.+46     	; 0x4d8 <__LOCK_REGION_LENGTH__+0xd8>
     4aa:	80 3b       	cpi	r24, 0xB0	; 176
     4ac:	29 e0       	ldi	r18, 0x09	; 9
     4ae:	92 07       	cpc	r25, r18
     4b0:	11 f4       	brne	.+4      	; 0x4b6 <__LOCK_REGION_LENGTH__+0xb6>
     4b2:	60 e2       	ldi	r22, 0x20	; 32
     4b4:	18 c0       	rjmp	.+48     	; 0x4e6 <__LOCK_REGION_LENGTH__+0xe6>
     4b6:	80 3b       	cpi	r24, 0xB0	; 176
     4b8:	2a e0       	ldi	r18, 0x0A	; 10
     4ba:	92 07       	cpc	r25, r18
     4bc:	11 f4       	brne	.+4      	; 0x4c2 <__LOCK_REGION_LENGTH__+0xc2>
     4be:	60 e2       	ldi	r22, 0x20	; 32
     4c0:	19 c0       	rjmp	.+50     	; 0x4f4 <__LOCK_REGION_LENGTH__+0xf4>
     4c2:	80 3b       	cpi	r24, 0xB0	; 176
     4c4:	2b e0       	ldi	r18, 0x0B	; 11
     4c6:	92 07       	cpc	r25, r18
     4c8:	11 f4       	brne	.+4      	; 0x4ce <__LOCK_REGION_LENGTH__+0xce>
     4ca:	60 e2       	ldi	r22, 0x20	; 32
     4cc:	19 c0       	rjmp	.+50     	; 0x500 <__LOCK_REGION_LENGTH__+0x100>
     4ce:	80 38       	cpi	r24, 0x80	; 128
     4d0:	24 e0       	ldi	r18, 0x04	; 4
     4d2:	92 07       	cpc	r25, r18
     4d4:	19 f4       	brne	.+6      	; 0x4dc <__LOCK_REGION_LENGTH__+0xdc>
     4d6:	60 e4       	ldi	r22, 0x40	; 64
     4d8:	83 e0       	ldi	r24, 0x03	; 3
     4da:	13 c0       	rjmp	.+38     	; 0x502 <__LOCK_REGION_LENGTH__+0x102>
     4dc:	80 39       	cpi	r24, 0x90	; 144
     4de:	24 e0       	ldi	r18, 0x04	; 4
     4e0:	92 07       	cpc	r25, r18
     4e2:	19 f4       	brne	.+6      	; 0x4ea <__LOCK_REGION_LENGTH__+0xea>
     4e4:	60 e4       	ldi	r22, 0x40	; 64
     4e6:	84 e0       	ldi	r24, 0x04	; 4
     4e8:	0c c0       	rjmp	.+24     	; 0x502 <__LOCK_REGION_LENGTH__+0x102>
     4ea:	80 3a       	cpi	r24, 0xA0	; 160
     4ec:	24 e0       	ldi	r18, 0x04	; 4
     4ee:	92 07       	cpc	r25, r18
     4f0:	19 f4       	brne	.+6      	; 0x4f8 <__LOCK_REGION_LENGTH__+0xf8>
     4f2:	60 e4       	ldi	r22, 0x40	; 64
     4f4:	85 e0       	ldi	r24, 0x05	; 5
     4f6:	05 c0       	rjmp	.+10     	; 0x502 <__LOCK_REGION_LENGTH__+0x102>
     4f8:	80 3b       	cpi	r24, 0xB0	; 176
     4fa:	94 40       	sbci	r25, 0x04	; 4
     4fc:	19 f4       	brne	.+6      	; 0x504 <__LOCK_REGION_LENGTH__+0x104>
     4fe:	60 e4       	ldi	r22, 0x40	; 64
     500:	86 e0       	ldi	r24, 0x06	; 6
     502:	10 c4       	rjmp	.+2080   	; 0xd24 <sysclk_enable_module>
     504:	08 95       	ret

00000506 <usart_putchar>:
     506:	fc 01       	movw	r30, r24
     508:	21 81       	ldd	r18, Z+1	; 0x01
     50a:	25 ff       	sbrs	r18, 5
     50c:	fc cf       	rjmp	.-8      	; 0x506 <usart_putchar>
     50e:	60 83       	st	Z, r22
     510:	80 e0       	ldi	r24, 0x00	; 0
     512:	90 e0       	ldi	r25, 0x00	; 0
     514:	08 95       	ret

00000516 <usart_getchar>:
     516:	fc 01       	movw	r30, r24
     518:	21 81       	ldd	r18, Z+1	; 0x01
     51a:	27 ff       	sbrs	r18, 7
     51c:	fc cf       	rjmp	.-8      	; 0x516 <usart_getchar>
     51e:	80 81       	ld	r24, Z
     520:	08 95       	ret

00000522 <usart_set_baudrate>:
     522:	8f 92       	push	r8
     524:	9f 92       	push	r9
     526:	af 92       	push	r10
     528:	bf 92       	push	r11
     52a:	cf 92       	push	r12
     52c:	df 92       	push	r13
     52e:	ef 92       	push	r14
     530:	ff 92       	push	r15
     532:	0f 93       	push	r16
     534:	1f 93       	push	r17
     536:	cf 93       	push	r28
     538:	df 93       	push	r29
     53a:	ec 01       	movw	r28, r24
     53c:	6a 01       	movw	r12, r20
     53e:	7b 01       	movw	r14, r22
     540:	48 01       	movw	r8, r16
     542:	59 01       	movw	r10, r18
     544:	8c 81       	ldd	r24, Y+4	; 0x04
     546:	b9 01       	movw	r22, r18
     548:	a8 01       	movw	r20, r16
     54a:	82 ff       	sbrs	r24, 2
     54c:	11 c0       	rjmp	.+34     	; 0x570 <usart_set_baudrate+0x4e>
     54e:	33 e0       	ldi	r19, 0x03	; 3
     550:	76 95       	lsr	r23
     552:	67 95       	ror	r22
     554:	57 95       	ror	r21
     556:	47 95       	ror	r20
     558:	3a 95       	dec	r19
     55a:	d1 f7       	brne	.-12     	; 0x550 <usart_set_baudrate+0x2e>
     55c:	d5 01       	movw	r26, r10
     55e:	c4 01       	movw	r24, r8
     560:	e6 e1       	ldi	r30, 0x16	; 22
     562:	b6 95       	lsr	r27
     564:	a7 95       	ror	r26
     566:	97 95       	ror	r25
     568:	87 95       	ror	r24
     56a:	ea 95       	dec	r30
     56c:	d1 f7       	brne	.-12     	; 0x562 <usart_set_baudrate+0x40>
     56e:	10 c0       	rjmp	.+32     	; 0x590 <usart_set_baudrate+0x6e>
     570:	94 e0       	ldi	r25, 0x04	; 4
     572:	76 95       	lsr	r23
     574:	67 95       	ror	r22
     576:	57 95       	ror	r21
     578:	47 95       	ror	r20
     57a:	9a 95       	dec	r25
     57c:	d1 f7       	brne	.-12     	; 0x572 <usart_set_baudrate+0x50>
     57e:	d9 01       	movw	r26, r18
     580:	c8 01       	movw	r24, r16
     582:	27 e1       	ldi	r18, 0x17	; 23
     584:	b6 95       	lsr	r27
     586:	a7 95       	ror	r26
     588:	97 95       	ror	r25
     58a:	87 95       	ror	r24
     58c:	2a 95       	dec	r18
     58e:	d1 f7       	brne	.-12     	; 0x584 <usart_set_baudrate+0x62>
     590:	4c 15       	cp	r20, r12
     592:	5d 05       	cpc	r21, r13
     594:	6e 05       	cpc	r22, r14
     596:	7f 05       	cpc	r23, r15
     598:	08 f4       	brcc	.+2      	; 0x59c <usart_set_baudrate+0x7a>
     59a:	98 c0       	rjmp	.+304    	; 0x6cc <usart_set_baudrate+0x1aa>
     59c:	c8 16       	cp	r12, r24
     59e:	d9 06       	cpc	r13, r25
     5a0:	ea 06       	cpc	r14, r26
     5a2:	fb 06       	cpc	r15, r27
     5a4:	08 f4       	brcc	.+2      	; 0x5a8 <usart_set_baudrate+0x86>
     5a6:	92 c0       	rjmp	.+292    	; 0x6cc <usart_set_baudrate+0x1aa>
     5a8:	8c 81       	ldd	r24, Y+4	; 0x04
     5aa:	82 fd       	sbrc	r24, 2
     5ac:	04 c0       	rjmp	.+8      	; 0x5b6 <usart_set_baudrate+0x94>
     5ae:	cc 0c       	add	r12, r12
     5b0:	dd 1c       	adc	r13, r13
     5b2:	ee 1c       	adc	r14, r14
     5b4:	ff 1c       	adc	r15, r15
     5b6:	c5 01       	movw	r24, r10
     5b8:	b4 01       	movw	r22, r8
     5ba:	a7 01       	movw	r20, r14
     5bc:	96 01       	movw	r18, r12
     5be:	0e 94 21 0c 	call	0x1842	; 0x1842 <__udivmodsi4>
     5c2:	19 ef       	ldi	r17, 0xF9	; 249
     5c4:	8f ef       	ldi	r24, 0xFF	; 255
     5c6:	90 e0       	ldi	r25, 0x00	; 0
     5c8:	a0 e0       	ldi	r26, 0x00	; 0
     5ca:	b0 e0       	ldi	r27, 0x00	; 0
     5cc:	28 17       	cp	r18, r24
     5ce:	39 07       	cpc	r19, r25
     5d0:	4a 07       	cpc	r20, r26
     5d2:	5b 07       	cpc	r21, r27
     5d4:	58 f0       	brcs	.+22     	; 0x5ec <usart_set_baudrate+0xca>
     5d6:	88 0f       	add	r24, r24
     5d8:	99 1f       	adc	r25, r25
     5da:	aa 1f       	adc	r26, r26
     5dc:	bb 1f       	adc	r27, r27
     5de:	1d 3f       	cpi	r17, 0xFD	; 253
     5e0:	0c f4       	brge	.+2      	; 0x5e4 <usart_set_baudrate+0xc2>
     5e2:	81 60       	ori	r24, 0x01	; 1
     5e4:	1f 5f       	subi	r17, 0xFF	; 255
     5e6:	17 30       	cpi	r17, 0x07	; 7
     5e8:	89 f7       	brne	.-30     	; 0x5cc <usart_set_baudrate+0xaa>
     5ea:	49 c0       	rjmp	.+146    	; 0x67e <usart_set_baudrate+0x15c>
     5ec:	17 ff       	sbrs	r17, 7
     5ee:	47 c0       	rjmp	.+142    	; 0x67e <usart_set_baudrate+0x15c>
     5f0:	d7 01       	movw	r26, r14
     5f2:	c6 01       	movw	r24, r12
     5f4:	f3 e0       	ldi	r31, 0x03	; 3
     5f6:	88 0f       	add	r24, r24
     5f8:	99 1f       	adc	r25, r25
     5fa:	aa 1f       	adc	r26, r26
     5fc:	bb 1f       	adc	r27, r27
     5fe:	fa 95       	dec	r31
     600:	d1 f7       	brne	.-12     	; 0x5f6 <usart_set_baudrate+0xd4>
     602:	88 1a       	sub	r8, r24
     604:	99 0a       	sbc	r9, r25
     606:	aa 0a       	sbc	r10, r26
     608:	bb 0a       	sbc	r11, r27
     60a:	81 2f       	mov	r24, r17
     60c:	01 2e       	mov	r0, r17
     60e:	00 0c       	add	r0, r0
     610:	99 0b       	sbc	r25, r25
     612:	1e 3f       	cpi	r17, 0xFE	; 254
     614:	dc f4       	brge	.+54     	; 0x64c <usart_set_baudrate+0x12a>
     616:	2d ef       	ldi	r18, 0xFD	; 253
     618:	3f ef       	ldi	r19, 0xFF	; 255
     61a:	a9 01       	movw	r20, r18
     61c:	48 1b       	sub	r20, r24
     61e:	59 0b       	sbc	r21, r25
     620:	04 c0       	rjmp	.+8      	; 0x62a <usart_set_baudrate+0x108>
     622:	88 0c       	add	r8, r8
     624:	99 1c       	adc	r9, r9
     626:	aa 1c       	adc	r10, r10
     628:	bb 1c       	adc	r11, r11
     62a:	4a 95       	dec	r20
     62c:	d2 f7       	brpl	.-12     	; 0x622 <usart_set_baudrate+0x100>
     62e:	d7 01       	movw	r26, r14
     630:	c6 01       	movw	r24, r12
     632:	b6 95       	lsr	r27
     634:	a7 95       	ror	r26
     636:	97 95       	ror	r25
     638:	87 95       	ror	r24
     63a:	bc 01       	movw	r22, r24
     63c:	cd 01       	movw	r24, r26
     63e:	68 0d       	add	r22, r8
     640:	79 1d       	adc	r23, r9
     642:	8a 1d       	adc	r24, r10
     644:	9b 1d       	adc	r25, r11
     646:	a7 01       	movw	r20, r14
     648:	96 01       	movw	r18, r12
     64a:	16 c0       	rjmp	.+44     	; 0x678 <usart_set_baudrate+0x156>
     64c:	03 96       	adiw	r24, 0x03	; 3
     64e:	a7 01       	movw	r20, r14
     650:	96 01       	movw	r18, r12
     652:	04 c0       	rjmp	.+8      	; 0x65c <usart_set_baudrate+0x13a>
     654:	22 0f       	add	r18, r18
     656:	33 1f       	adc	r19, r19
     658:	44 1f       	adc	r20, r20
     65a:	55 1f       	adc	r21, r21
     65c:	8a 95       	dec	r24
     65e:	d2 f7       	brpl	.-12     	; 0x654 <usart_set_baudrate+0x132>
     660:	da 01       	movw	r26, r20
     662:	c9 01       	movw	r24, r18
     664:	b6 95       	lsr	r27
     666:	a7 95       	ror	r26
     668:	97 95       	ror	r25
     66a:	87 95       	ror	r24
     66c:	bc 01       	movw	r22, r24
     66e:	cd 01       	movw	r24, r26
     670:	68 0d       	add	r22, r8
     672:	79 1d       	adc	r23, r9
     674:	8a 1d       	adc	r24, r10
     676:	9b 1d       	adc	r25, r11
     678:	0e 94 21 0c 	call	0x1842	; 0x1842 <__udivmodsi4>
     67c:	1d c0       	rjmp	.+58     	; 0x6b8 <usart_set_baudrate+0x196>
     67e:	83 e0       	ldi	r24, 0x03	; 3
     680:	81 0f       	add	r24, r17
     682:	a7 01       	movw	r20, r14
     684:	96 01       	movw	r18, r12
     686:	04 c0       	rjmp	.+8      	; 0x690 <usart_set_baudrate+0x16e>
     688:	22 0f       	add	r18, r18
     68a:	33 1f       	adc	r19, r19
     68c:	44 1f       	adc	r20, r20
     68e:	55 1f       	adc	r21, r21
     690:	8a 95       	dec	r24
     692:	d2 f7       	brpl	.-12     	; 0x688 <usart_set_baudrate+0x166>
     694:	da 01       	movw	r26, r20
     696:	c9 01       	movw	r24, r18
     698:	b6 95       	lsr	r27
     69a:	a7 95       	ror	r26
     69c:	97 95       	ror	r25
     69e:	87 95       	ror	r24
     6a0:	bc 01       	movw	r22, r24
     6a2:	cd 01       	movw	r24, r26
     6a4:	68 0d       	add	r22, r8
     6a6:	79 1d       	adc	r23, r9
     6a8:	8a 1d       	adc	r24, r10
     6aa:	9b 1d       	adc	r25, r11
     6ac:	0e 94 21 0c 	call	0x1842	; 0x1842 <__udivmodsi4>
     6b0:	21 50       	subi	r18, 0x01	; 1
     6b2:	31 09       	sbc	r19, r1
     6b4:	41 09       	sbc	r20, r1
     6b6:	51 09       	sbc	r21, r1
     6b8:	93 2f       	mov	r25, r19
     6ba:	9f 70       	andi	r25, 0x0F	; 15
     6bc:	81 2f       	mov	r24, r17
     6be:	82 95       	swap	r24
     6c0:	80 7f       	andi	r24, 0xF0	; 240
     6c2:	89 2b       	or	r24, r25
     6c4:	8f 83       	std	Y+7, r24	; 0x07
     6c6:	2e 83       	std	Y+6, r18	; 0x06
     6c8:	81 e0       	ldi	r24, 0x01	; 1
     6ca:	01 c0       	rjmp	.+2      	; 0x6ce <usart_set_baudrate+0x1ac>
     6cc:	80 e0       	ldi	r24, 0x00	; 0
     6ce:	df 91       	pop	r29
     6d0:	cf 91       	pop	r28
     6d2:	1f 91       	pop	r17
     6d4:	0f 91       	pop	r16
     6d6:	ff 90       	pop	r15
     6d8:	ef 90       	pop	r14
     6da:	df 90       	pop	r13
     6dc:	cf 90       	pop	r12
     6de:	bf 90       	pop	r11
     6e0:	af 90       	pop	r10
     6e2:	9f 90       	pop	r9
     6e4:	8f 90       	pop	r8
     6e6:	08 95       	ret

000006e8 <usart_init_rs232>:
     6e8:	0f 93       	push	r16
     6ea:	1f 93       	push	r17
     6ec:	cf 93       	push	r28
     6ee:	df 93       	push	r29
     6f0:	ec 01       	movw	r28, r24
     6f2:	8b 01       	movw	r16, r22
     6f4:	15 de       	rcall	.-982    	; 0x320 <sysclk_enable_peripheral_clock>
     6f6:	8d 81       	ldd	r24, Y+5	; 0x05
     6f8:	8f 73       	andi	r24, 0x3F	; 63
     6fa:	8d 83       	std	Y+5, r24	; 0x05
     6fc:	f8 01       	movw	r30, r16
     6fe:	95 81       	ldd	r25, Z+5	; 0x05
     700:	84 81       	ldd	r24, Z+4	; 0x04
     702:	98 2b       	or	r25, r24
     704:	86 81       	ldd	r24, Z+6	; 0x06
     706:	81 11       	cpse	r24, r1
     708:	88 e0       	ldi	r24, 0x08	; 8
     70a:	89 2b       	or	r24, r25
     70c:	8d 83       	std	Y+5, r24	; 0x05
     70e:	f8 01       	movw	r30, r16
     710:	40 81       	ld	r20, Z
     712:	51 81       	ldd	r21, Z+1	; 0x01
     714:	62 81       	ldd	r22, Z+2	; 0x02
     716:	73 81       	ldd	r23, Z+3	; 0x03
     718:	00 e0       	ldi	r16, 0x00	; 0
     71a:	18 e4       	ldi	r17, 0x48	; 72
     71c:	28 ee       	ldi	r18, 0xE8	; 232
     71e:	31 e0       	ldi	r19, 0x01	; 1
     720:	ce 01       	movw	r24, r28
     722:	ff de       	rcall	.-514    	; 0x522 <usart_set_baudrate>
     724:	9c 81       	ldd	r25, Y+4	; 0x04
     726:	98 60       	ori	r25, 0x08	; 8
     728:	9c 83       	std	Y+4, r25	; 0x04
     72a:	9c 81       	ldd	r25, Y+4	; 0x04
     72c:	90 61       	ori	r25, 0x10	; 16
     72e:	9c 83       	std	Y+4, r25	; 0x04
     730:	df 91       	pop	r29
     732:	cf 91       	pop	r28
     734:	1f 91       	pop	r17
     736:	0f 91       	pop	r16
     738:	08 95       	ret

0000073a <__portable_avr_delay_cycles.constprop.0>:
     73a:	80 e0       	ldi	r24, 0x00	; 0
     73c:	90 e0       	ldi	r25, 0x00	; 0
     73e:	01 96       	adiw	r24, 0x01	; 1
     740:	86 35       	cpi	r24, 0x56	; 86
     742:	20 ed       	ldi	r18, 0xD0	; 208
     744:	92 07       	cpc	r25, r18
     746:	d9 f7       	brne	.-10     	; 0x73e <__portable_avr_delay_cycles.constprop.0+0x4>
     748:	08 95       	ret

0000074a <ms5607_read>:
     74a:	cf 93       	push	r28
     74c:	df 93       	push	r29
     74e:	c8 2f       	mov	r28, r24
     750:	80 e1       	ldi	r24, 0x10	; 16
     752:	5e d0       	rcall	.+188    	; 0x810 <spi_select>
     754:	8c 2f       	mov	r24, r28
     756:	6c d0       	rcall	.+216    	; 0x830 <spi_write>
     758:	61 d0       	rcall	.+194    	; 0x81c <spi_read>
     75a:	c8 2f       	mov	r28, r24
     75c:	d0 e0       	ldi	r29, 0x00	; 0
     75e:	dc 2f       	mov	r29, r28
     760:	cc 27       	eor	r28, r28
     762:	5c d0       	rcall	.+184    	; 0x81c <spi_read>
     764:	c8 2b       	or	r28, r24
     766:	80 e1       	ldi	r24, 0x10	; 16
     768:	53 d0       	rcall	.+166    	; 0x810 <spi_select>
     76a:	ce 01       	movw	r24, r28
     76c:	df 91       	pop	r29
     76e:	cf 91       	pop	r28
     770:	08 95       	ret

00000772 <ms5607_convert_d1>:
     772:	cf 92       	push	r12
     774:	df 92       	push	r13
     776:	ef 92       	push	r14
     778:	ff 92       	push	r15
     77a:	80 e1       	ldi	r24, 0x10	; 16
     77c:	49 d0       	rcall	.+146    	; 0x810 <spi_select>
     77e:	88 e4       	ldi	r24, 0x48	; 72
     780:	57 d0       	rcall	.+174    	; 0x830 <spi_write>
     782:	db df       	rcall	.-74     	; 0x73a <__portable_avr_delay_cycles.constprop.0>
     784:	80 e1       	ldi	r24, 0x10	; 16
     786:	44 d0       	rcall	.+136    	; 0x810 <spi_select>
     788:	80 e1       	ldi	r24, 0x10	; 16
     78a:	42 d0       	rcall	.+132    	; 0x810 <spi_select>
     78c:	80 e0       	ldi	r24, 0x00	; 0
     78e:	50 d0       	rcall	.+160    	; 0x830 <spi_write>
     790:	45 d0       	rcall	.+138    	; 0x81c <spi_read>
     792:	c8 2e       	mov	r12, r24
     794:	d1 2c       	mov	r13, r1
     796:	e1 2c       	mov	r14, r1
     798:	f1 2c       	mov	r15, r1
     79a:	76 01       	movw	r14, r12
     79c:	dd 24       	eor	r13, r13
     79e:	cc 24       	eor	r12, r12
     7a0:	3d d0       	rcall	.+122    	; 0x81c <spi_read>
     7a2:	d8 2a       	or	r13, r24
     7a4:	3b d0       	rcall	.+118    	; 0x81c <spi_read>
     7a6:	c8 2a       	or	r12, r24
     7a8:	80 e1       	ldi	r24, 0x10	; 16
     7aa:	32 d0       	rcall	.+100    	; 0x810 <spi_select>
     7ac:	c7 01       	movw	r24, r14
     7ae:	b6 01       	movw	r22, r12
     7b0:	ff 90       	pop	r15
     7b2:	ef 90       	pop	r14
     7b4:	df 90       	pop	r13
     7b6:	cf 90       	pop	r12
     7b8:	08 95       	ret

000007ba <ms5607_convert_d2>:
     7ba:	cf 92       	push	r12
     7bc:	df 92       	push	r13
     7be:	ef 92       	push	r14
     7c0:	ff 92       	push	r15
     7c2:	80 e1       	ldi	r24, 0x10	; 16
     7c4:	25 d0       	rcall	.+74     	; 0x810 <spi_select>
     7c6:	88 e5       	ldi	r24, 0x58	; 88
     7c8:	33 d0       	rcall	.+102    	; 0x830 <spi_write>
     7ca:	b7 df       	rcall	.-146    	; 0x73a <__portable_avr_delay_cycles.constprop.0>
     7cc:	80 e1       	ldi	r24, 0x10	; 16
     7ce:	20 d0       	rcall	.+64     	; 0x810 <spi_select>
     7d0:	80 e1       	ldi	r24, 0x10	; 16
     7d2:	1e d0       	rcall	.+60     	; 0x810 <spi_select>
     7d4:	80 e0       	ldi	r24, 0x00	; 0
     7d6:	2c d0       	rcall	.+88     	; 0x830 <spi_write>
     7d8:	21 d0       	rcall	.+66     	; 0x81c <spi_read>
     7da:	c8 2e       	mov	r12, r24
     7dc:	d1 2c       	mov	r13, r1
     7de:	e1 2c       	mov	r14, r1
     7e0:	f1 2c       	mov	r15, r1
     7e2:	76 01       	movw	r14, r12
     7e4:	dd 24       	eor	r13, r13
     7e6:	cc 24       	eor	r12, r12
     7e8:	19 d0       	rcall	.+50     	; 0x81c <spi_read>
     7ea:	d8 2a       	or	r13, r24
     7ec:	17 d0       	rcall	.+46     	; 0x81c <spi_read>
     7ee:	c8 2a       	or	r12, r24
     7f0:	80 e1       	ldi	r24, 0x10	; 16
     7f2:	0e d0       	rcall	.+28     	; 0x810 <spi_select>
     7f4:	c7 01       	movw	r24, r14
     7f6:	b6 01       	movw	r22, r12
     7f8:	ff 90       	pop	r15
     7fa:	ef 90       	pop	r14
     7fc:	df 90       	pop	r13
     7fe:	cf 90       	pop	r12
     800:	08 95       	ret

00000802 <spi_init>:
     802:	68 e0       	ldi	r22, 0x08	; 8
     804:	83 e0       	ldi	r24, 0x03	; 3
     806:	8e d2       	rcall	.+1308   	; 0xd24 <sysclk_enable_module>
     808:	81 e5       	ldi	r24, 0x51	; 81
     80a:	80 93 c0 08 	sts	0x08C0, r24	; 0x8008c0 <__TEXT_REGION_LENGTH__+0x7008c0>
     80e:	08 95       	ret

00000810 <spi_select>:
     810:	e0 e4       	ldi	r30, 0x40	; 64
     812:	f6 e0       	ldi	r31, 0x06	; 6
     814:	94 81       	ldd	r25, Z+4	; 0x04
     816:	89 27       	eor	r24, r25
     818:	84 83       	std	Z+4, r24	; 0x04
     81a:	08 95       	ret

0000081c <spi_read>:
     81c:	8f ef       	ldi	r24, 0xFF	; 255
     81e:	80 93 c3 08 	sts	0x08C3, r24	; 0x8008c3 <__TEXT_REGION_LENGTH__+0x7008c3>
     822:	80 91 c2 08 	lds	r24, 0x08C2	; 0x8008c2 <__TEXT_REGION_LENGTH__+0x7008c2>
     826:	87 ff       	sbrs	r24, 7
     828:	fc cf       	rjmp	.-8      	; 0x822 <spi_read+0x6>
     82a:	80 91 c3 08 	lds	r24, 0x08C3	; 0x8008c3 <__TEXT_REGION_LENGTH__+0x7008c3>
     82e:	08 95       	ret

00000830 <spi_write>:
     830:	80 93 c3 08 	sts	0x08C3, r24	; 0x8008c3 <__TEXT_REGION_LENGTH__+0x7008c3>
     834:	80 91 c2 08 	lds	r24, 0x08C2	; 0x8008c2 <__TEXT_REGION_LENGTH__+0x7008c2>
     838:	87 ff       	sbrs	r24, 7
     83a:	fc cf       	rjmp	.-8      	; 0x834 <spi_write+0x4>
     83c:	08 95       	ret

0000083e <usart_serial_getchar>:
     83e:	cf 93       	push	r28
     840:	df 93       	push	r29
     842:	eb 01       	movw	r28, r22
     844:	68 de       	rcall	.-816    	; 0x516 <usart_getchar>
     846:	88 83       	st	Y, r24
     848:	df 91       	pop	r29
     84a:	cf 91       	pop	r28
     84c:	08 95       	ret

0000084e <usart_serial_putchar>:
     84e:	5b ce       	rjmp	.-842    	; 0x506 <usart_putchar>

00000850 <uart_terminal_init>:
     850:	cf 93       	push	r28
     852:	df 93       	push	r29
     854:	cd b7       	in	r28, 0x3d	; 61
     856:	de b7       	in	r29, 0x3e	; 62
     858:	27 97       	sbiw	r28, 0x07	; 7
     85a:	cd bf       	out	0x3d, r28	; 61
     85c:	de bf       	out	0x3e, r29	; 62
     85e:	60 e1       	ldi	r22, 0x10	; 16
     860:	85 e0       	ldi	r24, 0x05	; 5
     862:	60 d2       	rcall	.+1216   	; 0xd24 <sysclk_enable_module>
     864:	e0 e8       	ldi	r30, 0x80	; 128
     866:	f6 e0       	ldi	r31, 0x06	; 6
     868:	80 81       	ld	r24, Z
     86a:	88 60       	ori	r24, 0x08	; 8
     86c:	80 83       	st	Z, r24
     86e:	80 ea       	ldi	r24, 0xA0	; 160
     870:	9a e0       	ldi	r25, 0x0A	; 10
     872:	80 93 59 20 	sts	0x2059, r24	; 0x802059 <stdio_base>
     876:	90 93 5a 20 	sts	0x205A, r25	; 0x80205a <stdio_base+0x1>
     87a:	87 e2       	ldi	r24, 0x27	; 39
     87c:	94 e0       	ldi	r25, 0x04	; 4
     87e:	80 93 57 20 	sts	0x2057, r24	; 0x802057 <ptr_put>
     882:	90 93 58 20 	sts	0x2058, r25	; 0x802058 <ptr_put+0x1>
     886:	8f e1       	ldi	r24, 0x1F	; 31
     888:	94 e0       	ldi	r25, 0x04	; 4
     88a:	80 93 55 20 	sts	0x2055, r24	; 0x802055 <ptr_get>
     88e:	90 93 56 20 	sts	0x2056, r25	; 0x802056 <ptr_get+0x1>
     892:	e6 e0       	ldi	r30, 0x06	; 6
     894:	f0 e2       	ldi	r31, 0x20	; 32
     896:	84 81       	ldd	r24, Z+4	; 0x04
     898:	8d 83       	std	Y+5, r24	; 0x05
     89a:	85 81       	ldd	r24, Z+5	; 0x05
     89c:	8e 83       	std	Y+6, r24	; 0x06
     89e:	86 81       	ldd	r24, Z+6	; 0x06
     8a0:	8f 83       	std	Y+7, r24	; 0x07
     8a2:	80 81       	ld	r24, Z
     8a4:	91 81       	ldd	r25, Z+1	; 0x01
     8a6:	a2 81       	ldd	r26, Z+2	; 0x02
     8a8:	b3 81       	ldd	r27, Z+3	; 0x03
     8aa:	89 83       	std	Y+1, r24	; 0x01
     8ac:	9a 83       	std	Y+2, r25	; 0x02
     8ae:	ab 83       	std	Y+3, r26	; 0x03
     8b0:	bc 83       	std	Y+4, r27	; 0x04
     8b2:	60 e1       	ldi	r22, 0x10	; 16
     8b4:	85 e0       	ldi	r24, 0x05	; 5
     8b6:	36 d2       	rcall	.+1132   	; 0xd24 <sysclk_enable_module>
     8b8:	be 01       	movw	r22, r28
     8ba:	6f 5f       	subi	r22, 0xFF	; 255
     8bc:	7f 4f       	sbci	r23, 0xFF	; 255
     8be:	80 ea       	ldi	r24, 0xA0	; 160
     8c0:	9a e0       	ldi	r25, 0x0A	; 10
     8c2:	12 df       	rcall	.-476    	; 0x6e8 <usart_init_rs232>
     8c4:	65 e6       	ldi	r22, 0x65	; 101
     8c6:	71 e0       	ldi	r23, 0x01	; 1
     8c8:	8e e7       	ldi	r24, 0x7E	; 126
     8ca:	91 e0       	ldi	r25, 0x01	; 1
     8cc:	fe d7       	rcall	.+4092   	; 0x18ca <fdevopen>
     8ce:	27 96       	adiw	r28, 0x07	; 7
     8d0:	cd bf       	out	0x3d, r28	; 61
     8d2:	de bf       	out	0x3e, r29	; 62
     8d4:	df 91       	pop	r29
     8d6:	cf 91       	pop	r28
     8d8:	08 95       	ret

000008da <rbu8_init>:
     8da:	fc 01       	movw	r30, r24
     8dc:	12 82       	std	Z+2, r1	; 0x02
     8de:	13 82       	std	Z+3, r1	; 0x03
     8e0:	14 82       	std	Z+4, r1	; 0x04
     8e2:	15 82       	std	Z+5, r1	; 0x05
     8e4:	66 83       	std	Z+6, r22	; 0x06
     8e6:	77 83       	std	Z+7, r23	; 0x07
     8e8:	40 83       	st	Z, r20
     8ea:	51 83       	std	Z+1, r21	; 0x01
     8ec:	08 95       	ret

000008ee <__vector_71>:
     8ee:	1f 92       	push	r1
     8f0:	0f 92       	push	r0
     8f2:	0f b6       	in	r0, 0x3f	; 63
     8f4:	0f 92       	push	r0
     8f6:	11 24       	eor	r1, r1
     8f8:	08 b6       	in	r0, 0x38	; 56
     8fa:	0f 92       	push	r0
     8fc:	18 be       	out	0x38, r1	; 56
     8fe:	09 b6       	in	r0, 0x39	; 57
     900:	0f 92       	push	r0
     902:	19 be       	out	0x39, r1	; 57
     904:	0b b6       	in	r0, 0x3b	; 59
     906:	0f 92       	push	r0
     908:	1b be       	out	0x3b, r1	; 59
     90a:	2f 93       	push	r18
     90c:	3f 93       	push	r19
     90e:	4f 93       	push	r20
     910:	5f 93       	push	r21
     912:	6f 93       	push	r22
     914:	7f 93       	push	r23
     916:	8f 93       	push	r24
     918:	9f 93       	push	r25
     91a:	af 93       	push	r26
     91c:	bf 93       	push	r27
     91e:	ef 93       	push	r30
     920:	ff 93       	push	r31
     922:	40 91 24 02 	lds	r20, 0x0224	; 0x800224 <__TEXT_REGION_LENGTH__+0x700224>
     926:	50 91 25 02 	lds	r21, 0x0225	; 0x800225 <__TEXT_REGION_LENGTH__+0x700225>
     92a:	e0 91 5d 20 	lds	r30, 0x205D	; 0x80205d <adca_callback>
     92e:	f0 91 5e 20 	lds	r31, 0x205E	; 0x80205e <adca_callback+0x1>
     932:	61 e0       	ldi	r22, 0x01	; 1
     934:	80 e0       	ldi	r24, 0x00	; 0
     936:	92 e0       	ldi	r25, 0x02	; 2
     938:	19 95       	eicall
     93a:	ff 91       	pop	r31
     93c:	ef 91       	pop	r30
     93e:	bf 91       	pop	r27
     940:	af 91       	pop	r26
     942:	9f 91       	pop	r25
     944:	8f 91       	pop	r24
     946:	7f 91       	pop	r23
     948:	6f 91       	pop	r22
     94a:	5f 91       	pop	r21
     94c:	4f 91       	pop	r20
     94e:	3f 91       	pop	r19
     950:	2f 91       	pop	r18
     952:	0f 90       	pop	r0
     954:	0b be       	out	0x3b, r0	; 59
     956:	0f 90       	pop	r0
     958:	09 be       	out	0x39, r0	; 57
     95a:	0f 90       	pop	r0
     95c:	08 be       	out	0x38, r0	; 56
     95e:	0f 90       	pop	r0
     960:	0f be       	out	0x3f, r0	; 63
     962:	0f 90       	pop	r0
     964:	1f 90       	pop	r1
     966:	18 95       	reti

00000968 <__vector_72>:
     968:	1f 92       	push	r1
     96a:	0f 92       	push	r0
     96c:	0f b6       	in	r0, 0x3f	; 63
     96e:	0f 92       	push	r0
     970:	11 24       	eor	r1, r1
     972:	08 b6       	in	r0, 0x38	; 56
     974:	0f 92       	push	r0
     976:	18 be       	out	0x38, r1	; 56
     978:	09 b6       	in	r0, 0x39	; 57
     97a:	0f 92       	push	r0
     97c:	19 be       	out	0x39, r1	; 57
     97e:	0b b6       	in	r0, 0x3b	; 59
     980:	0f 92       	push	r0
     982:	1b be       	out	0x3b, r1	; 59
     984:	2f 93       	push	r18
     986:	3f 93       	push	r19
     988:	4f 93       	push	r20
     98a:	5f 93       	push	r21
     98c:	6f 93       	push	r22
     98e:	7f 93       	push	r23
     990:	8f 93       	push	r24
     992:	9f 93       	push	r25
     994:	af 93       	push	r26
     996:	bf 93       	push	r27
     998:	ef 93       	push	r30
     99a:	ff 93       	push	r31
     99c:	40 91 2c 02 	lds	r20, 0x022C	; 0x80022c <__TEXT_REGION_LENGTH__+0x70022c>
     9a0:	50 91 2d 02 	lds	r21, 0x022D	; 0x80022d <__TEXT_REGION_LENGTH__+0x70022d>
     9a4:	e0 91 5d 20 	lds	r30, 0x205D	; 0x80205d <adca_callback>
     9a8:	f0 91 5e 20 	lds	r31, 0x205E	; 0x80205e <adca_callback+0x1>
     9ac:	62 e0       	ldi	r22, 0x02	; 2
     9ae:	80 e0       	ldi	r24, 0x00	; 0
     9b0:	92 e0       	ldi	r25, 0x02	; 2
     9b2:	19 95       	eicall
     9b4:	ff 91       	pop	r31
     9b6:	ef 91       	pop	r30
     9b8:	bf 91       	pop	r27
     9ba:	af 91       	pop	r26
     9bc:	9f 91       	pop	r25
     9be:	8f 91       	pop	r24
     9c0:	7f 91       	pop	r23
     9c2:	6f 91       	pop	r22
     9c4:	5f 91       	pop	r21
     9c6:	4f 91       	pop	r20
     9c8:	3f 91       	pop	r19
     9ca:	2f 91       	pop	r18
     9cc:	0f 90       	pop	r0
     9ce:	0b be       	out	0x3b, r0	; 59
     9d0:	0f 90       	pop	r0
     9d2:	09 be       	out	0x39, r0	; 57
     9d4:	0f 90       	pop	r0
     9d6:	08 be       	out	0x38, r0	; 56
     9d8:	0f 90       	pop	r0
     9da:	0f be       	out	0x3f, r0	; 63
     9dc:	0f 90       	pop	r0
     9de:	1f 90       	pop	r1
     9e0:	18 95       	reti

000009e2 <__vector_73>:
     9e2:	1f 92       	push	r1
     9e4:	0f 92       	push	r0
     9e6:	0f b6       	in	r0, 0x3f	; 63
     9e8:	0f 92       	push	r0
     9ea:	11 24       	eor	r1, r1
     9ec:	08 b6       	in	r0, 0x38	; 56
     9ee:	0f 92       	push	r0
     9f0:	18 be       	out	0x38, r1	; 56
     9f2:	09 b6       	in	r0, 0x39	; 57
     9f4:	0f 92       	push	r0
     9f6:	19 be       	out	0x39, r1	; 57
     9f8:	0b b6       	in	r0, 0x3b	; 59
     9fa:	0f 92       	push	r0
     9fc:	1b be       	out	0x3b, r1	; 59
     9fe:	2f 93       	push	r18
     a00:	3f 93       	push	r19
     a02:	4f 93       	push	r20
     a04:	5f 93       	push	r21
     a06:	6f 93       	push	r22
     a08:	7f 93       	push	r23
     a0a:	8f 93       	push	r24
     a0c:	9f 93       	push	r25
     a0e:	af 93       	push	r26
     a10:	bf 93       	push	r27
     a12:	ef 93       	push	r30
     a14:	ff 93       	push	r31
     a16:	40 91 34 02 	lds	r20, 0x0234	; 0x800234 <__TEXT_REGION_LENGTH__+0x700234>
     a1a:	50 91 35 02 	lds	r21, 0x0235	; 0x800235 <__TEXT_REGION_LENGTH__+0x700235>
     a1e:	e0 91 5d 20 	lds	r30, 0x205D	; 0x80205d <adca_callback>
     a22:	f0 91 5e 20 	lds	r31, 0x205E	; 0x80205e <adca_callback+0x1>
     a26:	64 e0       	ldi	r22, 0x04	; 4
     a28:	80 e0       	ldi	r24, 0x00	; 0
     a2a:	92 e0       	ldi	r25, 0x02	; 2
     a2c:	19 95       	eicall
     a2e:	ff 91       	pop	r31
     a30:	ef 91       	pop	r30
     a32:	bf 91       	pop	r27
     a34:	af 91       	pop	r26
     a36:	9f 91       	pop	r25
     a38:	8f 91       	pop	r24
     a3a:	7f 91       	pop	r23
     a3c:	6f 91       	pop	r22
     a3e:	5f 91       	pop	r21
     a40:	4f 91       	pop	r20
     a42:	3f 91       	pop	r19
     a44:	2f 91       	pop	r18
     a46:	0f 90       	pop	r0
     a48:	0b be       	out	0x3b, r0	; 59
     a4a:	0f 90       	pop	r0
     a4c:	09 be       	out	0x39, r0	; 57
     a4e:	0f 90       	pop	r0
     a50:	08 be       	out	0x38, r0	; 56
     a52:	0f 90       	pop	r0
     a54:	0f be       	out	0x3f, r0	; 63
     a56:	0f 90       	pop	r0
     a58:	1f 90       	pop	r1
     a5a:	18 95       	reti

00000a5c <__vector_74>:
     a5c:	1f 92       	push	r1
     a5e:	0f 92       	push	r0
     a60:	0f b6       	in	r0, 0x3f	; 63
     a62:	0f 92       	push	r0
     a64:	11 24       	eor	r1, r1
     a66:	08 b6       	in	r0, 0x38	; 56
     a68:	0f 92       	push	r0
     a6a:	18 be       	out	0x38, r1	; 56
     a6c:	09 b6       	in	r0, 0x39	; 57
     a6e:	0f 92       	push	r0
     a70:	19 be       	out	0x39, r1	; 57
     a72:	0b b6       	in	r0, 0x3b	; 59
     a74:	0f 92       	push	r0
     a76:	1b be       	out	0x3b, r1	; 59
     a78:	2f 93       	push	r18
     a7a:	3f 93       	push	r19
     a7c:	4f 93       	push	r20
     a7e:	5f 93       	push	r21
     a80:	6f 93       	push	r22
     a82:	7f 93       	push	r23
     a84:	8f 93       	push	r24
     a86:	9f 93       	push	r25
     a88:	af 93       	push	r26
     a8a:	bf 93       	push	r27
     a8c:	ef 93       	push	r30
     a8e:	ff 93       	push	r31
     a90:	40 91 3c 02 	lds	r20, 0x023C	; 0x80023c <__TEXT_REGION_LENGTH__+0x70023c>
     a94:	50 91 3d 02 	lds	r21, 0x023D	; 0x80023d <__TEXT_REGION_LENGTH__+0x70023d>
     a98:	e0 91 5d 20 	lds	r30, 0x205D	; 0x80205d <adca_callback>
     a9c:	f0 91 5e 20 	lds	r31, 0x205E	; 0x80205e <adca_callback+0x1>
     aa0:	68 e0       	ldi	r22, 0x08	; 8
     aa2:	80 e0       	ldi	r24, 0x00	; 0
     aa4:	92 e0       	ldi	r25, 0x02	; 2
     aa6:	19 95       	eicall
     aa8:	ff 91       	pop	r31
     aaa:	ef 91       	pop	r30
     aac:	bf 91       	pop	r27
     aae:	af 91       	pop	r26
     ab0:	9f 91       	pop	r25
     ab2:	8f 91       	pop	r24
     ab4:	7f 91       	pop	r23
     ab6:	6f 91       	pop	r22
     ab8:	5f 91       	pop	r21
     aba:	4f 91       	pop	r20
     abc:	3f 91       	pop	r19
     abe:	2f 91       	pop	r18
     ac0:	0f 90       	pop	r0
     ac2:	0b be       	out	0x3b, r0	; 59
     ac4:	0f 90       	pop	r0
     ac6:	09 be       	out	0x39, r0	; 57
     ac8:	0f 90       	pop	r0
     aca:	08 be       	out	0x38, r0	; 56
     acc:	0f 90       	pop	r0
     ace:	0f be       	out	0x3f, r0	; 63
     ad0:	0f 90       	pop	r0
     ad2:	1f 90       	pop	r1
     ad4:	18 95       	reti

00000ad6 <__vector_39>:
     ad6:	1f 92       	push	r1
     ad8:	0f 92       	push	r0
     ada:	0f b6       	in	r0, 0x3f	; 63
     adc:	0f 92       	push	r0
     ade:	11 24       	eor	r1, r1
     ae0:	08 b6       	in	r0, 0x38	; 56
     ae2:	0f 92       	push	r0
     ae4:	18 be       	out	0x38, r1	; 56
     ae6:	09 b6       	in	r0, 0x39	; 57
     ae8:	0f 92       	push	r0
     aea:	19 be       	out	0x39, r1	; 57
     aec:	0b b6       	in	r0, 0x3b	; 59
     aee:	0f 92       	push	r0
     af0:	1b be       	out	0x3b, r1	; 59
     af2:	2f 93       	push	r18
     af4:	3f 93       	push	r19
     af6:	4f 93       	push	r20
     af8:	5f 93       	push	r21
     afa:	6f 93       	push	r22
     afc:	7f 93       	push	r23
     afe:	8f 93       	push	r24
     b00:	9f 93       	push	r25
     b02:	af 93       	push	r26
     b04:	bf 93       	push	r27
     b06:	ef 93       	push	r30
     b08:	ff 93       	push	r31
     b0a:	40 91 64 02 	lds	r20, 0x0264	; 0x800264 <__TEXT_REGION_LENGTH__+0x700264>
     b0e:	50 91 65 02 	lds	r21, 0x0265	; 0x800265 <__TEXT_REGION_LENGTH__+0x700265>
     b12:	e0 91 5b 20 	lds	r30, 0x205B	; 0x80205b <adcb_callback>
     b16:	f0 91 5c 20 	lds	r31, 0x205C	; 0x80205c <adcb_callback+0x1>
     b1a:	61 e0       	ldi	r22, 0x01	; 1
     b1c:	80 e4       	ldi	r24, 0x40	; 64
     b1e:	92 e0       	ldi	r25, 0x02	; 2
     b20:	19 95       	eicall
     b22:	ff 91       	pop	r31
     b24:	ef 91       	pop	r30
     b26:	bf 91       	pop	r27
     b28:	af 91       	pop	r26
     b2a:	9f 91       	pop	r25
     b2c:	8f 91       	pop	r24
     b2e:	7f 91       	pop	r23
     b30:	6f 91       	pop	r22
     b32:	5f 91       	pop	r21
     b34:	4f 91       	pop	r20
     b36:	3f 91       	pop	r19
     b38:	2f 91       	pop	r18
     b3a:	0f 90       	pop	r0
     b3c:	0b be       	out	0x3b, r0	; 59
     b3e:	0f 90       	pop	r0
     b40:	09 be       	out	0x39, r0	; 57
     b42:	0f 90       	pop	r0
     b44:	08 be       	out	0x38, r0	; 56
     b46:	0f 90       	pop	r0
     b48:	0f be       	out	0x3f, r0	; 63
     b4a:	0f 90       	pop	r0
     b4c:	1f 90       	pop	r1
     b4e:	18 95       	reti

00000b50 <__vector_40>:
     b50:	1f 92       	push	r1
     b52:	0f 92       	push	r0
     b54:	0f b6       	in	r0, 0x3f	; 63
     b56:	0f 92       	push	r0
     b58:	11 24       	eor	r1, r1
     b5a:	08 b6       	in	r0, 0x38	; 56
     b5c:	0f 92       	push	r0
     b5e:	18 be       	out	0x38, r1	; 56
     b60:	09 b6       	in	r0, 0x39	; 57
     b62:	0f 92       	push	r0
     b64:	19 be       	out	0x39, r1	; 57
     b66:	0b b6       	in	r0, 0x3b	; 59
     b68:	0f 92       	push	r0
     b6a:	1b be       	out	0x3b, r1	; 59
     b6c:	2f 93       	push	r18
     b6e:	3f 93       	push	r19
     b70:	4f 93       	push	r20
     b72:	5f 93       	push	r21
     b74:	6f 93       	push	r22
     b76:	7f 93       	push	r23
     b78:	8f 93       	push	r24
     b7a:	9f 93       	push	r25
     b7c:	af 93       	push	r26
     b7e:	bf 93       	push	r27
     b80:	ef 93       	push	r30
     b82:	ff 93       	push	r31
     b84:	40 91 6c 02 	lds	r20, 0x026C	; 0x80026c <__TEXT_REGION_LENGTH__+0x70026c>
     b88:	50 91 6d 02 	lds	r21, 0x026D	; 0x80026d <__TEXT_REGION_LENGTH__+0x70026d>
     b8c:	e0 91 5b 20 	lds	r30, 0x205B	; 0x80205b <adcb_callback>
     b90:	f0 91 5c 20 	lds	r31, 0x205C	; 0x80205c <adcb_callback+0x1>
     b94:	62 e0       	ldi	r22, 0x02	; 2
     b96:	80 e4       	ldi	r24, 0x40	; 64
     b98:	92 e0       	ldi	r25, 0x02	; 2
     b9a:	19 95       	eicall
     b9c:	ff 91       	pop	r31
     b9e:	ef 91       	pop	r30
     ba0:	bf 91       	pop	r27
     ba2:	af 91       	pop	r26
     ba4:	9f 91       	pop	r25
     ba6:	8f 91       	pop	r24
     ba8:	7f 91       	pop	r23
     baa:	6f 91       	pop	r22
     bac:	5f 91       	pop	r21
     bae:	4f 91       	pop	r20
     bb0:	3f 91       	pop	r19
     bb2:	2f 91       	pop	r18
     bb4:	0f 90       	pop	r0
     bb6:	0b be       	out	0x3b, r0	; 59
     bb8:	0f 90       	pop	r0
     bba:	09 be       	out	0x39, r0	; 57
     bbc:	0f 90       	pop	r0
     bbe:	08 be       	out	0x38, r0	; 56
     bc0:	0f 90       	pop	r0
     bc2:	0f be       	out	0x3f, r0	; 63
     bc4:	0f 90       	pop	r0
     bc6:	1f 90       	pop	r1
     bc8:	18 95       	reti

00000bca <__vector_41>:
     bca:	1f 92       	push	r1
     bcc:	0f 92       	push	r0
     bce:	0f b6       	in	r0, 0x3f	; 63
     bd0:	0f 92       	push	r0
     bd2:	11 24       	eor	r1, r1
     bd4:	08 b6       	in	r0, 0x38	; 56
     bd6:	0f 92       	push	r0
     bd8:	18 be       	out	0x38, r1	; 56
     bda:	09 b6       	in	r0, 0x39	; 57
     bdc:	0f 92       	push	r0
     bde:	19 be       	out	0x39, r1	; 57
     be0:	0b b6       	in	r0, 0x3b	; 59
     be2:	0f 92       	push	r0
     be4:	1b be       	out	0x3b, r1	; 59
     be6:	2f 93       	push	r18
     be8:	3f 93       	push	r19
     bea:	4f 93       	push	r20
     bec:	5f 93       	push	r21
     bee:	6f 93       	push	r22
     bf0:	7f 93       	push	r23
     bf2:	8f 93       	push	r24
     bf4:	9f 93       	push	r25
     bf6:	af 93       	push	r26
     bf8:	bf 93       	push	r27
     bfa:	ef 93       	push	r30
     bfc:	ff 93       	push	r31
     bfe:	40 91 74 02 	lds	r20, 0x0274	; 0x800274 <__TEXT_REGION_LENGTH__+0x700274>
     c02:	50 91 75 02 	lds	r21, 0x0275	; 0x800275 <__TEXT_REGION_LENGTH__+0x700275>
     c06:	e0 91 5b 20 	lds	r30, 0x205B	; 0x80205b <adcb_callback>
     c0a:	f0 91 5c 20 	lds	r31, 0x205C	; 0x80205c <adcb_callback+0x1>
     c0e:	64 e0       	ldi	r22, 0x04	; 4
     c10:	80 e4       	ldi	r24, 0x40	; 64
     c12:	92 e0       	ldi	r25, 0x02	; 2
     c14:	19 95       	eicall
     c16:	ff 91       	pop	r31
     c18:	ef 91       	pop	r30
     c1a:	bf 91       	pop	r27
     c1c:	af 91       	pop	r26
     c1e:	9f 91       	pop	r25
     c20:	8f 91       	pop	r24
     c22:	7f 91       	pop	r23
     c24:	6f 91       	pop	r22
     c26:	5f 91       	pop	r21
     c28:	4f 91       	pop	r20
     c2a:	3f 91       	pop	r19
     c2c:	2f 91       	pop	r18
     c2e:	0f 90       	pop	r0
     c30:	0b be       	out	0x3b, r0	; 59
     c32:	0f 90       	pop	r0
     c34:	09 be       	out	0x39, r0	; 57
     c36:	0f 90       	pop	r0
     c38:	08 be       	out	0x38, r0	; 56
     c3a:	0f 90       	pop	r0
     c3c:	0f be       	out	0x3f, r0	; 63
     c3e:	0f 90       	pop	r0
     c40:	1f 90       	pop	r1
     c42:	18 95       	reti

00000c44 <__vector_42>:
     c44:	1f 92       	push	r1
     c46:	0f 92       	push	r0
     c48:	0f b6       	in	r0, 0x3f	; 63
     c4a:	0f 92       	push	r0
     c4c:	11 24       	eor	r1, r1
     c4e:	08 b6       	in	r0, 0x38	; 56
     c50:	0f 92       	push	r0
     c52:	18 be       	out	0x38, r1	; 56
     c54:	09 b6       	in	r0, 0x39	; 57
     c56:	0f 92       	push	r0
     c58:	19 be       	out	0x39, r1	; 57
     c5a:	0b b6       	in	r0, 0x3b	; 59
     c5c:	0f 92       	push	r0
     c5e:	1b be       	out	0x3b, r1	; 59
     c60:	2f 93       	push	r18
     c62:	3f 93       	push	r19
     c64:	4f 93       	push	r20
     c66:	5f 93       	push	r21
     c68:	6f 93       	push	r22
     c6a:	7f 93       	push	r23
     c6c:	8f 93       	push	r24
     c6e:	9f 93       	push	r25
     c70:	af 93       	push	r26
     c72:	bf 93       	push	r27
     c74:	ef 93       	push	r30
     c76:	ff 93       	push	r31
     c78:	40 91 7c 02 	lds	r20, 0x027C	; 0x80027c <__TEXT_REGION_LENGTH__+0x70027c>
     c7c:	50 91 7d 02 	lds	r21, 0x027D	; 0x80027d <__TEXT_REGION_LENGTH__+0x70027d>
     c80:	e0 91 5b 20 	lds	r30, 0x205B	; 0x80205b <adcb_callback>
     c84:	f0 91 5c 20 	lds	r31, 0x205C	; 0x80205c <adcb_callback+0x1>
     c88:	68 e0       	ldi	r22, 0x08	; 8
     c8a:	80 e4       	ldi	r24, 0x40	; 64
     c8c:	92 e0       	ldi	r25, 0x02	; 2
     c8e:	19 95       	eicall
     c90:	ff 91       	pop	r31
     c92:	ef 91       	pop	r30
     c94:	bf 91       	pop	r27
     c96:	af 91       	pop	r26
     c98:	9f 91       	pop	r25
     c9a:	8f 91       	pop	r24
     c9c:	7f 91       	pop	r23
     c9e:	6f 91       	pop	r22
     ca0:	5f 91       	pop	r21
     ca2:	4f 91       	pop	r20
     ca4:	3f 91       	pop	r19
     ca6:	2f 91       	pop	r18
     ca8:	0f 90       	pop	r0
     caa:	0b be       	out	0x3b, r0	; 59
     cac:	0f 90       	pop	r0
     cae:	09 be       	out	0x39, r0	; 57
     cb0:	0f 90       	pop	r0
     cb2:	08 be       	out	0x38, r0	; 56
     cb4:	0f 90       	pop	r0
     cb6:	0f be       	out	0x3f, r0	; 63
     cb8:	0f 90       	pop	r0
     cba:	1f 90       	pop	r1
     cbc:	18 95       	reti

00000cbe <cpu_irq_save>:
     cbe:	cf 93       	push	r28
     cc0:	df 93       	push	r29
     cc2:	1f 92       	push	r1
     cc4:	cd b7       	in	r28, 0x3d	; 61
     cc6:	de b7       	in	r29, 0x3e	; 62
     cc8:	8f b7       	in	r24, 0x3f	; 63
     cca:	89 83       	std	Y+1, r24	; 0x01
     ccc:	f8 94       	cli
     cce:	89 81       	ldd	r24, Y+1	; 0x01
     cd0:	0f 90       	pop	r0
     cd2:	df 91       	pop	r29
     cd4:	cf 91       	pop	r28
     cd6:	08 95       	ret

00000cd8 <sysclk_init>:
     cd8:	8f ef       	ldi	r24, 0xFF	; 255
     cda:	80 93 70 00 	sts	0x0070, r24	; 0x800070 <__TEXT_REGION_LENGTH__+0x700070>
     cde:	80 93 71 00 	sts	0x0071, r24	; 0x800071 <__TEXT_REGION_LENGTH__+0x700071>
     ce2:	80 93 72 00 	sts	0x0072, r24	; 0x800072 <__TEXT_REGION_LENGTH__+0x700072>
     ce6:	80 93 73 00 	sts	0x0073, r24	; 0x800073 <__TEXT_REGION_LENGTH__+0x700073>
     cea:	80 93 74 00 	sts	0x0074, r24	; 0x800074 <__TEXT_REGION_LENGTH__+0x700074>
     cee:	80 93 75 00 	sts	0x0075, r24	; 0x800075 <__TEXT_REGION_LENGTH__+0x700075>
     cf2:	80 93 76 00 	sts	0x0076, r24	; 0x800076 <__TEXT_REGION_LENGTH__+0x700076>
     cf6:	e3 df       	rcall	.-58     	; 0xcbe <cpu_irq_save>
     cf8:	90 91 50 00 	lds	r25, 0x0050	; 0x800050 <__TEXT_REGION_LENGTH__+0x700050>
     cfc:	92 60       	ori	r25, 0x02	; 2
     cfe:	90 93 50 00 	sts	0x0050, r25	; 0x800050 <__TEXT_REGION_LENGTH__+0x700050>
     d02:	8f bf       	out	0x3f, r24	; 63
     d04:	80 91 51 00 	lds	r24, 0x0051	; 0x800051 <__TEXT_REGION_LENGTH__+0x700051>
     d08:	81 ff       	sbrs	r24, 1
     d0a:	fc cf       	rjmp	.-8      	; 0xd04 <sysclk_init+0x2c>
     d0c:	61 e0       	ldi	r22, 0x01	; 1
     d0e:	80 e4       	ldi	r24, 0x40	; 64
     d10:	90 e0       	ldi	r25, 0x00	; 0
     d12:	19 d0       	rcall	.+50     	; 0xd46 <ccp_write_io>
     d14:	d4 df       	rcall	.-88     	; 0xcbe <cpu_irq_save>
     d16:	90 91 50 00 	lds	r25, 0x0050	; 0x800050 <__TEXT_REGION_LENGTH__+0x700050>
     d1a:	9e 7f       	andi	r25, 0xFE	; 254
     d1c:	90 93 50 00 	sts	0x0050, r25	; 0x800050 <__TEXT_REGION_LENGTH__+0x700050>
     d20:	8f bf       	out	0x3f, r24	; 63
     d22:	08 95       	ret

00000d24 <sysclk_enable_module>:
     d24:	cf 93       	push	r28
     d26:	df 93       	push	r29
     d28:	c8 2f       	mov	r28, r24
     d2a:	d6 2f       	mov	r29, r22
     d2c:	c8 df       	rcall	.-112    	; 0xcbe <cpu_irq_save>
     d2e:	ec 2f       	mov	r30, r28
     d30:	f0 e0       	ldi	r31, 0x00	; 0
     d32:	e0 59       	subi	r30, 0x90	; 144
     d34:	ff 4f       	sbci	r31, 0xFF	; 255
     d36:	d0 95       	com	r29
     d38:	90 81       	ld	r25, Z
     d3a:	d9 23       	and	r29, r25
     d3c:	d0 83       	st	Z, r29
     d3e:	8f bf       	out	0x3f, r24	; 63
     d40:	df 91       	pop	r29
     d42:	cf 91       	pop	r28
     d44:	08 95       	ret

00000d46 <ccp_write_io>:

	PUBLIC_FUNCTION(ccp_write_io)

#if defined(__GNUC__)

	out     RAMPZ, r1               // Reset bits 23:16 of Z
     d46:	1b be       	out	0x3b, r1	; 59
	movw    r30, r24                // Load addr into Z
     d48:	fc 01       	movw	r30, r24
	ldi     r18, CCP_IOREG          // Load magic CCP value
     d4a:	28 ed       	ldi	r18, 0xD8	; 216
	out     CCP, r18                // Start CCP handshake
     d4c:	24 bf       	out	0x34, r18	; 52
	st      Z, r22                  // Write value to I/O register
     d4e:	60 83       	st	Z, r22
	ret                             // Return to caller
     d50:	08 95       	ret

00000d52 <__portable_avr_delay_cycles>:
     d52:	04 c0       	rjmp	.+8      	; 0xd5c <__portable_avr_delay_cycles+0xa>
     d54:	61 50       	subi	r22, 0x01	; 1
     d56:	71 09       	sbc	r23, r1
     d58:	81 09       	sbc	r24, r1
     d5a:	91 09       	sbc	r25, r1
     d5c:	61 15       	cp	r22, r1
     d5e:	71 05       	cpc	r23, r1
     d60:	81 05       	cpc	r24, r1
     d62:	91 05       	cpc	r25, r1
     d64:	b9 f7       	brne	.-18     	; 0xd54 <__portable_avr_delay_cycles+0x2>
     d66:	08 95       	ret

00000d68 <ms5607_init>:
     d68:	cf 93       	push	r28
     d6a:	df 93       	push	r29
     d6c:	80 e1       	ldi	r24, 0x10	; 16
     d6e:	50 dd       	rcall	.-1376   	; 0x810 <spi_select>
     d70:	8e e1       	ldi	r24, 0x1E	; 30
     d72:	5e dd       	rcall	.-1348   	; 0x830 <spi_write>
     d74:	60 e8       	ldi	r22, 0x80	; 128
     d76:	7e e3       	ldi	r23, 0x3E	; 62
     d78:	80 e0       	ldi	r24, 0x00	; 0
     d7a:	90 e0       	ldi	r25, 0x00	; 0
     d7c:	ea df       	rcall	.-44     	; 0xd52 <__portable_avr_delay_cycles>
     d7e:	80 e1       	ldi	r24, 0x10	; 16
     d80:	47 dd       	rcall	.-1394   	; 0x810 <spi_select>
     d82:	6b ea       	ldi	r22, 0xAB	; 171
     d84:	79 e2       	ldi	r23, 0x29	; 41
     d86:	80 e0       	ldi	r24, 0x00	; 0
     d88:	90 e0       	ldi	r25, 0x00	; 0
     d8a:	e3 df       	rcall	.-58     	; 0xd52 <__portable_avr_delay_cycles>
     d8c:	82 ea       	ldi	r24, 0xA2	; 162
     d8e:	90 e0       	ldi	r25, 0x00	; 0
     d90:	dc dc       	rcall	.-1608   	; 0x74a <ms5607_read>
     d92:	c4 e4       	ldi	r28, 0x44	; 68
     d94:	d0 e2       	ldi	r29, 0x20	; 32
     d96:	88 83       	st	Y, r24
     d98:	99 83       	std	Y+1, r25	; 0x01
     d9a:	84 ea       	ldi	r24, 0xA4	; 164
     d9c:	90 e0       	ldi	r25, 0x00	; 0
     d9e:	d5 dc       	rcall	.-1622   	; 0x74a <ms5607_read>
     da0:	8a 83       	std	Y+2, r24	; 0x02
     da2:	9b 83       	std	Y+3, r25	; 0x03
     da4:	86 ea       	ldi	r24, 0xA6	; 166
     da6:	90 e0       	ldi	r25, 0x00	; 0
     da8:	d0 dc       	rcall	.-1632   	; 0x74a <ms5607_read>
     daa:	8c 83       	std	Y+4, r24	; 0x04
     dac:	9d 83       	std	Y+5, r25	; 0x05
     dae:	88 ea       	ldi	r24, 0xA8	; 168
     db0:	90 e0       	ldi	r25, 0x00	; 0
     db2:	cb dc       	rcall	.-1642   	; 0x74a <ms5607_read>
     db4:	8e 83       	std	Y+6, r24	; 0x06
     db6:	9f 83       	std	Y+7, r25	; 0x07
     db8:	8a ea       	ldi	r24, 0xAA	; 170
     dba:	90 e0       	ldi	r25, 0x00	; 0
     dbc:	c6 dc       	rcall	.-1652   	; 0x74a <ms5607_read>
     dbe:	88 87       	std	Y+8, r24	; 0x08
     dc0:	99 87       	std	Y+9, r25	; 0x09
     dc2:	8c ea       	ldi	r24, 0xAC	; 172
     dc4:	90 e0       	ldi	r25, 0x00	; 0
     dc6:	c1 dc       	rcall	.-1662   	; 0x74a <ms5607_read>
     dc8:	8a 87       	std	Y+10, r24	; 0x0a
     dca:	9b 87       	std	Y+11, r25	; 0x0b
     dcc:	df 91       	pop	r29
     dce:	cf 91       	pop	r28
     dd0:	08 95       	ret

00000dd2 <get_pressure>:
     dd2:	2f 92       	push	r2
     dd4:	3f 92       	push	r3
     dd6:	4f 92       	push	r4
     dd8:	5f 92       	push	r5
     dda:	6f 92       	push	r6
     ddc:	7f 92       	push	r7
     dde:	8f 92       	push	r8
     de0:	9f 92       	push	r9
     de2:	af 92       	push	r10
     de4:	bf 92       	push	r11
     de6:	cf 92       	push	r12
     de8:	df 92       	push	r13
     dea:	ef 92       	push	r14
     dec:	ff 92       	push	r15
     dee:	0f 93       	push	r16
     df0:	1f 93       	push	r17
     df2:	cf 93       	push	r28
     df4:	df 93       	push	r29
     df6:	cd b7       	in	r28, 0x3d	; 61
     df8:	de b7       	in	r29, 0x3e	; 62
     dfa:	28 97       	sbiw	r28, 0x08	; 8
     dfc:	cd bf       	out	0x3d, r28	; 61
     dfe:	de bf       	out	0x3e, r29	; 62
     e00:	b8 dc       	rcall	.-1680   	; 0x772 <ms5607_convert_d1>
     e02:	2b 01       	movw	r4, r22
     e04:	3c 01       	movw	r6, r24
     e06:	d9 dc       	rcall	.-1614   	; 0x7ba <ms5607_convert_d2>
     e08:	20 91 4c 20 	lds	r18, 0x204C	; 0x80204c <__data_end+0x8>
     e0c:	30 91 4d 20 	lds	r19, 0x204D	; 0x80204d <__data_end+0x9>
     e10:	4b 01       	movw	r8, r22
     e12:	5c 01       	movw	r10, r24
     e14:	a9 01       	movw	r20, r18
     e16:	60 e0       	ldi	r22, 0x00	; 0
     e18:	70 e0       	ldi	r23, 0x00	; 0
     e1a:	80 e0       	ldi	r24, 0x00	; 0
     e1c:	90 e0       	ldi	r25, 0x00	; 0
     e1e:	dc 01       	movw	r26, r24
     e20:	29 83       	std	Y+1, r18	; 0x01
     e22:	5a 83       	std	Y+2, r21	; 0x02
     e24:	6b 83       	std	Y+3, r22	; 0x03
     e26:	7c 83       	std	Y+4, r23	; 0x04
     e28:	8d 83       	std	Y+5, r24	; 0x05
     e2a:	9e 83       	std	Y+6, r25	; 0x06
     e2c:	af 83       	std	Y+7, r26	; 0x07
     e2e:	b8 87       	std	Y+8, r27	; 0x08
     e30:	ab 01       	movw	r20, r22
     e32:	60 e0       	ldi	r22, 0x00	; 0
     e34:	70 e0       	ldi	r23, 0x00	; 0
     e36:	80 e0       	ldi	r24, 0x00	; 0
     e38:	90 e0       	ldi	r25, 0x00	; 0
     e3a:	08 e0       	ldi	r16, 0x08	; 8
     e3c:	24 d5       	rcall	.+2632   	; 0x1886 <__ashldi3>
     e3e:	19 01       	movw	r2, r18
     e40:	b4 2f       	mov	r27, r20
     e42:	a5 2f       	mov	r26, r21
     e44:	f6 2f       	mov	r31, r22
     e46:	e7 2f       	mov	r30, r23
     e48:	8c 01       	movw	r16, r24
     e4a:	94 01       	movw	r18, r8
     e4c:	a5 01       	movw	r20, r10
     e4e:	60 e0       	ldi	r22, 0x00	; 0
     e50:	70 e0       	ldi	r23, 0x00	; 0
     e52:	80 e0       	ldi	r24, 0x00	; 0
     e54:	90 e0       	ldi	r25, 0x00	; 0
     e56:	51 01       	movw	r10, r2
     e58:	cb 2e       	mov	r12, r27
     e5a:	da 2e       	mov	r13, r26
     e5c:	ef 2e       	mov	r14, r31
     e5e:	fe 2e       	mov	r15, r30
     e60:	2b d5       	rcall	.+2646   	; 0x18b8 <__subdi3>
     e62:	98 d2       	rcall	.+1328   	; 0x1394 <__floatundisf>
     e64:	4b 01       	movw	r8, r22
     e66:	5c 01       	movw	r10, r24
     e68:	60 91 48 20 	lds	r22, 0x2048	; 0x802048 <__data_end+0x4>
     e6c:	70 91 49 20 	lds	r23, 0x2049	; 0x802049 <__data_end+0x5>
     e70:	80 e0       	ldi	r24, 0x00	; 0
     e72:	90 e0       	ldi	r25, 0x00	; 0
     e74:	52 d2       	rcall	.+1188   	; 0x131a <__floatunsisf>
     e76:	a5 01       	movw	r20, r10
     e78:	94 01       	movw	r18, r8
     e7a:	60 d3       	rcall	.+1728   	; 0x153c <__mulsf3>
     e7c:	20 e0       	ldi	r18, 0x00	; 0
     e7e:	30 e0       	ldi	r19, 0x00	; 0
     e80:	40 e0       	ldi	r20, 0x00	; 0
     e82:	5c e3       	ldi	r21, 0x3C	; 60
     e84:	5b d3       	rcall	.+1718   	; 0x153c <__mulsf3>
     e86:	6b 01       	movw	r12, r22
     e88:	7c 01       	movw	r14, r24
     e8a:	a4 e4       	ldi	r26, 0x44	; 68
     e8c:	b0 e2       	ldi	r27, 0x20	; 32
     e8e:	4d 91       	ld	r20, X+
     e90:	5c 91       	ld	r21, X
     e92:	9a 01       	movw	r18, r20
     e94:	40 e0       	ldi	r20, 0x00	; 0
     e96:	50 e0       	ldi	r21, 0x00	; 0
     e98:	60 e0       	ldi	r22, 0x00	; 0
     e9a:	70 e0       	ldi	r23, 0x00	; 0
     e9c:	80 e0       	ldi	r24, 0x00	; 0
     e9e:	90 e0       	ldi	r25, 0x00	; 0
     ea0:	00 e1       	ldi	r16, 0x10	; 16
     ea2:	f1 d4       	rcall	.+2530   	; 0x1886 <__ashldi3>
     ea4:	77 d2       	rcall	.+1262   	; 0x1394 <__floatundisf>
     ea6:	9b 01       	movw	r18, r22
     ea8:	ac 01       	movw	r20, r24
     eaa:	c7 01       	movw	r24, r14
     eac:	b6 01       	movw	r22, r12
     eae:	38 d1       	rcall	.+624    	; 0x1120 <__addsf3>
     eb0:	6b 01       	movw	r12, r22
     eb2:	7c 01       	movw	r14, r24
     eb4:	c3 01       	movw	r24, r6
     eb6:	b2 01       	movw	r22, r4
     eb8:	30 d2       	rcall	.+1120   	; 0x131a <__floatunsisf>
     eba:	9b 01       	movw	r18, r22
     ebc:	ac 01       	movw	r20, r24
     ebe:	c7 01       	movw	r24, r14
     ec0:	b6 01       	movw	r22, r12
     ec2:	3c d3       	rcall	.+1656   	; 0x153c <__mulsf3>
     ec4:	20 e0       	ldi	r18, 0x00	; 0
     ec6:	30 e0       	ldi	r19, 0x00	; 0
     ec8:	40 e0       	ldi	r20, 0x00	; 0
     eca:	55 e3       	ldi	r21, 0x35	; 53
     ecc:	37 d3       	rcall	.+1646   	; 0x153c <__mulsf3>
     ece:	6b 01       	movw	r12, r22
     ed0:	7c 01       	movw	r14, r24
     ed2:	60 91 4a 20 	lds	r22, 0x204A	; 0x80204a <__data_end+0x6>
     ed6:	70 91 4b 20 	lds	r23, 0x204B	; 0x80204b <__data_end+0x7>
     eda:	80 e0       	ldi	r24, 0x00	; 0
     edc:	90 e0       	ldi	r25, 0x00	; 0
     ede:	1d d2       	rcall	.+1082   	; 0x131a <__floatunsisf>
     ee0:	a5 01       	movw	r20, r10
     ee2:	94 01       	movw	r18, r8
     ee4:	2b d3       	rcall	.+1622   	; 0x153c <__mulsf3>
     ee6:	20 e0       	ldi	r18, 0x00	; 0
     ee8:	30 e0       	ldi	r19, 0x00	; 0
     eea:	40 e8       	ldi	r20, 0x80	; 128
     eec:	5c e3       	ldi	r21, 0x3C	; 60
     eee:	26 d3       	rcall	.+1612   	; 0x153c <__mulsf3>
     ef0:	4b 01       	movw	r8, r22
     ef2:	5c 01       	movw	r10, r24
     ef4:	80 91 46 20 	lds	r24, 0x2046	; 0x802046 <__data_end+0x2>
     ef8:	90 91 47 20 	lds	r25, 0x2047	; 0x802047 <__data_end+0x3>
     efc:	8c 01       	movw	r16, r24
     efe:	20 e0       	ldi	r18, 0x00	; 0
     f00:	30 e0       	ldi	r19, 0x00	; 0
     f02:	40 e0       	ldi	r20, 0x00	; 0
     f04:	50 e0       	ldi	r21, 0x00	; 0
     f06:	ba 01       	movw	r22, r20
     f08:	89 83       	std	Y+1, r24	; 0x01
     f0a:	1a 83       	std	Y+2, r17	; 0x02
     f0c:	2b 83       	std	Y+3, r18	; 0x03
     f0e:	3c 83       	std	Y+4, r19	; 0x04
     f10:	4d 83       	std	Y+5, r20	; 0x05
     f12:	5e 83       	std	Y+6, r21	; 0x06
     f14:	6f 83       	std	Y+7, r22	; 0x07
     f16:	78 87       	std	Y+8, r23	; 0x08
     f18:	9c 01       	movw	r18, r24
     f1a:	40 e0       	ldi	r20, 0x00	; 0
     f1c:	50 e0       	ldi	r21, 0x00	; 0
     f1e:	60 e0       	ldi	r22, 0x00	; 0
     f20:	70 e0       	ldi	r23, 0x00	; 0
     f22:	80 e0       	ldi	r24, 0x00	; 0
     f24:	90 e0       	ldi	r25, 0x00	; 0
     f26:	01 e1       	ldi	r16, 0x11	; 17
     f28:	ae d4       	rcall	.+2396   	; 0x1886 <__ashldi3>
     f2a:	34 d2       	rcall	.+1128   	; 0x1394 <__floatundisf>
     f2c:	9b 01       	movw	r18, r22
     f2e:	ac 01       	movw	r20, r24
     f30:	c5 01       	movw	r24, r10
     f32:	b4 01       	movw	r22, r8
     f34:	f5 d0       	rcall	.+490    	; 0x1120 <__addsf3>
     f36:	9b 01       	movw	r18, r22
     f38:	ac 01       	movw	r20, r24
     f3a:	c7 01       	movw	r24, r14
     f3c:	b6 01       	movw	r22, r12
     f3e:	ef d0       	rcall	.+478    	; 0x111e <__subsf3>
     f40:	20 e0       	ldi	r18, 0x00	; 0
     f42:	30 e0       	ldi	r19, 0x00	; 0
     f44:	40 e0       	ldi	r20, 0x00	; 0
     f46:	58 e3       	ldi	r21, 0x38	; 56
     f48:	f9 d2       	rcall	.+1522   	; 0x153c <__mulsf3>
     f4a:	b6 d1       	rcall	.+876    	; 0x12b8 <__fixsfsi>
     f4c:	80 e0       	ldi	r24, 0x00	; 0
     f4e:	90 e0       	ldi	r25, 0x00	; 0
     f50:	e4 d1       	rcall	.+968    	; 0x131a <__floatunsisf>
     f52:	20 e0       	ldi	r18, 0x00	; 0
     f54:	30 e5       	ldi	r19, 0x50	; 80
     f56:	43 ec       	ldi	r20, 0xC3	; 195
     f58:	57 e4       	ldi	r21, 0x47	; 71
     f5a:	46 d1       	rcall	.+652    	; 0x11e8 <__divsf3>
     f5c:	28 96       	adiw	r28, 0x08	; 8
     f5e:	cd bf       	out	0x3d, r28	; 61
     f60:	de bf       	out	0x3e, r29	; 62
     f62:	df 91       	pop	r29
     f64:	cf 91       	pop	r28
     f66:	1f 91       	pop	r17
     f68:	0f 91       	pop	r16
     f6a:	ff 90       	pop	r15
     f6c:	ef 90       	pop	r14
     f6e:	df 90       	pop	r13
     f70:	cf 90       	pop	r12
     f72:	bf 90       	pop	r11
     f74:	af 90       	pop	r10
     f76:	9f 90       	pop	r9
     f78:	8f 90       	pop	r8
     f7a:	7f 90       	pop	r7
     f7c:	6f 90       	pop	r6
     f7e:	5f 90       	pop	r5
     f80:	4f 90       	pop	r4
     f82:	3f 90       	pop	r3
     f84:	2f 90       	pop	r2
     f86:	08 95       	ret

00000f88 <get_altitude>:
     f88:	4f 92       	push	r4
     f8a:	5f 92       	push	r5
     f8c:	6f 92       	push	r6
     f8e:	7f 92       	push	r7
     f90:	8f 92       	push	r8
     f92:	9f 92       	push	r9
     f94:	af 92       	push	r10
     f96:	bf 92       	push	r11
     f98:	cf 92       	push	r12
     f9a:	df 92       	push	r13
     f9c:	ef 92       	push	r14
     f9e:	ff 92       	push	r15
     fa0:	2b 01       	movw	r4, r22
     fa2:	3c 01       	movw	r6, r24
     fa4:	c0 90 11 20 	lds	r12, 0x2011	; 0x802011 <L>
     fa8:	d0 90 12 20 	lds	r13, 0x2012	; 0x802012 <L+0x1>
     fac:	e0 90 13 20 	lds	r14, 0x2013	; 0x802013 <L+0x2>
     fb0:	f0 90 14 20 	lds	r15, 0x2014	; 0x802014 <L+0x3>
     fb4:	20 91 15 20 	lds	r18, 0x2015	; 0x802015 <R>
     fb8:	30 91 16 20 	lds	r19, 0x2016	; 0x802016 <R+0x1>
     fbc:	40 91 17 20 	lds	r20, 0x2017	; 0x802017 <R+0x2>
     fc0:	50 91 18 20 	lds	r21, 0x2018	; 0x802018 <R+0x3>
     fc4:	c7 01       	movw	r24, r14
     fc6:	b6 01       	movw	r22, r12
     fc8:	b9 d2       	rcall	.+1394   	; 0x153c <__mulsf3>
     fca:	20 91 0d 20 	lds	r18, 0x200D	; 0x80200d <g_0>
     fce:	30 91 0e 20 	lds	r19, 0x200E	; 0x80200e <g_0+0x1>
     fd2:	40 91 0f 20 	lds	r20, 0x200F	; 0x80200f <g_0+0x2>
     fd6:	50 91 10 20 	lds	r21, 0x2010	; 0x802010 <g_0+0x3>
     fda:	06 d1       	rcall	.+524    	; 0x11e8 <__divsf3>
     fdc:	4b 01       	movw	r8, r22
     fde:	5c 01       	movw	r10, r24
     fe0:	a3 01       	movw	r20, r6
     fe2:	92 01       	movw	r18, r4
     fe4:	60 91 1d 20 	lds	r22, 0x201D	; 0x80201d <ground_p>
     fe8:	70 91 1e 20 	lds	r23, 0x201E	; 0x80201e <ground_p+0x1>
     fec:	80 91 1f 20 	lds	r24, 0x201F	; 0x80201f <ground_p+0x2>
     ff0:	90 91 20 20 	lds	r25, 0x2020	; 0x802020 <ground_p+0x3>
     ff4:	f9 d0       	rcall	.+498    	; 0x11e8 <__divsf3>
     ff6:	a5 01       	movw	r20, r10
     ff8:	94 01       	movw	r18, r8
     ffa:	03 d3       	rcall	.+1542   	; 0x1602 <pow>
     ffc:	20 e0       	ldi	r18, 0x00	; 0
     ffe:	30 e0       	ldi	r19, 0x00	; 0
    1000:	40 e8       	ldi	r20, 0x80	; 128
    1002:	5f e3       	ldi	r21, 0x3F	; 63
    1004:	8c d0       	rcall	.+280    	; 0x111e <__subsf3>
    1006:	20 91 19 20 	lds	r18, 0x2019	; 0x802019 <ground_t>
    100a:	30 91 1a 20 	lds	r19, 0x201A	; 0x80201a <ground_t+0x1>
    100e:	40 91 1b 20 	lds	r20, 0x201B	; 0x80201b <ground_t+0x2>
    1012:	50 91 1c 20 	lds	r21, 0x201C	; 0x80201c <ground_t+0x3>
    1016:	92 d2       	rcall	.+1316   	; 0x153c <__mulsf3>
    1018:	a7 01       	movw	r20, r14
    101a:	96 01       	movw	r18, r12
    101c:	e5 d0       	rcall	.+458    	; 0x11e8 <__divsf3>
    101e:	ff 90       	pop	r15
    1020:	ef 90       	pop	r14
    1022:	df 90       	pop	r13
    1024:	cf 90       	pop	r12
    1026:	bf 90       	pop	r11
    1028:	af 90       	pop	r10
    102a:	9f 90       	pop	r9
    102c:	8f 90       	pop	r8
    102e:	7f 90       	pop	r7
    1030:	6f 90       	pop	r6
    1032:	5f 90       	pop	r5
    1034:	4f 90       	pop	r4
    1036:	08 95       	ret

00001038 <system_init>:
    1038:	0f 93       	push	r16
    103a:	1f 93       	push	r17
    103c:	4d de       	rcall	.-870    	; 0xcd8 <sysclk_init>
    103e:	6b ea       	ldi	r22, 0xAB	; 171
    1040:	79 e2       	ldi	r23, 0x29	; 41
    1042:	80 e0       	ldi	r24, 0x00	; 0
    1044:	90 e0       	ldi	r25, 0x00	; 0
    1046:	85 de       	rcall	.-758    	; 0xd52 <__portable_avr_delay_cycles>
    1048:	03 dc       	rcall	.-2042   	; 0x850 <uart_terminal_init>
    104a:	6b ea       	ldi	r22, 0xAB	; 171
    104c:	79 e2       	ldi	r23, 0x29	; 41
    104e:	80 e0       	ldi	r24, 0x00	; 0
    1050:	90 e0       	ldi	r25, 0x00	; 0
    1052:	7f de       	rcall	.-770    	; 0xd52 <__portable_avr_delay_cycles>
    1054:	6b ea       	ldi	r22, 0xAB	; 171
    1056:	79 e2       	ldi	r23, 0x29	; 41
    1058:	80 e0       	ldi	r24, 0x00	; 0
    105a:	90 e0       	ldi	r25, 0x00	; 0
    105c:	7a de       	rcall	.-780    	; 0xd52 <__portable_avr_delay_cycles>
    105e:	d1 db       	rcall	.-2142   	; 0x802 <spi_init>
    1060:	6b ea       	ldi	r22, 0xAB	; 171
    1062:	79 e2       	ldi	r23, 0x29	; 41
    1064:	80 e0       	ldi	r24, 0x00	; 0
    1066:	90 e0       	ldi	r25, 0x00	; 0
    1068:	74 de       	rcall	.-792    	; 0xd52 <__portable_avr_delay_cycles>
    106a:	7e de       	rcall	.-772    	; 0xd68 <ms5607_init>
    106c:	6b ea       	ldi	r22, 0xAB	; 171
    106e:	79 e2       	ldi	r23, 0x29	; 41
    1070:	80 e0       	ldi	r24, 0x00	; 0
    1072:	90 e0       	ldi	r25, 0x00	; 0
    1074:	6e de       	rcall	.-804    	; 0xd52 <__portable_avr_delay_cycles>
    1076:	ad de       	rcall	.-678    	; 0xdd2 <get_pressure>
    1078:	60 93 1d 20 	sts	0x201D, r22	; 0x80201d <ground_p>
    107c:	70 93 1e 20 	sts	0x201E, r23	; 0x80201e <ground_p+0x1>
    1080:	80 93 1f 20 	sts	0x201F, r24	; 0x80201f <ground_p+0x2>
    1084:	90 93 20 20 	sts	0x2020, r25	; 0x802020 <ground_p+0x3>
    1088:	03 e3       	ldi	r16, 0x33	; 51
    108a:	13 e1       	ldi	r17, 0x13	; 19
    108c:	20 e9       	ldi	r18, 0x90	; 144
    108e:	33 e4       	ldi	r19, 0x43	; 67
    1090:	00 93 19 20 	sts	0x2019, r16	; 0x802019 <ground_t>
    1094:	10 93 1a 20 	sts	0x201A, r17	; 0x80201a <ground_t+0x1>
    1098:	20 93 1b 20 	sts	0x201B, r18	; 0x80201b <ground_t+0x2>
    109c:	30 93 1c 20 	sts	0x201C, r19	; 0x80201c <ground_t+0x3>
    10a0:	73 df       	rcall	.-282    	; 0xf88 <get_altitude>
    10a2:	60 93 50 20 	sts	0x2050, r22	; 0x802050 <ground_a>
    10a6:	70 93 51 20 	sts	0x2051, r23	; 0x802051 <ground_a+0x1>
    10aa:	80 93 52 20 	sts	0x2052, r24	; 0x802052 <ground_a+0x2>
    10ae:	90 93 53 20 	sts	0x2053, r25	; 0x802053 <ground_a+0x3>
    10b2:	1f 91       	pop	r17
    10b4:	0f 91       	pop	r16
    10b6:	08 95       	ret

000010b8 <main>:
    10b8:	cf 93       	push	r28
    10ba:	df 93       	push	r29
    10bc:	cd b7       	in	r28, 0x3d	; 61
    10be:	de b7       	in	r29, 0x3e	; 62
    10c0:	62 97       	sbiw	r28, 0x12	; 18
    10c2:	cd bf       	out	0x3d, r28	; 61
    10c4:	de bf       	out	0x3e, r29	; 62
    10c6:	b8 df       	rcall	.-144    	; 0x1038 <system_init>
    10c8:	4a e0       	ldi	r20, 0x0A	; 10
    10ca:	50 e0       	ldi	r21, 0x00	; 0
    10cc:	be 01       	movw	r22, r28
    10ce:	6f 5f       	subi	r22, 0xFF	; 255
    10d0:	7f 4f       	sbci	r23, 0xFF	; 255
    10d2:	ce 01       	movw	r24, r28
    10d4:	0b 96       	adiw	r24, 0x0b	; 11
    10d6:	01 dc       	rcall	.-2046   	; 0x8da <rbu8_init>
    10d8:	81 e2       	ldi	r24, 0x21	; 33
    10da:	e8 2e       	mov	r14, r24
    10dc:	80 e2       	ldi	r24, 0x20	; 32
    10de:	f8 2e       	mov	r15, r24
    10e0:	80 91 54 20 	lds	r24, 0x2054	; 0x802054 <state>
    10e4:	84 30       	cpi	r24, 0x04	; 4
    10e6:	10 f0       	brcs	.+4      	; 0x10ec <main+0x34>
    10e8:	10 92 54 20 	sts	0x2054, r1	; 0x802054 <state>
    10ec:	72 de       	rcall	.-796    	; 0xdd2 <get_pressure>
    10ee:	16 2f       	mov	r17, r22
    10f0:	07 2f       	mov	r16, r23
    10f2:	d8 2e       	mov	r13, r24
    10f4:	c9 2e       	mov	r12, r25
    10f6:	48 df       	rcall	.-368    	; 0xf88 <get_altitude>
    10f8:	9f 93       	push	r25
    10fa:	8f 93       	push	r24
    10fc:	7f 93       	push	r23
    10fe:	6f 93       	push	r22
    1100:	cf 92       	push	r12
    1102:	df 92       	push	r13
    1104:	0f 93       	push	r16
    1106:	1f 93       	push	r17
    1108:	ff 92       	push	r15
    110a:	ef 92       	push	r14
    110c:	28 d4       	rcall	.+2128   	; 0x195e <printf>
    110e:	66 e5       	ldi	r22, 0x56	; 86
    1110:	78 e5       	ldi	r23, 0x58	; 88
    1112:	84 e1       	ldi	r24, 0x14	; 20
    1114:	90 e0       	ldi	r25, 0x00	; 0
    1116:	1d de       	rcall	.-966    	; 0xd52 <__portable_avr_delay_cycles>
    1118:	cd bf       	out	0x3d, r28	; 61
    111a:	de bf       	out	0x3e, r29	; 62
    111c:	e1 cf       	rjmp	.-62     	; 0x10e0 <main+0x28>

0000111e <__subsf3>:
    111e:	50 58       	subi	r21, 0x80	; 128

00001120 <__addsf3>:
    1120:	bb 27       	eor	r27, r27
    1122:	aa 27       	eor	r26, r26
    1124:	0e d0       	rcall	.+28     	; 0x1142 <__addsf3x>
    1126:	8b c1       	rjmp	.+790    	; 0x143e <__fp_round>
    1128:	7c d1       	rcall	.+760    	; 0x1422 <__fp_pscA>
    112a:	30 f0       	brcs	.+12     	; 0x1138 <__addsf3+0x18>
    112c:	81 d1       	rcall	.+770    	; 0x1430 <__fp_pscB>
    112e:	20 f0       	brcs	.+8      	; 0x1138 <__addsf3+0x18>
    1130:	31 f4       	brne	.+12     	; 0x113e <__addsf3+0x1e>
    1132:	9f 3f       	cpi	r25, 0xFF	; 255
    1134:	11 f4       	brne	.+4      	; 0x113a <__addsf3+0x1a>
    1136:	1e f4       	brtc	.+6      	; 0x113e <__addsf3+0x1e>
    1138:	71 c1       	rjmp	.+738    	; 0x141c <__fp_nan>
    113a:	0e f4       	brtc	.+2      	; 0x113e <__addsf3+0x1e>
    113c:	e0 95       	com	r30
    113e:	e7 fb       	bst	r30, 7
    1140:	67 c1       	rjmp	.+718    	; 0x1410 <__fp_inf>

00001142 <__addsf3x>:
    1142:	e9 2f       	mov	r30, r25
    1144:	8d d1       	rcall	.+794    	; 0x1460 <__fp_split3>
    1146:	80 f3       	brcs	.-32     	; 0x1128 <__addsf3+0x8>
    1148:	ba 17       	cp	r27, r26
    114a:	62 07       	cpc	r22, r18
    114c:	73 07       	cpc	r23, r19
    114e:	84 07       	cpc	r24, r20
    1150:	95 07       	cpc	r25, r21
    1152:	18 f0       	brcs	.+6      	; 0x115a <__addsf3x+0x18>
    1154:	71 f4       	brne	.+28     	; 0x1172 <__addsf3x+0x30>
    1156:	9e f5       	brtc	.+102    	; 0x11be <__addsf3x+0x7c>
    1158:	a5 c1       	rjmp	.+842    	; 0x14a4 <__fp_zero>
    115a:	0e f4       	brtc	.+2      	; 0x115e <__addsf3x+0x1c>
    115c:	e0 95       	com	r30
    115e:	0b 2e       	mov	r0, r27
    1160:	ba 2f       	mov	r27, r26
    1162:	a0 2d       	mov	r26, r0
    1164:	0b 01       	movw	r0, r22
    1166:	b9 01       	movw	r22, r18
    1168:	90 01       	movw	r18, r0
    116a:	0c 01       	movw	r0, r24
    116c:	ca 01       	movw	r24, r20
    116e:	a0 01       	movw	r20, r0
    1170:	11 24       	eor	r1, r1
    1172:	ff 27       	eor	r31, r31
    1174:	59 1b       	sub	r21, r25
    1176:	99 f0       	breq	.+38     	; 0x119e <__addsf3x+0x5c>
    1178:	59 3f       	cpi	r21, 0xF9	; 249
    117a:	50 f4       	brcc	.+20     	; 0x1190 <__addsf3x+0x4e>
    117c:	50 3e       	cpi	r21, 0xE0	; 224
    117e:	68 f1       	brcs	.+90     	; 0x11da <__addsf3x+0x98>
    1180:	1a 16       	cp	r1, r26
    1182:	f0 40       	sbci	r31, 0x00	; 0
    1184:	a2 2f       	mov	r26, r18
    1186:	23 2f       	mov	r18, r19
    1188:	34 2f       	mov	r19, r20
    118a:	44 27       	eor	r20, r20
    118c:	58 5f       	subi	r21, 0xF8	; 248
    118e:	f3 cf       	rjmp	.-26     	; 0x1176 <__addsf3x+0x34>
    1190:	46 95       	lsr	r20
    1192:	37 95       	ror	r19
    1194:	27 95       	ror	r18
    1196:	a7 95       	ror	r26
    1198:	f0 40       	sbci	r31, 0x00	; 0
    119a:	53 95       	inc	r21
    119c:	c9 f7       	brne	.-14     	; 0x1190 <__addsf3x+0x4e>
    119e:	7e f4       	brtc	.+30     	; 0x11be <__addsf3x+0x7c>
    11a0:	1f 16       	cp	r1, r31
    11a2:	ba 0b       	sbc	r27, r26
    11a4:	62 0b       	sbc	r22, r18
    11a6:	73 0b       	sbc	r23, r19
    11a8:	84 0b       	sbc	r24, r20
    11aa:	ba f0       	brmi	.+46     	; 0x11da <__addsf3x+0x98>
    11ac:	91 50       	subi	r25, 0x01	; 1
    11ae:	a1 f0       	breq	.+40     	; 0x11d8 <__addsf3x+0x96>
    11b0:	ff 0f       	add	r31, r31
    11b2:	bb 1f       	adc	r27, r27
    11b4:	66 1f       	adc	r22, r22
    11b6:	77 1f       	adc	r23, r23
    11b8:	88 1f       	adc	r24, r24
    11ba:	c2 f7       	brpl	.-16     	; 0x11ac <__addsf3x+0x6a>
    11bc:	0e c0       	rjmp	.+28     	; 0x11da <__addsf3x+0x98>
    11be:	ba 0f       	add	r27, r26
    11c0:	62 1f       	adc	r22, r18
    11c2:	73 1f       	adc	r23, r19
    11c4:	84 1f       	adc	r24, r20
    11c6:	48 f4       	brcc	.+18     	; 0x11da <__addsf3x+0x98>
    11c8:	87 95       	ror	r24
    11ca:	77 95       	ror	r23
    11cc:	67 95       	ror	r22
    11ce:	b7 95       	ror	r27
    11d0:	f7 95       	ror	r31
    11d2:	9e 3f       	cpi	r25, 0xFE	; 254
    11d4:	08 f0       	brcs	.+2      	; 0x11d8 <__addsf3x+0x96>
    11d6:	b3 cf       	rjmp	.-154    	; 0x113e <__addsf3+0x1e>
    11d8:	93 95       	inc	r25
    11da:	88 0f       	add	r24, r24
    11dc:	08 f0       	brcs	.+2      	; 0x11e0 <__addsf3x+0x9e>
    11de:	99 27       	eor	r25, r25
    11e0:	ee 0f       	add	r30, r30
    11e2:	97 95       	ror	r25
    11e4:	87 95       	ror	r24
    11e6:	08 95       	ret

000011e8 <__divsf3>:
    11e8:	0c d0       	rcall	.+24     	; 0x1202 <__divsf3x>
    11ea:	29 c1       	rjmp	.+594    	; 0x143e <__fp_round>
    11ec:	21 d1       	rcall	.+578    	; 0x1430 <__fp_pscB>
    11ee:	40 f0       	brcs	.+16     	; 0x1200 <__divsf3+0x18>
    11f0:	18 d1       	rcall	.+560    	; 0x1422 <__fp_pscA>
    11f2:	30 f0       	brcs	.+12     	; 0x1200 <__divsf3+0x18>
    11f4:	21 f4       	brne	.+8      	; 0x11fe <__divsf3+0x16>
    11f6:	5f 3f       	cpi	r21, 0xFF	; 255
    11f8:	19 f0       	breq	.+6      	; 0x1200 <__divsf3+0x18>
    11fa:	0a c1       	rjmp	.+532    	; 0x1410 <__fp_inf>
    11fc:	51 11       	cpse	r21, r1
    11fe:	53 c1       	rjmp	.+678    	; 0x14a6 <__fp_szero>
    1200:	0d c1       	rjmp	.+538    	; 0x141c <__fp_nan>

00001202 <__divsf3x>:
    1202:	2e d1       	rcall	.+604    	; 0x1460 <__fp_split3>
    1204:	98 f3       	brcs	.-26     	; 0x11ec <__divsf3+0x4>

00001206 <__divsf3_pse>:
    1206:	99 23       	and	r25, r25
    1208:	c9 f3       	breq	.-14     	; 0x11fc <__divsf3+0x14>
    120a:	55 23       	and	r21, r21
    120c:	b1 f3       	breq	.-20     	; 0x11fa <__divsf3+0x12>
    120e:	95 1b       	sub	r25, r21
    1210:	55 0b       	sbc	r21, r21
    1212:	bb 27       	eor	r27, r27
    1214:	aa 27       	eor	r26, r26
    1216:	62 17       	cp	r22, r18
    1218:	73 07       	cpc	r23, r19
    121a:	84 07       	cpc	r24, r20
    121c:	38 f0       	brcs	.+14     	; 0x122c <__divsf3_pse+0x26>
    121e:	9f 5f       	subi	r25, 0xFF	; 255
    1220:	5f 4f       	sbci	r21, 0xFF	; 255
    1222:	22 0f       	add	r18, r18
    1224:	33 1f       	adc	r19, r19
    1226:	44 1f       	adc	r20, r20
    1228:	aa 1f       	adc	r26, r26
    122a:	a9 f3       	breq	.-22     	; 0x1216 <__divsf3_pse+0x10>
    122c:	33 d0       	rcall	.+102    	; 0x1294 <__divsf3_pse+0x8e>
    122e:	0e 2e       	mov	r0, r30
    1230:	3a f0       	brmi	.+14     	; 0x1240 <__divsf3_pse+0x3a>
    1232:	e0 e8       	ldi	r30, 0x80	; 128
    1234:	30 d0       	rcall	.+96     	; 0x1296 <__divsf3_pse+0x90>
    1236:	91 50       	subi	r25, 0x01	; 1
    1238:	50 40       	sbci	r21, 0x00	; 0
    123a:	e6 95       	lsr	r30
    123c:	00 1c       	adc	r0, r0
    123e:	ca f7       	brpl	.-14     	; 0x1232 <__divsf3_pse+0x2c>
    1240:	29 d0       	rcall	.+82     	; 0x1294 <__divsf3_pse+0x8e>
    1242:	fe 2f       	mov	r31, r30
    1244:	27 d0       	rcall	.+78     	; 0x1294 <__divsf3_pse+0x8e>
    1246:	66 0f       	add	r22, r22
    1248:	77 1f       	adc	r23, r23
    124a:	88 1f       	adc	r24, r24
    124c:	bb 1f       	adc	r27, r27
    124e:	26 17       	cp	r18, r22
    1250:	37 07       	cpc	r19, r23
    1252:	48 07       	cpc	r20, r24
    1254:	ab 07       	cpc	r26, r27
    1256:	b0 e8       	ldi	r27, 0x80	; 128
    1258:	09 f0       	breq	.+2      	; 0x125c <__divsf3_pse+0x56>
    125a:	bb 0b       	sbc	r27, r27
    125c:	80 2d       	mov	r24, r0
    125e:	bf 01       	movw	r22, r30
    1260:	ff 27       	eor	r31, r31
    1262:	93 58       	subi	r25, 0x83	; 131
    1264:	5f 4f       	sbci	r21, 0xFF	; 255
    1266:	2a f0       	brmi	.+10     	; 0x1272 <__divsf3_pse+0x6c>
    1268:	9e 3f       	cpi	r25, 0xFE	; 254
    126a:	51 05       	cpc	r21, r1
    126c:	68 f0       	brcs	.+26     	; 0x1288 <__divsf3_pse+0x82>
    126e:	d0 c0       	rjmp	.+416    	; 0x1410 <__fp_inf>
    1270:	1a c1       	rjmp	.+564    	; 0x14a6 <__fp_szero>
    1272:	5f 3f       	cpi	r21, 0xFF	; 255
    1274:	ec f3       	brlt	.-6      	; 0x1270 <__divsf3_pse+0x6a>
    1276:	98 3e       	cpi	r25, 0xE8	; 232
    1278:	dc f3       	brlt	.-10     	; 0x1270 <__divsf3_pse+0x6a>
    127a:	86 95       	lsr	r24
    127c:	77 95       	ror	r23
    127e:	67 95       	ror	r22
    1280:	b7 95       	ror	r27
    1282:	f7 95       	ror	r31
    1284:	9f 5f       	subi	r25, 0xFF	; 255
    1286:	c9 f7       	brne	.-14     	; 0x127a <__divsf3_pse+0x74>
    1288:	88 0f       	add	r24, r24
    128a:	91 1d       	adc	r25, r1
    128c:	96 95       	lsr	r25
    128e:	87 95       	ror	r24
    1290:	97 f9       	bld	r25, 7
    1292:	08 95       	ret
    1294:	e1 e0       	ldi	r30, 0x01	; 1
    1296:	66 0f       	add	r22, r22
    1298:	77 1f       	adc	r23, r23
    129a:	88 1f       	adc	r24, r24
    129c:	bb 1f       	adc	r27, r27
    129e:	62 17       	cp	r22, r18
    12a0:	73 07       	cpc	r23, r19
    12a2:	84 07       	cpc	r24, r20
    12a4:	ba 07       	cpc	r27, r26
    12a6:	20 f0       	brcs	.+8      	; 0x12b0 <__divsf3_pse+0xaa>
    12a8:	62 1b       	sub	r22, r18
    12aa:	73 0b       	sbc	r23, r19
    12ac:	84 0b       	sbc	r24, r20
    12ae:	ba 0b       	sbc	r27, r26
    12b0:	ee 1f       	adc	r30, r30
    12b2:	88 f7       	brcc	.-30     	; 0x1296 <__divsf3_pse+0x90>
    12b4:	e0 95       	com	r30
    12b6:	08 95       	ret

000012b8 <__fixsfsi>:
    12b8:	04 d0       	rcall	.+8      	; 0x12c2 <__fixunssfsi>
    12ba:	68 94       	set
    12bc:	b1 11       	cpse	r27, r1
    12be:	f3 c0       	rjmp	.+486    	; 0x14a6 <__fp_szero>
    12c0:	08 95       	ret

000012c2 <__fixunssfsi>:
    12c2:	d6 d0       	rcall	.+428    	; 0x1470 <__fp_splitA>
    12c4:	88 f0       	brcs	.+34     	; 0x12e8 <__fixunssfsi+0x26>
    12c6:	9f 57       	subi	r25, 0x7F	; 127
    12c8:	90 f0       	brcs	.+36     	; 0x12ee <__fixunssfsi+0x2c>
    12ca:	b9 2f       	mov	r27, r25
    12cc:	99 27       	eor	r25, r25
    12ce:	b7 51       	subi	r27, 0x17	; 23
    12d0:	a0 f0       	brcs	.+40     	; 0x12fa <__fixunssfsi+0x38>
    12d2:	d1 f0       	breq	.+52     	; 0x1308 <__fixunssfsi+0x46>
    12d4:	66 0f       	add	r22, r22
    12d6:	77 1f       	adc	r23, r23
    12d8:	88 1f       	adc	r24, r24
    12da:	99 1f       	adc	r25, r25
    12dc:	1a f0       	brmi	.+6      	; 0x12e4 <__fixunssfsi+0x22>
    12de:	ba 95       	dec	r27
    12e0:	c9 f7       	brne	.-14     	; 0x12d4 <__fixunssfsi+0x12>
    12e2:	12 c0       	rjmp	.+36     	; 0x1308 <__fixunssfsi+0x46>
    12e4:	b1 30       	cpi	r27, 0x01	; 1
    12e6:	81 f0       	breq	.+32     	; 0x1308 <__fixunssfsi+0x46>
    12e8:	dd d0       	rcall	.+442    	; 0x14a4 <__fp_zero>
    12ea:	b1 e0       	ldi	r27, 0x01	; 1
    12ec:	08 95       	ret
    12ee:	da c0       	rjmp	.+436    	; 0x14a4 <__fp_zero>
    12f0:	67 2f       	mov	r22, r23
    12f2:	78 2f       	mov	r23, r24
    12f4:	88 27       	eor	r24, r24
    12f6:	b8 5f       	subi	r27, 0xF8	; 248
    12f8:	39 f0       	breq	.+14     	; 0x1308 <__fixunssfsi+0x46>
    12fa:	b9 3f       	cpi	r27, 0xF9	; 249
    12fc:	cc f3       	brlt	.-14     	; 0x12f0 <__fixunssfsi+0x2e>
    12fe:	86 95       	lsr	r24
    1300:	77 95       	ror	r23
    1302:	67 95       	ror	r22
    1304:	b3 95       	inc	r27
    1306:	d9 f7       	brne	.-10     	; 0x12fe <__fixunssfsi+0x3c>
    1308:	3e f4       	brtc	.+14     	; 0x1318 <__fixunssfsi+0x56>
    130a:	90 95       	com	r25
    130c:	80 95       	com	r24
    130e:	70 95       	com	r23
    1310:	61 95       	neg	r22
    1312:	7f 4f       	sbci	r23, 0xFF	; 255
    1314:	8f 4f       	sbci	r24, 0xFF	; 255
    1316:	9f 4f       	sbci	r25, 0xFF	; 255
    1318:	08 95       	ret

0000131a <__floatunsisf>:
    131a:	e8 94       	clt
    131c:	09 c0       	rjmp	.+18     	; 0x1330 <__floatsisf+0x12>

0000131e <__floatsisf>:
    131e:	97 fb       	bst	r25, 7
    1320:	3e f4       	brtc	.+14     	; 0x1330 <__floatsisf+0x12>
    1322:	90 95       	com	r25
    1324:	80 95       	com	r24
    1326:	70 95       	com	r23
    1328:	61 95       	neg	r22
    132a:	7f 4f       	sbci	r23, 0xFF	; 255
    132c:	8f 4f       	sbci	r24, 0xFF	; 255
    132e:	9f 4f       	sbci	r25, 0xFF	; 255
    1330:	99 23       	and	r25, r25
    1332:	a9 f0       	breq	.+42     	; 0x135e <__floatsisf+0x40>
    1334:	f9 2f       	mov	r31, r25
    1336:	96 e9       	ldi	r25, 0x96	; 150
    1338:	bb 27       	eor	r27, r27
    133a:	93 95       	inc	r25
    133c:	f6 95       	lsr	r31
    133e:	87 95       	ror	r24
    1340:	77 95       	ror	r23
    1342:	67 95       	ror	r22
    1344:	b7 95       	ror	r27
    1346:	f1 11       	cpse	r31, r1
    1348:	f8 cf       	rjmp	.-16     	; 0x133a <__floatsisf+0x1c>
    134a:	fa f4       	brpl	.+62     	; 0x138a <__floatsisf+0x6c>
    134c:	bb 0f       	add	r27, r27
    134e:	11 f4       	brne	.+4      	; 0x1354 <__floatsisf+0x36>
    1350:	60 ff       	sbrs	r22, 0
    1352:	1b c0       	rjmp	.+54     	; 0x138a <__floatsisf+0x6c>
    1354:	6f 5f       	subi	r22, 0xFF	; 255
    1356:	7f 4f       	sbci	r23, 0xFF	; 255
    1358:	8f 4f       	sbci	r24, 0xFF	; 255
    135a:	9f 4f       	sbci	r25, 0xFF	; 255
    135c:	16 c0       	rjmp	.+44     	; 0x138a <__floatsisf+0x6c>
    135e:	88 23       	and	r24, r24
    1360:	11 f0       	breq	.+4      	; 0x1366 <__floatsisf+0x48>
    1362:	96 e9       	ldi	r25, 0x96	; 150
    1364:	11 c0       	rjmp	.+34     	; 0x1388 <__floatsisf+0x6a>
    1366:	77 23       	and	r23, r23
    1368:	21 f0       	breq	.+8      	; 0x1372 <__floatsisf+0x54>
    136a:	9e e8       	ldi	r25, 0x8E	; 142
    136c:	87 2f       	mov	r24, r23
    136e:	76 2f       	mov	r23, r22
    1370:	05 c0       	rjmp	.+10     	; 0x137c <__floatsisf+0x5e>
    1372:	66 23       	and	r22, r22
    1374:	71 f0       	breq	.+28     	; 0x1392 <__floatsisf+0x74>
    1376:	96 e8       	ldi	r25, 0x86	; 134
    1378:	86 2f       	mov	r24, r22
    137a:	70 e0       	ldi	r23, 0x00	; 0
    137c:	60 e0       	ldi	r22, 0x00	; 0
    137e:	2a f0       	brmi	.+10     	; 0x138a <__floatsisf+0x6c>
    1380:	9a 95       	dec	r25
    1382:	66 0f       	add	r22, r22
    1384:	77 1f       	adc	r23, r23
    1386:	88 1f       	adc	r24, r24
    1388:	da f7       	brpl	.-10     	; 0x1380 <__floatsisf+0x62>
    138a:	88 0f       	add	r24, r24
    138c:	96 95       	lsr	r25
    138e:	87 95       	ror	r24
    1390:	97 f9       	bld	r25, 7
    1392:	08 95       	ret

00001394 <__floatundisf>:
    1394:	e8 94       	clt

00001396 <__fp_di2sf>:
    1396:	f9 2f       	mov	r31, r25
    1398:	96 eb       	ldi	r25, 0xB6	; 182
    139a:	ff 23       	and	r31, r31
    139c:	81 f0       	breq	.+32     	; 0x13be <__fp_di2sf+0x28>
    139e:	12 16       	cp	r1, r18
    13a0:	13 06       	cpc	r1, r19
    13a2:	14 06       	cpc	r1, r20
    13a4:	44 0b       	sbc	r20, r20
    13a6:	93 95       	inc	r25
    13a8:	f6 95       	lsr	r31
    13aa:	87 95       	ror	r24
    13ac:	77 95       	ror	r23
    13ae:	67 95       	ror	r22
    13b0:	57 95       	ror	r21
    13b2:	40 40       	sbci	r20, 0x00	; 0
    13b4:	ff 23       	and	r31, r31
    13b6:	b9 f7       	brne	.-18     	; 0x13a6 <__fp_di2sf+0x10>
    13b8:	1b c0       	rjmp	.+54     	; 0x13f0 <__fp_di2sf+0x5a>
    13ba:	99 27       	eor	r25, r25
    13bc:	08 95       	ret
    13be:	88 23       	and	r24, r24
    13c0:	51 f4       	brne	.+20     	; 0x13d6 <__fp_di2sf+0x40>
    13c2:	98 50       	subi	r25, 0x08	; 8
    13c4:	d2 f7       	brpl	.-12     	; 0x13ba <__fp_di2sf+0x24>
    13c6:	87 2b       	or	r24, r23
    13c8:	76 2f       	mov	r23, r22
    13ca:	65 2f       	mov	r22, r21
    13cc:	54 2f       	mov	r21, r20
    13ce:	43 2f       	mov	r20, r19
    13d0:	32 2f       	mov	r19, r18
    13d2:	20 e0       	ldi	r18, 0x00	; 0
    13d4:	b1 f3       	breq	.-20     	; 0x13c2 <__fp_di2sf+0x2c>
    13d6:	12 16       	cp	r1, r18
    13d8:	13 06       	cpc	r1, r19
    13da:	14 06       	cpc	r1, r20
    13dc:	44 0b       	sbc	r20, r20
    13de:	88 23       	and	r24, r24
    13e0:	3a f0       	brmi	.+14     	; 0x13f0 <__fp_di2sf+0x5a>
    13e2:	9a 95       	dec	r25
    13e4:	44 0f       	add	r20, r20
    13e6:	55 1f       	adc	r21, r21
    13e8:	66 1f       	adc	r22, r22
    13ea:	77 1f       	adc	r23, r23
    13ec:	88 1f       	adc	r24, r24
    13ee:	ca f7       	brpl	.-14     	; 0x13e2 <__fp_di2sf+0x4c>
    13f0:	55 23       	and	r21, r21
    13f2:	4a f4       	brpl	.+18     	; 0x1406 <__fp_di2sf+0x70>
    13f4:	44 0f       	add	r20, r20
    13f6:	55 1f       	adc	r21, r21
    13f8:	11 f4       	brne	.+4      	; 0x13fe <__fp_di2sf+0x68>
    13fa:	60 ff       	sbrs	r22, 0
    13fc:	04 c0       	rjmp	.+8      	; 0x1406 <__fp_di2sf+0x70>
    13fe:	6f 5f       	subi	r22, 0xFF	; 255
    1400:	7f 4f       	sbci	r23, 0xFF	; 255
    1402:	8f 4f       	sbci	r24, 0xFF	; 255
    1404:	9f 4f       	sbci	r25, 0xFF	; 255
    1406:	88 0f       	add	r24, r24
    1408:	96 95       	lsr	r25
    140a:	87 95       	ror	r24
    140c:	97 f9       	bld	r25, 7
    140e:	08 95       	ret

00001410 <__fp_inf>:
    1410:	97 f9       	bld	r25, 7
    1412:	9f 67       	ori	r25, 0x7F	; 127
    1414:	80 e8       	ldi	r24, 0x80	; 128
    1416:	70 e0       	ldi	r23, 0x00	; 0
    1418:	60 e0       	ldi	r22, 0x00	; 0
    141a:	08 95       	ret

0000141c <__fp_nan>:
    141c:	9f ef       	ldi	r25, 0xFF	; 255
    141e:	80 ec       	ldi	r24, 0xC0	; 192
    1420:	08 95       	ret

00001422 <__fp_pscA>:
    1422:	00 24       	eor	r0, r0
    1424:	0a 94       	dec	r0
    1426:	16 16       	cp	r1, r22
    1428:	17 06       	cpc	r1, r23
    142a:	18 06       	cpc	r1, r24
    142c:	09 06       	cpc	r0, r25
    142e:	08 95       	ret

00001430 <__fp_pscB>:
    1430:	00 24       	eor	r0, r0
    1432:	0a 94       	dec	r0
    1434:	12 16       	cp	r1, r18
    1436:	13 06       	cpc	r1, r19
    1438:	14 06       	cpc	r1, r20
    143a:	05 06       	cpc	r0, r21
    143c:	08 95       	ret

0000143e <__fp_round>:
    143e:	09 2e       	mov	r0, r25
    1440:	03 94       	inc	r0
    1442:	00 0c       	add	r0, r0
    1444:	11 f4       	brne	.+4      	; 0x144a <__fp_round+0xc>
    1446:	88 23       	and	r24, r24
    1448:	52 f0       	brmi	.+20     	; 0x145e <__fp_round+0x20>
    144a:	bb 0f       	add	r27, r27
    144c:	40 f4       	brcc	.+16     	; 0x145e <__fp_round+0x20>
    144e:	bf 2b       	or	r27, r31
    1450:	11 f4       	brne	.+4      	; 0x1456 <__fp_round+0x18>
    1452:	60 ff       	sbrs	r22, 0
    1454:	04 c0       	rjmp	.+8      	; 0x145e <__fp_round+0x20>
    1456:	6f 5f       	subi	r22, 0xFF	; 255
    1458:	7f 4f       	sbci	r23, 0xFF	; 255
    145a:	8f 4f       	sbci	r24, 0xFF	; 255
    145c:	9f 4f       	sbci	r25, 0xFF	; 255
    145e:	08 95       	ret

00001460 <__fp_split3>:
    1460:	57 fd       	sbrc	r21, 7
    1462:	90 58       	subi	r25, 0x80	; 128
    1464:	44 0f       	add	r20, r20
    1466:	55 1f       	adc	r21, r21
    1468:	59 f0       	breq	.+22     	; 0x1480 <__fp_splitA+0x10>
    146a:	5f 3f       	cpi	r21, 0xFF	; 255
    146c:	71 f0       	breq	.+28     	; 0x148a <__fp_splitA+0x1a>
    146e:	47 95       	ror	r20

00001470 <__fp_splitA>:
    1470:	88 0f       	add	r24, r24
    1472:	97 fb       	bst	r25, 7
    1474:	99 1f       	adc	r25, r25
    1476:	61 f0       	breq	.+24     	; 0x1490 <__fp_splitA+0x20>
    1478:	9f 3f       	cpi	r25, 0xFF	; 255
    147a:	79 f0       	breq	.+30     	; 0x149a <__fp_splitA+0x2a>
    147c:	87 95       	ror	r24
    147e:	08 95       	ret
    1480:	12 16       	cp	r1, r18
    1482:	13 06       	cpc	r1, r19
    1484:	14 06       	cpc	r1, r20
    1486:	55 1f       	adc	r21, r21
    1488:	f2 cf       	rjmp	.-28     	; 0x146e <__fp_split3+0xe>
    148a:	46 95       	lsr	r20
    148c:	f1 df       	rcall	.-30     	; 0x1470 <__fp_splitA>
    148e:	08 c0       	rjmp	.+16     	; 0x14a0 <__fp_splitA+0x30>
    1490:	16 16       	cp	r1, r22
    1492:	17 06       	cpc	r1, r23
    1494:	18 06       	cpc	r1, r24
    1496:	99 1f       	adc	r25, r25
    1498:	f1 cf       	rjmp	.-30     	; 0x147c <__fp_splitA+0xc>
    149a:	86 95       	lsr	r24
    149c:	71 05       	cpc	r23, r1
    149e:	61 05       	cpc	r22, r1
    14a0:	08 94       	sec
    14a2:	08 95       	ret

000014a4 <__fp_zero>:
    14a4:	e8 94       	clt

000014a6 <__fp_szero>:
    14a6:	bb 27       	eor	r27, r27
    14a8:	66 27       	eor	r22, r22
    14aa:	77 27       	eor	r23, r23
    14ac:	cb 01       	movw	r24, r22
    14ae:	97 f9       	bld	r25, 7
    14b0:	08 95       	ret
    14b2:	0e f0       	brts	.+2      	; 0x14b6 <__fp_szero+0x10>
    14b4:	23 c1       	rjmp	.+582    	; 0x16fc <__fp_mpack>
    14b6:	b2 cf       	rjmp	.-156    	; 0x141c <__fp_nan>
    14b8:	68 94       	set
    14ba:	aa cf       	rjmp	.-172    	; 0x1410 <__fp_inf>

000014bc <log>:
    14bc:	d9 df       	rcall	.-78     	; 0x1470 <__fp_splitA>
    14be:	c8 f3       	brcs	.-14     	; 0x14b2 <__fp_szero+0xc>
    14c0:	99 23       	and	r25, r25
    14c2:	d1 f3       	breq	.-12     	; 0x14b8 <__fp_szero+0x12>
    14c4:	c6 f3       	brts	.-16     	; 0x14b6 <__fp_szero+0x10>
    14c6:	df 93       	push	r29
    14c8:	cf 93       	push	r28
    14ca:	1f 93       	push	r17
    14cc:	0f 93       	push	r16
    14ce:	ff 92       	push	r15
    14d0:	c9 2f       	mov	r28, r25
    14d2:	dd 27       	eor	r29, r29
    14d4:	88 23       	and	r24, r24
    14d6:	2a f0       	brmi	.+10     	; 0x14e2 <log+0x26>
    14d8:	21 97       	sbiw	r28, 0x01	; 1
    14da:	66 0f       	add	r22, r22
    14dc:	77 1f       	adc	r23, r23
    14de:	88 1f       	adc	r24, r24
    14e0:	da f7       	brpl	.-10     	; 0x14d8 <log+0x1c>
    14e2:	20 e0       	ldi	r18, 0x00	; 0
    14e4:	30 e0       	ldi	r19, 0x00	; 0
    14e6:	40 e8       	ldi	r20, 0x80	; 128
    14e8:	5f eb       	ldi	r21, 0xBF	; 191
    14ea:	9f e3       	ldi	r25, 0x3F	; 63
    14ec:	88 39       	cpi	r24, 0x98	; 152
    14ee:	20 f0       	brcs	.+8      	; 0x14f8 <log+0x3c>
    14f0:	80 3e       	cpi	r24, 0xE0	; 224
    14f2:	30 f0       	brcs	.+12     	; 0x1500 <log+0x44>
    14f4:	21 96       	adiw	r28, 0x01	; 1
    14f6:	8f 77       	andi	r24, 0x7F	; 127
    14f8:	13 de       	rcall	.-986    	; 0x1120 <__addsf3>
    14fa:	ec ef       	ldi	r30, 0xFC	; 252
    14fc:	f1 e0       	ldi	r31, 0x01	; 1
    14fe:	03 c0       	rjmp	.+6      	; 0x1506 <log+0x4a>
    1500:	0f de       	rcall	.-994    	; 0x1120 <__addsf3>
    1502:	e9 e2       	ldi	r30, 0x29	; 41
    1504:	f2 e0       	ldi	r31, 0x02	; 2
    1506:	08 d1       	rcall	.+528    	; 0x1718 <__fp_powser>
    1508:	8b 01       	movw	r16, r22
    150a:	be 01       	movw	r22, r28
    150c:	ec 01       	movw	r28, r24
    150e:	fb 2e       	mov	r15, r27
    1510:	6f 57       	subi	r22, 0x7F	; 127
    1512:	71 09       	sbc	r23, r1
    1514:	75 95       	asr	r23
    1516:	77 1f       	adc	r23, r23
    1518:	88 0b       	sbc	r24, r24
    151a:	99 0b       	sbc	r25, r25
    151c:	00 df       	rcall	.-512    	; 0x131e <__floatsisf>
    151e:	28 e1       	ldi	r18, 0x18	; 24
    1520:	32 e7       	ldi	r19, 0x72	; 114
    1522:	41 e3       	ldi	r20, 0x31	; 49
    1524:	5f e3       	ldi	r21, 0x3F	; 63
    1526:	16 d0       	rcall	.+44     	; 0x1554 <__mulsf3x>
    1528:	af 2d       	mov	r26, r15
    152a:	98 01       	movw	r18, r16
    152c:	ae 01       	movw	r20, r28
    152e:	ff 90       	pop	r15
    1530:	0f 91       	pop	r16
    1532:	1f 91       	pop	r17
    1534:	cf 91       	pop	r28
    1536:	df 91       	pop	r29
    1538:	04 de       	rcall	.-1016   	; 0x1142 <__addsf3x>
    153a:	81 cf       	rjmp	.-254    	; 0x143e <__fp_round>

0000153c <__mulsf3>:
    153c:	0b d0       	rcall	.+22     	; 0x1554 <__mulsf3x>
    153e:	7f cf       	rjmp	.-258    	; 0x143e <__fp_round>
    1540:	70 df       	rcall	.-288    	; 0x1422 <__fp_pscA>
    1542:	28 f0       	brcs	.+10     	; 0x154e <__mulsf3+0x12>
    1544:	75 df       	rcall	.-278    	; 0x1430 <__fp_pscB>
    1546:	18 f0       	brcs	.+6      	; 0x154e <__mulsf3+0x12>
    1548:	95 23       	and	r25, r21
    154a:	09 f0       	breq	.+2      	; 0x154e <__mulsf3+0x12>
    154c:	61 cf       	rjmp	.-318    	; 0x1410 <__fp_inf>
    154e:	66 cf       	rjmp	.-308    	; 0x141c <__fp_nan>
    1550:	11 24       	eor	r1, r1
    1552:	a9 cf       	rjmp	.-174    	; 0x14a6 <__fp_szero>

00001554 <__mulsf3x>:
    1554:	85 df       	rcall	.-246    	; 0x1460 <__fp_split3>
    1556:	a0 f3       	brcs	.-24     	; 0x1540 <__mulsf3+0x4>

00001558 <__mulsf3_pse>:
    1558:	95 9f       	mul	r25, r21
    155a:	d1 f3       	breq	.-12     	; 0x1550 <__mulsf3+0x14>
    155c:	95 0f       	add	r25, r21
    155e:	50 e0       	ldi	r21, 0x00	; 0
    1560:	55 1f       	adc	r21, r21
    1562:	62 9f       	mul	r22, r18
    1564:	f0 01       	movw	r30, r0
    1566:	72 9f       	mul	r23, r18
    1568:	bb 27       	eor	r27, r27
    156a:	f0 0d       	add	r31, r0
    156c:	b1 1d       	adc	r27, r1
    156e:	63 9f       	mul	r22, r19
    1570:	aa 27       	eor	r26, r26
    1572:	f0 0d       	add	r31, r0
    1574:	b1 1d       	adc	r27, r1
    1576:	aa 1f       	adc	r26, r26
    1578:	64 9f       	mul	r22, r20
    157a:	66 27       	eor	r22, r22
    157c:	b0 0d       	add	r27, r0
    157e:	a1 1d       	adc	r26, r1
    1580:	66 1f       	adc	r22, r22
    1582:	82 9f       	mul	r24, r18
    1584:	22 27       	eor	r18, r18
    1586:	b0 0d       	add	r27, r0
    1588:	a1 1d       	adc	r26, r1
    158a:	62 1f       	adc	r22, r18
    158c:	73 9f       	mul	r23, r19
    158e:	b0 0d       	add	r27, r0
    1590:	a1 1d       	adc	r26, r1
    1592:	62 1f       	adc	r22, r18
    1594:	83 9f       	mul	r24, r19
    1596:	a0 0d       	add	r26, r0
    1598:	61 1d       	adc	r22, r1
    159a:	22 1f       	adc	r18, r18
    159c:	74 9f       	mul	r23, r20
    159e:	33 27       	eor	r19, r19
    15a0:	a0 0d       	add	r26, r0
    15a2:	61 1d       	adc	r22, r1
    15a4:	23 1f       	adc	r18, r19
    15a6:	84 9f       	mul	r24, r20
    15a8:	60 0d       	add	r22, r0
    15aa:	21 1d       	adc	r18, r1
    15ac:	82 2f       	mov	r24, r18
    15ae:	76 2f       	mov	r23, r22
    15b0:	6a 2f       	mov	r22, r26
    15b2:	11 24       	eor	r1, r1
    15b4:	9f 57       	subi	r25, 0x7F	; 127
    15b6:	50 40       	sbci	r21, 0x00	; 0
    15b8:	8a f0       	brmi	.+34     	; 0x15dc <__mulsf3_pse+0x84>
    15ba:	e1 f0       	breq	.+56     	; 0x15f4 <__mulsf3_pse+0x9c>
    15bc:	88 23       	and	r24, r24
    15be:	4a f0       	brmi	.+18     	; 0x15d2 <__mulsf3_pse+0x7a>
    15c0:	ee 0f       	add	r30, r30
    15c2:	ff 1f       	adc	r31, r31
    15c4:	bb 1f       	adc	r27, r27
    15c6:	66 1f       	adc	r22, r22
    15c8:	77 1f       	adc	r23, r23
    15ca:	88 1f       	adc	r24, r24
    15cc:	91 50       	subi	r25, 0x01	; 1
    15ce:	50 40       	sbci	r21, 0x00	; 0
    15d0:	a9 f7       	brne	.-22     	; 0x15bc <__mulsf3_pse+0x64>
    15d2:	9e 3f       	cpi	r25, 0xFE	; 254
    15d4:	51 05       	cpc	r21, r1
    15d6:	70 f0       	brcs	.+28     	; 0x15f4 <__mulsf3_pse+0x9c>
    15d8:	1b cf       	rjmp	.-458    	; 0x1410 <__fp_inf>
    15da:	65 cf       	rjmp	.-310    	; 0x14a6 <__fp_szero>
    15dc:	5f 3f       	cpi	r21, 0xFF	; 255
    15de:	ec f3       	brlt	.-6      	; 0x15da <__mulsf3_pse+0x82>
    15e0:	98 3e       	cpi	r25, 0xE8	; 232
    15e2:	dc f3       	brlt	.-10     	; 0x15da <__mulsf3_pse+0x82>
    15e4:	86 95       	lsr	r24
    15e6:	77 95       	ror	r23
    15e8:	67 95       	ror	r22
    15ea:	b7 95       	ror	r27
    15ec:	f7 95       	ror	r31
    15ee:	e7 95       	ror	r30
    15f0:	9f 5f       	subi	r25, 0xFF	; 255
    15f2:	c1 f7       	brne	.-16     	; 0x15e4 <__mulsf3_pse+0x8c>
    15f4:	fe 2b       	or	r31, r30
    15f6:	88 0f       	add	r24, r24
    15f8:	91 1d       	adc	r25, r1
    15fa:	96 95       	lsr	r25
    15fc:	87 95       	ror	r24
    15fe:	97 f9       	bld	r25, 7
    1600:	08 95       	ret

00001602 <pow>:
    1602:	fa 01       	movw	r30, r20
    1604:	ee 0f       	add	r30, r30
    1606:	ff 1f       	adc	r31, r31
    1608:	30 96       	adiw	r30, 0x00	; 0
    160a:	21 05       	cpc	r18, r1
    160c:	31 05       	cpc	r19, r1
    160e:	99 f1       	breq	.+102    	; 0x1676 <pow+0x74>
    1610:	61 15       	cp	r22, r1
    1612:	71 05       	cpc	r23, r1
    1614:	61 f4       	brne	.+24     	; 0x162e <pow+0x2c>
    1616:	80 38       	cpi	r24, 0x80	; 128
    1618:	bf e3       	ldi	r27, 0x3F	; 63
    161a:	9b 07       	cpc	r25, r27
    161c:	49 f1       	breq	.+82     	; 0x1670 <pow+0x6e>
    161e:	68 94       	set
    1620:	90 38       	cpi	r25, 0x80	; 128
    1622:	81 05       	cpc	r24, r1
    1624:	61 f0       	breq	.+24     	; 0x163e <pow+0x3c>
    1626:	80 38       	cpi	r24, 0x80	; 128
    1628:	bf ef       	ldi	r27, 0xFF	; 255
    162a:	9b 07       	cpc	r25, r27
    162c:	41 f0       	breq	.+16     	; 0x163e <pow+0x3c>
    162e:	99 23       	and	r25, r25
    1630:	42 f5       	brpl	.+80     	; 0x1682 <pow+0x80>
    1632:	ff 3f       	cpi	r31, 0xFF	; 255
    1634:	e1 05       	cpc	r30, r1
    1636:	31 05       	cpc	r19, r1
    1638:	21 05       	cpc	r18, r1
    163a:	11 f1       	breq	.+68     	; 0x1680 <pow+0x7e>
    163c:	e8 94       	clt
    163e:	08 94       	sec
    1640:	e7 95       	ror	r30
    1642:	d9 01       	movw	r26, r18
    1644:	aa 23       	and	r26, r26
    1646:	29 f4       	brne	.+10     	; 0x1652 <pow+0x50>
    1648:	ab 2f       	mov	r26, r27
    164a:	be 2f       	mov	r27, r30
    164c:	f8 5f       	subi	r31, 0xF8	; 248
    164e:	d0 f3       	brcs	.-12     	; 0x1644 <pow+0x42>
    1650:	10 c0       	rjmp	.+32     	; 0x1672 <pow+0x70>
    1652:	ff 5f       	subi	r31, 0xFF	; 255
    1654:	70 f4       	brcc	.+28     	; 0x1672 <pow+0x70>
    1656:	a6 95       	lsr	r26
    1658:	e0 f7       	brcc	.-8      	; 0x1652 <pow+0x50>
    165a:	f7 39       	cpi	r31, 0x97	; 151
    165c:	50 f0       	brcs	.+20     	; 0x1672 <pow+0x70>
    165e:	19 f0       	breq	.+6      	; 0x1666 <pow+0x64>
    1660:	ff 3a       	cpi	r31, 0xAF	; 175
    1662:	38 f4       	brcc	.+14     	; 0x1672 <pow+0x70>
    1664:	9f 77       	andi	r25, 0x7F	; 127
    1666:	9f 93       	push	r25
    1668:	0c d0       	rcall	.+24     	; 0x1682 <pow+0x80>
    166a:	0f 90       	pop	r0
    166c:	07 fc       	sbrc	r0, 7
    166e:	90 58       	subi	r25, 0x80	; 128
    1670:	08 95       	ret
    1672:	3e f0       	brts	.+14     	; 0x1682 <pow+0x80>
    1674:	d3 ce       	rjmp	.-602    	; 0x141c <__fp_nan>
    1676:	60 e0       	ldi	r22, 0x00	; 0
    1678:	70 e0       	ldi	r23, 0x00	; 0
    167a:	80 e8       	ldi	r24, 0x80	; 128
    167c:	9f e3       	ldi	r25, 0x3F	; 63
    167e:	08 95       	ret
    1680:	4f e7       	ldi	r20, 0x7F	; 127
    1682:	9f 77       	andi	r25, 0x7F	; 127
    1684:	5f 93       	push	r21
    1686:	4f 93       	push	r20
    1688:	3f 93       	push	r19
    168a:	2f 93       	push	r18
    168c:	17 df       	rcall	.-466    	; 0x14bc <log>
    168e:	2f 91       	pop	r18
    1690:	3f 91       	pop	r19
    1692:	4f 91       	pop	r20
    1694:	5f 91       	pop	r21
    1696:	52 df       	rcall	.-348    	; 0x153c <__mulsf3>
    1698:	05 c0       	rjmp	.+10     	; 0x16a4 <exp>
    169a:	19 f4       	brne	.+6      	; 0x16a2 <pow+0xa0>
    169c:	0e f0       	brts	.+2      	; 0x16a0 <pow+0x9e>
    169e:	b8 ce       	rjmp	.-656    	; 0x1410 <__fp_inf>
    16a0:	01 cf       	rjmp	.-510    	; 0x14a4 <__fp_zero>
    16a2:	bc ce       	rjmp	.-648    	; 0x141c <__fp_nan>

000016a4 <exp>:
    16a4:	e5 de       	rcall	.-566    	; 0x1470 <__fp_splitA>
    16a6:	c8 f3       	brcs	.-14     	; 0x169a <pow+0x98>
    16a8:	96 38       	cpi	r25, 0x86	; 134
    16aa:	c0 f7       	brcc	.-16     	; 0x169c <pow+0x9a>
    16ac:	07 f8       	bld	r0, 7
    16ae:	0f 92       	push	r0
    16b0:	e8 94       	clt
    16b2:	2b e3       	ldi	r18, 0x3B	; 59
    16b4:	3a ea       	ldi	r19, 0xAA	; 170
    16b6:	48 eb       	ldi	r20, 0xB8	; 184
    16b8:	5f e7       	ldi	r21, 0x7F	; 127
    16ba:	4e df       	rcall	.-356    	; 0x1558 <__mulsf3_pse>
    16bc:	0f 92       	push	r0
    16be:	0f 92       	push	r0
    16c0:	0f 92       	push	r0
    16c2:	4d b7       	in	r20, 0x3d	; 61
    16c4:	5e b7       	in	r21, 0x3e	; 62
    16c6:	0f 92       	push	r0
    16c8:	89 d0       	rcall	.+274    	; 0x17dc <modf>
    16ca:	e6 e5       	ldi	r30, 0x56	; 86
    16cc:	f2 e0       	ldi	r31, 0x02	; 2
    16ce:	24 d0       	rcall	.+72     	; 0x1718 <__fp_powser>
    16d0:	4f 91       	pop	r20
    16d2:	5f 91       	pop	r21
    16d4:	ef 91       	pop	r30
    16d6:	ff 91       	pop	r31
    16d8:	e5 95       	asr	r30
    16da:	ee 1f       	adc	r30, r30
    16dc:	ff 1f       	adc	r31, r31
    16de:	49 f0       	breq	.+18     	; 0x16f2 <exp+0x4e>
    16e0:	fe 57       	subi	r31, 0x7E	; 126
    16e2:	e0 68       	ori	r30, 0x80	; 128
    16e4:	44 27       	eor	r20, r20
    16e6:	ee 0f       	add	r30, r30
    16e8:	44 1f       	adc	r20, r20
    16ea:	fa 95       	dec	r31
    16ec:	e1 f7       	brne	.-8      	; 0x16e6 <exp+0x42>
    16ee:	41 95       	neg	r20
    16f0:	55 0b       	sbc	r21, r21
    16f2:	40 d0       	rcall	.+128    	; 0x1774 <ldexp>
    16f4:	0f 90       	pop	r0
    16f6:	07 fe       	sbrs	r0, 7
    16f8:	34 c0       	rjmp	.+104    	; 0x1762 <inverse>
    16fa:	08 95       	ret

000016fc <__fp_mpack>:
    16fc:	9f 3f       	cpi	r25, 0xFF	; 255
    16fe:	31 f0       	breq	.+12     	; 0x170c <__fp_mpack_finite+0xc>

00001700 <__fp_mpack_finite>:
    1700:	91 50       	subi	r25, 0x01	; 1
    1702:	20 f4       	brcc	.+8      	; 0x170c <__fp_mpack_finite+0xc>
    1704:	87 95       	ror	r24
    1706:	77 95       	ror	r23
    1708:	67 95       	ror	r22
    170a:	b7 95       	ror	r27
    170c:	88 0f       	add	r24, r24
    170e:	91 1d       	adc	r25, r1
    1710:	96 95       	lsr	r25
    1712:	87 95       	ror	r24
    1714:	97 f9       	bld	r25, 7
    1716:	08 95       	ret

00001718 <__fp_powser>:
    1718:	df 93       	push	r29
    171a:	cf 93       	push	r28
    171c:	1f 93       	push	r17
    171e:	0f 93       	push	r16
    1720:	ff 92       	push	r15
    1722:	ef 92       	push	r14
    1724:	df 92       	push	r13
    1726:	7b 01       	movw	r14, r22
    1728:	8c 01       	movw	r16, r24
    172a:	68 94       	set
    172c:	05 c0       	rjmp	.+10     	; 0x1738 <__fp_powser+0x20>
    172e:	da 2e       	mov	r13, r26
    1730:	ef 01       	movw	r28, r30
    1732:	10 df       	rcall	.-480    	; 0x1554 <__mulsf3x>
    1734:	fe 01       	movw	r30, r28
    1736:	e8 94       	clt
    1738:	a5 91       	lpm	r26, Z+
    173a:	25 91       	lpm	r18, Z+
    173c:	35 91       	lpm	r19, Z+
    173e:	45 91       	lpm	r20, Z+
    1740:	55 91       	lpm	r21, Z+
    1742:	ae f3       	brts	.-22     	; 0x172e <__fp_powser+0x16>
    1744:	ef 01       	movw	r28, r30
    1746:	fd dc       	rcall	.-1542   	; 0x1142 <__addsf3x>
    1748:	fe 01       	movw	r30, r28
    174a:	97 01       	movw	r18, r14
    174c:	a8 01       	movw	r20, r16
    174e:	da 94       	dec	r13
    1750:	79 f7       	brne	.-34     	; 0x1730 <__fp_powser+0x18>
    1752:	df 90       	pop	r13
    1754:	ef 90       	pop	r14
    1756:	ff 90       	pop	r15
    1758:	0f 91       	pop	r16
    175a:	1f 91       	pop	r17
    175c:	cf 91       	pop	r28
    175e:	df 91       	pop	r29
    1760:	08 95       	ret

00001762 <inverse>:
    1762:	9b 01       	movw	r18, r22
    1764:	ac 01       	movw	r20, r24
    1766:	60 e0       	ldi	r22, 0x00	; 0
    1768:	70 e0       	ldi	r23, 0x00	; 0
    176a:	80 e8       	ldi	r24, 0x80	; 128
    176c:	9f e3       	ldi	r25, 0x3F	; 63
    176e:	3c cd       	rjmp	.-1416   	; 0x11e8 <__divsf3>
    1770:	4f ce       	rjmp	.-866    	; 0x1410 <__fp_inf>
    1772:	c4 cf       	rjmp	.-120    	; 0x16fc <__fp_mpack>

00001774 <ldexp>:
    1774:	7d de       	rcall	.-774    	; 0x1470 <__fp_splitA>
    1776:	e8 f3       	brcs	.-6      	; 0x1772 <inverse+0x10>
    1778:	99 23       	and	r25, r25
    177a:	d9 f3       	breq	.-10     	; 0x1772 <inverse+0x10>
    177c:	94 0f       	add	r25, r20
    177e:	51 1d       	adc	r21, r1
    1780:	bb f3       	brvs	.-18     	; 0x1770 <inverse+0xe>
    1782:	91 50       	subi	r25, 0x01	; 1
    1784:	50 40       	sbci	r21, 0x00	; 0
    1786:	94 f0       	brlt	.+36     	; 0x17ac <ldexp+0x38>
    1788:	59 f0       	breq	.+22     	; 0x17a0 <ldexp+0x2c>
    178a:	88 23       	and	r24, r24
    178c:	32 f0       	brmi	.+12     	; 0x179a <ldexp+0x26>
    178e:	66 0f       	add	r22, r22
    1790:	77 1f       	adc	r23, r23
    1792:	88 1f       	adc	r24, r24
    1794:	91 50       	subi	r25, 0x01	; 1
    1796:	50 40       	sbci	r21, 0x00	; 0
    1798:	c1 f7       	brne	.-16     	; 0x178a <ldexp+0x16>
    179a:	9e 3f       	cpi	r25, 0xFE	; 254
    179c:	51 05       	cpc	r21, r1
    179e:	44 f7       	brge	.-48     	; 0x1770 <inverse+0xe>
    17a0:	88 0f       	add	r24, r24
    17a2:	91 1d       	adc	r25, r1
    17a4:	96 95       	lsr	r25
    17a6:	87 95       	ror	r24
    17a8:	97 f9       	bld	r25, 7
    17aa:	08 95       	ret
    17ac:	5f 3f       	cpi	r21, 0xFF	; 255
    17ae:	ac f0       	brlt	.+42     	; 0x17da <ldexp+0x66>
    17b0:	98 3e       	cpi	r25, 0xE8	; 232
    17b2:	9c f0       	brlt	.+38     	; 0x17da <ldexp+0x66>
    17b4:	bb 27       	eor	r27, r27
    17b6:	86 95       	lsr	r24
    17b8:	77 95       	ror	r23
    17ba:	67 95       	ror	r22
    17bc:	b7 95       	ror	r27
    17be:	08 f4       	brcc	.+2      	; 0x17c2 <ldexp+0x4e>
    17c0:	b1 60       	ori	r27, 0x01	; 1
    17c2:	93 95       	inc	r25
    17c4:	c1 f7       	brne	.-16     	; 0x17b6 <ldexp+0x42>
    17c6:	bb 0f       	add	r27, r27
    17c8:	58 f7       	brcc	.-42     	; 0x17a0 <ldexp+0x2c>
    17ca:	11 f4       	brne	.+4      	; 0x17d0 <ldexp+0x5c>
    17cc:	60 ff       	sbrs	r22, 0
    17ce:	e8 cf       	rjmp	.-48     	; 0x17a0 <ldexp+0x2c>
    17d0:	6f 5f       	subi	r22, 0xFF	; 255
    17d2:	7f 4f       	sbci	r23, 0xFF	; 255
    17d4:	8f 4f       	sbci	r24, 0xFF	; 255
    17d6:	9f 4f       	sbci	r25, 0xFF	; 255
    17d8:	e3 cf       	rjmp	.-58     	; 0x17a0 <ldexp+0x2c>
    17da:	65 ce       	rjmp	.-822    	; 0x14a6 <__fp_szero>

000017dc <modf>:
    17dc:	fa 01       	movw	r30, r20
    17de:	dc 01       	movw	r26, r24
    17e0:	aa 0f       	add	r26, r26
    17e2:	bb 1f       	adc	r27, r27
    17e4:	9b 01       	movw	r18, r22
    17e6:	ac 01       	movw	r20, r24
    17e8:	bf 57       	subi	r27, 0x7F	; 127
    17ea:	28 f4       	brcc	.+10     	; 0x17f6 <modf+0x1a>
    17ec:	22 27       	eor	r18, r18
    17ee:	33 27       	eor	r19, r19
    17f0:	44 27       	eor	r20, r20
    17f2:	50 78       	andi	r21, 0x80	; 128
    17f4:	1f c0       	rjmp	.+62     	; 0x1834 <modf+0x58>
    17f6:	b7 51       	subi	r27, 0x17	; 23
    17f8:	88 f4       	brcc	.+34     	; 0x181c <modf+0x40>
    17fa:	ab 2f       	mov	r26, r27
    17fc:	00 24       	eor	r0, r0
    17fe:	46 95       	lsr	r20
    1800:	37 95       	ror	r19
    1802:	27 95       	ror	r18
    1804:	01 1c       	adc	r0, r1
    1806:	a3 95       	inc	r26
    1808:	d2 f3       	brmi	.-12     	; 0x17fe <modf+0x22>
    180a:	00 20       	and	r0, r0
    180c:	69 f0       	breq	.+26     	; 0x1828 <modf+0x4c>
    180e:	22 0f       	add	r18, r18
    1810:	33 1f       	adc	r19, r19
    1812:	44 1f       	adc	r20, r20
    1814:	b3 95       	inc	r27
    1816:	da f3       	brmi	.-10     	; 0x180e <modf+0x32>
    1818:	0d d0       	rcall	.+26     	; 0x1834 <modf+0x58>
    181a:	81 cc       	rjmp	.-1790   	; 0x111e <__subsf3>
    181c:	61 30       	cpi	r22, 0x01	; 1
    181e:	71 05       	cpc	r23, r1
    1820:	a0 e8       	ldi	r26, 0x80	; 128
    1822:	8a 07       	cpc	r24, r26
    1824:	b9 46       	sbci	r27, 0x69	; 105
    1826:	30 f4       	brcc	.+12     	; 0x1834 <modf+0x58>
    1828:	9b 01       	movw	r18, r22
    182a:	ac 01       	movw	r20, r24
    182c:	66 27       	eor	r22, r22
    182e:	77 27       	eor	r23, r23
    1830:	88 27       	eor	r24, r24
    1832:	90 78       	andi	r25, 0x80	; 128
    1834:	30 96       	adiw	r30, 0x00	; 0
    1836:	21 f0       	breq	.+8      	; 0x1840 <modf+0x64>
    1838:	20 83       	st	Z, r18
    183a:	31 83       	std	Z+1, r19	; 0x01
    183c:	42 83       	std	Z+2, r20	; 0x02
    183e:	53 83       	std	Z+3, r21	; 0x03
    1840:	08 95       	ret

00001842 <__udivmodsi4>:
    1842:	a1 e2       	ldi	r26, 0x21	; 33
    1844:	1a 2e       	mov	r1, r26
    1846:	aa 1b       	sub	r26, r26
    1848:	bb 1b       	sub	r27, r27
    184a:	fd 01       	movw	r30, r26
    184c:	0d c0       	rjmp	.+26     	; 0x1868 <__udivmodsi4_ep>

0000184e <__udivmodsi4_loop>:
    184e:	aa 1f       	adc	r26, r26
    1850:	bb 1f       	adc	r27, r27
    1852:	ee 1f       	adc	r30, r30
    1854:	ff 1f       	adc	r31, r31
    1856:	a2 17       	cp	r26, r18
    1858:	b3 07       	cpc	r27, r19
    185a:	e4 07       	cpc	r30, r20
    185c:	f5 07       	cpc	r31, r21
    185e:	20 f0       	brcs	.+8      	; 0x1868 <__udivmodsi4_ep>
    1860:	a2 1b       	sub	r26, r18
    1862:	b3 0b       	sbc	r27, r19
    1864:	e4 0b       	sbc	r30, r20
    1866:	f5 0b       	sbc	r31, r21

00001868 <__udivmodsi4_ep>:
    1868:	66 1f       	adc	r22, r22
    186a:	77 1f       	adc	r23, r23
    186c:	88 1f       	adc	r24, r24
    186e:	99 1f       	adc	r25, r25
    1870:	1a 94       	dec	r1
    1872:	69 f7       	brne	.-38     	; 0x184e <__udivmodsi4_loop>
    1874:	60 95       	com	r22
    1876:	70 95       	com	r23
    1878:	80 95       	com	r24
    187a:	90 95       	com	r25
    187c:	9b 01       	movw	r18, r22
    187e:	ac 01       	movw	r20, r24
    1880:	bd 01       	movw	r22, r26
    1882:	cf 01       	movw	r24, r30
    1884:	08 95       	ret

00001886 <__ashldi3>:
    1886:	0f 93       	push	r16
    1888:	08 30       	cpi	r16, 0x08	; 8
    188a:	90 f0       	brcs	.+36     	; 0x18b0 <__ashldi3+0x2a>
    188c:	98 2f       	mov	r25, r24
    188e:	87 2f       	mov	r24, r23
    1890:	76 2f       	mov	r23, r22
    1892:	65 2f       	mov	r22, r21
    1894:	54 2f       	mov	r21, r20
    1896:	43 2f       	mov	r20, r19
    1898:	32 2f       	mov	r19, r18
    189a:	22 27       	eor	r18, r18
    189c:	08 50       	subi	r16, 0x08	; 8
    189e:	f4 cf       	rjmp	.-24     	; 0x1888 <__ashldi3+0x2>
    18a0:	22 0f       	add	r18, r18
    18a2:	33 1f       	adc	r19, r19
    18a4:	44 1f       	adc	r20, r20
    18a6:	55 1f       	adc	r21, r21
    18a8:	66 1f       	adc	r22, r22
    18aa:	77 1f       	adc	r23, r23
    18ac:	88 1f       	adc	r24, r24
    18ae:	99 1f       	adc	r25, r25
    18b0:	0a 95       	dec	r16
    18b2:	b2 f7       	brpl	.-20     	; 0x18a0 <__ashldi3+0x1a>
    18b4:	0f 91       	pop	r16
    18b6:	08 95       	ret

000018b8 <__subdi3>:
    18b8:	2a 19       	sub	r18, r10
    18ba:	3b 09       	sbc	r19, r11
    18bc:	4c 09       	sbc	r20, r12
    18be:	5d 09       	sbc	r21, r13
    18c0:	6e 09       	sbc	r22, r14
    18c2:	7f 09       	sbc	r23, r15
    18c4:	80 0b       	sbc	r24, r16
    18c6:	91 0b       	sbc	r25, r17
    18c8:	08 95       	ret

000018ca <fdevopen>:
    18ca:	0f 93       	push	r16
    18cc:	1f 93       	push	r17
    18ce:	cf 93       	push	r28
    18d0:	df 93       	push	r29
    18d2:	00 97       	sbiw	r24, 0x00	; 0
    18d4:	31 f4       	brne	.+12     	; 0x18e2 <fdevopen+0x18>
    18d6:	61 15       	cp	r22, r1
    18d8:	71 05       	cpc	r23, r1
    18da:	19 f4       	brne	.+6      	; 0x18e2 <fdevopen+0x18>
    18dc:	80 e0       	ldi	r24, 0x00	; 0
    18de:	90 e0       	ldi	r25, 0x00	; 0
    18e0:	39 c0       	rjmp	.+114    	; 0x1954 <fdevopen+0x8a>
    18e2:	8b 01       	movw	r16, r22
    18e4:	ec 01       	movw	r28, r24
    18e6:	6e e0       	ldi	r22, 0x0E	; 14
    18e8:	70 e0       	ldi	r23, 0x00	; 0
    18ea:	81 e0       	ldi	r24, 0x01	; 1
    18ec:	90 e0       	ldi	r25, 0x00	; 0
    18ee:	41 d2       	rcall	.+1154   	; 0x1d72 <calloc>
    18f0:	fc 01       	movw	r30, r24
    18f2:	89 2b       	or	r24, r25
    18f4:	99 f3       	breq	.-26     	; 0x18dc <fdevopen+0x12>
    18f6:	80 e8       	ldi	r24, 0x80	; 128
    18f8:	83 83       	std	Z+3, r24	; 0x03
    18fa:	01 15       	cp	r16, r1
    18fc:	11 05       	cpc	r17, r1
    18fe:	71 f0       	breq	.+28     	; 0x191c <fdevopen+0x52>
    1900:	02 87       	std	Z+10, r16	; 0x0a
    1902:	13 87       	std	Z+11, r17	; 0x0b
    1904:	81 e8       	ldi	r24, 0x81	; 129
    1906:	83 83       	std	Z+3, r24	; 0x03
    1908:	80 91 5f 20 	lds	r24, 0x205F	; 0x80205f <__iob>
    190c:	90 91 60 20 	lds	r25, 0x2060	; 0x802060 <__iob+0x1>
    1910:	89 2b       	or	r24, r25
    1912:	21 f4       	brne	.+8      	; 0x191c <fdevopen+0x52>
    1914:	e0 93 5f 20 	sts	0x205F, r30	; 0x80205f <__iob>
    1918:	f0 93 60 20 	sts	0x2060, r31	; 0x802060 <__iob+0x1>
    191c:	20 97       	sbiw	r28, 0x00	; 0
    191e:	c9 f0       	breq	.+50     	; 0x1952 <fdevopen+0x88>
    1920:	c0 87       	std	Z+8, r28	; 0x08
    1922:	d1 87       	std	Z+9, r29	; 0x09
    1924:	83 81       	ldd	r24, Z+3	; 0x03
    1926:	82 60       	ori	r24, 0x02	; 2
    1928:	83 83       	std	Z+3, r24	; 0x03
    192a:	80 91 61 20 	lds	r24, 0x2061	; 0x802061 <__iob+0x2>
    192e:	90 91 62 20 	lds	r25, 0x2062	; 0x802062 <__iob+0x3>
    1932:	89 2b       	or	r24, r25
    1934:	71 f4       	brne	.+28     	; 0x1952 <fdevopen+0x88>
    1936:	e0 93 61 20 	sts	0x2061, r30	; 0x802061 <__iob+0x2>
    193a:	f0 93 62 20 	sts	0x2062, r31	; 0x802062 <__iob+0x3>
    193e:	80 91 63 20 	lds	r24, 0x2063	; 0x802063 <__iob+0x4>
    1942:	90 91 64 20 	lds	r25, 0x2064	; 0x802064 <__iob+0x5>
    1946:	89 2b       	or	r24, r25
    1948:	21 f4       	brne	.+8      	; 0x1952 <fdevopen+0x88>
    194a:	e0 93 63 20 	sts	0x2063, r30	; 0x802063 <__iob+0x4>
    194e:	f0 93 64 20 	sts	0x2064, r31	; 0x802064 <__iob+0x5>
    1952:	cf 01       	movw	r24, r30
    1954:	df 91       	pop	r29
    1956:	cf 91       	pop	r28
    1958:	1f 91       	pop	r17
    195a:	0f 91       	pop	r16
    195c:	08 95       	ret

0000195e <printf>:
    195e:	cf 93       	push	r28
    1960:	df 93       	push	r29
    1962:	cd b7       	in	r28, 0x3d	; 61
    1964:	de b7       	in	r29, 0x3e	; 62
    1966:	ae 01       	movw	r20, r28
    1968:	4a 5f       	subi	r20, 0xFA	; 250
    196a:	5f 4f       	sbci	r21, 0xFF	; 255
    196c:	fa 01       	movw	r30, r20
    196e:	61 91       	ld	r22, Z+
    1970:	71 91       	ld	r23, Z+
    1972:	af 01       	movw	r20, r30
    1974:	80 91 61 20 	lds	r24, 0x2061	; 0x802061 <__iob+0x2>
    1978:	90 91 62 20 	lds	r25, 0x2062	; 0x802062 <__iob+0x3>
    197c:	03 d0       	rcall	.+6      	; 0x1984 <vfprintf>
    197e:	df 91       	pop	r29
    1980:	cf 91       	pop	r28
    1982:	08 95       	ret

00001984 <vfprintf>:
    1984:	2f 92       	push	r2
    1986:	3f 92       	push	r3
    1988:	4f 92       	push	r4
    198a:	5f 92       	push	r5
    198c:	6f 92       	push	r6
    198e:	7f 92       	push	r7
    1990:	8f 92       	push	r8
    1992:	9f 92       	push	r9
    1994:	af 92       	push	r10
    1996:	bf 92       	push	r11
    1998:	cf 92       	push	r12
    199a:	df 92       	push	r13
    199c:	ef 92       	push	r14
    199e:	ff 92       	push	r15
    19a0:	0f 93       	push	r16
    19a2:	1f 93       	push	r17
    19a4:	cf 93       	push	r28
    19a6:	df 93       	push	r29
    19a8:	cd b7       	in	r28, 0x3d	; 61
    19aa:	de b7       	in	r29, 0x3e	; 62
    19ac:	2b 97       	sbiw	r28, 0x0b	; 11
    19ae:	cd bf       	out	0x3d, r28	; 61
    19b0:	de bf       	out	0x3e, r29	; 62
    19b2:	6c 01       	movw	r12, r24
    19b4:	7b 01       	movw	r14, r22
    19b6:	8a 01       	movw	r16, r20
    19b8:	fc 01       	movw	r30, r24
    19ba:	16 82       	std	Z+6, r1	; 0x06
    19bc:	17 82       	std	Z+7, r1	; 0x07
    19be:	83 81       	ldd	r24, Z+3	; 0x03
    19c0:	81 ff       	sbrs	r24, 1
    19c2:	bf c1       	rjmp	.+894    	; 0x1d42 <vfprintf+0x3be>
    19c4:	ce 01       	movw	r24, r28
    19c6:	01 96       	adiw	r24, 0x01	; 1
    19c8:	3c 01       	movw	r6, r24
    19ca:	f6 01       	movw	r30, r12
    19cc:	93 81       	ldd	r25, Z+3	; 0x03
    19ce:	f7 01       	movw	r30, r14
    19d0:	93 fd       	sbrc	r25, 3
    19d2:	85 91       	lpm	r24, Z+
    19d4:	93 ff       	sbrs	r25, 3
    19d6:	81 91       	ld	r24, Z+
    19d8:	7f 01       	movw	r14, r30
    19da:	88 23       	and	r24, r24
    19dc:	09 f4       	brne	.+2      	; 0x19e0 <vfprintf+0x5c>
    19de:	ad c1       	rjmp	.+858    	; 0x1d3a <vfprintf+0x3b6>
    19e0:	85 32       	cpi	r24, 0x25	; 37
    19e2:	39 f4       	brne	.+14     	; 0x19f2 <vfprintf+0x6e>
    19e4:	93 fd       	sbrc	r25, 3
    19e6:	85 91       	lpm	r24, Z+
    19e8:	93 ff       	sbrs	r25, 3
    19ea:	81 91       	ld	r24, Z+
    19ec:	7f 01       	movw	r14, r30
    19ee:	85 32       	cpi	r24, 0x25	; 37
    19f0:	21 f4       	brne	.+8      	; 0x19fa <vfprintf+0x76>
    19f2:	b6 01       	movw	r22, r12
    19f4:	90 e0       	ldi	r25, 0x00	; 0
    19f6:	15 d3       	rcall	.+1578   	; 0x2022 <fputc>
    19f8:	e8 cf       	rjmp	.-48     	; 0x19ca <vfprintf+0x46>
    19fa:	91 2c       	mov	r9, r1
    19fc:	21 2c       	mov	r2, r1
    19fe:	31 2c       	mov	r3, r1
    1a00:	ff e1       	ldi	r31, 0x1F	; 31
    1a02:	f3 15       	cp	r31, r3
    1a04:	d8 f0       	brcs	.+54     	; 0x1a3c <vfprintf+0xb8>
    1a06:	8b 32       	cpi	r24, 0x2B	; 43
    1a08:	79 f0       	breq	.+30     	; 0x1a28 <vfprintf+0xa4>
    1a0a:	38 f4       	brcc	.+14     	; 0x1a1a <vfprintf+0x96>
    1a0c:	80 32       	cpi	r24, 0x20	; 32
    1a0e:	79 f0       	breq	.+30     	; 0x1a2e <vfprintf+0xaa>
    1a10:	83 32       	cpi	r24, 0x23	; 35
    1a12:	a1 f4       	brne	.+40     	; 0x1a3c <vfprintf+0xb8>
    1a14:	23 2d       	mov	r18, r3
    1a16:	20 61       	ori	r18, 0x10	; 16
    1a18:	1d c0       	rjmp	.+58     	; 0x1a54 <vfprintf+0xd0>
    1a1a:	8d 32       	cpi	r24, 0x2D	; 45
    1a1c:	61 f0       	breq	.+24     	; 0x1a36 <vfprintf+0xb2>
    1a1e:	80 33       	cpi	r24, 0x30	; 48
    1a20:	69 f4       	brne	.+26     	; 0x1a3c <vfprintf+0xb8>
    1a22:	23 2d       	mov	r18, r3
    1a24:	21 60       	ori	r18, 0x01	; 1
    1a26:	16 c0       	rjmp	.+44     	; 0x1a54 <vfprintf+0xd0>
    1a28:	83 2d       	mov	r24, r3
    1a2a:	82 60       	ori	r24, 0x02	; 2
    1a2c:	38 2e       	mov	r3, r24
    1a2e:	e3 2d       	mov	r30, r3
    1a30:	e4 60       	ori	r30, 0x04	; 4
    1a32:	3e 2e       	mov	r3, r30
    1a34:	2a c0       	rjmp	.+84     	; 0x1a8a <vfprintf+0x106>
    1a36:	f3 2d       	mov	r31, r3
    1a38:	f8 60       	ori	r31, 0x08	; 8
    1a3a:	1d c0       	rjmp	.+58     	; 0x1a76 <vfprintf+0xf2>
    1a3c:	37 fc       	sbrc	r3, 7
    1a3e:	2d c0       	rjmp	.+90     	; 0x1a9a <vfprintf+0x116>
    1a40:	20 ed       	ldi	r18, 0xD0	; 208
    1a42:	28 0f       	add	r18, r24
    1a44:	2a 30       	cpi	r18, 0x0A	; 10
    1a46:	40 f0       	brcs	.+16     	; 0x1a58 <vfprintf+0xd4>
    1a48:	8e 32       	cpi	r24, 0x2E	; 46
    1a4a:	b9 f4       	brne	.+46     	; 0x1a7a <vfprintf+0xf6>
    1a4c:	36 fc       	sbrc	r3, 6
    1a4e:	75 c1       	rjmp	.+746    	; 0x1d3a <vfprintf+0x3b6>
    1a50:	23 2d       	mov	r18, r3
    1a52:	20 64       	ori	r18, 0x40	; 64
    1a54:	32 2e       	mov	r3, r18
    1a56:	19 c0       	rjmp	.+50     	; 0x1a8a <vfprintf+0x106>
    1a58:	36 fe       	sbrs	r3, 6
    1a5a:	06 c0       	rjmp	.+12     	; 0x1a68 <vfprintf+0xe4>
    1a5c:	8a e0       	ldi	r24, 0x0A	; 10
    1a5e:	98 9e       	mul	r9, r24
    1a60:	20 0d       	add	r18, r0
    1a62:	11 24       	eor	r1, r1
    1a64:	92 2e       	mov	r9, r18
    1a66:	11 c0       	rjmp	.+34     	; 0x1a8a <vfprintf+0x106>
    1a68:	ea e0       	ldi	r30, 0x0A	; 10
    1a6a:	2e 9e       	mul	r2, r30
    1a6c:	20 0d       	add	r18, r0
    1a6e:	11 24       	eor	r1, r1
    1a70:	22 2e       	mov	r2, r18
    1a72:	f3 2d       	mov	r31, r3
    1a74:	f0 62       	ori	r31, 0x20	; 32
    1a76:	3f 2e       	mov	r3, r31
    1a78:	08 c0       	rjmp	.+16     	; 0x1a8a <vfprintf+0x106>
    1a7a:	8c 36       	cpi	r24, 0x6C	; 108
    1a7c:	21 f4       	brne	.+8      	; 0x1a86 <vfprintf+0x102>
    1a7e:	83 2d       	mov	r24, r3
    1a80:	80 68       	ori	r24, 0x80	; 128
    1a82:	38 2e       	mov	r3, r24
    1a84:	02 c0       	rjmp	.+4      	; 0x1a8a <vfprintf+0x106>
    1a86:	88 36       	cpi	r24, 0x68	; 104
    1a88:	41 f4       	brne	.+16     	; 0x1a9a <vfprintf+0x116>
    1a8a:	f7 01       	movw	r30, r14
    1a8c:	93 fd       	sbrc	r25, 3
    1a8e:	85 91       	lpm	r24, Z+
    1a90:	93 ff       	sbrs	r25, 3
    1a92:	81 91       	ld	r24, Z+
    1a94:	7f 01       	movw	r14, r30
    1a96:	81 11       	cpse	r24, r1
    1a98:	b3 cf       	rjmp	.-154    	; 0x1a00 <vfprintf+0x7c>
    1a9a:	98 2f       	mov	r25, r24
    1a9c:	9f 7d       	andi	r25, 0xDF	; 223
    1a9e:	95 54       	subi	r25, 0x45	; 69
    1aa0:	93 30       	cpi	r25, 0x03	; 3
    1aa2:	28 f4       	brcc	.+10     	; 0x1aae <vfprintf+0x12a>
    1aa4:	0c 5f       	subi	r16, 0xFC	; 252
    1aa6:	1f 4f       	sbci	r17, 0xFF	; 255
    1aa8:	9f e3       	ldi	r25, 0x3F	; 63
    1aaa:	99 83       	std	Y+1, r25	; 0x01
    1aac:	0d c0       	rjmp	.+26     	; 0x1ac8 <vfprintf+0x144>
    1aae:	83 36       	cpi	r24, 0x63	; 99
    1ab0:	31 f0       	breq	.+12     	; 0x1abe <vfprintf+0x13a>
    1ab2:	83 37       	cpi	r24, 0x73	; 115
    1ab4:	71 f0       	breq	.+28     	; 0x1ad2 <vfprintf+0x14e>
    1ab6:	83 35       	cpi	r24, 0x53	; 83
    1ab8:	09 f0       	breq	.+2      	; 0x1abc <vfprintf+0x138>
    1aba:	55 c0       	rjmp	.+170    	; 0x1b66 <vfprintf+0x1e2>
    1abc:	20 c0       	rjmp	.+64     	; 0x1afe <vfprintf+0x17a>
    1abe:	f8 01       	movw	r30, r16
    1ac0:	80 81       	ld	r24, Z
    1ac2:	89 83       	std	Y+1, r24	; 0x01
    1ac4:	0e 5f       	subi	r16, 0xFE	; 254
    1ac6:	1f 4f       	sbci	r17, 0xFF	; 255
    1ac8:	88 24       	eor	r8, r8
    1aca:	83 94       	inc	r8
    1acc:	91 2c       	mov	r9, r1
    1ace:	53 01       	movw	r10, r6
    1ad0:	12 c0       	rjmp	.+36     	; 0x1af6 <vfprintf+0x172>
    1ad2:	28 01       	movw	r4, r16
    1ad4:	f2 e0       	ldi	r31, 0x02	; 2
    1ad6:	4f 0e       	add	r4, r31
    1ad8:	51 1c       	adc	r5, r1
    1ada:	f8 01       	movw	r30, r16
    1adc:	a0 80       	ld	r10, Z
    1ade:	b1 80       	ldd	r11, Z+1	; 0x01
    1ae0:	36 fe       	sbrs	r3, 6
    1ae2:	03 c0       	rjmp	.+6      	; 0x1aea <vfprintf+0x166>
    1ae4:	69 2d       	mov	r22, r9
    1ae6:	70 e0       	ldi	r23, 0x00	; 0
    1ae8:	02 c0       	rjmp	.+4      	; 0x1aee <vfprintf+0x16a>
    1aea:	6f ef       	ldi	r22, 0xFF	; 255
    1aec:	7f ef       	ldi	r23, 0xFF	; 255
    1aee:	c5 01       	movw	r24, r10
    1af0:	8d d2       	rcall	.+1306   	; 0x200c <strnlen>
    1af2:	4c 01       	movw	r8, r24
    1af4:	82 01       	movw	r16, r4
    1af6:	f3 2d       	mov	r31, r3
    1af8:	ff 77       	andi	r31, 0x7F	; 127
    1afa:	3f 2e       	mov	r3, r31
    1afc:	15 c0       	rjmp	.+42     	; 0x1b28 <vfprintf+0x1a4>
    1afe:	28 01       	movw	r4, r16
    1b00:	22 e0       	ldi	r18, 0x02	; 2
    1b02:	42 0e       	add	r4, r18
    1b04:	51 1c       	adc	r5, r1
    1b06:	f8 01       	movw	r30, r16
    1b08:	a0 80       	ld	r10, Z
    1b0a:	b1 80       	ldd	r11, Z+1	; 0x01
    1b0c:	36 fe       	sbrs	r3, 6
    1b0e:	03 c0       	rjmp	.+6      	; 0x1b16 <vfprintf+0x192>
    1b10:	69 2d       	mov	r22, r9
    1b12:	70 e0       	ldi	r23, 0x00	; 0
    1b14:	02 c0       	rjmp	.+4      	; 0x1b1a <vfprintf+0x196>
    1b16:	6f ef       	ldi	r22, 0xFF	; 255
    1b18:	7f ef       	ldi	r23, 0xFF	; 255
    1b1a:	c5 01       	movw	r24, r10
    1b1c:	65 d2       	rcall	.+1226   	; 0x1fe8 <strnlen_P>
    1b1e:	4c 01       	movw	r8, r24
    1b20:	f3 2d       	mov	r31, r3
    1b22:	f0 68       	ori	r31, 0x80	; 128
    1b24:	3f 2e       	mov	r3, r31
    1b26:	82 01       	movw	r16, r4
    1b28:	33 fc       	sbrc	r3, 3
    1b2a:	19 c0       	rjmp	.+50     	; 0x1b5e <vfprintf+0x1da>
    1b2c:	82 2d       	mov	r24, r2
    1b2e:	90 e0       	ldi	r25, 0x00	; 0
    1b30:	88 16       	cp	r8, r24
    1b32:	99 06       	cpc	r9, r25
    1b34:	a0 f4       	brcc	.+40     	; 0x1b5e <vfprintf+0x1da>
    1b36:	b6 01       	movw	r22, r12
    1b38:	80 e2       	ldi	r24, 0x20	; 32
    1b3a:	90 e0       	ldi	r25, 0x00	; 0
    1b3c:	72 d2       	rcall	.+1252   	; 0x2022 <fputc>
    1b3e:	2a 94       	dec	r2
    1b40:	f5 cf       	rjmp	.-22     	; 0x1b2c <vfprintf+0x1a8>
    1b42:	f5 01       	movw	r30, r10
    1b44:	37 fc       	sbrc	r3, 7
    1b46:	85 91       	lpm	r24, Z+
    1b48:	37 fe       	sbrs	r3, 7
    1b4a:	81 91       	ld	r24, Z+
    1b4c:	5f 01       	movw	r10, r30
    1b4e:	b6 01       	movw	r22, r12
    1b50:	90 e0       	ldi	r25, 0x00	; 0
    1b52:	67 d2       	rcall	.+1230   	; 0x2022 <fputc>
    1b54:	21 10       	cpse	r2, r1
    1b56:	2a 94       	dec	r2
    1b58:	21 e0       	ldi	r18, 0x01	; 1
    1b5a:	82 1a       	sub	r8, r18
    1b5c:	91 08       	sbc	r9, r1
    1b5e:	81 14       	cp	r8, r1
    1b60:	91 04       	cpc	r9, r1
    1b62:	79 f7       	brne	.-34     	; 0x1b42 <vfprintf+0x1be>
    1b64:	e1 c0       	rjmp	.+450    	; 0x1d28 <vfprintf+0x3a4>
    1b66:	84 36       	cpi	r24, 0x64	; 100
    1b68:	11 f0       	breq	.+4      	; 0x1b6e <vfprintf+0x1ea>
    1b6a:	89 36       	cpi	r24, 0x69	; 105
    1b6c:	39 f5       	brne	.+78     	; 0x1bbc <vfprintf+0x238>
    1b6e:	f8 01       	movw	r30, r16
    1b70:	37 fe       	sbrs	r3, 7
    1b72:	07 c0       	rjmp	.+14     	; 0x1b82 <vfprintf+0x1fe>
    1b74:	60 81       	ld	r22, Z
    1b76:	71 81       	ldd	r23, Z+1	; 0x01
    1b78:	82 81       	ldd	r24, Z+2	; 0x02
    1b7a:	93 81       	ldd	r25, Z+3	; 0x03
    1b7c:	0c 5f       	subi	r16, 0xFC	; 252
    1b7e:	1f 4f       	sbci	r17, 0xFF	; 255
    1b80:	08 c0       	rjmp	.+16     	; 0x1b92 <vfprintf+0x20e>
    1b82:	60 81       	ld	r22, Z
    1b84:	71 81       	ldd	r23, Z+1	; 0x01
    1b86:	07 2e       	mov	r0, r23
    1b88:	00 0c       	add	r0, r0
    1b8a:	88 0b       	sbc	r24, r24
    1b8c:	99 0b       	sbc	r25, r25
    1b8e:	0e 5f       	subi	r16, 0xFE	; 254
    1b90:	1f 4f       	sbci	r17, 0xFF	; 255
    1b92:	f3 2d       	mov	r31, r3
    1b94:	ff 76       	andi	r31, 0x6F	; 111
    1b96:	3f 2e       	mov	r3, r31
    1b98:	97 ff       	sbrs	r25, 7
    1b9a:	09 c0       	rjmp	.+18     	; 0x1bae <vfprintf+0x22a>
    1b9c:	90 95       	com	r25
    1b9e:	80 95       	com	r24
    1ba0:	70 95       	com	r23
    1ba2:	61 95       	neg	r22
    1ba4:	7f 4f       	sbci	r23, 0xFF	; 255
    1ba6:	8f 4f       	sbci	r24, 0xFF	; 255
    1ba8:	9f 4f       	sbci	r25, 0xFF	; 255
    1baa:	f0 68       	ori	r31, 0x80	; 128
    1bac:	3f 2e       	mov	r3, r31
    1bae:	2a e0       	ldi	r18, 0x0A	; 10
    1bb0:	30 e0       	ldi	r19, 0x00	; 0
    1bb2:	a3 01       	movw	r20, r6
    1bb4:	72 d2       	rcall	.+1252   	; 0x209a <__ultoa_invert>
    1bb6:	88 2e       	mov	r8, r24
    1bb8:	86 18       	sub	r8, r6
    1bba:	44 c0       	rjmp	.+136    	; 0x1c44 <vfprintf+0x2c0>
    1bbc:	85 37       	cpi	r24, 0x75	; 117
    1bbe:	31 f4       	brne	.+12     	; 0x1bcc <vfprintf+0x248>
    1bc0:	23 2d       	mov	r18, r3
    1bc2:	2f 7e       	andi	r18, 0xEF	; 239
    1bc4:	b2 2e       	mov	r11, r18
    1bc6:	2a e0       	ldi	r18, 0x0A	; 10
    1bc8:	30 e0       	ldi	r19, 0x00	; 0
    1bca:	25 c0       	rjmp	.+74     	; 0x1c16 <vfprintf+0x292>
    1bcc:	93 2d       	mov	r25, r3
    1bce:	99 7f       	andi	r25, 0xF9	; 249
    1bd0:	b9 2e       	mov	r11, r25
    1bd2:	8f 36       	cpi	r24, 0x6F	; 111
    1bd4:	c1 f0       	breq	.+48     	; 0x1c06 <vfprintf+0x282>
    1bd6:	18 f4       	brcc	.+6      	; 0x1bde <vfprintf+0x25a>
    1bd8:	88 35       	cpi	r24, 0x58	; 88
    1bda:	79 f0       	breq	.+30     	; 0x1bfa <vfprintf+0x276>
    1bdc:	ae c0       	rjmp	.+348    	; 0x1d3a <vfprintf+0x3b6>
    1bde:	80 37       	cpi	r24, 0x70	; 112
    1be0:	19 f0       	breq	.+6      	; 0x1be8 <vfprintf+0x264>
    1be2:	88 37       	cpi	r24, 0x78	; 120
    1be4:	21 f0       	breq	.+8      	; 0x1bee <vfprintf+0x26a>
    1be6:	a9 c0       	rjmp	.+338    	; 0x1d3a <vfprintf+0x3b6>
    1be8:	e9 2f       	mov	r30, r25
    1bea:	e0 61       	ori	r30, 0x10	; 16
    1bec:	be 2e       	mov	r11, r30
    1bee:	b4 fe       	sbrs	r11, 4
    1bf0:	0d c0       	rjmp	.+26     	; 0x1c0c <vfprintf+0x288>
    1bf2:	fb 2d       	mov	r31, r11
    1bf4:	f4 60       	ori	r31, 0x04	; 4
    1bf6:	bf 2e       	mov	r11, r31
    1bf8:	09 c0       	rjmp	.+18     	; 0x1c0c <vfprintf+0x288>
    1bfa:	34 fe       	sbrs	r3, 4
    1bfc:	0a c0       	rjmp	.+20     	; 0x1c12 <vfprintf+0x28e>
    1bfe:	29 2f       	mov	r18, r25
    1c00:	26 60       	ori	r18, 0x06	; 6
    1c02:	b2 2e       	mov	r11, r18
    1c04:	06 c0       	rjmp	.+12     	; 0x1c12 <vfprintf+0x28e>
    1c06:	28 e0       	ldi	r18, 0x08	; 8
    1c08:	30 e0       	ldi	r19, 0x00	; 0
    1c0a:	05 c0       	rjmp	.+10     	; 0x1c16 <vfprintf+0x292>
    1c0c:	20 e1       	ldi	r18, 0x10	; 16
    1c0e:	30 e0       	ldi	r19, 0x00	; 0
    1c10:	02 c0       	rjmp	.+4      	; 0x1c16 <vfprintf+0x292>
    1c12:	20 e1       	ldi	r18, 0x10	; 16
    1c14:	32 e0       	ldi	r19, 0x02	; 2
    1c16:	f8 01       	movw	r30, r16
    1c18:	b7 fe       	sbrs	r11, 7
    1c1a:	07 c0       	rjmp	.+14     	; 0x1c2a <vfprintf+0x2a6>
    1c1c:	60 81       	ld	r22, Z
    1c1e:	71 81       	ldd	r23, Z+1	; 0x01
    1c20:	82 81       	ldd	r24, Z+2	; 0x02
    1c22:	93 81       	ldd	r25, Z+3	; 0x03
    1c24:	0c 5f       	subi	r16, 0xFC	; 252
    1c26:	1f 4f       	sbci	r17, 0xFF	; 255
    1c28:	06 c0       	rjmp	.+12     	; 0x1c36 <vfprintf+0x2b2>
    1c2a:	60 81       	ld	r22, Z
    1c2c:	71 81       	ldd	r23, Z+1	; 0x01
    1c2e:	80 e0       	ldi	r24, 0x00	; 0
    1c30:	90 e0       	ldi	r25, 0x00	; 0
    1c32:	0e 5f       	subi	r16, 0xFE	; 254
    1c34:	1f 4f       	sbci	r17, 0xFF	; 255
    1c36:	a3 01       	movw	r20, r6
    1c38:	30 d2       	rcall	.+1120   	; 0x209a <__ultoa_invert>
    1c3a:	88 2e       	mov	r8, r24
    1c3c:	86 18       	sub	r8, r6
    1c3e:	fb 2d       	mov	r31, r11
    1c40:	ff 77       	andi	r31, 0x7F	; 127
    1c42:	3f 2e       	mov	r3, r31
    1c44:	36 fe       	sbrs	r3, 6
    1c46:	0d c0       	rjmp	.+26     	; 0x1c62 <vfprintf+0x2de>
    1c48:	23 2d       	mov	r18, r3
    1c4a:	2e 7f       	andi	r18, 0xFE	; 254
    1c4c:	a2 2e       	mov	r10, r18
    1c4e:	89 14       	cp	r8, r9
    1c50:	58 f4       	brcc	.+22     	; 0x1c68 <vfprintf+0x2e4>
    1c52:	34 fe       	sbrs	r3, 4
    1c54:	0b c0       	rjmp	.+22     	; 0x1c6c <vfprintf+0x2e8>
    1c56:	32 fc       	sbrc	r3, 2
    1c58:	09 c0       	rjmp	.+18     	; 0x1c6c <vfprintf+0x2e8>
    1c5a:	83 2d       	mov	r24, r3
    1c5c:	8e 7e       	andi	r24, 0xEE	; 238
    1c5e:	a8 2e       	mov	r10, r24
    1c60:	05 c0       	rjmp	.+10     	; 0x1c6c <vfprintf+0x2e8>
    1c62:	b8 2c       	mov	r11, r8
    1c64:	a3 2c       	mov	r10, r3
    1c66:	03 c0       	rjmp	.+6      	; 0x1c6e <vfprintf+0x2ea>
    1c68:	b8 2c       	mov	r11, r8
    1c6a:	01 c0       	rjmp	.+2      	; 0x1c6e <vfprintf+0x2ea>
    1c6c:	b9 2c       	mov	r11, r9
    1c6e:	a4 fe       	sbrs	r10, 4
    1c70:	0f c0       	rjmp	.+30     	; 0x1c90 <vfprintf+0x30c>
    1c72:	fe 01       	movw	r30, r28
    1c74:	e8 0d       	add	r30, r8
    1c76:	f1 1d       	adc	r31, r1
    1c78:	80 81       	ld	r24, Z
    1c7a:	80 33       	cpi	r24, 0x30	; 48
    1c7c:	21 f4       	brne	.+8      	; 0x1c86 <vfprintf+0x302>
    1c7e:	9a 2d       	mov	r25, r10
    1c80:	99 7e       	andi	r25, 0xE9	; 233
    1c82:	a9 2e       	mov	r10, r25
    1c84:	09 c0       	rjmp	.+18     	; 0x1c98 <vfprintf+0x314>
    1c86:	a2 fe       	sbrs	r10, 2
    1c88:	06 c0       	rjmp	.+12     	; 0x1c96 <vfprintf+0x312>
    1c8a:	b3 94       	inc	r11
    1c8c:	b3 94       	inc	r11
    1c8e:	04 c0       	rjmp	.+8      	; 0x1c98 <vfprintf+0x314>
    1c90:	8a 2d       	mov	r24, r10
    1c92:	86 78       	andi	r24, 0x86	; 134
    1c94:	09 f0       	breq	.+2      	; 0x1c98 <vfprintf+0x314>
    1c96:	b3 94       	inc	r11
    1c98:	a3 fc       	sbrc	r10, 3
    1c9a:	10 c0       	rjmp	.+32     	; 0x1cbc <vfprintf+0x338>
    1c9c:	a0 fe       	sbrs	r10, 0
    1c9e:	06 c0       	rjmp	.+12     	; 0x1cac <vfprintf+0x328>
    1ca0:	b2 14       	cp	r11, r2
    1ca2:	80 f4       	brcc	.+32     	; 0x1cc4 <vfprintf+0x340>
    1ca4:	28 0c       	add	r2, r8
    1ca6:	92 2c       	mov	r9, r2
    1ca8:	9b 18       	sub	r9, r11
    1caa:	0d c0       	rjmp	.+26     	; 0x1cc6 <vfprintf+0x342>
    1cac:	b2 14       	cp	r11, r2
    1cae:	58 f4       	brcc	.+22     	; 0x1cc6 <vfprintf+0x342>
    1cb0:	b6 01       	movw	r22, r12
    1cb2:	80 e2       	ldi	r24, 0x20	; 32
    1cb4:	90 e0       	ldi	r25, 0x00	; 0
    1cb6:	b5 d1       	rcall	.+874    	; 0x2022 <fputc>
    1cb8:	b3 94       	inc	r11
    1cba:	f8 cf       	rjmp	.-16     	; 0x1cac <vfprintf+0x328>
    1cbc:	b2 14       	cp	r11, r2
    1cbe:	18 f4       	brcc	.+6      	; 0x1cc6 <vfprintf+0x342>
    1cc0:	2b 18       	sub	r2, r11
    1cc2:	02 c0       	rjmp	.+4      	; 0x1cc8 <vfprintf+0x344>
    1cc4:	98 2c       	mov	r9, r8
    1cc6:	21 2c       	mov	r2, r1
    1cc8:	a4 fe       	sbrs	r10, 4
    1cca:	0f c0       	rjmp	.+30     	; 0x1cea <vfprintf+0x366>
    1ccc:	b6 01       	movw	r22, r12
    1cce:	80 e3       	ldi	r24, 0x30	; 48
    1cd0:	90 e0       	ldi	r25, 0x00	; 0
    1cd2:	a7 d1       	rcall	.+846    	; 0x2022 <fputc>
    1cd4:	a2 fe       	sbrs	r10, 2
    1cd6:	16 c0       	rjmp	.+44     	; 0x1d04 <vfprintf+0x380>
    1cd8:	a1 fc       	sbrc	r10, 1
    1cda:	03 c0       	rjmp	.+6      	; 0x1ce2 <vfprintf+0x35e>
    1cdc:	88 e7       	ldi	r24, 0x78	; 120
    1cde:	90 e0       	ldi	r25, 0x00	; 0
    1ce0:	02 c0       	rjmp	.+4      	; 0x1ce6 <vfprintf+0x362>
    1ce2:	88 e5       	ldi	r24, 0x58	; 88
    1ce4:	90 e0       	ldi	r25, 0x00	; 0
    1ce6:	b6 01       	movw	r22, r12
    1ce8:	0c c0       	rjmp	.+24     	; 0x1d02 <vfprintf+0x37e>
    1cea:	8a 2d       	mov	r24, r10
    1cec:	86 78       	andi	r24, 0x86	; 134
    1cee:	51 f0       	breq	.+20     	; 0x1d04 <vfprintf+0x380>
    1cf0:	a1 fe       	sbrs	r10, 1
    1cf2:	02 c0       	rjmp	.+4      	; 0x1cf8 <vfprintf+0x374>
    1cf4:	8b e2       	ldi	r24, 0x2B	; 43
    1cf6:	01 c0       	rjmp	.+2      	; 0x1cfa <vfprintf+0x376>
    1cf8:	80 e2       	ldi	r24, 0x20	; 32
    1cfa:	a7 fc       	sbrc	r10, 7
    1cfc:	8d e2       	ldi	r24, 0x2D	; 45
    1cfe:	b6 01       	movw	r22, r12
    1d00:	90 e0       	ldi	r25, 0x00	; 0
    1d02:	8f d1       	rcall	.+798    	; 0x2022 <fputc>
    1d04:	89 14       	cp	r8, r9
    1d06:	30 f4       	brcc	.+12     	; 0x1d14 <vfprintf+0x390>
    1d08:	b6 01       	movw	r22, r12
    1d0a:	80 e3       	ldi	r24, 0x30	; 48
    1d0c:	90 e0       	ldi	r25, 0x00	; 0
    1d0e:	89 d1       	rcall	.+786    	; 0x2022 <fputc>
    1d10:	9a 94       	dec	r9
    1d12:	f8 cf       	rjmp	.-16     	; 0x1d04 <vfprintf+0x380>
    1d14:	8a 94       	dec	r8
    1d16:	f3 01       	movw	r30, r6
    1d18:	e8 0d       	add	r30, r8
    1d1a:	f1 1d       	adc	r31, r1
    1d1c:	80 81       	ld	r24, Z
    1d1e:	b6 01       	movw	r22, r12
    1d20:	90 e0       	ldi	r25, 0x00	; 0
    1d22:	7f d1       	rcall	.+766    	; 0x2022 <fputc>
    1d24:	81 10       	cpse	r8, r1
    1d26:	f6 cf       	rjmp	.-20     	; 0x1d14 <vfprintf+0x390>
    1d28:	22 20       	and	r2, r2
    1d2a:	09 f4       	brne	.+2      	; 0x1d2e <vfprintf+0x3aa>
    1d2c:	4e ce       	rjmp	.-868    	; 0x19ca <vfprintf+0x46>
    1d2e:	b6 01       	movw	r22, r12
    1d30:	80 e2       	ldi	r24, 0x20	; 32
    1d32:	90 e0       	ldi	r25, 0x00	; 0
    1d34:	76 d1       	rcall	.+748    	; 0x2022 <fputc>
    1d36:	2a 94       	dec	r2
    1d38:	f7 cf       	rjmp	.-18     	; 0x1d28 <vfprintf+0x3a4>
    1d3a:	f6 01       	movw	r30, r12
    1d3c:	86 81       	ldd	r24, Z+6	; 0x06
    1d3e:	97 81       	ldd	r25, Z+7	; 0x07
    1d40:	02 c0       	rjmp	.+4      	; 0x1d46 <vfprintf+0x3c2>
    1d42:	8f ef       	ldi	r24, 0xFF	; 255
    1d44:	9f ef       	ldi	r25, 0xFF	; 255
    1d46:	2b 96       	adiw	r28, 0x0b	; 11
    1d48:	cd bf       	out	0x3d, r28	; 61
    1d4a:	de bf       	out	0x3e, r29	; 62
    1d4c:	df 91       	pop	r29
    1d4e:	cf 91       	pop	r28
    1d50:	1f 91       	pop	r17
    1d52:	0f 91       	pop	r16
    1d54:	ff 90       	pop	r15
    1d56:	ef 90       	pop	r14
    1d58:	df 90       	pop	r13
    1d5a:	cf 90       	pop	r12
    1d5c:	bf 90       	pop	r11
    1d5e:	af 90       	pop	r10
    1d60:	9f 90       	pop	r9
    1d62:	8f 90       	pop	r8
    1d64:	7f 90       	pop	r7
    1d66:	6f 90       	pop	r6
    1d68:	5f 90       	pop	r5
    1d6a:	4f 90       	pop	r4
    1d6c:	3f 90       	pop	r3
    1d6e:	2f 90       	pop	r2
    1d70:	08 95       	ret

00001d72 <calloc>:
    1d72:	0f 93       	push	r16
    1d74:	1f 93       	push	r17
    1d76:	cf 93       	push	r28
    1d78:	df 93       	push	r29
    1d7a:	86 9f       	mul	r24, r22
    1d7c:	80 01       	movw	r16, r0
    1d7e:	87 9f       	mul	r24, r23
    1d80:	10 0d       	add	r17, r0
    1d82:	96 9f       	mul	r25, r22
    1d84:	10 0d       	add	r17, r0
    1d86:	11 24       	eor	r1, r1
    1d88:	c8 01       	movw	r24, r16
    1d8a:	0d d0       	rcall	.+26     	; 0x1da6 <malloc>
    1d8c:	ec 01       	movw	r28, r24
    1d8e:	00 97       	sbiw	r24, 0x00	; 0
    1d90:	21 f0       	breq	.+8      	; 0x1d9a <calloc+0x28>
    1d92:	a8 01       	movw	r20, r16
    1d94:	60 e0       	ldi	r22, 0x00	; 0
    1d96:	70 e0       	ldi	r23, 0x00	; 0
    1d98:	32 d1       	rcall	.+612    	; 0x1ffe <memset>
    1d9a:	ce 01       	movw	r24, r28
    1d9c:	df 91       	pop	r29
    1d9e:	cf 91       	pop	r28
    1da0:	1f 91       	pop	r17
    1da2:	0f 91       	pop	r16
    1da4:	08 95       	ret

00001da6 <malloc>:
    1da6:	0f 93       	push	r16
    1da8:	1f 93       	push	r17
    1daa:	cf 93       	push	r28
    1dac:	df 93       	push	r29
    1dae:	82 30       	cpi	r24, 0x02	; 2
    1db0:	91 05       	cpc	r25, r1
    1db2:	10 f4       	brcc	.+4      	; 0x1db8 <malloc+0x12>
    1db4:	82 e0       	ldi	r24, 0x02	; 2
    1db6:	90 e0       	ldi	r25, 0x00	; 0
    1db8:	e0 91 67 20 	lds	r30, 0x2067	; 0x802067 <__flp>
    1dbc:	f0 91 68 20 	lds	r31, 0x2068	; 0x802068 <__flp+0x1>
    1dc0:	20 e0       	ldi	r18, 0x00	; 0
    1dc2:	30 e0       	ldi	r19, 0x00	; 0
    1dc4:	a0 e0       	ldi	r26, 0x00	; 0
    1dc6:	b0 e0       	ldi	r27, 0x00	; 0
    1dc8:	30 97       	sbiw	r30, 0x00	; 0
    1dca:	19 f1       	breq	.+70     	; 0x1e12 <malloc+0x6c>
    1dcc:	40 81       	ld	r20, Z
    1dce:	51 81       	ldd	r21, Z+1	; 0x01
    1dd0:	02 81       	ldd	r16, Z+2	; 0x02
    1dd2:	13 81       	ldd	r17, Z+3	; 0x03
    1dd4:	48 17       	cp	r20, r24
    1dd6:	59 07       	cpc	r21, r25
    1dd8:	c8 f0       	brcs	.+50     	; 0x1e0c <malloc+0x66>
    1dda:	84 17       	cp	r24, r20
    1ddc:	95 07       	cpc	r25, r21
    1dde:	69 f4       	brne	.+26     	; 0x1dfa <malloc+0x54>
    1de0:	10 97       	sbiw	r26, 0x00	; 0
    1de2:	31 f0       	breq	.+12     	; 0x1df0 <malloc+0x4a>
    1de4:	12 96       	adiw	r26, 0x02	; 2
    1de6:	0c 93       	st	X, r16
    1de8:	12 97       	sbiw	r26, 0x02	; 2
    1dea:	13 96       	adiw	r26, 0x03	; 3
    1dec:	1c 93       	st	X, r17
    1dee:	27 c0       	rjmp	.+78     	; 0x1e3e <malloc+0x98>
    1df0:	00 93 67 20 	sts	0x2067, r16	; 0x802067 <__flp>
    1df4:	10 93 68 20 	sts	0x2068, r17	; 0x802068 <__flp+0x1>
    1df8:	22 c0       	rjmp	.+68     	; 0x1e3e <malloc+0x98>
    1dfa:	21 15       	cp	r18, r1
    1dfc:	31 05       	cpc	r19, r1
    1dfe:	19 f0       	breq	.+6      	; 0x1e06 <malloc+0x60>
    1e00:	42 17       	cp	r20, r18
    1e02:	53 07       	cpc	r21, r19
    1e04:	18 f4       	brcc	.+6      	; 0x1e0c <malloc+0x66>
    1e06:	9a 01       	movw	r18, r20
    1e08:	bd 01       	movw	r22, r26
    1e0a:	ef 01       	movw	r28, r30
    1e0c:	df 01       	movw	r26, r30
    1e0e:	f8 01       	movw	r30, r16
    1e10:	db cf       	rjmp	.-74     	; 0x1dc8 <malloc+0x22>
    1e12:	21 15       	cp	r18, r1
    1e14:	31 05       	cpc	r19, r1
    1e16:	f9 f0       	breq	.+62     	; 0x1e56 <malloc+0xb0>
    1e18:	28 1b       	sub	r18, r24
    1e1a:	39 0b       	sbc	r19, r25
    1e1c:	24 30       	cpi	r18, 0x04	; 4
    1e1e:	31 05       	cpc	r19, r1
    1e20:	80 f4       	brcc	.+32     	; 0x1e42 <malloc+0x9c>
    1e22:	8a 81       	ldd	r24, Y+2	; 0x02
    1e24:	9b 81       	ldd	r25, Y+3	; 0x03
    1e26:	61 15       	cp	r22, r1
    1e28:	71 05       	cpc	r23, r1
    1e2a:	21 f0       	breq	.+8      	; 0x1e34 <malloc+0x8e>
    1e2c:	fb 01       	movw	r30, r22
    1e2e:	82 83       	std	Z+2, r24	; 0x02
    1e30:	93 83       	std	Z+3, r25	; 0x03
    1e32:	04 c0       	rjmp	.+8      	; 0x1e3c <malloc+0x96>
    1e34:	80 93 67 20 	sts	0x2067, r24	; 0x802067 <__flp>
    1e38:	90 93 68 20 	sts	0x2068, r25	; 0x802068 <__flp+0x1>
    1e3c:	fe 01       	movw	r30, r28
    1e3e:	32 96       	adiw	r30, 0x02	; 2
    1e40:	44 c0       	rjmp	.+136    	; 0x1eca <malloc+0x124>
    1e42:	fe 01       	movw	r30, r28
    1e44:	e2 0f       	add	r30, r18
    1e46:	f3 1f       	adc	r31, r19
    1e48:	81 93       	st	Z+, r24
    1e4a:	91 93       	st	Z+, r25
    1e4c:	22 50       	subi	r18, 0x02	; 2
    1e4e:	31 09       	sbc	r19, r1
    1e50:	28 83       	st	Y, r18
    1e52:	39 83       	std	Y+1, r19	; 0x01
    1e54:	3a c0       	rjmp	.+116    	; 0x1eca <malloc+0x124>
    1e56:	20 91 65 20 	lds	r18, 0x2065	; 0x802065 <__brkval>
    1e5a:	30 91 66 20 	lds	r19, 0x2066	; 0x802066 <__brkval+0x1>
    1e5e:	23 2b       	or	r18, r19
    1e60:	41 f4       	brne	.+16     	; 0x1e72 <malloc+0xcc>
    1e62:	20 91 02 20 	lds	r18, 0x2002	; 0x802002 <__malloc_heap_start>
    1e66:	30 91 03 20 	lds	r19, 0x2003	; 0x802003 <__malloc_heap_start+0x1>
    1e6a:	20 93 65 20 	sts	0x2065, r18	; 0x802065 <__brkval>
    1e6e:	30 93 66 20 	sts	0x2066, r19	; 0x802066 <__brkval+0x1>
    1e72:	20 91 00 20 	lds	r18, 0x2000	; 0x802000 <__data_start>
    1e76:	30 91 01 20 	lds	r19, 0x2001	; 0x802001 <__data_start+0x1>
    1e7a:	21 15       	cp	r18, r1
    1e7c:	31 05       	cpc	r19, r1
    1e7e:	41 f4       	brne	.+16     	; 0x1e90 <malloc+0xea>
    1e80:	2d b7       	in	r18, 0x3d	; 61
    1e82:	3e b7       	in	r19, 0x3e	; 62
    1e84:	40 91 04 20 	lds	r20, 0x2004	; 0x802004 <__malloc_margin>
    1e88:	50 91 05 20 	lds	r21, 0x2005	; 0x802005 <__malloc_margin+0x1>
    1e8c:	24 1b       	sub	r18, r20
    1e8e:	35 0b       	sbc	r19, r21
    1e90:	e0 91 65 20 	lds	r30, 0x2065	; 0x802065 <__brkval>
    1e94:	f0 91 66 20 	lds	r31, 0x2066	; 0x802066 <__brkval+0x1>
    1e98:	e2 17       	cp	r30, r18
    1e9a:	f3 07       	cpc	r31, r19
    1e9c:	a0 f4       	brcc	.+40     	; 0x1ec6 <malloc+0x120>
    1e9e:	2e 1b       	sub	r18, r30
    1ea0:	3f 0b       	sbc	r19, r31
    1ea2:	28 17       	cp	r18, r24
    1ea4:	39 07       	cpc	r19, r25
    1ea6:	78 f0       	brcs	.+30     	; 0x1ec6 <malloc+0x120>
    1ea8:	ac 01       	movw	r20, r24
    1eaa:	4e 5f       	subi	r20, 0xFE	; 254
    1eac:	5f 4f       	sbci	r21, 0xFF	; 255
    1eae:	24 17       	cp	r18, r20
    1eb0:	35 07       	cpc	r19, r21
    1eb2:	48 f0       	brcs	.+18     	; 0x1ec6 <malloc+0x120>
    1eb4:	4e 0f       	add	r20, r30
    1eb6:	5f 1f       	adc	r21, r31
    1eb8:	40 93 65 20 	sts	0x2065, r20	; 0x802065 <__brkval>
    1ebc:	50 93 66 20 	sts	0x2066, r21	; 0x802066 <__brkval+0x1>
    1ec0:	81 93       	st	Z+, r24
    1ec2:	91 93       	st	Z+, r25
    1ec4:	02 c0       	rjmp	.+4      	; 0x1eca <malloc+0x124>
    1ec6:	e0 e0       	ldi	r30, 0x00	; 0
    1ec8:	f0 e0       	ldi	r31, 0x00	; 0
    1eca:	cf 01       	movw	r24, r30
    1ecc:	df 91       	pop	r29
    1ece:	cf 91       	pop	r28
    1ed0:	1f 91       	pop	r17
    1ed2:	0f 91       	pop	r16
    1ed4:	08 95       	ret

00001ed6 <free>:
    1ed6:	cf 93       	push	r28
    1ed8:	df 93       	push	r29
    1eda:	00 97       	sbiw	r24, 0x00	; 0
    1edc:	09 f4       	brne	.+2      	; 0x1ee0 <free+0xa>
    1ede:	81 c0       	rjmp	.+258    	; 0x1fe2 <free+0x10c>
    1ee0:	fc 01       	movw	r30, r24
    1ee2:	32 97       	sbiw	r30, 0x02	; 2
    1ee4:	12 82       	std	Z+2, r1	; 0x02
    1ee6:	13 82       	std	Z+3, r1	; 0x03
    1ee8:	a0 91 67 20 	lds	r26, 0x2067	; 0x802067 <__flp>
    1eec:	b0 91 68 20 	lds	r27, 0x2068	; 0x802068 <__flp+0x1>
    1ef0:	10 97       	sbiw	r26, 0x00	; 0
    1ef2:	81 f4       	brne	.+32     	; 0x1f14 <free+0x3e>
    1ef4:	20 81       	ld	r18, Z
    1ef6:	31 81       	ldd	r19, Z+1	; 0x01
    1ef8:	82 0f       	add	r24, r18
    1efa:	93 1f       	adc	r25, r19
    1efc:	20 91 65 20 	lds	r18, 0x2065	; 0x802065 <__brkval>
    1f00:	30 91 66 20 	lds	r19, 0x2066	; 0x802066 <__brkval+0x1>
    1f04:	28 17       	cp	r18, r24
    1f06:	39 07       	cpc	r19, r25
    1f08:	51 f5       	brne	.+84     	; 0x1f5e <free+0x88>
    1f0a:	e0 93 65 20 	sts	0x2065, r30	; 0x802065 <__brkval>
    1f0e:	f0 93 66 20 	sts	0x2066, r31	; 0x802066 <__brkval+0x1>
    1f12:	67 c0       	rjmp	.+206    	; 0x1fe2 <free+0x10c>
    1f14:	ed 01       	movw	r28, r26
    1f16:	20 e0       	ldi	r18, 0x00	; 0
    1f18:	30 e0       	ldi	r19, 0x00	; 0
    1f1a:	ce 17       	cp	r28, r30
    1f1c:	df 07       	cpc	r29, r31
    1f1e:	40 f4       	brcc	.+16     	; 0x1f30 <free+0x5a>
    1f20:	4a 81       	ldd	r20, Y+2	; 0x02
    1f22:	5b 81       	ldd	r21, Y+3	; 0x03
    1f24:	9e 01       	movw	r18, r28
    1f26:	41 15       	cp	r20, r1
    1f28:	51 05       	cpc	r21, r1
    1f2a:	f1 f0       	breq	.+60     	; 0x1f68 <free+0x92>
    1f2c:	ea 01       	movw	r28, r20
    1f2e:	f5 cf       	rjmp	.-22     	; 0x1f1a <free+0x44>
    1f30:	c2 83       	std	Z+2, r28	; 0x02
    1f32:	d3 83       	std	Z+3, r29	; 0x03
    1f34:	40 81       	ld	r20, Z
    1f36:	51 81       	ldd	r21, Z+1	; 0x01
    1f38:	84 0f       	add	r24, r20
    1f3a:	95 1f       	adc	r25, r21
    1f3c:	c8 17       	cp	r28, r24
    1f3e:	d9 07       	cpc	r29, r25
    1f40:	59 f4       	brne	.+22     	; 0x1f58 <free+0x82>
    1f42:	88 81       	ld	r24, Y
    1f44:	99 81       	ldd	r25, Y+1	; 0x01
    1f46:	84 0f       	add	r24, r20
    1f48:	95 1f       	adc	r25, r21
    1f4a:	02 96       	adiw	r24, 0x02	; 2
    1f4c:	80 83       	st	Z, r24
    1f4e:	91 83       	std	Z+1, r25	; 0x01
    1f50:	8a 81       	ldd	r24, Y+2	; 0x02
    1f52:	9b 81       	ldd	r25, Y+3	; 0x03
    1f54:	82 83       	std	Z+2, r24	; 0x02
    1f56:	93 83       	std	Z+3, r25	; 0x03
    1f58:	21 15       	cp	r18, r1
    1f5a:	31 05       	cpc	r19, r1
    1f5c:	29 f4       	brne	.+10     	; 0x1f68 <free+0x92>
    1f5e:	e0 93 67 20 	sts	0x2067, r30	; 0x802067 <__flp>
    1f62:	f0 93 68 20 	sts	0x2068, r31	; 0x802068 <__flp+0x1>
    1f66:	3d c0       	rjmp	.+122    	; 0x1fe2 <free+0x10c>
    1f68:	e9 01       	movw	r28, r18
    1f6a:	ea 83       	std	Y+2, r30	; 0x02
    1f6c:	fb 83       	std	Y+3, r31	; 0x03
    1f6e:	49 91       	ld	r20, Y+
    1f70:	59 91       	ld	r21, Y+
    1f72:	c4 0f       	add	r28, r20
    1f74:	d5 1f       	adc	r29, r21
    1f76:	ec 17       	cp	r30, r28
    1f78:	fd 07       	cpc	r31, r29
    1f7a:	61 f4       	brne	.+24     	; 0x1f94 <free+0xbe>
    1f7c:	80 81       	ld	r24, Z
    1f7e:	91 81       	ldd	r25, Z+1	; 0x01
    1f80:	84 0f       	add	r24, r20
    1f82:	95 1f       	adc	r25, r21
    1f84:	02 96       	adiw	r24, 0x02	; 2
    1f86:	e9 01       	movw	r28, r18
    1f88:	88 83       	st	Y, r24
    1f8a:	99 83       	std	Y+1, r25	; 0x01
    1f8c:	82 81       	ldd	r24, Z+2	; 0x02
    1f8e:	93 81       	ldd	r25, Z+3	; 0x03
    1f90:	8a 83       	std	Y+2, r24	; 0x02
    1f92:	9b 83       	std	Y+3, r25	; 0x03
    1f94:	e0 e0       	ldi	r30, 0x00	; 0
    1f96:	f0 e0       	ldi	r31, 0x00	; 0
    1f98:	12 96       	adiw	r26, 0x02	; 2
    1f9a:	8d 91       	ld	r24, X+
    1f9c:	9c 91       	ld	r25, X
    1f9e:	13 97       	sbiw	r26, 0x03	; 3
    1fa0:	00 97       	sbiw	r24, 0x00	; 0
    1fa2:	19 f0       	breq	.+6      	; 0x1faa <free+0xd4>
    1fa4:	fd 01       	movw	r30, r26
    1fa6:	dc 01       	movw	r26, r24
    1fa8:	f7 cf       	rjmp	.-18     	; 0x1f98 <free+0xc2>
    1faa:	8d 91       	ld	r24, X+
    1fac:	9c 91       	ld	r25, X
    1fae:	11 97       	sbiw	r26, 0x01	; 1
    1fb0:	9d 01       	movw	r18, r26
    1fb2:	2e 5f       	subi	r18, 0xFE	; 254
    1fb4:	3f 4f       	sbci	r19, 0xFF	; 255
    1fb6:	82 0f       	add	r24, r18
    1fb8:	93 1f       	adc	r25, r19
    1fba:	20 91 65 20 	lds	r18, 0x2065	; 0x802065 <__brkval>
    1fbe:	30 91 66 20 	lds	r19, 0x2066	; 0x802066 <__brkval+0x1>
    1fc2:	28 17       	cp	r18, r24
    1fc4:	39 07       	cpc	r19, r25
    1fc6:	69 f4       	brne	.+26     	; 0x1fe2 <free+0x10c>
    1fc8:	30 97       	sbiw	r30, 0x00	; 0
    1fca:	29 f4       	brne	.+10     	; 0x1fd6 <free+0x100>
    1fcc:	10 92 67 20 	sts	0x2067, r1	; 0x802067 <__flp>
    1fd0:	10 92 68 20 	sts	0x2068, r1	; 0x802068 <__flp+0x1>
    1fd4:	02 c0       	rjmp	.+4      	; 0x1fda <free+0x104>
    1fd6:	12 82       	std	Z+2, r1	; 0x02
    1fd8:	13 82       	std	Z+3, r1	; 0x03
    1fda:	a0 93 65 20 	sts	0x2065, r26	; 0x802065 <__brkval>
    1fde:	b0 93 66 20 	sts	0x2066, r27	; 0x802066 <__brkval+0x1>
    1fe2:	df 91       	pop	r29
    1fe4:	cf 91       	pop	r28
    1fe6:	08 95       	ret

00001fe8 <strnlen_P>:
    1fe8:	fc 01       	movw	r30, r24
    1fea:	05 90       	lpm	r0, Z+
    1fec:	61 50       	subi	r22, 0x01	; 1
    1fee:	70 40       	sbci	r23, 0x00	; 0
    1ff0:	01 10       	cpse	r0, r1
    1ff2:	d8 f7       	brcc	.-10     	; 0x1fea <strnlen_P+0x2>
    1ff4:	80 95       	com	r24
    1ff6:	90 95       	com	r25
    1ff8:	8e 0f       	add	r24, r30
    1ffa:	9f 1f       	adc	r25, r31
    1ffc:	08 95       	ret

00001ffe <memset>:
    1ffe:	dc 01       	movw	r26, r24
    2000:	01 c0       	rjmp	.+2      	; 0x2004 <memset+0x6>
    2002:	6d 93       	st	X+, r22
    2004:	41 50       	subi	r20, 0x01	; 1
    2006:	50 40       	sbci	r21, 0x00	; 0
    2008:	e0 f7       	brcc	.-8      	; 0x2002 <memset+0x4>
    200a:	08 95       	ret

0000200c <strnlen>:
    200c:	fc 01       	movw	r30, r24
    200e:	61 50       	subi	r22, 0x01	; 1
    2010:	70 40       	sbci	r23, 0x00	; 0
    2012:	01 90       	ld	r0, Z+
    2014:	01 10       	cpse	r0, r1
    2016:	d8 f7       	brcc	.-10     	; 0x200e <strnlen+0x2>
    2018:	80 95       	com	r24
    201a:	90 95       	com	r25
    201c:	8e 0f       	add	r24, r30
    201e:	9f 1f       	adc	r25, r31
    2020:	08 95       	ret

00002022 <fputc>:
    2022:	0f 93       	push	r16
    2024:	1f 93       	push	r17
    2026:	cf 93       	push	r28
    2028:	df 93       	push	r29
    202a:	fb 01       	movw	r30, r22
    202c:	23 81       	ldd	r18, Z+3	; 0x03
    202e:	21 fd       	sbrc	r18, 1
    2030:	03 c0       	rjmp	.+6      	; 0x2038 <fputc+0x16>
    2032:	8f ef       	ldi	r24, 0xFF	; 255
    2034:	9f ef       	ldi	r25, 0xFF	; 255
    2036:	2c c0       	rjmp	.+88     	; 0x2090 <fputc+0x6e>
    2038:	22 ff       	sbrs	r18, 2
    203a:	16 c0       	rjmp	.+44     	; 0x2068 <fputc+0x46>
    203c:	46 81       	ldd	r20, Z+6	; 0x06
    203e:	57 81       	ldd	r21, Z+7	; 0x07
    2040:	24 81       	ldd	r18, Z+4	; 0x04
    2042:	35 81       	ldd	r19, Z+5	; 0x05
    2044:	42 17       	cp	r20, r18
    2046:	53 07       	cpc	r21, r19
    2048:	44 f4       	brge	.+16     	; 0x205a <fputc+0x38>
    204a:	a0 81       	ld	r26, Z
    204c:	b1 81       	ldd	r27, Z+1	; 0x01
    204e:	9d 01       	movw	r18, r26
    2050:	2f 5f       	subi	r18, 0xFF	; 255
    2052:	3f 4f       	sbci	r19, 0xFF	; 255
    2054:	20 83       	st	Z, r18
    2056:	31 83       	std	Z+1, r19	; 0x01
    2058:	8c 93       	st	X, r24
    205a:	26 81       	ldd	r18, Z+6	; 0x06
    205c:	37 81       	ldd	r19, Z+7	; 0x07
    205e:	2f 5f       	subi	r18, 0xFF	; 255
    2060:	3f 4f       	sbci	r19, 0xFF	; 255
    2062:	26 83       	std	Z+6, r18	; 0x06
    2064:	37 83       	std	Z+7, r19	; 0x07
    2066:	14 c0       	rjmp	.+40     	; 0x2090 <fputc+0x6e>
    2068:	8b 01       	movw	r16, r22
    206a:	ec 01       	movw	r28, r24
    206c:	fb 01       	movw	r30, r22
    206e:	00 84       	ldd	r0, Z+8	; 0x08
    2070:	f1 85       	ldd	r31, Z+9	; 0x09
    2072:	e0 2d       	mov	r30, r0
    2074:	19 95       	eicall
    2076:	89 2b       	or	r24, r25
    2078:	e1 f6       	brne	.-72     	; 0x2032 <fputc+0x10>
    207a:	d8 01       	movw	r26, r16
    207c:	16 96       	adiw	r26, 0x06	; 6
    207e:	8d 91       	ld	r24, X+
    2080:	9c 91       	ld	r25, X
    2082:	17 97       	sbiw	r26, 0x07	; 7
    2084:	01 96       	adiw	r24, 0x01	; 1
    2086:	16 96       	adiw	r26, 0x06	; 6
    2088:	8d 93       	st	X+, r24
    208a:	9c 93       	st	X, r25
    208c:	17 97       	sbiw	r26, 0x07	; 7
    208e:	ce 01       	movw	r24, r28
    2090:	df 91       	pop	r29
    2092:	cf 91       	pop	r28
    2094:	1f 91       	pop	r17
    2096:	0f 91       	pop	r16
    2098:	08 95       	ret

0000209a <__ultoa_invert>:
    209a:	fa 01       	movw	r30, r20
    209c:	aa 27       	eor	r26, r26
    209e:	28 30       	cpi	r18, 0x08	; 8
    20a0:	51 f1       	breq	.+84     	; 0x20f6 <__ultoa_invert+0x5c>
    20a2:	20 31       	cpi	r18, 0x10	; 16
    20a4:	81 f1       	breq	.+96     	; 0x2106 <__ultoa_invert+0x6c>
    20a6:	e8 94       	clt
    20a8:	6f 93       	push	r22
    20aa:	6e 7f       	andi	r22, 0xFE	; 254
    20ac:	6e 5f       	subi	r22, 0xFE	; 254
    20ae:	7f 4f       	sbci	r23, 0xFF	; 255
    20b0:	8f 4f       	sbci	r24, 0xFF	; 255
    20b2:	9f 4f       	sbci	r25, 0xFF	; 255
    20b4:	af 4f       	sbci	r26, 0xFF	; 255
    20b6:	b1 e0       	ldi	r27, 0x01	; 1
    20b8:	3e d0       	rcall	.+124    	; 0x2136 <__ultoa_invert+0x9c>
    20ba:	b4 e0       	ldi	r27, 0x04	; 4
    20bc:	3c d0       	rcall	.+120    	; 0x2136 <__ultoa_invert+0x9c>
    20be:	67 0f       	add	r22, r23
    20c0:	78 1f       	adc	r23, r24
    20c2:	89 1f       	adc	r24, r25
    20c4:	9a 1f       	adc	r25, r26
    20c6:	a1 1d       	adc	r26, r1
    20c8:	68 0f       	add	r22, r24
    20ca:	79 1f       	adc	r23, r25
    20cc:	8a 1f       	adc	r24, r26
    20ce:	91 1d       	adc	r25, r1
    20d0:	a1 1d       	adc	r26, r1
    20d2:	6a 0f       	add	r22, r26
    20d4:	71 1d       	adc	r23, r1
    20d6:	81 1d       	adc	r24, r1
    20d8:	91 1d       	adc	r25, r1
    20da:	a1 1d       	adc	r26, r1
    20dc:	20 d0       	rcall	.+64     	; 0x211e <__ultoa_invert+0x84>
    20de:	09 f4       	brne	.+2      	; 0x20e2 <__ultoa_invert+0x48>
    20e0:	68 94       	set
    20e2:	3f 91       	pop	r19
    20e4:	2a e0       	ldi	r18, 0x0A	; 10
    20e6:	26 9f       	mul	r18, r22
    20e8:	11 24       	eor	r1, r1
    20ea:	30 19       	sub	r19, r0
    20ec:	30 5d       	subi	r19, 0xD0	; 208
    20ee:	31 93       	st	Z+, r19
    20f0:	de f6       	brtc	.-74     	; 0x20a8 <__ultoa_invert+0xe>
    20f2:	cf 01       	movw	r24, r30
    20f4:	08 95       	ret
    20f6:	46 2f       	mov	r20, r22
    20f8:	47 70       	andi	r20, 0x07	; 7
    20fa:	40 5d       	subi	r20, 0xD0	; 208
    20fc:	41 93       	st	Z+, r20
    20fe:	b3 e0       	ldi	r27, 0x03	; 3
    2100:	0f d0       	rcall	.+30     	; 0x2120 <__ultoa_invert+0x86>
    2102:	c9 f7       	brne	.-14     	; 0x20f6 <__ultoa_invert+0x5c>
    2104:	f6 cf       	rjmp	.-20     	; 0x20f2 <__ultoa_invert+0x58>
    2106:	46 2f       	mov	r20, r22
    2108:	4f 70       	andi	r20, 0x0F	; 15
    210a:	40 5d       	subi	r20, 0xD0	; 208
    210c:	4a 33       	cpi	r20, 0x3A	; 58
    210e:	18 f0       	brcs	.+6      	; 0x2116 <__ultoa_invert+0x7c>
    2110:	49 5d       	subi	r20, 0xD9	; 217
    2112:	31 fd       	sbrc	r19, 1
    2114:	40 52       	subi	r20, 0x20	; 32
    2116:	41 93       	st	Z+, r20
    2118:	02 d0       	rcall	.+4      	; 0x211e <__ultoa_invert+0x84>
    211a:	a9 f7       	brne	.-22     	; 0x2106 <__ultoa_invert+0x6c>
    211c:	ea cf       	rjmp	.-44     	; 0x20f2 <__ultoa_invert+0x58>
    211e:	b4 e0       	ldi	r27, 0x04	; 4
    2120:	a6 95       	lsr	r26
    2122:	97 95       	ror	r25
    2124:	87 95       	ror	r24
    2126:	77 95       	ror	r23
    2128:	67 95       	ror	r22
    212a:	ba 95       	dec	r27
    212c:	c9 f7       	brne	.-14     	; 0x2120 <__ultoa_invert+0x86>
    212e:	00 97       	sbiw	r24, 0x00	; 0
    2130:	61 05       	cpc	r22, r1
    2132:	71 05       	cpc	r23, r1
    2134:	08 95       	ret
    2136:	9b 01       	movw	r18, r22
    2138:	ac 01       	movw	r20, r24
    213a:	0a 2e       	mov	r0, r26
    213c:	06 94       	lsr	r0
    213e:	57 95       	ror	r21
    2140:	47 95       	ror	r20
    2142:	37 95       	ror	r19
    2144:	27 95       	ror	r18
    2146:	ba 95       	dec	r27
    2148:	c9 f7       	brne	.-14     	; 0x213c <__ultoa_invert+0xa2>
    214a:	62 0f       	add	r22, r18
    214c:	73 1f       	adc	r23, r19
    214e:	84 1f       	adc	r24, r20
    2150:	95 1f       	adc	r25, r21
    2152:	a0 1d       	adc	r26, r0
    2154:	08 95       	ret

00002156 <_exit>:
    2156:	f8 94       	cli

00002158 <__stop_program>:
    2158:	ff cf       	rjmp	.-2      	; 0x2158 <__stop_program>
